Archive member included to satisfy reference by file (symbol)

../../../external/rtt/librtt_nrf52840_xxAA.a(SEGGER_RTT.c.obj)
                              CMakeFiles/light_switch_proxy_server_nrf52840_xxAA_s140_6.0.0.dir/__/__/__/mesh/core/src/log.c.obj (SEGGER_RTT_Write)
../../../external/rtt/librtt_nrf52840_xxAA.a(SEGGER_RTT_printf.c.obj)
                              CMakeFiles/light_switch_proxy_server_nrf52840_xxAA_s140_6.0.0.dir/__/__/__/mesh/core/src/log.c.obj (SEGGER_RTT_vprintf)
../../../external/micro-ecc/libuECC_nrf52840_xxAA.a(uECC.c.obj)
                              CMakeFiles/light_switch_proxy_server_nrf52840_xxAA_s140_6.0.0.dir/__/__/__/mesh/prov/src/prov_utils.c.obj (uECC_secp256r1)
/usr/bin/../lib/gcc/arm-none-eabi/7.2.1/thumb/v7e-m/fpv4-sp/hard/libgcc.a(_aeabi_ldivmod.o)
                              CMakeFiles/light_switch_proxy_server_nrf52840_xxAA_s140_6.0.0.dir/__/__/common/src/rtt_input.c.obj (__aeabi_ldivmod)
/usr/bin/../lib/gcc/arm-none-eabi/7.2.1/thumb/v7e-m/fpv4-sp/hard/libgcc.a(_aeabi_uldivmod.o)
                              CMakeFiles/light_switch_proxy_server_nrf52840_xxAA_s140_6.0.0.dir/__/__/common/src/rtt_input.c.obj (__aeabi_uldivmod)
/usr/bin/../lib/gcc/arm-none-eabi/7.2.1/thumb/v7e-m/fpv4-sp/hard/libgcc.a(_udivmoddi4.o)
                              /usr/bin/../lib/gcc/arm-none-eabi/7.2.1/thumb/v7e-m/fpv4-sp/hard/libgcc.a(_aeabi_ldivmod.o) (__udivmoddi4)
/usr/bin/../lib/gcc/arm-none-eabi/7.2.1/thumb/v7e-m/fpv4-sp/hard/libgcc.a(_dvmd_tls.o)
                              /usr/bin/../lib/gcc/arm-none-eabi/7.2.1/thumb/v7e-m/fpv4-sp/hard/libgcc.a(_aeabi_ldivmod.o) (__aeabi_ldiv0)
/usr/bin/../lib/gcc/arm-none-eabi/7.2.1/../../../../arm-none-eabi/lib/thumb/v7e-m/fpv4-sp/hard/libg_nano.a(lib_a-exit.o)
                              /usr/bin/../lib/gcc/arm-none-eabi/7.2.1/../../../../arm-none-eabi/lib/thumb/v7e-m/fpv4-sp/hard/crt0.o (exit)
/usr/bin/../lib/gcc/arm-none-eabi/7.2.1/../../../../arm-none-eabi/lib/thumb/v7e-m/fpv4-sp/hard/libg_nano.a(lib_a-impure.o)
                              /usr/bin/../lib/gcc/arm-none-eabi/7.2.1/../../../../arm-none-eabi/lib/thumb/v7e-m/fpv4-sp/hard/libg_nano.a(lib_a-exit.o) (_global_impure_ptr)
/usr/bin/../lib/gcc/arm-none-eabi/7.2.1/../../../../arm-none-eabi/lib/thumb/v7e-m/fpv4-sp/hard/libg_nano.a(lib_a-init.o)
                              /usr/bin/../lib/gcc/arm-none-eabi/7.2.1/../../../../arm-none-eabi/lib/thumb/v7e-m/fpv4-sp/hard/crt0.o (__libc_init_array)
/usr/bin/../lib/gcc/arm-none-eabi/7.2.1/../../../../arm-none-eabi/lib/thumb/v7e-m/fpv4-sp/hard/libg_nano.a(lib_a-malloc.o)
                              CMakeFiles/light_switch_proxy_server_nrf52840_xxAA_s140_6.0.0.dir/__/__/__/mesh/core/src/transport.c.obj (malloc)
/usr/bin/../lib/gcc/arm-none-eabi/7.2.1/../../../../arm-none-eabi/lib/thumb/v7e-m/fpv4-sp/hard/libg_nano.a(lib_a-memcmp.o)
                              CMakeFiles/light_switch_proxy_server_nrf52840_xxAA_s140_6.0.0.dir/home/mazzer/work/nordic/sdk/nRF5_SDK_15.0.0/components/ble/common/ble_advdata.c.obj (memcmp)
/usr/bin/../lib/gcc/arm-none-eabi/7.2.1/../../../../arm-none-eabi/lib/thumb/v7e-m/fpv4-sp/hard/libg_nano.a(lib_a-memcpy-stub.o)
                              CMakeFiles/light_switch_proxy_server_nrf52840_xxAA_s140_6.0.0.dir/__/__/common/src/mesh_app_utils.c.obj (memcpy)
/usr/bin/../lib/gcc/arm-none-eabi/7.2.1/../../../../arm-none-eabi/lib/thumb/v7e-m/fpv4-sp/hard/libg_nano.a(lib_a-memset.o)
                              /usr/bin/../lib/gcc/arm-none-eabi/7.2.1/../../../../arm-none-eabi/lib/thumb/v7e-m/fpv4-sp/hard/crt0.o (memset)
/usr/bin/../lib/gcc/arm-none-eabi/7.2.1/../../../../arm-none-eabi/lib/thumb/v7e-m/fpv4-sp/hard/libg_nano.a(lib_a-nano-freer.o)
                              /usr/bin/../lib/gcc/arm-none-eabi/7.2.1/../../../../arm-none-eabi/lib/thumb/v7e-m/fpv4-sp/hard/libg_nano.a(lib_a-malloc.o) (_free_r)
/usr/bin/../lib/gcc/arm-none-eabi/7.2.1/../../../../arm-none-eabi/lib/thumb/v7e-m/fpv4-sp/hard/libg_nano.a(lib_a-nano-mallocr.o)
                              /usr/bin/../lib/gcc/arm-none-eabi/7.2.1/../../../../arm-none-eabi/lib/thumb/v7e-m/fpv4-sp/hard/libg_nano.a(lib_a-malloc.o) (_malloc_r)
/usr/bin/../lib/gcc/arm-none-eabi/7.2.1/../../../../arm-none-eabi/lib/thumb/v7e-m/fpv4-sp/hard/libg_nano.a(lib_a-sbrkr.o)
                              /usr/bin/../lib/gcc/arm-none-eabi/7.2.1/../../../../arm-none-eabi/lib/thumb/v7e-m/fpv4-sp/hard/libg_nano.a(lib_a-nano-mallocr.o) (_sbrk_r)
/usr/bin/../lib/gcc/arm-none-eabi/7.2.1/../../../../arm-none-eabi/lib/thumb/v7e-m/fpv4-sp/hard/libg_nano.a(lib_a-strcpy.o)
                              ../../../external/rtt/librtt_nrf52840_xxAA.a(SEGGER_RTT.c.obj) (strcpy)
/usr/bin/../lib/gcc/arm-none-eabi/7.2.1/../../../../arm-none-eabi/lib/thumb/v7e-m/fpv4-sp/hard/libg_nano.a(lib_a-strlen.o)
                              CMakeFiles/light_switch_proxy_server_nrf52840_xxAA_s140_6.0.0.dir/src/main.c.obj (strlen)
/usr/bin/../lib/gcc/arm-none-eabi/7.2.1/../../../../arm-none-eabi/lib/thumb/v7e-m/fpv4-sp/hard/libg_nano.a(lib_a-strrchr.o)
                              CMakeFiles/light_switch_proxy_server_nrf52840_xxAA_s140_6.0.0.dir/src/main.c.obj (strrchr)
/usr/bin/../lib/gcc/arm-none-eabi/7.2.1/../../../../arm-none-eabi/lib/thumb/v7e-m/fpv4-sp/hard/libg_nano.a(lib_a-mlock.o)
                              /usr/bin/../lib/gcc/arm-none-eabi/7.2.1/../../../../arm-none-eabi/lib/thumb/v7e-m/fpv4-sp/hard/libg_nano.a(lib_a-nano-freer.o) (__malloc_lock)
/usr/bin/../lib/gcc/arm-none-eabi/7.2.1/../../../../arm-none-eabi/lib/thumb/v7e-m/fpv4-sp/hard/libg_nano.a(lib_a-reent.o)
                              /usr/bin/../lib/gcc/arm-none-eabi/7.2.1/../../../../arm-none-eabi/lib/thumb/v7e-m/fpv4-sp/hard/libg_nano.a(lib_a-sbrkr.o) (errno)
/usr/bin/../lib/gcc/arm-none-eabi/7.2.1/../../../../arm-none-eabi/lib/thumb/v7e-m/fpv4-sp/hard/libg_nano.a(lib_a-strchr.o)
                              /usr/bin/../lib/gcc/arm-none-eabi/7.2.1/../../../../arm-none-eabi/lib/thumb/v7e-m/fpv4-sp/hard/libg_nano.a(lib_a-strrchr.o) (strchr)
/usr/bin/../lib/gcc/arm-none-eabi/7.2.1/../../../../arm-none-eabi/lib/thumb/v7e-m/fpv4-sp/hard/libnosys.a(sbrk.o)
                              /usr/bin/../lib/gcc/arm-none-eabi/7.2.1/../../../../arm-none-eabi/lib/thumb/v7e-m/fpv4-sp/hard/libg_nano.a(lib_a-sbrkr.o) (_sbrk)
/usr/bin/../lib/gcc/arm-none-eabi/7.2.1/../../../../arm-none-eabi/lib/thumb/v7e-m/fpv4-sp/hard/libnosys.a(_exit.o)
                              /usr/bin/../lib/gcc/arm-none-eabi/7.2.1/../../../../arm-none-eabi/lib/thumb/v7e-m/fpv4-sp/hard/libg_nano.a(lib_a-exit.o) (_exit)

Allocating common symbols
Common symbol       size              file

nrf_nvic_state      0xc               CMakeFiles/light_switch_proxy_server_nrf52840_xxAA_s140_6.0.0.dir/home/mazzer/work/nordic/sdk/nRF5_SDK_15.0.0/components/libraries/util/app_util_platform.c.obj
m_packet            0x24              CMakeFiles/light_switch_proxy_server_nrf52840_xxAA_s140_6.0.0.dir/__/__/__/mesh/core/src/core_tx.c.obj
errno               0x4               /usr/bin/../lib/gcc/arm-none-eabi/7.2.1/../../../../arm-none-eabi/lib/thumb/v7e-m/fpv4-sp/hard/libg_nano.a(lib_a-reent.o)
_SEGGER_RTT         0x78              ../../../external/rtt/librtt_nrf52840_xxAA.a(SEGGER_RTT.c.obj)

Discarded input sections

 .text          0x0000000000000000        0x0 /usr/bin/../lib/gcc/arm-none-eabi/7.2.1/thumb/v7e-m/fpv4-sp/hard/crti.o
 .data          0x0000000000000000        0x0 /usr/bin/../lib/gcc/arm-none-eabi/7.2.1/thumb/v7e-m/fpv4-sp/hard/crti.o
 .bss           0x0000000000000000        0x0 /usr/bin/../lib/gcc/arm-none-eabi/7.2.1/thumb/v7e-m/fpv4-sp/hard/crti.o
 .data          0x0000000000000000        0x4 /usr/bin/../lib/gcc/arm-none-eabi/7.2.1/thumb/v7e-m/fpv4-sp/hard/crtbegin.o
 .data          0x0000000000000000        0x0 /usr/bin/../lib/gcc/arm-none-eabi/7.2.1/../../../../arm-none-eabi/lib/thumb/v7e-m/fpv4-sp/hard/crt0.o
 .bss           0x0000000000000000        0x0 /usr/bin/../lib/gcc/arm-none-eabi/7.2.1/../../../../arm-none-eabi/lib/thumb/v7e-m/fpv4-sp/hard/crt0.o
 .ARM.extab     0x0000000000000000        0x0 /usr/bin/../lib/gcc/arm-none-eabi/7.2.1/../../../../arm-none-eabi/lib/thumb/v7e-m/fpv4-sp/hard/crt0.o
 .text          0x0000000000000000        0x0 CMakeFiles/light_switch_proxy_server_nrf52840_xxAA_s140_6.0.0.dir/src/main.c.obj
 .data          0x0000000000000000        0x0 CMakeFiles/light_switch_proxy_server_nrf52840_xxAA_s140_6.0.0.dir/src/main.c.obj
 .bss           0x0000000000000000        0x0 CMakeFiles/light_switch_proxy_server_nrf52840_xxAA_s140_6.0.0.dir/src/main.c.obj
 .text          0x0000000000000000        0x0 CMakeFiles/light_switch_proxy_server_nrf52840_xxAA_s140_6.0.0.dir/__/__/__/mesh/stack/src/mesh_stack.c.obj
 .data          0x0000000000000000        0x0 CMakeFiles/light_switch_proxy_server_nrf52840_xxAA_s140_6.0.0.dir/__/__/__/mesh/stack/src/mesh_stack.c.obj
 .bss           0x0000000000000000        0x0 CMakeFiles/light_switch_proxy_server_nrf52840_xxAA_s140_6.0.0.dir/__/__/__/mesh/stack/src/mesh_stack.c.obj
 .text.mesh_stack_is_device_provisioned
                0x0000000000000000       0x1c CMakeFiles/light_switch_proxy_server_nrf52840_xxAA_s140_6.0.0.dir/__/__/__/mesh/stack/src/mesh_stack.c.obj
 .text          0x0000000000000000        0x0 CMakeFiles/light_switch_proxy_server_nrf52840_xxAA_s140_6.0.0.dir/__/__/common/src/mesh_provisionee.c.obj
 .data          0x0000000000000000        0x0 CMakeFiles/light_switch_proxy_server_nrf52840_xxAA_s140_6.0.0.dir/__/__/common/src/mesh_provisionee.c.obj
 .bss           0x0000000000000000        0x0 CMakeFiles/light_switch_proxy_server_nrf52840_xxAA_s140_6.0.0.dir/__/__/common/src/mesh_provisionee.c.obj
 .text          0x0000000000000000        0x0 CMakeFiles/light_switch_proxy_server_nrf52840_xxAA_s140_6.0.0.dir/__/__/common/src/rtt_input.c.obj
 .data          0x0000000000000000        0x0 CMakeFiles/light_switch_proxy_server_nrf52840_xxAA_s140_6.0.0.dir/__/__/common/src/rtt_input.c.obj
 .bss           0x0000000000000000        0x0 CMakeFiles/light_switch_proxy_server_nrf52840_xxAA_s140_6.0.0.dir/__/__/common/src/rtt_input.c.obj
 .text.rtt_input_disable
                0x0000000000000000       0x28 CMakeFiles/light_switch_proxy_server_nrf52840_xxAA_s140_6.0.0.dir/__/__/common/src/rtt_input.c.obj
 .text          0x0000000000000000        0x0 CMakeFiles/light_switch_proxy_server_nrf52840_xxAA_s140_6.0.0.dir/__/__/common/src/simple_hal.c.obj
 .data          0x0000000000000000        0x0 CMakeFiles/light_switch_proxy_server_nrf52840_xxAA_s140_6.0.0.dir/__/__/common/src/simple_hal.c.obj
 .bss           0x0000000000000000        0x0 CMakeFiles/light_switch_proxy_server_nrf52840_xxAA_s140_6.0.0.dir/__/__/common/src/simple_hal.c.obj
 .text          0x0000000000000000        0x0 CMakeFiles/light_switch_proxy_server_nrf52840_xxAA_s140_6.0.0.dir/__/__/common/src/mesh_app_utils.c.obj
 .data          0x0000000000000000        0x0 CMakeFiles/light_switch_proxy_server_nrf52840_xxAA_s140_6.0.0.dir/__/__/common/src/mesh_app_utils.c.obj
 .bss           0x0000000000000000        0x0 CMakeFiles/light_switch_proxy_server_nrf52840_xxAA_s140_6.0.0.dir/__/__/common/src/mesh_app_utils.c.obj
 .text          0x0000000000000000        0x0 CMakeFiles/light_switch_proxy_server_nrf52840_xxAA_s140_6.0.0.dir/__/__/common/src/mesh_adv.c.obj
 .data          0x0000000000000000        0x0 CMakeFiles/light_switch_proxy_server_nrf52840_xxAA_s140_6.0.0.dir/__/__/common/src/mesh_adv.c.obj
 .bss           0x0000000000000000        0x0 CMakeFiles/light_switch_proxy_server_nrf52840_xxAA_s140_6.0.0.dir/__/__/common/src/mesh_adv.c.obj
 .text          0x0000000000000000        0x0 CMakeFiles/light_switch_proxy_server_nrf52840_xxAA_s140_6.0.0.dir/__/__/__/mesh/prov/src/nrf_mesh_prov_bearer_gatt.c.obj
 .data          0x0000000000000000        0x0 CMakeFiles/light_switch_proxy_server_nrf52840_xxAA_s140_6.0.0.dir/__/__/__/mesh/prov/src/nrf_mesh_prov_bearer_gatt.c.obj
 .bss           0x0000000000000000        0x0 CMakeFiles/light_switch_proxy_server_nrf52840_xxAA_s140_6.0.0.dir/__/__/__/mesh/prov/src/nrf_mesh_prov_bearer_gatt.c.obj
 .text          0x0000000000000000        0x0 CMakeFiles/light_switch_proxy_server_nrf52840_xxAA_s140_6.0.0.dir/home/mazzer/work/nordic/sdk/nRF5_SDK_15.0.0/components/libraries/util/app_util_platform.c.obj
 .data          0x0000000000000000        0x0 CMakeFiles/light_switch_proxy_server_nrf52840_xxAA_s140_6.0.0.dir/home/mazzer/work/nordic/sdk/nRF5_SDK_15.0.0/components/libraries/util/app_util_platform.c.obj
 .bss           0x0000000000000000        0x0 CMakeFiles/light_switch_proxy_server_nrf52840_xxAA_s140_6.0.0.dir/home/mazzer/work/nordic/sdk/nRF5_SDK_15.0.0/components/libraries/util/app_util_platform.c.obj
 .text.app_util_disable_irq
                0x0000000000000000       0x10 CMakeFiles/light_switch_proxy_server_nrf52840_xxAA_s140_6.0.0.dir/home/mazzer/work/nordic/sdk/nRF5_SDK_15.0.0/components/libraries/util/app_util_platform.c.obj
 .text.app_util_enable_irq
                0x0000000000000000       0x14 CMakeFiles/light_switch_proxy_server_nrf52840_xxAA_s140_6.0.0.dir/home/mazzer/work/nordic/sdk/nRF5_SDK_15.0.0/components/libraries/util/app_util_platform.c.obj
 .text.privilege_level_get
                0x0000000000000000       0x1c CMakeFiles/light_switch_proxy_server_nrf52840_xxAA_s140_6.0.0.dir/home/mazzer/work/nordic/sdk/nRF5_SDK_15.0.0/components/libraries/util/app_util_platform.c.obj
 .text.current_int_priority_get
                0x0000000000000000       0x3c CMakeFiles/light_switch_proxy_server_nrf52840_xxAA_s140_6.0.0.dir/home/mazzer/work/nordic/sdk/nRF5_SDK_15.0.0/components/libraries/util/app_util_platform.c.obj
 .bss.m_in_critical_region
                0x0000000000000000        0x4 CMakeFiles/light_switch_proxy_server_nrf52840_xxAA_s140_6.0.0.dir/home/mazzer/work/nordic/sdk/nRF5_SDK_15.0.0/components/libraries/util/app_util_platform.c.obj
 .text          0x0000000000000000        0x0 CMakeFiles/light_switch_proxy_server_nrf52840_xxAA_s140_6.0.0.dir/home/mazzer/work/nordic/sdk/nRF5_SDK_15.0.0/components/ble/common/ble_advdata.c.obj
 .data          0x0000000000000000        0x0 CMakeFiles/light_switch_proxy_server_nrf52840_xxAA_s140_6.0.0.dir/home/mazzer/work/nordic/sdk/nRF5_SDK_15.0.0/components/ble/common/ble_advdata.c.obj
 .bss           0x0000000000000000        0x0 CMakeFiles/light_switch_proxy_server_nrf52840_xxAA_s140_6.0.0.dir/home/mazzer/work/nordic/sdk/nRF5_SDK_15.0.0/components/ble/common/ble_advdata.c.obj
 .text.ble_advdata_search
                0x0000000000000000       0x44 CMakeFiles/light_switch_proxy_server_nrf52840_xxAA_s140_6.0.0.dir/home/mazzer/work/nordic/sdk/nRF5_SDK_15.0.0/components/ble/common/ble_advdata.c.obj
 .text.ble_advdata_parse
                0x0000000000000000       0x4c CMakeFiles/light_switch_proxy_server_nrf52840_xxAA_s140_6.0.0.dir/home/mazzer/work/nordic/sdk/nRF5_SDK_15.0.0/components/ble/common/ble_advdata.c.obj
 .text.ble_advdata_name_find
                0x0000000000000000       0x74 CMakeFiles/light_switch_proxy_server_nrf52840_xxAA_s140_6.0.0.dir/home/mazzer/work/nordic/sdk/nRF5_SDK_15.0.0/components/ble/common/ble_advdata.c.obj
 .text.ble_advdata_short_name_find
                0x0000000000000000       0x78 CMakeFiles/light_switch_proxy_server_nrf52840_xxAA_s140_6.0.0.dir/home/mazzer/work/nordic/sdk/nRF5_SDK_15.0.0/components/ble/common/ble_advdata.c.obj
 .text.ble_advdata_uuid_find
                0x0000000000000000      0x104 CMakeFiles/light_switch_proxy_server_nrf52840_xxAA_s140_6.0.0.dir/home/mazzer/work/nordic/sdk/nRF5_SDK_15.0.0/components/ble/common/ble_advdata.c.obj
 .text.ble_advdata_appearance_find
                0x0000000000000000       0x6c CMakeFiles/light_switch_proxy_server_nrf52840_xxAA_s140_6.0.0.dir/home/mazzer/work/nordic/sdk/nRF5_SDK_15.0.0/components/ble/common/ble_advdata.c.obj
 .text          0x0000000000000000        0x0 CMakeFiles/light_switch_proxy_server_nrf52840_xxAA_s140_6.0.0.dir/home/mazzer/work/nordic/sdk/nRF5_SDK_15.0.0/components/libraries/experimental_section_vars/nrf_section_iter.c.obj
 .data          0x0000000000000000        0x0 CMakeFiles/light_switch_proxy_server_nrf52840_xxAA_s140_6.0.0.dir/home/mazzer/work/nordic/sdk/nRF5_SDK_15.0.0/components/libraries/experimental_section_vars/nrf_section_iter.c.obj
 .bss           0x0000000000000000        0x0 CMakeFiles/light_switch_proxy_server_nrf52840_xxAA_s140_6.0.0.dir/home/mazzer/work/nordic/sdk/nRF5_SDK_15.0.0/components/libraries/experimental_section_vars/nrf_section_iter.c.obj
 .text          0x0000000000000000        0x0 CMakeFiles/light_switch_proxy_server_nrf52840_xxAA_s140_6.0.0.dir/home/mazzer/work/nordic/sdk/nRF5_SDK_15.0.0/components/softdevice/common/nrf_sdh.c.obj
 .data          0x0000000000000000        0x0 CMakeFiles/light_switch_proxy_server_nrf52840_xxAA_s140_6.0.0.dir/home/mazzer/work/nordic/sdk/nRF5_SDK_15.0.0/components/softdevice/common/nrf_sdh.c.obj
 .bss           0x0000000000000000        0x0 CMakeFiles/light_switch_proxy_server_nrf52840_xxAA_s140_6.0.0.dir/home/mazzer/work/nordic/sdk/nRF5_SDK_15.0.0/components/softdevice/common/nrf_sdh.c.obj
 .text.nrf_sdh_request_continue
                0x0000000000000000       0x20 CMakeFiles/light_switch_proxy_server_nrf52840_xxAA_s140_6.0.0.dir/home/mazzer/work/nordic/sdk/nRF5_SDK_15.0.0/components/softdevice/common/nrf_sdh.c.obj
 .text.nrf_sdh_is_enabled
                0x0000000000000000        0xc CMakeFiles/light_switch_proxy_server_nrf52840_xxAA_s140_6.0.0.dir/home/mazzer/work/nordic/sdk/nRF5_SDK_15.0.0/components/softdevice/common/nrf_sdh.c.obj
 .text.nrf_sdh_suspend
                0x0000000000000000       0x38 CMakeFiles/light_switch_proxy_server_nrf52840_xxAA_s140_6.0.0.dir/home/mazzer/work/nordic/sdk/nRF5_SDK_15.0.0/components/softdevice/common/nrf_sdh.c.obj
 .text.nrf_sdh_resume
                0x0000000000000000       0x58 CMakeFiles/light_switch_proxy_server_nrf52840_xxAA_s140_6.0.0.dir/home/mazzer/work/nordic/sdk/nRF5_SDK_15.0.0/components/softdevice/common/nrf_sdh.c.obj
 .text.nrf_sdh_is_suspended
                0x0000000000000000       0x18 CMakeFiles/light_switch_proxy_server_nrf52840_xxAA_s140_6.0.0.dir/home/mazzer/work/nordic/sdk/nRF5_SDK_15.0.0/components/softdevice/common/nrf_sdh.c.obj
 .text.nrf_sdh_evts_poll
                0x0000000000000000       0x2c CMakeFiles/light_switch_proxy_server_nrf52840_xxAA_s140_6.0.0.dir/home/mazzer/work/nordic/sdk/nRF5_SDK_15.0.0/components/softdevice/common/nrf_sdh.c.obj
 .text          0x0000000000000000        0x0 CMakeFiles/light_switch_proxy_server_nrf52840_xxAA_s140_6.0.0.dir/home/mazzer/work/nordic/sdk/nRF5_SDK_15.0.0/components/softdevice/common/nrf_sdh_soc.c.obj
 .data          0x0000000000000000        0x0 CMakeFiles/light_switch_proxy_server_nrf52840_xxAA_s140_6.0.0.dir/home/mazzer/work/nordic/sdk/nRF5_SDK_15.0.0/components/softdevice/common/nrf_sdh_soc.c.obj
 .bss           0x0000000000000000        0x0 CMakeFiles/light_switch_proxy_server_nrf52840_xxAA_s140_6.0.0.dir/home/mazzer/work/nordic/sdk/nRF5_SDK_15.0.0/components/softdevice/common/nrf_sdh_soc.c.obj
 .text          0x0000000000000000        0x0 CMakeFiles/light_switch_proxy_server_nrf52840_xxAA_s140_6.0.0.dir/home/mazzer/work/nordic/sdk/nRF5_SDK_15.0.0/components/softdevice/common/nrf_sdh_ble.c.obj
 .data          0x0000000000000000        0x0 CMakeFiles/light_switch_proxy_server_nrf52840_xxAA_s140_6.0.0.dir/home/mazzer/work/nordic/sdk/nRF5_SDK_15.0.0/components/softdevice/common/nrf_sdh_ble.c.obj
 .bss           0x0000000000000000        0x0 CMakeFiles/light_switch_proxy_server_nrf52840_xxAA_s140_6.0.0.dir/home/mazzer/work/nordic/sdk/nRF5_SDK_15.0.0/components/softdevice/common/nrf_sdh_ble.c.obj
 .text.nrf_sdh_ble_app_ram_start_get
                0x0000000000000000       0x14 CMakeFiles/light_switch_proxy_server_nrf52840_xxAA_s140_6.0.0.dir/home/mazzer/work/nordic/sdk/nRF5_SDK_15.0.0/components/softdevice/common/nrf_sdh_ble.c.obj
 .rodata.m_ram_start
                0x0000000000000000        0x4 CMakeFiles/light_switch_proxy_server_nrf52840_xxAA_s140_6.0.0.dir/home/mazzer/work/nordic/sdk/nRF5_SDK_15.0.0/components/softdevice/common/nrf_sdh_ble.c.obj
 .text          0x0000000000000000        0x0 CMakeFiles/light_switch_proxy_server_nrf52840_xxAA_s140_6.0.0.dir/__/__/nrf_mesh_weak.c.obj
 .data          0x0000000000000000        0x0 CMakeFiles/light_switch_proxy_server_nrf52840_xxAA_s140_6.0.0.dir/__/__/nrf_mesh_weak.c.obj
 .bss           0x0000000000000000        0x0 CMakeFiles/light_switch_proxy_server_nrf52840_xxAA_s140_6.0.0.dir/__/__/nrf_mesh_weak.c.obj
 .text._weak_handler_ptr
                0x0000000000000000        0x4 CMakeFiles/light_switch_proxy_server_nrf52840_xxAA_s140_6.0.0.dir/__/__/nrf_mesh_weak.c.obj
 .text          0x0000000000000000        0x0 CMakeFiles/light_switch_proxy_server_nrf52840_xxAA_s140_6.0.0.dir/__/__/common/src/app_error_weak.c.obj
 .data          0x0000000000000000        0x0 CMakeFiles/light_switch_proxy_server_nrf52840_xxAA_s140_6.0.0.dir/__/__/common/src/app_error_weak.c.obj
 .bss           0x0000000000000000        0x0 CMakeFiles/light_switch_proxy_server_nrf52840_xxAA_s140_6.0.0.dir/__/__/common/src/app_error_weak.c.obj
 .text          0x0000000000000000        0x0 CMakeFiles/light_switch_proxy_server_nrf52840_xxAA_s140_6.0.0.dir/__/__/common/src/assertion_handler_weak.c.obj
 .data          0x0000000000000000        0x0 CMakeFiles/light_switch_proxy_server_nrf52840_xxAA_s140_6.0.0.dir/__/__/common/src/assertion_handler_weak.c.obj
 .bss           0x0000000000000000        0x0 CMakeFiles/light_switch_proxy_server_nrf52840_xxAA_s140_6.0.0.dir/__/__/common/src/assertion_handler_weak.c.obj
 .text          0x0000000000000000        0x0 CMakeFiles/light_switch_proxy_server_nrf52840_xxAA_s140_6.0.0.dir/__/__/__/mesh/core/src/internal_event.c.obj
 .data          0x0000000000000000        0x0 CMakeFiles/light_switch_proxy_server_nrf52840_xxAA_s140_6.0.0.dir/__/__/__/mesh/core/src/internal_event.c.obj
 .bss           0x0000000000000000        0x0 CMakeFiles/light_switch_proxy_server_nrf52840_xxAA_s140_6.0.0.dir/__/__/__/mesh/core/src/internal_event.c.obj
 .debug_info    0x0000000000000000      0x8eb CMakeFiles/light_switch_proxy_server_nrf52840_xxAA_s140_6.0.0.dir/__/__/__/mesh/core/src/internal_event.c.obj
 .debug_abbrev  0x0000000000000000      0x192 CMakeFiles/light_switch_proxy_server_nrf52840_xxAA_s140_6.0.0.dir/__/__/__/mesh/core/src/internal_event.c.obj
 .debug_aranges
                0x0000000000000000       0x18 CMakeFiles/light_switch_proxy_server_nrf52840_xxAA_s140_6.0.0.dir/__/__/__/mesh/core/src/internal_event.c.obj
 .debug_line    0x0000000000000000      0x1dc CMakeFiles/light_switch_proxy_server_nrf52840_xxAA_s140_6.0.0.dir/__/__/__/mesh/core/src/internal_event.c.obj
 .debug_str     0x0000000000000000      0x678 CMakeFiles/light_switch_proxy_server_nrf52840_xxAA_s140_6.0.0.dir/__/__/__/mesh/core/src/internal_event.c.obj
 .comment       0x0000000000000000       0x7f CMakeFiles/light_switch_proxy_server_nrf52840_xxAA_s140_6.0.0.dir/__/__/__/mesh/core/src/internal_event.c.obj
 .ARM.attributes
                0x0000000000000000       0x39 CMakeFiles/light_switch_proxy_server_nrf52840_xxAA_s140_6.0.0.dir/__/__/__/mesh/core/src/internal_event.c.obj
 .text          0x0000000000000000        0x0 CMakeFiles/light_switch_proxy_server_nrf52840_xxAA_s140_6.0.0.dir/__/__/__/mesh/core/src/nrf_mesh_configure.c.obj
 .data          0x0000000000000000        0x0 CMakeFiles/light_switch_proxy_server_nrf52840_xxAA_s140_6.0.0.dir/__/__/__/mesh/core/src/nrf_mesh_configure.c.obj
 .bss           0x0000000000000000        0x0 CMakeFiles/light_switch_proxy_server_nrf52840_xxAA_s140_6.0.0.dir/__/__/__/mesh/core/src/nrf_mesh_configure.c.obj
 .text          0x0000000000000000        0x0 CMakeFiles/light_switch_proxy_server_nrf52840_xxAA_s140_6.0.0.dir/__/__/__/mesh/core/src/aes.c.obj
 .data          0x0000000000000000        0x0 CMakeFiles/light_switch_proxy_server_nrf52840_xxAA_s140_6.0.0.dir/__/__/__/mesh/core/src/aes.c.obj
 .bss           0x0000000000000000        0x0 CMakeFiles/light_switch_proxy_server_nrf52840_xxAA_s140_6.0.0.dir/__/__/__/mesh/core/src/aes.c.obj
 .text          0x0000000000000000        0x0 CMakeFiles/light_switch_proxy_server_nrf52840_xxAA_s140_6.0.0.dir/__/__/__/mesh/core/src/msg_cache.c.obj
 .data          0x0000000000000000        0x0 CMakeFiles/light_switch_proxy_server_nrf52840_xxAA_s140_6.0.0.dir/__/__/__/mesh/core/src/msg_cache.c.obj
 .bss           0x0000000000000000        0x0 CMakeFiles/light_switch_proxy_server_nrf52840_xxAA_s140_6.0.0.dir/__/__/__/mesh/core/src/msg_cache.c.obj
 .text.msg_cache_clear
                0x0000000000000000       0x18 CMakeFiles/light_switch_proxy_server_nrf52840_xxAA_s140_6.0.0.dir/__/__/__/mesh/core/src/msg_cache.c.obj
 .text          0x0000000000000000        0x0 CMakeFiles/light_switch_proxy_server_nrf52840_xxAA_s140_6.0.0.dir/__/__/__/mesh/core/src/transport.c.obj
 .data          0x0000000000000000        0x0 CMakeFiles/light_switch_proxy_server_nrf52840_xxAA_s140_6.0.0.dir/__/__/__/mesh/core/src/transport.c.obj
 .bss           0x0000000000000000        0x0 CMakeFiles/light_switch_proxy_server_nrf52840_xxAA_s140_6.0.0.dir/__/__/__/mesh/core/src/transport.c.obj
 .text.transport_sar_mem_funcs_set
                0x0000000000000000       0x64 CMakeFiles/light_switch_proxy_server_nrf52840_xxAA_s140_6.0.0.dir/__/__/__/mesh/core/src/transport.c.obj
 .text.transport_sar_mem_funcs_reset
                0x0000000000000000       0x30 CMakeFiles/light_switch_proxy_server_nrf52840_xxAA_s140_6.0.0.dir/__/__/__/mesh/core/src/transport.c.obj
 .text          0x0000000000000000        0x0 CMakeFiles/light_switch_proxy_server_nrf52840_xxAA_s140_6.0.0.dir/__/__/__/mesh/core/src/event.c.obj
 .data          0x0000000000000000        0x0 CMakeFiles/light_switch_proxy_server_nrf52840_xxAA_s140_6.0.0.dir/__/__/__/mesh/core/src/event.c.obj
 .bss           0x0000000000000000        0x0 CMakeFiles/light_switch_proxy_server_nrf52840_xxAA_s140_6.0.0.dir/__/__/__/mesh/core/src/event.c.obj
 .text          0x0000000000000000        0x0 CMakeFiles/light_switch_proxy_server_nrf52840_xxAA_s140_6.0.0.dir/__/__/__/mesh/core/src/packet_buffer.c.obj
 .data          0x0000000000000000        0x0 CMakeFiles/light_switch_proxy_server_nrf52840_xxAA_s140_6.0.0.dir/__/__/__/mesh/core/src/packet_buffer.c.obj
 .bss           0x0000000000000000        0x0 CMakeFiles/light_switch_proxy_server_nrf52840_xxAA_s140_6.0.0.dir/__/__/__/mesh/core/src/packet_buffer.c.obj
 .text.packet_buffer_max_packet_len_get
                0x0000000000000000       0x24 CMakeFiles/light_switch_proxy_server_nrf52840_xxAA_s140_6.0.0.dir/__/__/__/mesh/core/src/packet_buffer.c.obj
 .text          0x0000000000000000        0x0 CMakeFiles/light_switch_proxy_server_nrf52840_xxAA_s140_6.0.0.dir/__/__/__/mesh/core/src/flash_manager_defrag.c.obj
 .data          0x0000000000000000        0x0 CMakeFiles/light_switch_proxy_server_nrf52840_xxAA_s140_6.0.0.dir/__/__/__/mesh/core/src/flash_manager_defrag.c.obj
 .bss           0x0000000000000000        0x0 CMakeFiles/light_switch_proxy_server_nrf52840_xxAA_s140_6.0.0.dir/__/__/__/mesh/core/src/flash_manager_defrag.c.obj
 .text.flash_manager_defragging
                0x0000000000000000       0x44 CMakeFiles/light_switch_proxy_server_nrf52840_xxAA_s140_6.0.0.dir/__/__/__/mesh/core/src/flash_manager_defrag.c.obj
 .text          0x0000000000000000        0x0 CMakeFiles/light_switch_proxy_server_nrf52840_xxAA_s140_6.0.0.dir/__/__/__/mesh/core/src/fifo.c.obj
 .data          0x0000000000000000        0x0 CMakeFiles/light_switch_proxy_server_nrf52840_xxAA_s140_6.0.0.dir/__/__/__/mesh/core/src/fifo.c.obj
 .bss           0x0000000000000000        0x0 CMakeFiles/light_switch_proxy_server_nrf52840_xxAA_s140_6.0.0.dir/__/__/__/mesh/core/src/fifo.c.obj
 .text.fifo_peek_at
                0x0000000000000000       0x58 CMakeFiles/light_switch_proxy_server_nrf52840_xxAA_s140_6.0.0.dir/__/__/__/mesh/core/src/fifo.c.obj
 .text.fifo_peek
                0x0000000000000000       0x54 CMakeFiles/light_switch_proxy_server_nrf52840_xxAA_s140_6.0.0.dir/__/__/__/mesh/core/src/fifo.c.obj
 .text.fifo_flush
                0x0000000000000000        0x8 CMakeFiles/light_switch_proxy_server_nrf52840_xxAA_s140_6.0.0.dir/__/__/__/mesh/core/src/fifo.c.obj
 .text.fifo_get_len
                0x0000000000000000        0x8 CMakeFiles/light_switch_proxy_server_nrf52840_xxAA_s140_6.0.0.dir/__/__/__/mesh/core/src/fifo.c.obj
 .text.fifo_is_full
                0x0000000000000000       0x14 CMakeFiles/light_switch_proxy_server_nrf52840_xxAA_s140_6.0.0.dir/__/__/__/mesh/core/src/fifo.c.obj
 .text.fifo_is_empty
                0x0000000000000000       0x10 CMakeFiles/light_switch_proxy_server_nrf52840_xxAA_s140_6.0.0.dir/__/__/__/mesh/core/src/fifo.c.obj
 .text          0x0000000000000000        0x0 CMakeFiles/light_switch_proxy_server_nrf52840_xxAA_s140_6.0.0.dir/__/__/__/mesh/core/src/nrf_flash.c.obj
 .data          0x0000000000000000        0x0 CMakeFiles/light_switch_proxy_server_nrf52840_xxAA_s140_6.0.0.dir/__/__/__/mesh/core/src/nrf_flash.c.obj
 .bss           0x0000000000000000        0x0 CMakeFiles/light_switch_proxy_server_nrf52840_xxAA_s140_6.0.0.dir/__/__/__/mesh/core/src/nrf_flash.c.obj
 .text          0x0000000000000000        0x0 CMakeFiles/light_switch_proxy_server_nrf52840_xxAA_s140_6.0.0.dir/__/__/__/mesh/core/src/packet_mgr.c.obj
 .data          0x0000000000000000        0x0 CMakeFiles/light_switch_proxy_server_nrf52840_xxAA_s140_6.0.0.dir/__/__/__/mesh/core/src/packet_mgr.c.obj
 .bss           0x0000000000000000        0x0 CMakeFiles/light_switch_proxy_server_nrf52840_xxAA_s140_6.0.0.dir/__/__/__/mesh/core/src/packet_mgr.c.obj
 .text.packet_mgr_alloc
                0x0000000000000000      0x1a4 CMakeFiles/light_switch_proxy_server_nrf52840_xxAA_s140_6.0.0.dir/__/__/__/mesh/core/src/packet_mgr.c.obj
 .text.packet_mgr_free
                0x0000000000000000       0x5c CMakeFiles/light_switch_proxy_server_nrf52840_xxAA_s140_6.0.0.dir/__/__/__/mesh/core/src/packet_mgr.c.obj
 .text.packet_mgr_get_free_space
                0x0000000000000000       0x1c CMakeFiles/light_switch_proxy_server_nrf52840_xxAA_s140_6.0.0.dir/__/__/__/mesh/core/src/packet_mgr.c.obj
 .text.packet_mgr_refcount_get
                0x0000000000000000        0x8 CMakeFiles/light_switch_proxy_server_nrf52840_xxAA_s140_6.0.0.dir/__/__/__/mesh/core/src/packet_mgr.c.obj
 .text.packet_mgr_size_get
                0x0000000000000000        0x8 CMakeFiles/light_switch_proxy_server_nrf52840_xxAA_s140_6.0.0.dir/__/__/__/mesh/core/src/packet_mgr.c.obj
 .text          0x0000000000000000        0x0 CMakeFiles/light_switch_proxy_server_nrf52840_xxAA_s140_6.0.0.dir/__/__/__/mesh/core/src/net_state.c.obj
 .data          0x0000000000000000        0x0 CMakeFiles/light_switch_proxy_server_nrf52840_xxAA_s140_6.0.0.dir/__/__/__/mesh/core/src/net_state.c.obj
 .bss           0x0000000000000000        0x0 CMakeFiles/light_switch_proxy_server_nrf52840_xxAA_s140_6.0.0.dir/__/__/__/mesh/core/src/net_state.c.obj
 .text.net_state_iv_update_start
                0x0000000000000000       0x94 CMakeFiles/light_switch_proxy_server_nrf52840_xxAA_s140_6.0.0.dir/__/__/__/mesh/core/src/net_state.c.obj
 .text.net_state_iv_update_test_mode_set
                0x0000000000000000        0xc CMakeFiles/light_switch_proxy_server_nrf52840_xxAA_s140_6.0.0.dir/__/__/__/mesh/core/src/net_state.c.obj
 .text.net_state_test_mode_transition_run
                0x0000000000000000      0x170 CMakeFiles/light_switch_proxy_server_nrf52840_xxAA_s140_6.0.0.dir/__/__/__/mesh/core/src/net_state.c.obj
 .text          0x0000000000000000        0x0 CMakeFiles/light_switch_proxy_server_nrf52840_xxAA_s140_6.0.0.dir/__/__/__/mesh/core/src/mesh_flash.c.obj
 .data          0x0000000000000000        0x0 CMakeFiles/light_switch_proxy_server_nrf52840_xxAA_s140_6.0.0.dir/__/__/__/mesh/core/src/mesh_flash.c.obj
 .bss           0x0000000000000000        0x0 CMakeFiles/light_switch_proxy_server_nrf52840_xxAA_s140_6.0.0.dir/__/__/__/mesh/core/src/mesh_flash.c.obj
 .text.mesh_flash_op_available_slots
                0x0000000000000000       0x2c CMakeFiles/light_switch_proxy_server_nrf52840_xxAA_s140_6.0.0.dir/__/__/__/mesh/core/src/mesh_flash.c.obj
 .text.mesh_flash_in_progress
                0x0000000000000000       0x34 CMakeFiles/light_switch_proxy_server_nrf52840_xxAA_s140_6.0.0.dir/__/__/__/mesh/core/src/mesh_flash.c.obj
 .text.mesh_flash_set_suspended
                0x0000000000000000      0x21c CMakeFiles/light_switch_proxy_server_nrf52840_xxAA_s140_6.0.0.dir/__/__/__/mesh/core/src/mesh_flash.c.obj
 .bss.suspend_count.10578
                0x0000000000000000        0x4 CMakeFiles/light_switch_proxy_server_nrf52840_xxAA_s140_6.0.0.dir/__/__/__/mesh/core/src/mesh_flash.c.obj
 .text          0x0000000000000000        0x0 CMakeFiles/light_switch_proxy_server_nrf52840_xxAA_s140_6.0.0.dir/__/__/__/mesh/core/src/nrf_mesh_utils.c.obj
 .data          0x0000000000000000        0x0 CMakeFiles/light_switch_proxy_server_nrf52840_xxAA_s140_6.0.0.dir/__/__/__/mesh/core/src/nrf_mesh_utils.c.obj
 .bss           0x0000000000000000        0x0 CMakeFiles/light_switch_proxy_server_nrf52840_xxAA_s140_6.0.0.dir/__/__/__/mesh/core/src/nrf_mesh_utils.c.obj
 .text.nrf_mesh_rand_get
                0x0000000000000000       0x10 CMakeFiles/light_switch_proxy_server_nrf52840_xxAA_s140_6.0.0.dir/__/__/__/mesh/core/src/nrf_mesh_utils.c.obj
 .text.nrf_mesh_gap_address_type_get
                0x0000000000000000       0x34 CMakeFiles/light_switch_proxy_server_nrf52840_xxAA_s140_6.0.0.dir/__/__/__/mesh/core/src/nrf_mesh_utils.c.obj
 .text          0x0000000000000000        0x0 CMakeFiles/light_switch_proxy_server_nrf52840_xxAA_s140_6.0.0.dir/__/__/__/mesh/core/src/nrf_mesh.c.obj
 .data          0x0000000000000000        0x0 CMakeFiles/light_switch_proxy_server_nrf52840_xxAA_s140_6.0.0.dir/__/__/__/mesh/core/src/nrf_mesh.c.obj
 .bss           0x0000000000000000        0x0 CMakeFiles/light_switch_proxy_server_nrf52840_xxAA_s140_6.0.0.dir/__/__/__/mesh/core/src/nrf_mesh.c.obj
 .text.nrf_mesh_process
                0x0000000000000000        0x4 CMakeFiles/light_switch_proxy_server_nrf52840_xxAA_s140_6.0.0.dir/__/__/__/mesh/core/src/nrf_mesh.c.obj
 .text.nrf_mesh_evt_handler_remove
                0x0000000000000000        0x4 CMakeFiles/light_switch_proxy_server_nrf52840_xxAA_s140_6.0.0.dir/__/__/__/mesh/core/src/nrf_mesh.c.obj
 .text.nrf_mesh_rx_cb_set
                0x0000000000000000        0xc CMakeFiles/light_switch_proxy_server_nrf52840_xxAA_s140_6.0.0.dir/__/__/__/mesh/core/src/nrf_mesh.c.obj
 .text.nrf_mesh_rx_cb_clear
                0x0000000000000000        0xc CMakeFiles/light_switch_proxy_server_nrf52840_xxAA_s140_6.0.0.dir/__/__/__/mesh/core/src/nrf_mesh.c.obj
 .text          0x0000000000000000        0x0 CMakeFiles/light_switch_proxy_server_nrf52840_xxAA_s140_6.0.0.dir/__/__/__/mesh/core/src/queue.c.obj
 .data          0x0000000000000000        0x0 CMakeFiles/light_switch_proxy_server_nrf52840_xxAA_s140_6.0.0.dir/__/__/__/mesh/core/src/queue.c.obj
 .bss           0x0000000000000000        0x0 CMakeFiles/light_switch_proxy_server_nrf52840_xxAA_s140_6.0.0.dir/__/__/__/mesh/core/src/queue.c.obj
 .text          0x0000000000000000        0x0 CMakeFiles/light_switch_proxy_server_nrf52840_xxAA_s140_6.0.0.dir/__/__/__/mesh/core/src/hal.c.obj
 .data          0x0000000000000000        0x0 CMakeFiles/light_switch_proxy_server_nrf52840_xxAA_s140_6.0.0.dir/__/__/__/mesh/core/src/hal.c.obj
 .bss           0x0000000000000000        0x0 CMakeFiles/light_switch_proxy_server_nrf52840_xxAA_s140_6.0.0.dir/__/__/__/mesh/core/src/hal.c.obj
 .text          0x0000000000000000        0x0 CMakeFiles/light_switch_proxy_server_nrf52840_xxAA_s140_6.0.0.dir/__/__/__/mesh/core/src/aes_cmac.c.obj
 .data          0x0000000000000000        0x0 CMakeFiles/light_switch_proxy_server_nrf52840_xxAA_s140_6.0.0.dir/__/__/__/mesh/core/src/aes_cmac.c.obj
 .bss           0x0000000000000000        0x0 CMakeFiles/light_switch_proxy_server_nrf52840_xxAA_s140_6.0.0.dir/__/__/__/mesh/core/src/aes_cmac.c.obj
 .text          0x0000000000000000        0x0 CMakeFiles/light_switch_proxy_server_nrf52840_xxAA_s140_6.0.0.dir/__/__/__/mesh/core/src/timer_scheduler.c.obj
 .data          0x0000000000000000        0x0 CMakeFiles/light_switch_proxy_server_nrf52840_xxAA_s140_6.0.0.dir/__/__/__/mesh/core/src/timer_scheduler.c.obj
 .bss           0x0000000000000000        0x0 CMakeFiles/light_switch_proxy_server_nrf52840_xxAA_s140_6.0.0.dir/__/__/__/mesh/core/src/timer_scheduler.c.obj
 .text          0x0000000000000000        0x0 CMakeFiles/light_switch_proxy_server_nrf52840_xxAA_s140_6.0.0.dir/__/__/__/mesh/core/src/timer.c.obj
 .data          0x0000000000000000        0x0 CMakeFiles/light_switch_proxy_server_nrf52840_xxAA_s140_6.0.0.dir/__/__/__/mesh/core/src/timer.c.obj
 .bss           0x0000000000000000        0x0 CMakeFiles/light_switch_proxy_server_nrf52840_xxAA_s140_6.0.0.dir/__/__/__/mesh/core/src/timer.c.obj
 .text.timer_order_cb_ppi
                0x0000000000000000       0xd8 CMakeFiles/light_switch_proxy_server_nrf52840_xxAA_s140_6.0.0.dir/__/__/__/mesh/core/src/timer.c.obj
 .text.timer_order_ppi
                0x0000000000000000       0xcc CMakeFiles/light_switch_proxy_server_nrf52840_xxAA_s140_6.0.0.dir/__/__/__/mesh/core/src/timer.c.obj
 .text.timer_abort
                0x0000000000000000       0x84 CMakeFiles/light_switch_proxy_server_nrf52840_xxAA_s140_6.0.0.dir/__/__/__/mesh/core/src/timer.c.obj
 .text          0x0000000000000000        0x0 CMakeFiles/light_switch_proxy_server_nrf52840_xxAA_s140_6.0.0.dir/__/__/__/mesh/core/src/ticker.c.obj
 .data          0x0000000000000000        0x0 CMakeFiles/light_switch_proxy_server_nrf52840_xxAA_s140_6.0.0.dir/__/__/__/mesh/core/src/ticker.c.obj
 .bss           0x0000000000000000        0x0 CMakeFiles/light_switch_proxy_server_nrf52840_xxAA_s140_6.0.0.dir/__/__/__/mesh/core/src/ticker.c.obj
 .text.ticker_get
                0x0000000000000000        0xc CMakeFiles/light_switch_proxy_server_nrf52840_xxAA_s140_6.0.0.dir/__/__/__/mesh/core/src/ticker.c.obj
 .text          0x0000000000000000        0x0 CMakeFiles/light_switch_proxy_server_nrf52840_xxAA_s140_6.0.0.dir/__/__/__/mesh/core/src/rand.c.obj
 .data          0x0000000000000000        0x0 CMakeFiles/light_switch_proxy_server_nrf52840_xxAA_s140_6.0.0.dir/__/__/__/mesh/core/src/rand.c.obj
 .bss           0x0000000000000000        0x0 CMakeFiles/light_switch_proxy_server_nrf52840_xxAA_s140_6.0.0.dir/__/__/__/mesh/core/src/rand.c.obj
 .text          0x0000000000000000        0x0 CMakeFiles/light_switch_proxy_server_nrf52840_xxAA_s140_6.0.0.dir/__/__/__/mesh/core/src/nrf_mesh_opt.c.obj
 .data          0x0000000000000000        0x0 CMakeFiles/light_switch_proxy_server_nrf52840_xxAA_s140_6.0.0.dir/__/__/__/mesh/core/src/nrf_mesh_opt.c.obj
 .bss           0x0000000000000000        0x0 CMakeFiles/light_switch_proxy_server_nrf52840_xxAA_s140_6.0.0.dir/__/__/__/mesh/core/src/nrf_mesh_opt.c.obj
 .text          0x0000000000000000        0x0 CMakeFiles/light_switch_proxy_server_nrf52840_xxAA_s140_6.0.0.dir/__/__/__/mesh/core/src/timeslot.c.obj
 .data          0x0000000000000000        0x0 CMakeFiles/light_switch_proxy_server_nrf52840_xxAA_s140_6.0.0.dir/__/__/__/mesh/core/src/timeslot.c.obj
 .bss           0x0000000000000000        0x0 CMakeFiles/light_switch_proxy_server_nrf52840_xxAA_s140_6.0.0.dir/__/__/__/mesh/core/src/timeslot.c.obj
 .text.timeslot_restart
                0x0000000000000000       0x30 CMakeFiles/light_switch_proxy_server_nrf52840_xxAA_s140_6.0.0.dir/__/__/__/mesh/core/src/timeslot.c.obj
 .text.timeslot_end_time_get
                0x0000000000000000       0x30 CMakeFiles/light_switch_proxy_server_nrf52840_xxAA_s140_6.0.0.dir/__/__/__/mesh/core/src/timeslot.c.obj
 .text.timeslot_is_in_ts
                0x0000000000000000        0xc CMakeFiles/light_switch_proxy_server_nrf52840_xxAA_s140_6.0.0.dir/__/__/__/mesh/core/src/timeslot.c.obj
 .text          0x0000000000000000        0x0 CMakeFiles/light_switch_proxy_server_nrf52840_xxAA_s140_6.0.0.dir/__/__/__/mesh/core/src/bearer_event.c.obj
 .data          0x0000000000000000        0x0 CMakeFiles/light_switch_proxy_server_nrf52840_xxAA_s140_6.0.0.dir/__/__/__/mesh/core/src/bearer_event.c.obj
 .bss           0x0000000000000000        0x0 CMakeFiles/light_switch_proxy_server_nrf52840_xxAA_s140_6.0.0.dir/__/__/__/mesh/core/src/bearer_event.c.obj
 .text.bearer_event_generic_post
                0x0000000000000000       0x50 CMakeFiles/light_switch_proxy_server_nrf52840_xxAA_s140_6.0.0.dir/__/__/__/mesh/core/src/bearer_event.c.obj
 .text.bearer_event_timer_sch_post
                0x0000000000000000       0x54 CMakeFiles/light_switch_proxy_server_nrf52840_xxAA_s140_6.0.0.dir/__/__/__/mesh/core/src/bearer_event.c.obj
 .text.bearer_event_in_correct_irq_priority
                0x0000000000000000       0x58 CMakeFiles/light_switch_proxy_server_nrf52840_xxAA_s140_6.0.0.dir/__/__/__/mesh/core/src/bearer_event.c.obj
 .text          0x0000000000000000        0x0 CMakeFiles/light_switch_proxy_server_nrf52840_xxAA_s140_6.0.0.dir/__/__/__/mesh/core/src/enc.c.obj
 .data          0x0000000000000000        0x0 CMakeFiles/light_switch_proxy_server_nrf52840_xxAA_s140_6.0.0.dir/__/__/__/mesh/core/src/enc.c.obj
 .bss           0x0000000000000000        0x0 CMakeFiles/light_switch_proxy_server_nrf52840_xxAA_s140_6.0.0.dir/__/__/__/mesh/core/src/enc.c.obj
 .text.enc_key_generate
                0x0000000000000000        0x8 CMakeFiles/light_switch_proxy_server_nrf52840_xxAA_s140_6.0.0.dir/__/__/__/mesh/core/src/enc.c.obj
 .text          0x0000000000000000        0x0 CMakeFiles/light_switch_proxy_server_nrf52840_xxAA_s140_6.0.0.dir/__/__/__/mesh/core/src/network.c.obj
 .data          0x0000000000000000        0x0 CMakeFiles/light_switch_proxy_server_nrf52840_xxAA_s140_6.0.0.dir/__/__/__/mesh/core/src/network.c.obj
 .bss           0x0000000000000000        0x0 CMakeFiles/light_switch_proxy_server_nrf52840_xxAA_s140_6.0.0.dir/__/__/__/mesh/core/src/network.c.obj
 .text.network_packet_discard
                0x0000000000000000       0x28 CMakeFiles/light_switch_proxy_server_nrf52840_xxAA_s140_6.0.0.dir/__/__/__/mesh/core/src/network.c.obj
 .text          0x0000000000000000        0x0 CMakeFiles/light_switch_proxy_server_nrf52840_xxAA_s140_6.0.0.dir/__/__/__/mesh/core/src/net_packet.c.obj
 .data          0x0000000000000000        0x0 CMakeFiles/light_switch_proxy_server_nrf52840_xxAA_s140_6.0.0.dir/__/__/__/mesh/core/src/net_packet.c.obj
 .bss           0x0000000000000000        0x0 CMakeFiles/light_switch_proxy_server_nrf52840_xxAA_s140_6.0.0.dir/__/__/__/mesh/core/src/net_packet.c.obj
 .text.net_packet_enc_start_get
                0x0000000000000000        0x4 CMakeFiles/light_switch_proxy_server_nrf52840_xxAA_s140_6.0.0.dir/__/__/__/mesh/core/src/net_packet.c.obj
 .text          0x0000000000000000        0x0 CMakeFiles/light_switch_proxy_server_nrf52840_xxAA_s140_6.0.0.dir/__/__/__/mesh/core/src/msqueue.c.obj
 .data          0x0000000000000000        0x0 CMakeFiles/light_switch_proxy_server_nrf52840_xxAA_s140_6.0.0.dir/__/__/__/mesh/core/src/msqueue.c.obj
 .bss           0x0000000000000000        0x0 CMakeFiles/light_switch_proxy_server_nrf52840_xxAA_s140_6.0.0.dir/__/__/__/mesh/core/src/msqueue.c.obj
 .text.msq_reset
                0x0000000000000000       0x24 CMakeFiles/light_switch_proxy_server_nrf52840_xxAA_s140_6.0.0.dir/__/__/__/mesh/core/src/msqueue.c.obj
 .text          0x0000000000000000        0x0 CMakeFiles/light_switch_proxy_server_nrf52840_xxAA_s140_6.0.0.dir/__/__/__/mesh/core/src/nrf_mesh_keygen.c.obj
 .data          0x0000000000000000        0x0 CMakeFiles/light_switch_proxy_server_nrf52840_xxAA_s140_6.0.0.dir/__/__/__/mesh/core/src/nrf_mesh_keygen.c.obj
 .bss           0x0000000000000000        0x0 CMakeFiles/light_switch_proxy_server_nrf52840_xxAA_s140_6.0.0.dir/__/__/__/mesh/core/src/nrf_mesh_keygen.c.obj
 .text          0x0000000000000000        0x0 CMakeFiles/light_switch_proxy_server_nrf52840_xxAA_s140_6.0.0.dir/__/__/__/mesh/core/src/cache.c.obj
 .data          0x0000000000000000        0x0 CMakeFiles/light_switch_proxy_server_nrf52840_xxAA_s140_6.0.0.dir/__/__/__/mesh/core/src/cache.c.obj
 .bss           0x0000000000000000        0x0 CMakeFiles/light_switch_proxy_server_nrf52840_xxAA_s140_6.0.0.dir/__/__/__/mesh/core/src/cache.c.obj
 .text.cache_erase_elem
                0x0000000000000000       0x6c CMakeFiles/light_switch_proxy_server_nrf52840_xxAA_s140_6.0.0.dir/__/__/__/mesh/core/src/cache.c.obj
 .text          0x0000000000000000        0x0 CMakeFiles/light_switch_proxy_server_nrf52840_xxAA_s140_6.0.0.dir/__/__/__/mesh/core/src/uri.c.obj
 .data          0x0000000000000000        0x0 CMakeFiles/light_switch_proxy_server_nrf52840_xxAA_s140_6.0.0.dir/__/__/__/mesh/core/src/uri.c.obj
 .bss           0x0000000000000000        0x0 CMakeFiles/light_switch_proxy_server_nrf52840_xxAA_s140_6.0.0.dir/__/__/__/mesh/core/src/uri.c.obj
 .text.uri_data_generate
                0x0000000000000000       0x88 CMakeFiles/light_switch_proxy_server_nrf52840_xxAA_s140_6.0.0.dir/__/__/__/mesh/core/src/uri.c.obj
 .text.uri_data_parse
                0x0000000000000000       0x84 CMakeFiles/light_switch_proxy_server_nrf52840_xxAA_s140_6.0.0.dir/__/__/__/mesh/core/src/uri.c.obj
 .text.uri_scheme_name_code_point
                0x0000000000000000       0x5c CMakeFiles/light_switch_proxy_server_nrf52840_xxAA_s140_6.0.0.dir/__/__/__/mesh/core/src/uri.c.obj
 .text.uri_scheme_name_string
                0x0000000000000000       0x14 CMakeFiles/light_switch_proxy_server_nrf52840_xxAA_s140_6.0.0.dir/__/__/__/mesh/core/src/uri.c.obj
 .rodata.m_code_point_strings
                0x0000000000000000      0x2ec CMakeFiles/light_switch_proxy_server_nrf52840_xxAA_s140_6.0.0.dir/__/__/__/mesh/core/src/uri.c.obj
 .rodata.str1.4
                0x0000000000000000      0x6ba CMakeFiles/light_switch_proxy_server_nrf52840_xxAA_s140_6.0.0.dir/__/__/__/mesh/core/src/uri.c.obj
 .debug_info    0x0000000000000000      0xd55 CMakeFiles/light_switch_proxy_server_nrf52840_xxAA_s140_6.0.0.dir/__/__/__/mesh/core/src/uri.c.obj
 .debug_abbrev  0x0000000000000000      0x331 CMakeFiles/light_switch_proxy_server_nrf52840_xxAA_s140_6.0.0.dir/__/__/__/mesh/core/src/uri.c.obj
 .debug_loc     0x0000000000000000      0x38d CMakeFiles/light_switch_proxy_server_nrf52840_xxAA_s140_6.0.0.dir/__/__/__/mesh/core/src/uri.c.obj
 .debug_aranges
                0x0000000000000000       0x38 CMakeFiles/light_switch_proxy_server_nrf52840_xxAA_s140_6.0.0.dir/__/__/__/mesh/core/src/uri.c.obj
 .debug_ranges  0x0000000000000000       0x58 CMakeFiles/light_switch_proxy_server_nrf52840_xxAA_s140_6.0.0.dir/__/__/__/mesh/core/src/uri.c.obj
 .debug_line    0x0000000000000000      0x322 CMakeFiles/light_switch_proxy_server_nrf52840_xxAA_s140_6.0.0.dir/__/__/__/mesh/core/src/uri.c.obj
 .debug_str     0x0000000000000000      0x753 CMakeFiles/light_switch_proxy_server_nrf52840_xxAA_s140_6.0.0.dir/__/__/__/mesh/core/src/uri.c.obj
 .comment       0x0000000000000000       0x7f CMakeFiles/light_switch_proxy_server_nrf52840_xxAA_s140_6.0.0.dir/__/__/__/mesh/core/src/uri.c.obj
 .debug_frame   0x0000000000000000       0x8c CMakeFiles/light_switch_proxy_server_nrf52840_xxAA_s140_6.0.0.dir/__/__/__/mesh/core/src/uri.c.obj
 .ARM.attributes
                0x0000000000000000       0x39 CMakeFiles/light_switch_proxy_server_nrf52840_xxAA_s140_6.0.0.dir/__/__/__/mesh/core/src/uri.c.obj
 .text          0x0000000000000000        0x0 CMakeFiles/light_switch_proxy_server_nrf52840_xxAA_s140_6.0.0.dir/__/__/__/mesh/core/src/list.c.obj
 .data          0x0000000000000000        0x0 CMakeFiles/light_switch_proxy_server_nrf52840_xxAA_s140_6.0.0.dir/__/__/__/mesh/core/src/list.c.obj
 .bss           0x0000000000000000        0x0 CMakeFiles/light_switch_proxy_server_nrf52840_xxAA_s140_6.0.0.dir/__/__/__/mesh/core/src/list.c.obj
 .text.list_size_get
                0x0000000000000000       0x14 CMakeFiles/light_switch_proxy_server_nrf52840_xxAA_s140_6.0.0.dir/__/__/__/mesh/core/src/list.c.obj
 .text.list_sorted_add
                0x0000000000000000       0x88 CMakeFiles/light_switch_proxy_server_nrf52840_xxAA_s140_6.0.0.dir/__/__/__/mesh/core/src/list.c.obj
 .text          0x0000000000000000        0x0 CMakeFiles/light_switch_proxy_server_nrf52840_xxAA_s140_6.0.0.dir/__/__/__/mesh/core/src/log.c.obj
 .data          0x0000000000000000        0x0 CMakeFiles/light_switch_proxy_server_nrf52840_xxAA_s140_6.0.0.dir/__/__/__/mesh/core/src/log.c.obj
 .bss           0x0000000000000000        0x0 CMakeFiles/light_switch_proxy_server_nrf52840_xxAA_s140_6.0.0.dir/__/__/__/mesh/core/src/log.c.obj
 .text.log_callback_logview
                0x0000000000000000       0x38 CMakeFiles/light_switch_proxy_server_nrf52840_xxAA_s140_6.0.0.dir/__/__/__/mesh/core/src/log.c.obj
 .text.log_set_callback
                0x0000000000000000        0xc CMakeFiles/light_switch_proxy_server_nrf52840_xxAA_s140_6.0.0.dir/__/__/__/mesh/core/src/log.c.obj
 .text.log_vprintf
                0x0000000000000000       0x1c CMakeFiles/light_switch_proxy_server_nrf52840_xxAA_s140_6.0.0.dir/__/__/__/mesh/core/src/log.c.obj
 .rodata.log_callback_logview.str1.4
                0x0000000000000000       0x12 CMakeFiles/light_switch_proxy_server_nrf52840_xxAA_s140_6.0.0.dir/__/__/__/mesh/core/src/log.c.obj
 .text          0x0000000000000000        0x0 CMakeFiles/light_switch_proxy_server_nrf52840_xxAA_s140_6.0.0.dir/__/__/__/mesh/core/src/flash_manager.c.obj
 .data          0x0000000000000000        0x0 CMakeFiles/light_switch_proxy_server_nrf52840_xxAA_s140_6.0.0.dir/__/__/__/mesh/core/src/flash_manager.c.obj
 .bss           0x0000000000000000        0x0 CMakeFiles/light_switch_proxy_server_nrf52840_xxAA_s140_6.0.0.dir/__/__/__/mesh/core/src/flash_manager.c.obj
 .text.flash_manager_entry_count_get
                0x0000000000000000       0xfc CMakeFiles/light_switch_proxy_server_nrf52840_xxAA_s140_6.0.0.dir/__/__/__/mesh/core/src/flash_manager.c.obj
 .text.flash_manager_entry_release
                0x0000000000000000       0x74 CMakeFiles/light_switch_proxy_server_nrf52840_xxAA_s140_6.0.0.dir/__/__/__/mesh/core/src/flash_manager.c.obj
 .text          0x0000000000000000        0x0 CMakeFiles/light_switch_proxy_server_nrf52840_xxAA_s140_6.0.0.dir/__/__/__/mesh/core/src/ccm_soft.c.obj
 .data          0x0000000000000000        0x0 CMakeFiles/light_switch_proxy_server_nrf52840_xxAA_s140_6.0.0.dir/__/__/__/mesh/core/src/ccm_soft.c.obj
 .bss           0x0000000000000000        0x0 CMakeFiles/light_switch_proxy_server_nrf52840_xxAA_s140_6.0.0.dir/__/__/__/mesh/core/src/ccm_soft.c.obj
 .text          0x0000000000000000        0x0 CMakeFiles/light_switch_proxy_server_nrf52840_xxAA_s140_6.0.0.dir/__/__/__/mesh/core/src/toolchain.c.obj
 .data          0x0000000000000000        0x0 CMakeFiles/light_switch_proxy_server_nrf52840_xxAA_s140_6.0.0.dir/__/__/__/mesh/core/src/toolchain.c.obj
 .bss           0x0000000000000000        0x0 CMakeFiles/light_switch_proxy_server_nrf52840_xxAA_s140_6.0.0.dir/__/__/__/mesh/core/src/toolchain.c.obj
 .debug_info    0x0000000000000000       0xac CMakeFiles/light_switch_proxy_server_nrf52840_xxAA_s140_6.0.0.dir/__/__/__/mesh/core/src/toolchain.c.obj
 .debug_abbrev  0x0000000000000000       0x5c CMakeFiles/light_switch_proxy_server_nrf52840_xxAA_s140_6.0.0.dir/__/__/__/mesh/core/src/toolchain.c.obj
 .debug_aranges
                0x0000000000000000       0x18 CMakeFiles/light_switch_proxy_server_nrf52840_xxAA_s140_6.0.0.dir/__/__/__/mesh/core/src/toolchain.c.obj
 .debug_line    0x0000000000000000      0x131 CMakeFiles/light_switch_proxy_server_nrf52840_xxAA_s140_6.0.0.dir/__/__/__/mesh/core/src/toolchain.c.obj
 .debug_str     0x0000000000000000      0x270 CMakeFiles/light_switch_proxy_server_nrf52840_xxAA_s140_6.0.0.dir/__/__/__/mesh/core/src/toolchain.c.obj
 .comment       0x0000000000000000       0x7f CMakeFiles/light_switch_proxy_server_nrf52840_xxAA_s140_6.0.0.dir/__/__/__/mesh/core/src/toolchain.c.obj
 .ARM.attributes
                0x0000000000000000       0x39 CMakeFiles/light_switch_proxy_server_nrf52840_xxAA_s140_6.0.0.dir/__/__/__/mesh/core/src/toolchain.c.obj
 .text          0x0000000000000000        0x0 CMakeFiles/light_switch_proxy_server_nrf52840_xxAA_s140_6.0.0.dir/__/__/__/mesh/core/src/replay_cache.c.obj
 .data          0x0000000000000000        0x0 CMakeFiles/light_switch_proxy_server_nrf52840_xxAA_s140_6.0.0.dir/__/__/__/mesh/core/src/replay_cache.c.obj
 .bss           0x0000000000000000        0x0 CMakeFiles/light_switch_proxy_server_nrf52840_xxAA_s140_6.0.0.dir/__/__/__/mesh/core/src/replay_cache.c.obj
 .text.replay_cache_on_iv_update
                0x0000000000000000       0x2c CMakeFiles/light_switch_proxy_server_nrf52840_xxAA_s140_6.0.0.dir/__/__/__/mesh/core/src/replay_cache.c.obj
 .text.replay_cache_clear
                0x0000000000000000       0x20 CMakeFiles/light_switch_proxy_server_nrf52840_xxAA_s140_6.0.0.dir/__/__/__/mesh/core/src/replay_cache.c.obj
 .text          0x0000000000000000        0x0 CMakeFiles/light_switch_proxy_server_nrf52840_xxAA_s140_6.0.0.dir/__/__/__/mesh/core/src/beacon.c.obj
 .data          0x0000000000000000        0x0 CMakeFiles/light_switch_proxy_server_nrf52840_xxAA_s140_6.0.0.dir/__/__/__/mesh/core/src/beacon.c.obj
 .bss           0x0000000000000000        0x0 CMakeFiles/light_switch_proxy_server_nrf52840_xxAA_s140_6.0.0.dir/__/__/__/mesh/core/src/beacon.c.obj
 .text          0x0000000000000000        0x0 CMakeFiles/light_switch_proxy_server_nrf52840_xxAA_s140_6.0.0.dir/__/__/__/mesh/core/src/flash_manager_internal.c.obj
 .data          0x0000000000000000        0x0 CMakeFiles/light_switch_proxy_server_nrf52840_xxAA_s140_6.0.0.dir/__/__/__/mesh/core/src/flash_manager_internal.c.obj
 .bss           0x0000000000000000        0x0 CMakeFiles/light_switch_proxy_server_nrf52840_xxAA_s140_6.0.0.dir/__/__/__/mesh/core/src/flash_manager_internal.c.obj
 .text          0x0000000000000000        0x0 CMakeFiles/light_switch_proxy_server_nrf52840_xxAA_s140_6.0.0.dir/__/__/__/mesh/core/src/core_tx.c.obj
 .data          0x0000000000000000        0x0 CMakeFiles/light_switch_proxy_server_nrf52840_xxAA_s140_6.0.0.dir/__/__/__/mesh/core/src/core_tx.c.obj
 .bss           0x0000000000000000        0x0 CMakeFiles/light_switch_proxy_server_nrf52840_xxAA_s140_6.0.0.dir/__/__/__/mesh/core/src/core_tx.c.obj
 .text.core_tx_bearer_type_get
                0x0000000000000000       0x2c CMakeFiles/light_switch_proxy_server_nrf52840_xxAA_s140_6.0.0.dir/__/__/__/mesh/core/src/core_tx.c.obj
 .text.core_tx_bearer_count_get
                0x0000000000000000        0xc CMakeFiles/light_switch_proxy_server_nrf52840_xxAA_s140_6.0.0.dir/__/__/__/mesh/core/src/core_tx.c.obj
 .text          0x0000000000000000        0x0 CMakeFiles/light_switch_proxy_server_nrf52840_xxAA_s140_6.0.0.dir/__/__/__/mesh/core/src/heartbeat.c.obj
 .data          0x0000000000000000        0x0 CMakeFiles/light_switch_proxy_server_nrf52840_xxAA_s140_6.0.0.dir/__/__/__/mesh/core/src/heartbeat.c.obj
 .bss           0x0000000000000000        0x0 CMakeFiles/light_switch_proxy_server_nrf52840_xxAA_s140_6.0.0.dir/__/__/__/mesh/core/src/heartbeat.c.obj
 .text          0x0000000000000000        0x0 CMakeFiles/light_switch_proxy_server_nrf52840_xxAA_s140_6.0.0.dir/__/__/__/mesh/core/src/net_beacon.c.obj
 .data          0x0000000000000000        0x0 CMakeFiles/light_switch_proxy_server_nrf52840_xxAA_s140_6.0.0.dir/__/__/__/mesh/core/src/net_beacon.c.obj
 .bss           0x0000000000000000        0x0 CMakeFiles/light_switch_proxy_server_nrf52840_xxAA_s140_6.0.0.dir/__/__/__/mesh/core/src/net_beacon.c.obj
 .text          0x0000000000000000        0x0 CMakeFiles/light_switch_proxy_server_nrf52840_xxAA_s140_6.0.0.dir/__/__/__/mesh/core/src/fsm.c.obj
 .data          0x0000000000000000        0x0 CMakeFiles/light_switch_proxy_server_nrf52840_xxAA_s140_6.0.0.dir/__/__/__/mesh/core/src/fsm.c.obj
 .bss           0x0000000000000000        0x0 CMakeFiles/light_switch_proxy_server_nrf52840_xxAA_s140_6.0.0.dir/__/__/__/mesh/core/src/fsm.c.obj
 .text          0x0000000000000000        0x0 CMakeFiles/light_switch_proxy_server_nrf52840_xxAA_s140_6.0.0.dir/__/__/__/mesh/core/src/core_tx_adv.c.obj
 .data          0x0000000000000000        0x0 CMakeFiles/light_switch_proxy_server_nrf52840_xxAA_s140_6.0.0.dir/__/__/__/mesh/core/src/core_tx_adv.c.obj
 .bss           0x0000000000000000        0x0 CMakeFiles/light_switch_proxy_server_nrf52840_xxAA_s140_6.0.0.dir/__/__/__/mesh/core/src/core_tx_adv.c.obj
 .text.core_tx_adv_address_set
                0x0000000000000000       0x28 CMakeFiles/light_switch_proxy_server_nrf52840_xxAA_s140_6.0.0.dir/__/__/__/mesh/core/src/core_tx_adv.c.obj
 .text          0x0000000000000000        0x0 CMakeFiles/light_switch_proxy_server_nrf52840_xxAA_s140_6.0.0.dir/__/__/__/mesh/bearer/src/ad_listener.c.obj
 .data          0x0000000000000000        0x0 CMakeFiles/light_switch_proxy_server_nrf52840_xxAA_s140_6.0.0.dir/__/__/__/mesh/bearer/src/ad_listener.c.obj
 .bss           0x0000000000000000        0x0 CMakeFiles/light_switch_proxy_server_nrf52840_xxAA_s140_6.0.0.dir/__/__/__/mesh/bearer/src/ad_listener.c.obj
 .text.ad_listener_unsubscribe
                0x0000000000000000       0x78 CMakeFiles/light_switch_proxy_server_nrf52840_xxAA_s140_6.0.0.dir/__/__/__/mesh/bearer/src/ad_listener.c.obj
 .text          0x0000000000000000        0x0 CMakeFiles/light_switch_proxy_server_nrf52840_xxAA_s140_6.0.0.dir/__/__/__/mesh/bearer/src/ad_type_filter.c.obj
 .data          0x0000000000000000        0x0 CMakeFiles/light_switch_proxy_server_nrf52840_xxAA_s140_6.0.0.dir/__/__/__/mesh/bearer/src/ad_type_filter.c.obj
 .bss           0x0000000000000000        0x0 CMakeFiles/light_switch_proxy_server_nrf52840_xxAA_s140_6.0.0.dir/__/__/__/mesh/bearer/src/ad_type_filter.c.obj
 .text.bearer_adtype_remove
                0x0000000000000000       0x28 CMakeFiles/light_switch_proxy_server_nrf52840_xxAA_s140_6.0.0.dir/__/__/__/mesh/bearer/src/ad_type_filter.c.obj
 .text.bearer_adtype_clear
                0x0000000000000000       0x10 CMakeFiles/light_switch_proxy_server_nrf52840_xxAA_s140_6.0.0.dir/__/__/__/mesh/bearer/src/ad_type_filter.c.obj
 .text.bearer_invalid_length_amount_get
                0x0000000000000000        0xc CMakeFiles/light_switch_proxy_server_nrf52840_xxAA_s140_6.0.0.dir/__/__/__/mesh/bearer/src/ad_type_filter.c.obj
 .text.bearer_adtype_filtered_amount_get
                0x0000000000000000        0xc CMakeFiles/light_switch_proxy_server_nrf52840_xxAA_s140_6.0.0.dir/__/__/__/mesh/bearer/src/ad_type_filter.c.obj
 .text          0x0000000000000000        0x0 CMakeFiles/light_switch_proxy_server_nrf52840_xxAA_s140_6.0.0.dir/__/__/__/mesh/bearer/src/adv_packet_filter.c.obj
 .data          0x0000000000000000        0x0 CMakeFiles/light_switch_proxy_server_nrf52840_xxAA_s140_6.0.0.dir/__/__/__/mesh/bearer/src/adv_packet_filter.c.obj
 .bss           0x0000000000000000        0x0 CMakeFiles/light_switch_proxy_server_nrf52840_xxAA_s140_6.0.0.dir/__/__/__/mesh/bearer/src/adv_packet_filter.c.obj
 .text.adv_filter_handle
                0x0000000000000000       0x40 CMakeFiles/light_switch_proxy_server_nrf52840_xxAA_s140_6.0.0.dir/__/__/__/mesh/bearer/src/adv_packet_filter.c.obj
 .text.bearer_adv_packet_filtering_set
                0x0000000000000000       0x1c CMakeFiles/light_switch_proxy_server_nrf52840_xxAA_s140_6.0.0.dir/__/__/__/mesh/bearer/src/adv_packet_filter.c.obj
 .text.bearer_adv_packet_remove
                0x0000000000000000       0x18 CMakeFiles/light_switch_proxy_server_nrf52840_xxAA_s140_6.0.0.dir/__/__/__/mesh/bearer/src/adv_packet_filter.c.obj
 .text.bearer_adv_packet_add
                0x0000000000000000       0x14 CMakeFiles/light_switch_proxy_server_nrf52840_xxAA_s140_6.0.0.dir/__/__/__/mesh/bearer/src/adv_packet_filter.c.obj
 .text.bearer_adv_packet_clear
                0x0000000000000000        0xc CMakeFiles/light_switch_proxy_server_nrf52840_xxAA_s140_6.0.0.dir/__/__/__/mesh/bearer/src/adv_packet_filter.c.obj
 .text.bearer_adv_packet_filter_mode_set
                0x0000000000000000       0x18 CMakeFiles/light_switch_proxy_server_nrf52840_xxAA_s140_6.0.0.dir/__/__/__/mesh/bearer/src/adv_packet_filter.c.obj
 .text.bearer_adv_packet_filtered_amount_get
                0x0000000000000000        0xc CMakeFiles/light_switch_proxy_server_nrf52840_xxAA_s140_6.0.0.dir/__/__/__/mesh/bearer/src/adv_packet_filter.c.obj
 .bss.m_adv_packet_filter
                0x0000000000000000       0x14 CMakeFiles/light_switch_proxy_server_nrf52840_xxAA_s140_6.0.0.dir/__/__/__/mesh/bearer/src/adv_packet_filter.c.obj
 .debug_info    0x0000000000000000      0xd92 CMakeFiles/light_switch_proxy_server_nrf52840_xxAA_s140_6.0.0.dir/__/__/__/mesh/bearer/src/adv_packet_filter.c.obj
 .debug_abbrev  0x0000000000000000      0x2cb CMakeFiles/light_switch_proxy_server_nrf52840_xxAA_s140_6.0.0.dir/__/__/__/mesh/bearer/src/adv_packet_filter.c.obj
 .debug_loc     0x0000000000000000      0x1b2 CMakeFiles/light_switch_proxy_server_nrf52840_xxAA_s140_6.0.0.dir/__/__/__/mesh/bearer/src/adv_packet_filter.c.obj
 .debug_aranges
                0x0000000000000000       0x50 CMakeFiles/light_switch_proxy_server_nrf52840_xxAA_s140_6.0.0.dir/__/__/__/mesh/bearer/src/adv_packet_filter.c.obj
 .debug_ranges  0x0000000000000000       0x40 CMakeFiles/light_switch_proxy_server_nrf52840_xxAA_s140_6.0.0.dir/__/__/__/mesh/bearer/src/adv_packet_filter.c.obj
 .debug_line    0x0000000000000000      0x489 CMakeFiles/light_switch_proxy_server_nrf52840_xxAA_s140_6.0.0.dir/__/__/__/mesh/bearer/src/adv_packet_filter.c.obj
 .debug_str     0x0000000000000000      0xa9e CMakeFiles/light_switch_proxy_server_nrf52840_xxAA_s140_6.0.0.dir/__/__/__/mesh/bearer/src/adv_packet_filter.c.obj
 .comment       0x0000000000000000       0x7f CMakeFiles/light_switch_proxy_server_nrf52840_xxAA_s140_6.0.0.dir/__/__/__/mesh/bearer/src/adv_packet_filter.c.obj
 .debug_frame   0x0000000000000000       0x88 CMakeFiles/light_switch_proxy_server_nrf52840_xxAA_s140_6.0.0.dir/__/__/__/mesh/bearer/src/adv_packet_filter.c.obj
 .ARM.attributes
                0x0000000000000000       0x39 CMakeFiles/light_switch_proxy_server_nrf52840_xxAA_s140_6.0.0.dir/__/__/__/mesh/bearer/src/adv_packet_filter.c.obj
 .text          0x0000000000000000        0x0 CMakeFiles/light_switch_proxy_server_nrf52840_xxAA_s140_6.0.0.dir/__/__/__/mesh/bearer/src/advertiser.c.obj
 .data          0x0000000000000000        0x0 CMakeFiles/light_switch_proxy_server_nrf52840_xxAA_s140_6.0.0.dir/__/__/__/mesh/bearer/src/advertiser.c.obj
 .bss           0x0000000000000000        0x0 CMakeFiles/light_switch_proxy_server_nrf52840_xxAA_s140_6.0.0.dir/__/__/__/mesh/bearer/src/advertiser.c.obj
 .text.advertiser_disable
                0x0000000000000000        0xc CMakeFiles/light_switch_proxy_server_nrf52840_xxAA_s140_6.0.0.dir/__/__/__/mesh/bearer/src/advertiser.c.obj
 .text.advertiser_config_set
                0x0000000000000000      0x184 CMakeFiles/light_switch_proxy_server_nrf52840_xxAA_s140_6.0.0.dir/__/__/__/mesh/bearer/src/advertiser.c.obj
 .text.advertiser_channels_set
                0x0000000000000000       0x98 CMakeFiles/light_switch_proxy_server_nrf52840_xxAA_s140_6.0.0.dir/__/__/__/mesh/bearer/src/advertiser.c.obj
 .text.advertiser_address_set
                0x0000000000000000       0x74 CMakeFiles/light_switch_proxy_server_nrf52840_xxAA_s140_6.0.0.dir/__/__/__/mesh/bearer/src/advertiser.c.obj
 .text.advertiser_config_get
                0x0000000000000000       0x24 CMakeFiles/light_switch_proxy_server_nrf52840_xxAA_s140_6.0.0.dir/__/__/__/mesh/bearer/src/advertiser.c.obj
 .text.advertiser_address_default_get
                0x0000000000000000       0x5c CMakeFiles/light_switch_proxy_server_nrf52840_xxAA_s140_6.0.0.dir/__/__/__/mesh/bearer/src/advertiser.c.obj
 .text          0x0000000000000000        0x0 CMakeFiles/light_switch_proxy_server_nrf52840_xxAA_s140_6.0.0.dir/__/__/__/mesh/bearer/src/bearer_handler.c.obj
 .data          0x0000000000000000        0x0 CMakeFiles/light_switch_proxy_server_nrf52840_xxAA_s140_6.0.0.dir/__/__/__/mesh/bearer/src/bearer_handler.c.obj
 .bss           0x0000000000000000        0x0 CMakeFiles/light_switch_proxy_server_nrf52840_xxAA_s140_6.0.0.dir/__/__/__/mesh/bearer/src/bearer_handler.c.obj
 .text.bearer_handler_action_fire
                0x0000000000000000       0xa0 CMakeFiles/light_switch_proxy_server_nrf52840_xxAA_s140_6.0.0.dir/__/__/__/mesh/bearer/src/bearer_handler.c.obj
 .text          0x0000000000000000        0x0 CMakeFiles/light_switch_proxy_server_nrf52840_xxAA_s140_6.0.0.dir/__/__/__/mesh/bearer/src/broadcast.c.obj
 .data          0x0000000000000000        0x0 CMakeFiles/light_switch_proxy_server_nrf52840_xxAA_s140_6.0.0.dir/__/__/__/mesh/bearer/src/broadcast.c.obj
 .bss           0x0000000000000000        0x0 CMakeFiles/light_switch_proxy_server_nrf52840_xxAA_s140_6.0.0.dir/__/__/__/mesh/bearer/src/broadcast.c.obj
 .text          0x0000000000000000        0x0 CMakeFiles/light_switch_proxy_server_nrf52840_xxAA_s140_6.0.0.dir/__/__/__/mesh/bearer/src/filter_engine.c.obj
 .data          0x0000000000000000        0x0 CMakeFiles/light_switch_proxy_server_nrf52840_xxAA_s140_6.0.0.dir/__/__/__/mesh/bearer/src/filter_engine.c.obj
 .bss           0x0000000000000000        0x0 CMakeFiles/light_switch_proxy_server_nrf52840_xxAA_s140_6.0.0.dir/__/__/__/mesh/bearer/src/filter_engine.c.obj
 .text.fen_accepted_amount_get
                0x0000000000000000        0xc CMakeFiles/light_switch_proxy_server_nrf52840_xxAA_s140_6.0.0.dir/__/__/__/mesh/bearer/src/filter_engine.c.obj
 .text          0x0000000000000000        0x0 CMakeFiles/light_switch_proxy_server_nrf52840_xxAA_s140_6.0.0.dir/__/__/__/mesh/bearer/src/gap_address_filter.c.obj
 .data          0x0000000000000000        0x0 CMakeFiles/light_switch_proxy_server_nrf52840_xxAA_s140_6.0.0.dir/__/__/__/mesh/bearer/src/gap_address_filter.c.obj
 .bss           0x0000000000000000        0x0 CMakeFiles/light_switch_proxy_server_nrf52840_xxAA_s140_6.0.0.dir/__/__/__/mesh/bearer/src/gap_address_filter.c.obj
 .text.gap_address_filter_handle
                0x0000000000000000       0xb8 CMakeFiles/light_switch_proxy_server_nrf52840_xxAA_s140_6.0.0.dir/__/__/__/mesh/bearer/src/gap_address_filter.c.obj
 .text.bearer_filter_gap_addr_whitelist_set
                0x0000000000000000       0x48 CMakeFiles/light_switch_proxy_server_nrf52840_xxAA_s140_6.0.0.dir/__/__/__/mesh/bearer/src/gap_address_filter.c.obj
 .text.bearer_filter_gap_addr_blacklist_set
                0x0000000000000000       0x4c CMakeFiles/light_switch_proxy_server_nrf52840_xxAA_s140_6.0.0.dir/__/__/__/mesh/bearer/src/gap_address_filter.c.obj
 .text.bearer_filter_gap_addr_range_set
                0x0000000000000000       0x64 CMakeFiles/light_switch_proxy_server_nrf52840_xxAA_s140_6.0.0.dir/__/__/__/mesh/bearer/src/gap_address_filter.c.obj
 .text.bearer_filter_gap_addr_clear
                0x0000000000000000       0x24 CMakeFiles/light_switch_proxy_server_nrf52840_xxAA_s140_6.0.0.dir/__/__/__/mesh/bearer/src/gap_address_filter.c.obj
 .text.bearer_gap_addr_filtered_amount_get
                0x0000000000000000        0xc CMakeFiles/light_switch_proxy_server_nrf52840_xxAA_s140_6.0.0.dir/__/__/__/mesh/bearer/src/gap_address_filter.c.obj
 .bss.m_addr_filter
                0x0000000000000000       0x18 CMakeFiles/light_switch_proxy_server_nrf52840_xxAA_s140_6.0.0.dir/__/__/__/mesh/bearer/src/gap_address_filter.c.obj
 .debug_info    0x0000000000000000      0xf34 CMakeFiles/light_switch_proxy_server_nrf52840_xxAA_s140_6.0.0.dir/__/__/__/mesh/bearer/src/gap_address_filter.c.obj
 .debug_abbrev  0x0000000000000000      0x2f8 CMakeFiles/light_switch_proxy_server_nrf52840_xxAA_s140_6.0.0.dir/__/__/__/mesh/bearer/src/gap_address_filter.c.obj
 .debug_loc     0x0000000000000000      0x823 CMakeFiles/light_switch_proxy_server_nrf52840_xxAA_s140_6.0.0.dir/__/__/__/mesh/bearer/src/gap_address_filter.c.obj
 .debug_aranges
                0x0000000000000000       0x48 CMakeFiles/light_switch_proxy_server_nrf52840_xxAA_s140_6.0.0.dir/__/__/__/mesh/bearer/src/gap_address_filter.c.obj
 .debug_ranges  0x0000000000000000      0x100 CMakeFiles/light_switch_proxy_server_nrf52840_xxAA_s140_6.0.0.dir/__/__/__/mesh/bearer/src/gap_address_filter.c.obj
 .debug_line    0x0000000000000000      0x519 CMakeFiles/light_switch_proxy_server_nrf52840_xxAA_s140_6.0.0.dir/__/__/__/mesh/bearer/src/gap_address_filter.c.obj
 .debug_str     0x0000000000000000      0x9f8 CMakeFiles/light_switch_proxy_server_nrf52840_xxAA_s140_6.0.0.dir/__/__/__/mesh/bearer/src/gap_address_filter.c.obj
 .comment       0x0000000000000000       0x7f CMakeFiles/light_switch_proxy_server_nrf52840_xxAA_s140_6.0.0.dir/__/__/__/mesh/bearer/src/gap_address_filter.c.obj
 .debug_frame   0x0000000000000000       0xd4 CMakeFiles/light_switch_proxy_server_nrf52840_xxAA_s140_6.0.0.dir/__/__/__/mesh/bearer/src/gap_address_filter.c.obj
 .ARM.attributes
                0x0000000000000000       0x39 CMakeFiles/light_switch_proxy_server_nrf52840_xxAA_s140_6.0.0.dir/__/__/__/mesh/bearer/src/gap_address_filter.c.obj
 .text          0x0000000000000000        0x0 CMakeFiles/light_switch_proxy_server_nrf52840_xxAA_s140_6.0.0.dir/__/__/__/mesh/bearer/src/radio_config.c.obj
 .data          0x0000000000000000        0x0 CMakeFiles/light_switch_proxy_server_nrf52840_xxAA_s140_6.0.0.dir/__/__/__/mesh/bearer/src/radio_config.c.obj
 .bss           0x0000000000000000        0x0 CMakeFiles/light_switch_proxy_server_nrf52840_xxAA_s140_6.0.0.dir/__/__/__/mesh/bearer/src/radio_config.c.obj
 .text.radio_config_access_addr_get
                0x0000000000000000       0x58 CMakeFiles/light_switch_proxy_server_nrf52840_xxAA_s140_6.0.0.dir/__/__/__/mesh/bearer/src/radio_config.c.obj
 .text          0x0000000000000000        0x0 CMakeFiles/light_switch_proxy_server_nrf52840_xxAA_s140_6.0.0.dir/__/__/__/mesh/bearer/src/rssi_filter.c.obj
 .data          0x0000000000000000        0x0 CMakeFiles/light_switch_proxy_server_nrf52840_xxAA_s140_6.0.0.dir/__/__/__/mesh/bearer/src/rssi_filter.c.obj
 .bss           0x0000000000000000        0x0 CMakeFiles/light_switch_proxy_server_nrf52840_xxAA_s140_6.0.0.dir/__/__/__/mesh/bearer/src/rssi_filter.c.obj
 .text.rssi_filter_handle
                0x0000000000000000       0x20 CMakeFiles/light_switch_proxy_server_nrf52840_xxAA_s140_6.0.0.dir/__/__/__/mesh/bearer/src/rssi_filter.c.obj
 .text.bearer_rssi_filtering_set
                0x0000000000000000       0x38 CMakeFiles/light_switch_proxy_server_nrf52840_xxAA_s140_6.0.0.dir/__/__/__/mesh/bearer/src/rssi_filter.c.obj
 .text.bearer_rssi_filtered_amount_get
                0x0000000000000000        0xc CMakeFiles/light_switch_proxy_server_nrf52840_xxAA_s140_6.0.0.dir/__/__/__/mesh/bearer/src/rssi_filter.c.obj
 .bss.m_rssi_filter
                0x0000000000000000       0x18 CMakeFiles/light_switch_proxy_server_nrf52840_xxAA_s140_6.0.0.dir/__/__/__/mesh/bearer/src/rssi_filter.c.obj
 .debug_info    0x0000000000000000      0xc70 CMakeFiles/light_switch_proxy_server_nrf52840_xxAA_s140_6.0.0.dir/__/__/__/mesh/bearer/src/rssi_filter.c.obj
 .debug_abbrev  0x0000000000000000      0x290 CMakeFiles/light_switch_proxy_server_nrf52840_xxAA_s140_6.0.0.dir/__/__/__/mesh/bearer/src/rssi_filter.c.obj
 .debug_loc     0x0000000000000000       0xbe CMakeFiles/light_switch_proxy_server_nrf52840_xxAA_s140_6.0.0.dir/__/__/__/mesh/bearer/src/rssi_filter.c.obj
 .debug_aranges
                0x0000000000000000       0x30 CMakeFiles/light_switch_proxy_server_nrf52840_xxAA_s140_6.0.0.dir/__/__/__/mesh/bearer/src/rssi_filter.c.obj
 .debug_ranges  0x0000000000000000       0x20 CMakeFiles/light_switch_proxy_server_nrf52840_xxAA_s140_6.0.0.dir/__/__/__/mesh/bearer/src/rssi_filter.c.obj
 .debug_line    0x0000000000000000      0x3fb CMakeFiles/light_switch_proxy_server_nrf52840_xxAA_s140_6.0.0.dir/__/__/__/mesh/bearer/src/rssi_filter.c.obj
 .debug_str     0x0000000000000000      0x8b3 CMakeFiles/light_switch_proxy_server_nrf52840_xxAA_s140_6.0.0.dir/__/__/__/mesh/bearer/src/rssi_filter.c.obj
 .comment       0x0000000000000000       0x7f CMakeFiles/light_switch_proxy_server_nrf52840_xxAA_s140_6.0.0.dir/__/__/__/mesh/bearer/src/rssi_filter.c.obj
 .debug_frame   0x0000000000000000       0x58 CMakeFiles/light_switch_proxy_server_nrf52840_xxAA_s140_6.0.0.dir/__/__/__/mesh/bearer/src/rssi_filter.c.obj
 .ARM.attributes
                0x0000000000000000       0x39 CMakeFiles/light_switch_proxy_server_nrf52840_xxAA_s140_6.0.0.dir/__/__/__/mesh/bearer/src/rssi_filter.c.obj
 .text          0x0000000000000000        0x0 CMakeFiles/light_switch_proxy_server_nrf52840_xxAA_s140_6.0.0.dir/__/__/__/mesh/bearer/src/scanner.c.obj
 .data          0x0000000000000000        0x0 CMakeFiles/light_switch_proxy_server_nrf52840_xxAA_s140_6.0.0.dir/__/__/__/mesh/bearer/src/scanner.c.obj
 .bss           0x0000000000000000        0x0 CMakeFiles/light_switch_proxy_server_nrf52840_xxAA_s140_6.0.0.dir/__/__/__/mesh/bearer/src/scanner.c.obj
 .text.scanner_rx_callback_set
                0x0000000000000000       0x20 CMakeFiles/light_switch_proxy_server_nrf52840_xxAA_s140_6.0.0.dir/__/__/__/mesh/bearer/src/scanner.c.obj
 .text.scanner_is_enabled
                0x0000000000000000       0x14 CMakeFiles/light_switch_proxy_server_nrf52840_xxAA_s140_6.0.0.dir/__/__/__/mesh/bearer/src/scanner.c.obj
 .text.scanner_stats_get
                0x0000000000000000        0x8 CMakeFiles/light_switch_proxy_server_nrf52840_xxAA_s140_6.0.0.dir/__/__/__/mesh/bearer/src/scanner.c.obj
 .text.scanner_config_radio_mode_set
                0x0000000000000000       0x10 CMakeFiles/light_switch_proxy_server_nrf52840_xxAA_s140_6.0.0.dir/__/__/__/mesh/bearer/src/scanner.c.obj
 .text.scanner_config_scan_time_set
                0x0000000000000000       0x88 CMakeFiles/light_switch_proxy_server_nrf52840_xxAA_s140_6.0.0.dir/__/__/__/mesh/bearer/src/scanner.c.obj
 .text.scanner_config_channels_set
                0x0000000000000000       0x50 CMakeFiles/light_switch_proxy_server_nrf52840_xxAA_s140_6.0.0.dir/__/__/__/mesh/bearer/src/scanner.c.obj
 .text.scanner_config_access_addresses_set
                0x0000000000000000       0x38 CMakeFiles/light_switch_proxy_server_nrf52840_xxAA_s140_6.0.0.dir/__/__/__/mesh/bearer/src/scanner.c.obj
 .text          0x0000000000000000        0x0 CMakeFiles/light_switch_proxy_server_nrf52840_xxAA_s140_6.0.0.dir/__/__/__/mesh/gatt/src/mesh_gatt.c.obj
 .data          0x0000000000000000        0x0 CMakeFiles/light_switch_proxy_server_nrf52840_xxAA_s140_6.0.0.dir/__/__/__/mesh/gatt/src/mesh_gatt.c.obj
 .bss           0x0000000000000000        0x0 CMakeFiles/light_switch_proxy_server_nrf52840_xxAA_s140_6.0.0.dir/__/__/__/mesh/gatt/src/mesh_gatt.c.obj
 .text          0x0000000000000000        0x0 CMakeFiles/light_switch_proxy_server_nrf52840_xxAA_s140_6.0.0.dir/__/__/__/mesh/gatt/src/proxy.c.obj
 .data          0x0000000000000000        0x0 CMakeFiles/light_switch_proxy_server_nrf52840_xxAA_s140_6.0.0.dir/__/__/__/mesh/gatt/src/proxy.c.obj
 .bss           0x0000000000000000        0x0 CMakeFiles/light_switch_proxy_server_nrf52840_xxAA_s140_6.0.0.dir/__/__/__/mesh/gatt/src/proxy.c.obj
 .text.proxy_is_connected
                0x0000000000000000       0x18 CMakeFiles/light_switch_proxy_server_nrf52840_xxAA_s140_6.0.0.dir/__/__/__/mesh/gatt/src/proxy.c.obj
 .text          0x0000000000000000        0x0 CMakeFiles/light_switch_proxy_server_nrf52840_xxAA_s140_6.0.0.dir/__/__/__/mesh/gatt/src/proxy_filter.c.obj
 .data          0x0000000000000000        0x0 CMakeFiles/light_switch_proxy_server_nrf52840_xxAA_s140_6.0.0.dir/__/__/__/mesh/gatt/src/proxy_filter.c.obj
 .bss           0x0000000000000000        0x0 CMakeFiles/light_switch_proxy_server_nrf52840_xxAA_s140_6.0.0.dir/__/__/__/mesh/gatt/src/proxy_filter.c.obj
 .text          0x0000000000000000        0x0 CMakeFiles/light_switch_proxy_server_nrf52840_xxAA_s140_6.0.0.dir/__/__/__/models/simple_on_off/src/simple_on_off_server.c.obj
 .data          0x0000000000000000        0x0 CMakeFiles/light_switch_proxy_server_nrf52840_xxAA_s140_6.0.0.dir/__/__/__/models/simple_on_off/src/simple_on_off_server.c.obj
 .bss           0x0000000000000000        0x0 CMakeFiles/light_switch_proxy_server_nrf52840_xxAA_s140_6.0.0.dir/__/__/__/models/simple_on_off/src/simple_on_off_server.c.obj
 .text          0x0000000000000000        0x0 CMakeFiles/light_switch_proxy_server_nrf52840_xxAA_s140_6.0.0.dir/__/__/__/models/config/src/composition_data.c.obj
 .data          0x0000000000000000        0x0 CMakeFiles/light_switch_proxy_server_nrf52840_xxAA_s140_6.0.0.dir/__/__/__/models/config/src/composition_data.c.obj
 .bss           0x0000000000000000        0x0 CMakeFiles/light_switch_proxy_server_nrf52840_xxAA_s140_6.0.0.dir/__/__/__/models/config/src/composition_data.c.obj
 .text          0x0000000000000000        0x0 CMakeFiles/light_switch_proxy_server_nrf52840_xxAA_s140_6.0.0.dir/__/__/__/models/config/src/config_server.c.obj
 .data          0x0000000000000000        0x0 CMakeFiles/light_switch_proxy_server_nrf52840_xxAA_s140_6.0.0.dir/__/__/__/models/config/src/config_server.c.obj
 .bss           0x0000000000000000        0x0 CMakeFiles/light_switch_proxy_server_nrf52840_xxAA_s140_6.0.0.dir/__/__/__/models/config/src/config_server.c.obj
 .text          0x0000000000000000        0x0 CMakeFiles/light_switch_proxy_server_nrf52840_xxAA_s140_6.0.0.dir/__/__/__/models/config/src/packed_index_list.c.obj
 .data          0x0000000000000000        0x0 CMakeFiles/light_switch_proxy_server_nrf52840_xxAA_s140_6.0.0.dir/__/__/__/models/config/src/packed_index_list.c.obj
 .bss           0x0000000000000000        0x0 CMakeFiles/light_switch_proxy_server_nrf52840_xxAA_s140_6.0.0.dir/__/__/__/models/config/src/packed_index_list.c.obj
 .text          0x0000000000000000        0x0 CMakeFiles/light_switch_proxy_server_nrf52840_xxAA_s140_6.0.0.dir/__/__/__/models/health/src/health_server.c.obj
 .data          0x0000000000000000        0x0 CMakeFiles/light_switch_proxy_server_nrf52840_xxAA_s140_6.0.0.dir/__/__/__/models/health/src/health_server.c.obj
 .bss           0x0000000000000000        0x0 CMakeFiles/light_switch_proxy_server_nrf52840_xxAA_s140_6.0.0.dir/__/__/__/models/health/src/health_server.c.obj
 .text.health_server_fault_register
                0x0000000000000000      0x23c CMakeFiles/light_switch_proxy_server_nrf52840_xxAA_s140_6.0.0.dir/__/__/__/models/health/src/health_server.c.obj
 .text.health_server_fault_clear
                0x0000000000000000      0x2d8 CMakeFiles/light_switch_proxy_server_nrf52840_xxAA_s140_6.0.0.dir/__/__/__/models/health/src/health_server.c.obj
 .text.health_server_fault_is_set
                0x0000000000000000       0x1c CMakeFiles/light_switch_proxy_server_nrf52840_xxAA_s140_6.0.0.dir/__/__/__/models/health/src/health_server.c.obj
 .text.health_server_fault_count_get
                0x0000000000000000      0x14c CMakeFiles/light_switch_proxy_server_nrf52840_xxAA_s140_6.0.0.dir/__/__/__/models/health/src/health_server.c.obj
 .text.health_server_attention_get
                0x0000000000000000        0x8 CMakeFiles/light_switch_proxy_server_nrf52840_xxAA_s140_6.0.0.dir/__/__/__/models/health/src/health_server.c.obj
 .text.health_server_attention_set
                0x0000000000000000       0x90 CMakeFiles/light_switch_proxy_server_nrf52840_xxAA_s140_6.0.0.dir/__/__/__/models/health/src/health_server.c.obj
 .text          0x0000000000000000        0x0 CMakeFiles/light_switch_proxy_server_nrf52840_xxAA_s140_6.0.0.dir/__/__/__/mesh/access/src/access_publish.c.obj
 .data          0x0000000000000000        0x0 CMakeFiles/light_switch_proxy_server_nrf52840_xxAA_s140_6.0.0.dir/__/__/__/mesh/access/src/access_publish.c.obj
 .bss           0x0000000000000000        0x0 CMakeFiles/light_switch_proxy_server_nrf52840_xxAA_s140_6.0.0.dir/__/__/__/mesh/access/src/access_publish.c.obj
 .text          0x0000000000000000        0x0 CMakeFiles/light_switch_proxy_server_nrf52840_xxAA_s140_6.0.0.dir/__/__/__/mesh/access/src/access.c.obj
 .data          0x0000000000000000        0x0 CMakeFiles/light_switch_proxy_server_nrf52840_xxAA_s140_6.0.0.dir/__/__/__/mesh/access/src/access.c.obj
 .bss           0x0000000000000000        0x0 CMakeFiles/light_switch_proxy_server_nrf52840_xxAA_s140_6.0.0.dir/__/__/__/mesh/access/src/access.c.obj
 .text.access_model_subscription_lists_share
                0x0000000000000000       0x5c CMakeFiles/light_switch_proxy_server_nrf52840_xxAA_s140_6.0.0.dir/__/__/__/mesh/access/src/access.c.obj
 .text.access_element_location_set
                0x0000000000000000       0x20 CMakeFiles/light_switch_proxy_server_nrf52840_xxAA_s140_6.0.0.dir/__/__/__/mesh/access/src/access.c.obj
 .text          0x0000000000000000        0x0 CMakeFiles/light_switch_proxy_server_nrf52840_xxAA_s140_6.0.0.dir/__/__/__/mesh/access/src/access_reliable.c.obj
 .data          0x0000000000000000        0x0 CMakeFiles/light_switch_proxy_server_nrf52840_xxAA_s140_6.0.0.dir/__/__/__/mesh/access/src/access_reliable.c.obj
 .bss           0x0000000000000000        0x0 CMakeFiles/light_switch_proxy_server_nrf52840_xxAA_s140_6.0.0.dir/__/__/__/mesh/access/src/access_reliable.c.obj
 .text.access_model_reliable_publish
                0x0000000000000000      0x228 CMakeFiles/light_switch_proxy_server_nrf52840_xxAA_s140_6.0.0.dir/__/__/__/mesh/access/src/access_reliable.c.obj
 .text          0x0000000000000000        0x0 CMakeFiles/light_switch_proxy_server_nrf52840_xxAA_s140_6.0.0.dir/__/__/__/mesh/access/src/device_state_manager.c.obj
 .data          0x0000000000000000        0x0 CMakeFiles/light_switch_proxy_server_nrf52840_xxAA_s140_6.0.0.dir/__/__/__/mesh/access/src/device_state_manager.c.obj
 .bss           0x0000000000000000        0x0 CMakeFiles/light_switch_proxy_server_nrf52840_xxAA_s140_6.0.0.dir/__/__/__/mesh/access/src/device_state_manager.c.obj
 .text.dsm_has_unflashed_data
                0x0000000000000000       0x58 CMakeFiles/light_switch_proxy_server_nrf52840_xxAA_s140_6.0.0.dir/__/__/__/mesh/access/src/device_state_manager.c.obj
 .text.dsm_address_subscription_count_get
                0x0000000000000000       0x80 CMakeFiles/light_switch_proxy_server_nrf52840_xxAA_s140_6.0.0.dir/__/__/__/mesh/access/src/device_state_manager.c.obj
 .text.dsm_address_get_all
                0x0000000000000000      0x198 CMakeFiles/light_switch_proxy_server_nrf52840_xxAA_s140_6.0.0.dir/__/__/__/mesh/access/src/device_state_manager.c.obj
 .text.dsm_subnet_handle_to_netkey_index
                0x0000000000000000       0x34 CMakeFiles/light_switch_proxy_server_nrf52840_xxAA_s140_6.0.0.dir/__/__/__/mesh/access/src/device_state_manager.c.obj
 .text.dsm_devkey_delete
                0x0000000000000000       0x6c CMakeFiles/light_switch_proxy_server_nrf52840_xxAA_s140_6.0.0.dir/__/__/__/mesh/access/src/device_state_manager.c.obj
 .text.dsm_devkey_handle_get
                0x0000000000000000       0x3c CMakeFiles/light_switch_proxy_server_nrf52840_xxAA_s140_6.0.0.dir/__/__/__/mesh/access/src/device_state_manager.c.obj
 .text          0x0000000000000000        0x0 CMakeFiles/light_switch_proxy_server_nrf52840_xxAA_s140_6.0.0.dir/__/__/__/mesh/prov/src/prov_provisionee.c.obj
 .data          0x0000000000000000        0x0 CMakeFiles/light_switch_proxy_server_nrf52840_xxAA_s140_6.0.0.dir/__/__/__/mesh/prov/src/prov_provisionee.c.obj
 .bss           0x0000000000000000        0x0 CMakeFiles/light_switch_proxy_server_nrf52840_xxAA_s140_6.0.0.dir/__/__/__/mesh/prov/src/prov_provisionee.c.obj
 .text.prov_provisionee_shared_secret
                0x0000000000000000       0xa0 CMakeFiles/light_switch_proxy_server_nrf52840_xxAA_s140_6.0.0.dir/__/__/__/mesh/prov/src/prov_provisionee.c.obj
 .text          0x0000000000000000        0x0 CMakeFiles/light_switch_proxy_server_nrf52840_xxAA_s140_6.0.0.dir/__/__/__/mesh/prov/src/nrf_mesh_prov.c.obj
 .data          0x0000000000000000        0x0 CMakeFiles/light_switch_proxy_server_nrf52840_xxAA_s140_6.0.0.dir/__/__/__/mesh/prov/src/nrf_mesh_prov.c.obj
 .bss           0x0000000000000000        0x0 CMakeFiles/light_switch_proxy_server_nrf52840_xxAA_s140_6.0.0.dir/__/__/__/mesh/prov/src/nrf_mesh_prov.c.obj
 .text.nrf_mesh_prov_listen_stop
                0x0000000000000000       0x30 CMakeFiles/light_switch_proxy_server_nrf52840_xxAA_s140_6.0.0.dir/__/__/__/mesh/prov/src/nrf_mesh_prov.c.obj
 .text.nrf_mesh_prov_provision
                0x0000000000000000       0x68 CMakeFiles/light_switch_proxy_server_nrf52840_xxAA_s140_6.0.0.dir/__/__/__/mesh/prov/src/nrf_mesh_prov.c.obj
 .text.nrf_mesh_prov_oob_use
                0x0000000000000000       0x18 CMakeFiles/light_switch_proxy_server_nrf52840_xxAA_s140_6.0.0.dir/__/__/__/mesh/prov/src/nrf_mesh_prov.c.obj
 .text.nrf_mesh_prov_shared_secret_provide
                0x0000000000000000       0x10 CMakeFiles/light_switch_proxy_server_nrf52840_xxAA_s140_6.0.0.dir/__/__/__/mesh/prov/src/nrf_mesh_prov.c.obj
 .text.nrf_mesh_prov_pubkey_provide
                0x0000000000000000       0x10 CMakeFiles/light_switch_proxy_server_nrf52840_xxAA_s140_6.0.0.dir/__/__/__/mesh/prov/src/nrf_mesh_prov.c.obj
 .text.nrf_mesh_prov_scan_start
                0x0000000000000000       0x10 CMakeFiles/light_switch_proxy_server_nrf52840_xxAA_s140_6.0.0.dir/__/__/__/mesh/prov/src/nrf_mesh_prov.c.obj
 .text.nrf_mesh_prov_scan_stop
                0x0000000000000000        0x4 CMakeFiles/light_switch_proxy_server_nrf52840_xxAA_s140_6.0.0.dir/__/__/__/mesh/prov/src/nrf_mesh_prov.c.obj
 .text          0x0000000000000000        0x0 CMakeFiles/light_switch_proxy_server_nrf52840_xxAA_s140_6.0.0.dir/__/__/__/mesh/prov/src/provisioning.c.obj
 .data          0x0000000000000000        0x0 CMakeFiles/light_switch_proxy_server_nrf52840_xxAA_s140_6.0.0.dir/__/__/__/mesh/prov/src/provisioning.c.obj
 .bss           0x0000000000000000        0x0 CMakeFiles/light_switch_proxy_server_nrf52840_xxAA_s140_6.0.0.dir/__/__/__/mesh/prov/src/provisioning.c.obj
 .text.prov_tx_invite
                0x0000000000000000       0x38 CMakeFiles/light_switch_proxy_server_nrf52840_xxAA_s140_6.0.0.dir/__/__/__/mesh/prov/src/provisioning.c.obj
 .text.prov_tx_start
                0x0000000000000000       0x38 CMakeFiles/light_switch_proxy_server_nrf52840_xxAA_s140_6.0.0.dir/__/__/__/mesh/prov/src/provisioning.c.obj
 .text.prov_tx_data
                0x0000000000000000       0x34 CMakeFiles/light_switch_proxy_server_nrf52840_xxAA_s140_6.0.0.dir/__/__/__/mesh/prov/src/provisioning.c.obj
 .text.prov_tx  0x0000000000000000       0x3c CMakeFiles/light_switch_proxy_server_nrf52840_xxAA_s140_6.0.0.dir/__/__/__/mesh/prov/src/provisioning.c.obj
 .text          0x0000000000000000        0x0 CMakeFiles/light_switch_proxy_server_nrf52840_xxAA_s140_6.0.0.dir/__/__/__/mesh/prov/src/prov_beacon.c.obj
 .data          0x0000000000000000        0x0 CMakeFiles/light_switch_proxy_server_nrf52840_xxAA_s140_6.0.0.dir/__/__/__/mesh/prov/src/prov_beacon.c.obj
 .bss           0x0000000000000000        0x0 CMakeFiles/light_switch_proxy_server_nrf52840_xxAA_s140_6.0.0.dir/__/__/__/mesh/prov/src/prov_beacon.c.obj
 .text.prov_beacon_scan_start
                0x0000000000000000       0x1c CMakeFiles/light_switch_proxy_server_nrf52840_xxAA_s140_6.0.0.dir/__/__/__/mesh/prov/src/prov_beacon.c.obj
 .text.prov_beacon_scan_stop
                0x0000000000000000        0xc CMakeFiles/light_switch_proxy_server_nrf52840_xxAA_s140_6.0.0.dir/__/__/__/mesh/prov/src/prov_beacon.c.obj
 .text          0x0000000000000000        0x0 CMakeFiles/light_switch_proxy_server_nrf52840_xxAA_s140_6.0.0.dir/__/__/__/mesh/prov/src/prov_utils.c.obj
 .data          0x0000000000000000        0x0 CMakeFiles/light_switch_proxy_server_nrf52840_xxAA_s140_6.0.0.dir/__/__/__/mesh/prov/src/prov_utils.c.obj
 .bss           0x0000000000000000        0x0 CMakeFiles/light_switch_proxy_server_nrf52840_xxAA_s140_6.0.0.dir/__/__/__/mesh/prov/src/prov_utils.c.obj
 .text          0x0000000000000000        0x0 CMakeFiles/light_switch_proxy_server_nrf52840_xxAA_s140_6.0.0.dir/__/__/__/mesh/prov/src/prov_bearer_adv.c.obj
 .data          0x0000000000000000        0x0 CMakeFiles/light_switch_proxy_server_nrf52840_xxAA_s140_6.0.0.dir/__/__/__/mesh/prov/src/prov_bearer_adv.c.obj
 .bss           0x0000000000000000        0x0 CMakeFiles/light_switch_proxy_server_nrf52840_xxAA_s140_6.0.0.dir/__/__/__/mesh/prov/src/prov_bearer_adv.c.obj
 .text.calculate_3GPP_CRC
                0x0000000000000000       0x28 CMakeFiles/light_switch_proxy_server_nrf52840_xxAA_s140_6.0.0.dir/__/__/__/mesh/prov/src/prov_bearer_adv.c.obj
 .text          0x0000000000000000        0x0 CMakeFiles/light_switch_proxy_server_nrf52840_xxAA_s140_6.0.0.dir/home/mazzer/work/nordic/sdk/nRF5_SDK_15.0.0/modules/nrfx/mdk/system_nrf52840.c.obj
 .data          0x0000000000000000        0x0 CMakeFiles/light_switch_proxy_server_nrf52840_xxAA_s140_6.0.0.dir/home/mazzer/work/nordic/sdk/nRF5_SDK_15.0.0/modules/nrfx/mdk/system_nrf52840.c.obj
 .bss           0x0000000000000000        0x0 CMakeFiles/light_switch_proxy_server_nrf52840_xxAA_s140_6.0.0.dir/home/mazzer/work/nordic/sdk/nRF5_SDK_15.0.0/modules/nrfx/mdk/system_nrf52840.c.obj
 .text.SystemCoreClockUpdate
                0x0000000000000000       0x10 CMakeFiles/light_switch_proxy_server_nrf52840_xxAA_s140_6.0.0.dir/home/mazzer/work/nordic/sdk/nRF5_SDK_15.0.0/modules/nrfx/mdk/system_nrf52840.c.obj
 .data          0x0000000000000000        0x0 CMakeFiles/light_switch_proxy_server_nrf52840_xxAA_s140_6.0.0.dir/home/mazzer/work/nordic/sdk/nRF5_SDK_15.0.0/modules/nrfx/mdk/gcc_startup_nrf52840.S.obj
 .bss           0x0000000000000000        0x0 CMakeFiles/light_switch_proxy_server_nrf52840_xxAA_s140_6.0.0.dir/home/mazzer/work/nordic/sdk/nRF5_SDK_15.0.0/modules/nrfx/mdk/gcc_startup_nrf52840.S.obj
 .text          0x0000000000000000        0x0 CMakeFiles/light_switch_proxy_server_nrf52840_xxAA_s140_6.0.0.dir/home/mazzer/work/nordic/sdk/nRF5_SDK_15.0.0/components/libraries/util/app_error.c.obj
 .data          0x0000000000000000        0x0 CMakeFiles/light_switch_proxy_server_nrf52840_xxAA_s140_6.0.0.dir/home/mazzer/work/nordic/sdk/nRF5_SDK_15.0.0/components/libraries/util/app_error.c.obj
 .bss           0x0000000000000000        0x0 CMakeFiles/light_switch_proxy_server_nrf52840_xxAA_s140_6.0.0.dir/home/mazzer/work/nordic/sdk/nRF5_SDK_15.0.0/components/libraries/util/app_error.c.obj
 .text.app_error_save_and_stop
                0x0000000000000000       0x64 CMakeFiles/light_switch_proxy_server_nrf52840_xxAA_s140_6.0.0.dir/home/mazzer/work/nordic/sdk/nRF5_SDK_15.0.0/components/libraries/util/app_error.c.obj
 .bss.m_error_data.8293
                0x0000000000000000       0x20 CMakeFiles/light_switch_proxy_server_nrf52840_xxAA_s140_6.0.0.dir/home/mazzer/work/nordic/sdk/nRF5_SDK_15.0.0/components/libraries/util/app_error.c.obj
 .text          0x0000000000000000        0x0 CMakeFiles/light_switch_proxy_server_nrf52840_xxAA_s140_6.0.0.dir/home/mazzer/work/nordic/sdk/nRF5_SDK_15.0.0/components/libraries/util/app_error_handler_gcc.c.obj
 .data          0x0000000000000000        0x0 CMakeFiles/light_switch_proxy_server_nrf52840_xxAA_s140_6.0.0.dir/home/mazzer/work/nordic/sdk/nRF5_SDK_15.0.0/components/libraries/util/app_error_handler_gcc.c.obj
 .bss           0x0000000000000000        0x0 CMakeFiles/light_switch_proxy_server_nrf52840_xxAA_s140_6.0.0.dir/home/mazzer/work/nordic/sdk/nRF5_SDK_15.0.0/components/libraries/util/app_error_handler_gcc.c.obj
 .text          0x0000000000000000        0x0 ../../../external/rtt/librtt_nrf52840_xxAA.a(SEGGER_RTT.c.obj)
 .data          0x0000000000000000        0x0 ../../../external/rtt/librtt_nrf52840_xxAA.a(SEGGER_RTT.c.obj)
 .bss           0x0000000000000000        0x0 ../../../external/rtt/librtt_nrf52840_xxAA.a(SEGGER_RTT.c.obj)
 .text.SEGGER_RTT_ReadNoLock
                0x0000000000000000       0xfc ../../../external/rtt/librtt_nrf52840_xxAA.a(SEGGER_RTT.c.obj)
 .text.SEGGER_RTT_Read
                0x0000000000000000      0x118 ../../../external/rtt/librtt_nrf52840_xxAA.a(SEGGER_RTT.c.obj)
 .text.SEGGER_RTT_WriteSkipNoLock
                0x0000000000000000      0x1a8 ../../../external/rtt/librtt_nrf52840_xxAA.a(SEGGER_RTT.c.obj)
 .text.SEGGER_RTT_WriteNoLock
                0x0000000000000000      0x168 ../../../external/rtt/librtt_nrf52840_xxAA.a(SEGGER_RTT.c.obj)
 .text.SEGGER_RTT_WriteString
                0x0000000000000000      0x1f8 ../../../external/rtt/librtt_nrf52840_xxAA.a(SEGGER_RTT.c.obj)
 .text.SEGGER_RTT_WaitKey
                0x0000000000000000       0xfc ../../../external/rtt/librtt_nrf52840_xxAA.a(SEGGER_RTT.c.obj)
 .text.SEGGER_RTT_HasKey
                0x0000000000000000       0x6c ../../../external/rtt/librtt_nrf52840_xxAA.a(SEGGER_RTT.c.obj)
 .text.SEGGER_RTT_HasData
                0x0000000000000000       0x18 ../../../external/rtt/librtt_nrf52840_xxAA.a(SEGGER_RTT.c.obj)
 .text.SEGGER_RTT_AllocDownBuffer
                0x0000000000000000       0xb8 ../../../external/rtt/librtt_nrf52840_xxAA.a(SEGGER_RTT.c.obj)
 .text.SEGGER_RTT_AllocUpBuffer
                0x0000000000000000       0xd4 ../../../external/rtt/librtt_nrf52840_xxAA.a(SEGGER_RTT.c.obj)
 .text.SEGGER_RTT_ConfigUpBuffer
                0x0000000000000000       0xd0 ../../../external/rtt/librtt_nrf52840_xxAA.a(SEGGER_RTT.c.obj)
 .text.SEGGER_RTT_ConfigDownBuffer
                0x0000000000000000       0xb4 ../../../external/rtt/librtt_nrf52840_xxAA.a(SEGGER_RTT.c.obj)
 .text.SEGGER_RTT_SetNameUpBuffer
                0x0000000000000000       0x90 ../../../external/rtt/librtt_nrf52840_xxAA.a(SEGGER_RTT.c.obj)
 .text.SEGGER_RTT_SetNameDownBuffer
                0x0000000000000000       0x90 ../../../external/rtt/librtt_nrf52840_xxAA.a(SEGGER_RTT.c.obj)
 .text.SEGGER_RTT_Init
                0x0000000000000000       0x64 ../../../external/rtt/librtt_nrf52840_xxAA.a(SEGGER_RTT.c.obj)
 .text.SEGGER_RTT_SetTerminal
                0x0000000000000000      0x16c ../../../external/rtt/librtt_nrf52840_xxAA.a(SEGGER_RTT.c.obj)
 .text.SEGGER_RTT_TerminalOut
                0x0000000000000000      0x4d8 ../../../external/rtt/librtt_nrf52840_xxAA.a(SEGGER_RTT.c.obj)
 .bss._ActiveTerminal
                0x0000000000000000        0x1 ../../../external/rtt/librtt_nrf52840_xxAA.a(SEGGER_RTT.c.obj)
 .rodata._aTerminalId
                0x0000000000000000       0x10 ../../../external/rtt/librtt_nrf52840_xxAA.a(SEGGER_RTT.c.obj)
 .text          0x0000000000000000        0x0 ../../../external/rtt/librtt_nrf52840_xxAA.a(SEGGER_RTT_printf.c.obj)
 .data          0x0000000000000000        0x0 ../../../external/rtt/librtt_nrf52840_xxAA.a(SEGGER_RTT_printf.c.obj)
 .bss           0x0000000000000000        0x0 ../../../external/rtt/librtt_nrf52840_xxAA.a(SEGGER_RTT_printf.c.obj)
 .text          0x0000000000000000        0x0 ../../../external/micro-ecc/libuECC_nrf52840_xxAA.a(uECC.c.obj)
 .data          0x0000000000000000        0x0 ../../../external/micro-ecc/libuECC_nrf52840_xxAA.a(uECC.c.obj)
 .bss           0x0000000000000000        0x0 ../../../external/micro-ecc/libuECC_nrf52840_xxAA.a(uECC.c.obj)
 .text.HMAC_finish
                0x0000000000000000       0x70 ../../../external/micro-ecc/libuECC_nrf52840_xxAA.a(uECC.c.obj)
 .text.uECC_vli_mmod
                0x0000000000000000      0x418 ../../../external/micro-ecc/libuECC_nrf52840_xxAA.a(uECC.c.obj)
 .text.uECC_vli_modSub.isra.2
                0x0000000000000000       0x98 ../../../external/micro-ecc/libuECC_nrf52840_xxAA.a(uECC.c.obj)
 .text.bits2int
                0x0000000000000000      0x160 ../../../external/micro-ecc/libuECC_nrf52840_xxAA.a(uECC.c.obj)
 .text.uECC_sign_with_k
                0x0000000000000000      0x630 ../../../external/micro-ecc/libuECC_nrf52840_xxAA.a(uECC.c.obj)
 .text.uECC_set_rng
                0x0000000000000000        0xc ../../../external/micro-ecc/libuECC_nrf52840_xxAA.a(uECC.c.obj)
 .text.uECC_get_rng
                0x0000000000000000        0xc ../../../external/micro-ecc/libuECC_nrf52840_xxAA.a(uECC.c.obj)
 .text.uECC_curve_private_key_size
                0x0000000000000000       0x10 ../../../external/micro-ecc/libuECC_nrf52840_xxAA.a(uECC.c.obj)
 .text.uECC_curve_public_key_size
                0x0000000000000000        0x8 ../../../external/micro-ecc/libuECC_nrf52840_xxAA.a(uECC.c.obj)
 .text.uECC_valid_point
                0x0000000000000000      0x154 ../../../external/micro-ecc/libuECC_nrf52840_xxAA.a(uECC.c.obj)
 .text.uECC_compute_public_key
                0x0000000000000000      0x2e8 ../../../external/micro-ecc/libuECC_nrf52840_xxAA.a(uECC.c.obj)
 .text.uECC_sign
                0x0000000000000000       0x5c ../../../external/micro-ecc/libuECC_nrf52840_xxAA.a(uECC.c.obj)
 .text.uECC_sign_deterministic
                0x0000000000000000      0x414 ../../../external/micro-ecc/libuECC_nrf52840_xxAA.a(uECC.c.obj)
 .text.uECC_verify
                0x0000000000000000      0x960 ../../../external/micro-ecc/libuECC_nrf52840_xxAA.a(uECC.c.obj)
 .text          0x0000000000000000       0xa0 /usr/bin/../lib/gcc/arm-none-eabi/7.2.1/thumb/v7e-m/fpv4-sp/hard/libgcc.a(_aeabi_ldivmod.o)
 .data          0x0000000000000000        0x0 /usr/bin/../lib/gcc/arm-none-eabi/7.2.1/thumb/v7e-m/fpv4-sp/hard/libgcc.a(_aeabi_ldivmod.o)
 .bss           0x0000000000000000        0x0 /usr/bin/../lib/gcc/arm-none-eabi/7.2.1/thumb/v7e-m/fpv4-sp/hard/libgcc.a(_aeabi_ldivmod.o)
 .debug_frame   0x0000000000000000       0x44 /usr/bin/../lib/gcc/arm-none-eabi/7.2.1/thumb/v7e-m/fpv4-sp/hard/libgcc.a(_aeabi_ldivmod.o)
 .ARM.attributes
                0x0000000000000000       0x22 /usr/bin/../lib/gcc/arm-none-eabi/7.2.1/thumb/v7e-m/fpv4-sp/hard/libgcc.a(_aeabi_ldivmod.o)
 .data          0x0000000000000000        0x0 /usr/bin/../lib/gcc/arm-none-eabi/7.2.1/thumb/v7e-m/fpv4-sp/hard/libgcc.a(_aeabi_uldivmod.o)
 .bss           0x0000000000000000        0x0 /usr/bin/../lib/gcc/arm-none-eabi/7.2.1/thumb/v7e-m/fpv4-sp/hard/libgcc.a(_aeabi_uldivmod.o)
 .data          0x0000000000000000        0x0 /usr/bin/../lib/gcc/arm-none-eabi/7.2.1/thumb/v7e-m/fpv4-sp/hard/libgcc.a(_udivmoddi4.o)
 .bss           0x0000000000000000        0x0 /usr/bin/../lib/gcc/arm-none-eabi/7.2.1/thumb/v7e-m/fpv4-sp/hard/libgcc.a(_udivmoddi4.o)
 .ARM.extab     0x0000000000000000        0x0 /usr/bin/../lib/gcc/arm-none-eabi/7.2.1/thumb/v7e-m/fpv4-sp/hard/libgcc.a(_udivmoddi4.o)
 .data          0x0000000000000000        0x0 /usr/bin/../lib/gcc/arm-none-eabi/7.2.1/thumb/v7e-m/fpv4-sp/hard/libgcc.a(_dvmd_tls.o)
 .bss           0x0000000000000000        0x0 /usr/bin/../lib/gcc/arm-none-eabi/7.2.1/thumb/v7e-m/fpv4-sp/hard/libgcc.a(_dvmd_tls.o)
 .text          0x0000000000000000        0x0 /usr/bin/../lib/gcc/arm-none-eabi/7.2.1/../../../../arm-none-eabi/lib/thumb/v7e-m/fpv4-sp/hard/libg_nano.a(lib_a-exit.o)
 .data          0x0000000000000000        0x0 /usr/bin/../lib/gcc/arm-none-eabi/7.2.1/../../../../arm-none-eabi/lib/thumb/v7e-m/fpv4-sp/hard/libg_nano.a(lib_a-exit.o)
 .bss           0x0000000000000000        0x0 /usr/bin/../lib/gcc/arm-none-eabi/7.2.1/../../../../arm-none-eabi/lib/thumb/v7e-m/fpv4-sp/hard/libg_nano.a(lib_a-exit.o)
 .text          0x0000000000000000        0x0 /usr/bin/../lib/gcc/arm-none-eabi/7.2.1/../../../../arm-none-eabi/lib/thumb/v7e-m/fpv4-sp/hard/libg_nano.a(lib_a-impure.o)
 .data          0x0000000000000000        0x0 /usr/bin/../lib/gcc/arm-none-eabi/7.2.1/../../../../arm-none-eabi/lib/thumb/v7e-m/fpv4-sp/hard/libg_nano.a(lib_a-impure.o)
 .bss           0x0000000000000000        0x0 /usr/bin/../lib/gcc/arm-none-eabi/7.2.1/../../../../arm-none-eabi/lib/thumb/v7e-m/fpv4-sp/hard/libg_nano.a(lib_a-impure.o)
 .text          0x0000000000000000        0x0 /usr/bin/../lib/gcc/arm-none-eabi/7.2.1/../../../../arm-none-eabi/lib/thumb/v7e-m/fpv4-sp/hard/libg_nano.a(lib_a-init.o)
 .data          0x0000000000000000        0x0 /usr/bin/../lib/gcc/arm-none-eabi/7.2.1/../../../../arm-none-eabi/lib/thumb/v7e-m/fpv4-sp/hard/libg_nano.a(lib_a-init.o)
 .bss           0x0000000000000000        0x0 /usr/bin/../lib/gcc/arm-none-eabi/7.2.1/../../../../arm-none-eabi/lib/thumb/v7e-m/fpv4-sp/hard/libg_nano.a(lib_a-init.o)
 .text          0x0000000000000000        0x0 /usr/bin/../lib/gcc/arm-none-eabi/7.2.1/../../../../arm-none-eabi/lib/thumb/v7e-m/fpv4-sp/hard/libg_nano.a(lib_a-malloc.o)
 .data          0x0000000000000000        0x0 /usr/bin/../lib/gcc/arm-none-eabi/7.2.1/../../../../arm-none-eabi/lib/thumb/v7e-m/fpv4-sp/hard/libg_nano.a(lib_a-malloc.o)
 .bss           0x0000000000000000        0x0 /usr/bin/../lib/gcc/arm-none-eabi/7.2.1/../../../../arm-none-eabi/lib/thumb/v7e-m/fpv4-sp/hard/libg_nano.a(lib_a-malloc.o)
 .text          0x0000000000000000        0x0 /usr/bin/../lib/gcc/arm-none-eabi/7.2.1/../../../../arm-none-eabi/lib/thumb/v7e-m/fpv4-sp/hard/libg_nano.a(lib_a-memcmp.o)
 .data          0x0000000000000000        0x0 /usr/bin/../lib/gcc/arm-none-eabi/7.2.1/../../../../arm-none-eabi/lib/thumb/v7e-m/fpv4-sp/hard/libg_nano.a(lib_a-memcmp.o)
 .bss           0x0000000000000000        0x0 /usr/bin/../lib/gcc/arm-none-eabi/7.2.1/../../../../arm-none-eabi/lib/thumb/v7e-m/fpv4-sp/hard/libg_nano.a(lib_a-memcmp.o)
 .text          0x0000000000000000        0x0 /usr/bin/../lib/gcc/arm-none-eabi/7.2.1/../../../../arm-none-eabi/lib/thumb/v7e-m/fpv4-sp/hard/libg_nano.a(lib_a-memcpy-stub.o)
 .data          0x0000000000000000        0x0 /usr/bin/../lib/gcc/arm-none-eabi/7.2.1/../../../../arm-none-eabi/lib/thumb/v7e-m/fpv4-sp/hard/libg_nano.a(lib_a-memcpy-stub.o)
 .bss           0x0000000000000000        0x0 /usr/bin/../lib/gcc/arm-none-eabi/7.2.1/../../../../arm-none-eabi/lib/thumb/v7e-m/fpv4-sp/hard/libg_nano.a(lib_a-memcpy-stub.o)
 .text          0x0000000000000000        0x0 /usr/bin/../lib/gcc/arm-none-eabi/7.2.1/../../../../arm-none-eabi/lib/thumb/v7e-m/fpv4-sp/hard/libg_nano.a(lib_a-memset.o)
 .data          0x0000000000000000        0x0 /usr/bin/../lib/gcc/arm-none-eabi/7.2.1/../../../../arm-none-eabi/lib/thumb/v7e-m/fpv4-sp/hard/libg_nano.a(lib_a-memset.o)
 .bss           0x0000000000000000        0x0 /usr/bin/../lib/gcc/arm-none-eabi/7.2.1/../../../../arm-none-eabi/lib/thumb/v7e-m/fpv4-sp/hard/libg_nano.a(lib_a-memset.o)
 .text          0x0000000000000000        0x0 /usr/bin/../lib/gcc/arm-none-eabi/7.2.1/../../../../arm-none-eabi/lib/thumb/v7e-m/fpv4-sp/hard/libg_nano.a(lib_a-nano-freer.o)
 .data          0x0000000000000000        0x0 /usr/bin/../lib/gcc/arm-none-eabi/7.2.1/../../../../arm-none-eabi/lib/thumb/v7e-m/fpv4-sp/hard/libg_nano.a(lib_a-nano-freer.o)
 .bss           0x0000000000000000        0x0 /usr/bin/../lib/gcc/arm-none-eabi/7.2.1/../../../../arm-none-eabi/lib/thumb/v7e-m/fpv4-sp/hard/libg_nano.a(lib_a-nano-freer.o)
 .text          0x0000000000000000        0x0 /usr/bin/../lib/gcc/arm-none-eabi/7.2.1/../../../../arm-none-eabi/lib/thumb/v7e-m/fpv4-sp/hard/libg_nano.a(lib_a-nano-mallocr.o)
 .data          0x0000000000000000        0x0 /usr/bin/../lib/gcc/arm-none-eabi/7.2.1/../../../../arm-none-eabi/lib/thumb/v7e-m/fpv4-sp/hard/libg_nano.a(lib_a-nano-mallocr.o)
 .bss           0x0000000000000000        0x0 /usr/bin/../lib/gcc/arm-none-eabi/7.2.1/../../../../arm-none-eabi/lib/thumb/v7e-m/fpv4-sp/hard/libg_nano.a(lib_a-nano-mallocr.o)
 .text          0x0000000000000000        0x0 /usr/bin/../lib/gcc/arm-none-eabi/7.2.1/../../../../arm-none-eabi/lib/thumb/v7e-m/fpv4-sp/hard/libg_nano.a(lib_a-sbrkr.o)
 .data          0x0000000000000000        0x0 /usr/bin/../lib/gcc/arm-none-eabi/7.2.1/../../../../arm-none-eabi/lib/thumb/v7e-m/fpv4-sp/hard/libg_nano.a(lib_a-sbrkr.o)
 .bss           0x0000000000000000        0x0 /usr/bin/../lib/gcc/arm-none-eabi/7.2.1/../../../../arm-none-eabi/lib/thumb/v7e-m/fpv4-sp/hard/libg_nano.a(lib_a-sbrkr.o)
 .text          0x0000000000000000        0x0 /usr/bin/../lib/gcc/arm-none-eabi/7.2.1/../../../../arm-none-eabi/lib/thumb/v7e-m/fpv4-sp/hard/libg_nano.a(lib_a-strcpy.o)
 .data          0x0000000000000000        0x0 /usr/bin/../lib/gcc/arm-none-eabi/7.2.1/../../../../arm-none-eabi/lib/thumb/v7e-m/fpv4-sp/hard/libg_nano.a(lib_a-strcpy.o)
 .bss           0x0000000000000000        0x0 /usr/bin/../lib/gcc/arm-none-eabi/7.2.1/../../../../arm-none-eabi/lib/thumb/v7e-m/fpv4-sp/hard/libg_nano.a(lib_a-strcpy.o)
 .data          0x0000000000000000        0x0 /usr/bin/../lib/gcc/arm-none-eabi/7.2.1/../../../../arm-none-eabi/lib/thumb/v7e-m/fpv4-sp/hard/libg_nano.a(lib_a-strlen.o)
 .bss           0x0000000000000000        0x0 /usr/bin/../lib/gcc/arm-none-eabi/7.2.1/../../../../arm-none-eabi/lib/thumb/v7e-m/fpv4-sp/hard/libg_nano.a(lib_a-strlen.o)
 .text          0x0000000000000000        0x0 /usr/bin/../lib/gcc/arm-none-eabi/7.2.1/../../../../arm-none-eabi/lib/thumb/v7e-m/fpv4-sp/hard/libg_nano.a(lib_a-strrchr.o)
 .data          0x0000000000000000        0x0 /usr/bin/../lib/gcc/arm-none-eabi/7.2.1/../../../../arm-none-eabi/lib/thumb/v7e-m/fpv4-sp/hard/libg_nano.a(lib_a-strrchr.o)
 .bss           0x0000000000000000        0x0 /usr/bin/../lib/gcc/arm-none-eabi/7.2.1/../../../../arm-none-eabi/lib/thumb/v7e-m/fpv4-sp/hard/libg_nano.a(lib_a-strrchr.o)
 .text          0x0000000000000000        0x0 /usr/bin/../lib/gcc/arm-none-eabi/7.2.1/../../../../arm-none-eabi/lib/thumb/v7e-m/fpv4-sp/hard/libg_nano.a(lib_a-mlock.o)
 .data          0x0000000000000000        0x0 /usr/bin/../lib/gcc/arm-none-eabi/7.2.1/../../../../arm-none-eabi/lib/thumb/v7e-m/fpv4-sp/hard/libg_nano.a(lib_a-mlock.o)
 .bss           0x0000000000000000        0x0 /usr/bin/../lib/gcc/arm-none-eabi/7.2.1/../../../../arm-none-eabi/lib/thumb/v7e-m/fpv4-sp/hard/libg_nano.a(lib_a-mlock.o)
 .text          0x0000000000000000        0x0 /usr/bin/../lib/gcc/arm-none-eabi/7.2.1/../../../../arm-none-eabi/lib/thumb/v7e-m/fpv4-sp/hard/libg_nano.a(lib_a-reent.o)
 .data          0x0000000000000000        0x0 /usr/bin/../lib/gcc/arm-none-eabi/7.2.1/../../../../arm-none-eabi/lib/thumb/v7e-m/fpv4-sp/hard/libg_nano.a(lib_a-reent.o)
 .bss           0x0000000000000000        0x0 /usr/bin/../lib/gcc/arm-none-eabi/7.2.1/../../../../arm-none-eabi/lib/thumb/v7e-m/fpv4-sp/hard/libg_nano.a(lib_a-reent.o)
 .text.cleanup_glue
                0x0000000000000000       0x1a /usr/bin/../lib/gcc/arm-none-eabi/7.2.1/../../../../arm-none-eabi/lib/thumb/v7e-m/fpv4-sp/hard/libg_nano.a(lib_a-reent.o)
 .text._reclaim_reent
                0x0000000000000000       0xb8 /usr/bin/../lib/gcc/arm-none-eabi/7.2.1/../../../../arm-none-eabi/lib/thumb/v7e-m/fpv4-sp/hard/libg_nano.a(lib_a-reent.o)
 .text          0x0000000000000000        0x0 /usr/bin/../lib/gcc/arm-none-eabi/7.2.1/../../../../arm-none-eabi/lib/thumb/v7e-m/fpv4-sp/hard/libg_nano.a(lib_a-strchr.o)
 .data          0x0000000000000000        0x0 /usr/bin/../lib/gcc/arm-none-eabi/7.2.1/../../../../arm-none-eabi/lib/thumb/v7e-m/fpv4-sp/hard/libg_nano.a(lib_a-strchr.o)
 .bss           0x0000000000000000        0x0 /usr/bin/../lib/gcc/arm-none-eabi/7.2.1/../../../../arm-none-eabi/lib/thumb/v7e-m/fpv4-sp/hard/libg_nano.a(lib_a-strchr.o)
 .text          0x0000000000000000        0x0 /usr/bin/../lib/gcc/arm-none-eabi/7.2.1/thumb/v7e-m/fpv4-sp/hard/crtend.o
 .data          0x0000000000000000        0x0 /usr/bin/../lib/gcc/arm-none-eabi/7.2.1/thumb/v7e-m/fpv4-sp/hard/crtend.o
 .bss           0x0000000000000000        0x0 /usr/bin/../lib/gcc/arm-none-eabi/7.2.1/thumb/v7e-m/fpv4-sp/hard/crtend.o
 .text          0x0000000000000000        0x0 /usr/bin/../lib/gcc/arm-none-eabi/7.2.1/thumb/v7e-m/fpv4-sp/hard/crtn.o
 .data          0x0000000000000000        0x0 /usr/bin/../lib/gcc/arm-none-eabi/7.2.1/thumb/v7e-m/fpv4-sp/hard/crtn.o
 .bss           0x0000000000000000        0x0 /usr/bin/../lib/gcc/arm-none-eabi/7.2.1/thumb/v7e-m/fpv4-sp/hard/crtn.o
 .text          0x0000000000000000        0x0 /usr/bin/../lib/gcc/arm-none-eabi/7.2.1/../../../../arm-none-eabi/lib/thumb/v7e-m/fpv4-sp/hard/libnosys.a(sbrk.o)
 .data          0x0000000000000000        0x0 /usr/bin/../lib/gcc/arm-none-eabi/7.2.1/../../../../arm-none-eabi/lib/thumb/v7e-m/fpv4-sp/hard/libnosys.a(sbrk.o)
 .bss           0x0000000000000000        0x0 /usr/bin/../lib/gcc/arm-none-eabi/7.2.1/../../../../arm-none-eabi/lib/thumb/v7e-m/fpv4-sp/hard/libnosys.a(sbrk.o)
 .text          0x0000000000000000        0x0 /usr/bin/../lib/gcc/arm-none-eabi/7.2.1/../../../../arm-none-eabi/lib/thumb/v7e-m/fpv4-sp/hard/libnosys.a(_exit.o)
 .data          0x0000000000000000        0x0 /usr/bin/../lib/gcc/arm-none-eabi/7.2.1/../../../../arm-none-eabi/lib/thumb/v7e-m/fpv4-sp/hard/libnosys.a(_exit.o)
 .bss           0x0000000000000000        0x0 /usr/bin/../lib/gcc/arm-none-eabi/7.2.1/../../../../arm-none-eabi/lib/thumb/v7e-m/fpv4-sp/hard/libnosys.a(_exit.o)

Memory Configuration

Name             Origin             Length             Attributes
FLASH            0x0000000000026000 0x00000000000d1000 xr
RAM              0x00000000200032c8 0x000000000003ca38 xrw
*default*        0x0000000000000000 0xffffffffffffffff

Linker script and memory map


.text           0x0000000000026000    0x21a4c
 *(.isr_vector)
 .isr_vector    0x0000000000026000      0x200 CMakeFiles/light_switch_proxy_server_nrf52840_xxAA_s140_6.0.0.dir/home/mazzer/work/nordic/sdk/nRF5_SDK_15.0.0/modules/nrfx/mdk/gcc_startup_nrf52840.S.obj
                0x0000000000026000                __isr_vector
 *(.text*)
 .text          0x0000000000026200       0x40 /usr/bin/../lib/gcc/arm-none-eabi/7.2.1/thumb/v7e-m/fpv4-sp/hard/crtbegin.o
 .text          0x0000000000026240       0x74 /usr/bin/../lib/gcc/arm-none-eabi/7.2.1/../../../../arm-none-eabi/lib/thumb/v7e-m/fpv4-sp/hard/crt0.o
                0x0000000000026240                _mainCRTStartup
                0x0000000000026240                _start
 .text.sd_app_evt_wait
                0x00000000000262b4        0x4 CMakeFiles/light_switch_proxy_server_nrf52840_xxAA_s140_6.0.0.dir/src/main.c.obj
 .text.sd_ble_gap_ppcp_set
                0x00000000000262b8        0x4 CMakeFiles/light_switch_proxy_server_nrf52840_xxAA_s140_6.0.0.dir/src/main.c.obj
 .text.sd_ble_gap_device_name_set
                0x00000000000262bc        0x4 CMakeFiles/light_switch_proxy_server_nrf52840_xxAA_s140_6.0.0.dir/src/main.c.obj
 .text.on_sd_evt
                0x00000000000262c0        0x4 CMakeFiles/light_switch_proxy_server_nrf52840_xxAA_s140_6.0.0.dir/src/main.c.obj
 .text.provisioning_complete_cb
                0x00000000000262c4       0xe4 CMakeFiles/light_switch_proxy_server_nrf52840_xxAA_s140_6.0.0.dir/src/main.c.obj
 .text.on_off_server_get_cb
                0x00000000000263a8        0x8 CMakeFiles/light_switch_proxy_server_nrf52840_xxAA_s140_6.0.0.dir/src/main.c.obj
 .text.on_off_server_set_cb
                0x00000000000263b0       0x7c CMakeFiles/light_switch_proxy_server_nrf52840_xxAA_s140_6.0.0.dir/src/main.c.obj
 .text.node_reset
                0x000000000002642c       0x80 CMakeFiles/light_switch_proxy_server_nrf52840_xxAA_s140_6.0.0.dir/src/main.c.obj
 .text.button_event_handler
                0x00000000000264ac      0x104 CMakeFiles/light_switch_proxy_server_nrf52840_xxAA_s140_6.0.0.dir/src/main.c.obj
 .text.models_init_cb
                0x00000000000265b0       0xc0 CMakeFiles/light_switch_proxy_server_nrf52840_xxAA_s140_6.0.0.dir/src/main.c.obj
 .text.config_server_evt_cb
                0x0000000000026670       0x88 CMakeFiles/light_switch_proxy_server_nrf52840_xxAA_s140_6.0.0.dir/src/main.c.obj
 .text.app_rtt_input_handler
                0x00000000000266f8      0x10c CMakeFiles/light_switch_proxy_server_nrf52840_xxAA_s140_6.0.0.dir/src/main.c.obj
 .text.startup.main
                0x0000000000026804      0x448 CMakeFiles/light_switch_proxy_server_nrf52840_xxAA_s140_6.0.0.dir/src/main.c.obj
                0x0000000000026804                main
 .text.mesh_evt_handler
                0x0000000000026c4c       0x10 CMakeFiles/light_switch_proxy_server_nrf52840_xxAA_s140_6.0.0.dir/__/__/__/mesh/stack/src/mesh_stack.c.obj
 .text.mesh_stack_init
                0x0000000000026c5c       0x9c CMakeFiles/light_switch_proxy_server_nrf52840_xxAA_s140_6.0.0.dir/__/__/__/mesh/stack/src/mesh_stack.c.obj
                0x0000000000026c5c                mesh_stack_init
 .text.mesh_stack_start
                0x0000000000026cf8       0x20 CMakeFiles/light_switch_proxy_server_nrf52840_xxAA_s140_6.0.0.dir/__/__/__/mesh/stack/src/mesh_stack.c.obj
                0x0000000000026cf8                mesh_stack_start
 .text.mesh_stack_provisioning_data_store
                0x0000000000026d18       0x78 CMakeFiles/light_switch_proxy_server_nrf52840_xxAA_s140_6.0.0.dir/__/__/__/mesh/stack/src/mesh_stack.c.obj
                0x0000000000026d18                mesh_stack_provisioning_data_store
 .text.mesh_stack_config_clear
                0x0000000000026d90       0x14 CMakeFiles/light_switch_proxy_server_nrf52840_xxAA_s140_6.0.0.dir/__/__/__/mesh/stack/src/mesh_stack.c.obj
                0x0000000000026d90                mesh_stack_config_clear
 .text.mesh_stack_device_reset
                0x0000000000026da4       0x20 CMakeFiles/light_switch_proxy_server_nrf52840_xxAA_s140_6.0.0.dir/__/__/__/mesh/stack/src/mesh_stack.c.obj
                0x0000000000026da4                mesh_stack_device_reset
 .text.sd_state_evt_handler
                0x0000000000026dc4       0x98 CMakeFiles/light_switch_proxy_server_nrf52840_xxAA_s140_6.0.0.dir/__/__/common/src/mesh_provisionee.c.obj
 .text.prov_evt_handler
                0x0000000000026e5c       0x8c CMakeFiles/light_switch_proxy_server_nrf52840_xxAA_s140_6.0.0.dir/__/__/common/src/mesh_provisionee.c.obj
 .text.mesh_provisionee_prov_start
                0x0000000000026ee8       0xac CMakeFiles/light_switch_proxy_server_nrf52840_xxAA_s140_6.0.0.dir/__/__/common/src/mesh_provisionee.c.obj
                0x0000000000026ee8                mesh_provisionee_prov_start
 .text.TIMER2_IRQHandler
                0x0000000000026f94       0x3c CMakeFiles/light_switch_proxy_server_nrf52840_xxAA_s140_6.0.0.dir/__/__/common/src/rtt_input.c.obj
                0x0000000000026f94                TIMER2_IRQHandler
 .text.rtt_input_enable
                0x0000000000026fd0       0x5c CMakeFiles/light_switch_proxy_server_nrf52840_xxAA_s140_6.0.0.dir/__/__/common/src/rtt_input.c.obj
                0x0000000000026fd0                rtt_input_enable
 .text.hal_led_pin_get
                0x000000000002702c       0x18 CMakeFiles/light_switch_proxy_server_nrf52840_xxAA_s140_6.0.0.dir/__/__/common/src/simple_hal.c.obj
                0x000000000002702c                hal_led_pin_get
 .text.hal_led_pin_set
                0x0000000000027044       0x18 CMakeFiles/light_switch_proxy_server_nrf52840_xxAA_s140_6.0.0.dir/__/__/common/src/simple_hal.c.obj
                0x0000000000027044                hal_led_pin_set
 .text.hal_led_mask_set
                0x000000000002705c       0x14 CMakeFiles/light_switch_proxy_server_nrf52840_xxAA_s140_6.0.0.dir/__/__/common/src/simple_hal.c.obj
                0x000000000002705c                hal_led_mask_set
 .text.hal_led_blink_ms
                0x0000000000027070       0x50 CMakeFiles/light_switch_proxy_server_nrf52840_xxAA_s140_6.0.0.dir/__/__/common/src/simple_hal.c.obj
                0x0000000000027070                hal_led_blink_ms
 .text.hal_leds_init
                0x00000000000270c0       0x3c CMakeFiles/light_switch_proxy_server_nrf52840_xxAA_s140_6.0.0.dir/__/__/common/src/simple_hal.c.obj
                0x00000000000270c0                hal_leds_init
 .text.hal_buttons_init
                0x00000000000270fc       0x54 CMakeFiles/light_switch_proxy_server_nrf52840_xxAA_s140_6.0.0.dir/__/__/common/src/simple_hal.c.obj
                0x00000000000270fc                hal_buttons_init
 .text.GPIOTE_IRQHandler
                0x0000000000027150       0x70 CMakeFiles/light_switch_proxy_server_nrf52840_xxAA_s140_6.0.0.dir/__/__/common/src/simple_hal.c.obj
                0x0000000000027150                GPIOTE_IRQHandler
 .text.mesh_app_uuid_gen
                0x00000000000271c0       0x34 CMakeFiles/light_switch_proxy_server_nrf52840_xxAA_s140_6.0.0.dir/__/__/common/src/mesh_app_utils.c.obj
                0x00000000000271c0                mesh_app_uuid_gen
 .text.sd_ble_gap_adv_set_configure
                0x00000000000271f4        0x4 CMakeFiles/light_switch_proxy_server_nrf52840_xxAA_s140_6.0.0.dir/__/__/common/src/mesh_adv.c.obj
 .text.sd_ble_gap_adv_start
                0x00000000000271f8        0x4 CMakeFiles/light_switch_proxy_server_nrf52840_xxAA_s140_6.0.0.dir/__/__/common/src/mesh_adv.c.obj
 .text.sd_ble_gap_adv_stop
                0x00000000000271fc        0x4 CMakeFiles/light_switch_proxy_server_nrf52840_xxAA_s140_6.0.0.dir/__/__/common/src/mesh_adv.c.obj
 .text.mesh_adv_data_set
                0x0000000000027200       0xe4 CMakeFiles/light_switch_proxy_server_nrf52840_xxAA_s140_6.0.0.dir/__/__/common/src/mesh_adv.c.obj
                0x0000000000027200                mesh_adv_data_set
 .text.mesh_adv_params_set
                0x00000000000272e4       0x14 CMakeFiles/light_switch_proxy_server_nrf52840_xxAA_s140_6.0.0.dir/__/__/common/src/mesh_adv.c.obj
                0x00000000000272e4                mesh_adv_params_set
 .text.mesh_adv_start
                0x00000000000272f8       0x1c CMakeFiles/light_switch_proxy_server_nrf52840_xxAA_s140_6.0.0.dir/__/__/common/src/mesh_adv.c.obj
                0x00000000000272f8                mesh_adv_start
 .text.mesh_adv_stop
                0x0000000000027314       0x1c CMakeFiles/light_switch_proxy_server_nrf52840_xxAA_s140_6.0.0.dir/__/__/common/src/mesh_adv.c.obj
                0x0000000000027314                mesh_adv_stop
 .text.pb_gatt_fsm_action
                0x0000000000027330       0x10 CMakeFiles/light_switch_proxy_server_nrf52840_xxAA_s140_6.0.0.dir/__/__/__/mesh/prov/src/nrf_mesh_prov_bearer_gatt.c.obj
 .text.pb_gatt_fsm_guard
                0x0000000000027340       0x10 CMakeFiles/light_switch_proxy_server_nrf52840_xxAA_s140_6.0.0.dir/__/__/__/mesh/prov/src/nrf_mesh_prov_bearer_gatt.c.obj
 .text.a_link_open_notify
                0x0000000000027350        0xc CMakeFiles/light_switch_proxy_server_nrf52840_xxAA_s140_6.0.0.dir/__/__/__/mesh/prov/src/nrf_mesh_prov_bearer_gatt.c.obj
 .text.a_pdu_ack
                0x000000000002735c        0xc CMakeFiles/light_switch_proxy_server_nrf52840_xxAA_s140_6.0.0.dir/__/__/__/mesh/prov/src/nrf_mesh_prov_bearer_gatt.c.obj
 .text.link_evt_process
                0x0000000000027368        0xc CMakeFiles/light_switch_proxy_server_nrf52840_xxAA_s140_6.0.0.dir/__/__/__/mesh/prov/src/nrf_mesh_prov_bearer_gatt.c.obj
 .text.link_timer_cb
                0x0000000000027374       0x24 CMakeFiles/light_switch_proxy_server_nrf52840_xxAA_s140_6.0.0.dir/__/__/__/mesh/prov/src/nrf_mesh_prov_bearer_gatt.c.obj
 .text.tx_cb    0x0000000000027398       0x30 CMakeFiles/light_switch_proxy_server_nrf52840_xxAA_s140_6.0.0.dir/__/__/__/mesh/prov/src/nrf_mesh_prov_bearer_gatt.c.obj
 .text.mesh_gatt_event_handler
                0x00000000000273c8       0xb0 CMakeFiles/light_switch_proxy_server_nrf52840_xxAA_s140_6.0.0.dir/__/__/__/mesh/prov/src/nrf_mesh_prov_bearer_gatt.c.obj
 .text.a_listen_stop
                0x0000000000027478        0x4 CMakeFiles/light_switch_proxy_server_nrf52840_xxAA_s140_6.0.0.dir/__/__/__/mesh/prov/src/nrf_mesh_prov_bearer_gatt.c.obj
 .text.a_listen_start
                0x000000000002747c       0x3c CMakeFiles/light_switch_proxy_server_nrf52840_xxAA_s140_6.0.0.dir/__/__/__/mesh/prov/src/nrf_mesh_prov_bearer_gatt.c.obj
 .text.a_pdu_tx
                0x00000000000274b8       0x50 CMakeFiles/light_switch_proxy_server_nrf52840_xxAA_s140_6.0.0.dir/__/__/__/mesh/prov/src/nrf_mesh_prov_bearer_gatt.c.obj
 .text.a_link_close_notify
                0x0000000000027508       0x1c CMakeFiles/light_switch_proxy_server_nrf52840_xxAA_s140_6.0.0.dir/__/__/__/mesh/prov/src/nrf_mesh_prov_bearer_gatt.c.obj
 .text.a_link_close
                0x0000000000027524       0x18 CMakeFiles/light_switch_proxy_server_nrf52840_xxAA_s140_6.0.0.dir/__/__/__/mesh/prov/src/nrf_mesh_prov_bearer_gatt.c.obj
 .text.listen_start_cb
                0x000000000002753c       0x48 CMakeFiles/light_switch_proxy_server_nrf52840_xxAA_s140_6.0.0.dir/__/__/__/mesh/prov/src/nrf_mesh_prov_bearer_gatt.c.obj
 .text.a_link_timer_start
                0x0000000000027584       0x18 CMakeFiles/light_switch_proxy_server_nrf52840_xxAA_s140_6.0.0.dir/__/__/__/mesh/prov/src/nrf_mesh_prov_bearer_gatt.c.obj
 .text.a_pdu_rx
                0x000000000002759c       0x28 CMakeFiles/light_switch_proxy_server_nrf52840_xxAA_s140_6.0.0.dir/__/__/__/mesh/prov/src/nrf_mesh_prov_bearer_gatt.c.obj
 .text.link_close_cb
                0x00000000000275c4       0x40 CMakeFiles/light_switch_proxy_server_nrf52840_xxAA_s140_6.0.0.dir/__/__/__/mesh/prov/src/nrf_mesh_prov_bearer_gatt.c.obj
 .text.listen_stop_cb
                0x0000000000027604       0x40 CMakeFiles/light_switch_proxy_server_nrf52840_xxAA_s140_6.0.0.dir/__/__/__/mesh/prov/src/nrf_mesh_prov_bearer_gatt.c.obj
 .text.nrf_mesh_prov_bearer_gatt_init
                0x0000000000027644       0x68 CMakeFiles/light_switch_proxy_server_nrf52840_xxAA_s140_6.0.0.dir/__/__/__/mesh/prov/src/nrf_mesh_prov_bearer_gatt.c.obj
                0x0000000000027644                nrf_mesh_prov_bearer_gatt_init
 .text.nrf_mesh_prov_bearer_gatt_interface_get
                0x00000000000276ac       0x14 CMakeFiles/light_switch_proxy_server_nrf52840_xxAA_s140_6.0.0.dir/__/__/__/mesh/prov/src/nrf_mesh_prov_bearer_gatt.c.obj
                0x00000000000276ac                nrf_mesh_prov_bearer_gatt_interface_get
 .text.app_util_critical_region_enter
                0x00000000000276c0       0x4c CMakeFiles/light_switch_proxy_server_nrf52840_xxAA_s140_6.0.0.dir/home/mazzer/work/nordic/sdk/nRF5_SDK_15.0.0/components/libraries/util/app_util_platform.c.obj
                0x00000000000276c0                app_util_critical_region_enter
 .text.app_util_critical_region_exit
                0x000000000002770c       0x30 CMakeFiles/light_switch_proxy_server_nrf52840_xxAA_s140_6.0.0.dir/home/mazzer/work/nordic/sdk/nRF5_SDK_15.0.0/components/libraries/util/app_util_platform.c.obj
                0x000000000002770c                app_util_critical_region_exit
 .text.sd_ble_gap_addr_get
                0x000000000002773c        0x4 CMakeFiles/light_switch_proxy_server_nrf52840_xxAA_s140_6.0.0.dir/home/mazzer/work/nordic/sdk/nRF5_SDK_15.0.0/components/ble/common/ble_advdata.c.obj
 .text.sd_ble_gap_appearance_get
                0x0000000000027740        0x4 CMakeFiles/light_switch_proxy_server_nrf52840_xxAA_s140_6.0.0.dir/home/mazzer/work/nordic/sdk/nRF5_SDK_15.0.0/components/ble/common/ble_advdata.c.obj
 .text.sd_ble_gap_device_name_get
                0x0000000000027744        0x4 CMakeFiles/light_switch_proxy_server_nrf52840_xxAA_s140_6.0.0.dir/home/mazzer/work/nordic/sdk/nRF5_SDK_15.0.0/components/ble/common/ble_advdata.c.obj
 .text.sd_ble_uuid_encode
                0x0000000000027748        0x4 CMakeFiles/light_switch_proxy_server_nrf52840_xxAA_s140_6.0.0.dir/home/mazzer/work/nordic/sdk/nRF5_SDK_15.0.0/components/ble/common/ble_advdata.c.obj
 .text.uuid_list_sized_encode
                0x000000000002774c       0xb4 CMakeFiles/light_switch_proxy_server_nrf52840_xxAA_s140_6.0.0.dir/home/mazzer/work/nordic/sdk/nRF5_SDK_15.0.0/components/ble/common/ble_advdata.c.obj
 .text.ble_advdata_encode
                0x0000000000027800      0x3f8 CMakeFiles/light_switch_proxy_server_nrf52840_xxAA_s140_6.0.0.dir/home/mazzer/work/nordic/sdk/nRF5_SDK_15.0.0/components/ble/common/ble_advdata.c.obj
                0x0000000000027800                ble_advdata_encode
 .text.nrf_section_iter_init
                0x0000000000027bf8       0x14 CMakeFiles/light_switch_proxy_server_nrf52840_xxAA_s140_6.0.0.dir/home/mazzer/work/nordic/sdk/nRF5_SDK_15.0.0/components/libraries/experimental_section_vars/nrf_section_iter.c.obj
                0x0000000000027bf8                nrf_section_iter_init
 .text.nrf_section_iter_next
                0x0000000000027c0c       0x18 CMakeFiles/light_switch_proxy_server_nrf52840_xxAA_s140_6.0.0.dir/home/mazzer/work/nordic/sdk/nRF5_SDK_15.0.0/components/libraries/experimental_section_vars/nrf_section_iter.c.obj
                0x0000000000027c0c                nrf_section_iter_next
 .text.sd_softdevice_enable
                0x0000000000027c24        0x4 CMakeFiles/light_switch_proxy_server_nrf52840_xxAA_s140_6.0.0.dir/home/mazzer/work/nordic/sdk/nRF5_SDK_15.0.0/components/softdevice/common/nrf_sdh.c.obj
 .text.sd_softdevice_disable
                0x0000000000027c28        0x4 CMakeFiles/light_switch_proxy_server_nrf52840_xxAA_s140_6.0.0.dir/home/mazzer/work/nordic/sdk/nRF5_SDK_15.0.0/components/softdevice/common/nrf_sdh.c.obj
 .text.nrf_sdh_enable_request
                0x0000000000027c2c      0x114 CMakeFiles/light_switch_proxy_server_nrf52840_xxAA_s140_6.0.0.dir/home/mazzer/work/nordic/sdk/nRF5_SDK_15.0.0/components/softdevice/common/nrf_sdh.c.obj
                0x0000000000027c2c                nrf_sdh_enable_request
 .text.nrf_sdh_disable_request
                0x0000000000027d40       0xe0 CMakeFiles/light_switch_proxy_server_nrf52840_xxAA_s140_6.0.0.dir/home/mazzer/work/nordic/sdk/nRF5_SDK_15.0.0/components/softdevice/common/nrf_sdh.c.obj
                0x0000000000027d40                nrf_sdh_disable_request
 .text.SWI2_EGU2_IRQHandler
                0x0000000000027e20       0x2c CMakeFiles/light_switch_proxy_server_nrf52840_xxAA_s140_6.0.0.dir/home/mazzer/work/nordic/sdk/nRF5_SDK_15.0.0/components/softdevice/common/nrf_sdh.c.obj
                0x0000000000027e20                SWI2_EGU2_IRQHandler
 .text.sd_evt_get
                0x0000000000027e4c        0x4 CMakeFiles/light_switch_proxy_server_nrf52840_xxAA_s140_6.0.0.dir/home/mazzer/work/nordic/sdk/nRF5_SDK_15.0.0/components/softdevice/common/nrf_sdh_soc.c.obj
 .text.nrf_sdh_soc_evts_poll
                0x0000000000027e50       0x4c CMakeFiles/light_switch_proxy_server_nrf52840_xxAA_s140_6.0.0.dir/home/mazzer/work/nordic/sdk/nRF5_SDK_15.0.0/components/softdevice/common/nrf_sdh_soc.c.obj
 .text.sd_ble_enable
                0x0000000000027e9c        0x4 CMakeFiles/light_switch_proxy_server_nrf52840_xxAA_s140_6.0.0.dir/home/mazzer/work/nordic/sdk/nRF5_SDK_15.0.0/components/softdevice/common/nrf_sdh_ble.c.obj
 .text.sd_ble_cfg_set
                0x0000000000027ea0        0x4 CMakeFiles/light_switch_proxy_server_nrf52840_xxAA_s140_6.0.0.dir/home/mazzer/work/nordic/sdk/nRF5_SDK_15.0.0/components/softdevice/common/nrf_sdh_ble.c.obj
 .text.sd_ble_evt_get
                0x0000000000027ea4        0x4 CMakeFiles/light_switch_proxy_server_nrf52840_xxAA_s140_6.0.0.dir/home/mazzer/work/nordic/sdk/nRF5_SDK_15.0.0/components/softdevice/common/nrf_sdh_ble.c.obj
 .text.nrf_sdh_ble_evts_poll
                0x0000000000027ea8       0x58 CMakeFiles/light_switch_proxy_server_nrf52840_xxAA_s140_6.0.0.dir/home/mazzer/work/nordic/sdk/nRF5_SDK_15.0.0/components/softdevice/common/nrf_sdh_ble.c.obj
 .text.nrf_sdh_ble_default_cfg_set
                0x0000000000027f00       0xd4 CMakeFiles/light_switch_proxy_server_nrf52840_xxAA_s140_6.0.0.dir/home/mazzer/work/nordic/sdk/nRF5_SDK_15.0.0/components/softdevice/common/nrf_sdh_ble.c.obj
                0x0000000000027f00                nrf_sdh_ble_default_cfg_set
 .text.nrf_sdh_ble_enable
                0x0000000000027fd4       0x14 CMakeFiles/light_switch_proxy_server_nrf52840_xxAA_s140_6.0.0.dir/home/mazzer/work/nordic/sdk/nRF5_SDK_15.0.0/components/softdevice/common/nrf_sdh_ble.c.obj
                0x0000000000027fd4                nrf_sdh_ble_enable
 .text._weak_handler
                0x0000000000027fe8        0x4 CMakeFiles/light_switch_proxy_server_nrf52840_xxAA_s140_6.0.0.dir/__/__/nrf_mesh_weak.c.obj
                0x0000000000027fe8                nrf_mesh_dfu_init
                0x0000000000027fe8                nrf_mesh_dfu_jump_to_bootloader
                0x0000000000027fe8                nrf_mesh_dfu_rx
                0x0000000000027fe8                prov_provisioner_provision
                0x0000000000027fe8                nrf_mesh_dfu_bank_info_get
                0x0000000000027fe8                prov_provisioner_oob_pubkey
                0x0000000000027fe8                nrf_mesh_dfu_request
                0x0000000000027fe8                nrf_mesh_dfu_bank_flash
                0x0000000000027fe8                _weak_handler
                0x0000000000027fe8                nrf_mesh_dfu_relay
                0x0000000000027fe8                nrf_mesh_dfu_abort
                0x0000000000027fe8                mesh_flash_op_execute
                0x0000000000027fe8                prov_provisionee_init
                0x0000000000027fe8                nrf_mesh_dfu_state_get
                0x0000000000027fe8                prov_provisioner_shared_secret
                0x0000000000027fe8                prov_provisioner_auth_data
                0x0000000000027fe8                prov_provisioner_oob_use
 .text.app_error_fault_handler
                0x0000000000027fec      0x238 CMakeFiles/light_switch_proxy_server_nrf52840_xxAA_s140_6.0.0.dir/__/__/common/src/app_error_weak.c.obj
                0x0000000000027fec                app_error_fault_handler
 .text.mesh_assertion_handler
                0x0000000000028224       0x24 CMakeFiles/light_switch_proxy_server_nrf52840_xxAA_s140_6.0.0.dir/__/__/common/src/assertion_handler_weak.c.obj
                0x0000000000028224                mesh_assertion_handler
 .text.nrf_mesh_configure_device_uuid_set
                0x0000000000028248       0x10 CMakeFiles/light_switch_proxy_server_nrf52840_xxAA_s140_6.0.0.dir/__/__/__/mesh/core/src/nrf_mesh_configure.c.obj
                0x0000000000028248                nrf_mesh_configure_device_uuid_set
 .text.nrf_mesh_configure_device_uuid_reset
                0x0000000000028258       0x2c CMakeFiles/light_switch_proxy_server_nrf52840_xxAA_s140_6.0.0.dir/__/__/__/mesh/core/src/nrf_mesh_configure.c.obj
                0x0000000000028258                nrf_mesh_configure_device_uuid_reset
 .text.nrf_mesh_configure_device_uuid_get
                0x0000000000028284        0x8 CMakeFiles/light_switch_proxy_server_nrf52840_xxAA_s140_6.0.0.dir/__/__/__/mesh/core/src/nrf_mesh_configure.c.obj
                0x0000000000028284                nrf_mesh_configure_device_uuid_get
 .text.sd_ecb_block_encrypt
                0x000000000002828c        0x4 CMakeFiles/light_switch_proxy_server_nrf52840_xxAA_s140_6.0.0.dir/__/__/__/mesh/core/src/aes.c.obj
 .text.aes_encrypt
                0x0000000000028290       0x34 CMakeFiles/light_switch_proxy_server_nrf52840_xxAA_s140_6.0.0.dir/__/__/__/mesh/core/src/aes.c.obj
                0x0000000000028290                aes_encrypt
 .text.msg_cache_init
                0x00000000000282c4       0x24 CMakeFiles/light_switch_proxy_server_nrf52840_xxAA_s140_6.0.0.dir/__/__/__/mesh/core/src/msg_cache.c.obj
                0x00000000000282c4                msg_cache_init
 .text.msg_cache_entry_exists
                0x00000000000282e8       0x40 CMakeFiles/light_switch_proxy_server_nrf52840_xxAA_s140_6.0.0.dir/__/__/__/mesh/core/src/msg_cache.c.obj
                0x00000000000282e8                msg_cache_entry_exists
 .text.msg_cache_entry_add
                0x0000000000028328       0x2c CMakeFiles/light_switch_proxy_server_nrf52840_xxAA_s140_6.0.0.dir/__/__/__/mesh/core/src/msg_cache.c.obj
                0x0000000000028328                msg_cache_entry_add
 .text.tx_complete
                0x0000000000028354       0x30 CMakeFiles/light_switch_proxy_server_nrf52840_xxAA_s140_6.0.0.dir/__/__/__/mesh/core/src/transport.c.obj
 .text.upper_trs_packet_encrypt
                0x0000000000028384       0xa8 CMakeFiles/light_switch_proxy_server_nrf52840_xxAA_s140_6.0.0.dir/__/__/__/mesh/core/src/transport.c.obj
 .text.trs_sar_packet_out
                0x000000000002842c      0x19c CMakeFiles/light_switch_proxy_server_nrf52840_xxAA_s140_6.0.0.dir/__/__/__/mesh/core/src/transport.c.obj
 .text.upper_transport_access_packet_in
                0x00000000000285c8      0x33c CMakeFiles/light_switch_proxy_server_nrf52840_xxAA_s140_6.0.0.dir/__/__/__/mesh/core/src/transport.c.obj
 .text.sar_ctx_cancel
                0x0000000000028904      0x148 CMakeFiles/light_switch_proxy_server_nrf52840_xxAA_s140_6.0.0.dir/__/__/__/mesh/core/src/transport.c.obj
 .text.retry_timeout
                0x0000000000028a4c       0x98 CMakeFiles/light_switch_proxy_server_nrf52840_xxAA_s140_6.0.0.dir/__/__/__/mesh/core/src/transport.c.obj
 .text.upper_transport_packet_in
                0x0000000000028ae4      0x2a4 CMakeFiles/light_switch_proxy_server_nrf52840_xxAA_s140_6.0.0.dir/__/__/__/mesh/core/src/transport.c.obj
 .text.upper_transport_tx.part.27
                0x0000000000028d88      0x370 CMakeFiles/light_switch_proxy_server_nrf52840_xxAA_s140_6.0.0.dir/__/__/__/mesh/core/src/transport.c.obj
 .text.sar_ack_send.part.31
                0x00000000000290f8       0xd4 CMakeFiles/light_switch_proxy_server_nrf52840_xxAA_s140_6.0.0.dir/__/__/__/mesh/core/src/transport.c.obj
 .text.transport_sar_process
                0x00000000000291cc      0x274 CMakeFiles/light_switch_proxy_server_nrf52840_xxAA_s140_6.0.0.dir/__/__/__/mesh/core/src/transport.c.obj
 .text.abort_timeout
                0x0000000000029440      0x138 CMakeFiles/light_switch_proxy_server_nrf52840_xxAA_s140_6.0.0.dir/__/__/__/mesh/core/src/transport.c.obj
 .text.ack_timeout
                0x0000000000029578       0xf8 CMakeFiles/light_switch_proxy_server_nrf52840_xxAA_s140_6.0.0.dir/__/__/__/mesh/core/src/transport.c.obj
 .text.transport_init
                0x0000000000029670       0xac CMakeFiles/light_switch_proxy_server_nrf52840_xxAA_s140_6.0.0.dir/__/__/__/mesh/core/src/transport.c.obj
                0x0000000000029670                transport_init
 .text.transport_packet_in
                0x000000000002971c      0x778 CMakeFiles/light_switch_proxy_server_nrf52840_xxAA_s140_6.0.0.dir/__/__/__/mesh/core/src/transport.c.obj
                0x000000000002971c                transport_packet_in
 .text.transport_tx
                0x0000000000029e94       0xec CMakeFiles/light_switch_proxy_server_nrf52840_xxAA_s140_6.0.0.dir/__/__/__/mesh/core/src/transport.c.obj
                0x0000000000029e94                transport_tx
 .text.transport_control_tx
                0x0000000000029f80       0xc4 CMakeFiles/light_switch_proxy_server_nrf52840_xxAA_s140_6.0.0.dir/__/__/__/mesh/core/src/transport.c.obj
                0x0000000000029f80                transport_control_tx
 .text.transport_opt_set
                0x000000000002a044       0xdc CMakeFiles/light_switch_proxy_server_nrf52840_xxAA_s140_6.0.0.dir/__/__/__/mesh/core/src/transport.c.obj
                0x000000000002a044                transport_opt_set
 .text.transport_opt_get
                0x000000000002a120       0x84 CMakeFiles/light_switch_proxy_server_nrf52840_xxAA_s140_6.0.0.dir/__/__/__/mesh/core/src/transport.c.obj
                0x000000000002a120                transport_opt_get
 .text.transport_control_packet_consumer_add
                0x000000000002a1a4       0x68 CMakeFiles/light_switch_proxy_server_nrf52840_xxAA_s140_6.0.0.dir/__/__/__/mesh/core/src/transport.c.obj
                0x000000000002a1a4                transport_control_packet_consumer_add
 .text.event_handle
                0x000000000002a20c       0x28 CMakeFiles/light_switch_proxy_server_nrf52840_xxAA_s140_6.0.0.dir/__/__/__/mesh/core/src/event.c.obj
                0x000000000002a20c                event_handle
 .text.event_handler_add
                0x000000000002a234       0x28 CMakeFiles/light_switch_proxy_server_nrf52840_xxAA_s140_6.0.0.dir/__/__/__/mesh/core/src/event.c.obj
                0x000000000002a234                event_handler_add
 .text.event_handler_remove
                0x000000000002a25c       0x28 CMakeFiles/light_switch_proxy_server_nrf52840_xxAA_s140_6.0.0.dir/__/__/__/mesh/core/src/event.c.obj
                0x000000000002a25c                event_handler_remove
 .text.packet_buffer_init
                0x000000000002a284       0xb4 CMakeFiles/light_switch_proxy_server_nrf52840_xxAA_s140_6.0.0.dir/__/__/__/mesh/core/src/packet_buffer.c.obj
                0x000000000002a284                packet_buffer_init
 .text.packet_buffer_flush
                0x000000000002a338       0x6c CMakeFiles/light_switch_proxy_server_nrf52840_xxAA_s140_6.0.0.dir/__/__/__/mesh/core/src/packet_buffer.c.obj
                0x000000000002a338                packet_buffer_flush
 .text.packet_buffer_reserve
                0x000000000002a3a4       0xa4 CMakeFiles/light_switch_proxy_server_nrf52840_xxAA_s140_6.0.0.dir/__/__/__/mesh/core/src/packet_buffer.c.obj
                0x000000000002a3a4                packet_buffer_reserve
 .text.packet_buffer_commit
                0x000000000002a448       0x7c CMakeFiles/light_switch_proxy_server_nrf52840_xxAA_s140_6.0.0.dir/__/__/__/mesh/core/src/packet_buffer.c.obj
                0x000000000002a448                packet_buffer_commit
 .text.packet_buffer_pop
                0x000000000002a4c4       0x44 CMakeFiles/light_switch_proxy_server_nrf52840_xxAA_s140_6.0.0.dir/__/__/__/mesh/core/src/packet_buffer.c.obj
                0x000000000002a4c4                packet_buffer_pop
 .text.packet_buffer_can_pop
                0x000000000002a508       0x24 CMakeFiles/light_switch_proxy_server_nrf52840_xxAA_s140_6.0.0.dir/__/__/__/mesh/core/src/packet_buffer.c.obj
                0x000000000002a508                packet_buffer_can_pop
 .text.packet_buffer_packets_ready_to_pop
                0x000000000002a52c       0x5c CMakeFiles/light_switch_proxy_server_nrf52840_xxAA_s140_6.0.0.dir/__/__/__/mesh/core/src/packet_buffer.c.obj
                0x000000000002a52c                packet_buffer_packets_ready_to_pop
 .text.packet_buffer_free
                0x000000000002a588       0x8c CMakeFiles/light_switch_proxy_server_nrf52840_xxAA_s140_6.0.0.dir/__/__/__/mesh/core/src/packet_buffer.c.obj
                0x000000000002a588                packet_buffer_free
 .text.erase_source
                0x000000000002a614       0x34 CMakeFiles/light_switch_proxy_server_nrf52840_xxAA_s140_6.0.0.dir/__/__/__/mesh/core/src/flash_manager_defrag.c.obj
 .text.erase_recovery_area
                0x000000000002a648       0x34 CMakeFiles/light_switch_proxy_server_nrf52840_xxAA_s140_6.0.0.dir/__/__/__/mesh/core/src/flash_manager_defrag.c.obj
 .text.write_back
                0x000000000002a67c       0x44 CMakeFiles/light_switch_proxy_server_nrf52840_xxAA_s140_6.0.0.dir/__/__/__/mesh/core/src/flash_manager_defrag.c.obj
 .text.write_defrag_start_pointer
                0x000000000002a6c0       0x38 CMakeFiles/light_switch_proxy_server_nrf52840_xxAA_s140_6.0.0.dir/__/__/__/mesh/core/src/flash_manager_defrag.c.obj
 .text.copy_metadata
                0x000000000002a6f8       0x58 CMakeFiles/light_switch_proxy_server_nrf52840_xxAA_s140_6.0.0.dir/__/__/__/mesh/core/src/flash_manager_defrag.c.obj
 .text.seal_storage_page
                0x000000000002a750       0x70 CMakeFiles/light_switch_proxy_server_nrf52840_xxAA_s140_6.0.0.dir/__/__/__/mesh/core/src/flash_manager_defrag.c.obj
 .text.post_process
                0x000000000002a7c0       0x64 CMakeFiles/light_switch_proxy_server_nrf52840_xxAA_s140_6.0.0.dir/__/__/__/mesh/core/src/flash_manager_defrag.c.obj
 .text.check_for_invalid_entries
                0x000000000002a824       0x40 CMakeFiles/light_switch_proxy_server_nrf52840_xxAA_s140_6.0.0.dir/__/__/__/mesh/core/src/flash_manager_defrag.c.obj
 .text.execute_procedure_step
                0x000000000002a864       0x98 CMakeFiles/light_switch_proxy_server_nrf52840_xxAA_s140_6.0.0.dir/__/__/__/mesh/core/src/flash_manager_defrag.c.obj
 .text.on_flash_op_end
                0x000000000002a8fc       0x48 CMakeFiles/light_switch_proxy_server_nrf52840_xxAA_s140_6.0.0.dir/__/__/__/mesh/core/src/flash_manager_defrag.c.obj
 .text.invalidate_duplicate_entries
                0x000000000002a944      0x150 CMakeFiles/light_switch_proxy_server_nrf52840_xxAA_s140_6.0.0.dir/__/__/__/mesh/core/src/flash_manager_defrag.c.obj
 .text.backup_entries
                0x000000000002aa94      0x1c8 CMakeFiles/light_switch_proxy_server_nrf52840_xxAA_s140_6.0.0.dir/__/__/__/mesh/core/src/flash_manager_defrag.c.obj
 .text.flash_manager_defrag_init
                0x000000000002ac5c       0x6c CMakeFiles/light_switch_proxy_server_nrf52840_xxAA_s140_6.0.0.dir/__/__/__/mesh/core/src/flash_manager_defrag.c.obj
                0x000000000002ac5c                flash_manager_defrag_init
 .text.flash_manager_defrag_is_running
                0x000000000002acc8       0x10 CMakeFiles/light_switch_proxy_server_nrf52840_xxAA_s140_6.0.0.dir/__/__/__/mesh/core/src/flash_manager_defrag.c.obj
                0x000000000002acc8                flash_manager_defrag_is_running
 .text.flash_manager_defrag
                0x000000000002acd8       0x48 CMakeFiles/light_switch_proxy_server_nrf52840_xxAA_s140_6.0.0.dir/__/__/__/mesh/core/src/flash_manager_defrag.c.obj
                0x000000000002acd8                flash_manager_defrag
 .text.flash_manager_defrag_recovery_page_get
                0x000000000002ad20        0xc CMakeFiles/light_switch_proxy_server_nrf52840_xxAA_s140_6.0.0.dir/__/__/__/mesh/core/src/flash_manager_defrag.c.obj
                0x000000000002ad20                flash_manager_defrag_recovery_page_get
 .text.fifo_init
                0x000000000002ad2c       0x38 CMakeFiles/light_switch_proxy_server_nrf52840_xxAA_s140_6.0.0.dir/__/__/__/mesh/core/src/fifo.c.obj
                0x000000000002ad2c                fifo_init
 .text.fifo_push
                0x000000000002ad64       0x60 CMakeFiles/light_switch_proxy_server_nrf52840_xxAA_s140_6.0.0.dir/__/__/__/mesh/core/src/fifo.c.obj
                0x000000000002ad64                fifo_push
 .text.fifo_pop
                0x000000000002adc4       0x5c CMakeFiles/light_switch_proxy_server_nrf52840_xxAA_s140_6.0.0.dir/__/__/__/mesh/core/src/fifo.c.obj
                0x000000000002adc4                fifo_pop
 .text.nrf_flash_erase
                0x000000000002ae20       0x5c CMakeFiles/light_switch_proxy_server_nrf52840_xxAA_s140_6.0.0.dir/__/__/__/mesh/core/src/nrf_flash.c.obj
                0x000000000002ae20                nrf_flash_erase
 .text.nrf_flash_write
                0x000000000002ae7c       0x70 CMakeFiles/light_switch_proxy_server_nrf52840_xxAA_s140_6.0.0.dir/__/__/__/mesh/core/src/nrf_flash.c.obj
                0x000000000002ae7c                nrf_flash_write
 .text.packet_mgr_init
                0x000000000002aeec       0x48 CMakeFiles/light_switch_proxy_server_nrf52840_xxAA_s140_6.0.0.dir/__/__/__/mesh/core/src/packet_mgr.c.obj
                0x000000000002aeec                packet_mgr_init
 .text.flash_store_iv_index
                0x000000000002af34       0x38 CMakeFiles/light_switch_proxy_server_nrf52840_xxAA_s140_6.0.0.dir/__/__/__/mesh/core/src/net_state.c.obj
 .text.flash_mem_available
                0x000000000002af6c       0x1c CMakeFiles/light_switch_proxy_server_nrf52840_xxAA_s140_6.0.0.dir/__/__/__/mesh/core/src/net_state.c.obj
 .text.init_flash_storage
                0x000000000002af88       0x44 CMakeFiles/light_switch_proxy_server_nrf52840_xxAA_s140_6.0.0.dir/__/__/__/mesh/core/src/net_state.c.obj
 .text.flash_write_complete
                0x000000000002afcc       0x6c CMakeFiles/light_switch_proxy_server_nrf52840_xxAA_s140_6.0.0.dir/__/__/__/mesh/core/src/net_state.c.obj
 .text.seqnum_block_allocate
                0x000000000002b038       0x4c CMakeFiles/light_switch_proxy_server_nrf52840_xxAA_s140_6.0.0.dir/__/__/__/mesh/core/src/net_state.c.obj
 .text.net_state_reset
                0x000000000002b084       0x78 CMakeFiles/light_switch_proxy_server_nrf52840_xxAA_s140_6.0.0.dir/__/__/__/mesh/core/src/net_state.c.obj
                0x000000000002b084                net_state_reset
 .text.iv_update_trigger_if_pending
                0x000000000002b0fc      0x174 CMakeFiles/light_switch_proxy_server_nrf52840_xxAA_s140_6.0.0.dir/__/__/__/mesh/core/src/net_state.c.obj
 .text.iv_update_timer_handler
                0x000000000002b270       0x70 CMakeFiles/light_switch_proxy_server_nrf52840_xxAA_s140_6.0.0.dir/__/__/__/mesh/core/src/net_state.c.obj
 .text.mesh_evt_handler
                0x000000000002b2e0      0x104 CMakeFiles/light_switch_proxy_server_nrf52840_xxAA_s140_6.0.0.dir/__/__/__/mesh/core/src/net_state.c.obj
 .text.net_state_recover_from_flash
                0x000000000002b3e4      0x118 CMakeFiles/light_switch_proxy_server_nrf52840_xxAA_s140_6.0.0.dir/__/__/__/mesh/core/src/net_state.c.obj
                0x000000000002b3e4                net_state_recover_from_flash
 .text.net_state_flash_area_get
                0x000000000002b4fc        0xc CMakeFiles/light_switch_proxy_server_nrf52840_xxAA_s140_6.0.0.dir/__/__/__/mesh/core/src/net_state.c.obj
                0x000000000002b4fc                net_state_flash_area_get
 .text.net_state_init
                0x000000000002b508       0x94 CMakeFiles/light_switch_proxy_server_nrf52840_xxAA_s140_6.0.0.dir/__/__/__/mesh/core/src/net_state.c.obj
                0x000000000002b508                net_state_init
 .text.net_state_seqnum_alloc
                0x000000000002b59c       0xd0 CMakeFiles/light_switch_proxy_server_nrf52840_xxAA_s140_6.0.0.dir/__/__/__/mesh/core/src/net_state.c.obj
                0x000000000002b59c                net_state_seqnum_alloc
 .text.net_state_iv_index_lock
                0x000000000002b66c      0x188 CMakeFiles/light_switch_proxy_server_nrf52840_xxAA_s140_6.0.0.dir/__/__/__/mesh/core/src/net_state.c.obj
                0x000000000002b66c                net_state_iv_index_lock
 .text.net_state_key_refresh_phase_changed
                0x000000000002b7f4       0x20 CMakeFiles/light_switch_proxy_server_nrf52840_xxAA_s140_6.0.0.dir/__/__/__/mesh/core/src/net_state.c.obj
                0x000000000002b7f4                net_state_key_refresh_phase_changed
 .text.net_state_beacon_iv_index_get
                0x000000000002b814        0xc CMakeFiles/light_switch_proxy_server_nrf52840_xxAA_s140_6.0.0.dir/__/__/__/mesh/core/src/net_state.c.obj
                0x000000000002b814                net_state_beacon_iv_index_get
 .text.net_state_tx_iv_index_get
                0x000000000002b820       0x14 CMakeFiles/light_switch_proxy_server_nrf52840_xxAA_s140_6.0.0.dir/__/__/__/mesh/core/src/net_state.c.obj
                0x000000000002b820                net_state_tx_iv_index_get
 .text.net_state_rx_iv_index_get
                0x000000000002b834       0x18 CMakeFiles/light_switch_proxy_server_nrf52840_xxAA_s140_6.0.0.dir/__/__/__/mesh/core/src/net_state.c.obj
                0x000000000002b834                net_state_rx_iv_index_get
 .text.net_state_iv_update_get
                0x000000000002b84c        0xc CMakeFiles/light_switch_proxy_server_nrf52840_xxAA_s140_6.0.0.dir/__/__/__/mesh/core/src/net_state.c.obj
                0x000000000002b84c                net_state_iv_update_get
 .text.net_state_iv_index_set
                0x000000000002b858       0x88 CMakeFiles/light_switch_proxy_server_nrf52840_xxAA_s140_6.0.0.dir/__/__/__/mesh/core/src/net_state.c.obj
                0x000000000002b858                net_state_iv_index_set
 .text.send_end_events
                0x000000000002b8e0       0x98 CMakeFiles/light_switch_proxy_server_nrf52840_xxAA_s140_6.0.0.dir/__/__/__/mesh/core/src/mesh_flash.c.obj
 .text.flash_op_start
                0x000000000002b978      0x214 CMakeFiles/light_switch_proxy_server_nrf52840_xxAA_s140_6.0.0.dir/__/__/__/mesh/core/src/mesh_flash.c.obj
 .text.mesh_flash_init
                0x000000000002bb8c       0x78 CMakeFiles/light_switch_proxy_server_nrf52840_xxAA_s140_6.0.0.dir/__/__/__/mesh/core/src/mesh_flash.c.obj
                0x000000000002bb8c                mesh_flash_init
 .text.mesh_flash_user_callback_set
                0x000000000002bc04       0x20 CMakeFiles/light_switch_proxy_server_nrf52840_xxAA_s140_6.0.0.dir/__/__/__/mesh/core/src/mesh_flash.c.obj
                0x000000000002bc04                mesh_flash_user_callback_set
 .text.mesh_flash_op_push
                0x000000000002bc24      0x198 CMakeFiles/light_switch_proxy_server_nrf52840_xxAA_s140_6.0.0.dir/__/__/__/mesh/core/src/mesh_flash.c.obj
                0x000000000002bc24                mesh_flash_op_push
 .text.nrf_mesh_address_type_get
                0x000000000002bdbc       0x10 CMakeFiles/light_switch_proxy_server_nrf52840_xxAA_s140_6.0.0.dir/__/__/__/mesh/core/src/nrf_mesh_utils.c.obj
                0x000000000002bdbc                nrf_mesh_address_type_get
 .text.sd_softdevice_is_enabled
                0x000000000002bdcc        0x4 CMakeFiles/light_switch_proxy_server_nrf52840_xxAA_s140_6.0.0.dir/__/__/__/mesh/core/src/nrf_mesh.c.obj
 .text.nrf_mesh_listen
                0x000000000002bdd0      0x184 CMakeFiles/light_switch_proxy_server_nrf52840_xxAA_s140_6.0.0.dir/__/__/__/mesh/core/src/nrf_mesh.c.obj
 .text.flash_stable_cb
                0x000000000002bf54       0x20 CMakeFiles/light_switch_proxy_server_nrf52840_xxAA_s140_6.0.0.dir/__/__/__/mesh/core/src/nrf_mesh.c.obj
 .text.scanner_packet_process_cb
                0x000000000002bf74       0x88 CMakeFiles/light_switch_proxy_server_nrf52840_xxAA_s140_6.0.0.dir/__/__/__/mesh/core/src/nrf_mesh.c.obj
 .text.nrf_mesh_init
                0x000000000002bffc       0xe4 CMakeFiles/light_switch_proxy_server_nrf52840_xxAA_s140_6.0.0.dir/__/__/__/mesh/core/src/nrf_mesh.c.obj
                0x000000000002bffc                nrf_mesh_init
 .text.nrf_mesh_enable
                0x000000000002c0e0       0x48 CMakeFiles/light_switch_proxy_server_nrf52840_xxAA_s140_6.0.0.dir/__/__/__/mesh/core/src/nrf_mesh.c.obj
                0x000000000002c0e0                nrf_mesh_enable
 .text.nrf_mesh_disable
                0x000000000002c128       0x30 CMakeFiles/light_switch_proxy_server_nrf52840_xxAA_s140_6.0.0.dir/__/__/__/mesh/core/src/nrf_mesh.c.obj
                0x000000000002c128                nrf_mesh_disable
 .text.nrf_mesh_packet_send
                0x000000000002c158       0x94 CMakeFiles/light_switch_proxy_server_nrf52840_xxAA_s140_6.0.0.dir/__/__/__/mesh/core/src/nrf_mesh.c.obj
                0x000000000002c158                nrf_mesh_packet_send
 .text.nrf_mesh_evt_handler_add
                0x000000000002c1ec        0x4 CMakeFiles/light_switch_proxy_server_nrf52840_xxAA_s140_6.0.0.dir/__/__/__/mesh/core/src/nrf_mesh.c.obj
                0x000000000002c1ec                nrf_mesh_evt_handler_add
 .text.nrf_mesh_on_sd_evt
                0x000000000002c1f0        0xc CMakeFiles/light_switch_proxy_server_nrf52840_xxAA_s140_6.0.0.dir/__/__/__/mesh/core/src/nrf_mesh.c.obj
                0x000000000002c1f0                nrf_mesh_on_sd_evt
 .text.nrf_mesh_subnet_added
                0x000000000002c1fc        0x4 CMakeFiles/light_switch_proxy_server_nrf52840_xxAA_s140_6.0.0.dir/__/__/__/mesh/core/src/nrf_mesh.c.obj
                0x000000000002c1fc                nrf_mesh_subnet_added
 .text.queue_init
                0x000000000002c200       0x1c CMakeFiles/light_switch_proxy_server_nrf52840_xxAA_s140_6.0.0.dir/__/__/__/mesh/core/src/queue.c.obj
                0x000000000002c200                queue_init
 .text.queue_push
                0x000000000002c21c       0x3c CMakeFiles/light_switch_proxy_server_nrf52840_xxAA_s140_6.0.0.dir/__/__/__/mesh/core/src/queue.c.obj
                0x000000000002c21c                queue_push
 .text.queue_pop
                0x000000000002c258       0x2c CMakeFiles/light_switch_proxy_server_nrf52840_xxAA_s140_6.0.0.dir/__/__/__/mesh/core/src/queue.c.obj
                0x000000000002c258                queue_pop
 .text.queue_peek
                0x000000000002c284       0x14 CMakeFiles/light_switch_proxy_server_nrf52840_xxAA_s140_6.0.0.dir/__/__/__/mesh/core/src/queue.c.obj
                0x000000000002c284                queue_peek
 .text.sd_power_reset_reason_clr
                0x000000000002c298        0x4 CMakeFiles/light_switch_proxy_server_nrf52840_xxAA_s140_6.0.0.dir/__/__/__/mesh/core/src/hal.c.obj
 .text.hal_device_reset
                0x000000000002c29c       0x2c CMakeFiles/light_switch_proxy_server_nrf52840_xxAA_s140_6.0.0.dir/__/__/__/mesh/core/src/hal.c.obj
                0x000000000002c29c                hal_device_reset
 .text.hal_lfclk_ppm_get
                0x000000000002c2c8       0x14 CMakeFiles/light_switch_proxy_server_nrf52840_xxAA_s140_6.0.0.dir/__/__/__/mesh/core/src/hal.c.obj
                0x000000000002c2c8                hal_lfclk_ppm_get
 .text.aes_cmac_subkey_generate
                0x000000000002c2dc      0x294 CMakeFiles/light_switch_proxy_server_nrf52840_xxAA_s140_6.0.0.dir/__/__/__/mesh/core/src/aes_cmac.c.obj
                0x000000000002c2dc                aes_cmac_subkey_generate
 .text.aes_cmac
                0x000000000002c570      0x4b8 CMakeFiles/light_switch_proxy_server_nrf52840_xxAA_s140_6.0.0.dir/__/__/__/mesh/core/src/aes_cmac.c.obj
                0x000000000002c570                aes_cmac
 .text.timer_cb
                0x000000000002ca28        0xc CMakeFiles/light_switch_proxy_server_nrf52840_xxAA_s140_6.0.0.dir/__/__/__/mesh/core/src/timer_scheduler.c.obj
 .text.add_evt.constprop.1
                0x000000000002ca34       0x60 CMakeFiles/light_switch_proxy_server_nrf52840_xxAA_s140_6.0.0.dir/__/__/__/mesh/core/src/timer_scheduler.c.obj
 .text.flag_event_cb
                0x000000000002ca94      0x2f0 CMakeFiles/light_switch_proxy_server_nrf52840_xxAA_s140_6.0.0.dir/__/__/__/mesh/core/src/timer_scheduler.c.obj
 .text.timer_sch_init
                0x000000000002cd84       0x24 CMakeFiles/light_switch_proxy_server_nrf52840_xxAA_s140_6.0.0.dir/__/__/__/mesh/core/src/timer_scheduler.c.obj
                0x000000000002cd84                timer_sch_init
 .text.timer_sch_schedule
                0x000000000002cda8       0x68 CMakeFiles/light_switch_proxy_server_nrf52840_xxAA_s140_6.0.0.dir/__/__/__/mesh/core/src/timer_scheduler.c.obj
                0x000000000002cda8                timer_sch_schedule
 .text.timer_sch_abort
                0x000000000002ce10       0x5c CMakeFiles/light_switch_proxy_server_nrf52840_xxAA_s140_6.0.0.dir/__/__/__/mesh/core/src/timer_scheduler.c.obj
                0x000000000002ce10                timer_sch_abort
 .text.timer_sch_reschedule
                0x000000000002ce6c       0x90 CMakeFiles/light_switch_proxy_server_nrf52840_xxAA_s140_6.0.0.dir/__/__/__/mesh/core/src/timer_scheduler.c.obj
                0x000000000002ce6c                timer_sch_reschedule
 .text.timer_event_handler
                0x000000000002cefc       0xd0 CMakeFiles/light_switch_proxy_server_nrf52840_xxAA_s140_6.0.0.dir/__/__/__/mesh/core/src/timer.c.obj
                0x000000000002cefc                timer_event_handler
 .text.timer_order_cb
                0x000000000002cfcc       0x9c CMakeFiles/light_switch_proxy_server_nrf52840_xxAA_s140_6.0.0.dir/__/__/__/mesh/core/src/timer.c.obj
                0x000000000002cfcc                timer_order_cb
 .text.timer_now
                0x000000000002d068       0x58 CMakeFiles/light_switch_proxy_server_nrf52840_xxAA_s140_6.0.0.dir/__/__/__/mesh/core/src/timer.c.obj
                0x000000000002d068                timer_now
 .text.timer_on_ts_begin
                0x000000000002d0c0      0x100 CMakeFiles/light_switch_proxy_server_nrf52840_xxAA_s140_6.0.0.dir/__/__/__/mesh/core/src/timer.c.obj
                0x000000000002d0c0                timer_on_ts_begin
 .text.timer_on_ts_end
                0x000000000002d1c0       0x78 CMakeFiles/light_switch_proxy_server_nrf52840_xxAA_s140_6.0.0.dir/__/__/__/mesh/core/src/timer.c.obj
                0x000000000002d1c0                timer_on_ts_end
 .text.timer_cb
                0x000000000002d238       0x10 CMakeFiles/light_switch_proxy_server_nrf52840_xxAA_s140_6.0.0.dir/__/__/__/mesh/core/src/ticker.c.obj
 .text.ticker_init
                0x000000000002d248       0x3c CMakeFiles/light_switch_proxy_server_nrf52840_xxAA_s140_6.0.0.dir/__/__/__/mesh/core/src/ticker.c.obj
                0x000000000002d248                ticker_init
 .text.sd_rand_application_bytes_available_get
                0x000000000002d284        0x4 CMakeFiles/light_switch_proxy_server_nrf52840_xxAA_s140_6.0.0.dir/__/__/__/mesh/core/src/rand.c.obj
 .text.sd_rand_application_vector_get
                0x000000000002d288        0x4 CMakeFiles/light_switch_proxy_server_nrf52840_xxAA_s140_6.0.0.dir/__/__/__/mesh/core/src/rand.c.obj
 .text.rand_prng_seed
                0x000000000002d28c       0x78 CMakeFiles/light_switch_proxy_server_nrf52840_xxAA_s140_6.0.0.dir/__/__/__/mesh/core/src/rand.c.obj
                0x000000000002d28c                rand_prng_seed
 .text.rand_prng_get
                0x000000000002d304       0x28 CMakeFiles/light_switch_proxy_server_nrf52840_xxAA_s140_6.0.0.dir/__/__/__/mesh/core/src/rand.c.obj
                0x000000000002d304                rand_prng_get
 .text.rand_hw_rng_get
                0x000000000002d32c       0x60 CMakeFiles/light_switch_proxy_server_nrf52840_xxAA_s140_6.0.0.dir/__/__/__/mesh/core/src/rand.c.obj
                0x000000000002d32c                rand_hw_rng_get
 .text.nrf_mesh_opt_set
                0x000000000002d38c       0x28 CMakeFiles/light_switch_proxy_server_nrf52840_xxAA_s140_6.0.0.dir/__/__/__/mesh/core/src/nrf_mesh_opt.c.obj
                0x000000000002d38c                nrf_mesh_opt_set
 .text.nrf_mesh_opt_get
                0x000000000002d3b4       0x28 CMakeFiles/light_switch_proxy_server_nrf52840_xxAA_s140_6.0.0.dir/__/__/__/mesh/core/src/nrf_mesh_opt.c.obj
                0x000000000002d3b4                nrf_mesh_opt_get
 .text.sd_radio_session_open
                0x000000000002d3dc        0x4 CMakeFiles/light_switch_proxy_server_nrf52840_xxAA_s140_6.0.0.dir/__/__/__/mesh/core/src/timeslot.c.obj
 .text.sd_radio_session_close
                0x000000000002d3e0        0x4 CMakeFiles/light_switch_proxy_server_nrf52840_xxAA_s140_6.0.0.dir/__/__/__/mesh/core/src/timeslot.c.obj
 .text.sd_radio_request
                0x000000000002d3e4        0x4 CMakeFiles/light_switch_proxy_server_nrf52840_xxAA_s140_6.0.0.dir/__/__/__/mesh/core/src/timeslot.c.obj
 .text.end_timer_handler
                0x000000000002d3e8       0x2c CMakeFiles/light_switch_proxy_server_nrf52840_xxAA_s140_6.0.0.dir/__/__/__/mesh/core/src/timeslot.c.obj
 .text.radio_signal_callback
                0x000000000002d414      0x2b4 CMakeFiles/light_switch_proxy_server_nrf52840_xxAA_s140_6.0.0.dir/__/__/__/mesh/core/src/timeslot.c.obj
 .text.timeslot_sd_event_handler
                0x000000000002d6c8       0x44 CMakeFiles/light_switch_proxy_server_nrf52840_xxAA_s140_6.0.0.dir/__/__/__/mesh/core/src/timeslot.c.obj
                0x000000000002d6c8                timeslot_sd_event_handler
 .text.timeslot_init
                0x000000000002d70c       0x4c CMakeFiles/light_switch_proxy_server_nrf52840_xxAA_s140_6.0.0.dir/__/__/__/mesh/core/src/timeslot.c.obj
                0x000000000002d70c                timeslot_init
 .text.timeslot_start
                0x000000000002d758       0x20 CMakeFiles/light_switch_proxy_server_nrf52840_xxAA_s140_6.0.0.dir/__/__/__/mesh/core/src/timeslot.c.obj
                0x000000000002d758                timeslot_start
 .text.timeslot_stop
                0x000000000002d778       0x30 CMakeFiles/light_switch_proxy_server_nrf52840_xxAA_s140_6.0.0.dir/__/__/__/mesh/core/src/timeslot.c.obj
                0x000000000002d778                timeslot_stop
 .text.timeslot_state_lock
                0x000000000002d7a8       0x44 CMakeFiles/light_switch_proxy_server_nrf52840_xxAA_s140_6.0.0.dir/__/__/__/mesh/core/src/timeslot.c.obj
                0x000000000002d7a8                timeslot_state_lock
 .text.timeslot_end_is_pending
                0x000000000002d7ec       0x24 CMakeFiles/light_switch_proxy_server_nrf52840_xxAA_s140_6.0.0.dir/__/__/__/mesh/core/src/timeslot.c.obj
                0x000000000002d7ec                timeslot_end_is_pending
 .text.timeslot_start_time_get
                0x000000000002d810        0xc CMakeFiles/light_switch_proxy_server_nrf52840_xxAA_s140_6.0.0.dir/__/__/__/mesh/core/src/timeslot.c.obj
                0x000000000002d810                timeslot_start_time_get
 .text.timeslot_remaining_time_get
                0x000000000002d81c       0x40 CMakeFiles/light_switch_proxy_server_nrf52840_xxAA_s140_6.0.0.dir/__/__/__/mesh/core/src/timeslot.c.obj
                0x000000000002d81c                timeslot_remaining_time_get
 .text.timeslot_is_in_cb
                0x000000000002d85c        0xc CMakeFiles/light_switch_proxy_server_nrf52840_xxAA_s140_6.0.0.dir/__/__/__/mesh/core/src/timeslot.c.obj
                0x000000000002d85c                timeslot_is_in_cb
 .text.timeslot_trigger
                0x000000000002d868       0x24 CMakeFiles/light_switch_proxy_server_nrf52840_xxAA_s140_6.0.0.dir/__/__/__/mesh/core/src/timeslot.c.obj
                0x000000000002d868                timeslot_trigger
 .text.bearer_event_init
                0x000000000002d88c       0x4c CMakeFiles/light_switch_proxy_server_nrf52840_xxAA_s140_6.0.0.dir/__/__/__/mesh/core/src/bearer_event.c.obj
                0x000000000002d88c                bearer_event_init
 .text.bearer_event_timer_post
                0x000000000002d8d8       0x50 CMakeFiles/light_switch_proxy_server_nrf52840_xxAA_s140_6.0.0.dir/__/__/__/mesh/core/src/bearer_event.c.obj
                0x000000000002d8d8                bearer_event_timer_post
 .text.bearer_event_critical_section_begin
                0x000000000002d928       0x44 CMakeFiles/light_switch_proxy_server_nrf52840_xxAA_s140_6.0.0.dir/__/__/__/mesh/core/src/bearer_event.c.obj
                0x000000000002d928                bearer_event_critical_section_begin
 .text.bearer_event_critical_section_end
                0x000000000002d96c       0x40 CMakeFiles/light_switch_proxy_server_nrf52840_xxAA_s140_6.0.0.dir/__/__/__/mesh/core/src/bearer_event.c.obj
                0x000000000002d96c                bearer_event_critical_section_end
 .text.bearer_event_flag_add
                0x000000000002d9ac       0x40 CMakeFiles/light_switch_proxy_server_nrf52840_xxAA_s140_6.0.0.dir/__/__/__/mesh/core/src/bearer_event.c.obj
                0x000000000002d9ac                bearer_event_flag_add
 .text.bearer_event_flag_set
                0x000000000002d9ec       0x5c CMakeFiles/light_switch_proxy_server_nrf52840_xxAA_s140_6.0.0.dir/__/__/__/mesh/core/src/bearer_event.c.obj
                0x000000000002d9ec                bearer_event_flag_set
 .text.bearer_event_sequential_add
                0x000000000002da48       0x34 CMakeFiles/light_switch_proxy_server_nrf52840_xxAA_s140_6.0.0.dir/__/__/__/mesh/core/src/bearer_event.c.obj
                0x000000000002da48                bearer_event_sequential_add
 .text.bearer_event_sequential_post
                0x000000000002da7c       0x64 CMakeFiles/light_switch_proxy_server_nrf52840_xxAA_s140_6.0.0.dir/__/__/__/mesh/core/src/bearer_event.c.obj
                0x000000000002da7c                bearer_event_sequential_post
 .text.bearer_event_sequential_pending
                0x000000000002dae0       0x14 CMakeFiles/light_switch_proxy_server_nrf52840_xxAA_s140_6.0.0.dir/__/__/__/mesh/core/src/bearer_event.c.obj
                0x000000000002dae0                bearer_event_sequential_pending
 .text.bearer_event_handler
                0x000000000002daf4      0x16c CMakeFiles/light_switch_proxy_server_nrf52840_xxAA_s140_6.0.0.dir/__/__/__/mesh/core/src/bearer_event.c.obj
                0x000000000002daf4                bearer_event_handler
 .text.QDEC_IRQHandler
                0x000000000002dc60        0x4 CMakeFiles/light_switch_proxy_server_nrf52840_xxAA_s140_6.0.0.dir/__/__/__/mesh/core/src/bearer_event.c.obj
                0x000000000002dc60                QDEC_IRQHandler
 .text.enc_aes_encrypt
                0x000000000002dc64        0x4 CMakeFiles/light_switch_proxy_server_nrf52840_xxAA_s140_6.0.0.dir/__/__/__/mesh/core/src/enc.c.obj
                0x000000000002dc64                enc_aes_encrypt
 .text.enc_aes_cmac
                0x000000000002dc68        0x4 CMakeFiles/light_switch_proxy_server_nrf52840_xxAA_s140_6.0.0.dir/__/__/__/mesh/core/src/enc.c.obj
                0x000000000002dc68                enc_aes_cmac
 .text.enc_aes_ccm_encrypt
                0x000000000002dc6c        0x4 CMakeFiles/light_switch_proxy_server_nrf52840_xxAA_s140_6.0.0.dir/__/__/__/mesh/core/src/enc.c.obj
                0x000000000002dc6c                enc_aes_ccm_encrypt
 .text.enc_aes_ccm_decrypt
                0x000000000002dc70        0x4 CMakeFiles/light_switch_proxy_server_nrf52840_xxAA_s140_6.0.0.dir/__/__/__/mesh/core/src/enc.c.obj
                0x000000000002dc70                enc_aes_ccm_decrypt
 .text.enc_nonce_generate
                0x000000000002dc74       0xc8 CMakeFiles/light_switch_proxy_server_nrf52840_xxAA_s140_6.0.0.dir/__/__/__/mesh/core/src/enc.c.obj
                0x000000000002dc74                enc_nonce_generate
 .text.enc_s1   0x000000000002dd3c       0x30 CMakeFiles/light_switch_proxy_server_nrf52840_xxAA_s140_6.0.0.dir/__/__/__/mesh/core/src/enc.c.obj
                0x000000000002dd3c                enc_s1
 .text.enc_k1   0x000000000002dd6c       0x40 CMakeFiles/light_switch_proxy_server_nrf52840_xxAA_s140_6.0.0.dir/__/__/__/mesh/core/src/enc.c.obj
                0x000000000002dd6c                enc_k1
 .text.enc_k2   0x000000000002ddac       0xe0 CMakeFiles/light_switch_proxy_server_nrf52840_xxAA_s140_6.0.0.dir/__/__/__/mesh/core/src/enc.c.obj
                0x000000000002ddac                enc_k2
 .text.enc_k3   0x000000000002de8c       0x68 CMakeFiles/light_switch_proxy_server_nrf52840_xxAA_s140_6.0.0.dir/__/__/__/mesh/core/src/enc.c.obj
                0x000000000002de8c                enc_k3
 .text.enc_k4   0x000000000002def4       0x60 CMakeFiles/light_switch_proxy_server_nrf52840_xxAA_s140_6.0.0.dir/__/__/__/mesh/core/src/enc.c.obj
                0x000000000002def4                enc_k4
 .text.network_init
                0x000000000002df54       0x28 CMakeFiles/light_switch_proxy_server_nrf52840_xxAA_s140_6.0.0.dir/__/__/__/mesh/core/src/network.c.obj
                0x000000000002df54                network_init
 .text.network_opt_set
                0x000000000002df7c       0x84 CMakeFiles/light_switch_proxy_server_nrf52840_xxAA_s140_6.0.0.dir/__/__/__/mesh/core/src/network.c.obj
                0x000000000002df7c                network_opt_set
 .text.network_opt_get
                0x000000000002e000       0x5c CMakeFiles/light_switch_proxy_server_nrf52840_xxAA_s140_6.0.0.dir/__/__/__/mesh/core/src/network.c.obj
                0x000000000002e000                network_opt_get
 .text.network_packet_alloc
                0x000000000002e05c       0xa0 CMakeFiles/light_switch_proxy_server_nrf52840_xxAA_s140_6.0.0.dir/__/__/__/mesh/core/src/network.c.obj
                0x000000000002e05c                network_packet_alloc
 .text.network_packet_send
                0x000000000002e0fc       0x58 CMakeFiles/light_switch_proxy_server_nrf52840_xxAA_s140_6.0.0.dir/__/__/__/mesh/core/src/network.c.obj
                0x000000000002e0fc                network_packet_send
 .text.network_packet_in
                0x000000000002e154      0x1d0 CMakeFiles/light_switch_proxy_server_nrf52840_xxAA_s140_6.0.0.dir/__/__/__/mesh/core/src/network.c.obj
                0x000000000002e154                network_packet_in
 .text.net_packet_decrypt
                0x000000000002e324      0x2bc CMakeFiles/light_switch_proxy_server_nrf52840_xxAA_s140_6.0.0.dir/__/__/__/mesh/core/src/net_packet.c.obj
                0x000000000002e324                net_packet_decrypt
 .text.net_packet_encrypt
                0x000000000002e5e0      0x100 CMakeFiles/light_switch_proxy_server_nrf52840_xxAA_s140_6.0.0.dir/__/__/__/mesh/core/src/net_packet.c.obj
                0x000000000002e5e0                net_packet_encrypt
 .text.net_packet_header_set
                0x000000000002e6e0       0xc0 CMakeFiles/light_switch_proxy_server_nrf52840_xxAA_s140_6.0.0.dir/__/__/__/mesh/core/src/net_packet.c.obj
                0x000000000002e6e0                net_packet_header_set
 .text.net_packet_payload_len_get
                0x000000000002e7a0       0x14 CMakeFiles/light_switch_proxy_server_nrf52840_xxAA_s140_6.0.0.dir/__/__/__/mesh/core/src/net_packet.c.obj
                0x000000000002e7a0                net_packet_payload_len_get
 .text.net_packet_from_payload
                0x000000000002e7b4        0x4 CMakeFiles/light_switch_proxy_server_nrf52840_xxAA_s140_6.0.0.dir/__/__/__/mesh/core/src/net_packet.c.obj
                0x000000000002e7b4                net_packet_from_payload
 .text.net_packet_payload_get
                0x000000000002e7b8        0x4 CMakeFiles/light_switch_proxy_server_nrf52840_xxAA_s140_6.0.0.dir/__/__/__/mesh/core/src/net_packet.c.obj
                0x000000000002e7b8                net_packet_payload_get
 .text.net_packet_obfuscation_start_get
                0x000000000002e7bc        0x4 CMakeFiles/light_switch_proxy_server_nrf52840_xxAA_s140_6.0.0.dir/__/__/__/mesh/core/src/net_packet.c.obj
                0x000000000002e7bc                net_packet_obfuscation_start_get
 .text.msq_init
                0x000000000002e7c0       0x6c CMakeFiles/light_switch_proxy_server_nrf52840_xxAA_s140_6.0.0.dir/__/__/__/mesh/core/src/msqueue.c.obj
                0x000000000002e7c0                msq_init
 .text.msq_get  0x000000000002e82c       0x54 CMakeFiles/light_switch_proxy_server_nrf52840_xxAA_s140_6.0.0.dir/__/__/__/mesh/core/src/msqueue.c.obj
                0x000000000002e82c                msq_get
 .text.msq_move
                0x000000000002e880       0x4c CMakeFiles/light_switch_proxy_server_nrf52840_xxAA_s140_6.0.0.dir/__/__/__/mesh/core/src/msqueue.c.obj
                0x000000000002e880                msq_move
 .text.msq_available
                0x000000000002e8cc       0x44 CMakeFiles/light_switch_proxy_server_nrf52840_xxAA_s140_6.0.0.dir/__/__/__/mesh/core/src/msqueue.c.obj
                0x000000000002e8cc                msq_available
 .text.nrf_mesh_keygen_aid
                0x000000000002e910       0x18 CMakeFiles/light_switch_proxy_server_nrf52840_xxAA_s140_6.0.0.dir/__/__/__/mesh/core/src/nrf_mesh_keygen.c.obj
                0x000000000002e910                nrf_mesh_keygen_aid
 .text.nrf_mesh_keygen_network_secmat
                0x000000000002e928       0x24 CMakeFiles/light_switch_proxy_server_nrf52840_xxAA_s140_6.0.0.dir/__/__/__/mesh/core/src/nrf_mesh_keygen.c.obj
                0x000000000002e928                nrf_mesh_keygen_network_secmat
 .text.nrf_mesh_keygen_beacon_secmat
                0x000000000002e94c       0x50 CMakeFiles/light_switch_proxy_server_nrf52840_xxAA_s140_6.0.0.dir/__/__/__/mesh/core/src/nrf_mesh_keygen.c.obj
                0x000000000002e94c                nrf_mesh_keygen_beacon_secmat
 .text.nrf_mesh_keygen_identitykey
                0x000000000002e99c       0x4c CMakeFiles/light_switch_proxy_server_nrf52840_xxAA_s140_6.0.0.dir/__/__/__/mesh/core/src/nrf_mesh_keygen.c.obj
                0x000000000002e99c                nrf_mesh_keygen_identitykey
 .text.nrf_mesh_keygen_virtual_address
                0x000000000002e9e8       0x50 CMakeFiles/light_switch_proxy_server_nrf52840_xxAA_s140_6.0.0.dir/__/__/__/mesh/core/src/nrf_mesh_keygen.c.obj
                0x000000000002e9e8                nrf_mesh_keygen_virtual_address
 .text.cache_init
                0x000000000002ea38       0x40 CMakeFiles/light_switch_proxy_server_nrf52840_xxAA_s140_6.0.0.dir/__/__/__/mesh/core/src/cache.c.obj
                0x000000000002ea38                cache_init
 .text.cache_has_elem
                0x000000000002ea78       0x54 CMakeFiles/light_switch_proxy_server_nrf52840_xxAA_s140_6.0.0.dir/__/__/__/mesh/core/src/cache.c.obj
                0x000000000002ea78                cache_has_elem
 .text.cache_put
                0x000000000002eacc       0x2c CMakeFiles/light_switch_proxy_server_nrf52840_xxAA_s140_6.0.0.dir/__/__/__/mesh/core/src/cache.c.obj
                0x000000000002eacc                cache_put
 .text.list_add
                0x000000000002eaf8       0x64 CMakeFiles/light_switch_proxy_server_nrf52840_xxAA_s140_6.0.0.dir/__/__/__/mesh/core/src/list.c.obj
                0x000000000002eaf8                list_add
 .text.list_remove
                0x000000000002eb5c       0x44 CMakeFiles/light_switch_proxy_server_nrf52840_xxAA_s140_6.0.0.dir/__/__/__/mesh/core/src/list.c.obj
                0x000000000002eb5c                list_remove
 .text.list_compare_add
                0x000000000002eba0       0x80 CMakeFiles/light_switch_proxy_server_nrf52840_xxAA_s140_6.0.0.dir/__/__/__/mesh/core/src/list.c.obj
                0x000000000002eba0                list_compare_add
 .text.log_callback_rtt
                0x000000000002ec20       0x2c CMakeFiles/light_switch_proxy_server_nrf52840_xxAA_s140_6.0.0.dir/__/__/__/mesh/core/src/log.c.obj
                0x000000000002ec20                log_callback_rtt
 .text.log_init
                0x000000000002ec4c       0x20 CMakeFiles/light_switch_proxy_server_nrf52840_xxAA_s140_6.0.0.dir/__/__/__/mesh/core/src/log.c.obj
                0x000000000002ec4c                log_init
 .text.log_printf
                0x000000000002ec6c       0x20 CMakeFiles/light_switch_proxy_server_nrf52840_xxAA_s140_6.0.0.dir/__/__/__/mesh/core/src/log.c.obj
                0x000000000002ec6c                log_printf
 .text.process_action_queue
                0x000000000002ec8c      0x794 CMakeFiles/light_switch_proxy_server_nrf52840_xxAA_s140_6.0.0.dir/__/__/__/mesh/core/src/flash_manager.c.obj
 .text.flash_op_ended_callback
                0x000000000002f420       0x24 CMakeFiles/light_switch_proxy_server_nrf52840_xxAA_s140_6.0.0.dir/__/__/__/mesh/core/src/flash_manager.c.obj
 .text.flash_manager_init
                0x000000000002f444       0x68 CMakeFiles/light_switch_proxy_server_nrf52840_xxAA_s140_6.0.0.dir/__/__/__/mesh/core/src/flash_manager.c.obj
                0x000000000002f444                flash_manager_init
 .text.flash_manager_remove
                0x000000000002f4ac       0x6c CMakeFiles/light_switch_proxy_server_nrf52840_xxAA_s140_6.0.0.dir/__/__/__/mesh/core/src/flash_manager.c.obj
                0x000000000002f4ac                flash_manager_remove
 .text.flash_manager_entry_get
                0x000000000002f518       0x48 CMakeFiles/light_switch_proxy_server_nrf52840_xxAA_s140_6.0.0.dir/__/__/__/mesh/core/src/flash_manager.c.obj
                0x000000000002f518                flash_manager_entry_get
 .text.flash_manager_entry_next_get
                0x000000000002f560      0x144 CMakeFiles/light_switch_proxy_server_nrf52840_xxAA_s140_6.0.0.dir/__/__/__/mesh/core/src/flash_manager.c.obj
                0x000000000002f560                flash_manager_entry_next_get
 .text.flash_manager_entry_alloc
                0x000000000002f6a4       0x80 CMakeFiles/light_switch_proxy_server_nrf52840_xxAA_s140_6.0.0.dir/__/__/__/mesh/core/src/flash_manager.c.obj
                0x000000000002f6a4                flash_manager_entry_alloc
 .text.flash_manager_entry_commit
                0x000000000002f724       0x58 CMakeFiles/light_switch_proxy_server_nrf52840_xxAA_s140_6.0.0.dir/__/__/__/mesh/core/src/flash_manager.c.obj
                0x000000000002f724                flash_manager_entry_commit
 .text.flash_manager_entry_invalidate
                0x000000000002f77c       0x98 CMakeFiles/light_switch_proxy_server_nrf52840_xxAA_s140_6.0.0.dir/__/__/__/mesh/core/src/flash_manager.c.obj
                0x000000000002f77c                flash_manager_entry_invalidate
 .text.flash_manager_add
                0x000000000002f814      0x3f4 CMakeFiles/light_switch_proxy_server_nrf52840_xxAA_s140_6.0.0.dir/__/__/__/mesh/core/src/flash_manager.c.obj
                0x000000000002f814                flash_manager_add
 .text.flash_manager_mem_listener_register
                0x000000000002fc08       0x38 CMakeFiles/light_switch_proxy_server_nrf52840_xxAA_s140_6.0.0.dir/__/__/__/mesh/core/src/flash_manager.c.obj
                0x000000000002fc08                flash_manager_mem_listener_register
 .text.flash_manager_is_stable
                0x000000000002fc40       0x20 CMakeFiles/light_switch_proxy_server_nrf52840_xxAA_s140_6.0.0.dir/__/__/__/mesh/core/src/flash_manager.c.obj
                0x000000000002fc40                flash_manager_is_stable
 .text.flash_manager_on_defrag_end
                0x000000000002fc60       0x58 CMakeFiles/light_switch_proxy_server_nrf52840_xxAA_s140_6.0.0.dir/__/__/__/mesh/core/src/flash_manager.c.obj
                0x000000000002fc60                flash_manager_on_defrag_end
 .text.flash_manager_recovery_page_get
                0x000000000002fcb8        0x4 CMakeFiles/light_switch_proxy_server_nrf52840_xxAA_s140_6.0.0.dir/__/__/__/mesh/core/src/flash_manager.c.obj
                0x000000000002fcb8                flash_manager_recovery_page_get
 .text.flash_manager_action_queue_empty_cb_set
                0x000000000002fcbc       0x20 CMakeFiles/light_switch_proxy_server_nrf52840_xxAA_s140_6.0.0.dir/__/__/__/mesh/core/src/flash_manager.c.obj
                0x000000000002fcbc                flash_manager_action_queue_empty_cb_set
 .text.ccm_soft_crypt.constprop.0
                0x000000000002fcdc      0x274 CMakeFiles/light_switch_proxy_server_nrf52840_xxAA_s140_6.0.0.dir/__/__/__/mesh/core/src/ccm_soft.c.obj
 .text.ccm_soft_authenticate
                0x000000000002ff50      0x308 CMakeFiles/light_switch_proxy_server_nrf52840_xxAA_s140_6.0.0.dir/__/__/__/mesh/core/src/ccm_soft.c.obj
 .text.ccm_soft_encrypt
                0x0000000000030258       0x7c CMakeFiles/light_switch_proxy_server_nrf52840_xxAA_s140_6.0.0.dir/__/__/__/mesh/core/src/ccm_soft.c.obj
                0x0000000000030258                ccm_soft_encrypt
 .text.ccm_soft_decrypt
                0x00000000000302d4      0x114 CMakeFiles/light_switch_proxy_server_nrf52840_xxAA_s140_6.0.0.dir/__/__/__/mesh/core/src/ccm_soft.c.obj
                0x00000000000302d4                ccm_soft_decrypt
 .text.replay_cache_init
                0x00000000000303e8       0x20 CMakeFiles/light_switch_proxy_server_nrf52840_xxAA_s140_6.0.0.dir/__/__/__/mesh/core/src/replay_cache.c.obj
                0x00000000000303e8                replay_cache_init
 .text.replay_cache_add
                0x0000000000030408       0x60 CMakeFiles/light_switch_proxy_server_nrf52840_xxAA_s140_6.0.0.dir/__/__/__/mesh/core/src/replay_cache.c.obj
                0x0000000000030408                replay_cache_add
 .text.replay_cache_has_elem
                0x0000000000030468       0x40 CMakeFiles/light_switch_proxy_server_nrf52840_xxAA_s140_6.0.0.dir/__/__/__/mesh/core/src/replay_cache.c.obj
                0x0000000000030468                replay_cache_has_elem
 .text.beacon_create
                0x00000000000304a8       0x50 CMakeFiles/light_switch_proxy_server_nrf52840_xxAA_s140_6.0.0.dir/__/__/__/mesh/core/src/beacon.c.obj
                0x00000000000304a8                beacon_create
 .text.beacon_packet_in
                0x00000000000304f8      0x178 CMakeFiles/light_switch_proxy_server_nrf52840_xxAA_s140_6.0.0.dir/__/__/__/mesh/core/src/beacon.c.obj
                0x00000000000304f8                beacon_packet_in
 .text.entry_get
                0x0000000000030670       0x7c CMakeFiles/light_switch_proxy_server_nrf52840_xxAA_s140_6.0.0.dir/__/__/__/mesh/core/src/flash_manager_internal.c.obj
                0x0000000000030670                entry_get
 .text.core_tx_complete_cb_set
                0x00000000000306ec        0xc CMakeFiles/light_switch_proxy_server_nrf52840_xxAA_s140_6.0.0.dir/__/__/__/mesh/core/src/core_tx.c.obj
                0x00000000000306ec                core_tx_complete_cb_set
 .text.core_tx_packet_alloc
                0x00000000000306f8       0xc0 CMakeFiles/light_switch_proxy_server_nrf52840_xxAA_s140_6.0.0.dir/__/__/__/mesh/core/src/core_tx.c.obj
                0x00000000000306f8                core_tx_packet_alloc
 .text.core_tx_packet_send
                0x00000000000307b8       0x5c CMakeFiles/light_switch_proxy_server_nrf52840_xxAA_s140_6.0.0.dir/__/__/__/mesh/core/src/core_tx.c.obj
                0x00000000000307b8                core_tx_packet_send
 .text.core_tx_packet_discard
                0x0000000000030814       0x54 CMakeFiles/light_switch_proxy_server_nrf52840_xxAA_s140_6.0.0.dir/__/__/__/mesh/core/src/core_tx.c.obj
                0x0000000000030814                core_tx_packet_discard
 .text.core_tx_complete
                0x0000000000030868       0x38 CMakeFiles/light_switch_proxy_server_nrf52840_xxAA_s140_6.0.0.dir/__/__/__/mesh/core/src/core_tx.c.obj
                0x0000000000030868                core_tx_complete
 .text.core_tx_bearer_add
                0x00000000000308a0       0x90 CMakeFiles/light_switch_proxy_server_nrf52840_xxAA_s140_6.0.0.dir/__/__/__/mesh/core/src/core_tx.c.obj
                0x00000000000308a0                core_tx_bearer_add
 .text.heartbeat_subscription_timer_cb
                0x0000000000030930       0x1c CMakeFiles/light_switch_proxy_server_nrf52840_xxAA_s140_6.0.0.dir/__/__/__/mesh/core/src/heartbeat.c.obj
 .text.heartbeat_opcode_handle
                0x000000000003094c       0x8c CMakeFiles/light_switch_proxy_server_nrf52840_xxAA_s140_6.0.0.dir/__/__/__/mesh/core/src/heartbeat.c.obj
 .text.heartbeat_send
                0x00000000000309d8       0xbc CMakeFiles/light_switch_proxy_server_nrf52840_xxAA_s140_6.0.0.dir/__/__/__/mesh/core/src/heartbeat.c.obj
 .text.heartbeat_core_evt_cb
                0x0000000000030a94       0x94 CMakeFiles/light_switch_proxy_server_nrf52840_xxAA_s140_6.0.0.dir/__/__/__/mesh/core/src/heartbeat.c.obj
 .text.heartbeat_publication_timer_cb
                0x0000000000030b28       0xb0 CMakeFiles/light_switch_proxy_server_nrf52840_xxAA_s140_6.0.0.dir/__/__/__/mesh/core/src/heartbeat.c.obj
 .text.heartbeat_on_feature_change_trigger
                0x0000000000030bd8       0x48 CMakeFiles/light_switch_proxy_server_nrf52840_xxAA_s140_6.0.0.dir/__/__/__/mesh/core/src/heartbeat.c.obj
                0x0000000000030bd8                heartbeat_on_feature_change_trigger
 .text.heartbeat_init
                0x0000000000030c20       0x7c CMakeFiles/light_switch_proxy_server_nrf52840_xxAA_s140_6.0.0.dir/__/__/__/mesh/core/src/heartbeat.c.obj
                0x0000000000030c20                heartbeat_init
 .text.heartbeat_subscription_set
                0x0000000000030c9c       0xa4 CMakeFiles/light_switch_proxy_server_nrf52840_xxAA_s140_6.0.0.dir/__/__/__/mesh/core/src/heartbeat.c.obj
                0x0000000000030c9c                heartbeat_subscription_set
 .text.heartbeat_subscription_get
                0x0000000000030d40        0x8 CMakeFiles/light_switch_proxy_server_nrf52840_xxAA_s140_6.0.0.dir/__/__/__/mesh/core/src/heartbeat.c.obj
                0x0000000000030d40                heartbeat_subscription_get
 .text.heartbeat_config_server_cb_set
                0x0000000000030d48       0x30 CMakeFiles/light_switch_proxy_server_nrf52840_xxAA_s140_6.0.0.dir/__/__/__/mesh/core/src/heartbeat.c.obj
                0x0000000000030d48                heartbeat_config_server_cb_set
 .text.heartbeat_publication_state_updated
                0x0000000000030d78       0x78 CMakeFiles/light_switch_proxy_server_nrf52840_xxAA_s140_6.0.0.dir/__/__/__/mesh/core/src/heartbeat.c.obj
                0x0000000000030d78                heartbeat_publication_state_updated
 .text.beacon_tx
                0x0000000000030df0      0x194 CMakeFiles/light_switch_proxy_server_nrf52840_xxAA_s140_6.0.0.dir/__/__/__/mesh/core/src/net_beacon.c.obj
 .text.tx_complete_cb
                0x0000000000030f84       0x10 CMakeFiles/light_switch_proxy_server_nrf52840_xxAA_s140_6.0.0.dir/__/__/__/mesh/core/src/net_beacon.c.obj
 .text.beacon_tx_timeout
                0x0000000000030f94        0x4 CMakeFiles/light_switch_proxy_server_nrf52840_xxAA_s140_6.0.0.dir/__/__/__/mesh/core/src/net_beacon.c.obj
 .text.net_beacon_init
                0x0000000000030f98       0x94 CMakeFiles/light_switch_proxy_server_nrf52840_xxAA_s140_6.0.0.dir/__/__/__/mesh/core/src/net_beacon.c.obj
                0x0000000000030f98                net_beacon_init
 .text.net_beacon_state_set
                0x000000000003102c       0x3c CMakeFiles/light_switch_proxy_server_nrf52840_xxAA_s140_6.0.0.dir/__/__/__/mesh/core/src/net_beacon.c.obj
                0x000000000003102c                net_beacon_state_set
 .text.net_beacon_state_get
                0x0000000000031068        0xc CMakeFiles/light_switch_proxy_server_nrf52840_xxAA_s140_6.0.0.dir/__/__/__/mesh/core/src/net_beacon.c.obj
                0x0000000000031068                net_beacon_state_get
 .text.net_beacon_build
                0x0000000000031074       0x68 CMakeFiles/light_switch_proxy_server_nrf52840_xxAA_s140_6.0.0.dir/__/__/__/mesh/core/src/net_beacon.c.obj
                0x0000000000031074                net_beacon_build
 .text.net_beacon_packet_in
                0x00000000000310dc      0x134 CMakeFiles/light_switch_proxy_server_nrf52840_xxAA_s140_6.0.0.dir/__/__/__/mesh/core/src/net_beacon.c.obj
                0x00000000000310dc                net_beacon_packet_in
 .text.fsm_event_post_try
                0x0000000000031210      0x24c CMakeFiles/light_switch_proxy_server_nrf52840_xxAA_s140_6.0.0.dir/__/__/__/mesh/core/src/fsm.c.obj
 .text.fsm_init
                0x000000000003145c      0x100 CMakeFiles/light_switch_proxy_server_nrf52840_xxAA_s140_6.0.0.dir/__/__/__/mesh/core/src/fsm.c.obj
                0x000000000003145c                fsm_init
 .text.fsm_event_post
                0x000000000003155c       0xbc CMakeFiles/light_switch_proxy_server_nrf52840_xxAA_s140_6.0.0.dir/__/__/__/mesh/core/src/fsm.c.obj
                0x000000000003155c                fsm_event_post
 .text.fsm_is_processing
                0x0000000000031618        0xc CMakeFiles/light_switch_proxy_server_nrf52840_xxAA_s140_6.0.0.dir/__/__/__/mesh/core/src/fsm.c.obj
                0x0000000000031618                fsm_is_processing
 .text.packet_discard
                0x0000000000031624       0x40 CMakeFiles/light_switch_proxy_server_nrf52840_xxAA_s140_6.0.0.dir/__/__/__/mesh/core/src/core_tx_adv.c.obj
 .text.packet_send
                0x0000000000031664       0x58 CMakeFiles/light_switch_proxy_server_nrf52840_xxAA_s140_6.0.0.dir/__/__/__/mesh/core/src/core_tx_adv.c.obj
 .text.packet_alloc
                0x00000000000316bc       0x5c CMakeFiles/light_switch_proxy_server_nrf52840_xxAA_s140_6.0.0.dir/__/__/__/mesh/core/src/core_tx_adv.c.obj
 .text.adv_tx_complete_callback
                0x0000000000031718       0x28 CMakeFiles/light_switch_proxy_server_nrf52840_xxAA_s140_6.0.0.dir/__/__/__/mesh/core/src/core_tx_adv.c.obj
 .text.core_tx_adv_init
                0x0000000000031740       0x60 CMakeFiles/light_switch_proxy_server_nrf52840_xxAA_s140_6.0.0.dir/__/__/__/mesh/core/src/core_tx_adv.c.obj
                0x0000000000031740                core_tx_adv_init
 .text.core_tx_adv_count_set
                0x00000000000317a0       0x2c CMakeFiles/light_switch_proxy_server_nrf52840_xxAA_s140_6.0.0.dir/__/__/__/mesh/core/src/core_tx_adv.c.obj
                0x00000000000317a0                core_tx_adv_count_set
 .text.core_tx_adv_count_get
                0x00000000000317cc       0x20 CMakeFiles/light_switch_proxy_server_nrf52840_xxAA_s140_6.0.0.dir/__/__/__/mesh/core/src/core_tx_adv.c.obj
                0x00000000000317cc                core_tx_adv_count_get
 .text.core_tx_adv_interval_set
                0x00000000000317ec       0x28 CMakeFiles/light_switch_proxy_server_nrf52840_xxAA_s140_6.0.0.dir/__/__/__/mesh/core/src/core_tx_adv.c.obj
                0x00000000000317ec                core_tx_adv_interval_set
 .text.core_tx_adv_interval_get
                0x0000000000031814       0x2c CMakeFiles/light_switch_proxy_server_nrf52840_xxAA_s140_6.0.0.dir/__/__/__/mesh/core/src/core_tx_adv.c.obj
                0x0000000000031814                core_tx_adv_interval_get
 .text.ad_listener_subscribe
                0x0000000000031840       0x60 CMakeFiles/light_switch_proxy_server_nrf52840_xxAA_s140_6.0.0.dir/__/__/__/mesh/bearer/src/ad_listener.c.obj
                0x0000000000031840                ad_listener_subscribe
 .text.ad_listener_process
                0x00000000000318a0       0x84 CMakeFiles/light_switch_proxy_server_nrf52840_xxAA_s140_6.0.0.dir/__/__/__/mesh/bearer/src/ad_listener.c.obj
                0x00000000000318a0                ad_listener_process
 .text.adtype_filter_handle
                0x0000000000031924       0x94 CMakeFiles/light_switch_proxy_server_nrf52840_xxAA_s140_6.0.0.dir/__/__/__/mesh/bearer/src/ad_type_filter.c.obj
 .text.bearer_adtype_filtering_set
                0x00000000000319b8       0x1c CMakeFiles/light_switch_proxy_server_nrf52840_xxAA_s140_6.0.0.dir/__/__/__/mesh/bearer/src/ad_type_filter.c.obj
                0x00000000000319b8                bearer_adtype_filtering_set
 .text.bearer_adtype_add
                0x00000000000319d4       0x24 CMakeFiles/light_switch_proxy_server_nrf52840_xxAA_s140_6.0.0.dir/__/__/__/mesh/bearer/src/ad_type_filter.c.obj
                0x00000000000319d4                bearer_adtype_add
 .text.bearer_adtype_mode_set
                0x00000000000319f8       0x18 CMakeFiles/light_switch_proxy_server_nrf52840_xxAA_s140_6.0.0.dir/__/__/__/mesh/bearer/src/ad_type_filter.c.obj
                0x00000000000319f8                bearer_adtype_mode_set
 .text.tx_complete_event_callback
                0x0000000000031a10       0x34 CMakeFiles/light_switch_proxy_server_nrf52840_xxAA_s140_6.0.0.dir/__/__/__/mesh/bearer/src/advertiser.c.obj
 .text.broadcast_complete_cb
                0x0000000000031a44       0x48 CMakeFiles/light_switch_proxy_server_nrf52840_xxAA_s140_6.0.0.dir/__/__/__/mesh/bearer/src/advertiser.c.obj
 .text.timeout_event
                0x0000000000031a8c      0x12c CMakeFiles/light_switch_proxy_server_nrf52840_xxAA_s140_6.0.0.dir/__/__/__/mesh/bearer/src/advertiser.c.obj
 .text.advertiser_init
                0x0000000000031bb8        0xc CMakeFiles/light_switch_proxy_server_nrf52840_xxAA_s140_6.0.0.dir/__/__/__/mesh/bearer/src/advertiser.c.obj
                0x0000000000031bb8                advertiser_init
 .text.advertiser_instance_init
                0x0000000000031bc4      0x100 CMakeFiles/light_switch_proxy_server_nrf52840_xxAA_s140_6.0.0.dir/__/__/__/mesh/bearer/src/advertiser.c.obj
                0x0000000000031bc4                advertiser_instance_init
 .text.advertiser_enable
                0x0000000000031cc4       0x44 CMakeFiles/light_switch_proxy_server_nrf52840_xxAA_s140_6.0.0.dir/__/__/__/mesh/bearer/src/advertiser.c.obj
                0x0000000000031cc4                advertiser_enable
 .text.advertiser_packet_alloc
                0x0000000000031d08       0x80 CMakeFiles/light_switch_proxy_server_nrf52840_xxAA_s140_6.0.0.dir/__/__/__/mesh/bearer/src/advertiser.c.obj
                0x0000000000031d08                advertiser_packet_alloc
 .text.advertiser_packet_send
                0x0000000000031d88       0x84 CMakeFiles/light_switch_proxy_server_nrf52840_xxAA_s140_6.0.0.dir/__/__/__/mesh/bearer/src/advertiser.c.obj
                0x0000000000031d88                advertiser_packet_send
 .text.advertiser_packet_discard
                0x0000000000031e0c       0x2c CMakeFiles/light_switch_proxy_server_nrf52840_xxAA_s140_6.0.0.dir/__/__/__/mesh/bearer/src/advertiser.c.obj
                0x0000000000031e0c                advertiser_packet_discard
 .text.advertiser_interval_set
                0x0000000000031e38       0x6c CMakeFiles/light_switch_proxy_server_nrf52840_xxAA_s140_6.0.0.dir/__/__/__/mesh/bearer/src/advertiser.c.obj
                0x0000000000031e38                advertiser_interval_set
 .text.advertiser_flush
                0x0000000000031ea4       0x20 CMakeFiles/light_switch_proxy_server_nrf52840_xxAA_s140_6.0.0.dir/__/__/__/mesh/bearer/src/advertiser.c.obj
                0x0000000000031ea4                advertiser_flush
 .text.action_switch.part.2
                0x0000000000031ec4       0xb4 CMakeFiles/light_switch_proxy_server_nrf52840_xxAA_s140_6.0.0.dir/__/__/__/mesh/bearer/src/bearer_handler.c.obj
 .text.bearer_handler_init
                0x0000000000031f78       0x2c CMakeFiles/light_switch_proxy_server_nrf52840_xxAA_s140_6.0.0.dir/__/__/__/mesh/bearer/src/bearer_handler.c.obj
                0x0000000000031f78                bearer_handler_init
 .text.bearer_handler_start
                0x0000000000031fa4       0x1c CMakeFiles/light_switch_proxy_server_nrf52840_xxAA_s140_6.0.0.dir/__/__/__/mesh/bearer/src/bearer_handler.c.obj
                0x0000000000031fa4                bearer_handler_start
 .text.bearer_handler_stop
                0x0000000000031fc0       0x20 CMakeFiles/light_switch_proxy_server_nrf52840_xxAA_s140_6.0.0.dir/__/__/__/mesh/bearer/src/bearer_handler.c.obj
                0x0000000000031fc0                bearer_handler_stop
 .text.bearer_handler_action_enqueue
                0x0000000000031fe0       0x88 CMakeFiles/light_switch_proxy_server_nrf52840_xxAA_s140_6.0.0.dir/__/__/__/mesh/bearer/src/bearer_handler.c.obj
                0x0000000000031fe0                bearer_handler_action_enqueue
 .text.bearer_handler_action_end
                0x0000000000032068       0x68 CMakeFiles/light_switch_proxy_server_nrf52840_xxAA_s140_6.0.0.dir/__/__/__/mesh/bearer/src/bearer_handler.c.obj
                0x0000000000032068                bearer_handler_action_end
 .text.bearer_handler_radio_irq_handler
                0x00000000000320d0       0x58 CMakeFiles/light_switch_proxy_server_nrf52840_xxAA_s140_6.0.0.dir/__/__/__/mesh/bearer/src/bearer_handler.c.obj
                0x00000000000320d0                bearer_handler_radio_irq_handler
 .text.bearer_handler_timer_irq_handler
                0x0000000000032128       0x34 CMakeFiles/light_switch_proxy_server_nrf52840_xxAA_s140_6.0.0.dir/__/__/__/mesh/bearer/src/bearer_handler.c.obj
                0x0000000000032128                bearer_handler_timer_irq_handler
 .text.bearer_handler_on_ts_begin
                0x000000000003215c       0x3c CMakeFiles/light_switch_proxy_server_nrf52840_xxAA_s140_6.0.0.dir/__/__/__/mesh/bearer/src/bearer_handler.c.obj
                0x000000000003215c                bearer_handler_on_ts_begin
 .text.bearer_handler_on_ts_end
                0x0000000000032198       0x38 CMakeFiles/light_switch_proxy_server_nrf52840_xxAA_s140_6.0.0.dir/__/__/__/mesh/bearer/src/bearer_handler.c.obj
                0x0000000000032198                bearer_handler_on_ts_end
 .text.radio_irq_handler
                0x00000000000321d0       0x98 CMakeFiles/light_switch_proxy_server_nrf52840_xxAA_s140_6.0.0.dir/__/__/__/mesh/bearer/src/broadcast.c.obj
 .text.broadcast_start
                0x0000000000032268       0x8c CMakeFiles/light_switch_proxy_server_nrf52840_xxAA_s140_6.0.0.dir/__/__/__/mesh/bearer/src/broadcast.c.obj
 .text.broadcast_send
                0x00000000000322f4       0x74 CMakeFiles/light_switch_proxy_server_nrf52840_xxAA_s140_6.0.0.dir/__/__/__/mesh/bearer/src/broadcast.c.obj
                0x00000000000322f4                broadcast_send
 .text.fen_filter_start
                0x0000000000032368       0x38 CMakeFiles/light_switch_proxy_server_nrf52840_xxAA_s140_6.0.0.dir/__/__/__/mesh/bearer/src/filter_engine.c.obj
                0x0000000000032368                fen_filter_start
 .text.fen_filter_stop
                0x00000000000323a0       0x2c CMakeFiles/light_switch_proxy_server_nrf52840_xxAA_s140_6.0.0.dir/__/__/__/mesh/bearer/src/filter_engine.c.obj
                0x00000000000323a0                fen_filter_stop
 .text.fen_filters_apply
                0x00000000000323cc       0x34 CMakeFiles/light_switch_proxy_server_nrf52840_xxAA_s140_6.0.0.dir/__/__/__/mesh/bearer/src/filter_engine.c.obj
                0x00000000000323cc                fen_filters_apply
 .text.radio_config_reset
                0x0000000000032400       0x38 CMakeFiles/light_switch_proxy_server_nrf52840_xxAA_s140_6.0.0.dir/__/__/__/mesh/bearer/src/radio_config.c.obj
                0x0000000000032400                radio_config_reset
 .text.radio_config_channel_set
                0x0000000000032438       0x28 CMakeFiles/light_switch_proxy_server_nrf52840_xxAA_s140_6.0.0.dir/__/__/__/mesh/bearer/src/radio_config.c.obj
                0x0000000000032438                radio_config_channel_set
 .text.radio_config_config
                0x0000000000032460       0x94 CMakeFiles/light_switch_proxy_server_nrf52840_xxAA_s140_6.0.0.dir/__/__/__/mesh/bearer/src/radio_config.c.obj
                0x0000000000032460                radio_config_config
 .text.radio_config_access_addr_set
                0x00000000000324f4       0x58 CMakeFiles/light_switch_proxy_server_nrf52840_xxAA_s140_6.0.0.dir/__/__/__/mesh/bearer/src/radio_config.c.obj
                0x00000000000324f4                radio_config_access_addr_set
 .text.scan_window_end
                0x000000000003254c       0x28 CMakeFiles/light_switch_proxy_server_nrf52840_xxAA_s140_6.0.0.dir/__/__/__/mesh/bearer/src/scanner.c.obj
 .text.scan_window_start
                0x0000000000032574       0x38 CMakeFiles/light_switch_proxy_server_nrf52840_xxAA_s140_6.0.0.dir/__/__/__/mesh/bearer/src/scanner.c.obj
 .text.radio_start
                0x00000000000325ac      0x1a8 CMakeFiles/light_switch_proxy_server_nrf52840_xxAA_s140_6.0.0.dir/__/__/__/mesh/bearer/src/scanner.c.obj
 .text.scanner_radio_start
                0x0000000000032754      0x14c CMakeFiles/light_switch_proxy_server_nrf52840_xxAA_s140_6.0.0.dir/__/__/__/mesh/bearer/src/scanner.c.obj
                0x0000000000032754                scanner_radio_start
 .text.scanner_radio_stop
                0x00000000000328a0       0x34 CMakeFiles/light_switch_proxy_server_nrf52840_xxAA_s140_6.0.0.dir/__/__/__/mesh/bearer/src/scanner.c.obj
                0x00000000000328a0                scanner_radio_stop
 .text.scanner_radio_irq_handler
                0x00000000000328d4      0x200 CMakeFiles/light_switch_proxy_server_nrf52840_xxAA_s140_6.0.0.dir/__/__/__/mesh/bearer/src/scanner.c.obj
                0x00000000000328d4                scanner_radio_irq_handler
 .text.scanner_enable
                0x0000000000032ad4       0x50 CMakeFiles/light_switch_proxy_server_nrf52840_xxAA_s140_6.0.0.dir/__/__/__/mesh/bearer/src/scanner.c.obj
                0x0000000000032ad4                scanner_enable
 .text.scanner_disable
                0x0000000000032b24       0x50 CMakeFiles/light_switch_proxy_server_nrf52840_xxAA_s140_6.0.0.dir/__/__/__/mesh/bearer/src/scanner.c.obj
                0x0000000000032b24                scanner_disable
 .text.scanner_rx
                0x0000000000032b74       0x8c CMakeFiles/light_switch_proxy_server_nrf52840_xxAA_s140_6.0.0.dir/__/__/__/mesh/bearer/src/scanner.c.obj
                0x0000000000032b74                scanner_rx
 .text.scanner_packet_release
                0x0000000000032c00       0x40 CMakeFiles/light_switch_proxy_server_nrf52840_xxAA_s140_6.0.0.dir/__/__/__/mesh/bearer/src/scanner.c.obj
                0x0000000000032c00                scanner_packet_release
 .text.scanner_rx_pending
                0x0000000000032c40        0xc CMakeFiles/light_switch_proxy_server_nrf52840_xxAA_s140_6.0.0.dir/__/__/__/mesh/bearer/src/scanner.c.obj
                0x0000000000032c40                scanner_rx_pending
 .text.scanner_config_reset
                0x0000000000032c4c       0xa4 CMakeFiles/light_switch_proxy_server_nrf52840_xxAA_s140_6.0.0.dir/__/__/__/mesh/bearer/src/scanner.c.obj
                0x0000000000032c4c                scanner_config_reset
 .text.scanner_init
                0x0000000000032cf0       0x54 CMakeFiles/light_switch_proxy_server_nrf52840_xxAA_s140_6.0.0.dir/__/__/__/mesh/bearer/src/scanner.c.obj
                0x0000000000032cf0                scanner_init
 .text.sd_ble_gap_disconnect
                0x0000000000032d44        0x4 CMakeFiles/light_switch_proxy_server_nrf52840_xxAA_s140_6.0.0.dir/__/__/__/mesh/gatt/src/mesh_gatt.c.obj
 .text.sd_ble_gap_sec_params_reply
                0x0000000000032d48        0x4 CMakeFiles/light_switch_proxy_server_nrf52840_xxAA_s140_6.0.0.dir/__/__/__/mesh/gatt/src/mesh_gatt.c.obj
 .text.sd_ble_gap_phy_update
                0x0000000000032d4c        0x4 CMakeFiles/light_switch_proxy_server_nrf52840_xxAA_s140_6.0.0.dir/__/__/__/mesh/gatt/src/mesh_gatt.c.obj
 .text.sd_ble_gap_data_length_update
                0x0000000000032d50        0x4 CMakeFiles/light_switch_proxy_server_nrf52840_xxAA_s140_6.0.0.dir/__/__/__/mesh/gatt/src/mesh_gatt.c.obj
 .text.sd_ble_gatts_service_add
                0x0000000000032d54        0x4 CMakeFiles/light_switch_proxy_server_nrf52840_xxAA_s140_6.0.0.dir/__/__/__/mesh/gatt/src/mesh_gatt.c.obj
 .text.sd_ble_gatts_characteristic_add
                0x0000000000032d58        0x4 CMakeFiles/light_switch_proxy_server_nrf52840_xxAA_s140_6.0.0.dir/__/__/__/mesh/gatt/src/mesh_gatt.c.obj
 .text.sd_ble_gatts_hvx
                0x0000000000032d5c        0x4 CMakeFiles/light_switch_proxy_server_nrf52840_xxAA_s140_6.0.0.dir/__/__/__/mesh/gatt/src/mesh_gatt.c.obj
 .text.sd_ble_gatts_service_changed
                0x0000000000032d60        0x4 CMakeFiles/light_switch_proxy_server_nrf52840_xxAA_s140_6.0.0.dir/__/__/__/mesh/gatt/src/mesh_gatt.c.obj
 .text.sd_ble_gatts_sys_attr_set
                0x0000000000032d64        0x4 CMakeFiles/light_switch_proxy_server_nrf52840_xxAA_s140_6.0.0.dir/__/__/__/mesh/gatt/src/mesh_gatt.c.obj
 .text.sd_ble_gatts_exchange_mtu_reply
                0x0000000000032d68        0x4 CMakeFiles/light_switch_proxy_server_nrf52840_xxAA_s140_6.0.0.dir/__/__/__/mesh/gatt/src/mesh_gatt.c.obj
 .text.timeout_cb
                0x0000000000032d6c       0x1c CMakeFiles/light_switch_proxy_server_nrf52840_xxAA_s140_6.0.0.dir/__/__/__/mesh/gatt/src/mesh_gatt.c.obj
 .text.mesh_gatt_on_ble_evt
                0x0000000000032d88      0x5dc CMakeFiles/light_switch_proxy_server_nrf52840_xxAA_s140_6.0.0.dir/__/__/__/mesh/gatt/src/mesh_gatt.c.obj
                0x0000000000032d88                mesh_gatt_on_ble_evt
 .text.mesh_gatt_init
                0x0000000000033364      0x16c CMakeFiles/light_switch_proxy_server_nrf52840_xxAA_s140_6.0.0.dir/__/__/__/mesh/gatt/src/mesh_gatt.c.obj
                0x0000000000033364                mesh_gatt_init
 .text.mesh_gatt_packet_alloc
                0x00000000000334d0       0x8c CMakeFiles/light_switch_proxy_server_nrf52840_xxAA_s140_6.0.0.dir/__/__/__/mesh/gatt/src/mesh_gatt.c.obj
                0x00000000000334d0                mesh_gatt_packet_alloc
 .text.mesh_gatt_packet_send
                0x000000000003355c      0x1f4 CMakeFiles/light_switch_proxy_server_nrf52840_xxAA_s140_6.0.0.dir/__/__/__/mesh/gatt/src/mesh_gatt.c.obj
                0x000000000003355c                mesh_gatt_packet_send
 .text.mesh_gatt_packet_discard
                0x0000000000033750       0x50 CMakeFiles/light_switch_proxy_server_nrf52840_xxAA_s140_6.0.0.dir/__/__/__/mesh/gatt/src/mesh_gatt.c.obj
                0x0000000000033750                mesh_gatt_packet_discard
 .text.mesh_gatt_disconnect
                0x00000000000337a0       0x34 CMakeFiles/light_switch_proxy_server_nrf52840_xxAA_s140_6.0.0.dir/__/__/__/mesh/gatt/src/mesh_gatt.c.obj
                0x00000000000337a0                mesh_gatt_disconnect
 .text.core_tx_packet_alloc_cb
                0x00000000000337d4       0x74 CMakeFiles/light_switch_proxy_server_nrf52840_xxAA_s140_6.0.0.dir/__/__/__/mesh/gatt/src/proxy.c.obj
 .text.adv_start
                0x0000000000033848      0x12c CMakeFiles/light_switch_proxy_server_nrf52840_xxAA_s140_6.0.0.dir/__/__/__/mesh/gatt/src/proxy.c.obj
 .text.core_tx_packet_discard_cb
                0x0000000000033974       0x50 CMakeFiles/light_switch_proxy_server_nrf52840_xxAA_s140_6.0.0.dir/__/__/__/mesh/gatt/src/proxy.c.obj
 .text.core_tx_packet_send_cb
                0x00000000000339c4       0x8c CMakeFiles/light_switch_proxy_server_nrf52840_xxAA_s140_6.0.0.dir/__/__/__/mesh/gatt/src/proxy.c.obj
 .text.adv_timer_handler
                0x0000000000033a50       0xec CMakeFiles/light_switch_proxy_server_nrf52840_xxAA_s140_6.0.0.dir/__/__/__/mesh/gatt/src/proxy.c.obj
 .text.mesh_evt_handle
                0x0000000000033b3c       0xa8 CMakeFiles/light_switch_proxy_server_nrf52840_xxAA_s140_6.0.0.dir/__/__/__/mesh/gatt/src/proxy.c.obj
 .text.gatt_evt_handler
                0x0000000000033be4      0x7c0 CMakeFiles/light_switch_proxy_server_nrf52840_xxAA_s140_6.0.0.dir/__/__/__/mesh/gatt/src/proxy.c.obj
 .text.proxy_init
                0x00000000000343a4       0x90 CMakeFiles/light_switch_proxy_server_nrf52840_xxAA_s140_6.0.0.dir/__/__/__/mesh/gatt/src/proxy.c.obj
                0x00000000000343a4                proxy_init
 .text.proxy_subnet_added
                0x0000000000034434       0xd4 CMakeFiles/light_switch_proxy_server_nrf52840_xxAA_s140_6.0.0.dir/__/__/__/mesh/gatt/src/proxy.c.obj
                0x0000000000034434                proxy_subnet_added
 .text.proxy_net_packet_processed
                0x0000000000034508       0x40 CMakeFiles/light_switch_proxy_server_nrf52840_xxAA_s140_6.0.0.dir/__/__/__/mesh/gatt/src/proxy.c.obj
                0x0000000000034508                proxy_net_packet_processed
 .text.proxy_enable
                0x0000000000034548      0x120 CMakeFiles/light_switch_proxy_server_nrf52840_xxAA_s140_6.0.0.dir/__/__/__/mesh/gatt/src/proxy.c.obj
                0x0000000000034548                proxy_enable
 .text.proxy_node_id_enable
                0x0000000000034668      0x144 CMakeFiles/light_switch_proxy_server_nrf52840_xxAA_s140_6.0.0.dir/__/__/__/mesh/gatt/src/proxy.c.obj
                0x0000000000034668                proxy_node_id_enable
 .text.proxy_node_id_is_enabled
                0x00000000000347ac       0x30 CMakeFiles/light_switch_proxy_server_nrf52840_xxAA_s140_6.0.0.dir/__/__/__/mesh/gatt/src/proxy.c.obj
                0x00000000000347ac                proxy_node_id_is_enabled
 .text.proxy_node_id_disable
                0x00000000000347dc      0x124 CMakeFiles/light_switch_proxy_server_nrf52840_xxAA_s140_6.0.0.dir/__/__/__/mesh/gatt/src/proxy.c.obj
                0x00000000000347dc                proxy_node_id_disable
 .text.proxy_disable
                0x0000000000034900       0x4c CMakeFiles/light_switch_proxy_server_nrf52840_xxAA_s140_6.0.0.dir/__/__/__/mesh/gatt/src/proxy.c.obj
                0x0000000000034900                proxy_disable
 .text.proxy_is_enabled
                0x000000000003494c        0xc CMakeFiles/light_switch_proxy_server_nrf52840_xxAA_s140_6.0.0.dir/__/__/__/mesh/gatt/src/proxy.c.obj
                0x000000000003494c                proxy_is_enabled
 .text.proxy_filter_clear
                0x0000000000034958       0x24 CMakeFiles/light_switch_proxy_server_nrf52840_xxAA_s140_6.0.0.dir/__/__/__/mesh/gatt/src/proxy_filter.c.obj
                0x0000000000034958                proxy_filter_clear
 .text.proxy_filter_type_set
                0x000000000003497c       0x30 CMakeFiles/light_switch_proxy_server_nrf52840_xxAA_s140_6.0.0.dir/__/__/__/mesh/gatt/src/proxy_filter.c.obj
                0x000000000003497c                proxy_filter_type_set
 .text.proxy_filter_add
                0x00000000000349ac       0x80 CMakeFiles/light_switch_proxy_server_nrf52840_xxAA_s140_6.0.0.dir/__/__/__/mesh/gatt/src/proxy_filter.c.obj
                0x00000000000349ac                proxy_filter_add
 .text.proxy_filter_remove
                0x0000000000034a2c       0x7c CMakeFiles/light_switch_proxy_server_nrf52840_xxAA_s140_6.0.0.dir/__/__/__/mesh/gatt/src/proxy_filter.c.obj
                0x0000000000034a2c                proxy_filter_remove
 .text.proxy_filter_accept
                0x0000000000034aa8       0x54 CMakeFiles/light_switch_proxy_server_nrf52840_xxAA_s140_6.0.0.dir/__/__/__/mesh/gatt/src/proxy_filter.c.obj
                0x0000000000034aa8                proxy_filter_accept
 .text.handle_get_cb
                0x0000000000034afc       0x4c CMakeFiles/light_switch_proxy_server_nrf52840_xxAA_s140_6.0.0.dir/__/__/__/models/simple_on_off/src/simple_on_off_server.c.obj
 .text.handle_set_unreliable_cb
                0x0000000000034b48       0x54 CMakeFiles/light_switch_proxy_server_nrf52840_xxAA_s140_6.0.0.dir/__/__/__/models/simple_on_off/src/simple_on_off_server.c.obj
 .text.handle_set_cb
                0x0000000000034b9c       0x80 CMakeFiles/light_switch_proxy_server_nrf52840_xxAA_s140_6.0.0.dir/__/__/__/models/simple_on_off/src/simple_on_off_server.c.obj
 .text.simple_on_off_server_init
                0x0000000000034c1c       0x3c CMakeFiles/light_switch_proxy_server_nrf52840_xxAA_s140_6.0.0.dir/__/__/__/models/simple_on_off/src/simple_on_off_server.c.obj
                0x0000000000034c1c                simple_on_off_server_init
 .text.simple_on_off_server_status_publish
                0x0000000000034c58       0x34 CMakeFiles/light_switch_proxy_server_nrf52840_xxAA_s140_6.0.0.dir/__/__/__/models/simple_on_off/src/simple_on_off_server.c.obj
                0x0000000000034c58                simple_on_off_server_status_publish
 .text.config_composition_data_get
                0x0000000000034c8c      0x1cc CMakeFiles/light_switch_proxy_server_nrf52840_xxAA_s140_6.0.0.dir/__/__/__/models/config/src/composition_data.c.obj
                0x0000000000034c8c                config_composition_data_get
 .text.config_server_heartbeat_publication_count_decrement
                0x0000000000034e58       0x1c CMakeFiles/light_switch_proxy_server_nrf52840_xxAA_s140_6.0.0.dir/__/__/__/models/config/src/config_server.c.obj
 .text.config_server_heartbeat_publication_params_get
                0x0000000000034e74       0x38 CMakeFiles/light_switch_proxy_server_nrf52840_xxAA_s140_6.0.0.dir/__/__/__/models/config/src/config_server.c.obj
 .text.handle_config_network_transmit_set
                0x0000000000034eac      0x118 CMakeFiles/light_switch_proxy_server_nrf52840_xxAA_s140_6.0.0.dir/__/__/__/models/config/src/config_server.c.obj
 .text.handle_node_reset
                0x0000000000034fc4       0x30 CMakeFiles/light_switch_proxy_server_nrf52840_xxAA_s140_6.0.0.dir/__/__/__/models/config/src/config_server.c.obj
 .text.handle_config_relay_set
                0x0000000000034ff4      0x1a8 CMakeFiles/light_switch_proxy_server_nrf52840_xxAA_s140_6.0.0.dir/__/__/__/models/config/src/config_server.c.obj
 .text.send_subscription_status
                0x000000000003519c       0x50 CMakeFiles/light_switch_proxy_server_nrf52840_xxAA_s140_6.0.0.dir/__/__/__/models/config/src/config_server.c.obj
 .text.handle_node_identity_set
                0x00000000000351ec       0xec CMakeFiles/light_switch_proxy_server_nrf52840_xxAA_s140_6.0.0.dir/__/__/__/models/config/src/config_server.c.obj
 .text.handle_netkey_get
                0x00000000000352d8       0x70 CMakeFiles/light_switch_proxy_server_nrf52840_xxAA_s140_6.0.0.dir/__/__/__/models/config/src/config_server.c.obj
 .text.handle_model_app_bind_unbind
                0x0000000000035348      0x228 CMakeFiles/light_switch_proxy_server_nrf52840_xxAA_s140_6.0.0.dir/__/__/__/models/config/src/config_server.c.obj
 .text.status_error_sub_send
                0x0000000000035570      0x180 CMakeFiles/light_switch_proxy_server_nrf52840_xxAA_s140_6.0.0.dir/__/__/__/models/config/src/config_server.c.obj
 .text.send_publication_status
                0x00000000000356f0      0x1a8 CMakeFiles/light_switch_proxy_server_nrf52840_xxAA_s140_6.0.0.dir/__/__/__/models/config/src/config_server.c.obj
 .text.handle_config_key_refresh_phase_set
                0x0000000000035898       0xf0 CMakeFiles/light_switch_proxy_server_nrf52840_xxAA_s140_6.0.0.dir/__/__/__/models/config/src/config_server.c.obj
 .text.handle_config_default_ttl_set
                0x0000000000035988       0x70 CMakeFiles/light_switch_proxy_server_nrf52840_xxAA_s140_6.0.0.dir/__/__/__/models/config/src/config_server.c.obj
 .text.handle_heartbeat_publication_set
                0x00000000000359f8      0x168 CMakeFiles/light_switch_proxy_server_nrf52840_xxAA_s140_6.0.0.dir/__/__/__/models/config/src/config_server.c.obj
 .text.mesh_event_cb
                0x0000000000035b60       0x70 CMakeFiles/light_switch_proxy_server_nrf52840_xxAA_s140_6.0.0.dir/__/__/__/models/config/src/config_server.c.obj
 .text.handle_config_friend_set
                0x0000000000035bd0       0x40 CMakeFiles/light_switch_proxy_server_nrf52840_xxAA_s140_6.0.0.dir/__/__/__/models/config/src/config_server.c.obj
 .text.handle_config_gatt_proxy_set
                0x0000000000035c10       0x5c CMakeFiles/light_switch_proxy_server_nrf52840_xxAA_s140_6.0.0.dir/__/__/__/models/config/src/config_server.c.obj
 .text.handle_config_key_refresh_phase_get
                0x0000000000035c6c       0x70 CMakeFiles/light_switch_proxy_server_nrf52840_xxAA_s140_6.0.0.dir/__/__/__/models/config/src/config_server.c.obj
 .text.handle_node_identity_get
                0x0000000000035cdc       0x88 CMakeFiles/light_switch_proxy_server_nrf52840_xxAA_s140_6.0.0.dir/__/__/__/models/config/src/config_server.c.obj
 .text.status_error_pub_send
                0x0000000000035d64       0xc8 CMakeFiles/light_switch_proxy_server_nrf52840_xxAA_s140_6.0.0.dir/__/__/__/models/config/src/config_server.c.obj
 .text.handle_config_default_ttl_get
                0x0000000000035e2c       0x48 CMakeFiles/light_switch_proxy_server_nrf52840_xxAA_s140_6.0.0.dir/__/__/__/models/config/src/config_server.c.obj
 .text.handle_config_beacon_set
                0x0000000000035e74       0x80 CMakeFiles/light_switch_proxy_server_nrf52840_xxAA_s140_6.0.0.dir/__/__/__/models/config/src/config_server.c.obj
 .text.handle_composition_data_get
                0x0000000000035ef4       0x64 CMakeFiles/light_switch_proxy_server_nrf52840_xxAA_s140_6.0.0.dir/__/__/__/models/config/src/config_server.c.obj
 .text.handle_appkey_update
                0x0000000000035f58      0x108 CMakeFiles/light_switch_proxy_server_nrf52840_xxAA_s140_6.0.0.dir/__/__/__/models/config/src/config_server.c.obj
 .text.handle_model_app_get
                0x0000000000036060      0x230 CMakeFiles/light_switch_proxy_server_nrf52840_xxAA_s140_6.0.0.dir/__/__/__/models/config/src/config_server.c.obj
 .text.handle_appkey_get
                0x0000000000036290      0x100 CMakeFiles/light_switch_proxy_server_nrf52840_xxAA_s140_6.0.0.dir/__/__/__/models/config/src/config_server.c.obj
 .text.handle_heartbeat_subscription_get
                0x0000000000036390       0xdc CMakeFiles/light_switch_proxy_server_nrf52840_xxAA_s140_6.0.0.dir/__/__/__/models/config/src/config_server.c.obj
 .text.handle_config_friend_get
                0x000000000003646c       0x38 CMakeFiles/light_switch_proxy_server_nrf52840_xxAA_s140_6.0.0.dir/__/__/__/models/config/src/config_server.c.obj
 .text.handle_heartbeat_subscription_set
                0x00000000000364a4      0x114 CMakeFiles/light_switch_proxy_server_nrf52840_xxAA_s140_6.0.0.dir/__/__/__/models/config/src/config_server.c.obj
 .text.handle_heartbeat_publication_get
                0x00000000000365b8       0xcc CMakeFiles/light_switch_proxy_server_nrf52840_xxAA_s140_6.0.0.dir/__/__/__/models/config/src/config_server.c.obj
 .text.handle_config_beacon_get
                0x0000000000036684       0x40 CMakeFiles/light_switch_proxy_server_nrf52840_xxAA_s140_6.0.0.dir/__/__/__/models/config/src/config_server.c.obj
 .text.handle_config_gatt_proxy_get
                0x00000000000366c4       0x44 CMakeFiles/light_switch_proxy_server_nrf52840_xxAA_s140_6.0.0.dir/__/__/__/models/config/src/config_server.c.obj
 .text.handle_appkey_delete
                0x0000000000036708      0x11c CMakeFiles/light_switch_proxy_server_nrf52840_xxAA_s140_6.0.0.dir/__/__/__/models/config/src/config_server.c.obj
 .text.handle_appkey_add
                0x0000000000036824      0x124 CMakeFiles/light_switch_proxy_server_nrf52840_xxAA_s140_6.0.0.dir/__/__/__/models/config/src/config_server.c.obj
 .text.handle_config_vendor_model_subscription_get
                0x0000000000036948      0x18c CMakeFiles/light_switch_proxy_server_nrf52840_xxAA_s140_6.0.0.dir/__/__/__/models/config/src/config_server.c.obj
 .text.handle_netkey_add_update
                0x0000000000036ad4       0xec CMakeFiles/light_switch_proxy_server_nrf52840_xxAA_s140_6.0.0.dir/__/__/__/models/config/src/config_server.c.obj
 .text.handle_netkey_delete
                0x0000000000036bc0      0x14c CMakeFiles/light_switch_proxy_server_nrf52840_xxAA_s140_6.0.0.dir/__/__/__/models/config/src/config_server.c.obj
 .text.handle_config_network_transmit_get
                0x0000000000036d0c       0x94 CMakeFiles/light_switch_proxy_server_nrf52840_xxAA_s140_6.0.0.dir/__/__/__/models/config/src/config_server.c.obj
 .text.handle_config_model_publication_get
                0x0000000000036da0      0x144 CMakeFiles/light_switch_proxy_server_nrf52840_xxAA_s140_6.0.0.dir/__/__/__/models/config/src/config_server.c.obj
 .text.handle_config_relay_get
                0x0000000000036ee4       0xcc CMakeFiles/light_switch_proxy_server_nrf52840_xxAA_s140_6.0.0.dir/__/__/__/models/config/src/config_server.c.obj
 .text.handle_config_model_publication_set
                0x0000000000036fb0      0x3d4 CMakeFiles/light_switch_proxy_server_nrf52840_xxAA_s140_6.0.0.dir/__/__/__/models/config/src/config_server.c.obj
 .text.handle_config_model_subscription_delete_all
                0x0000000000037384      0x2ec CMakeFiles/light_switch_proxy_server_nrf52840_xxAA_s140_6.0.0.dir/__/__/__/models/config/src/config_server.c.obj
 .text.handle_config_model_subscription_virtual_address_delete
                0x0000000000037670      0x2e0 CMakeFiles/light_switch_proxy_server_nrf52840_xxAA_s140_6.0.0.dir/__/__/__/models/config/src/config_server.c.obj
 .text.handle_config_model_subscription_virtual_address_add
                0x0000000000037950      0x2cc CMakeFiles/light_switch_proxy_server_nrf52840_xxAA_s140_6.0.0.dir/__/__/__/models/config/src/config_server.c.obj
 .text.handle_config_model_subscription_delete
                0x0000000000037c1c      0x2dc CMakeFiles/light_switch_proxy_server_nrf52840_xxAA_s140_6.0.0.dir/__/__/__/models/config/src/config_server.c.obj
 .text.handle_config_model_subscription_add
                0x0000000000037ef8      0x2a8 CMakeFiles/light_switch_proxy_server_nrf52840_xxAA_s140_6.0.0.dir/__/__/__/models/config/src/config_server.c.obj
 .text.handle_config_model_subscription_virtual_address_overwrite
                0x00000000000381a0      0x354 CMakeFiles/light_switch_proxy_server_nrf52840_xxAA_s140_6.0.0.dir/__/__/__/models/config/src/config_server.c.obj
 .text.handle_config_model_subscription_overwrite
                0x00000000000384f4      0x334 CMakeFiles/light_switch_proxy_server_nrf52840_xxAA_s140_6.0.0.dir/__/__/__/models/config/src/config_server.c.obj
 .text.handle_config_sig_model_subscription_get
                0x0000000000038828      0x2a0 CMakeFiles/light_switch_proxy_server_nrf52840_xxAA_s140_6.0.0.dir/__/__/__/models/config/src/config_server.c.obj
 .text.config_server_init
                0x0000000000038ac8       0x70 CMakeFiles/light_switch_proxy_server_nrf52840_xxAA_s140_6.0.0.dir/__/__/__/models/config/src/config_server.c.obj
                0x0000000000038ac8                config_server_init
 .text.config_server_bind
                0x0000000000038b38       0x10 CMakeFiles/light_switch_proxy_server_nrf52840_xxAA_s140_6.0.0.dir/__/__/__/models/config/src/config_server.c.obj
                0x0000000000038b38                config_server_bind
 .text.packed_index_list_create
                0x0000000000038b48       0x3c CMakeFiles/light_switch_proxy_server_nrf52840_xxAA_s140_6.0.0.dir/__/__/__/models/config/src/packed_index_list.c.obj
                0x0000000000038b48                packed_index_list_create
 .text.attention_timer_handler
                0x0000000000038b84       0x6c CMakeFiles/light_switch_proxy_server_nrf52840_xxAA_s140_6.0.0.dir/__/__/__/models/health/src/health_server.c.obj
 .text.handle_attention_get
                0x0000000000038bf0       0x40 CMakeFiles/light_switch_proxy_server_nrf52840_xxAA_s140_6.0.0.dir/__/__/__/models/health/src/health_server.c.obj
 .text.handle_period_get
                0x0000000000038c30       0x3c CMakeFiles/light_switch_proxy_server_nrf52840_xxAA_s140_6.0.0.dir/__/__/__/models/health/src/health_server.c.obj
 .text.handle_attention_set
                0x0000000000038c6c       0xdc CMakeFiles/light_switch_proxy_server_nrf52840_xxAA_s140_6.0.0.dir/__/__/__/models/health/src/health_server.c.obj
 .text.handle_period_set
                0x0000000000038d48       0x54 CMakeFiles/light_switch_proxy_server_nrf52840_xxAA_s140_6.0.0.dir/__/__/__/models/health/src/health_server.c.obj
 .text.send_fault_status
                0x0000000000038d9c      0x3b4 CMakeFiles/light_switch_proxy_server_nrf52840_xxAA_s140_6.0.0.dir/__/__/__/models/health/src/health_server.c.obj
 .text.health_publish_timeout_handler
                0x0000000000039150        0xc CMakeFiles/light_switch_proxy_server_nrf52840_xxAA_s140_6.0.0.dir/__/__/__/models/health/src/health_server.c.obj
 .text.handle_fault_test
                0x000000000003915c       0x8c CMakeFiles/light_switch_proxy_server_nrf52840_xxAA_s140_6.0.0.dir/__/__/__/models/health/src/health_server.c.obj
 .text.handle_fault_clear
                0x00000000000391e8       0x54 CMakeFiles/light_switch_proxy_server_nrf52840_xxAA_s140_6.0.0.dir/__/__/__/models/health/src/health_server.c.obj
 .text.handle_fault_get
                0x000000000003923c       0x40 CMakeFiles/light_switch_proxy_server_nrf52840_xxAA_s140_6.0.0.dir/__/__/__/models/health/src/health_server.c.obj
 .text.health_server_init
                0x000000000003927c       0x68 CMakeFiles/light_switch_proxy_server_nrf52840_xxAA_s140_6.0.0.dir/__/__/__/models/health/src/health_server.c.obj
                0x000000000003927c                health_server_init
 .text.schedule_publication_timer
                0x00000000000392e4      0x2d0 CMakeFiles/light_switch_proxy_server_nrf52840_xxAA_s140_6.0.0.dir/__/__/__/mesh/access/src/access_publish.c.obj
 .text.publish_timer_tick
                0x00000000000395b4      0x140 CMakeFiles/light_switch_proxy_server_nrf52840_xxAA_s140_6.0.0.dir/__/__/__/mesh/access/src/access_publish.c.obj
 .text.access_publish_init
                0x00000000000396f4       0x38 CMakeFiles/light_switch_proxy_server_nrf52840_xxAA_s140_6.0.0.dir/__/__/__/mesh/access/src/access_publish.c.obj
                0x00000000000396f4                access_publish_init
 .text.access_publish_period_set
                0x000000000003972c      0x118 CMakeFiles/light_switch_proxy_server_nrf52840_xxAA_s140_6.0.0.dir/__/__/__/mesh/access/src/access_publish.c.obj
                0x000000000003972c                access_publish_period_set
 .text.access_publish_period_get
                0x0000000000039844       0x2c CMakeFiles/light_switch_proxy_server_nrf52840_xxAA_s140_6.0.0.dir/__/__/__/mesh/access/src/access_publish.c.obj
                0x0000000000039844                access_publish_period_get
 .text.flash_manager_mem_available
                0x0000000000039870        0x4 CMakeFiles/light_switch_proxy_server_nrf52840_xxAA_s140_6.0.0.dir/__/__/__/mesh/access/src/access.c.obj
 .text.flash_invalidate_complete
                0x0000000000039874        0x8 CMakeFiles/light_switch_proxy_server_nrf52840_xxAA_s140_6.0.0.dir/__/__/__/mesh/access/src/access.c.obj
 .text.access_flash_config_clear
                0x000000000003987c       0x28 CMakeFiles/light_switch_proxy_server_nrf52840_xxAA_s140_6.0.0.dir/__/__/__/mesh/access/src/access.c.obj
 .text.handle_incoming
                0x00000000000398a4      0x190 CMakeFiles/light_switch_proxy_server_nrf52840_xxAA_s140_6.0.0.dir/__/__/__/mesh/access/src/access.c.obj
 .text.mesh_evt_cb
                0x0000000000039a34      0x158 CMakeFiles/light_switch_proxy_server_nrf52840_xxAA_s140_6.0.0.dir/__/__/__/mesh/access/src/access.c.obj
 .text.add_flash_manager
                0x0000000000039b8c       0x58 CMakeFiles/light_switch_proxy_server_nrf52840_xxAA_s140_6.0.0.dir/__/__/__/mesh/access/src/access.c.obj
 .text.flash_write_complete
                0x0000000000039be4       0x4c CMakeFiles/light_switch_proxy_server_nrf52840_xxAA_s140_6.0.0.dir/__/__/__/mesh/access/src/access.c.obj
 .text.access_flash_config_store
                0x0000000000039c30      0x180 CMakeFiles/light_switch_proxy_server_nrf52840_xxAA_s140_6.0.0.dir/__/__/__/mesh/access/src/access.c.obj
                0x0000000000039c30                access_flash_config_store
 .text.flash_remove_complete
                0x0000000000039db0       0xb4 CMakeFiles/light_switch_proxy_server_nrf52840_xxAA_s140_6.0.0.dir/__/__/__/mesh/access/src/access.c.obj
 .text.access_flash_config_load
                0x0000000000039e64      0x288 CMakeFiles/light_switch_proxy_server_nrf52840_xxAA_s140_6.0.0.dir/__/__/__/mesh/access/src/access.c.obj
                0x0000000000039e64                access_flash_config_load
 .text.access_clear
                0x000000000003a0ec       0x70 CMakeFiles/light_switch_proxy_server_nrf52840_xxAA_s140_6.0.0.dir/__/__/__/mesh/access/src/access.c.obj
                0x000000000003a0ec                access_clear
 .text.access_init
                0x000000000003a15c       0xb8 CMakeFiles/light_switch_proxy_server_nrf52840_xxAA_s140_6.0.0.dir/__/__/__/mesh/access/src/access.c.obj
                0x000000000003a15c                access_init
 .text.access_model_add
                0x000000000003a214      0x23c CMakeFiles/light_switch_proxy_server_nrf52840_xxAA_s140_6.0.0.dir/__/__/__/mesh/access/src/access.c.obj
                0x000000000003a214                access_model_add
 .text.access_model_publish
                0x000000000003a450      0x3c8 CMakeFiles/light_switch_proxy_server_nrf52840_xxAA_s140_6.0.0.dir/__/__/__/mesh/access/src/access.c.obj
                0x000000000003a450                access_model_publish
 .text.access_model_reply
                0x000000000003a818      0x3e4 CMakeFiles/light_switch_proxy_server_nrf52840_xxAA_s140_6.0.0.dir/__/__/__/mesh/access/src/access.c.obj
                0x000000000003a818                access_model_reply
 .text.access_model_publish_address_set
                0x000000000003abfc       0x3c CMakeFiles/light_switch_proxy_server_nrf52840_xxAA_s140_6.0.0.dir/__/__/__/mesh/access/src/access.c.obj
                0x000000000003abfc                access_model_publish_address_set
 .text.access_model_publish_address_get
                0x000000000003ac38       0x2c CMakeFiles/light_switch_proxy_server_nrf52840_xxAA_s140_6.0.0.dir/__/__/__/mesh/access/src/access.c.obj
                0x000000000003ac38                access_model_publish_address_get
 .text.access_model_publish_retransmit_set
                0x000000000003ac64       0x58 CMakeFiles/light_switch_proxy_server_nrf52840_xxAA_s140_6.0.0.dir/__/__/__/mesh/access/src/access.c.obj
                0x000000000003ac64                access_model_publish_retransmit_set
 .text.access_model_publish_retransmit_get
                0x000000000003acbc       0x2c CMakeFiles/light_switch_proxy_server_nrf52840_xxAA_s140_6.0.0.dir/__/__/__/mesh/access/src/access.c.obj
                0x000000000003acbc                access_model_publish_retransmit_get
 .text.access_model_publish_period_set
                0x000000000003ace8       0x78 CMakeFiles/light_switch_proxy_server_nrf52840_xxAA_s140_6.0.0.dir/__/__/__/mesh/access/src/access.c.obj
                0x000000000003ace8                access_model_publish_period_set
 .text.access_model_publish_period_get
                0x000000000003ad60       0x40 CMakeFiles/light_switch_proxy_server_nrf52840_xxAA_s140_6.0.0.dir/__/__/__/mesh/access/src/access.c.obj
                0x000000000003ad60                access_model_publish_period_get
 .text.access_model_subscription_list_alloc
                0x000000000003ada0       0x44 CMakeFiles/light_switch_proxy_server_nrf52840_xxAA_s140_6.0.0.dir/__/__/__/mesh/access/src/access.c.obj
                0x000000000003ada0                access_model_subscription_list_alloc
 .text.access_model_subscription_add
                0x000000000003ade4       0x64 CMakeFiles/light_switch_proxy_server_nrf52840_xxAA_s140_6.0.0.dir/__/__/__/mesh/access/src/access.c.obj
                0x000000000003ade4                access_model_subscription_add
 .text.access_model_subscription_remove
                0x000000000003ae48       0x60 CMakeFiles/light_switch_proxy_server_nrf52840_xxAA_s140_6.0.0.dir/__/__/__/mesh/access/src/access.c.obj
                0x000000000003ae48                access_model_subscription_remove
 .text.access_model_subscriptions_get
                0x000000000003aea8       0x74 CMakeFiles/light_switch_proxy_server_nrf52840_xxAA_s140_6.0.0.dir/__/__/__/mesh/access/src/access.c.obj
                0x000000000003aea8                access_model_subscriptions_get
 .text.access_model_application_bind
                0x000000000003af1c       0x5c CMakeFiles/light_switch_proxy_server_nrf52840_xxAA_s140_6.0.0.dir/__/__/__/mesh/access/src/access.c.obj
                0x000000000003af1c                access_model_application_bind
 .text.access_model_application_unbind
                0x000000000003af78       0x58 CMakeFiles/light_switch_proxy_server_nrf52840_xxAA_s140_6.0.0.dir/__/__/__/mesh/access/src/access.c.obj
                0x000000000003af78                access_model_application_unbind
 .text.access_model_applications_get
                0x000000000003afd0      0x100 CMakeFiles/light_switch_proxy_server_nrf52840_xxAA_s140_6.0.0.dir/__/__/__/mesh/access/src/access.c.obj
                0x000000000003afd0                access_model_applications_get
 .text.access_model_publish_application_set
                0x000000000003b0d0       0x3c CMakeFiles/light_switch_proxy_server_nrf52840_xxAA_s140_6.0.0.dir/__/__/__/mesh/access/src/access.c.obj
                0x000000000003b0d0                access_model_publish_application_set
 .text.access_model_publish_application_get
                0x000000000003b10c       0x2c CMakeFiles/light_switch_proxy_server_nrf52840_xxAA_s140_6.0.0.dir/__/__/__/mesh/access/src/access.c.obj
                0x000000000003b10c                access_model_publish_application_get
 .text.access_default_ttl_set
                0x000000000003b138       0x1c CMakeFiles/light_switch_proxy_server_nrf52840_xxAA_s140_6.0.0.dir/__/__/__/mesh/access/src/access.c.obj
                0x000000000003b138                access_default_ttl_set
 .text.access_default_ttl_get
                0x000000000003b154        0xc CMakeFiles/light_switch_proxy_server_nrf52840_xxAA_s140_6.0.0.dir/__/__/__/mesh/access/src/access.c.obj
                0x000000000003b154                access_default_ttl_get
 .text.access_model_publish_ttl_set
                0x000000000003b160       0x40 CMakeFiles/light_switch_proxy_server_nrf52840_xxAA_s140_6.0.0.dir/__/__/__/mesh/access/src/access.c.obj
                0x000000000003b160                access_model_publish_ttl_set
 .text.access_model_publish_ttl_get
                0x000000000003b1a0       0x2c CMakeFiles/light_switch_proxy_server_nrf52840_xxAA_s140_6.0.0.dir/__/__/__/mesh/access/src/access.c.obj
                0x000000000003b1a0                access_model_publish_ttl_get
 .text.access_element_location_get
                0x000000000003b1cc       0x18 CMakeFiles/light_switch_proxy_server_nrf52840_xxAA_s140_6.0.0.dir/__/__/__/mesh/access/src/access.c.obj
                0x000000000003b1cc                access_element_location_get
 .text.access_element_sig_model_count_get
                0x000000000003b1e4       0x18 CMakeFiles/light_switch_proxy_server_nrf52840_xxAA_s140_6.0.0.dir/__/__/__/mesh/access/src/access.c.obj
                0x000000000003b1e4                access_element_sig_model_count_get
 .text.access_element_vendor_model_count_get
                0x000000000003b1fc       0x18 CMakeFiles/light_switch_proxy_server_nrf52840_xxAA_s140_6.0.0.dir/__/__/__/mesh/access/src/access.c.obj
                0x000000000003b1fc                access_element_vendor_model_count_get
 .text.access_model_id_get
                0x000000000003b214       0x40 CMakeFiles/light_switch_proxy_server_nrf52840_xxAA_s140_6.0.0.dir/__/__/__/mesh/access/src/access.c.obj
                0x000000000003b214                access_model_id_get
 .text.access_handle_get
                0x000000000003b254       0x78 CMakeFiles/light_switch_proxy_server_nrf52840_xxAA_s140_6.0.0.dir/__/__/__/mesh/access/src/access.c.obj
                0x000000000003b254                access_handle_get
 .text.access_element_models_get
                0x000000000003b2cc       0x88 CMakeFiles/light_switch_proxy_server_nrf52840_xxAA_s140_6.0.0.dir/__/__/__/mesh/access/src/access.c.obj
                0x000000000003b2cc                access_element_models_get
 .text.access_model_p_args_get
                0x000000000003b354       0x2c CMakeFiles/light_switch_proxy_server_nrf52840_xxAA_s140_6.0.0.dir/__/__/__/mesh/access/src/access.c.obj
                0x000000000003b354                access_model_p_args_get
 .text.access_model_publication_stop
                0x000000000003b380       0x5c CMakeFiles/light_switch_proxy_server_nrf52840_xxAA_s140_6.0.0.dir/__/__/__/mesh/access/src/access.c.obj
                0x000000000003b380                access_model_publication_stop
 .text.access_model_publication_by_appkey_stop
                0x000000000003b3dc       0xdc CMakeFiles/light_switch_proxy_server_nrf52840_xxAA_s140_6.0.0.dir/__/__/__/mesh/access/src/access.c.obj
                0x000000000003b3dc                access_model_publication_by_appkey_stop
 .text.remove_and_reschedule
                0x000000000003b4b8       0xf0 CMakeFiles/light_switch_proxy_server_nrf52840_xxAA_s140_6.0.0.dir/__/__/__/mesh/access/src/access_reliable.c.obj
 .text.reliable_timer_cb
                0x000000000003b5a8      0x260 CMakeFiles/light_switch_proxy_server_nrf52840_xxAA_s140_6.0.0.dir/__/__/__/mesh/access/src/access_reliable.c.obj
 .text.access_reliable_message_rx_cb
                0x000000000003b808       0x80 CMakeFiles/light_switch_proxy_server_nrf52840_xxAA_s140_6.0.0.dir/__/__/__/mesh/access/src/access_reliable.c.obj
                0x000000000003b808                access_reliable_message_rx_cb
 .text.access_reliable_init
                0x000000000003b888       0x1c CMakeFiles/light_switch_proxy_server_nrf52840_xxAA_s140_6.0.0.dir/__/__/__/mesh/access/src/access_reliable.c.obj
                0x000000000003b888                access_reliable_init
 .text.access_reliable_cancel_all
                0x000000000003b8a4       0xe8 CMakeFiles/light_switch_proxy_server_nrf52840_xxAA_s140_6.0.0.dir/__/__/__/mesh/access/src/access_reliable.c.obj
                0x000000000003b8a4                access_reliable_cancel_all
 .text.access_model_reliable_cancel
                0x000000000003b98c       0x88 CMakeFiles/light_switch_proxy_server_nrf52840_xxAA_s140_6.0.0.dir/__/__/__/mesh/access/src/access_reliable.c.obj
                0x000000000003b98c                access_model_reliable_cancel
 .text.addr_nonvirtual_to_dsm_entry
                0x000000000003ba14       0x48 CMakeFiles/light_switch_proxy_server_nrf52840_xxAA_s140_6.0.0.dir/__/__/__/mesh/access/src/device_state_manager.c.obj
 .text.addr_nonvirtual_to_flash_entry
                0x000000000003ba5c       0x10 CMakeFiles/light_switch_proxy_server_nrf52840_xxAA_s140_6.0.0.dir/__/__/__/mesh/access/src/device_state_manager.c.obj
 .text.devkey_to_flash_entry
                0x000000000003ba6c       0x28 CMakeFiles/light_switch_proxy_server_nrf52840_xxAA_s140_6.0.0.dir/__/__/__/mesh/access/src/device_state_manager.c.obj
 .text.addr_virtual_to_flash_entry
                0x000000000003ba94       0x18 CMakeFiles/light_switch_proxy_server_nrf52840_xxAA_s140_6.0.0.dir/__/__/__/mesh/access/src/device_state_manager.c.obj
 .text.addr_unicast_to_dsm_entry
                0x000000000003baac        0xc CMakeFiles/light_switch_proxy_server_nrf52840_xxAA_s140_6.0.0.dir/__/__/__/mesh/access/src/device_state_manager.c.obj
 .text.addr_unicast_to_flash_entry
                0x000000000003bab8       0x10 CMakeFiles/light_switch_proxy_server_nrf52840_xxAA_s140_6.0.0.dir/__/__/__/mesh/access/src/device_state_manager.c.obj
 .text.flash_mem_listener_callback
                0x000000000003bac8       0x1c CMakeFiles/light_switch_proxy_server_nrf52840_xxAA_s140_6.0.0.dir/__/__/__/mesh/access/src/device_state_manager.c.obj
 .text.appkey_to_flash_entry
                0x000000000003bae4       0x54 CMakeFiles/light_switch_proxy_server_nrf52840_xxAA_s140_6.0.0.dir/__/__/__/mesh/access/src/device_state_manager.c.obj
 .text.subnet_to_flash_entry
                0x000000000003bb38       0x60 CMakeFiles/light_switch_proxy_server_nrf52840_xxAA_s140_6.0.0.dir/__/__/__/mesh/access/src/device_state_manager.c.obj
 .text.reset_flash_area
                0x000000000003bb98       0x28 CMakeFiles/light_switch_proxy_server_nrf52840_xxAA_s140_6.0.0.dir/__/__/__/mesh/access/src/device_state_manager.c.obj
 .text.build_flash_area
                0x000000000003bbc0       0x90 CMakeFiles/light_switch_proxy_server_nrf52840_xxAA_s140_6.0.0.dir/__/__/__/mesh/access/src/device_state_manager.c.obj
 .text.flash_invalidate_complete
                0x000000000003bc50       0x54 CMakeFiles/light_switch_proxy_server_nrf52840_xxAA_s140_6.0.0.dir/__/__/__/mesh/access/src/device_state_manager.c.obj
 .text.flash_write_complete
                0x000000000003bca4       0x50 CMakeFiles/light_switch_proxy_server_nrf52840_xxAA_s140_6.0.0.dir/__/__/__/mesh/access/src/device_state_manager.c.obj
 .text.devkey_to_dsm_entry
                0x000000000003bcf4       0x70 CMakeFiles/light_switch_proxy_server_nrf52840_xxAA_s140_6.0.0.dir/__/__/__/mesh/access/src/device_state_manager.c.obj
 .text.addr_virtual_to_dsm_entry
                0x000000000003bd64       0x60 CMakeFiles/light_switch_proxy_server_nrf52840_xxAA_s140_6.0.0.dir/__/__/__/mesh/access/src/device_state_manager.c.obj
 .text.appkey_to_dsm_entry
                0x000000000003bdc4       0xf4 CMakeFiles/light_switch_proxy_server_nrf52840_xxAA_s140_6.0.0.dir/__/__/__/mesh/access/src/device_state_manager.c.obj
 .text.flash_remove_complete
                0x000000000003beb8       0x90 CMakeFiles/light_switch_proxy_server_nrf52840_xxAA_s140_6.0.0.dir/__/__/__/mesh/access/src/device_state_manager.c.obj
 .text.subnet_to_dsm_entry
                0x000000000003bf48      0x138 CMakeFiles/light_switch_proxy_server_nrf52840_xxAA_s140_6.0.0.dir/__/__/__/mesh/access/src/device_state_manager.c.obj
 .text.flash_update_all
                0x000000000003c080      0x184 CMakeFiles/light_switch_proxy_server_nrf52840_xxAA_s140_6.0.0.dir/__/__/__/mesh/access/src/device_state_manager.c.obj
 .text.address_delete_if_unused
                0x000000000003c204       0xf4 CMakeFiles/light_switch_proxy_server_nrf52840_xxAA_s140_6.0.0.dir/__/__/__/mesh/access/src/device_state_manager.c.obj
 .text.mesh_evt_handler
                0x000000000003c2f8      0x258 CMakeFiles/light_switch_proxy_server_nrf52840_xxAA_s140_6.0.0.dir/__/__/__/mesh/access/src/device_state_manager.c.obj
 .text.dsm_flash_config_load
                0x000000000003c550      0x1f8 CMakeFiles/light_switch_proxy_server_nrf52840_xxAA_s140_6.0.0.dir/__/__/__/mesh/access/src/device_state_manager.c.obj
                0x000000000003c550                dsm_flash_config_load
 .text.dsm_flash_area_get
                0x000000000003c748        0xc CMakeFiles/light_switch_proxy_server_nrf52840_xxAA_s140_6.0.0.dir/__/__/__/mesh/access/src/device_state_manager.c.obj
                0x000000000003c748                dsm_flash_area_get
 .text.dsm_clear
                0x000000000003c754       0xf0 CMakeFiles/light_switch_proxy_server_nrf52840_xxAA_s140_6.0.0.dir/__/__/__/mesh/access/src/device_state_manager.c.obj
                0x000000000003c754                dsm_clear
 .text.dsm_init
                0x000000000003c844       0xbc CMakeFiles/light_switch_proxy_server_nrf52840_xxAA_s140_6.0.0.dir/__/__/__/mesh/access/src/device_state_manager.c.obj
                0x000000000003c844                dsm_init
 .text.dsm_local_unicast_addresses_set
                0x000000000003c900       0xbc CMakeFiles/light_switch_proxy_server_nrf52840_xxAA_s140_6.0.0.dir/__/__/__/mesh/access/src/device_state_manager.c.obj
                0x000000000003c900                dsm_local_unicast_addresses_set
 .text.dsm_local_unicast_addresses_get
                0x000000000003c9bc       0x20 CMakeFiles/light_switch_proxy_server_nrf52840_xxAA_s140_6.0.0.dir/__/__/__/mesh/access/src/device_state_manager.c.obj
                0x000000000003c9bc                dsm_local_unicast_addresses_get
 .text.dsm_address_publish_add
                0x000000000003c9dc      0x204 CMakeFiles/light_switch_proxy_server_nrf52840_xxAA_s140_6.0.0.dir/__/__/__/mesh/access/src/device_state_manager.c.obj
                0x000000000003c9dc                dsm_address_publish_add
 .text.dsm_address_publish_add_handle
                0x000000000003cbe0       0x54 CMakeFiles/light_switch_proxy_server_nrf52840_xxAA_s140_6.0.0.dir/__/__/__/mesh/access/src/device_state_manager.c.obj
                0x000000000003cbe0                dsm_address_publish_add_handle
 .text.dsm_address_publish_virtual_add
                0x000000000003cc34      0x2b4 CMakeFiles/light_switch_proxy_server_nrf52840_xxAA_s140_6.0.0.dir/__/__/__/mesh/access/src/device_state_manager.c.obj
                0x000000000003cc34                dsm_address_publish_virtual_add
 .text.dsm_address_publish_remove
                0x000000000003cee8       0xcc CMakeFiles/light_switch_proxy_server_nrf52840_xxAA_s140_6.0.0.dir/__/__/__/mesh/access/src/device_state_manager.c.obj
                0x000000000003cee8                dsm_address_publish_remove
 .text.dsm_address_subscription_add
                0x000000000003cfb4      0x23c CMakeFiles/light_switch_proxy_server_nrf52840_xxAA_s140_6.0.0.dir/__/__/__/mesh/access/src/device_state_manager.c.obj
                0x000000000003cfb4                dsm_address_subscription_add
 .text.dsm_address_subscription_virtual_add
                0x000000000003d1f0      0x2b4 CMakeFiles/light_switch_proxy_server_nrf52840_xxAA_s140_6.0.0.dir/__/__/__/mesh/access/src/device_state_manager.c.obj
                0x000000000003d1f0                dsm_address_subscription_virtual_add
 .text.dsm_address_subscription_add_handle
                0x000000000003d4a4       0x54 CMakeFiles/light_switch_proxy_server_nrf52840_xxAA_s140_6.0.0.dir/__/__/__/mesh/access/src/device_state_manager.c.obj
                0x000000000003d4a4                dsm_address_subscription_add_handle
 .text.dsm_address_subscription_get
                0x000000000003d4f8       0x5c CMakeFiles/light_switch_proxy_server_nrf52840_xxAA_s140_6.0.0.dir/__/__/__/mesh/access/src/device_state_manager.c.obj
                0x000000000003d4f8                dsm_address_subscription_get
 .text.dsm_address_subscription_remove
                0x000000000003d554       0x90 CMakeFiles/light_switch_proxy_server_nrf52840_xxAA_s140_6.0.0.dir/__/__/__/mesh/access/src/device_state_manager.c.obj
                0x000000000003d554                dsm_address_subscription_remove
 .text.dsm_address_get
                0x000000000003d5e4       0x78 CMakeFiles/light_switch_proxy_server_nrf52840_xxAA_s140_6.0.0.dir/__/__/__/mesh/access/src/device_state_manager.c.obj
                0x000000000003d5e4                dsm_address_get
 .text.dsm_address_handle_get
                0x000000000003d65c      0x268 CMakeFiles/light_switch_proxy_server_nrf52840_xxAA_s140_6.0.0.dir/__/__/__/mesh/access/src/device_state_manager.c.obj
                0x000000000003d65c                dsm_address_handle_get
 .text.dsm_net_key_index_to_subnet_handle
                0x000000000003d8c4       0x3c CMakeFiles/light_switch_proxy_server_nrf52840_xxAA_s140_6.0.0.dir/__/__/__/mesh/access/src/device_state_manager.c.obj
                0x000000000003d8c4                dsm_net_key_index_to_subnet_handle
 .text.dsm_subnet_handle_get
                0x000000000003d900       0x64 CMakeFiles/light_switch_proxy_server_nrf52840_xxAA_s140_6.0.0.dir/__/__/__/mesh/access/src/device_state_manager.c.obj
                0x000000000003d900                dsm_subnet_handle_get
 .text.dsm_appkey_index_to_appkey_handle
                0x000000000003d964       0xa0 CMakeFiles/light_switch_proxy_server_nrf52840_xxAA_s140_6.0.0.dir/__/__/__/mesh/access/src/device_state_manager.c.obj
                0x000000000003d964                dsm_appkey_index_to_appkey_handle
 .text.dsm_appkey_handle_get
                0x000000000003da04       0x44 CMakeFiles/light_switch_proxy_server_nrf52840_xxAA_s140_6.0.0.dir/__/__/__/mesh/access/src/device_state_manager.c.obj
                0x000000000003da04                dsm_appkey_handle_get
 .text.dsm_appkey_handle_to_appkey_index
                0x000000000003da48       0x34 CMakeFiles/light_switch_proxy_server_nrf52840_xxAA_s140_6.0.0.dir/__/__/__/mesh/access/src/device_state_manager.c.obj
                0x000000000003da48                dsm_appkey_handle_to_appkey_index
 .text.dsm_appkey_handle_to_subnet_handle
                0x000000000003da7c       0xb4 CMakeFiles/light_switch_proxy_server_nrf52840_xxAA_s140_6.0.0.dir/__/__/__/mesh/access/src/device_state_manager.c.obj
                0x000000000003da7c                dsm_appkey_handle_to_subnet_handle
 .text.dsm_subnet_add
                0x000000000003db30      0x21c CMakeFiles/light_switch_proxy_server_nrf52840_xxAA_s140_6.0.0.dir/__/__/__/mesh/access/src/device_state_manager.c.obj
                0x000000000003db30                dsm_subnet_add
 .text.dsm_subnet_kr_phase_get
                0x000000000003dd4c       0x30 CMakeFiles/light_switch_proxy_server_nrf52840_xxAA_s140_6.0.0.dir/__/__/__/mesh/access/src/device_state_manager.c.obj
                0x000000000003dd4c                dsm_subnet_kr_phase_get
 .text.dsm_subnet_update
                0x000000000003dd7c      0x130 CMakeFiles/light_switch_proxy_server_nrf52840_xxAA_s140_6.0.0.dir/__/__/__/mesh/access/src/device_state_manager.c.obj
                0x000000000003dd7c                dsm_subnet_update
 .text.dsm_subnet_update_swap_keys
                0x000000000003deac       0xa8 CMakeFiles/light_switch_proxy_server_nrf52840_xxAA_s140_6.0.0.dir/__/__/__/mesh/access/src/device_state_manager.c.obj
                0x000000000003deac                dsm_subnet_update_swap_keys
 .text.dsm_subnet_update_commit
                0x000000000003df54      0x1b0 CMakeFiles/light_switch_proxy_server_nrf52840_xxAA_s140_6.0.0.dir/__/__/__/mesh/access/src/device_state_manager.c.obj
                0x000000000003df54                dsm_subnet_update_commit
 .text.dsm_subnet_delete
                0x000000000003e104      0x314 CMakeFiles/light_switch_proxy_server_nrf52840_xxAA_s140_6.0.0.dir/__/__/__/mesh/access/src/device_state_manager.c.obj
                0x000000000003e104                dsm_subnet_delete
 .text.dsm_subnet_get_all
                0x000000000003e418       0x5c CMakeFiles/light_switch_proxy_server_nrf52840_xxAA_s140_6.0.0.dir/__/__/__/mesh/access/src/device_state_manager.c.obj
                0x000000000003e418                dsm_subnet_get_all
 .text.dsm_devkey_add
                0x000000000003e474      0x108 CMakeFiles/light_switch_proxy_server_nrf52840_xxAA_s140_6.0.0.dir/__/__/__/mesh/access/src/device_state_manager.c.obj
                0x000000000003e474                dsm_devkey_add
 .text.dsm_appkey_add
                0x000000000003e57c      0x294 CMakeFiles/light_switch_proxy_server_nrf52840_xxAA_s140_6.0.0.dir/__/__/__/mesh/access/src/device_state_manager.c.obj
                0x000000000003e57c                dsm_appkey_add
 .text.dsm_appkey_update
                0x000000000003e810       0xf8 CMakeFiles/light_switch_proxy_server_nrf52840_xxAA_s140_6.0.0.dir/__/__/__/mesh/access/src/device_state_manager.c.obj
                0x000000000003e810                dsm_appkey_update
 .text.dsm_appkey_delete
                0x000000000003e908       0x68 CMakeFiles/light_switch_proxy_server_nrf52840_xxAA_s140_6.0.0.dir/__/__/__/mesh/access/src/device_state_manager.c.obj
                0x000000000003e908                dsm_appkey_delete
 .text.dsm_appkey_get_all
                0x000000000003e970      0x15c CMakeFiles/light_switch_proxy_server_nrf52840_xxAA_s140_6.0.0.dir/__/__/__/mesh/access/src/device_state_manager.c.obj
                0x000000000003e970                dsm_appkey_get_all
 .text.dsm_tx_secmat_get
                0x000000000003eacc       0xdc CMakeFiles/light_switch_proxy_server_nrf52840_xxAA_s140_6.0.0.dir/__/__/__/mesh/access/src/device_state_manager.c.obj
                0x000000000003eacc                dsm_tx_secmat_get
 .text.dsm_beacon_info_get
                0x000000000003eba8       0x34 CMakeFiles/light_switch_proxy_server_nrf52840_xxAA_s140_6.0.0.dir/__/__/__/mesh/access/src/device_state_manager.c.obj
                0x000000000003eba8                dsm_beacon_info_get
 .text.dsm_net_secmat_from_keyindex_get
                0x000000000003ebdc       0x78 CMakeFiles/light_switch_proxy_server_nrf52840_xxAA_s140_6.0.0.dir/__/__/__/mesh/access/src/device_state_manager.c.obj
                0x000000000003ebdc                dsm_net_secmat_from_keyindex_get
 .text.nrf_mesh_net_secmat_next_get
                0x000000000003ec54      0x114 CMakeFiles/light_switch_proxy_server_nrf52840_xxAA_s140_6.0.0.dir/__/__/__/mesh/access/src/device_state_manager.c.obj
                0x000000000003ec54                nrf_mesh_net_secmat_next_get
 .text.nrf_mesh_app_secmat_next_get
                0x000000000003ed68      0x22c CMakeFiles/light_switch_proxy_server_nrf52840_xxAA_s140_6.0.0.dir/__/__/__/mesh/access/src/device_state_manager.c.obj
                0x000000000003ed68                nrf_mesh_app_secmat_next_get
 .text.nrf_mesh_devkey_secmat_get
                0x000000000003ef94       0x30 CMakeFiles/light_switch_proxy_server_nrf52840_xxAA_s140_6.0.0.dir/__/__/__/mesh/access/src/device_state_manager.c.obj
                0x000000000003ef94                nrf_mesh_devkey_secmat_get
 .text.nrf_mesh_beacon_info_next_get
                0x000000000003efc4      0x104 CMakeFiles/light_switch_proxy_server_nrf52840_xxAA_s140_6.0.0.dir/__/__/__/mesh/access/src/device_state_manager.c.obj
                0x000000000003efc4                nrf_mesh_beacon_info_next_get
 .text.nrf_mesh_rx_address_get
                0x000000000003f0c8      0x3f0 CMakeFiles/light_switch_proxy_server_nrf52840_xxAA_s140_6.0.0.dir/__/__/__/mesh/access/src/device_state_manager.c.obj
                0x000000000003f0c8                nrf_mesh_rx_address_get
 .text.nrf_mesh_unicast_address_get
                0x000000000003f4b8       0x24 CMakeFiles/light_switch_proxy_server_nrf52840_xxAA_s140_6.0.0.dir/__/__/__/mesh/access/src/device_state_manager.c.obj
                0x000000000003f4b8                nrf_mesh_unicast_address_get
 .text.prov_provisionee_cb_link_established
                0x000000000003f4dc       0x40 CMakeFiles/light_switch_proxy_server_nrf52840_xxAA_s140_6.0.0.dir/__/__/__/mesh/prov/src/prov_provisionee.c.obj
 .text.prov_provisionee_cb_link_closed
                0x000000000003f51c       0x50 CMakeFiles/light_switch_proxy_server_nrf52840_xxAA_s140_6.0.0.dir/__/__/__/mesh/prov/src/prov_provisionee.c.obj
 .text.request_authentication
                0x000000000003f56c       0x90 CMakeFiles/light_switch_proxy_server_nrf52840_xxAA_s140_6.0.0.dir/__/__/__/mesh/prov/src/prov_provisionee.c.obj
 .text.send_failed
                0x000000000003f5fc       0x38 CMakeFiles/light_switch_proxy_server_nrf52840_xxAA_s140_6.0.0.dir/__/__/__/mesh/prov/src/prov_provisionee.c.obj
 .text.prov_provisionee_cb_ack_received
                0x000000000003f634      0x174 CMakeFiles/light_switch_proxy_server_nrf52840_xxAA_s140_6.0.0.dir/__/__/__/mesh/prov/src/prov_provisionee.c.obj
 .text.prov_provisionee_pkt_in
                0x000000000003f7a8      0x428 CMakeFiles/light_switch_proxy_server_nrf52840_xxAA_s140_6.0.0.dir/__/__/__/mesh/prov/src/prov_provisionee.c.obj
 .text.prov_provisionee_listen
                0x000000000003fbd0       0x34 CMakeFiles/light_switch_proxy_server_nrf52840_xxAA_s140_6.0.0.dir/__/__/__/mesh/prov/src/prov_provisionee.c.obj
                0x000000000003fbd0                prov_provisionee_listen
 .text.prov_provisionee_auth_data
                0x000000000003fc04      0x100 CMakeFiles/light_switch_proxy_server_nrf52840_xxAA_s140_6.0.0.dir/__/__/__/mesh/prov/src/prov_provisionee.c.obj
                0x000000000003fc04                prov_provisionee_auth_data
 .text.bearer_compare_callback
                0x000000000003fd04       0x10 CMakeFiles/light_switch_proxy_server_nrf52840_xxAA_s140_6.0.0.dir/__/__/__/mesh/prov/src/nrf_mesh_prov.c.obj
 .text.nrf_mesh_prov_init
                0x000000000003fd14       0x3c CMakeFiles/light_switch_proxy_server_nrf52840_xxAA_s140_6.0.0.dir/__/__/__/mesh/prov/src/nrf_mesh_prov.c.obj
                0x000000000003fd14                nrf_mesh_prov_init
 .text.nrf_mesh_prov_bearer_add
                0x000000000003fd50       0x2c CMakeFiles/light_switch_proxy_server_nrf52840_xxAA_s140_6.0.0.dir/__/__/__/mesh/prov/src/nrf_mesh_prov.c.obj
                0x000000000003fd50                nrf_mesh_prov_bearer_add
 .text.nrf_mesh_prov_generate_keys
                0x000000000003fd7c        0x4 CMakeFiles/light_switch_proxy_server_nrf52840_xxAA_s140_6.0.0.dir/__/__/__/mesh/prov/src/nrf_mesh_prov.c.obj
                0x000000000003fd7c                nrf_mesh_prov_generate_keys
 .text.nrf_mesh_prov_listen
                0x000000000003fd80       0xf0 CMakeFiles/light_switch_proxy_server_nrf52840_xxAA_s140_6.0.0.dir/__/__/__/mesh/prov/src/nrf_mesh_prov.c.obj
                0x000000000003fd80                nrf_mesh_prov_listen
 .text.nrf_mesh_prov_auth_data_provide
                0x000000000003fe70       0x10 CMakeFiles/light_switch_proxy_server_nrf52840_xxAA_s140_6.0.0.dir/__/__/__/mesh/prov/src/nrf_mesh_prov.c.obj
                0x000000000003fe70                nrf_mesh_prov_auth_data_provide
 .text.prov_packet_length_valid
                0x000000000003fe80       0x20 CMakeFiles/light_switch_proxy_server_nrf52840_xxAA_s140_6.0.0.dir/__/__/__/mesh/prov/src/provisioning.c.obj
                0x000000000003fe80                prov_packet_length_valid
 .text.prov_tx_capabilities
                0x000000000003fea0       0x38 CMakeFiles/light_switch_proxy_server_nrf52840_xxAA_s140_6.0.0.dir/__/__/__/mesh/prov/src/provisioning.c.obj
                0x000000000003fea0                prov_tx_capabilities
 .text.prov_tx_public_key
                0x000000000003fed8       0x30 CMakeFiles/light_switch_proxy_server_nrf52840_xxAA_s140_6.0.0.dir/__/__/__/mesh/prov/src/provisioning.c.obj
                0x000000000003fed8                prov_tx_public_key
 .text.prov_tx_input_complete
                0x000000000003ff08       0x28 CMakeFiles/light_switch_proxy_server_nrf52840_xxAA_s140_6.0.0.dir/__/__/__/mesh/prov/src/provisioning.c.obj
                0x000000000003ff08                prov_tx_input_complete
 .text.prov_tx_confirmation
                0x000000000003ff30       0x30 CMakeFiles/light_switch_proxy_server_nrf52840_xxAA_s140_6.0.0.dir/__/__/__/mesh/prov/src/provisioning.c.obj
                0x000000000003ff30                prov_tx_confirmation
 .text.prov_tx_random
                0x000000000003ff60       0x30 CMakeFiles/light_switch_proxy_server_nrf52840_xxAA_s140_6.0.0.dir/__/__/__/mesh/prov/src/provisioning.c.obj
                0x000000000003ff60                prov_tx_random
 .text.prov_tx_complete
                0x000000000003ff90       0x28 CMakeFiles/light_switch_proxy_server_nrf52840_xxAA_s140_6.0.0.dir/__/__/__/mesh/prov/src/provisioning.c.obj
                0x000000000003ff90                prov_tx_complete
 .text.prov_tx_failed
                0x000000000003ffb8       0x2c CMakeFiles/light_switch_proxy_server_nrf52840_xxAA_s140_6.0.0.dir/__/__/__/mesh/prov/src/provisioning.c.obj
                0x000000000003ffb8                prov_tx_failed
 .text.prov_beacon_unprov_build
                0x000000000003ffe4       0x54 CMakeFiles/light_switch_proxy_server_nrf52840_xxAA_s140_6.0.0.dir/__/__/__/mesh/prov/src/prov_beacon.c.obj
                0x000000000003ffe4                prov_beacon_unprov_build
 .text.prov_beacon_unprov_packet_in
                0x0000000000040038       0xd0 CMakeFiles/light_switch_proxy_server_nrf52840_xxAA_s140_6.0.0.dir/__/__/__/mesh/prov/src/prov_beacon.c.obj
                0x0000000000040038                prov_beacon_unprov_packet_in
 .text.prov_utils_opt_set
                0x0000000000040108       0x24 CMakeFiles/light_switch_proxy_server_nrf52840_xxAA_s140_6.0.0.dir/__/__/__/mesh/prov/src/prov_utils.c.obj
                0x0000000000040108                prov_utils_opt_set
 .text.prov_utils_opt_get
                0x000000000004012c       0x1c CMakeFiles/light_switch_proxy_server_nrf52840_xxAA_s140_6.0.0.dir/__/__/__/mesh/prov/src/prov_utils.c.obj
                0x000000000004012c                prov_utils_opt_get
 .text.prov_utils_use_ecdh_offloading
                0x0000000000040148        0xc CMakeFiles/light_switch_proxy_server_nrf52840_xxAA_s140_6.0.0.dir/__/__/__/mesh/prov/src/prov_utils.c.obj
                0x0000000000040148                prov_utils_use_ecdh_offloading
 .text.prov_utils_authentication_values_derive
                0x0000000000040154       0xac CMakeFiles/light_switch_proxy_server_nrf52840_xxAA_s140_6.0.0.dir/__/__/__/mesh/prov/src/prov_utils.c.obj
                0x0000000000040154                prov_utils_authentication_values_derive
 .text.prov_utils_keys_generate
                0x0000000000040200       0x20 CMakeFiles/light_switch_proxy_server_nrf52840_xxAA_s140_6.0.0.dir/__/__/__/mesh/prov/src/prov_utils.c.obj
                0x0000000000040200                prov_utils_keys_generate
 .text.prov_utils_derive_keys
                0x0000000000040220       0xb4 CMakeFiles/light_switch_proxy_server_nrf52840_xxAA_s140_6.0.0.dir/__/__/__/mesh/prov/src/prov_utils.c.obj
                0x0000000000040220                prov_utils_derive_keys
 .text.prov_utils_calculate_shared_secret
                0x00000000000402d4       0x34 CMakeFiles/light_switch_proxy_server_nrf52840_xxAA_s140_6.0.0.dir/__/__/__/mesh/prov/src/prov_utils.c.obj
                0x00000000000402d4                prov_utils_calculate_shared_secret
 .text.prov_utils_generate_oob_data
                0x0000000000040308      0x1b8 CMakeFiles/light_switch_proxy_server_nrf52840_xxAA_s140_6.0.0.dir/__/__/__/mesh/prov/src/prov_utils.c.obj
                0x0000000000040308                prov_utils_generate_oob_data
 .text.prov_utils_confirmation_check
                0x00000000000404c0       0x5c CMakeFiles/light_switch_proxy_server_nrf52840_xxAA_s140_6.0.0.dir/__/__/__/mesh/prov/src/prov_utils.c.obj
                0x00000000000404c0                prov_utils_confirmation_check
 .text.link_timeout_cb
                0x000000000004051c       0x10 CMakeFiles/light_switch_proxy_server_nrf52840_xxAA_s140_6.0.0.dir/__/__/__/mesh/prov/src/prov_bearer_adv.c.obj
 .text.prov_bearer_adv_listen_stop
                0x000000000004052c       0x98 CMakeFiles/light_switch_proxy_server_nrf52840_xxAA_s140_6.0.0.dir/__/__/__/mesh/prov/src/prov_bearer_adv.c.obj
 .text.tx_complete_cb
                0x00000000000405c4       0x20 CMakeFiles/light_switch_proxy_server_nrf52840_xxAA_s140_6.0.0.dir/__/__/__/mesh/prov/src/prov_bearer_adv.c.obj
 .text.prov_bearer_adv_listen
                0x00000000000405e4      0x15c CMakeFiles/light_switch_proxy_server_nrf52840_xxAA_s140_6.0.0.dir/__/__/__/mesh/prov/src/prov_bearer_adv.c.obj
 .text.close_link
                0x0000000000040740       0xd8 CMakeFiles/light_switch_proxy_server_nrf52840_xxAA_s140_6.0.0.dir/__/__/__/mesh/prov/src/prov_bearer_adv.c.obj
 .text.send_link_ack
                0x0000000000040818       0x70 CMakeFiles/light_switch_proxy_server_nrf52840_xxAA_s140_6.0.0.dir/__/__/__/mesh/prov/src/prov_bearer_adv.c.obj
 .text.send_transaction_ack
                0x0000000000040888       0x68 CMakeFiles/light_switch_proxy_server_nrf52840_xxAA_s140_6.0.0.dir/__/__/__/mesh/prov/src/prov_bearer_adv.c.obj
 .text.prov_buffer_rx
                0x00000000000408f0       0xa0 CMakeFiles/light_switch_proxy_server_nrf52840_xxAA_s140_6.0.0.dir/__/__/__/mesh/prov/src/prov_bearer_adv.c.obj
 .text.prov_bearer_adv_link_open
                0x0000000000040990      0x1b8 CMakeFiles/light_switch_proxy_server_nrf52840_xxAA_s140_6.0.0.dir/__/__/__/mesh/prov/src/prov_bearer_adv.c.obj
 .text.prov_bearer_adv_link_close
                0x0000000000040b48       0xcc CMakeFiles/light_switch_proxy_server_nrf52840_xxAA_s140_6.0.0.dir/__/__/__/mesh/prov/src/prov_bearer_adv.c.obj
 .text.prov_buffer_tx
                0x0000000000040c14      0x1e4 CMakeFiles/light_switch_proxy_server_nrf52840_xxAA_s140_6.0.0.dir/__/__/__/mesh/prov/src/prov_bearer_adv.c.obj
 .text.tx_retry_cb
                0x0000000000040df8      0x130 CMakeFiles/light_switch_proxy_server_nrf52840_xxAA_s140_6.0.0.dir/__/__/__/mesh/prov/src/prov_bearer_adv.c.obj
 .text.prov_bearer_adv_tx
                0x0000000000040f28       0xe8 CMakeFiles/light_switch_proxy_server_nrf52840_xxAA_s140_6.0.0.dir/__/__/__/mesh/prov/src/prov_bearer_adv.c.obj
 .text.async_process
                0x0000000000041010      0x118 CMakeFiles/light_switch_proxy_server_nrf52840_xxAA_s140_6.0.0.dir/__/__/__/mesh/prov/src/prov_bearer_adv.c.obj
 .text.nrf_mesh_prov_bearer_adv_interface_get
                0x0000000000041128       0x40 CMakeFiles/light_switch_proxy_server_nrf52840_xxAA_s140_6.0.0.dir/__/__/__/mesh/prov/src/prov_bearer_adv.c.obj
                0x0000000000041128                nrf_mesh_prov_bearer_adv_interface_get
 .text.prov_bearer_adv_packet_in
                0x0000000000041168      0x914 CMakeFiles/light_switch_proxy_server_nrf52840_xxAA_s140_6.0.0.dir/__/__/__/mesh/prov/src/prov_bearer_adv.c.obj
                0x0000000000041168                prov_bearer_adv_packet_in
 .text.SystemInit
                0x0000000000041a7c      0x1c4 CMakeFiles/light_switch_proxy_server_nrf52840_xxAA_s140_6.0.0.dir/home/mazzer/work/nordic/sdk/nRF5_SDK_15.0.0/modules/nrfx/mdk/system_nrf52840.c.obj
                0x0000000000041a7c                SystemInit
 .text          0x0000000000041c40       0x3c CMakeFiles/light_switch_proxy_server_nrf52840_xxAA_s140_6.0.0.dir/home/mazzer/work/nordic/sdk/nRF5_SDK_15.0.0/modules/nrfx/mdk/gcc_startup_nrf52840.S.obj
                0x0000000000041c40                Reset_Handler
                0x0000000000041c68                NMI_Handler
                0x0000000000041c6a                HardFault_Handler
                0x0000000000041c6c                MemoryManagement_Handler
                0x0000000000041c6e                BusFault_Handler
                0x0000000000041c70                UsageFault_Handler
                0x0000000000041c72                SVC_Handler
                0x0000000000041c74                DebugMon_Handler
                0x0000000000041c76                PendSV_Handler
                0x0000000000041c78                SysTick_Handler
                0x0000000000041c7a                RTC0_IRQHandler
                0x0000000000041c7a                SWI0_EGU0_IRQHandler
                0x0000000000041c7a                PWM1_IRQHandler
                0x0000000000041c7a                POWER_CLOCK_IRQHandler
                0x0000000000041c7a                RADIO_IRQHandler
                0x0000000000041c7a                PDM_IRQHandler
                0x0000000000041c7a                TEMP_IRQHandler
                0x0000000000041c7a                TIMER3_IRQHandler
                0x0000000000041c7a                PWM3_IRQHandler
                0x0000000000041c7a                FPU_IRQHandler
                0x0000000000041c7a                USBD_IRQHandler
                0x0000000000041c7a                SPIM0_SPIS0_TWIM0_TWIS0_SPI0_TWI0_IRQHandler
                0x0000000000041c7a                UARTE0_UART0_IRQHandler
                0x0000000000041c7a                TIMER4_IRQHandler
                0x0000000000041c7a                CRYPTOCELL_IRQHandler
                0x0000000000041c7a                I2S_IRQHandler
                0x0000000000041c7a                SWI4_EGU4_IRQHandler
                0x0000000000041c7a                TIMER0_IRQHandler
                0x0000000000041c7a                UARTE1_IRQHandler
                0x0000000000041c7a                TIMER1_IRQHandler
                0x0000000000041c7a                SPIM3_IRQHandler
                0x0000000000041c7a                PWM2_IRQHandler
                0x0000000000041c7a                ECB_IRQHandler
                0x0000000000041c7a                SPIM1_SPIS1_TWIM1_TWIS1_SPI1_TWI1_IRQHandler
                0x0000000000041c7a                Default_Handler
                0x0000000000041c7a                SAADC_IRQHandler
                0x0000000000041c7a                CCM_AAR_IRQHandler
                0x0000000000041c7a                WDT_IRQHandler
                0x0000000000041c7a                SWI5_EGU5_IRQHandler
                0x0000000000041c7a                RNG_IRQHandler
                0x0000000000041c7a                RTC2_IRQHandler
                0x0000000000041c7a                PWM0_IRQHandler
                0x0000000000041c7a                SWI3_EGU3_IRQHandler
                0x0000000000041c7a                RTC1_IRQHandler
                0x0000000000041c7a                SWI1_EGU1_IRQHandler
                0x0000000000041c7a                SPIM2_SPIS2_SPI2_IRQHandler
                0x0000000000041c7a                NFCT_IRQHandler
                0x0000000000041c7a                MWU_IRQHandler
                0x0000000000041c7a                QSPI_IRQHandler
                0x0000000000041c7a                COMP_LPCOMP_IRQHandler
 .text.app_error_handler_bare
                0x0000000000041c7c       0x20 CMakeFiles/light_switch_proxy_server_nrf52840_xxAA_s140_6.0.0.dir/home/mazzer/work/nordic/sdk/nRF5_SDK_15.0.0/components/libraries/util/app_error.c.obj
                0x0000000000041c7c                app_error_handler_bare
 .text.app_error_handler
                0x0000000000041c9c       0x1c CMakeFiles/light_switch_proxy_server_nrf52840_xxAA_s140_6.0.0.dir/home/mazzer/work/nordic/sdk/nRF5_SDK_15.0.0/components/libraries/util/app_error_handler_gcc.c.obj
                0x0000000000041c9c                app_error_handler
 .text.SEGGER_RTT_Write
                0x0000000000041cb8      0x1f4 ../../../external/rtt/librtt_nrf52840_xxAA.a(SEGGER_RTT.c.obj)
                0x0000000000041cb8                SEGGER_RTT_Write
 .text.SEGGER_RTT_GetKey
                0x0000000000041eac       0xf8 ../../../external/rtt/librtt_nrf52840_xxAA.a(SEGGER_RTT.c.obj)
                0x0000000000041eac                SEGGER_RTT_GetKey
 .text._PrintUnsigned
                0x0000000000041fa4      0x17c ../../../external/rtt/librtt_nrf52840_xxAA.a(SEGGER_RTT_printf.c.obj)
 .text.SEGGER_RTT_vprintf
                0x0000000000042120      0x524 ../../../external/rtt/librtt_nrf52840_xxAA.a(SEGGER_RTT_printf.c.obj)
                0x0000000000042120                SEGGER_RTT_vprintf
 .text.SEGGER_RTT_printf
                0x0000000000042644       0x20 ../../../external/rtt/librtt_nrf52840_xxAA.a(SEGGER_RTT_printf.c.obj)
                0x0000000000042644                SEGGER_RTT_printf
 .text.default_RNG
                0x0000000000042664        0xc ../../../external/micro-ecc/libuECC_nrf52840_xxAA.a(uECC.c.obj)
 .text.uECC_generate_random_int
                0x0000000000042670      0x17c ../../../external/micro-ecc/libuECC_nrf52840_xxAA.a(uECC.c.obj)
 .text.apply_z  0x00000000000427ec      0x1a8 ../../../external/micro-ecc/libuECC_nrf52840_xxAA.a(uECC.c.obj)
 .text.uECC_vli_modAdd
                0x0000000000042994       0xd8 ../../../external/micro-ecc/libuECC_nrf52840_xxAA.a(uECC.c.obj)
 .text.x_side_default
                0x0000000000042a6c      0x26c ../../../external/micro-ecc/libuECC_nrf52840_xxAA.a(uECC.c.obj)
 .text.vli_mmod_fast_secp256r1
                0x0000000000042cd8      0x514 ../../../external/micro-ecc/libuECC_nrf52840_xxAA.a(uECC.c.obj)
 .text.XYcZ_add
                0x00000000000431ec      0x6e0 ../../../external/micro-ecc/libuECC_nrf52840_xxAA.a(uECC.c.obj)
 .text.XYcZ_addC
                0x00000000000438cc      0xabc ../../../external/micro-ecc/libuECC_nrf52840_xxAA.a(uECC.c.obj)
 .text.uECC_vli_modInv.part.4
                0x0000000000044388      0x71c ../../../external/micro-ecc/libuECC_nrf52840_xxAA.a(uECC.c.obj)
 .text.EccPoint_mult
                0x0000000000044aa4      0x4a4 ../../../external/micro-ecc/libuECC_nrf52840_xxAA.a(uECC.c.obj)
 .text.double_jacobian_default
                0x0000000000044f48      0x814 ../../../external/micro-ecc/libuECC_nrf52840_xxAA.a(uECC.c.obj)
 .text.uECC_secp256r1
                0x000000000004575c        0x8 ../../../external/micro-ecc/libuECC_nrf52840_xxAA.a(uECC.c.obj)
                0x000000000004575c                uECC_secp256r1
 .text.uECC_make_key
                0x0000000000045764      0x240 ../../../external/micro-ecc/libuECC_nrf52840_xxAA.a(uECC.c.obj)
                0x0000000000045764                uECC_make_key
 .text.uECC_shared_secret
                0x00000000000459a4      0x314 ../../../external/micro-ecc/libuECC_nrf52840_xxAA.a(uECC.c.obj)
                0x00000000000459a4                uECC_shared_secret
 .text.uECC_valid_public_key
                0x0000000000045cb8      0x230 ../../../external/micro-ecc/libuECC_nrf52840_xxAA.a(uECC.c.obj)
                0x0000000000045cb8                uECC_valid_public_key
 .text          0x0000000000045ee8       0x30 /usr/bin/../lib/gcc/arm-none-eabi/7.2.1/thumb/v7e-m/fpv4-sp/hard/libgcc.a(_aeabi_uldivmod.o)
                0x0000000000045ee8                __aeabi_uldivmod
 .text          0x0000000000045f18      0x2cc /usr/bin/../lib/gcc/arm-none-eabi/7.2.1/thumb/v7e-m/fpv4-sp/hard/libgcc.a(_udivmoddi4.o)
                0x0000000000045f18                __udivmoddi4
 .text          0x00000000000461e4        0x4 /usr/bin/../lib/gcc/arm-none-eabi/7.2.1/thumb/v7e-m/fpv4-sp/hard/libgcc.a(_dvmd_tls.o)
                0x00000000000461e4                __aeabi_ldiv0
                0x00000000000461e4                __aeabi_idiv0
 .text.exit     0x00000000000461e8       0x28 /usr/bin/../lib/gcc/arm-none-eabi/7.2.1/../../../../arm-none-eabi/lib/thumb/v7e-m/fpv4-sp/hard/libg_nano.a(lib_a-exit.o)
                0x00000000000461e8                exit
 .text.__libc_init_array
                0x0000000000046210       0x48 /usr/bin/../lib/gcc/arm-none-eabi/7.2.1/../../../../arm-none-eabi/lib/thumb/v7e-m/fpv4-sp/hard/libg_nano.a(lib_a-init.o)
                0x0000000000046210                __libc_init_array
 .text.malloc   0x0000000000046258       0x10 /usr/bin/../lib/gcc/arm-none-eabi/7.2.1/../../../../arm-none-eabi/lib/thumb/v7e-m/fpv4-sp/hard/libg_nano.a(lib_a-malloc.o)
                0x0000000000046258                malloc
 .text.free     0x0000000000046268       0x10 /usr/bin/../lib/gcc/arm-none-eabi/7.2.1/../../../../arm-none-eabi/lib/thumb/v7e-m/fpv4-sp/hard/libg_nano.a(lib_a-malloc.o)
                0x0000000000046268                free
 .text.memcmp   0x0000000000046278       0x1e /usr/bin/../lib/gcc/arm-none-eabi/7.2.1/../../../../arm-none-eabi/lib/thumb/v7e-m/fpv4-sp/hard/libg_nano.a(lib_a-memcmp.o)
                0x0000000000046278                memcmp
 .text.memcpy   0x0000000000046296       0x16 /usr/bin/../lib/gcc/arm-none-eabi/7.2.1/../../../../arm-none-eabi/lib/thumb/v7e-m/fpv4-sp/hard/libg_nano.a(lib_a-memcpy-stub.o)
                0x0000000000046296                memcpy
 .text.memset   0x00000000000462ac       0x10 /usr/bin/../lib/gcc/arm-none-eabi/7.2.1/../../../../arm-none-eabi/lib/thumb/v7e-m/fpv4-sp/hard/libg_nano.a(lib_a-memset.o)
                0x00000000000462ac                memset
 .text._free_r  0x00000000000462bc       0x9c /usr/bin/../lib/gcc/arm-none-eabi/7.2.1/../../../../arm-none-eabi/lib/thumb/v7e-m/fpv4-sp/hard/libg_nano.a(lib_a-nano-freer.o)
                0x00000000000462bc                _free_r
 .text._malloc_r
                0x0000000000046358       0xb4 /usr/bin/../lib/gcc/arm-none-eabi/7.2.1/../../../../arm-none-eabi/lib/thumb/v7e-m/fpv4-sp/hard/libg_nano.a(lib_a-nano-mallocr.o)
                0x0000000000046358                _malloc_r
 .text._sbrk_r  0x000000000004640c       0x20 /usr/bin/../lib/gcc/arm-none-eabi/7.2.1/../../../../arm-none-eabi/lib/thumb/v7e-m/fpv4-sp/hard/libg_nano.a(lib_a-sbrkr.o)
                0x000000000004640c                _sbrk_r
 .text.strcpy   0x000000000004642c       0x10 /usr/bin/../lib/gcc/arm-none-eabi/7.2.1/../../../../arm-none-eabi/lib/thumb/v7e-m/fpv4-sp/hard/libg_nano.a(lib_a-strcpy.o)
                0x000000000004642c                strcpy
 .text          0x000000000004643c       0x10 /usr/bin/../lib/gcc/arm-none-eabi/7.2.1/../../../../arm-none-eabi/lib/thumb/v7e-m/fpv4-sp/hard/libg_nano.a(lib_a-strlen.o)
                0x000000000004643c                strlen
 .text.strrchr  0x000000000004644c       0x28 /usr/bin/../lib/gcc/arm-none-eabi/7.2.1/../../../../arm-none-eabi/lib/thumb/v7e-m/fpv4-sp/hard/libg_nano.a(lib_a-strrchr.o)
                0x000000000004644c                strrchr
 .text.__malloc_lock
                0x0000000000046474        0x2 /usr/bin/../lib/gcc/arm-none-eabi/7.2.1/../../../../arm-none-eabi/lib/thumb/v7e-m/fpv4-sp/hard/libg_nano.a(lib_a-mlock.o)
                0x0000000000046474                __malloc_lock
 .text.__malloc_unlock
                0x0000000000046476        0x2 /usr/bin/../lib/gcc/arm-none-eabi/7.2.1/../../../../arm-none-eabi/lib/thumb/v7e-m/fpv4-sp/hard/libg_nano.a(lib_a-mlock.o)
                0x0000000000046476                __malloc_unlock
 .text.strchr   0x0000000000046478       0x1a /usr/bin/../lib/gcc/arm-none-eabi/7.2.1/../../../../arm-none-eabi/lib/thumb/v7e-m/fpv4-sp/hard/libg_nano.a(lib_a-strchr.o)
                0x0000000000046478                strchr
 *fill*         0x0000000000046492        0x2 
 .text._sbrk    0x0000000000046494       0x1c /usr/bin/../lib/gcc/arm-none-eabi/7.2.1/../../../../arm-none-eabi/lib/thumb/v7e-m/fpv4-sp/hard/libnosys.a(sbrk.o)
                0x0000000000046494                _sbrk
 .text._exit    0x00000000000464b0        0x4 /usr/bin/../lib/gcc/arm-none-eabi/7.2.1/../../../../arm-none-eabi/lib/thumb/v7e-m/fpv4-sp/hard/libnosys.a(_exit.o)
                0x00000000000464b0                _exit
 *(.init)
 .init          0x00000000000464b4        0x4 /usr/bin/../lib/gcc/arm-none-eabi/7.2.1/thumb/v7e-m/fpv4-sp/hard/crti.o
                0x00000000000464b4                _init
 .init          0x00000000000464b8        0x8 /usr/bin/../lib/gcc/arm-none-eabi/7.2.1/thumb/v7e-m/fpv4-sp/hard/crtn.o
 *(.fini)
 .fini          0x00000000000464c0        0x4 /usr/bin/../lib/gcc/arm-none-eabi/7.2.1/thumb/v7e-m/fpv4-sp/hard/crti.o
                0x00000000000464c0                _fini
 .fini          0x00000000000464c4        0x8 /usr/bin/../lib/gcc/arm-none-eabi/7.2.1/thumb/v7e-m/fpv4-sp/hard/crtn.o
 *crtbegin.o(.ctors)
 *crtbegin?.o(.ctors)
 *(EXCLUDE_FILE(*crtend.o *crtend?.o) .ctors)
 *(SORT_BY_NAME(.ctors.*))
 *(.ctors)
 *crtbegin.o(.dtors)
 *crtbegin?.o(.dtors)
 *(EXCLUDE_FILE(*crtend.o *crtend?.o) .dtors)
 *(SORT_BY_NAME(.dtors.*))
 *(.dtors)
 *(.rodata*)
 .rodata        0x00000000000464cc        0x4 CMakeFiles/light_switch_proxy_server_nrf52840_xxAA_s140_6.0.0.dir/src/main.c.obj
 .rodata.button_event_handler.str1.4
                0x00000000000464d0       0x22 CMakeFiles/light_switch_proxy_server_nrf52840_xxAA_s140_6.0.0.dir/src/main.c.obj
 *fill*         0x00000000000464f2        0x2 
 .rodata.main.str1.4
                0x00000000000464f4       0x64 CMakeFiles/light_switch_proxy_server_nrf52840_xxAA_s140_6.0.0.dir/src/main.c.obj
 .rodata.models_init_cb.str1.4
                0x0000000000046558       0x20 CMakeFiles/light_switch_proxy_server_nrf52840_xxAA_s140_6.0.0.dir/src/main.c.obj
 .rodata.node_reset.str1.4
                0x0000000000046578       0x19 CMakeFiles/light_switch_proxy_server_nrf52840_xxAA_s140_6.0.0.dir/src/main.c.obj
 *fill*         0x0000000000046591        0x3 
 .rodata.on_off_server_set_cb.str1.4
                0x0000000000046594       0x17 CMakeFiles/light_switch_proxy_server_nrf52840_xxAA_s140_6.0.0.dir/src/main.c.obj
 *fill*         0x00000000000465ab        0x1 
 .rodata.provisioning_complete_cb.str1.4
                0x00000000000465ac       0x9b CMakeFiles/light_switch_proxy_server_nrf52840_xxAA_s140_6.0.0.dir/src/main.c.obj
 *fill*         0x0000000000046647        0x1 
 .rodata.static_auth_data.12644
                0x0000000000046648       0x10 CMakeFiles/light_switch_proxy_server_nrf52840_xxAA_s140_6.0.0.dir/src/main.c.obj
 .rodata        0x0000000000046658        0xb CMakeFiles/light_switch_proxy_server_nrf52840_xxAA_s140_6.0.0.dir/__/__/common/src/mesh_provisionee.c.obj
 *fill*         0x0000000000046663        0xd 
 .rodata.delay_bytecode.8881
                0x0000000000046670        0x6 CMakeFiles/light_switch_proxy_server_nrf52840_xxAA_s140_6.0.0.dir/__/__/common/src/simple_hal.c.obj
 *fill*         0x0000000000046676        0x2 
 .rodata.m_buttons_list
                0x0000000000046678        0x4 CMakeFiles/light_switch_proxy_server_nrf52840_xxAA_s140_6.0.0.dir/__/__/common/src/simple_hal.c.obj
 .rodata.m_pb_gatt_fsm_descriptor
                0x000000000004667c       0x24 CMakeFiles/light_switch_proxy_server_nrf52840_xxAA_s140_6.0.0.dir/__/__/__/mesh/prov/src/nrf_mesh_prov_bearer_gatt.c.obj
 .rodata.m_pb_gatt_fsm_transition_table
                0x00000000000466a0       0x48 CMakeFiles/light_switch_proxy_server_nrf52840_xxAA_s140_6.0.0.dir/__/__/__/mesh/prov/src/nrf_mesh_prov_bearer_gatt.c.obj
 .rodata.pb_gatt_fsm_actions
                0x00000000000466e8       0x24 CMakeFiles/light_switch_proxy_server_nrf52840_xxAA_s140_6.0.0.dir/__/__/__/mesh/prov/src/nrf_mesh_prov_bearer_gatt.c.obj
 .rodata.prov_bearer_interface.10266
                0x000000000004670c       0x14 CMakeFiles/light_switch_proxy_server_nrf52840_xxAA_s140_6.0.0.dir/__/__/__/mesh/prov/src/nrf_mesh_prov_bearer_gatt.c.obj
 .rodata.str1.4
                0x0000000000046720      0x186 CMakeFiles/light_switch_proxy_server_nrf52840_xxAA_s140_6.0.0.dir/__/__/__/mesh/prov/src/nrf_mesh_prov_bearer_gatt.c.obj
 *fill*         0x00000000000468a6        0x2 
 .rodata        0x00000000000468a8        0x4 CMakeFiles/light_switch_proxy_server_nrf52840_xxAA_s140_6.0.0.dir/home/mazzer/work/nordic/sdk/nRF5_SDK_15.0.0/components/softdevice/common/nrf_sdh.c.obj
 .rodata.sdh_req_observers
                0x00000000000468ac        0xc CMakeFiles/light_switch_proxy_server_nrf52840_xxAA_s140_6.0.0.dir/home/mazzer/work/nordic/sdk/nRF5_SDK_15.0.0/components/softdevice/common/nrf_sdh.c.obj
 .rodata.sdh_stack_observers
                0x00000000000468b8        0xc CMakeFiles/light_switch_proxy_server_nrf52840_xxAA_s140_6.0.0.dir/home/mazzer/work/nordic/sdk/nRF5_SDK_15.0.0/components/softdevice/common/nrf_sdh.c.obj
 .rodata.sdh_state_observers
                0x00000000000468c4        0xc CMakeFiles/light_switch_proxy_server_nrf52840_xxAA_s140_6.0.0.dir/home/mazzer/work/nordic/sdk/nRF5_SDK_15.0.0/components/softdevice/common/nrf_sdh.c.obj
 .rodata.sdh_soc_observers
                0x00000000000468d0        0xc CMakeFiles/light_switch_proxy_server_nrf52840_xxAA_s140_6.0.0.dir/home/mazzer/work/nordic/sdk/nRF5_SDK_15.0.0/components/softdevice/common/nrf_sdh_soc.c.obj
 .rodata.sdh_ble_observers
                0x00000000000468dc        0xc CMakeFiles/light_switch_proxy_server_nrf52840_xxAA_s140_6.0.0.dir/home/mazzer/work/nordic/sdk/nRF5_SDK_15.0.0/components/softdevice/common/nrf_sdh_ble.c.obj
 .rodata.app_error_fault_handler.str1.4
                0x00000000000468e8       0xfd CMakeFiles/light_switch_proxy_server_nrf52840_xxAA_s140_6.0.0.dir/__/__/common/src/app_error_weak.c.obj
 .rodata.mesh_assertion_handler.str1.4
                0x00000000000469e5       0xfd CMakeFiles/light_switch_proxy_server_nrf52840_xxAA_s140_6.0.0.dir/__/__/common/src/assertion_handler_weak.c.obj
                                          0x1 (size before relaxing)
 *fill*         0x00000000000469e5        0x3 
 .rodata.sar_ctx_cancel.str1.4
                0x00000000000469e8       0x23 CMakeFiles/light_switch_proxy_server_nrf52840_xxAA_s140_6.0.0.dir/__/__/__/mesh/core/src/transport.c.obj
 *fill*         0x0000000000046a0b        0x1 
 .rodata.transport_packet_in.str1.4
                0x0000000000046a0c       0x24 CMakeFiles/light_switch_proxy_server_nrf52840_xxAA_s140_6.0.0.dir/__/__/__/mesh/core/src/transport.c.obj
 .rodata.upper_transport_access_packet_in.str1.4
                0x0000000000046a30       0x91 CMakeFiles/light_switch_proxy_server_nrf52840_xxAA_s140_6.0.0.dir/__/__/__/mesh/core/src/transport.c.obj
 *fill*         0x0000000000046ac1        0x3 
 .rodata.upper_transport_packet_in.str1.4
                0x0000000000046ac4       0x2e CMakeFiles/light_switch_proxy_server_nrf52840_xxAA_s140_6.0.0.dir/__/__/__/mesh/core/src/transport.c.obj
 *fill*         0x0000000000046af2        0x2 
 .rodata.upper_transport_tx.part.27.str1.4
                0x0000000000046af4        0xe CMakeFiles/light_switch_proxy_server_nrf52840_xxAA_s140_6.0.0.dir/__/__/__/mesh/core/src/transport.c.obj
                                         0x18 (size before relaxing)
 *fill*         0x0000000000046b02        0x2 
 .rodata.m_procedure_steps
                0x0000000000046b04       0x28 CMakeFiles/light_switch_proxy_server_nrf52840_xxAA_s140_6.0.0.dir/__/__/__/mesh/core/src/flash_manager_defrag.c.obj
 .rodata.m_all_operations
                0x0000000000046b2c       0x10 CMakeFiles/light_switch_proxy_server_nrf52840_xxAA_s140_6.0.0.dir/__/__/__/mesh/core/src/mesh_flash.c.obj
 .rodata.types_lookup.9514
                0x0000000000046b3c        0x4 CMakeFiles/light_switch_proxy_server_nrf52840_xxAA_s140_6.0.0.dir/__/__/__/mesh/core/src/nrf_mesh_utils.c.obj
 .rodata.__func__.12009
                0x0000000000046b40       0x15 CMakeFiles/light_switch_proxy_server_nrf52840_xxAA_s140_6.0.0.dir/__/__/__/mesh/core/src/nrf_mesh.c.obj
 *fill*         0x0000000000046b55        0x3 
 .rodata.nrf_mesh_listen.str1.4
                0x0000000000046b58       0xab CMakeFiles/light_switch_proxy_server_nrf52840_xxAA_s140_6.0.0.dir/__/__/__/mesh/core/src/nrf_mesh.c.obj
 .rodata.nrf_mesh_packet_send.str1.4
                0x0000000000046c03       0xab CMakeFiles/light_switch_proxy_server_nrf52840_xxAA_s140_6.0.0.dir/__/__/__/mesh/core/src/nrf_mesh.c.obj
                                          0x4 (size before relaxing)
 *fill*         0x0000000000046c03        0x1 
 .rodata.CSWTCH.7
                0x0000000000046c04       0x20 CMakeFiles/light_switch_proxy_server_nrf52840_xxAA_s140_6.0.0.dir/__/__/__/mesh/core/src/hal.c.obj
 .rodata        0x0000000000046c24       0x18 CMakeFiles/light_switch_proxy_server_nrf52840_xxAA_s140_6.0.0.dir/__/__/__/mesh/core/src/enc.c.obj
 .rodata.network_packet_in.str1.4
                0x0000000000046c3c       0x81 CMakeFiles/light_switch_proxy_server_nrf52840_xxAA_s140_6.0.0.dir/__/__/__/mesh/core/src/network.c.obj
 *fill*         0x0000000000046cbd        0x3 
 .rodata.net_packet_decrypt.str1.4
                0x0000000000046cc0       0x6b CMakeFiles/light_switch_proxy_server_nrf52840_xxAA_s140_6.0.0.dir/__/__/__/mesh/core/src/net_packet.c.obj
                                         0x74 (size before relaxing)
 *fill*         0x0000000000046d2b        0x1 
 .rodata        0x0000000000046d2c        0x7 CMakeFiles/light_switch_proxy_server_nrf52840_xxAA_s140_6.0.0.dir/__/__/__/mesh/core/src/nrf_mesh_keygen.c.obj
 *fill*         0x0000000000046d33        0x1 
 .rodata.log_callback_rtt.str1.4
                0x0000000000046d34       0x15 CMakeFiles/light_switch_proxy_server_nrf52840_xxAA_s140_6.0.0.dir/__/__/__/mesh/core/src/log.c.obj
 *fill*         0x0000000000046d49        0x3 
 .rodata.str1.4
                0x0000000000046d4c       0x11 CMakeFiles/light_switch_proxy_server_nrf52840_xxAA_s140_6.0.0.dir/__/__/__/mesh/core/src/log.c.obj
 *fill*         0x0000000000046d5d        0x3 
 .rodata.INVALID_HEADER
                0x0000000000046d60        0x4 CMakeFiles/light_switch_proxy_server_nrf52840_xxAA_s140_6.0.0.dir/__/__/__/mesh/core/src/flash_manager.c.obj
                0x0000000000046d60                INVALID_HEADER
 .rodata.PADDING_HEADER
                0x0000000000046d64        0x4 CMakeFiles/light_switch_proxy_server_nrf52840_xxAA_s140_6.0.0.dir/__/__/__/mesh/core/src/flash_manager.c.obj
                0x0000000000046d64                PADDING_HEADER
 .rodata.SEAL_HEADER
                0x0000000000046d68        0x4 CMakeFiles/light_switch_proxy_server_nrf52840_xxAA_s140_6.0.0.dir/__/__/__/mesh/core/src/flash_manager.c.obj
                0x0000000000046d68                SEAL_HEADER
 .rodata.beacon_packet_in.str1.4
                0x0000000000046d6c       0x8d CMakeFiles/light_switch_proxy_server_nrf52840_xxAA_s140_6.0.0.dir/__/__/__/mesh/core/src/beacon.c.obj
                                         0x98 (size before relaxing)
 *fill*         0x0000000000046df9        0x3 
 .rodata.cp_handler
                0x0000000000046dfc        0x8 CMakeFiles/light_switch_proxy_server_nrf52840_xxAA_s140_6.0.0.dir/__/__/__/mesh/core/src/heartbeat.c.obj
 .rodata.beacon_tx.str1.4
                0x0000000000046e04       0x6f CMakeFiles/light_switch_proxy_server_nrf52840_xxAA_s140_6.0.0.dir/__/__/__/mesh/core/src/net_beacon.c.obj
 *fill*         0x0000000000046e73        0x1 
 .rodata.net_beacon_init.str1.4
                0x0000000000046e74        0x5 CMakeFiles/light_switch_proxy_server_nrf52840_xxAA_s140_6.0.0.dir/__/__/__/mesh/core/src/net_beacon.c.obj
 *fill*         0x0000000000046e79        0x3 
 .rodata.fsm_event_post.str1.4
                0x0000000000046e7c        0xb CMakeFiles/light_switch_proxy_server_nrf52840_xxAA_s140_6.0.0.dir/__/__/__/mesh/core/src/fsm.c.obj
 *fill*         0x0000000000046e87        0x1 
 .rodata.fsm_event_post_try.str1.4
                0x0000000000046e88       0x7c CMakeFiles/light_switch_proxy_server_nrf52840_xxAA_s140_6.0.0.dir/__/__/__/mesh/core/src/fsm.c.obj
 .rodata.fsm_init.str1.4
                0x0000000000046f04        0xa CMakeFiles/light_switch_proxy_server_nrf52840_xxAA_s140_6.0.0.dir/__/__/__/mesh/core/src/fsm.c.obj
 *fill*         0x0000000000046f0e        0x2 
 .rodata.m_interface
                0x0000000000046f10        0xc CMakeFiles/light_switch_proxy_server_nrf52840_xxAA_s140_6.0.0.dir/__/__/__/mesh/core/src/core_tx_adv.c.obj
 .rodata.radio_mode_to_us_per_byte.9907
                0x0000000000046f1c        0x6 CMakeFiles/light_switch_proxy_server_nrf52840_xxAA_s140_6.0.0.dir/__/__/__/mesh/bearer/src/broadcast.c.obj
 *fill*         0x0000000000046f22        0x2 
 .rodata.channel_rf_offsets.9125
                0x0000000000046f24       0x28 CMakeFiles/light_switch_proxy_server_nrf52840_xxAA_s140_6.0.0.dir/__/__/__/mesh/bearer/src/radio_config.c.obj
 .rodata        0x0000000000046f4c        0x6 CMakeFiles/light_switch_proxy_server_nrf52840_xxAA_s140_6.0.0.dir/__/__/__/mesh/gatt/src/proxy.c.obj
 *fill*         0x0000000000046f52        0x2 
 .rodata.gatt_evt_handler.str1.4
                0x0000000000046f54      0x11e CMakeFiles/light_switch_proxy_server_nrf52840_xxAA_s140_6.0.0.dir/__/__/__/mesh/gatt/src/proxy.c.obj
 *fill*         0x0000000000047072        0x2 
 .rodata.m_interface
                0x0000000000047074        0xc CMakeFiles/light_switch_proxy_server_nrf52840_xxAA_s140_6.0.0.dir/__/__/__/mesh/gatt/src/proxy.c.obj
 .rodata.m_opcode_handlers
                0x0000000000047080       0x18 CMakeFiles/light_switch_proxy_server_nrf52840_xxAA_s140_6.0.0.dir/__/__/__/models/simple_on_off/src/simple_on_off_server.c.obj
 .rodata        0x0000000000047098        0x8 CMakeFiles/light_switch_proxy_server_nrf52840_xxAA_s140_6.0.0.dir/__/__/__/models/config/src/config_server.c.obj
 .rodata.CSWTCH.184
                0x00000000000470a0       0x10 CMakeFiles/light_switch_proxy_server_nrf52840_xxAA_s140_6.0.0.dir/__/__/__/models/config/src/config_server.c.obj
 .rodata.opcode_handlers
                0x00000000000470b0      0x170 CMakeFiles/light_switch_proxy_server_nrf52840_xxAA_s140_6.0.0.dir/__/__/__/models/config/src/config_server.c.obj
 .rodata.m_opcode_handlers
                0x0000000000047220       0x58 CMakeFiles/light_switch_proxy_server_nrf52840_xxAA_s140_6.0.0.dir/__/__/__/models/health/src/health_server.c.obj
 .rodata.multiply_de_bruijn_bit_position.9759
                0x0000000000047278       0x20 CMakeFiles/light_switch_proxy_server_nrf52840_xxAA_s140_6.0.0.dir/__/__/__/models/health/src/health_server.c.obj
 .rodata.access_model_publish.str1.4
                0x0000000000047298       0x1c CMakeFiles/light_switch_proxy_server_nrf52840_xxAA_s140_6.0.0.dir/__/__/__/mesh/access/src/access.c.obj
                                         0x24 (size before relaxing)
 .rodata.mesh_evt_cb.str1.4
                0x00000000000472b4       0x67 CMakeFiles/light_switch_proxy_server_nrf52840_xxAA_s140_6.0.0.dir/__/__/__/mesh/access/src/access.c.obj
 *fill*         0x000000000004731b        0x1 
 .rodata.multiply_de_bruijn_bit_position.9715
                0x000000000004731c       0x20 CMakeFiles/light_switch_proxy_server_nrf52840_xxAA_s140_6.0.0.dir/__/__/__/mesh/access/src/access.c.obj
 .rodata.m_flash_groups
                0x000000000004733c       0xa8 CMakeFiles/light_switch_proxy_server_nrf52840_xxAA_s140_6.0.0.dir/__/__/__/mesh/access/src/device_state_manager.c.obj
 .rodata.multiply_de_bruijn_bit_position.9821
                0x00000000000473e4       0x20 CMakeFiles/light_switch_proxy_server_nrf52840_xxAA_s140_6.0.0.dir/__/__/__/mesh/access/src/device_state_manager.c.obj
 .rodata.m_prov_callbacks
                0x0000000000047404       0x10 CMakeFiles/light_switch_proxy_server_nrf52840_xxAA_s140_6.0.0.dir/__/__/__/mesh/prov/src/prov_provisionee.c.obj
 .rodata.prov_provisionee_cb_ack_received.str1.4
                0x0000000000047414       0x8b CMakeFiles/light_switch_proxy_server_nrf52840_xxAA_s140_6.0.0.dir/__/__/__/mesh/prov/src/prov_provisionee.c.obj
 *fill*         0x000000000004749f        0x1 
 .rodata.multiply_de_bruijn_bit_position.9768
                0x00000000000474a0       0x20 CMakeFiles/light_switch_proxy_server_nrf52840_xxAA_s140_6.0.0.dir/__/__/__/mesh/prov/src/nrf_mesh_prov.c.obj
 .rodata.pdu_sizes.11729
                0x00000000000474c0        0xa CMakeFiles/light_switch_proxy_server_nrf52840_xxAA_s140_6.0.0.dir/__/__/__/mesh/prov/src/provisioning.c.obj
 *fill*         0x00000000000474ca        0x2 
 .rodata.alphanumeric.11834
                0x00000000000474cc       0x25 CMakeFiles/light_switch_proxy_server_nrf52840_xxAA_s140_6.0.0.dir/__/__/__/mesh/prov/src/prov_utils.c.obj
 *fill*         0x00000000000474f1        0x3 
 .rodata.numeric_max.11828
                0x00000000000474f4       0x24 CMakeFiles/light_switch_proxy_server_nrf52840_xxAA_s140_6.0.0.dir/__/__/__/mesh/prov/src/prov_utils.c.obj
 .rodata.prov_utils_authentication_values_derive.str1.4
                0x0000000000047518        0x5 CMakeFiles/light_switch_proxy_server_nrf52840_xxAA_s140_6.0.0.dir/__/__/__/mesh/prov/src/prov_utils.c.obj
 *fill*         0x000000000004751d        0x3 
 .rodata.prov_utils_derive_keys.str1.4
                0x0000000000047520       0x15 CMakeFiles/light_switch_proxy_server_nrf52840_xxAA_s140_6.0.0.dir/__/__/__/mesh/prov/src/prov_utils.c.obj
 *fill*         0x0000000000047535        0x3 
 .rodata.crctable.11463
                0x0000000000047538      0x100 CMakeFiles/light_switch_proxy_server_nrf52840_xxAA_s140_6.0.0.dir/__/__/__/mesh/prov/src/prov_bearer_adv.c.obj
 .rodata.interface.11693
                0x0000000000047638       0x14 CMakeFiles/light_switch_proxy_server_nrf52840_xxAA_s140_6.0.0.dir/__/__/__/mesh/prov/src/prov_bearer_adv.c.obj
 .rodata.prov_bearer_adv_listen.str1.4
                0x000000000004764c       0x88 CMakeFiles/light_switch_proxy_server_nrf52840_xxAA_s140_6.0.0.dir/__/__/__/mesh/prov/src/prov_bearer_adv.c.obj
 .rodata.prov_bearer_adv_packet_in.str1.4
                0x00000000000476d4      0x283 CMakeFiles/light_switch_proxy_server_nrf52840_xxAA_s140_6.0.0.dir/__/__/__/mesh/prov/src/prov_bearer_adv.c.obj
 *fill*         0x0000000000047957        0x1 
 .rodata.tx_retry_cb.str1.4
                0x0000000000047958       0x14 CMakeFiles/light_switch_proxy_server_nrf52840_xxAA_s140_6.0.0.dir/__/__/__/mesh/prov/src/prov_bearer_adv.c.obj
 .rodata.SEGGER_RTT_ReadNoLock.str1.4
                0x000000000004796c       0x18 ../../../external/rtt/librtt_nrf52840_xxAA.a(SEGGER_RTT.c.obj)
                                         0x17 (size before relaxing)
 .rodata._aV2C.5639
                0x0000000000047984       0x10 ../../../external/rtt/librtt_nrf52840_xxAA.a(SEGGER_RTT_printf.c.obj)
 .rodata.curve_secp256r1
                0x0000000000047994       0xb0 ../../../external/micro-ecc/libuECC_nrf52840_xxAA.a(uECC.c.obj)
 .rodata._global_impure_ptr
                0x0000000000047a44        0x4 /usr/bin/../lib/gcc/arm-none-eabi/7.2.1/../../../../arm-none-eabi/lib/thumb/v7e-m/fpv4-sp/hard/libg_nano.a(lib_a-impure.o)
                0x0000000000047a44                _global_impure_ptr
 *(.eh_frame*)
 .eh_frame      0x0000000000047a48        0x0 /usr/bin/../lib/gcc/arm-none-eabi/7.2.1/thumb/v7e-m/fpv4-sp/hard/crtbegin.o
 .eh_frame      0x0000000000047a48        0x4 /usr/bin/../lib/gcc/arm-none-eabi/7.2.1/thumb/v7e-m/fpv4-sp/hard/crtend.o

.glue_7         0x0000000000047a4c        0x0
 .glue_7        0x0000000000047a4c        0x0 linker stubs

.glue_7t        0x0000000000047a4c        0x0
 .glue_7t       0x0000000000047a4c        0x0 linker stubs

.vfp11_veneer   0x0000000000047a4c        0x0
 .vfp11_veneer  0x0000000000047a4c        0x0 linker stubs

.v4_bx          0x0000000000047a4c        0x0
 .v4_bx         0x0000000000047a4c        0x0 linker stubs

.iplt           0x0000000000047a4c        0x0
 .iplt          0x0000000000047a4c        0x0 /usr/bin/../lib/gcc/arm-none-eabi/7.2.1/thumb/v7e-m/fpv4-sp/hard/crtbegin.o

.pwr_mgmt_data  0x0000000000047a4c        0x0
                [!provide]                        PROVIDE (__start_pwr_mgmt_data, .)
 *(SORT_BY_NAME(.pwr_mgmt_data*))
                [!provide]                        PROVIDE (__stop_pwr_mgmt_data, .)

.log_const_data
                0x0000000000047a4c        0x0
                [!provide]                        PROVIDE (__start_log_const_data, .)
 *(.log_const_data)
                [!provide]                        PROVIDE (__stop_log_const_data, .)

.cli_command    0x0000000000047a4c        0x0
                [!provide]                        PROVIDE (__start_cli_command, .)
 *(.cli_command)
                [!provide]                        PROVIDE (__stop_cli_command, .)

.sdh_stack_observers
                0x0000000000047a4c       0x10
                0x0000000000047a4c                PROVIDE (__start_sdh_stack_observers, .)
 *(SORT_BY_NAME(.sdh_stack_observers*))
 .sdh_stack_observers0
                0x0000000000047a4c        0x8 CMakeFiles/light_switch_proxy_server_nrf52840_xxAA_s140_6.0.0.dir/home/mazzer/work/nordic/sdk/nRF5_SDK_15.0.0/components/softdevice/common/nrf_sdh_soc.c.obj
 .sdh_stack_observers0
                0x0000000000047a54        0x8 CMakeFiles/light_switch_proxy_server_nrf52840_xxAA_s140_6.0.0.dir/home/mazzer/work/nordic/sdk/nRF5_SDK_15.0.0/components/softdevice/common/nrf_sdh_ble.c.obj
                0x0000000000047a5c                PROVIDE (__stop_sdh_stack_observers, .)

.sdh_req_observers
                0x0000000000047a5c        0x0
                0x0000000000047a5c                PROVIDE (__start_sdh_req_observers, .)
 *(SORT_BY_NAME(.sdh_req_observers*))
                0x0000000000047a5c                PROVIDE (__stop_sdh_req_observers, .)

.sdh_state_observers
                0x0000000000047a5c        0x8
                0x0000000000047a5c                PROVIDE (__start_sdh_state_observers, .)
 *(SORT_BY_NAME(.sdh_state_observers*))
 .sdh_state_observers1
                0x0000000000047a5c        0x8 CMakeFiles/light_switch_proxy_server_nrf52840_xxAA_s140_6.0.0.dir/__/__/common/src/mesh_provisionee.c.obj
                0x0000000000047a64                PROVIDE (__stop_sdh_state_observers, .)

.sdh_ant_observers
                0x0000000000047a64        0x0
                [!provide]                        PROVIDE (__start_sdh_ant_observers, .)
 *(SORT_BY_NAME(.sdh_ant_observers*))
                [!provide]                        PROVIDE (__stop_sdh_ant_observers, .)

.sdh_ble_observers
                0x0000000000047a64        0x8
                0x0000000000047a64                PROVIDE (__start_sdh_ble_observers, .)
 *(SORT_BY_NAME(.sdh_ble_observers*))
 .sdh_ble_observers2
                0x0000000000047a64        0x8 CMakeFiles/light_switch_proxy_server_nrf52840_xxAA_s140_6.0.0.dir/__/__/__/mesh/gatt/src/mesh_gatt.c.obj
                0x0000000000047a6c                PROVIDE (__stop_sdh_ble_observers, .)

.sdh_soc_observers
                0x0000000000047a6c        0x8
                0x0000000000047a6c                PROVIDE (__start_sdh_soc_observers, .)
 *(SORT_BY_NAME(.sdh_soc_observers*))
 .sdh_soc_observers0
                0x0000000000047a6c        0x8 CMakeFiles/light_switch_proxy_server_nrf52840_xxAA_s140_6.0.0.dir/src/main.c.obj
                0x0000000000047a74                PROVIDE (__stop_sdh_soc_observers, .)

.ARM.extab
 *(.ARM.extab* .gnu.linkonce.armextab.*)
                0x0000000000047a74                __exidx_start = .

.ARM.exidx      0x0000000000047a74        0x8
 *(.ARM.exidx* .gnu.linkonce.armexidx.*)
 .ARM.exidx     0x0000000000047a74        0x8 /usr/bin/../lib/gcc/arm-none-eabi/7.2.1/../../../../arm-none-eabi/lib/thumb/v7e-m/fpv4-sp/hard/crt0.o
 .ARM.exidx     0x0000000000047a7c        0x0 /usr/bin/../lib/gcc/arm-none-eabi/7.2.1/thumb/v7e-m/fpv4-sp/hard/libgcc.a(_udivmoddi4.o)
                                          0x8 (size before relaxing)
                0x0000000000047a7c                __exidx_end = .
                0x0000000000047a7c                __etext = .

.rel.dyn        0x0000000000047a7c        0x0
 .rel.iplt      0x0000000000047a7c        0x0 /usr/bin/../lib/gcc/arm-none-eabi/7.2.1/thumb/v7e-m/fpv4-sp/hard/crtbegin.o

.data           0x00000000200032c8      0x1c0 load address 0x0000000000047a7c
                0x00000000200032c8                __data_start__ = .
 *(vtable)
 *(.data*)
 .data.s_evt_handler.11533
                0x00000000200032c8        0x8 CMakeFiles/light_switch_proxy_server_nrf52840_xxAA_s140_6.0.0.dir/__/__/__/mesh/stack/src/mesh_stack.c.obj
 .data.m_adv_handle
                0x00000000200032d0        0x1 CMakeFiles/light_switch_proxy_server_nrf52840_xxAA_s140_6.0.0.dir/__/__/common/src/mesh_adv.c.obj
 *fill*         0x00000000200032d1        0x3 
 .data.m_adv_params
                0x00000000200032d4       0x18 CMakeFiles/light_switch_proxy_server_nrf52840_xxAA_s140_6.0.0.dir/__/__/common/src/mesh_adv.c.obj
 .data.m_action_lookup_table
                0x00000000200032ec       0x24 CMakeFiles/light_switch_proxy_server_nrf52840_xxAA_s140_6.0.0.dir/__/__/__/mesh/prov/src/nrf_mesh_prov_bearer_gatt.c.obj
 .data.m_event_lookup_table
                0x0000000020003310       0x2c CMakeFiles/light_switch_proxy_server_nrf52840_xxAA_s140_6.0.0.dir/__/__/__/mesh/prov/src/nrf_mesh_prov_bearer_gatt.c.obj
 .data.m_guard_lookup_table
                0x000000002000333c        0x4 CMakeFiles/light_switch_proxy_server_nrf52840_xxAA_s140_6.0.0.dir/__/__/__/mesh/prov/src/nrf_mesh_prov_bearer_gatt.c.obj
 .data.m_state_lookup_table
                0x0000000020003340       0x10 CMakeFiles/light_switch_proxy_server_nrf52840_xxAA_s140_6.0.0.dir/__/__/__/mesh/prov/src/nrf_mesh_prov_bearer_gatt.c.obj
 .data.wait.9426
                0x0000000020003350        0x1 CMakeFiles/light_switch_proxy_server_nrf52840_xxAA_s140_6.0.0.dir/__/__/common/src/app_error_weak.c.obj
 *fill*         0x0000000020003351        0x3 
 .data.mem_listener.10265
                0x0000000020003354       0x10 CMakeFiles/light_switch_proxy_server_nrf52840_xxAA_s140_6.0.0.dir/__/__/__/mesh/core/src/net_state.c.obj
 .data.mem_listener.10270
                0x0000000020003364       0x10 CMakeFiles/light_switch_proxy_server_nrf52840_xxAA_s140_6.0.0.dir/__/__/__/mesh/core/src/net_state.c.obj
 .data.mem_listener.10284
                0x0000000020003374       0x10 CMakeFiles/light_switch_proxy_server_nrf52840_xxAA_s140_6.0.0.dir/__/__/__/mesh/core/src/net_state.c.obj
 .data.mem_listener.10301
                0x0000000020003384       0x10 CMakeFiles/light_switch_proxy_server_nrf52840_xxAA_s140_6.0.0.dir/__/__/__/mesh/core/src/net_state.c.obj
 .data.m_nrf_mesh_listener
                0x0000000020003394        0xc CMakeFiles/light_switch_proxy_server_nrf52840_xxAA_s140_6.0.0.dir/__/__/__/mesh/core/src/nrf_mesh.c.obj
 .data.g_log_dbg_lvl
                0x00000000200033a0        0x4 CMakeFiles/light_switch_proxy_server_nrf52840_xxAA_s140_6.0.0.dir/__/__/__/mesh/core/src/log.c.obj
                0x00000000200033a0                g_log_dbg_lvl
 .data.g_log_dbg_msk
                0x00000000200033a4        0x4 CMakeFiles/light_switch_proxy_server_nrf52840_xxAA_s140_6.0.0.dir/__/__/__/mesh/core/src/log.c.obj
                0x00000000200033a4                g_log_dbg_msk
 .data.g_log_hex_digits
                0x00000000200033a8        0x4 CMakeFiles/light_switch_proxy_server_nrf52840_xxAA_s140_6.0.0.dir/__/__/__/mesh/core/src/log.c.obj
                0x00000000200033a8                g_log_hex_digits
 .data.m_log_callback
                0x00000000200033ac        0x4 CMakeFiles/light_switch_proxy_server_nrf52840_xxAA_s140_6.0.0.dir/__/__/__/mesh/core/src/log.c.obj
                0x00000000200033ac                m_log_callback
 .data.m_config_server_handle
                0x00000000200033b0        0x2 CMakeFiles/light_switch_proxy_server_nrf52840_xxAA_s140_6.0.0.dir/__/__/__/models/config/src/config_server.c.obj
 *fill*         0x00000000200033b2        0x2 
 .data.m_mesh_evt_handler
                0x00000000200033b4        0x8 CMakeFiles/light_switch_proxy_server_nrf52840_xxAA_s140_6.0.0.dir/__/__/__/models/config/src/config_server.c.obj
 .data.flash_add_mem_available_struct.10839
                0x00000000200033bc       0x10 CMakeFiles/light_switch_proxy_server_nrf52840_xxAA_s140_6.0.0.dir/__/__/__/mesh/access/src/access.c.obj
 .data.flash_clear_mem_available_struct.10928
                0x00000000200033cc       0x10 CMakeFiles/light_switch_proxy_server_nrf52840_xxAA_s140_6.0.0.dir/__/__/__/mesh/access/src/access.c.obj
 .data.flash_store_mem_available_struct.10952
                0x00000000200033dc       0x10 CMakeFiles/light_switch_proxy_server_nrf52840_xxAA_s140_6.0.0.dir/__/__/__/mesh/access/src/access.c.obj
 .data.m_default_ttl
                0x00000000200033ec        0x1 CMakeFiles/light_switch_proxy_server_nrf52840_xxAA_s140_6.0.0.dir/__/__/__/mesh/access/src/access.c.obj
 *fill*         0x00000000200033ed        0x3 
 .data.mem_listener.11129
                0x00000000200033f0       0x10 CMakeFiles/light_switch_proxy_server_nrf52840_xxAA_s140_6.0.0.dir/__/__/__/mesh/access/src/device_state_manager.c.obj
 .data.mem_listener.11155
                0x0000000020003400       0x10 CMakeFiles/light_switch_proxy_server_nrf52840_xxAA_s140_6.0.0.dir/__/__/__/mesh/access/src/device_state_manager.c.obj
 .data.m_async_process_flag
                0x0000000020003410        0x4 CMakeFiles/light_switch_proxy_server_nrf52840_xxAA_s140_6.0.0.dir/__/__/__/mesh/prov/src/prov_bearer_adv.c.obj
 .data.SystemCoreClock
                0x0000000020003414        0x4 CMakeFiles/light_switch_proxy_server_nrf52840_xxAA_s140_6.0.0.dir/home/mazzer/work/nordic/sdk/nRF5_SDK_15.0.0/modules/nrfx/mdk/system_nrf52840.c.obj
                0x0000000020003414                SystemCoreClock
 .data.g_rng_function
                0x0000000020003418        0x4 ../../../external/micro-ecc/libuECC_nrf52840_xxAA.a(uECC.c.obj)
 .data._impure_ptr
                0x000000002000341c        0x4 /usr/bin/../lib/gcc/arm-none-eabi/7.2.1/../../../../arm-none-eabi/lib/thumb/v7e-m/fpv4-sp/hard/libg_nano.a(lib_a-impure.o)
                0x000000002000341c                _impure_ptr
 .data.impure_data
                0x0000000020003420       0x60 /usr/bin/../lib/gcc/arm-none-eabi/7.2.1/../../../../arm-none-eabi/lib/thumb/v7e-m/fpv4-sp/hard/libg_nano.a(lib_a-impure.o)
                0x0000000020003480                . = ALIGN (0x4)
                0x0000000020003480                PROVIDE (__preinit_array_start, .)
 *(.preinit_array)
                0x0000000020003480                PROVIDE (__preinit_array_end, .)
                0x0000000020003480                . = ALIGN (0x4)
                0x0000000020003480                PROVIDE (__init_array_start, .)
 *(SORT_BY_NAME(.init_array.*))
 *(.init_array)
 .init_array    0x0000000020003480        0x4 /usr/bin/../lib/gcc/arm-none-eabi/7.2.1/thumb/v7e-m/fpv4-sp/hard/crtbegin.o
                0x0000000020003484                PROVIDE (__init_array_end, .)
                0x0000000020003484                . = ALIGN (0x4)
                [!provide]                        PROVIDE (__fini_array_start, .)
 *(SORT_BY_NAME(.fini_array.*))
 *(.fini_array)
 .fini_array    0x0000000020003484        0x4 /usr/bin/../lib/gcc/arm-none-eabi/7.2.1/thumb/v7e-m/fpv4-sp/hard/crtbegin.o
                [!provide]                        PROVIDE (__fini_array_end, .)
 *(.jcr*)
                0x0000000020003488                . = ALIGN (0x4)
                0x0000000020003488                __data_end__ = .
LOAD /usr/bin/../lib/gcc/arm-none-eabi/7.2.1/thumb/v7e-m/fpv4-sp/hard/crti.o
LOAD /usr/bin/../lib/gcc/arm-none-eabi/7.2.1/thumb/v7e-m/fpv4-sp/hard/crtbegin.o
LOAD /usr/bin/../lib/gcc/arm-none-eabi/7.2.1/../../../../arm-none-eabi/lib/thumb/v7e-m/fpv4-sp/hard/crt0.o
LOAD CMakeFiles/light_switch_proxy_server_nrf52840_xxAA_s140_6.0.0.dir/src/main.c.obj
LOAD CMakeFiles/light_switch_proxy_server_nrf52840_xxAA_s140_6.0.0.dir/__/__/__/mesh/stack/src/mesh_stack.c.obj
LOAD CMakeFiles/light_switch_proxy_server_nrf52840_xxAA_s140_6.0.0.dir/__/__/common/src/mesh_provisionee.c.obj
LOAD CMakeFiles/light_switch_proxy_server_nrf52840_xxAA_s140_6.0.0.dir/__/__/common/src/rtt_input.c.obj
LOAD CMakeFiles/light_switch_proxy_server_nrf52840_xxAA_s140_6.0.0.dir/__/__/common/src/simple_hal.c.obj
LOAD CMakeFiles/light_switch_proxy_server_nrf52840_xxAA_s140_6.0.0.dir/__/__/common/src/mesh_app_utils.c.obj
LOAD CMakeFiles/light_switch_proxy_server_nrf52840_xxAA_s140_6.0.0.dir/__/__/common/src/mesh_adv.c.obj
LOAD CMakeFiles/light_switch_proxy_server_nrf52840_xxAA_s140_6.0.0.dir/__/__/__/mesh/prov/src/nrf_mesh_prov_bearer_gatt.c.obj
LOAD CMakeFiles/light_switch_proxy_server_nrf52840_xxAA_s140_6.0.0.dir/home/mazzer/work/nordic/sdk/nRF5_SDK_15.0.0/components/libraries/util/app_util_platform.c.obj
LOAD CMakeFiles/light_switch_proxy_server_nrf52840_xxAA_s140_6.0.0.dir/home/mazzer/work/nordic/sdk/nRF5_SDK_15.0.0/components/ble/common/ble_advdata.c.obj
LOAD CMakeFiles/light_switch_proxy_server_nrf52840_xxAA_s140_6.0.0.dir/home/mazzer/work/nordic/sdk/nRF5_SDK_15.0.0/components/libraries/experimental_section_vars/nrf_section_iter.c.obj
LOAD CMakeFiles/light_switch_proxy_server_nrf52840_xxAA_s140_6.0.0.dir/home/mazzer/work/nordic/sdk/nRF5_SDK_15.0.0/components/softdevice/common/nrf_sdh.c.obj
LOAD CMakeFiles/light_switch_proxy_server_nrf52840_xxAA_s140_6.0.0.dir/home/mazzer/work/nordic/sdk/nRF5_SDK_15.0.0/components/softdevice/common/nrf_sdh_soc.c.obj
LOAD CMakeFiles/light_switch_proxy_server_nrf52840_xxAA_s140_6.0.0.dir/home/mazzer/work/nordic/sdk/nRF5_SDK_15.0.0/components/softdevice/common/nrf_sdh_ble.c.obj
LOAD CMakeFiles/light_switch_proxy_server_nrf52840_xxAA_s140_6.0.0.dir/__/__/nrf_mesh_weak.c.obj
LOAD CMakeFiles/light_switch_proxy_server_nrf52840_xxAA_s140_6.0.0.dir/__/__/common/src/app_error_weak.c.obj
LOAD CMakeFiles/light_switch_proxy_server_nrf52840_xxAA_s140_6.0.0.dir/__/__/common/src/assertion_handler_weak.c.obj
LOAD CMakeFiles/light_switch_proxy_server_nrf52840_xxAA_s140_6.0.0.dir/__/__/__/mesh/core/src/internal_event.c.obj
LOAD CMakeFiles/light_switch_proxy_server_nrf52840_xxAA_s140_6.0.0.dir/__/__/__/mesh/core/src/nrf_mesh_configure.c.obj
LOAD CMakeFiles/light_switch_proxy_server_nrf52840_xxAA_s140_6.0.0.dir/__/__/__/mesh/core/src/aes.c.obj
LOAD CMakeFiles/light_switch_proxy_server_nrf52840_xxAA_s140_6.0.0.dir/__/__/__/mesh/core/src/msg_cache.c.obj
LOAD CMakeFiles/light_switch_proxy_server_nrf52840_xxAA_s140_6.0.0.dir/__/__/__/mesh/core/src/transport.c.obj
LOAD CMakeFiles/light_switch_proxy_server_nrf52840_xxAA_s140_6.0.0.dir/__/__/__/mesh/core/src/event.c.obj
LOAD CMakeFiles/light_switch_proxy_server_nrf52840_xxAA_s140_6.0.0.dir/__/__/__/mesh/core/src/packet_buffer.c.obj
LOAD CMakeFiles/light_switch_proxy_server_nrf52840_xxAA_s140_6.0.0.dir/__/__/__/mesh/core/src/flash_manager_defrag.c.obj
LOAD CMakeFiles/light_switch_proxy_server_nrf52840_xxAA_s140_6.0.0.dir/__/__/__/mesh/core/src/fifo.c.obj
LOAD CMakeFiles/light_switch_proxy_server_nrf52840_xxAA_s140_6.0.0.dir/__/__/__/mesh/core/src/nrf_flash.c.obj
LOAD CMakeFiles/light_switch_proxy_server_nrf52840_xxAA_s140_6.0.0.dir/__/__/__/mesh/core/src/packet_mgr.c.obj
LOAD CMakeFiles/light_switch_proxy_server_nrf52840_xxAA_s140_6.0.0.dir/__/__/__/mesh/core/src/net_state.c.obj
LOAD CMakeFiles/light_switch_proxy_server_nrf52840_xxAA_s140_6.0.0.dir/__/__/__/mesh/core/src/mesh_flash.c.obj
LOAD CMakeFiles/light_switch_proxy_server_nrf52840_xxAA_s140_6.0.0.dir/__/__/__/mesh/core/src/nrf_mesh_utils.c.obj
LOAD CMakeFiles/light_switch_proxy_server_nrf52840_xxAA_s140_6.0.0.dir/__/__/__/mesh/core/src/nrf_mesh.c.obj
LOAD CMakeFiles/light_switch_proxy_server_nrf52840_xxAA_s140_6.0.0.dir/__/__/__/mesh/core/src/queue.c.obj
LOAD CMakeFiles/light_switch_proxy_server_nrf52840_xxAA_s140_6.0.0.dir/__/__/__/mesh/core/src/hal.c.obj
LOAD CMakeFiles/light_switch_proxy_server_nrf52840_xxAA_s140_6.0.0.dir/__/__/__/mesh/core/src/aes_cmac.c.obj
LOAD CMakeFiles/light_switch_proxy_server_nrf52840_xxAA_s140_6.0.0.dir/__/__/__/mesh/core/src/timer_scheduler.c.obj
LOAD CMakeFiles/light_switch_proxy_server_nrf52840_xxAA_s140_6.0.0.dir/__/__/__/mesh/core/src/timer.c.obj
LOAD CMakeFiles/light_switch_proxy_server_nrf52840_xxAA_s140_6.0.0.dir/__/__/__/mesh/core/src/ticker.c.obj
LOAD CMakeFiles/light_switch_proxy_server_nrf52840_xxAA_s140_6.0.0.dir/__/__/__/mesh/core/src/rand.c.obj
LOAD CMakeFiles/light_switch_proxy_server_nrf52840_xxAA_s140_6.0.0.dir/__/__/__/mesh/core/src/nrf_mesh_opt.c.obj
LOAD CMakeFiles/light_switch_proxy_server_nrf52840_xxAA_s140_6.0.0.dir/__/__/__/mesh/core/src/timeslot.c.obj
LOAD CMakeFiles/light_switch_proxy_server_nrf52840_xxAA_s140_6.0.0.dir/__/__/__/mesh/core/src/bearer_event.c.obj
LOAD CMakeFiles/light_switch_proxy_server_nrf52840_xxAA_s140_6.0.0.dir/__/__/__/mesh/core/src/enc.c.obj
LOAD CMakeFiles/light_switch_proxy_server_nrf52840_xxAA_s140_6.0.0.dir/__/__/__/mesh/core/src/network.c.obj
LOAD CMakeFiles/light_switch_proxy_server_nrf52840_xxAA_s140_6.0.0.dir/__/__/__/mesh/core/src/net_packet.c.obj
LOAD CMakeFiles/light_switch_proxy_server_nrf52840_xxAA_s140_6.0.0.dir/__/__/__/mesh/core/src/msqueue.c.obj
LOAD CMakeFiles/light_switch_proxy_server_nrf52840_xxAA_s140_6.0.0.dir/__/__/__/mesh/core/src/nrf_mesh_keygen.c.obj
LOAD CMakeFiles/light_switch_proxy_server_nrf52840_xxAA_s140_6.0.0.dir/__/__/__/mesh/core/src/cache.c.obj
LOAD CMakeFiles/light_switch_proxy_server_nrf52840_xxAA_s140_6.0.0.dir/__/__/__/mesh/core/src/uri.c.obj
LOAD CMakeFiles/light_switch_proxy_server_nrf52840_xxAA_s140_6.0.0.dir/__/__/__/mesh/core/src/list.c.obj
LOAD CMakeFiles/light_switch_proxy_server_nrf52840_xxAA_s140_6.0.0.dir/__/__/__/mesh/core/src/log.c.obj
LOAD CMakeFiles/light_switch_proxy_server_nrf52840_xxAA_s140_6.0.0.dir/__/__/__/mesh/core/src/flash_manager.c.obj
LOAD CMakeFiles/light_switch_proxy_server_nrf52840_xxAA_s140_6.0.0.dir/__/__/__/mesh/core/src/ccm_soft.c.obj
LOAD CMakeFiles/light_switch_proxy_server_nrf52840_xxAA_s140_6.0.0.dir/__/__/__/mesh/core/src/toolchain.c.obj
LOAD CMakeFiles/light_switch_proxy_server_nrf52840_xxAA_s140_6.0.0.dir/__/__/__/mesh/core/src/replay_cache.c.obj
LOAD CMakeFiles/light_switch_proxy_server_nrf52840_xxAA_s140_6.0.0.dir/__/__/__/mesh/core/src/beacon.c.obj
LOAD CMakeFiles/light_switch_proxy_server_nrf52840_xxAA_s140_6.0.0.dir/__/__/__/mesh/core/src/flash_manager_internal.c.obj
LOAD CMakeFiles/light_switch_proxy_server_nrf52840_xxAA_s140_6.0.0.dir/__/__/__/mesh/core/src/core_tx.c.obj
LOAD CMakeFiles/light_switch_proxy_server_nrf52840_xxAA_s140_6.0.0.dir/__/__/__/mesh/core/src/heartbeat.c.obj
LOAD CMakeFiles/light_switch_proxy_server_nrf52840_xxAA_s140_6.0.0.dir/__/__/__/mesh/core/src/net_beacon.c.obj
LOAD CMakeFiles/light_switch_proxy_server_nrf52840_xxAA_s140_6.0.0.dir/__/__/__/mesh/core/src/fsm.c.obj
LOAD CMakeFiles/light_switch_proxy_server_nrf52840_xxAA_s140_6.0.0.dir/__/__/__/mesh/core/src/core_tx_adv.c.obj
LOAD CMakeFiles/light_switch_proxy_server_nrf52840_xxAA_s140_6.0.0.dir/__/__/__/mesh/bearer/src/ad_listener.c.obj
LOAD CMakeFiles/light_switch_proxy_server_nrf52840_xxAA_s140_6.0.0.dir/__/__/__/mesh/bearer/src/ad_type_filter.c.obj
LOAD CMakeFiles/light_switch_proxy_server_nrf52840_xxAA_s140_6.0.0.dir/__/__/__/mesh/bearer/src/adv_packet_filter.c.obj
LOAD CMakeFiles/light_switch_proxy_server_nrf52840_xxAA_s140_6.0.0.dir/__/__/__/mesh/bearer/src/advertiser.c.obj
LOAD CMakeFiles/light_switch_proxy_server_nrf52840_xxAA_s140_6.0.0.dir/__/__/__/mesh/bearer/src/bearer_handler.c.obj
LOAD CMakeFiles/light_switch_proxy_server_nrf52840_xxAA_s140_6.0.0.dir/__/__/__/mesh/bearer/src/broadcast.c.obj
LOAD CMakeFiles/light_switch_proxy_server_nrf52840_xxAA_s140_6.0.0.dir/__/__/__/mesh/bearer/src/filter_engine.c.obj
LOAD CMakeFiles/light_switch_proxy_server_nrf52840_xxAA_s140_6.0.0.dir/__/__/__/mesh/bearer/src/gap_address_filter.c.obj
LOAD CMakeFiles/light_switch_proxy_server_nrf52840_xxAA_s140_6.0.0.dir/__/__/__/mesh/bearer/src/radio_config.c.obj
LOAD CMakeFiles/light_switch_proxy_server_nrf52840_xxAA_s140_6.0.0.dir/__/__/__/mesh/bearer/src/rssi_filter.c.obj
LOAD CMakeFiles/light_switch_proxy_server_nrf52840_xxAA_s140_6.0.0.dir/__/__/__/mesh/bearer/src/scanner.c.obj
LOAD CMakeFiles/light_switch_proxy_server_nrf52840_xxAA_s140_6.0.0.dir/__/__/__/mesh/gatt/src/mesh_gatt.c.obj
LOAD CMakeFiles/light_switch_proxy_server_nrf52840_xxAA_s140_6.0.0.dir/__/__/__/mesh/gatt/src/proxy.c.obj
LOAD CMakeFiles/light_switch_proxy_server_nrf52840_xxAA_s140_6.0.0.dir/__/__/__/mesh/gatt/src/proxy_filter.c.obj
LOAD CMakeFiles/light_switch_proxy_server_nrf52840_xxAA_s140_6.0.0.dir/__/__/__/models/simple_on_off/src/simple_on_off_server.c.obj
LOAD CMakeFiles/light_switch_proxy_server_nrf52840_xxAA_s140_6.0.0.dir/__/__/__/models/config/src/composition_data.c.obj
LOAD CMakeFiles/light_switch_proxy_server_nrf52840_xxAA_s140_6.0.0.dir/__/__/__/models/config/src/config_server.c.obj
LOAD CMakeFiles/light_switch_proxy_server_nrf52840_xxAA_s140_6.0.0.dir/__/__/__/models/config/src/packed_index_list.c.obj
LOAD CMakeFiles/light_switch_proxy_server_nrf52840_xxAA_s140_6.0.0.dir/__/__/__/models/health/src/health_server.c.obj
LOAD CMakeFiles/light_switch_proxy_server_nrf52840_xxAA_s140_6.0.0.dir/__/__/__/mesh/access/src/access_publish.c.obj
LOAD CMakeFiles/light_switch_proxy_server_nrf52840_xxAA_s140_6.0.0.dir/__/__/__/mesh/access/src/access.c.obj
LOAD CMakeFiles/light_switch_proxy_server_nrf52840_xxAA_s140_6.0.0.dir/__/__/__/mesh/access/src/access_reliable.c.obj
LOAD CMakeFiles/light_switch_proxy_server_nrf52840_xxAA_s140_6.0.0.dir/__/__/__/mesh/access/src/device_state_manager.c.obj
LOAD CMakeFiles/light_switch_proxy_server_nrf52840_xxAA_s140_6.0.0.dir/__/__/__/mesh/prov/src/prov_provisionee.c.obj
LOAD CMakeFiles/light_switch_proxy_server_nrf52840_xxAA_s140_6.0.0.dir/__/__/__/mesh/prov/src/nrf_mesh_prov.c.obj
LOAD CMakeFiles/light_switch_proxy_server_nrf52840_xxAA_s140_6.0.0.dir/__/__/__/mesh/prov/src/provisioning.c.obj
LOAD CMakeFiles/light_switch_proxy_server_nrf52840_xxAA_s140_6.0.0.dir/__/__/__/mesh/prov/src/prov_beacon.c.obj
LOAD CMakeFiles/light_switch_proxy_server_nrf52840_xxAA_s140_6.0.0.dir/__/__/__/mesh/prov/src/prov_utils.c.obj
LOAD CMakeFiles/light_switch_proxy_server_nrf52840_xxAA_s140_6.0.0.dir/__/__/__/mesh/prov/src/prov_bearer_adv.c.obj
LOAD CMakeFiles/light_switch_proxy_server_nrf52840_xxAA_s140_6.0.0.dir/home/mazzer/work/nordic/sdk/nRF5_SDK_15.0.0/modules/nrfx/mdk/system_nrf52840.c.obj
LOAD CMakeFiles/light_switch_proxy_server_nrf52840_xxAA_s140_6.0.0.dir/home/mazzer/work/nordic/sdk/nRF5_SDK_15.0.0/modules/nrfx/mdk/gcc_startup_nrf52840.S.obj
LOAD CMakeFiles/light_switch_proxy_server_nrf52840_xxAA_s140_6.0.0.dir/home/mazzer/work/nordic/sdk/nRF5_SDK_15.0.0/components/libraries/util/app_error.c.obj
LOAD CMakeFiles/light_switch_proxy_server_nrf52840_xxAA_s140_6.0.0.dir/home/mazzer/work/nordic/sdk/nRF5_SDK_15.0.0/components/libraries/util/app_error_handler_gcc.c.obj
LOAD ../../../external/rtt/librtt_nrf52840_xxAA.a
LOAD ../../../external/micro-ecc/libuECC_nrf52840_xxAA.a
START GROUP
LOAD /usr/bin/../lib/gcc/arm-none-eabi/7.2.1/thumb/v7e-m/fpv4-sp/hard/libgcc.a
LOAD /usr/bin/../lib/gcc/arm-none-eabi/7.2.1/../../../../arm-none-eabi/lib/thumb/v7e-m/fpv4-sp/hard/libg_nano.a
LOAD /usr/bin/../lib/gcc/arm-none-eabi/7.2.1/../../../../arm-none-eabi/lib/thumb/v7e-m/fpv4-sp/hard/libc_nano.a
END GROUP
START GROUP
LOAD /usr/bin/../lib/gcc/arm-none-eabi/7.2.1/thumb/v7e-m/fpv4-sp/hard/libgcc.a
LOAD /usr/bin/../lib/gcc/arm-none-eabi/7.2.1/../../../../arm-none-eabi/lib/thumb/v7e-m/fpv4-sp/hard/libc_nano.a
END GROUP
LOAD /usr/bin/../lib/gcc/arm-none-eabi/7.2.1/thumb/v7e-m/fpv4-sp/hard/crtend.o
LOAD /usr/bin/../lib/gcc/arm-none-eabi/7.2.1/thumb/v7e-m/fpv4-sp/hard/crtn.o
START GROUP
LOAD /usr/bin/../lib/gcc/arm-none-eabi/7.2.1/thumb/v7e-m/fpv4-sp/hard/libgcc.a
LOAD /usr/bin/../lib/gcc/arm-none-eabi/7.2.1/../../../../arm-none-eabi/lib/thumb/v7e-m/fpv4-sp/hard/libc.a
LOAD /usr/bin/../lib/gcc/arm-none-eabi/7.2.1/../../../../arm-none-eabi/lib/thumb/v7e-m/fpv4-sp/hard/libnosys.a
END GROUP

.igot.plt       0x0000000020003488        0x0 load address 0x0000000000047c3c
 .igot.plt      0x0000000020003488        0x0 /usr/bin/../lib/gcc/arm-none-eabi/7.2.1/thumb/v7e-m/fpv4-sp/hard/crtbegin.o
                0x0000000020003488                . = ALIGN (0x4)

.svc_data       0x0000000020003488        0x0
                [!provide]                        PROVIDE (__start_svc_data, .)
 *(.svc_data)
                [!provide]                        PROVIDE (__stop_svc_data, .)

.fs_data        0x0000000020003488        0x0
                [!provide]                        PROVIDE (__start_fs_data, .)
 *(.fs_data)
                [!provide]                        PROVIDE (__stop_fs_data, .)

.log_dynamic_data
                0x0000000020003488        0x0
                [!provide]                        PROVIDE (__start_log_dynamic_data, .)
 *(.log_dynamic_data)
                [!provide]                        PROVIDE (__stop_log_dynamic_data, .)

.cli_sorted_cmd_ptrs
                0x0000000020003488        0x0
                [!provide]                        PROVIDE (__start_cli_sorted_cmd_ptrs, .)
 *(.cli_sorted_cmd_ptrs)
                [!provide]                        PROVIDE (__stop_cli_sorted_cmd_ptrs, .)

.bss            0x0000000020003488     0x353c load address 0x0000000000047c40
                0x0000000020003488                . = ALIGN (0x4)
                0x0000000020003488                __bss_start__ = .
 *(.bss*)
 .bss           0x0000000020003488       0x1c /usr/bin/../lib/gcc/arm-none-eabi/7.2.1/thumb/v7e-m/fpv4-sp/hard/crtbegin.o
 .bss.m_device_provisioned
                0x00000000200034a4        0x1 CMakeFiles/light_switch_proxy_server_nrf52840_xxAA_s140_6.0.0.dir/src/main.c.obj
 *fill*         0x00000000200034a5        0x3 
 .bss.m_server  0x00000000200034a8        0xc CMakeFiles/light_switch_proxy_server_nrf52840_xxAA_s140_6.0.0.dir/src/main.c.obj
 .bss.m_health_server
                0x00000000200034b4       0x5c CMakeFiles/light_switch_proxy_server_nrf52840_xxAA_s140_6.0.0.dir/__/__/__/mesh/stack/src/mesh_stack.c.obj
 .bss.m_init_params
                0x0000000020003510       0x24 CMakeFiles/light_switch_proxy_server_nrf52840_xxAA_s140_6.0.0.dir/__/__/__/mesh/stack/src/mesh_stack.c.obj
 .bss.m_device_provisioned
                0x0000000020003534        0x1 CMakeFiles/light_switch_proxy_server_nrf52840_xxAA_s140_6.0.0.dir/__/__/common/src/mesh_provisionee.c.obj
 .bss.m_doing_gatt_reset
                0x0000000020003535        0x1 CMakeFiles/light_switch_proxy_server_nrf52840_xxAA_s140_6.0.0.dir/__/__/common/src/mesh_provisionee.c.obj
 *fill*         0x0000000020003536        0x2 
 .bss.m_params  0x0000000020003538        0xc CMakeFiles/light_switch_proxy_server_nrf52840_xxAA_s140_6.0.0.dir/__/__/common/src/mesh_provisionee.c.obj
 .bss.m_private_key
                0x0000000020003544       0x20 CMakeFiles/light_switch_proxy_server_nrf52840_xxAA_s140_6.0.0.dir/__/__/common/src/mesh_provisionee.c.obj
 .bss.m_prov_bearer_adv
                0x0000000020003564      0x1c4 CMakeFiles/light_switch_proxy_server_nrf52840_xxAA_s140_6.0.0.dir/__/__/common/src/mesh_provisionee.c.obj
 .bss.m_prov_bearer_gatt
                0x0000000020003728       0x50 CMakeFiles/light_switch_proxy_server_nrf52840_xxAA_s140_6.0.0.dir/__/__/common/src/mesh_provisionee.c.obj
 .bss.m_prov_ctx
                0x0000000020003778      0x134 CMakeFiles/light_switch_proxy_server_nrf52840_xxAA_s140_6.0.0.dir/__/__/common/src/mesh_provisionee.c.obj
 .bss.m_public_key
                0x00000000200038ac       0x40 CMakeFiles/light_switch_proxy_server_nrf52840_xxAA_s140_6.0.0.dir/__/__/common/src/mesh_provisionee.c.obj
 .bss.m_rtt_input_handler
                0x00000000200038ec        0x4 CMakeFiles/light_switch_proxy_server_nrf52840_xxAA_s140_6.0.0.dir/__/__/common/src/rtt_input.c.obj
 .bss.m_button_handler_cb
                0x00000000200038f0        0x4 CMakeFiles/light_switch_proxy_server_nrf52840_xxAA_s140_6.0.0.dir/__/__/common/src/simple_hal.c.obj
 .bss.m_last_button_press
                0x00000000200038f4        0x4 CMakeFiles/light_switch_proxy_server_nrf52840_xxAA_s140_6.0.0.dir/__/__/common/src/simple_hal.c.obj
 .bss.m_adv_set_index
                0x00000000200038f8        0x1 CMakeFiles/light_switch_proxy_server_nrf52840_xxAA_s140_6.0.0.dir/__/__/common/src/mesh_adv.c.obj
 *fill*         0x00000000200038f9        0x3 
 .bss.m_advdata_raw
                0x00000000200038fc       0x3e CMakeFiles/light_switch_proxy_server_nrf52840_xxAA_s140_6.0.0.dir/__/__/common/src/mesh_adv.c.obj
 *fill*         0x000000002000393a        0x2 
 .bss.m_gap_adv_data
                0x000000002000393c       0x10 CMakeFiles/light_switch_proxy_server_nrf52840_xxAA_s140_6.0.0.dir/__/__/common/src/mesh_adv.c.obj
 .bss.m_srdata_raw
                0x000000002000394c       0x3e CMakeFiles/light_switch_proxy_server_nrf52840_xxAA_s140_6.0.0.dir/__/__/common/src/mesh_adv.c.obj
 *fill*         0x000000002000398a        0x2 
 .bss.m_evt_prov_link
                0x000000002000398c        0xc CMakeFiles/light_switch_proxy_server_nrf52840_xxAA_s140_6.0.0.dir/__/__/__/mesh/prov/src/nrf_mesh_prov_bearer_gatt.c.obj
 .bss.m_nrf_sdh_continue
                0x0000000020003998        0x1 CMakeFiles/light_switch_proxy_server_nrf52840_xxAA_s140_6.0.0.dir/home/mazzer/work/nordic/sdk/nRF5_SDK_15.0.0/components/softdevice/common/nrf_sdh.c.obj
 .bss.m_nrf_sdh_enabled
                0x0000000020003999        0x1 CMakeFiles/light_switch_proxy_server_nrf52840_xxAA_s140_6.0.0.dir/home/mazzer/work/nordic/sdk/nRF5_SDK_15.0.0/components/softdevice/common/nrf_sdh.c.obj
 .bss.m_nrf_sdh_suspended
                0x000000002000399a        0x1 CMakeFiles/light_switch_proxy_server_nrf52840_xxAA_s140_6.0.0.dir/home/mazzer/work/nordic/sdk/nRF5_SDK_15.0.0/components/softdevice/common/nrf_sdh.c.obj
 .bss.m_stack_is_enabled
                0x000000002000399b        0x1 CMakeFiles/light_switch_proxy_server_nrf52840_xxAA_s140_6.0.0.dir/home/mazzer/work/nordic/sdk/nRF5_SDK_15.0.0/components/softdevice/common/nrf_sdh_ble.c.obj
 .bss.m_uuid    0x000000002000399c       0x10 CMakeFiles/light_switch_proxy_server_nrf52840_xxAA_s140_6.0.0.dir/__/__/__/mesh/core/src/nrf_mesh_configure.c.obj
 .bss.m_msg_cache
                0x00000000200039ac      0x100 CMakeFiles/light_switch_proxy_server_nrf52840_xxAA_s140_6.0.0.dir/__/__/__/mesh/core/src/msg_cache.c.obj
 .bss.m_msg_cache_head
                0x0000000020003aac        0x4 CMakeFiles/light_switch_proxy_server_nrf52840_xxAA_s140_6.0.0.dir/__/__/__/mesh/core/src/msg_cache.c.obj
 .bss.m_control_packet_consumer_count
                0x0000000020003ab0        0x4 CMakeFiles/light_switch_proxy_server_nrf52840_xxAA_s140_6.0.0.dir/__/__/__/mesh/core/src/transport.c.obj
 .bss.m_control_packet_consumers
                0x0000000020003ab4        0x8 CMakeFiles/light_switch_proxy_server_nrf52840_xxAA_s140_6.0.0.dir/__/__/__/mesh/core/src/transport.c.obj
 .bss.m_sar_alloc
                0x0000000020003abc        0x4 CMakeFiles/light_switch_proxy_server_nrf52840_xxAA_s140_6.0.0.dir/__/__/__/mesh/core/src/transport.c.obj
 .bss.m_sar_process_flag
                0x0000000020003ac0        0x4 CMakeFiles/light_switch_proxy_server_nrf52840_xxAA_s140_6.0.0.dir/__/__/__/mesh/core/src/transport.c.obj
 .bss.m_sar_release
                0x0000000020003ac4        0x4 CMakeFiles/light_switch_proxy_server_nrf52840_xxAA_s140_6.0.0.dir/__/__/__/mesh/core/src/transport.c.obj
 .bss.m_sar_session_cache
                0x0000000020003ac8       0x40 CMakeFiles/light_switch_proxy_server_nrf52840_xxAA_s140_6.0.0.dir/__/__/__/mesh/core/src/transport.c.obj
 .bss.m_sar_session_cache_head
                0x0000000020003b08        0x4 CMakeFiles/light_switch_proxy_server_nrf52840_xxAA_s140_6.0.0.dir/__/__/__/mesh/core/src/transport.c.obj
 .bss.m_trs_config
                0x0000000020003b0c       0x18 CMakeFiles/light_switch_proxy_server_nrf52840_xxAA_s140_6.0.0.dir/__/__/__/mesh/core/src/transport.c.obj
 .bss.m_trs_sar_sessions
                0x0000000020003b24      0x1b0 CMakeFiles/light_switch_proxy_server_nrf52840_xxAA_s140_6.0.0.dir/__/__/__/mesh/core/src/transport.c.obj
 .bss.mp_evt_handlers_head
                0x0000000020003cd4        0x4 CMakeFiles/light_switch_proxy_server_nrf52840_xxAA_s140_6.0.0.dir/__/__/__/mesh/core/src/event.c.obj
 .bss.m_defrag  0x0000000020003cd8       0x1c CMakeFiles/light_switch_proxy_server_nrf52840_xxAA_s140_6.0.0.dir/__/__/__/mesh/core/src/flash_manager_defrag.c.obj
 .bss.m_token   0x0000000020003cf4        0x2 CMakeFiles/light_switch_proxy_server_nrf52840_xxAA_s140_6.0.0.dir/__/__/__/mesh/core/src/flash_manager_defrag.c.obj
 *fill*         0x0000000020003cf6        0x2 
 .bss.mp_recovery_area
                0x0000000020003cf8        0x4 CMakeFiles/light_switch_proxy_server_nrf52840_xxAA_s140_6.0.0.dir/__/__/__/mesh/core/src/flash_manager_defrag.c.obj
 .bss.p_null_ptr.10696
                0x0000000020003cfc        0x4 CMakeFiles/light_switch_proxy_server_nrf52840_xxAA_s140_6.0.0.dir/__/__/__/mesh/core/src/flash_manager_defrag.c.obj
 .bss.m_pool    0x0000000020003d00     0x1000 CMakeFiles/light_switch_proxy_server_nrf52840_xxAA_s140_6.0.0.dir/__/__/__/mesh/core/src/packet_mgr.c.obj
 .bss.mp_free_head
                0x0000000020004d00        0x4 CMakeFiles/light_switch_proxy_server_nrf52840_xxAA_s140_6.0.0.dir/__/__/__/mesh/core/src/packet_mgr.c.obj
 .bss.iv_state_set.10351
                0x0000000020004d04        0x1 CMakeFiles/light_switch_proxy_server_nrf52840_xxAA_s140_6.0.0.dir/__/__/__/mesh/core/src/net_state.c.obj
 *fill*         0x0000000020004d05        0x3 
 .bss.lock_count.10327
                0x0000000020004d08        0x4 CMakeFiles/light_switch_proxy_server_nrf52840_xxAA_s140_6.0.0.dir/__/__/__/mesh/core/src/net_state.c.obj
 .bss.m_flash_manager
                0x0000000020004d0c       0x24 CMakeFiles/light_switch_proxy_server_nrf52840_xxAA_s140_6.0.0.dir/__/__/__/mesh/core/src/net_state.c.obj
 .bss.m_iv_update_timer
                0x0000000020004d30       0x18 CMakeFiles/light_switch_proxy_server_nrf52840_xxAA_s140_6.0.0.dir/__/__/__/mesh/core/src/net_state.c.obj
 .bss.m_mesh_evt_handler
                0x0000000020004d48        0x8 CMakeFiles/light_switch_proxy_server_nrf52840_xxAA_s140_6.0.0.dir/__/__/__/mesh/core/src/net_state.c.obj
 .bss.m_net_state
                0x0000000020004d50       0x14 CMakeFiles/light_switch_proxy_server_nrf52840_xxAA_s140_6.0.0.dir/__/__/__/mesh/core/src/net_state.c.obj
 .bss.m_seqnum_allocation_in_progress
                0x0000000020004d64        0x1 CMakeFiles/light_switch_proxy_server_nrf52840_xxAA_s140_6.0.0.dir/__/__/__/mesh/core/src/net_state.c.obj
 .bss.m_test_mode
                0x0000000020004d65        0x1 CMakeFiles/light_switch_proxy_server_nrf52840_xxAA_s140_6.0.0.dir/__/__/__/mesh/core/src/net_state.c.obj
 *fill*         0x0000000020004d66        0x2 
 .bss.m_event_flag
                0x0000000020004d68        0x4 CMakeFiles/light_switch_proxy_server_nrf52840_xxAA_s140_6.0.0.dir/__/__/__/mesh/core/src/mesh_flash.c.obj
 .bss.m_suspended
                0x0000000020004d6c        0x1 CMakeFiles/light_switch_proxy_server_nrf52840_xxAA_s140_6.0.0.dir/__/__/__/mesh/core/src/mesh_flash.c.obj
 *fill*         0x0000000020004d6d        0x3 
 .bss.m_users   0x0000000020004d70      0x228 CMakeFiles/light_switch_proxy_server_nrf52840_xxAA_s140_6.0.0.dir/__/__/__/mesh/core/src/mesh_flash.c.obj
 .bss.m_is_enabled
                0x0000000020004f98        0x1 CMakeFiles/light_switch_proxy_server_nrf52840_xxAA_s140_6.0.0.dir/__/__/__/mesh/core/src/nrf_mesh.c.obj
 .bss.m_is_initialized
                0x0000000020004f99        0x1 CMakeFiles/light_switch_proxy_server_nrf52840_xxAA_s140_6.0.0.dir/__/__/__/mesh/core/src/nrf_mesh.c.obj
 *fill*         0x0000000020004f9a        0x2 
 .bss.m_rx_cb   0x0000000020004f9c        0x4 CMakeFiles/light_switch_proxy_server_nrf52840_xxAA_s140_6.0.0.dir/__/__/__/mesh/core/src/nrf_mesh.c.obj
 .bss.m_128buf  0x0000000020004fa0       0x10 CMakeFiles/light_switch_proxy_server_nrf52840_xxAA_s140_6.0.0.dir/__/__/__/mesh/core/src/aes_cmac.c.obj
 .bss.m_subkey1
                0x0000000020004fb0       0x10 CMakeFiles/light_switch_proxy_server_nrf52840_xxAA_s140_6.0.0.dir/__/__/__/mesh/core/src/aes_cmac.c.obj
 .bss.m_subkey2
                0x0000000020004fc0       0x10 CMakeFiles/light_switch_proxy_server_nrf52840_xxAA_s140_6.0.0.dir/__/__/__/mesh/core/src/aes_cmac.c.obj
 .bss.m_event_flag
                0x0000000020004fd0        0x4 CMakeFiles/light_switch_proxy_server_nrf52840_xxAA_s140_6.0.0.dir/__/__/__/mesh/core/src/timer_scheduler.c.obj
 .bss.m_scheduler
                0x0000000020004fd4       0x10 CMakeFiles/light_switch_proxy_server_nrf52840_xxAA_s140_6.0.0.dir/__/__/__/mesh/core/src/timer_scheduler.c.obj
 .bss.m_attributes
                0x0000000020004fe4        0x3 CMakeFiles/light_switch_proxy_server_nrf52840_xxAA_s140_6.0.0.dir/__/__/__/mesh/core/src/timer.c.obj
 *fill*         0x0000000020004fe7        0x1 
 .bss.m_callbacks
                0x0000000020004fe8        0xc CMakeFiles/light_switch_proxy_server_nrf52840_xxAA_s140_6.0.0.dir/__/__/__/mesh/core/src/timer.c.obj
 .bss.m_is_in_ts
                0x0000000020004ff4        0x1 CMakeFiles/light_switch_proxy_server_nrf52840_xxAA_s140_6.0.0.dir/__/__/__/mesh/core/src/timer.c.obj
 *fill*         0x0000000020004ff5        0x3 
 .bss.m_reference_time
                0x0000000020004ff8        0x4 CMakeFiles/light_switch_proxy_server_nrf52840_xxAA_s140_6.0.0.dir/__/__/__/mesh/core/src/timer.c.obj
 .bss.m_timeouts
                0x0000000020004ffc        0xc CMakeFiles/light_switch_proxy_server_nrf52840_xxAA_s140_6.0.0.dir/__/__/__/mesh/core/src/timer.c.obj
 .bss.m_timer_mut
                0x0000000020005008        0x4 CMakeFiles/light_switch_proxy_server_nrf52840_xxAA_s140_6.0.0.dir/__/__/__/mesh/core/src/timer.c.obj
 .bss.m_ts_end_time
                0x000000002000500c        0x4 CMakeFiles/light_switch_proxy_server_nrf52840_xxAA_s140_6.0.0.dir/__/__/__/mesh/core/src/timer.c.obj
 .bss.mp_ppi_tasks
                0x0000000020005010        0xc CMakeFiles/light_switch_proxy_server_nrf52840_xxAA_s140_6.0.0.dir/__/__/__/mesh/core/src/timer.c.obj
 .bss.m_current_time
                0x000000002000501c        0x4 CMakeFiles/light_switch_proxy_server_nrf52840_xxAA_s140_6.0.0.dir/__/__/__/mesh/core/src/ticker.c.obj
 .bss.m_timer   0x0000000020005020       0x18 CMakeFiles/light_switch_proxy_server_nrf52840_xxAA_s140_6.0.0.dir/__/__/__/mesh/core/src/ticker.c.obj
 .bss.m_current_timeslot
                0x0000000020005038       0x1c CMakeFiles/light_switch_proxy_server_nrf52840_xxAA_s140_6.0.0.dir/__/__/__/mesh/core/src/timeslot.c.obj
 .bss.m_lfclk_ppm
                0x0000000020005054        0x4 CMakeFiles/light_switch_proxy_server_nrf52840_xxAA_s140_6.0.0.dir/__/__/__/mesh/core/src/timeslot.c.obj
 .bss.m_radio_request_earliest
                0x0000000020005058       0x10 CMakeFiles/light_switch_proxy_server_nrf52840_xxAA_s140_6.0.0.dir/__/__/__/mesh/core/src/timeslot.c.obj
 .bss.m_state_lock
                0x0000000020005068        0x1 CMakeFiles/light_switch_proxy_server_nrf52840_xxAA_s140_6.0.0.dir/__/__/__/mesh/core/src/timeslot.c.obj
 .bss.m_timeslot_forced_command
                0x0000000020005069        0x1 CMakeFiles/light_switch_proxy_server_nrf52840_xxAA_s140_6.0.0.dir/__/__/__/mesh/core/src/timeslot.c.obj
 *fill*         0x000000002000506a        0x6 
 .bss.s_last_rtc_value.9754
                0x0000000020005070        0x8 CMakeFiles/light_switch_proxy_server_nrf52840_xxAA_s140_6.0.0.dir/__/__/__/mesh/core/src/timeslot.c.obj
 .bss.m_bearer_event_fifo
                0x0000000020005078       0x14 CMakeFiles/light_switch_proxy_server_nrf52840_xxAA_s140_6.0.0.dir/__/__/__/mesh/core/src/bearer_event.c.obj
 .bss.m_bearer_event_fifo_buffer
                0x000000002000508c      0x100 CMakeFiles/light_switch_proxy_server_nrf52840_xxAA_s140_6.0.0.dir/__/__/__/mesh/core/src/bearer_event.c.obj
 .bss.m_critical
                0x000000002000518c        0x4 CMakeFiles/light_switch_proxy_server_nrf52840_xxAA_s140_6.0.0.dir/__/__/__/mesh/core/src/bearer_event.c.obj
 .bss.m_flag_count
                0x0000000020005190        0x4 CMakeFiles/light_switch_proxy_server_nrf52840_xxAA_s140_6.0.0.dir/__/__/__/mesh/core/src/bearer_event.c.obj
 .bss.m_flag_event_callbacks
                0x0000000020005194       0x20 CMakeFiles/light_switch_proxy_server_nrf52840_xxAA_s140_6.0.0.dir/__/__/__/mesh/core/src/bearer_event.c.obj
 .bss.m_flags   0x00000000200051b4        0x4 CMakeFiles/light_switch_proxy_server_nrf52840_xxAA_s140_6.0.0.dir/__/__/__/mesh/core/src/bearer_event.c.obj
 .bss.m_irq_priority
                0x00000000200051b8        0x1 CMakeFiles/light_switch_proxy_server_nrf52840_xxAA_s140_6.0.0.dir/__/__/__/mesh/core/src/bearer_event.c.obj
 *fill*         0x00000000200051b9        0x3 
 .bss.m_sequential_event_queue
                0x00000000200051bc        0x8 CMakeFiles/light_switch_proxy_server_nrf52840_xxAA_s140_6.0.0.dir/__/__/__/mesh/core/src/bearer_event.c.obj
 .bss.s_recursion_guard.9885
                0x00000000200051c4        0x1 CMakeFiles/light_switch_proxy_server_nrf52840_xxAA_s140_6.0.0.dir/__/__/__/mesh/core/src/bearer_event.c.obj
 *fill*         0x00000000200051c5        0x3 
 .bss.m_relay_check_cb
                0x00000000200051c8        0x4 CMakeFiles/light_switch_proxy_server_nrf52840_xxAA_s140_6.0.0.dir/__/__/__/mesh/core/src/network.c.obj
 .bss.m_relay_enable
                0x00000000200051cc        0x1 CMakeFiles/light_switch_proxy_server_nrf52840_xxAA_s140_6.0.0.dir/__/__/__/mesh/core/src/network.c.obj
 *fill*         0x00000000200051cd        0x3 
 .bss.m_action_queue
                0x00000000200051d0        0xc CMakeFiles/light_switch_proxy_server_nrf52840_xxAA_s140_6.0.0.dir/__/__/__/mesh/core/src/flash_manager.c.obj
 .bss.m_action_queue_buffer
                0x00000000200051dc      0x104 CMakeFiles/light_switch_proxy_server_nrf52840_xxAA_s140_6.0.0.dir/__/__/__/mesh/core/src/flash_manager.c.obj
 .bss.m_action_state
                0x00000000200052e0        0x1 CMakeFiles/light_switch_proxy_server_nrf52840_xxAA_s140_6.0.0.dir/__/__/__/mesh/core/src/flash_manager.c.obj
 *fill*         0x00000000200052e1        0x3 
 .bss.m_memory_listener_queue
                0x00000000200052e4        0x8 CMakeFiles/light_switch_proxy_server_nrf52840_xxAA_s140_6.0.0.dir/__/__/__/mesh/core/src/flash_manager.c.obj
 .bss.m_processing_flag
                0x00000000200052ec        0x4 CMakeFiles/light_switch_proxy_server_nrf52840_xxAA_s140_6.0.0.dir/__/__/__/mesh/core/src/flash_manager.c.obj
 .bss.m_queue_empty_cb
                0x00000000200052f0        0x4 CMakeFiles/light_switch_proxy_server_nrf52840_xxAA_s140_6.0.0.dir/__/__/__/mesh/core/src/flash_manager.c.obj
 .bss.m_state   0x00000000200052f4        0x1 CMakeFiles/light_switch_proxy_server_nrf52840_xxAA_s140_6.0.0.dir/__/__/__/mesh/core/src/flash_manager.c.obj
 *fill*         0x00000000200052f5        0x1 
 .bss.m_token   0x00000000200052f6        0x2 CMakeFiles/light_switch_proxy_server_nrf52840_xxAA_s140_6.0.0.dir/__/__/__/mesh/core/src/flash_manager.c.obj
 .bss.p_current.11640
                0x00000000200052f8        0x4 CMakeFiles/light_switch_proxy_server_nrf52840_xxAA_s140_6.0.0.dir/__/__/__/mesh/core/src/flash_manager.c.obj
 .bss.result.11641
                0x00000000200052fc        0x1 CMakeFiles/light_switch_proxy_server_nrf52840_xxAA_s140_6.0.0.dir/__/__/__/mesh/core/src/flash_manager.c.obj
 .bss.m_cache_index
                0x00000000200052fd        0x1 CMakeFiles/light_switch_proxy_server_nrf52840_xxAA_s140_6.0.0.dir/__/__/__/mesh/core/src/replay_cache.c.obj
 *fill*         0x00000000200052fe        0x2 
 .bss.m_replay_cache
                0x0000000020005300      0x200 CMakeFiles/light_switch_proxy_server_nrf52840_xxAA_s140_6.0.0.dir/__/__/__/mesh/core/src/replay_cache.c.obj
 .bss.m_bearer_count
                0x0000000020005500        0x1 CMakeFiles/light_switch_proxy_server_nrf52840_xxAA_s140_6.0.0.dir/__/__/__/mesh/core/src/core_tx.c.obj
 *fill*         0x0000000020005501        0x3 
 .bss.m_tx_complete_callback
                0x0000000020005504        0x4 CMakeFiles/light_switch_proxy_server_nrf52840_xxAA_s140_6.0.0.dir/__/__/__/mesh/core/src/core_tx.c.obj
 .bss.mp_bearers
                0x0000000020005508        0x4 CMakeFiles/light_switch_proxy_server_nrf52840_xxAA_s140_6.0.0.dir/__/__/__/mesh/core/src/core_tx.c.obj
 .bss.m_hb_core_evt_handler
                0x000000002000550c        0x8 CMakeFiles/light_switch_proxy_server_nrf52840_xxAA_s140_6.0.0.dir/__/__/__/mesh/core/src/heartbeat.c.obj
 .bss.m_hb_pending_feat_msg
                0x0000000020005514        0x1 CMakeFiles/light_switch_proxy_server_nrf52840_xxAA_s140_6.0.0.dir/__/__/__/mesh/core/src/heartbeat.c.obj
 .bss.m_hb_pending_pub_msg
                0x0000000020005515        0x1 CMakeFiles/light_switch_proxy_server_nrf52840_xxAA_s140_6.0.0.dir/__/__/__/mesh/core/src/heartbeat.c.obj
 .bss.m_heartbeat_init_done
                0x0000000020005516        0x1 CMakeFiles/light_switch_proxy_server_nrf52840_xxAA_s140_6.0.0.dir/__/__/__/mesh/core/src/heartbeat.c.obj
 *fill*         0x0000000020005517        0x1 
 .bss.m_heartbeat_subscription
                0x0000000020005518       0x10 CMakeFiles/light_switch_proxy_server_nrf52840_xxAA_s140_6.0.0.dir/__/__/__/mesh/core/src/heartbeat.c.obj
 .bss.m_publication_count_decrement_cb
                0x0000000020005528        0x4 CMakeFiles/light_switch_proxy_server_nrf52840_xxAA_s140_6.0.0.dir/__/__/__/mesh/core/src/heartbeat.c.obj
 .bss.m_publication_get_cb
                0x000000002000552c        0x4 CMakeFiles/light_switch_proxy_server_nrf52840_xxAA_s140_6.0.0.dir/__/__/__/mesh/core/src/heartbeat.c.obj
 .bss.m_publication_timer
                0x0000000020005530       0x1c CMakeFiles/light_switch_proxy_server_nrf52840_xxAA_s140_6.0.0.dir/__/__/__/mesh/core/src/heartbeat.c.obj
 .bss.m_subscription_timer
                0x000000002000554c       0x18 CMakeFiles/light_switch_proxy_server_nrf52840_xxAA_s140_6.0.0.dir/__/__/__/mesh/core/src/heartbeat.c.obj
 .bss.m_adv     0x0000000020005564       0x98 CMakeFiles/light_switch_proxy_server_nrf52840_xxAA_s140_6.0.0.dir/__/__/__/mesh/core/src/net_beacon.c.obj
 .bss.m_adv_buf
                0x00000000200055fc       0x34 CMakeFiles/light_switch_proxy_server_nrf52840_xxAA_s140_6.0.0.dir/__/__/__/mesh/core/src/net_beacon.c.obj
 .bss.m_beacon_salt
                0x0000000020005630       0x10 CMakeFiles/light_switch_proxy_server_nrf52840_xxAA_s140_6.0.0.dir/__/__/__/mesh/core/src/net_beacon.c.obj
 .bss.m_enabled
                0x0000000020005640        0x1 CMakeFiles/light_switch_proxy_server_nrf52840_xxAA_s140_6.0.0.dir/__/__/__/mesh/core/src/net_beacon.c.obj
 *fill*         0x0000000020005641        0x3 
 .bss.m_tx_timer
                0x0000000020005644       0x18 CMakeFiles/light_switch_proxy_server_nrf52840_xxAA_s140_6.0.0.dir/__/__/__/mesh/core/src/net_beacon.c.obj
 .bss.mp_beacon_info
                0x000000002000565c        0x4 CMakeFiles/light_switch_proxy_server_nrf52840_xxAA_s140_6.0.0.dir/__/__/__/mesh/core/src/net_beacon.c.obj
 .bss.m_bearer  0x0000000020005660        0xc CMakeFiles/light_switch_proxy_server_nrf52840_xxAA_s140_6.0.0.dir/__/__/__/mesh/core/src/core_tx_adv.c.obj
 .bss.m_bearer_roles
                0x000000002000566c      0x138 CMakeFiles/light_switch_proxy_server_nrf52840_xxAA_s140_6.0.0.dir/__/__/__/mesh/core/src/core_tx_adv.c.obj
 .bss.m_current_alloc
                0x00000000200057a4        0x8 CMakeFiles/light_switch_proxy_server_nrf52840_xxAA_s140_6.0.0.dir/__/__/__/mesh/core/src/core_tx_adv.c.obj
 .bss.m_originator_adv_packet_buffer
                0x00000000200057ac      0x100 CMakeFiles/light_switch_proxy_server_nrf52840_xxAA_s140_6.0.0.dir/__/__/__/mesh/core/src/core_tx_adv.c.obj
 .bss.m_relay_adv_packet_buffer
                0x00000000200058ac       0x80 CMakeFiles/light_switch_proxy_server_nrf52840_xxAA_s140_6.0.0.dir/__/__/__/mesh/core/src/core_tx_adv.c.obj
 .bss.m_subscribers
                0x000000002000592c        0x4 CMakeFiles/light_switch_proxy_server_nrf52840_xxAA_s140_6.0.0.dir/__/__/__/mesh/bearer/src/ad_listener.c.obj
 .bss.m_adtype_filter
                0x0000000020005930       0x38 CMakeFiles/light_switch_proxy_server_nrf52840_xxAA_s140_6.0.0.dir/__/__/__/mesh/bearer/src/ad_type_filter.c.obj
 .bss.m_adv_prng
                0x0000000020005968       0x10 CMakeFiles/light_switch_proxy_server_nrf52840_xxAA_s140_6.0.0.dir/__/__/__/mesh/bearer/src/advertiser.c.obj
 .bss.m_action_queue
                0x0000000020005978        0x8 CMakeFiles/light_switch_proxy_server_nrf52840_xxAA_s140_6.0.0.dir/__/__/__/mesh/bearer/src/bearer_handler.c.obj
 .bss.m_end_time
                0x0000000020005980        0x4 CMakeFiles/light_switch_proxy_server_nrf52840_xxAA_s140_6.0.0.dir/__/__/__/mesh/bearer/src/bearer_handler.c.obj
 .bss.m_scanner_is_active
                0x0000000020005984        0x1 CMakeFiles/light_switch_proxy_server_nrf52840_xxAA_s140_6.0.0.dir/__/__/__/mesh/bearer/src/bearer_handler.c.obj
 .bss.m_stopped
                0x0000000020005985        0x1 CMakeFiles/light_switch_proxy_server_nrf52840_xxAA_s140_6.0.0.dir/__/__/__/mesh/bearer/src/bearer_handler.c.obj
 *fill*         0x0000000020005986        0x2 
 .bss.mp_action
                0x0000000020005988        0x4 CMakeFiles/light_switch_proxy_server_nrf52840_xxAA_s140_6.0.0.dir/__/__/__/mesh/bearer/src/bearer_handler.c.obj
 .bss.m_next_channel_index
                0x000000002000598c        0x1 CMakeFiles/light_switch_proxy_server_nrf52840_xxAA_s140_6.0.0.dir/__/__/__/mesh/bearer/src/broadcast.c.obj
 *fill*         0x000000002000598d        0x3 
 .bss.m_accepted_amount
                0x0000000020005990        0x4 CMakeFiles/light_switch_proxy_server_nrf52840_xxAA_s140_6.0.0.dir/__/__/__/mesh/bearer/src/filter_engine.c.obj
 .bss.m_filter_list_head
                0x0000000020005994        0x4 CMakeFiles/light_switch_proxy_server_nrf52840_xxAA_s140_6.0.0.dir/__/__/__/mesh/bearer/src/filter_engine.c.obj
 .bss.m_scanner
                0x0000000020005998      0x290 CMakeFiles/light_switch_proxy_server_nrf52840_xxAA_s140_6.0.0.dir/__/__/__/mesh/bearer/src/scanner.c.obj
 .bss.m_gatt    0x0000000020005c28      0x16c CMakeFiles/light_switch_proxy_server_nrf52840_xxAA_s140_6.0.0.dir/__/__/__/mesh/gatt/src/mesh_gatt.c.obj
 .bss.m_advertising
                0x0000000020005d94       0x24 CMakeFiles/light_switch_proxy_server_nrf52840_xxAA_s140_6.0.0.dir/__/__/__/mesh/gatt/src/proxy.c.obj
 .bss.m_beacon_cache
                0x0000000020005db8       0x1c CMakeFiles/light_switch_proxy_server_nrf52840_xxAA_s140_6.0.0.dir/__/__/__/mesh/gatt/src/proxy.c.obj
 .bss.m_beacon_cache_entries
                0x0000000020005dd4       0x40 CMakeFiles/light_switch_proxy_server_nrf52840_xxAA_s140_6.0.0.dir/__/__/__/mesh/gatt/src/proxy.c.obj
 .bss.m_connections
                0x0000000020005e14       0x5c CMakeFiles/light_switch_proxy_server_nrf52840_xxAA_s140_6.0.0.dir/__/__/__/mesh/gatt/src/proxy.c.obj
 .bss.m_enabled
                0x0000000020005e70        0x1 CMakeFiles/light_switch_proxy_server_nrf52840_xxAA_s140_6.0.0.dir/__/__/__/mesh/gatt/src/proxy.c.obj
 *fill*         0x0000000020005e71        0x3 
 .bss.m_mesh_evt_handler
                0x0000000020005e74        0x8 CMakeFiles/light_switch_proxy_server_nrf52840_xxAA_s140_6.0.0.dir/__/__/__/mesh/gatt/src/proxy.c.obj
 .bss.m_evt_cb  0x0000000020005e7c        0x4 CMakeFiles/light_switch_proxy_server_nrf52840_xxAA_s140_6.0.0.dir/__/__/__/models/config/src/config_server.c.obj
 .bss.m_heartbeat_publication
                0x0000000020005e80       0x14 CMakeFiles/light_switch_proxy_server_nrf52840_xxAA_s140_6.0.0.dir/__/__/__/models/config/src/config_server.c.obj
 .bss.m_node_reset_pending
                0x0000000020005e94        0x1 CMakeFiles/light_switch_proxy_server_nrf52840_xxAA_s140_6.0.0.dir/__/__/__/models/config/src/config_server.c.obj
 *fill*         0x0000000020005e95        0x3 
 .bss.m_attention_timer
                0x0000000020005e98       0x18 CMakeFiles/light_switch_proxy_server_nrf52840_xxAA_s140_6.0.0.dir/__/__/__/models/health/src/health_server.c.obj
 .bss.mp_attention_list
                0x0000000020005eb0        0x4 CMakeFiles/light_switch_proxy_server_nrf52840_xxAA_s140_6.0.0.dir/__/__/__/models/health/src/health_server.c.obj
 .bss.m_publish_timer
                0x0000000020005eb4       0x18 CMakeFiles/light_switch_proxy_server_nrf52840_xxAA_s140_6.0.0.dir/__/__/__/mesh/access/src/access_publish.c.obj
 .bss.m_publish_timer_counter
                0x0000000020005ecc        0x4 CMakeFiles/light_switch_proxy_server_nrf52840_xxAA_s140_6.0.0.dir/__/__/__/mesh/access/src/access_publish.c.obj
 .bss.m_publish_timer_running
                0x0000000020005ed0        0x1 CMakeFiles/light_switch_proxy_server_nrf52840_xxAA_s140_6.0.0.dir/__/__/__/mesh/access/src/access_publish.c.obj
 .bss.m_timer_resolution
                0x0000000020005ed1        0x1 CMakeFiles/light_switch_proxy_server_nrf52840_xxAA_s140_6.0.0.dir/__/__/__/mesh/access/src/access_publish.c.obj
 *fill*         0x0000000020005ed2        0x2 
 .bss.mp_publication_list
                0x0000000020005ed4        0x4 CMakeFiles/light_switch_proxy_server_nrf52840_xxAA_s140_6.0.0.dir/__/__/__/mesh/access/src/access_publish.c.obj
 .bss.m_element_pool
                0x0000000020005ed8        0x6 CMakeFiles/light_switch_proxy_server_nrf52840_xxAA_s140_6.0.0.dir/__/__/__/mesh/access/src/access.c.obj
 *fill*         0x0000000020005ede        0x2 
 .bss.m_evt_handler
                0x0000000020005ee0        0x8 CMakeFiles/light_switch_proxy_server_nrf52840_xxAA_s140_6.0.0.dir/__/__/__/mesh/access/src/access.c.obj
 .bss.m_flash_manager
                0x0000000020005ee8       0x24 CMakeFiles/light_switch_proxy_server_nrf52840_xxAA_s140_6.0.0.dir/__/__/__/mesh/access/src/access.c.obj
 .bss.m_flash_not_ready
                0x0000000020005f0c        0x1 CMakeFiles/light_switch_proxy_server_nrf52840_xxAA_s140_6.0.0.dir/__/__/__/mesh/access/src/access.c.obj
 .bss.m_metadata_stored
                0x0000000020005f0d        0x1 CMakeFiles/light_switch_proxy_server_nrf52840_xxAA_s140_6.0.0.dir/__/__/__/mesh/access/src/access.c.obj
 *fill*         0x0000000020005f0e        0x2 
 .bss.m_model_pool
                0x0000000020005f10       0x9c CMakeFiles/light_switch_proxy_server_nrf52840_xxAA_s140_6.0.0.dir/__/__/__/mesh/access/src/access.c.obj
 .bss.m_subscription_list_pool
                0x0000000020005fac        0x8 CMakeFiles/light_switch_proxy_server_nrf52840_xxAA_s140_6.0.0.dir/__/__/__/mesh/access/src/access.c.obj
 .bss.m_reliable
                0x0000000020005fb4       0xa0 CMakeFiles/light_switch_proxy_server_nrf52840_xxAA_s140_6.0.0.dir/__/__/__/mesh/access/src/access_reliable.c.obj
 .bss.m_addr_nonvirtual_allocated
                0x0000000020006054        0x4 CMakeFiles/light_switch_proxy_server_nrf52840_xxAA_s140_6.0.0.dir/__/__/__/mesh/access/src/device_state_manager.c.obj
 .bss.m_addr_nonvirtual_needs_flashing
                0x0000000020006058        0x4 CMakeFiles/light_switch_proxy_server_nrf52840_xxAA_s140_6.0.0.dir/__/__/__/mesh/access/src/device_state_manager.c.obj
 .bss.m_addr_unicast_allocated
                0x000000002000605c        0x4 CMakeFiles/light_switch_proxy_server_nrf52840_xxAA_s140_6.0.0.dir/__/__/__/mesh/access/src/device_state_manager.c.obj
 .bss.m_addr_unicast_needs_flashing
                0x0000000020006060        0x4 CMakeFiles/light_switch_proxy_server_nrf52840_xxAA_s140_6.0.0.dir/__/__/__/mesh/access/src/device_state_manager.c.obj
 .bss.m_addr_virtual_allocated
                0x0000000020006064        0x4 CMakeFiles/light_switch_proxy_server_nrf52840_xxAA_s140_6.0.0.dir/__/__/__/mesh/access/src/device_state_manager.c.obj
 .bss.m_addr_virtual_needs_flashing
                0x0000000020006068        0x4 CMakeFiles/light_switch_proxy_server_nrf52840_xxAA_s140_6.0.0.dir/__/__/__/mesh/access/src/device_state_manager.c.obj
 .bss.m_addresses
                0x000000002000606c       0x20 CMakeFiles/light_switch_proxy_server_nrf52840_xxAA_s140_6.0.0.dir/__/__/__/mesh/access/src/device_state_manager.c.obj
 .bss.m_appkey_allocated
                0x000000002000608c        0x4 CMakeFiles/light_switch_proxy_server_nrf52840_xxAA_s140_6.0.0.dir/__/__/__/mesh/access/src/device_state_manager.c.obj
 .bss.m_appkey_needs_flashing
                0x0000000020006090        0x4 CMakeFiles/light_switch_proxy_server_nrf52840_xxAA_s140_6.0.0.dir/__/__/__/mesh/access/src/device_state_manager.c.obj
 .bss.m_appkeys
                0x0000000020006094      0x150 CMakeFiles/light_switch_proxy_server_nrf52840_xxAA_s140_6.0.0.dir/__/__/__/mesh/access/src/device_state_manager.c.obj
 .bss.m_devkey_allocated
                0x00000000200061e4        0x4 CMakeFiles/light_switch_proxy_server_nrf52840_xxAA_s140_6.0.0.dir/__/__/__/mesh/access/src/device_state_manager.c.obj
 .bss.m_devkey_needs_flashing
                0x00000000200061e8        0x4 CMakeFiles/light_switch_proxy_server_nrf52840_xxAA_s140_6.0.0.dir/__/__/__/mesh/access/src/device_state_manager.c.obj
 .bss.m_devkeys
                0x00000000200061ec       0x16 CMakeFiles/light_switch_proxy_server_nrf52840_xxAA_s140_6.0.0.dir/__/__/__/mesh/access/src/device_state_manager.c.obj
 .bss.m_flash_is_available
                0x0000000020006202        0x1 CMakeFiles/light_switch_proxy_server_nrf52840_xxAA_s140_6.0.0.dir/__/__/__/mesh/access/src/device_state_manager.c.obj
 *fill*         0x0000000020006203        0x1 
 .bss.m_flash_manager
                0x0000000020006204       0x24 CMakeFiles/light_switch_proxy_server_nrf52840_xxAA_s140_6.0.0.dir/__/__/__/mesh/access/src/device_state_manager.c.obj
 .bss.m_flash_mem_listener_update_all
                0x0000000020006228       0x10 CMakeFiles/light_switch_proxy_server_nrf52840_xxAA_s140_6.0.0.dir/__/__/__/mesh/access/src/device_state_manager.c.obj
 .bss.m_has_primary_subnet
                0x0000000020006238        0x1 CMakeFiles/light_switch_proxy_server_nrf52840_xxAA_s140_6.0.0.dir/__/__/__/mesh/access/src/device_state_manager.c.obj
 *fill*         0x0000000020006239        0x3 
 .bss.m_local_unicast_addr
                0x000000002000623c        0x4 CMakeFiles/light_switch_proxy_server_nrf52840_xxAA_s140_6.0.0.dir/__/__/__/mesh/access/src/device_state_manager.c.obj
 .bss.m_mesh_evt_handler
                0x0000000020006240        0x8 CMakeFiles/light_switch_proxy_server_nrf52840_xxAA_s140_6.0.0.dir/__/__/__/mesh/access/src/device_state_manager.c.obj
 .bss.m_subnet_allocated
                0x0000000020006248        0x4 CMakeFiles/light_switch_proxy_server_nrf52840_xxAA_s140_6.0.0.dir/__/__/__/mesh/access/src/device_state_manager.c.obj
 .bss.m_subnet_needs_flashing
                0x000000002000624c        0x4 CMakeFiles/light_switch_proxy_server_nrf52840_xxAA_s140_6.0.0.dir/__/__/__/mesh/access/src/device_state_manager.c.obj
 .bss.m_subnets
                0x0000000020006250      0x190 CMakeFiles/light_switch_proxy_server_nrf52840_xxAA_s140_6.0.0.dir/__/__/__/mesh/access/src/device_state_manager.c.obj
 .bss.m_virtual_addresses
                0x00000000200063e0       0xa0 CMakeFiles/light_switch_proxy_server_nrf52840_xxAA_s140_6.0.0.dir/__/__/__/mesh/access/src/device_state_manager.c.obj
 .bss.m_event_handler
                0x0000000020006480        0x4 CMakeFiles/light_switch_proxy_server_nrf52840_xxAA_s140_6.0.0.dir/__/__/__/mesh/prov/src/prov_beacon.c.obj
 .bss.m_offload_ecdh
                0x0000000020006484        0x1 CMakeFiles/light_switch_proxy_server_nrf52840_xxAA_s140_6.0.0.dir/__/__/__/mesh/prov/src/prov_utils.c.obj
 *fill*         0x0000000020006485        0x3 
 .bss.mp_bearer_head
                0x0000000020006488        0x4 CMakeFiles/light_switch_proxy_server_nrf52840_xxAA_s140_6.0.0.dir/__/__/__/mesh/prov/src/prov_bearer_adv.c.obj
 .bss._acDownBuffer
                0x000000002000648c       0x80 ../../../external/rtt/librtt_nrf52840_xxAA.a(SEGGER_RTT.c.obj)
 .bss._acUpBuffer
                0x000000002000650c      0x400 ../../../external/rtt/librtt_nrf52840_xxAA.a(SEGGER_RTT.c.obj)
 .bss.__malloc_free_list
                0x000000002000690c        0x4 /usr/bin/../lib/gcc/arm-none-eabi/7.2.1/../../../../arm-none-eabi/lib/thumb/v7e-m/fpv4-sp/hard/libg_nano.a(lib_a-nano-mallocr.o)
                0x000000002000690c                __malloc_free_list
 .bss.__malloc_sbrk_start
                0x0000000020006910        0x4 /usr/bin/../lib/gcc/arm-none-eabi/7.2.1/../../../../arm-none-eabi/lib/thumb/v7e-m/fpv4-sp/hard/libg_nano.a(lib_a-nano-mallocr.o)
                0x0000000020006910                __malloc_sbrk_start
 .bss.heap_end.5377
                0x0000000020006914        0x4 /usr/bin/../lib/gcc/arm-none-eabi/7.2.1/../../../../arm-none-eabi/lib/thumb/v7e-m/fpv4-sp/hard/libnosys.a(sbrk.o)
 *(COMMON)
 COMMON         0x0000000020006918        0xc CMakeFiles/light_switch_proxy_server_nrf52840_xxAA_s140_6.0.0.dir/home/mazzer/work/nordic/sdk/nRF5_SDK_15.0.0/components/libraries/util/app_util_platform.c.obj
                0x0000000020006918                nrf_nvic_state
 COMMON         0x0000000020006924       0x24 CMakeFiles/light_switch_proxy_server_nrf52840_xxAA_s140_6.0.0.dir/__/__/__/mesh/core/src/core_tx.c.obj
                0x0000000020006924                m_packet
 COMMON         0x0000000020006948       0x78 ../../../external/rtt/librtt_nrf52840_xxAA.a(SEGGER_RTT.c.obj)
                0x0000000020006948                _SEGGER_RTT
 COMMON         0x00000000200069c0        0x4 /usr/bin/../lib/gcc/arm-none-eabi/7.2.1/../../../../arm-none-eabi/lib/thumb/v7e-m/fpv4-sp/hard/libg_nano.a(lib_a-reent.o)
                0x00000000200069c0                errno
                0x00000000200069c4                . = ALIGN (0x4)
                0x00000000200069c4                __bss_end__ = .

.heap           0x00000000200069c8     0x2000
                0x00000000200069c8                __HeapBase = .
                0x00000000200069c8                __end__ = .
                0x00000000200069c8                PROVIDE (end, .)
 *(.heap*)
 .heap          0x00000000200069c8     0x2000 CMakeFiles/light_switch_proxy_server_nrf52840_xxAA_s140_6.0.0.dir/home/mazzer/work/nordic/sdk/nRF5_SDK_15.0.0/modules/nrfx/mdk/gcc_startup_nrf52840.S.obj
                0x00000000200089c8                __HeapLimit = .

.stack_dummy    0x00000000200069c8     0x2000
 *(.stack*)
 .stack         0x00000000200069c8     0x2000 CMakeFiles/light_switch_proxy_server_nrf52840_xxAA_s140_6.0.0.dir/home/mazzer/work/nordic/sdk/nRF5_SDK_15.0.0/modules/nrfx/mdk/gcc_startup_nrf52840.S.obj
                0x000000002003fd00                __StackTop = (ORIGIN (RAM) + LENGTH (RAM))
                0x000000002003dd00                __StackLimit = (__StackTop - SIZEOF (.stack_dummy))
                0x000000002003fd00                PROVIDE (__stack, __StackTop)
                0x0000000000000001                ASSERT ((__StackLimit >= __HeapLimit), region RAM overflowed with stack)
                0x00000000000001c0                DataInitFlashUsed = (__bss_start__ - __data_start__)
                0x0000000000021a7c                CodeFlashUsed = (__etext - ORIGIN (FLASH))
                0x0000000000021c3c                TotalFlashUsed = (CodeFlashUsed + DataInitFlashUsed)
                0x0000000000000001                ASSERT ((TotalFlashUsed <= LENGTH (FLASH)), region FLASH overflowed with .data and user data)
OUTPUT(light_switch_proxy_server_nrf52840_xxAA_s140_6.0.0.elf elf32-littlearm)

.ARM.attributes
                0x0000000000000000       0x30
 .ARM.attributes
                0x0000000000000000       0x22 /usr/bin/../lib/gcc/arm-none-eabi/7.2.1/thumb/v7e-m/fpv4-sp/hard/crti.o
 .ARM.attributes
                0x0000000000000022       0x34 /usr/bin/../lib/gcc/arm-none-eabi/7.2.1/thumb/v7e-m/fpv4-sp/hard/crtbegin.o
 .ARM.attributes
                0x0000000000000056       0x20 /usr/bin/../lib/gcc/arm-none-eabi/7.2.1/../../../../arm-none-eabi/lib/thumb/v7e-m/fpv4-sp/hard/crt0.o
 .ARM.attributes
                0x0000000000000076       0x39 CMakeFiles/light_switch_proxy_server_nrf52840_xxAA_s140_6.0.0.dir/src/main.c.obj
 .ARM.attributes
                0x00000000000000af       0x39 CMakeFiles/light_switch_proxy_server_nrf52840_xxAA_s140_6.0.0.dir/__/__/__/mesh/stack/src/mesh_stack.c.obj
 .ARM.attributes
                0x00000000000000e8       0x39 CMakeFiles/light_switch_proxy_server_nrf52840_xxAA_s140_6.0.0.dir/__/__/common/src/mesh_provisionee.c.obj
 .ARM.attributes
                0x0000000000000121       0x39 CMakeFiles/light_switch_proxy_server_nrf52840_xxAA_s140_6.0.0.dir/__/__/common/src/rtt_input.c.obj
 .ARM.attributes
                0x000000000000015a       0x39 CMakeFiles/light_switch_proxy_server_nrf52840_xxAA_s140_6.0.0.dir/__/__/common/src/simple_hal.c.obj
 .ARM.attributes
                0x0000000000000193       0x39 CMakeFiles/light_switch_proxy_server_nrf52840_xxAA_s140_6.0.0.dir/__/__/common/src/mesh_app_utils.c.obj
 .ARM.attributes
                0x00000000000001cc       0x39 CMakeFiles/light_switch_proxy_server_nrf52840_xxAA_s140_6.0.0.dir/__/__/common/src/mesh_adv.c.obj
 .ARM.attributes
                0x0000000000000205       0x39 CMakeFiles/light_switch_proxy_server_nrf52840_xxAA_s140_6.0.0.dir/__/__/__/mesh/prov/src/nrf_mesh_prov_bearer_gatt.c.obj
 .ARM.attributes
                0x000000000000023e       0x39 CMakeFiles/light_switch_proxy_server_nrf52840_xxAA_s140_6.0.0.dir/home/mazzer/work/nordic/sdk/nRF5_SDK_15.0.0/components/libraries/util/app_util_platform.c.obj
 .ARM.attributes
                0x0000000000000277       0x39 CMakeFiles/light_switch_proxy_server_nrf52840_xxAA_s140_6.0.0.dir/home/mazzer/work/nordic/sdk/nRF5_SDK_15.0.0/components/ble/common/ble_advdata.c.obj
 .ARM.attributes
                0x00000000000002b0       0x39 CMakeFiles/light_switch_proxy_server_nrf52840_xxAA_s140_6.0.0.dir/home/mazzer/work/nordic/sdk/nRF5_SDK_15.0.0/components/libraries/experimental_section_vars/nrf_section_iter.c.obj
 .ARM.attributes
                0x00000000000002e9       0x39 CMakeFiles/light_switch_proxy_server_nrf52840_xxAA_s140_6.0.0.dir/home/mazzer/work/nordic/sdk/nRF5_SDK_15.0.0/components/softdevice/common/nrf_sdh.c.obj
 .ARM.attributes
                0x0000000000000322       0x39 CMakeFiles/light_switch_proxy_server_nrf52840_xxAA_s140_6.0.0.dir/home/mazzer/work/nordic/sdk/nRF5_SDK_15.0.0/components/softdevice/common/nrf_sdh_soc.c.obj
 .ARM.attributes
                0x000000000000035b       0x39 CMakeFiles/light_switch_proxy_server_nrf52840_xxAA_s140_6.0.0.dir/home/mazzer/work/nordic/sdk/nRF5_SDK_15.0.0/components/softdevice/common/nrf_sdh_ble.c.obj
 .ARM.attributes
                0x0000000000000394       0x39 CMakeFiles/light_switch_proxy_server_nrf52840_xxAA_s140_6.0.0.dir/__/__/nrf_mesh_weak.c.obj
 .ARM.attributes
                0x00000000000003cd       0x39 CMakeFiles/light_switch_proxy_server_nrf52840_xxAA_s140_6.0.0.dir/__/__/common/src/app_error_weak.c.obj
 .ARM.attributes
                0x0000000000000406       0x39 CMakeFiles/light_switch_proxy_server_nrf52840_xxAA_s140_6.0.0.dir/__/__/common/src/assertion_handler_weak.c.obj
 .ARM.attributes
                0x000000000000043f       0x39 CMakeFiles/light_switch_proxy_server_nrf52840_xxAA_s140_6.0.0.dir/__/__/__/mesh/core/src/nrf_mesh_configure.c.obj
 .ARM.attributes
                0x0000000000000478       0x39 CMakeFiles/light_switch_proxy_server_nrf52840_xxAA_s140_6.0.0.dir/__/__/__/mesh/core/src/aes.c.obj
 .ARM.attributes
                0x00000000000004b1       0x39 CMakeFiles/light_switch_proxy_server_nrf52840_xxAA_s140_6.0.0.dir/__/__/__/mesh/core/src/msg_cache.c.obj
 .ARM.attributes
                0x00000000000004ea       0x39 CMakeFiles/light_switch_proxy_server_nrf52840_xxAA_s140_6.0.0.dir/__/__/__/mesh/core/src/transport.c.obj
 .ARM.attributes
                0x0000000000000523       0x39 CMakeFiles/light_switch_proxy_server_nrf52840_xxAA_s140_6.0.0.dir/__/__/__/mesh/core/src/event.c.obj
 .ARM.attributes
                0x000000000000055c       0x39 CMakeFiles/light_switch_proxy_server_nrf52840_xxAA_s140_6.0.0.dir/__/__/__/mesh/core/src/packet_buffer.c.obj
 .ARM.attributes
                0x0000000000000595       0x39 CMakeFiles/light_switch_proxy_server_nrf52840_xxAA_s140_6.0.0.dir/__/__/__/mesh/core/src/flash_manager_defrag.c.obj
 .ARM.attributes
                0x00000000000005ce       0x39 CMakeFiles/light_switch_proxy_server_nrf52840_xxAA_s140_6.0.0.dir/__/__/__/mesh/core/src/fifo.c.obj
 .ARM.attributes
                0x0000000000000607       0x39 CMakeFiles/light_switch_proxy_server_nrf52840_xxAA_s140_6.0.0.dir/__/__/__/mesh/core/src/nrf_flash.c.obj
 .ARM.attributes
                0x0000000000000640       0x39 CMakeFiles/light_switch_proxy_server_nrf52840_xxAA_s140_6.0.0.dir/__/__/__/mesh/core/src/packet_mgr.c.obj
 .ARM.attributes
                0x0000000000000679       0x39 CMakeFiles/light_switch_proxy_server_nrf52840_xxAA_s140_6.0.0.dir/__/__/__/mesh/core/src/net_state.c.obj
 .ARM.attributes
                0x00000000000006b2       0x39 CMakeFiles/light_switch_proxy_server_nrf52840_xxAA_s140_6.0.0.dir/__/__/__/mesh/core/src/mesh_flash.c.obj
 .ARM.attributes
                0x00000000000006eb       0x39 CMakeFiles/light_switch_proxy_server_nrf52840_xxAA_s140_6.0.0.dir/__/__/__/mesh/core/src/nrf_mesh_utils.c.obj
 .ARM.attributes
                0x0000000000000724       0x39 CMakeFiles/light_switch_proxy_server_nrf52840_xxAA_s140_6.0.0.dir/__/__/__/mesh/core/src/nrf_mesh.c.obj
 .ARM.attributes
                0x000000000000075d       0x39 CMakeFiles/light_switch_proxy_server_nrf52840_xxAA_s140_6.0.0.dir/__/__/__/mesh/core/src/queue.c.obj
 .ARM.attributes
                0x0000000000000796       0x39 CMakeFiles/light_switch_proxy_server_nrf52840_xxAA_s140_6.0.0.dir/__/__/__/mesh/core/src/hal.c.obj
 .ARM.attributes
                0x00000000000007cf       0x39 CMakeFiles/light_switch_proxy_server_nrf52840_xxAA_s140_6.0.0.dir/__/__/__/mesh/core/src/aes_cmac.c.obj
 .ARM.attributes
                0x0000000000000808       0x39 CMakeFiles/light_switch_proxy_server_nrf52840_xxAA_s140_6.0.0.dir/__/__/__/mesh/core/src/timer_scheduler.c.obj
 .ARM.attributes
                0x0000000000000841       0x39 CMakeFiles/light_switch_proxy_server_nrf52840_xxAA_s140_6.0.0.dir/__/__/__/mesh/core/src/timer.c.obj
 .ARM.attributes
                0x000000000000087a       0x39 CMakeFiles/light_switch_proxy_server_nrf52840_xxAA_s140_6.0.0.dir/__/__/__/mesh/core/src/ticker.c.obj
 .ARM.attributes
                0x00000000000008b3       0x39 CMakeFiles/light_switch_proxy_server_nrf52840_xxAA_s140_6.0.0.dir/__/__/__/mesh/core/src/rand.c.obj
 .ARM.attributes
                0x00000000000008ec       0x39 CMakeFiles/light_switch_proxy_server_nrf52840_xxAA_s140_6.0.0.dir/__/__/__/mesh/core/src/nrf_mesh_opt.c.obj
 .ARM.attributes
                0x0000000000000925       0x39 CMakeFiles/light_switch_proxy_server_nrf52840_xxAA_s140_6.0.0.dir/__/__/__/mesh/core/src/timeslot.c.obj
 .ARM.attributes
                0x000000000000095e       0x39 CMakeFiles/light_switch_proxy_server_nrf52840_xxAA_s140_6.0.0.dir/__/__/__/mesh/core/src/bearer_event.c.obj
 .ARM.attributes
                0x0000000000000997       0x39 CMakeFiles/light_switch_proxy_server_nrf52840_xxAA_s140_6.0.0.dir/__/__/__/mesh/core/src/enc.c.obj
 .ARM.attributes
                0x00000000000009d0       0x39 CMakeFiles/light_switch_proxy_server_nrf52840_xxAA_s140_6.0.0.dir/__/__/__/mesh/core/src/network.c.obj
 .ARM.attributes
                0x0000000000000a09       0x39 CMakeFiles/light_switch_proxy_server_nrf52840_xxAA_s140_6.0.0.dir/__/__/__/mesh/core/src/net_packet.c.obj
 .ARM.attributes
                0x0000000000000a42       0x39 CMakeFiles/light_switch_proxy_server_nrf52840_xxAA_s140_6.0.0.dir/__/__/__/mesh/core/src/msqueue.c.obj
 .ARM.attributes
                0x0000000000000a7b       0x39 CMakeFiles/light_switch_proxy_server_nrf52840_xxAA_s140_6.0.0.dir/__/__/__/mesh/core/src/nrf_mesh_keygen.c.obj
 .ARM.attributes
                0x0000000000000ab4       0x39 CMakeFiles/light_switch_proxy_server_nrf52840_xxAA_s140_6.0.0.dir/__/__/__/mesh/core/src/cache.c.obj
 .ARM.attributes
                0x0000000000000aed       0x39 CMakeFiles/light_switch_proxy_server_nrf52840_xxAA_s140_6.0.0.dir/__/__/__/mesh/core/src/list.c.obj
 .ARM.attributes
                0x0000000000000b26       0x39 CMakeFiles/light_switch_proxy_server_nrf52840_xxAA_s140_6.0.0.dir/__/__/__/mesh/core/src/log.c.obj
 .ARM.attributes
                0x0000000000000b5f       0x39 CMakeFiles/light_switch_proxy_server_nrf52840_xxAA_s140_6.0.0.dir/__/__/__/mesh/core/src/flash_manager.c.obj
 .ARM.attributes
                0x0000000000000b98       0x39 CMakeFiles/light_switch_proxy_server_nrf52840_xxAA_s140_6.0.0.dir/__/__/__/mesh/core/src/ccm_soft.c.obj
 .ARM.attributes
                0x0000000000000bd1       0x39 CMakeFiles/light_switch_proxy_server_nrf52840_xxAA_s140_6.0.0.dir/__/__/__/mesh/core/src/replay_cache.c.obj
 .ARM.attributes
                0x0000000000000c0a       0x39 CMakeFiles/light_switch_proxy_server_nrf52840_xxAA_s140_6.0.0.dir/__/__/__/mesh/core/src/beacon.c.obj
 .ARM.attributes
                0x0000000000000c43       0x39 CMakeFiles/light_switch_proxy_server_nrf52840_xxAA_s140_6.0.0.dir/__/__/__/mesh/core/src/flash_manager_internal.c.obj
 .ARM.attributes
                0x0000000000000c7c       0x39 CMakeFiles/light_switch_proxy_server_nrf52840_xxAA_s140_6.0.0.dir/__/__/__/mesh/core/src/core_tx.c.obj
 .ARM.attributes
                0x0000000000000cb5       0x39 CMakeFiles/light_switch_proxy_server_nrf52840_xxAA_s140_6.0.0.dir/__/__/__/mesh/core/src/heartbeat.c.obj
 .ARM.attributes
                0x0000000000000cee       0x39 CMakeFiles/light_switch_proxy_server_nrf52840_xxAA_s140_6.0.0.dir/__/__/__/mesh/core/src/net_beacon.c.obj
 .ARM.attributes
                0x0000000000000d27       0x39 CMakeFiles/light_switch_proxy_server_nrf52840_xxAA_s140_6.0.0.dir/__/__/__/mesh/core/src/fsm.c.obj
 .ARM.attributes
                0x0000000000000d60       0x39 CMakeFiles/light_switch_proxy_server_nrf52840_xxAA_s140_6.0.0.dir/__/__/__/mesh/core/src/core_tx_adv.c.obj
 .ARM.attributes
                0x0000000000000d99       0x39 CMakeFiles/light_switch_proxy_server_nrf52840_xxAA_s140_6.0.0.dir/__/__/__/mesh/bearer/src/ad_listener.c.obj
 .ARM.attributes
                0x0000000000000dd2       0x39 CMakeFiles/light_switch_proxy_server_nrf52840_xxAA_s140_6.0.0.dir/__/__/__/mesh/bearer/src/ad_type_filter.c.obj
 .ARM.attributes
                0x0000000000000e0b       0x39 CMakeFiles/light_switch_proxy_server_nrf52840_xxAA_s140_6.0.0.dir/__/__/__/mesh/bearer/src/advertiser.c.obj
 .ARM.attributes
                0x0000000000000e44       0x39 CMakeFiles/light_switch_proxy_server_nrf52840_xxAA_s140_6.0.0.dir/__/__/__/mesh/bearer/src/bearer_handler.c.obj
 .ARM.attributes
                0x0000000000000e7d       0x39 CMakeFiles/light_switch_proxy_server_nrf52840_xxAA_s140_6.0.0.dir/__/__/__/mesh/bearer/src/broadcast.c.obj
 .ARM.attributes
                0x0000000000000eb6       0x39 CMakeFiles/light_switch_proxy_server_nrf52840_xxAA_s140_6.0.0.dir/__/__/__/mesh/bearer/src/filter_engine.c.obj
 .ARM.attributes
                0x0000000000000eef       0x39 CMakeFiles/light_switch_proxy_server_nrf52840_xxAA_s140_6.0.0.dir/__/__/__/mesh/bearer/src/radio_config.c.obj
 .ARM.attributes
                0x0000000000000f28       0x39 CMakeFiles/light_switch_proxy_server_nrf52840_xxAA_s140_6.0.0.dir/__/__/__/mesh/bearer/src/scanner.c.obj
 .ARM.attributes
                0x0000000000000f61       0x39 CMakeFiles/light_switch_proxy_server_nrf52840_xxAA_s140_6.0.0.dir/__/__/__/mesh/gatt/src/mesh_gatt.c.obj
 .ARM.attributes
                0x0000000000000f9a       0x39 CMakeFiles/light_switch_proxy_server_nrf52840_xxAA_s140_6.0.0.dir/__/__/__/mesh/gatt/src/proxy.c.obj
 .ARM.attributes
                0x0000000000000fd3       0x39 CMakeFiles/light_switch_proxy_server_nrf52840_xxAA_s140_6.0.0.dir/__/__/__/mesh/gatt/src/proxy_filter.c.obj
 .ARM.attributes
                0x000000000000100c       0x39 CMakeFiles/light_switch_proxy_server_nrf52840_xxAA_s140_6.0.0.dir/__/__/__/models/simple_on_off/src/simple_on_off_server.c.obj
 .ARM.attributes
                0x0000000000001045       0x39 CMakeFiles/light_switch_proxy_server_nrf52840_xxAA_s140_6.0.0.dir/__/__/__/models/config/src/composition_data.c.obj
 .ARM.attributes
                0x000000000000107e       0x39 CMakeFiles/light_switch_proxy_server_nrf52840_xxAA_s140_6.0.0.dir/__/__/__/models/config/src/config_server.c.obj
 .ARM.attributes
                0x00000000000010b7       0x39 CMakeFiles/light_switch_proxy_server_nrf52840_xxAA_s140_6.0.0.dir/__/__/__/models/config/src/packed_index_list.c.obj
 .ARM.attributes
                0x00000000000010f0       0x39 CMakeFiles/light_switch_proxy_server_nrf52840_xxAA_s140_6.0.0.dir/__/__/__/models/health/src/health_server.c.obj
 .ARM.attributes
                0x0000000000001129       0x39 CMakeFiles/light_switch_proxy_server_nrf52840_xxAA_s140_6.0.0.dir/__/__/__/mesh/access/src/access_publish.c.obj
 .ARM.attributes
                0x0000000000001162       0x39 CMakeFiles/light_switch_proxy_server_nrf52840_xxAA_s140_6.0.0.dir/__/__/__/mesh/access/src/access.c.obj
 .ARM.attributes
                0x000000000000119b       0x39 CMakeFiles/light_switch_proxy_server_nrf52840_xxAA_s140_6.0.0.dir/__/__/__/mesh/access/src/access_reliable.c.obj
 .ARM.attributes
                0x00000000000011d4       0x39 CMakeFiles/light_switch_proxy_server_nrf52840_xxAA_s140_6.0.0.dir/__/__/__/mesh/access/src/device_state_manager.c.obj
 .ARM.attributes
                0x000000000000120d       0x39 CMakeFiles/light_switch_proxy_server_nrf52840_xxAA_s140_6.0.0.dir/__/__/__/mesh/prov/src/prov_provisionee.c.obj
 .ARM.attributes
                0x0000000000001246       0x39 CMakeFiles/light_switch_proxy_server_nrf52840_xxAA_s140_6.0.0.dir/__/__/__/mesh/prov/src/nrf_mesh_prov.c.obj
 .ARM.attributes
                0x000000000000127f       0x39 CMakeFiles/light_switch_proxy_server_nrf52840_xxAA_s140_6.0.0.dir/__/__/__/mesh/prov/src/provisioning.c.obj
 .ARM.attributes
                0x00000000000012b8       0x39 CMakeFiles/light_switch_proxy_server_nrf52840_xxAA_s140_6.0.0.dir/__/__/__/mesh/prov/src/prov_beacon.c.obj
 .ARM.attributes
                0x00000000000012f1       0x39 CMakeFiles/light_switch_proxy_server_nrf52840_xxAA_s140_6.0.0.dir/__/__/__/mesh/prov/src/prov_utils.c.obj
 .ARM.attributes
                0x000000000000132a       0x39 CMakeFiles/light_switch_proxy_server_nrf52840_xxAA_s140_6.0.0.dir/__/__/__/mesh/prov/src/prov_bearer_adv.c.obj
 .ARM.attributes
                0x0000000000001363       0x39 CMakeFiles/light_switch_proxy_server_nrf52840_xxAA_s140_6.0.0.dir/home/mazzer/work/nordic/sdk/nRF5_SDK_15.0.0/modules/nrfx/mdk/system_nrf52840.c.obj
 .ARM.attributes
                0x000000000000139c       0x20 CMakeFiles/light_switch_proxy_server_nrf52840_xxAA_s140_6.0.0.dir/home/mazzer/work/nordic/sdk/nRF5_SDK_15.0.0/modules/nrfx/mdk/gcc_startup_nrf52840.S.obj
 .ARM.attributes
                0x00000000000013bc       0x39 CMakeFiles/light_switch_proxy_server_nrf52840_xxAA_s140_6.0.0.dir/home/mazzer/work/nordic/sdk/nRF5_SDK_15.0.0/components/libraries/util/app_error.c.obj
 .ARM.attributes
                0x00000000000013f5       0x39 CMakeFiles/light_switch_proxy_server_nrf52840_xxAA_s140_6.0.0.dir/home/mazzer/work/nordic/sdk/nRF5_SDK_15.0.0/components/libraries/util/app_error_handler_gcc.c.obj
 .ARM.attributes
                0x000000000000142e       0x39 ../../../external/rtt/librtt_nrf52840_xxAA.a(SEGGER_RTT.c.obj)
 .ARM.attributes
                0x0000000000001467       0x39 ../../../external/rtt/librtt_nrf52840_xxAA.a(SEGGER_RTT_printf.c.obj)
 .ARM.attributes
                0x00000000000014a0       0x39 ../../../external/micro-ecc/libuECC_nrf52840_xxAA.a(uECC.c.obj)
 .ARM.attributes
                0x00000000000014d9       0x22 /usr/bin/../lib/gcc/arm-none-eabi/7.2.1/thumb/v7e-m/fpv4-sp/hard/libgcc.a(_aeabi_uldivmod.o)
 .ARM.attributes
                0x00000000000014fb       0x34 /usr/bin/../lib/gcc/arm-none-eabi/7.2.1/thumb/v7e-m/fpv4-sp/hard/libgcc.a(_udivmoddi4.o)
 .ARM.attributes
                0x000000000000152f       0x22 /usr/bin/../lib/gcc/arm-none-eabi/7.2.1/thumb/v7e-m/fpv4-sp/hard/libgcc.a(_dvmd_tls.o)
 .ARM.attributes
                0x0000000000001551       0x34 /usr/bin/../lib/gcc/arm-none-eabi/7.2.1/../../../../arm-none-eabi/lib/thumb/v7e-m/fpv4-sp/hard/libg_nano.a(lib_a-exit.o)
 .ARM.attributes
                0x0000000000001585       0x34 /usr/bin/../lib/gcc/arm-none-eabi/7.2.1/../../../../arm-none-eabi/lib/thumb/v7e-m/fpv4-sp/hard/libg_nano.a(lib_a-impure.o)
 .ARM.attributes
                0x00000000000015b9       0x34 /usr/bin/../lib/gcc/arm-none-eabi/7.2.1/../../../../arm-none-eabi/lib/thumb/v7e-m/fpv4-sp/hard/libg_nano.a(lib_a-init.o)
 .ARM.attributes
                0x00000000000015ed       0x34 /usr/bin/../lib/gcc/arm-none-eabi/7.2.1/../../../../arm-none-eabi/lib/thumb/v7e-m/fpv4-sp/hard/libg_nano.a(lib_a-malloc.o)
 .ARM.attributes
                0x0000000000001621       0x34 /usr/bin/../lib/gcc/arm-none-eabi/7.2.1/../../../../arm-none-eabi/lib/thumb/v7e-m/fpv4-sp/hard/libg_nano.a(lib_a-memcmp.o)
 .ARM.attributes
                0x0000000000001655       0x34 /usr/bin/../lib/gcc/arm-none-eabi/7.2.1/../../../../arm-none-eabi/lib/thumb/v7e-m/fpv4-sp/hard/libg_nano.a(lib_a-memcpy-stub.o)
 .ARM.attributes
                0x0000000000001689       0x34 /usr/bin/../lib/gcc/arm-none-eabi/7.2.1/../../../../arm-none-eabi/lib/thumb/v7e-m/fpv4-sp/hard/libg_nano.a(lib_a-memset.o)
 .ARM.attributes
                0x00000000000016bd       0x34 /usr/bin/../lib/gcc/arm-none-eabi/7.2.1/../../../../arm-none-eabi/lib/thumb/v7e-m/fpv4-sp/hard/libg_nano.a(lib_a-nano-freer.o)
 .ARM.attributes
                0x00000000000016f1       0x34 /usr/bin/../lib/gcc/arm-none-eabi/7.2.1/../../../../arm-none-eabi/lib/thumb/v7e-m/fpv4-sp/hard/libg_nano.a(lib_a-nano-mallocr.o)
 .ARM.attributes
                0x0000000000001725       0x34 /usr/bin/../lib/gcc/arm-none-eabi/7.2.1/../../../../arm-none-eabi/lib/thumb/v7e-m/fpv4-sp/hard/libg_nano.a(lib_a-sbrkr.o)
 .ARM.attributes
                0x0000000000001759       0x34 /usr/bin/../lib/gcc/arm-none-eabi/7.2.1/../../../../arm-none-eabi/lib/thumb/v7e-m/fpv4-sp/hard/libg_nano.a(lib_a-strcpy.o)
 .ARM.attributes
                0x000000000000178d       0x1b /usr/bin/../lib/gcc/arm-none-eabi/7.2.1/../../../../arm-none-eabi/lib/thumb/v7e-m/fpv4-sp/hard/libg_nano.a(lib_a-strlen.o)
 .ARM.attributes
                0x00000000000017a8       0x34 /usr/bin/../lib/gcc/arm-none-eabi/7.2.1/../../../../arm-none-eabi/lib/thumb/v7e-m/fpv4-sp/hard/libg_nano.a(lib_a-strrchr.o)
 .ARM.attributes
                0x00000000000017dc       0x34 /usr/bin/../lib/gcc/arm-none-eabi/7.2.1/../../../../arm-none-eabi/lib/thumb/v7e-m/fpv4-sp/hard/libg_nano.a(lib_a-mlock.o)
 .ARM.attributes
                0x0000000000001810       0x34 /usr/bin/../lib/gcc/arm-none-eabi/7.2.1/../../../../arm-none-eabi/lib/thumb/v7e-m/fpv4-sp/hard/libg_nano.a(lib_a-reent.o)
 .ARM.attributes
                0x0000000000001844       0x34 /usr/bin/../lib/gcc/arm-none-eabi/7.2.1/../../../../arm-none-eabi/lib/thumb/v7e-m/fpv4-sp/hard/libg_nano.a(lib_a-strchr.o)
 .ARM.attributes
                0x0000000000001878       0x34 /usr/bin/../lib/gcc/arm-none-eabi/7.2.1/thumb/v7e-m/fpv4-sp/hard/crtend.o
 .ARM.attributes
                0x00000000000018ac       0x22 /usr/bin/../lib/gcc/arm-none-eabi/7.2.1/thumb/v7e-m/fpv4-sp/hard/crtn.o
 .ARM.attributes
                0x00000000000018ce       0x34 /usr/bin/../lib/gcc/arm-none-eabi/7.2.1/../../../../arm-none-eabi/lib/thumb/v7e-m/fpv4-sp/hard/libnosys.a(sbrk.o)
 .ARM.attributes
                0x0000000000001902       0x34 /usr/bin/../lib/gcc/arm-none-eabi/7.2.1/../../../../arm-none-eabi/lib/thumb/v7e-m/fpv4-sp/hard/libnosys.a(_exit.o)

.comment        0x0000000000000000       0x7e
 .comment       0x0000000000000000       0x7e CMakeFiles/light_switch_proxy_server_nrf52840_xxAA_s140_6.0.0.dir/src/main.c.obj
                                         0x7f (size before relaxing)
 .comment       0x000000000000007e       0x7f CMakeFiles/light_switch_proxy_server_nrf52840_xxAA_s140_6.0.0.dir/__/__/__/mesh/stack/src/mesh_stack.c.obj
 .comment       0x000000000000007e       0x7f CMakeFiles/light_switch_proxy_server_nrf52840_xxAA_s140_6.0.0.dir/__/__/common/src/mesh_provisionee.c.obj
 .comment       0x000000000000007e       0x7f CMakeFiles/light_switch_proxy_server_nrf52840_xxAA_s140_6.0.0.dir/__/__/common/src/rtt_input.c.obj
 .comment       0x000000000000007e       0x7f CMakeFiles/light_switch_proxy_server_nrf52840_xxAA_s140_6.0.0.dir/__/__/common/src/simple_hal.c.obj
 .comment       0x000000000000007e       0x7f CMakeFiles/light_switch_proxy_server_nrf52840_xxAA_s140_6.0.0.dir/__/__/common/src/mesh_app_utils.c.obj
 .comment       0x000000000000007e       0x7f CMakeFiles/light_switch_proxy_server_nrf52840_xxAA_s140_6.0.0.dir/__/__/common/src/mesh_adv.c.obj
 .comment       0x000000000000007e       0x7f CMakeFiles/light_switch_proxy_server_nrf52840_xxAA_s140_6.0.0.dir/__/__/__/mesh/prov/src/nrf_mesh_prov_bearer_gatt.c.obj
 .comment       0x000000000000007e       0x7f CMakeFiles/light_switch_proxy_server_nrf52840_xxAA_s140_6.0.0.dir/home/mazzer/work/nordic/sdk/nRF5_SDK_15.0.0/components/libraries/util/app_util_platform.c.obj
 .comment       0x000000000000007e       0x7f CMakeFiles/light_switch_proxy_server_nrf52840_xxAA_s140_6.0.0.dir/home/mazzer/work/nordic/sdk/nRF5_SDK_15.0.0/components/ble/common/ble_advdata.c.obj
 .comment       0x000000000000007e       0x7f CMakeFiles/light_switch_proxy_server_nrf52840_xxAA_s140_6.0.0.dir/home/mazzer/work/nordic/sdk/nRF5_SDK_15.0.0/components/libraries/experimental_section_vars/nrf_section_iter.c.obj
 .comment       0x000000000000007e       0x7f CMakeFiles/light_switch_proxy_server_nrf52840_xxAA_s140_6.0.0.dir/home/mazzer/work/nordic/sdk/nRF5_SDK_15.0.0/components/softdevice/common/nrf_sdh.c.obj
 .comment       0x000000000000007e       0x7f CMakeFiles/light_switch_proxy_server_nrf52840_xxAA_s140_6.0.0.dir/home/mazzer/work/nordic/sdk/nRF5_SDK_15.0.0/components/softdevice/common/nrf_sdh_soc.c.obj
 .comment       0x000000000000007e       0x7f CMakeFiles/light_switch_proxy_server_nrf52840_xxAA_s140_6.0.0.dir/home/mazzer/work/nordic/sdk/nRF5_SDK_15.0.0/components/softdevice/common/nrf_sdh_ble.c.obj
 .comment       0x000000000000007e       0x7f CMakeFiles/light_switch_proxy_server_nrf52840_xxAA_s140_6.0.0.dir/__/__/nrf_mesh_weak.c.obj
 .comment       0x000000000000007e       0x7f CMakeFiles/light_switch_proxy_server_nrf52840_xxAA_s140_6.0.0.dir/__/__/common/src/app_error_weak.c.obj
 .comment       0x000000000000007e       0x7f CMakeFiles/light_switch_proxy_server_nrf52840_xxAA_s140_6.0.0.dir/__/__/common/src/assertion_handler_weak.c.obj
 .comment       0x000000000000007e       0x7f CMakeFiles/light_switch_proxy_server_nrf52840_xxAA_s140_6.0.0.dir/__/__/__/mesh/core/src/nrf_mesh_configure.c.obj
 .comment       0x000000000000007e       0x7f CMakeFiles/light_switch_proxy_server_nrf52840_xxAA_s140_6.0.0.dir/__/__/__/mesh/core/src/aes.c.obj
 .comment       0x000000000000007e       0x7f CMakeFiles/light_switch_proxy_server_nrf52840_xxAA_s140_6.0.0.dir/__/__/__/mesh/core/src/msg_cache.c.obj
 .comment       0x000000000000007e       0x7f CMakeFiles/light_switch_proxy_server_nrf52840_xxAA_s140_6.0.0.dir/__/__/__/mesh/core/src/transport.c.obj
 .comment       0x000000000000007e       0x7f CMakeFiles/light_switch_proxy_server_nrf52840_xxAA_s140_6.0.0.dir/__/__/__/mesh/core/src/event.c.obj
 .comment       0x000000000000007e       0x7f CMakeFiles/light_switch_proxy_server_nrf52840_xxAA_s140_6.0.0.dir/__/__/__/mesh/core/src/packet_buffer.c.obj
 .comment       0x000000000000007e       0x7f CMakeFiles/light_switch_proxy_server_nrf52840_xxAA_s140_6.0.0.dir/__/__/__/mesh/core/src/flash_manager_defrag.c.obj
 .comment       0x000000000000007e       0x7f CMakeFiles/light_switch_proxy_server_nrf52840_xxAA_s140_6.0.0.dir/__/__/__/mesh/core/src/fifo.c.obj
 .comment       0x000000000000007e       0x7f CMakeFiles/light_switch_proxy_server_nrf52840_xxAA_s140_6.0.0.dir/__/__/__/mesh/core/src/nrf_flash.c.obj
 .comment       0x000000000000007e       0x7f CMakeFiles/light_switch_proxy_server_nrf52840_xxAA_s140_6.0.0.dir/__/__/__/mesh/core/src/packet_mgr.c.obj
 .comment       0x000000000000007e       0x7f CMakeFiles/light_switch_proxy_server_nrf52840_xxAA_s140_6.0.0.dir/__/__/__/mesh/core/src/net_state.c.obj
 .comment       0x000000000000007e       0x7f CMakeFiles/light_switch_proxy_server_nrf52840_xxAA_s140_6.0.0.dir/__/__/__/mesh/core/src/mesh_flash.c.obj
 .comment       0x000000000000007e       0x7f CMakeFiles/light_switch_proxy_server_nrf52840_xxAA_s140_6.0.0.dir/__/__/__/mesh/core/src/nrf_mesh_utils.c.obj
 .comment       0x000000000000007e       0x7f CMakeFiles/light_switch_proxy_server_nrf52840_xxAA_s140_6.0.0.dir/__/__/__/mesh/core/src/nrf_mesh.c.obj
 .comment       0x000000000000007e       0x7f CMakeFiles/light_switch_proxy_server_nrf52840_xxAA_s140_6.0.0.dir/__/__/__/mesh/core/src/queue.c.obj
 .comment       0x000000000000007e       0x7f CMakeFiles/light_switch_proxy_server_nrf52840_xxAA_s140_6.0.0.dir/__/__/__/mesh/core/src/hal.c.obj
 .comment       0x000000000000007e       0x7f CMakeFiles/light_switch_proxy_server_nrf52840_xxAA_s140_6.0.0.dir/__/__/__/mesh/core/src/aes_cmac.c.obj
 .comment       0x000000000000007e       0x7f CMakeFiles/light_switch_proxy_server_nrf52840_xxAA_s140_6.0.0.dir/__/__/__/mesh/core/src/timer_scheduler.c.obj
 .comment       0x000000000000007e       0x7f CMakeFiles/light_switch_proxy_server_nrf52840_xxAA_s140_6.0.0.dir/__/__/__/mesh/core/src/timer.c.obj
 .comment       0x000000000000007e       0x7f CMakeFiles/light_switch_proxy_server_nrf52840_xxAA_s140_6.0.0.dir/__/__/__/mesh/core/src/ticker.c.obj
 .comment       0x000000000000007e       0x7f CMakeFiles/light_switch_proxy_server_nrf52840_xxAA_s140_6.0.0.dir/__/__/__/mesh/core/src/rand.c.obj
 .comment       0x000000000000007e       0x7f CMakeFiles/light_switch_proxy_server_nrf52840_xxAA_s140_6.0.0.dir/__/__/__/mesh/core/src/nrf_mesh_opt.c.obj
 .comment       0x000000000000007e       0x7f CMakeFiles/light_switch_proxy_server_nrf52840_xxAA_s140_6.0.0.dir/__/__/__/mesh/core/src/timeslot.c.obj
 .comment       0x000000000000007e       0x7f CMakeFiles/light_switch_proxy_server_nrf52840_xxAA_s140_6.0.0.dir/__/__/__/mesh/core/src/bearer_event.c.obj
 .comment       0x000000000000007e       0x7f CMakeFiles/light_switch_proxy_server_nrf52840_xxAA_s140_6.0.0.dir/__/__/__/mesh/core/src/enc.c.obj
 .comment       0x000000000000007e       0x7f CMakeFiles/light_switch_proxy_server_nrf52840_xxAA_s140_6.0.0.dir/__/__/__/mesh/core/src/network.c.obj
 .comment       0x000000000000007e       0x7f CMakeFiles/light_switch_proxy_server_nrf52840_xxAA_s140_6.0.0.dir/__/__/__/mesh/core/src/net_packet.c.obj
 .comment       0x000000000000007e       0x7f CMakeFiles/light_switch_proxy_server_nrf52840_xxAA_s140_6.0.0.dir/__/__/__/mesh/core/src/msqueue.c.obj
 .comment       0x000000000000007e       0x7f CMakeFiles/light_switch_proxy_server_nrf52840_xxAA_s140_6.0.0.dir/__/__/__/mesh/core/src/nrf_mesh_keygen.c.obj
 .comment       0x000000000000007e       0x7f CMakeFiles/light_switch_proxy_server_nrf52840_xxAA_s140_6.0.0.dir/__/__/__/mesh/core/src/cache.c.obj
 .comment       0x000000000000007e       0x7f CMakeFiles/light_switch_proxy_server_nrf52840_xxAA_s140_6.0.0.dir/__/__/__/mesh/core/src/list.c.obj
 .comment       0x000000000000007e       0x7f CMakeFiles/light_switch_proxy_server_nrf52840_xxAA_s140_6.0.0.dir/__/__/__/mesh/core/src/log.c.obj
 .comment       0x000000000000007e       0x7f CMakeFiles/light_switch_proxy_server_nrf52840_xxAA_s140_6.0.0.dir/__/__/__/mesh/core/src/flash_manager.c.obj
 .comment       0x000000000000007e       0x7f CMakeFiles/light_switch_proxy_server_nrf52840_xxAA_s140_6.0.0.dir/__/__/__/mesh/core/src/ccm_soft.c.obj
 .comment       0x000000000000007e       0x7f CMakeFiles/light_switch_proxy_server_nrf52840_xxAA_s140_6.0.0.dir/__/__/__/mesh/core/src/replay_cache.c.obj
 .comment       0x000000000000007e       0x7f CMakeFiles/light_switch_proxy_server_nrf52840_xxAA_s140_6.0.0.dir/__/__/__/mesh/core/src/beacon.c.obj
 .comment       0x000000000000007e       0x7f CMakeFiles/light_switch_proxy_server_nrf52840_xxAA_s140_6.0.0.dir/__/__/__/mesh/core/src/flash_manager_internal.c.obj
 .comment       0x000000000000007e       0x7f CMakeFiles/light_switch_proxy_server_nrf52840_xxAA_s140_6.0.0.dir/__/__/__/mesh/core/src/core_tx.c.obj
 .comment       0x000000000000007e       0x7f CMakeFiles/light_switch_proxy_server_nrf52840_xxAA_s140_6.0.0.dir/__/__/__/mesh/core/src/heartbeat.c.obj
 .comment       0x000000000000007e       0x7f CMakeFiles/light_switch_proxy_server_nrf52840_xxAA_s140_6.0.0.dir/__/__/__/mesh/core/src/net_beacon.c.obj
 .comment       0x000000000000007e       0x7f CMakeFiles/light_switch_proxy_server_nrf52840_xxAA_s140_6.0.0.dir/__/__/__/mesh/core/src/fsm.c.obj
 .comment       0x000000000000007e       0x7f CMakeFiles/light_switch_proxy_server_nrf52840_xxAA_s140_6.0.0.dir/__/__/__/mesh/core/src/core_tx_adv.c.obj
 .comment       0x000000000000007e       0x7f CMakeFiles/light_switch_proxy_server_nrf52840_xxAA_s140_6.0.0.dir/__/__/__/mesh/bearer/src/ad_listener.c.obj
 .comment       0x000000000000007e       0x7f CMakeFiles/light_switch_proxy_server_nrf52840_xxAA_s140_6.0.0.dir/__/__/__/mesh/bearer/src/ad_type_filter.c.obj
 .comment       0x000000000000007e       0x7f CMakeFiles/light_switch_proxy_server_nrf52840_xxAA_s140_6.0.0.dir/__/__/__/mesh/bearer/src/advertiser.c.obj
 .comment       0x000000000000007e       0x7f CMakeFiles/light_switch_proxy_server_nrf52840_xxAA_s140_6.0.0.dir/__/__/__/mesh/bearer/src/bearer_handler.c.obj
 .comment       0x000000000000007e       0x7f CMakeFiles/light_switch_proxy_server_nrf52840_xxAA_s140_6.0.0.dir/__/__/__/mesh/bearer/src/broadcast.c.obj
 .comment       0x000000000000007e       0x7f CMakeFiles/light_switch_proxy_server_nrf52840_xxAA_s140_6.0.0.dir/__/__/__/mesh/bearer/src/filter_engine.c.obj
 .comment       0x000000000000007e       0x7f CMakeFiles/light_switch_proxy_server_nrf52840_xxAA_s140_6.0.0.dir/__/__/__/mesh/bearer/src/radio_config.c.obj
 .comment       0x000000000000007e       0x7f CMakeFiles/light_switch_proxy_server_nrf52840_xxAA_s140_6.0.0.dir/__/__/__/mesh/bearer/src/scanner.c.obj
 .comment       0x000000000000007e       0x7f CMakeFiles/light_switch_proxy_server_nrf52840_xxAA_s140_6.0.0.dir/__/__/__/mesh/gatt/src/mesh_gatt.c.obj
 .comment       0x000000000000007e       0x7f CMakeFiles/light_switch_proxy_server_nrf52840_xxAA_s140_6.0.0.dir/__/__/__/mesh/gatt/src/proxy.c.obj
 .comment       0x000000000000007e       0x7f CMakeFiles/light_switch_proxy_server_nrf52840_xxAA_s140_6.0.0.dir/__/__/__/mesh/gatt/src/proxy_filter.c.obj
 .comment       0x000000000000007e       0x7f CMakeFiles/light_switch_proxy_server_nrf52840_xxAA_s140_6.0.0.dir/__/__/__/models/simple_on_off/src/simple_on_off_server.c.obj
 .comment       0x000000000000007e       0x7f CMakeFiles/light_switch_proxy_server_nrf52840_xxAA_s140_6.0.0.dir/__/__/__/models/config/src/composition_data.c.obj
 .comment       0x000000000000007e       0x7f CMakeFiles/light_switch_proxy_server_nrf52840_xxAA_s140_6.0.0.dir/__/__/__/models/config/src/config_server.c.obj
 .comment       0x000000000000007e       0x7f CMakeFiles/light_switch_proxy_server_nrf52840_xxAA_s140_6.0.0.dir/__/__/__/models/config/src/packed_index_list.c.obj
 .comment       0x000000000000007e       0x7f CMakeFiles/light_switch_proxy_server_nrf52840_xxAA_s140_6.0.0.dir/__/__/__/models/health/src/health_server.c.obj
 .comment       0x000000000000007e       0x7f CMakeFiles/light_switch_proxy_server_nrf52840_xxAA_s140_6.0.0.dir/__/__/__/mesh/access/src/access_publish.c.obj
 .comment       0x000000000000007e       0x7f CMakeFiles/light_switch_proxy_server_nrf52840_xxAA_s140_6.0.0.dir/__/__/__/mesh/access/src/access.c.obj
 .comment       0x000000000000007e       0x7f CMakeFiles/light_switch_proxy_server_nrf52840_xxAA_s140_6.0.0.dir/__/__/__/mesh/access/src/access_reliable.c.obj
 .comment       0x000000000000007e       0x7f CMakeFiles/light_switch_proxy_server_nrf52840_xxAA_s140_6.0.0.dir/__/__/__/mesh/access/src/device_state_manager.c.obj
 .comment       0x000000000000007e       0x7f CMakeFiles/light_switch_proxy_server_nrf52840_xxAA_s140_6.0.0.dir/__/__/__/mesh/prov/src/prov_provisionee.c.obj
 .comment       0x000000000000007e       0x7f CMakeFiles/light_switch_proxy_server_nrf52840_xxAA_s140_6.0.0.dir/__/__/__/mesh/prov/src/nrf_mesh_prov.c.obj
 .comment       0x000000000000007e       0x7f CMakeFiles/light_switch_proxy_server_nrf52840_xxAA_s140_6.0.0.dir/__/__/__/mesh/prov/src/provisioning.c.obj
 .comment       0x000000000000007e       0x7f CMakeFiles/light_switch_proxy_server_nrf52840_xxAA_s140_6.0.0.dir/__/__/__/mesh/prov/src/prov_beacon.c.obj
 .comment       0x000000000000007e       0x7f CMakeFiles/light_switch_proxy_server_nrf52840_xxAA_s140_6.0.0.dir/__/__/__/mesh/prov/src/prov_utils.c.obj
 .comment       0x000000000000007e       0x7f CMakeFiles/light_switch_proxy_server_nrf52840_xxAA_s140_6.0.0.dir/__/__/__/mesh/prov/src/prov_bearer_adv.c.obj
 .comment       0x000000000000007e       0x7f CMakeFiles/light_switch_proxy_server_nrf52840_xxAA_s140_6.0.0.dir/home/mazzer/work/nordic/sdk/nRF5_SDK_15.0.0/modules/nrfx/mdk/system_nrf52840.c.obj
 .comment       0x000000000000007e       0x7f CMakeFiles/light_switch_proxy_server_nrf52840_xxAA_s140_6.0.0.dir/home/mazzer/work/nordic/sdk/nRF5_SDK_15.0.0/components/libraries/util/app_error.c.obj
 .comment       0x000000000000007e       0x7f CMakeFiles/light_switch_proxy_server_nrf52840_xxAA_s140_6.0.0.dir/home/mazzer/work/nordic/sdk/nRF5_SDK_15.0.0/components/libraries/util/app_error_handler_gcc.c.obj
 .comment       0x000000000000007e       0x7f ../../../external/rtt/librtt_nrf52840_xxAA.a(SEGGER_RTT.c.obj)
 .comment       0x000000000000007e       0x7f ../../../external/rtt/librtt_nrf52840_xxAA.a(SEGGER_RTT_printf.c.obj)
 .comment       0x000000000000007e       0x7f ../../../external/micro-ecc/libuECC_nrf52840_xxAA.a(uECC.c.obj)

.debug_info     0x0000000000000000    0xac67c
 .debug_info    0x0000000000000000     0x320f CMakeFiles/light_switch_proxy_server_nrf52840_xxAA_s140_6.0.0.dir/src/main.c.obj
 .debug_info    0x000000000000320f     0x23b1 CMakeFiles/light_switch_proxy_server_nrf52840_xxAA_s140_6.0.0.dir/__/__/__/mesh/stack/src/mesh_stack.c.obj
 .debug_info    0x00000000000055c0     0x2903 CMakeFiles/light_switch_proxy_server_nrf52840_xxAA_s140_6.0.0.dir/__/__/common/src/mesh_provisionee.c.obj
 .debug_info    0x0000000000007ec3     0x118d CMakeFiles/light_switch_proxy_server_nrf52840_xxAA_s140_6.0.0.dir/__/__/common/src/rtt_input.c.obj
 .debug_info    0x0000000000009050     0x1596 CMakeFiles/light_switch_proxy_server_nrf52840_xxAA_s140_6.0.0.dir/__/__/common/src/simple_hal.c.obj
 .debug_info    0x000000000000a5e6      0xde0 CMakeFiles/light_switch_proxy_server_nrf52840_xxAA_s140_6.0.0.dir/__/__/common/src/mesh_app_utils.c.obj
 .debug_info    0x000000000000b3c6     0x12f7 CMakeFiles/light_switch_proxy_server_nrf52840_xxAA_s140_6.0.0.dir/__/__/common/src/mesh_adv.c.obj
 .debug_info    0x000000000000c6bd     0x2044 CMakeFiles/light_switch_proxy_server_nrf52840_xxAA_s140_6.0.0.dir/__/__/__/mesh/prov/src/nrf_mesh_prov_bearer_gatt.c.obj
 .debug_info    0x000000000000e701     0x11b9 CMakeFiles/light_switch_proxy_server_nrf52840_xxAA_s140_6.0.0.dir/home/mazzer/work/nordic/sdk/nRF5_SDK_15.0.0/components/libraries/util/app_util_platform.c.obj
 .debug_info    0x000000000000f8ba     0x23b1 CMakeFiles/light_switch_proxy_server_nrf52840_xxAA_s140_6.0.0.dir/home/mazzer/work/nordic/sdk/nRF5_SDK_15.0.0/components/ble/common/ble_advdata.c.obj
 .debug_info    0x0000000000011c6b      0xa1d CMakeFiles/light_switch_proxy_server_nrf52840_xxAA_s140_6.0.0.dir/home/mazzer/work/nordic/sdk/nRF5_SDK_15.0.0/components/libraries/experimental_section_vars/nrf_section_iter.c.obj
 .debug_info    0x0000000000012688     0x1cd0 CMakeFiles/light_switch_proxy_server_nrf52840_xxAA_s140_6.0.0.dir/home/mazzer/work/nordic/sdk/nRF5_SDK_15.0.0/components/softdevice/common/nrf_sdh.c.obj
 .debug_info    0x0000000000014358      0xdaf CMakeFiles/light_switch_proxy_server_nrf52840_xxAA_s140_6.0.0.dir/home/mazzer/work/nordic/sdk/nRF5_SDK_15.0.0/components/softdevice/common/nrf_sdh_soc.c.obj
 .debug_info    0x0000000000015107     0x2b98 CMakeFiles/light_switch_proxy_server_nrf52840_xxAA_s140_6.0.0.dir/home/mazzer/work/nordic/sdk/nRF5_SDK_15.0.0/components/softdevice/common/nrf_sdh_ble.c.obj
 .debug_info    0x0000000000017c9f      0x91d CMakeFiles/light_switch_proxy_server_nrf52840_xxAA_s140_6.0.0.dir/__/__/nrf_mesh_weak.c.obj
 .debug_info    0x00000000000185bc     0x1170 CMakeFiles/light_switch_proxy_server_nrf52840_xxAA_s140_6.0.0.dir/__/__/common/src/app_error_weak.c.obj
 .debug_info    0x000000000001972c      0x994 CMakeFiles/light_switch_proxy_server_nrf52840_xxAA_s140_6.0.0.dir/__/__/common/src/assertion_handler_weak.c.obj
 .debug_info    0x000000000001a0c0      0xdf8 CMakeFiles/light_switch_proxy_server_nrf52840_xxAA_s140_6.0.0.dir/__/__/__/mesh/core/src/nrf_mesh_configure.c.obj
 .debug_info    0x000000000001aeb8      0xbea CMakeFiles/light_switch_proxy_server_nrf52840_xxAA_s140_6.0.0.dir/__/__/__/mesh/core/src/aes.c.obj
 .debug_info    0x000000000001baa2      0xa51 CMakeFiles/light_switch_proxy_server_nrf52840_xxAA_s140_6.0.0.dir/__/__/__/mesh/core/src/msg_cache.c.obj
 .debug_info    0x000000000001c4f3     0x6191 CMakeFiles/light_switch_proxy_server_nrf52840_xxAA_s140_6.0.0.dir/__/__/__/mesh/core/src/transport.c.obj
 .debug_info    0x0000000000022684     0x1770 CMakeFiles/light_switch_proxy_server_nrf52840_xxAA_s140_6.0.0.dir/__/__/__/mesh/core/src/event.c.obj
 .debug_info    0x0000000000023df4     0x1aa3 CMakeFiles/light_switch_proxy_server_nrf52840_xxAA_s140_6.0.0.dir/__/__/__/mesh/core/src/packet_buffer.c.obj
 .debug_info    0x0000000000025897     0x24b1 CMakeFiles/light_switch_proxy_server_nrf52840_xxAA_s140_6.0.0.dir/__/__/__/mesh/core/src/flash_manager_defrag.c.obj
 .debug_info    0x0000000000027d48      0xd9a CMakeFiles/light_switch_proxy_server_nrf52840_xxAA_s140_6.0.0.dir/__/__/__/mesh/core/src/fifo.c.obj
 .debug_info    0x0000000000028ae2      0xb70 CMakeFiles/light_switch_proxy_server_nrf52840_xxAA_s140_6.0.0.dir/__/__/__/mesh/core/src/nrf_flash.c.obj
 .debug_info    0x0000000000029652     0x118f CMakeFiles/light_switch_proxy_server_nrf52840_xxAA_s140_6.0.0.dir/__/__/__/mesh/core/src/packet_mgr.c.obj
 .debug_info    0x000000000002a7e1     0x3742 CMakeFiles/light_switch_proxy_server_nrf52840_xxAA_s140_6.0.0.dir/__/__/__/mesh/core/src/net_state.c.obj
 .debug_info    0x000000000002df23     0x1be8 CMakeFiles/light_switch_proxy_server_nrf52840_xxAA_s140_6.0.0.dir/__/__/__/mesh/core/src/mesh_flash.c.obj
 .debug_info    0x000000000002fb0b      0xa72 CMakeFiles/light_switch_proxy_server_nrf52840_xxAA_s140_6.0.0.dir/__/__/__/mesh/core/src/nrf_mesh_utils.c.obj
 .debug_info    0x000000000003057d     0x26a5 CMakeFiles/light_switch_proxy_server_nrf52840_xxAA_s140_6.0.0.dir/__/__/__/mesh/core/src/nrf_mesh.c.obj
 .debug_info    0x0000000000032c22      0xb10 CMakeFiles/light_switch_proxy_server_nrf52840_xxAA_s140_6.0.0.dir/__/__/__/mesh/core/src/queue.c.obj
 .debug_info    0x0000000000033732      0x514 CMakeFiles/light_switch_proxy_server_nrf52840_xxAA_s140_6.0.0.dir/__/__/__/mesh/core/src/hal.c.obj
 .debug_info    0x0000000000033c46      0xe8f CMakeFiles/light_switch_proxy_server_nrf52840_xxAA_s140_6.0.0.dir/__/__/__/mesh/core/src/aes_cmac.c.obj
 .debug_info    0x0000000000034ad5     0x13bd CMakeFiles/light_switch_proxy_server_nrf52840_xxAA_s140_6.0.0.dir/__/__/__/mesh/core/src/timer_scheduler.c.obj
 .debug_info    0x0000000000035e92      0xe1e CMakeFiles/light_switch_proxy_server_nrf52840_xxAA_s140_6.0.0.dir/__/__/__/mesh/core/src/timer.c.obj
 .debug_info    0x0000000000036cb0      0x20c CMakeFiles/light_switch_proxy_server_nrf52840_xxAA_s140_6.0.0.dir/__/__/__/mesh/core/src/ticker.c.obj
 .debug_info    0x0000000000036ebc      0x4d4 CMakeFiles/light_switch_proxy_server_nrf52840_xxAA_s140_6.0.0.dir/__/__/__/mesh/core/src/rand.c.obj
 .debug_info    0x0000000000037390      0xaef CMakeFiles/light_switch_proxy_server_nrf52840_xxAA_s140_6.0.0.dir/__/__/__/mesh/core/src/nrf_mesh_opt.c.obj
 .debug_info    0x0000000000037e7f     0x1c1b CMakeFiles/light_switch_proxy_server_nrf52840_xxAA_s140_6.0.0.dir/__/__/__/mesh/core/src/timeslot.c.obj
 .debug_info    0x0000000000039a9a     0x1c9f CMakeFiles/light_switch_proxy_server_nrf52840_xxAA_s140_6.0.0.dir/__/__/__/mesh/core/src/bearer_event.c.obj
 .debug_info    0x000000000003b739     0x181f CMakeFiles/light_switch_proxy_server_nrf52840_xxAA_s140_6.0.0.dir/__/__/__/mesh/core/src/enc.c.obj
 .debug_info    0x000000000003cf58     0x1ce6 CMakeFiles/light_switch_proxy_server_nrf52840_xxAA_s140_6.0.0.dir/__/__/__/mesh/core/src/network.c.obj
 .debug_info    0x000000000003ec3e     0x1de3 CMakeFiles/light_switch_proxy_server_nrf52840_xxAA_s140_6.0.0.dir/__/__/__/mesh/core/src/net_packet.c.obj
 .debug_info    0x0000000000040a21      0xe51 CMakeFiles/light_switch_proxy_server_nrf52840_xxAA_s140_6.0.0.dir/__/__/__/mesh/core/src/msqueue.c.obj
 .debug_info    0x0000000000041872      0x4cd CMakeFiles/light_switch_proxy_server_nrf52840_xxAA_s140_6.0.0.dir/__/__/__/mesh/core/src/nrf_mesh_keygen.c.obj
 .debug_info    0x0000000000041d3f      0xbf9 CMakeFiles/light_switch_proxy_server_nrf52840_xxAA_s140_6.0.0.dir/__/__/__/mesh/core/src/cache.c.obj
 .debug_info    0x0000000000042938      0x573 CMakeFiles/light_switch_proxy_server_nrf52840_xxAA_s140_6.0.0.dir/__/__/__/mesh/core/src/list.c.obj
 .debug_info    0x0000000000042eab      0xe8b CMakeFiles/light_switch_proxy_server_nrf52840_xxAA_s140_6.0.0.dir/__/__/__/mesh/core/src/log.c.obj
 .debug_info    0x0000000000043d36     0x3cc6 CMakeFiles/light_switch_proxy_server_nrf52840_xxAA_s140_6.0.0.dir/__/__/__/mesh/core/src/flash_manager.c.obj
 .debug_info    0x00000000000479fc     0x120f CMakeFiles/light_switch_proxy_server_nrf52840_xxAA_s140_6.0.0.dir/__/__/__/mesh/core/src/ccm_soft.c.obj
 .debug_info    0x0000000000048c0b      0xa87 CMakeFiles/light_switch_proxy_server_nrf52840_xxAA_s140_6.0.0.dir/__/__/__/mesh/core/src/replay_cache.c.obj
 .debug_info    0x0000000000049692     0x17c2 CMakeFiles/light_switch_proxy_server_nrf52840_xxAA_s140_6.0.0.dir/__/__/__/mesh/core/src/beacon.c.obj
 .debug_info    0x000000000004ae54      0xb98 CMakeFiles/light_switch_proxy_server_nrf52840_xxAA_s140_6.0.0.dir/__/__/__/mesh/core/src/flash_manager_internal.c.obj
 .debug_info    0x000000000004b9ec     0x1264 CMakeFiles/light_switch_proxy_server_nrf52840_xxAA_s140_6.0.0.dir/__/__/__/mesh/core/src/core_tx.c.obj
 .debug_info    0x000000000004cc50     0x24f4 CMakeFiles/light_switch_proxy_server_nrf52840_xxAA_s140_6.0.0.dir/__/__/__/mesh/core/src/heartbeat.c.obj
 .debug_info    0x000000000004f144     0x2a49 CMakeFiles/light_switch_proxy_server_nrf52840_xxAA_s140_6.0.0.dir/__/__/__/mesh/core/src/net_beacon.c.obj
 .debug_info    0x0000000000051b8d     0x13e3 CMakeFiles/light_switch_proxy_server_nrf52840_xxAA_s140_6.0.0.dir/__/__/__/mesh/core/src/fsm.c.obj
 .debug_info    0x0000000000052f70     0x197e CMakeFiles/light_switch_proxy_server_nrf52840_xxAA_s140_6.0.0.dir/__/__/__/mesh/core/src/core_tx_adv.c.obj
 .debug_info    0x00000000000548ee     0x116a CMakeFiles/light_switch_proxy_server_nrf52840_xxAA_s140_6.0.0.dir/__/__/__/mesh/bearer/src/ad_listener.c.obj
 .debug_info    0x0000000000055a58      0xfc4 CMakeFiles/light_switch_proxy_server_nrf52840_xxAA_s140_6.0.0.dir/__/__/__/mesh/bearer/src/ad_type_filter.c.obj
 .debug_info    0x0000000000056a1c     0x2af6 CMakeFiles/light_switch_proxy_server_nrf52840_xxAA_s140_6.0.0.dir/__/__/__/mesh/bearer/src/advertiser.c.obj
 .debug_info    0x0000000000059512     0x1bad CMakeFiles/light_switch_proxy_server_nrf52840_xxAA_s140_6.0.0.dir/__/__/__/mesh/bearer/src/bearer_handler.c.obj
 .debug_info    0x000000000005b0bf     0x1af7 CMakeFiles/light_switch_proxy_server_nrf52840_xxAA_s140_6.0.0.dir/__/__/__/mesh/bearer/src/broadcast.c.obj
 .debug_info    0x000000000005cbb6      0xd3e CMakeFiles/light_switch_proxy_server_nrf52840_xxAA_s140_6.0.0.dir/__/__/__/mesh/bearer/src/filter_engine.c.obj
 .debug_info    0x000000000005d8f4      0xa28 CMakeFiles/light_switch_proxy_server_nrf52840_xxAA_s140_6.0.0.dir/__/__/__/mesh/bearer/src/radio_config.c.obj
 .debug_info    0x000000000005e31c     0x2df8 CMakeFiles/light_switch_proxy_server_nrf52840_xxAA_s140_6.0.0.dir/__/__/__/mesh/bearer/src/scanner.c.obj
 .debug_info    0x0000000000061114     0x4aa5 CMakeFiles/light_switch_proxy_server_nrf52840_xxAA_s140_6.0.0.dir/__/__/__/mesh/gatt/src/mesh_gatt.c.obj
 .debug_info    0x0000000000065bb9     0x535c CMakeFiles/light_switch_proxy_server_nrf52840_xxAA_s140_6.0.0.dir/__/__/__/mesh/gatt/src/proxy.c.obj
 .debug_info    0x000000000006af15      0x4aa CMakeFiles/light_switch_proxy_server_nrf52840_xxAA_s140_6.0.0.dir/__/__/__/mesh/gatt/src/proxy_filter.c.obj
 .debug_info    0x000000000006b3bf      0xbfb CMakeFiles/light_switch_proxy_server_nrf52840_xxAA_s140_6.0.0.dir/__/__/__/models/simple_on_off/src/simple_on_off_server.c.obj
 .debug_info    0x000000000006bfba      0xee0 CMakeFiles/light_switch_proxy_server_nrf52840_xxAA_s140_6.0.0.dir/__/__/__/models/config/src/composition_data.c.obj
 .debug_info    0x000000000006ce9a     0xc4b4 CMakeFiles/light_switch_proxy_server_nrf52840_xxAA_s140_6.0.0.dir/__/__/__/models/config/src/config_server.c.obj
 .debug_info    0x000000000007934e      0x126 CMakeFiles/light_switch_proxy_server_nrf52840_xxAA_s140_6.0.0.dir/__/__/__/models/config/src/packed_index_list.c.obj
 .debug_info    0x0000000000079474     0x2e65 CMakeFiles/light_switch_proxy_server_nrf52840_xxAA_s140_6.0.0.dir/__/__/__/models/health/src/health_server.c.obj
 .debug_info    0x000000000007c2d9     0x12cf CMakeFiles/light_switch_proxy_server_nrf52840_xxAA_s140_6.0.0.dir/__/__/__/mesh/access/src/access_publish.c.obj
 .debug_info    0x000000000007d5a8     0x55cb CMakeFiles/light_switch_proxy_server_nrf52840_xxAA_s140_6.0.0.dir/__/__/__/mesh/access/src/access.c.obj
 .debug_info    0x0000000000082b73     0x1b15 CMakeFiles/light_switch_proxy_server_nrf52840_xxAA_s140_6.0.0.dir/__/__/__/mesh/access/src/access_reliable.c.obj
 .debug_info    0x0000000000084688     0x95a3 CMakeFiles/light_switch_proxy_server_nrf52840_xxAA_s140_6.0.0.dir/__/__/__/mesh/access/src/device_state_manager.c.obj
 .debug_info    0x000000000008dc2b     0x2c7b CMakeFiles/light_switch_proxy_server_nrf52840_xxAA_s140_6.0.0.dir/__/__/__/mesh/prov/src/prov_provisionee.c.obj
 .debug_info    0x00000000000908a6     0x1fa2 CMakeFiles/light_switch_proxy_server_nrf52840_xxAA_s140_6.0.0.dir/__/__/__/mesh/prov/src/nrf_mesh_prov.c.obj
 .debug_info    0x0000000000092848     0x18dc CMakeFiles/light_switch_proxy_server_nrf52840_xxAA_s140_6.0.0.dir/__/__/__/mesh/prov/src/provisioning.c.obj
 .debug_info    0x0000000000094124     0x1a93 CMakeFiles/light_switch_proxy_server_nrf52840_xxAA_s140_6.0.0.dir/__/__/__/mesh/prov/src/prov_beacon.c.obj
 .debug_info    0x0000000000095bb7     0x2108 CMakeFiles/light_switch_proxy_server_nrf52840_xxAA_s140_6.0.0.dir/__/__/__/mesh/prov/src/prov_utils.c.obj
 .debug_info    0x0000000000097cbf     0x4a03 CMakeFiles/light_switch_proxy_server_nrf52840_xxAA_s140_6.0.0.dir/__/__/__/mesh/prov/src/prov_bearer_adv.c.obj
 .debug_info    0x000000000009c6c2     0x137d CMakeFiles/light_switch_proxy_server_nrf52840_xxAA_s140_6.0.0.dir/home/mazzer/work/nordic/sdk/nRF5_SDK_15.0.0/modules/nrfx/mdk/system_nrf52840.c.obj
 .debug_info    0x000000000009da3f       0x26 CMakeFiles/light_switch_proxy_server_nrf52840_xxAA_s140_6.0.0.dir/home/mazzer/work/nordic/sdk/nRF5_SDK_15.0.0/modules/nrfx/mdk/gcc_startup_nrf52840.S.obj
 .debug_info    0x000000000009da65      0xae7 CMakeFiles/light_switch_proxy_server_nrf52840_xxAA_s140_6.0.0.dir/home/mazzer/work/nordic/sdk/nRF5_SDK_15.0.0/components/libraries/util/app_error.c.obj
 .debug_info    0x000000000009e54c      0x96d CMakeFiles/light_switch_proxy_server_nrf52840_xxAA_s140_6.0.0.dir/home/mazzer/work/nordic/sdk/nRF5_SDK_15.0.0/components/libraries/util/app_error_handler_gcc.c.obj
 .debug_info    0x000000000009eeb9     0x2b01 ../../../external/rtt/librtt_nrf52840_xxAA.a(SEGGER_RTT.c.obj)
 .debug_info    0x00000000000a19ba     0x11e1 ../../../external/rtt/librtt_nrf52840_xxAA.a(SEGGER_RTT_printf.c.obj)
 .debug_info    0x00000000000a2b9b     0x9ae1 ../../../external/micro-ecc/libuECC_nrf52840_xxAA.a(uECC.c.obj)

.debug_abbrev   0x0000000000000000    0x14133
 .debug_abbrev  0x0000000000000000      0x593 CMakeFiles/light_switch_proxy_server_nrf52840_xxAA_s140_6.0.0.dir/src/main.c.obj
 .debug_abbrev  0x0000000000000593      0x3cd CMakeFiles/light_switch_proxy_server_nrf52840_xxAA_s140_6.0.0.dir/__/__/__/mesh/stack/src/mesh_stack.c.obj
 .debug_abbrev  0x0000000000000960      0x3f2 CMakeFiles/light_switch_proxy_server_nrf52840_xxAA_s140_6.0.0.dir/__/__/common/src/mesh_provisionee.c.obj
 .debug_abbrev  0x0000000000000d52      0x2ba CMakeFiles/light_switch_proxy_server_nrf52840_xxAA_s140_6.0.0.dir/__/__/common/src/rtt_input.c.obj
 .debug_abbrev  0x000000000000100c      0x372 CMakeFiles/light_switch_proxy_server_nrf52840_xxAA_s140_6.0.0.dir/__/__/common/src/simple_hal.c.obj
 .debug_abbrev  0x000000000000137e      0x22a CMakeFiles/light_switch_proxy_server_nrf52840_xxAA_s140_6.0.0.dir/__/__/common/src/mesh_app_utils.c.obj
 .debug_abbrev  0x00000000000015a8      0x2de CMakeFiles/light_switch_proxy_server_nrf52840_xxAA_s140_6.0.0.dir/__/__/common/src/mesh_adv.c.obj
 .debug_abbrev  0x0000000000001886      0x4b3 CMakeFiles/light_switch_proxy_server_nrf52840_xxAA_s140_6.0.0.dir/__/__/__/mesh/prov/src/nrf_mesh_prov_bearer_gatt.c.obj
 .debug_abbrev  0x0000000000001d39      0x37e CMakeFiles/light_switch_proxy_server_nrf52840_xxAA_s140_6.0.0.dir/home/mazzer/work/nordic/sdk/nRF5_SDK_15.0.0/components/libraries/util/app_util_platform.c.obj
 .debug_abbrev  0x00000000000020b7      0x455 CMakeFiles/light_switch_proxy_server_nrf52840_xxAA_s140_6.0.0.dir/home/mazzer/work/nordic/sdk/nRF5_SDK_15.0.0/components/ble/common/ble_advdata.c.obj
 .debug_abbrev  0x000000000000250c      0x1d7 CMakeFiles/light_switch_proxy_server_nrf52840_xxAA_s140_6.0.0.dir/home/mazzer/work/nordic/sdk/nRF5_SDK_15.0.0/components/libraries/experimental_section_vars/nrf_section_iter.c.obj
 .debug_abbrev  0x00000000000026e3      0x4fe CMakeFiles/light_switch_proxy_server_nrf52840_xxAA_s140_6.0.0.dir/home/mazzer/work/nordic/sdk/nRF5_SDK_15.0.0/components/softdevice/common/nrf_sdh.c.obj
 .debug_abbrev  0x0000000000002be1      0x2b2 CMakeFiles/light_switch_proxy_server_nrf52840_xxAA_s140_6.0.0.dir/home/mazzer/work/nordic/sdk/nRF5_SDK_15.0.0/components/softdevice/common/nrf_sdh_soc.c.obj
 .debug_abbrev  0x0000000000002e93      0x3fe CMakeFiles/light_switch_proxy_server_nrf52840_xxAA_s140_6.0.0.dir/home/mazzer/work/nordic/sdk/nRF5_SDK_15.0.0/components/softdevice/common/nrf_sdh_ble.c.obj
 .debug_abbrev  0x0000000000003291      0x1ae CMakeFiles/light_switch_proxy_server_nrf52840_xxAA_s140_6.0.0.dir/__/__/nrf_mesh_weak.c.obj
 .debug_abbrev  0x000000000000343f      0x2d5 CMakeFiles/light_switch_proxy_server_nrf52840_xxAA_s140_6.0.0.dir/__/__/common/src/app_error_weak.c.obj
 .debug_abbrev  0x0000000000003714      0x1f6 CMakeFiles/light_switch_proxy_server_nrf52840_xxAA_s140_6.0.0.dir/__/__/common/src/assertion_handler_weak.c.obj
 .debug_abbrev  0x000000000000390a      0x254 CMakeFiles/light_switch_proxy_server_nrf52840_xxAA_s140_6.0.0.dir/__/__/__/mesh/core/src/nrf_mesh_configure.c.obj
 .debug_abbrev  0x0000000000003b5e      0x266 CMakeFiles/light_switch_proxy_server_nrf52840_xxAA_s140_6.0.0.dir/__/__/__/mesh/core/src/aes.c.obj
 .debug_abbrev  0x0000000000003dc4      0x24e CMakeFiles/light_switch_proxy_server_nrf52840_xxAA_s140_6.0.0.dir/__/__/__/mesh/core/src/msg_cache.c.obj
 .debug_abbrev  0x0000000000004012      0x5f7 CMakeFiles/light_switch_proxy_server_nrf52840_xxAA_s140_6.0.0.dir/__/__/__/mesh/core/src/transport.c.obj
 .debug_abbrev  0x0000000000004609      0x2d2 CMakeFiles/light_switch_proxy_server_nrf52840_xxAA_s140_6.0.0.dir/__/__/__/mesh/core/src/event.c.obj
 .debug_abbrev  0x00000000000048db      0x455 CMakeFiles/light_switch_proxy_server_nrf52840_xxAA_s140_6.0.0.dir/__/__/__/mesh/core/src/packet_buffer.c.obj
 .debug_abbrev  0x0000000000004d30      0x526 CMakeFiles/light_switch_proxy_server_nrf52840_xxAA_s140_6.0.0.dir/__/__/__/mesh/core/src/flash_manager_defrag.c.obj
 .debug_abbrev  0x0000000000005256      0x2fc CMakeFiles/light_switch_proxy_server_nrf52840_xxAA_s140_6.0.0.dir/__/__/__/mesh/core/src/fifo.c.obj
 .debug_abbrev  0x0000000000005552      0x22d CMakeFiles/light_switch_proxy_server_nrf52840_xxAA_s140_6.0.0.dir/__/__/__/mesh/core/src/nrf_flash.c.obj
 .debug_abbrev  0x000000000000577f      0x3bf CMakeFiles/light_switch_proxy_server_nrf52840_xxAA_s140_6.0.0.dir/__/__/__/mesh/core/src/packet_mgr.c.obj
 .debug_abbrev  0x0000000000005b3e      0x5a6 CMakeFiles/light_switch_proxy_server_nrf52840_xxAA_s140_6.0.0.dir/__/__/__/mesh/core/src/net_state.c.obj
 .debug_abbrev  0x00000000000060e4      0x467 CMakeFiles/light_switch_proxy_server_nrf52840_xxAA_s140_6.0.0.dir/__/__/__/mesh/core/src/mesh_flash.c.obj
 .debug_abbrev  0x000000000000654b      0x244 CMakeFiles/light_switch_proxy_server_nrf52840_xxAA_s140_6.0.0.dir/__/__/__/mesh/core/src/nrf_mesh_utils.c.obj
 .debug_abbrev  0x000000000000678f      0x47a CMakeFiles/light_switch_proxy_server_nrf52840_xxAA_s140_6.0.0.dir/__/__/__/mesh/core/src/nrf_mesh.c.obj
 .debug_abbrev  0x0000000000006c09      0x247 CMakeFiles/light_switch_proxy_server_nrf52840_xxAA_s140_6.0.0.dir/__/__/__/mesh/core/src/queue.c.obj
 .debug_abbrev  0x0000000000006e50      0x1d1 CMakeFiles/light_switch_proxy_server_nrf52840_xxAA_s140_6.0.0.dir/__/__/__/mesh/core/src/hal.c.obj
 .debug_abbrev  0x0000000000007021      0x2e3 CMakeFiles/light_switch_proxy_server_nrf52840_xxAA_s140_6.0.0.dir/__/__/__/mesh/core/src/aes_cmac.c.obj
 .debug_abbrev  0x0000000000007304      0x3f7 CMakeFiles/light_switch_proxy_server_nrf52840_xxAA_s140_6.0.0.dir/__/__/__/mesh/core/src/timer_scheduler.c.obj
 .debug_abbrev  0x00000000000076fb      0x378 CMakeFiles/light_switch_proxy_server_nrf52840_xxAA_s140_6.0.0.dir/__/__/__/mesh/core/src/timer.c.obj
 .debug_abbrev  0x0000000000007a73      0x154 CMakeFiles/light_switch_proxy_server_nrf52840_xxAA_s140_6.0.0.dir/__/__/__/mesh/core/src/ticker.c.obj
 .debug_abbrev  0x0000000000007bc7      0x22e CMakeFiles/light_switch_proxy_server_nrf52840_xxAA_s140_6.0.0.dir/__/__/__/mesh/core/src/rand.c.obj
 .debug_abbrev  0x0000000000007df5      0x24c CMakeFiles/light_switch_proxy_server_nrf52840_xxAA_s140_6.0.0.dir/__/__/__/mesh/core/src/nrf_mesh_opt.c.obj
 .debug_abbrev  0x0000000000008041      0x4e5 CMakeFiles/light_switch_proxy_server_nrf52840_xxAA_s140_6.0.0.dir/__/__/__/mesh/core/src/timeslot.c.obj
 .debug_abbrev  0x0000000000008526      0x4f9 CMakeFiles/light_switch_proxy_server_nrf52840_xxAA_s140_6.0.0.dir/__/__/__/mesh/core/src/bearer_event.c.obj
 .debug_abbrev  0x0000000000008a1f      0x39b CMakeFiles/light_switch_proxy_server_nrf52840_xxAA_s140_6.0.0.dir/__/__/__/mesh/core/src/enc.c.obj
 .debug_abbrev  0x0000000000008dba      0x4e2 CMakeFiles/light_switch_proxy_server_nrf52840_xxAA_s140_6.0.0.dir/__/__/__/mesh/core/src/network.c.obj
 .debug_abbrev  0x000000000000929c      0x4a1 CMakeFiles/light_switch_proxy_server_nrf52840_xxAA_s140_6.0.0.dir/__/__/__/mesh/core/src/net_packet.c.obj
 .debug_abbrev  0x000000000000973d      0x2e9 CMakeFiles/light_switch_proxy_server_nrf52840_xxAA_s140_6.0.0.dir/__/__/__/mesh/core/src/msqueue.c.obj
 .debug_abbrev  0x0000000000009a26      0x156 CMakeFiles/light_switch_proxy_server_nrf52840_xxAA_s140_6.0.0.dir/__/__/__/mesh/core/src/nrf_mesh_keygen.c.obj
 .debug_abbrev  0x0000000000009b7c      0x2e2 CMakeFiles/light_switch_proxy_server_nrf52840_xxAA_s140_6.0.0.dir/__/__/__/mesh/core/src/cache.c.obj
 .debug_abbrev  0x0000000000009e5e      0x1ec CMakeFiles/light_switch_proxy_server_nrf52840_xxAA_s140_6.0.0.dir/__/__/__/mesh/core/src/list.c.obj
 .debug_abbrev  0x000000000000a04a      0x2b4 CMakeFiles/light_switch_proxy_server_nrf52840_xxAA_s140_6.0.0.dir/__/__/__/mesh/core/src/log.c.obj
 .debug_abbrev  0x000000000000a2fe      0x538 CMakeFiles/light_switch_proxy_server_nrf52840_xxAA_s140_6.0.0.dir/__/__/__/mesh/core/src/flash_manager.c.obj
 .debug_abbrev  0x000000000000a836      0x2f5 CMakeFiles/light_switch_proxy_server_nrf52840_xxAA_s140_6.0.0.dir/__/__/__/mesh/core/src/ccm_soft.c.obj
 .debug_abbrev  0x000000000000ab2b      0x29b CMakeFiles/light_switch_proxy_server_nrf52840_xxAA_s140_6.0.0.dir/__/__/__/mesh/core/src/replay_cache.c.obj
 .debug_abbrev  0x000000000000adc6      0x310 CMakeFiles/light_switch_proxy_server_nrf52840_xxAA_s140_6.0.0.dir/__/__/__/mesh/core/src/beacon.c.obj
 .debug_abbrev  0x000000000000b0d6      0x2a4 CMakeFiles/light_switch_proxy_server_nrf52840_xxAA_s140_6.0.0.dir/__/__/__/mesh/core/src/flash_manager_internal.c.obj
 .debug_abbrev  0x000000000000b37a      0x2fc CMakeFiles/light_switch_proxy_server_nrf52840_xxAA_s140_6.0.0.dir/__/__/__/mesh/core/src/core_tx.c.obj
 .debug_abbrev  0x000000000000b676      0x4e3 CMakeFiles/light_switch_proxy_server_nrf52840_xxAA_s140_6.0.0.dir/__/__/__/mesh/core/src/heartbeat.c.obj
 .debug_abbrev  0x000000000000bb59      0x512 CMakeFiles/light_switch_proxy_server_nrf52840_xxAA_s140_6.0.0.dir/__/__/__/mesh/core/src/net_beacon.c.obj
 .debug_abbrev  0x000000000000c06b      0x35d CMakeFiles/light_switch_proxy_server_nrf52840_xxAA_s140_6.0.0.dir/__/__/__/mesh/core/src/fsm.c.obj
 .debug_abbrev  0x000000000000c3c8      0x330 CMakeFiles/light_switch_proxy_server_nrf52840_xxAA_s140_6.0.0.dir/__/__/__/mesh/core/src/core_tx_adv.c.obj
 .debug_abbrev  0x000000000000c6f8      0x340 CMakeFiles/light_switch_proxy_server_nrf52840_xxAA_s140_6.0.0.dir/__/__/__/mesh/bearer/src/ad_listener.c.obj
 .debug_abbrev  0x000000000000ca38      0x375 CMakeFiles/light_switch_proxy_server_nrf52840_xxAA_s140_6.0.0.dir/__/__/__/mesh/bearer/src/ad_type_filter.c.obj
 .debug_abbrev  0x000000000000cdad      0x56a CMakeFiles/light_switch_proxy_server_nrf52840_xxAA_s140_6.0.0.dir/__/__/__/mesh/bearer/src/advertiser.c.obj
 .debug_abbrev  0x000000000000d317      0x3fa CMakeFiles/light_switch_proxy_server_nrf52840_xxAA_s140_6.0.0.dir/__/__/__/mesh/bearer/src/bearer_handler.c.obj
 .debug_abbrev  0x000000000000d711      0x3eb CMakeFiles/light_switch_proxy_server_nrf52840_xxAA_s140_6.0.0.dir/__/__/__/mesh/bearer/src/broadcast.c.obj
 .debug_abbrev  0x000000000000dafc      0x2af CMakeFiles/light_switch_proxy_server_nrf52840_xxAA_s140_6.0.0.dir/__/__/__/mesh/bearer/src/filter_engine.c.obj
 .debug_abbrev  0x000000000000ddab      0x1e4 CMakeFiles/light_switch_proxy_server_nrf52840_xxAA_s140_6.0.0.dir/__/__/__/mesh/bearer/src/radio_config.c.obj
 .debug_abbrev  0x000000000000df8f      0x59f CMakeFiles/light_switch_proxy_server_nrf52840_xxAA_s140_6.0.0.dir/__/__/__/mesh/bearer/src/scanner.c.obj
 .debug_abbrev  0x000000000000e52e      0x544 CMakeFiles/light_switch_proxy_server_nrf52840_xxAA_s140_6.0.0.dir/__/__/__/mesh/gatt/src/mesh_gatt.c.obj
 .debug_abbrev  0x000000000000ea72      0x56a CMakeFiles/light_switch_proxy_server_nrf52840_xxAA_s140_6.0.0.dir/__/__/__/mesh/gatt/src/proxy.c.obj
 .debug_abbrev  0x000000000000efdc      0x202 CMakeFiles/light_switch_proxy_server_nrf52840_xxAA_s140_6.0.0.dir/__/__/__/mesh/gatt/src/proxy_filter.c.obj
 .debug_abbrev  0x000000000000f1de      0x2d3 CMakeFiles/light_switch_proxy_server_nrf52840_xxAA_s140_6.0.0.dir/__/__/__/models/simple_on_off/src/simple_on_off_server.c.obj
 .debug_abbrev  0x000000000000f4b1      0x2e4 CMakeFiles/light_switch_proxy_server_nrf52840_xxAA_s140_6.0.0.dir/__/__/__/models/config/src/composition_data.c.obj
 .debug_abbrev  0x000000000000f795      0x56c CMakeFiles/light_switch_proxy_server_nrf52840_xxAA_s140_6.0.0.dir/__/__/__/models/config/src/config_server.c.obj
 .debug_abbrev  0x000000000000fd01       0x95 CMakeFiles/light_switch_proxy_server_nrf52840_xxAA_s140_6.0.0.dir/__/__/__/models/config/src/packed_index_list.c.obj
 .debug_abbrev  0x000000000000fd96      0x505 CMakeFiles/light_switch_proxy_server_nrf52840_xxAA_s140_6.0.0.dir/__/__/__/models/health/src/health_server.c.obj
 .debug_abbrev  0x000000000001029b      0x423 CMakeFiles/light_switch_proxy_server_nrf52840_xxAA_s140_6.0.0.dir/__/__/__/mesh/access/src/access_publish.c.obj
 .debug_abbrev  0x00000000000106be      0x67c CMakeFiles/light_switch_proxy_server_nrf52840_xxAA_s140_6.0.0.dir/__/__/__/mesh/access/src/access.c.obj
 .debug_abbrev  0x0000000000010d3a      0x448 CMakeFiles/light_switch_proxy_server_nrf52840_xxAA_s140_6.0.0.dir/__/__/__/mesh/access/src/access_reliable.c.obj
 .debug_abbrev  0x0000000000011182      0x5bf CMakeFiles/light_switch_proxy_server_nrf52840_xxAA_s140_6.0.0.dir/__/__/__/mesh/access/src/device_state_manager.c.obj
 .debug_abbrev  0x0000000000011741      0x47e CMakeFiles/light_switch_proxy_server_nrf52840_xxAA_s140_6.0.0.dir/__/__/__/mesh/prov/src/prov_provisionee.c.obj
 .debug_abbrev  0x0000000000011bbf      0x450 CMakeFiles/light_switch_proxy_server_nrf52840_xxAA_s140_6.0.0.dir/__/__/__/mesh/prov/src/nrf_mesh_prov.c.obj
 .debug_abbrev  0x000000000001200f      0x2e6 CMakeFiles/light_switch_proxy_server_nrf52840_xxAA_s140_6.0.0.dir/__/__/__/mesh/prov/src/provisioning.c.obj
 .debug_abbrev  0x00000000000122f5      0x2fc CMakeFiles/light_switch_proxy_server_nrf52840_xxAA_s140_6.0.0.dir/__/__/__/mesh/prov/src/prov_beacon.c.obj
 .debug_abbrev  0x00000000000125f1      0x3f3 CMakeFiles/light_switch_proxy_server_nrf52840_xxAA_s140_6.0.0.dir/__/__/__/mesh/prov/src/prov_utils.c.obj
 .debug_abbrev  0x00000000000129e4      0x55d CMakeFiles/light_switch_proxy_server_nrf52840_xxAA_s140_6.0.0.dir/__/__/__/mesh/prov/src/prov_bearer_adv.c.obj
 .debug_abbrev  0x0000000000012f41      0x1e8 CMakeFiles/light_switch_proxy_server_nrf52840_xxAA_s140_6.0.0.dir/home/mazzer/work/nordic/sdk/nRF5_SDK_15.0.0/modules/nrfx/mdk/system_nrf52840.c.obj
 .debug_abbrev  0x0000000000013129       0x14 CMakeFiles/light_switch_proxy_server_nrf52840_xxAA_s140_6.0.0.dir/home/mazzer/work/nordic/sdk/nRF5_SDK_15.0.0/modules/nrfx/mdk/gcc_startup_nrf52840.S.obj
 .debug_abbrev  0x000000000001313d      0x232 CMakeFiles/light_switch_proxy_server_nrf52840_xxAA_s140_6.0.0.dir/home/mazzer/work/nordic/sdk/nRF5_SDK_15.0.0/components/libraries/util/app_error.c.obj
 .debug_abbrev  0x000000000001336f      0x1bd CMakeFiles/light_switch_proxy_server_nrf52840_xxAA_s140_6.0.0.dir/home/mazzer/work/nordic/sdk/nRF5_SDK_15.0.0/components/libraries/util/app_error_handler_gcc.c.obj
 .debug_abbrev  0x000000000001352c      0x3d2 ../../../external/rtt/librtt_nrf52840_xxAA.a(SEGGER_RTT.c.obj)
 .debug_abbrev  0x00000000000138fe      0x353 ../../../external/rtt/librtt_nrf52840_xxAA.a(SEGGER_RTT_printf.c.obj)
 .debug_abbrev  0x0000000000013c51      0x4e2 ../../../external/micro-ecc/libuECC_nrf52840_xxAA.a(uECC.c.obj)

.debug_loc      0x0000000000000000    0x4f38b
 .debug_loc     0x0000000000000000      0x83f CMakeFiles/light_switch_proxy_server_nrf52840_xxAA_s140_6.0.0.dir/src/main.c.obj
 .debug_loc     0x000000000000083f      0x1b9 CMakeFiles/light_switch_proxy_server_nrf52840_xxAA_s140_6.0.0.dir/__/__/__/mesh/stack/src/mesh_stack.c.obj
 .debug_loc     0x00000000000009f8      0x368 CMakeFiles/light_switch_proxy_server_nrf52840_xxAA_s140_6.0.0.dir/__/__/common/src/mesh_provisionee.c.obj
 .debug_loc     0x0000000000000d60       0xbf CMakeFiles/light_switch_proxy_server_nrf52840_xxAA_s140_6.0.0.dir/__/__/common/src/rtt_input.c.obj
 .debug_loc     0x0000000000000e1f      0x29c CMakeFiles/light_switch_proxy_server_nrf52840_xxAA_s140_6.0.0.dir/__/__/common/src/simple_hal.c.obj
 .debug_loc     0x00000000000010bb       0x8f CMakeFiles/light_switch_proxy_server_nrf52840_xxAA_s140_6.0.0.dir/__/__/common/src/mesh_app_utils.c.obj
 .debug_loc     0x000000000000114a      0x182 CMakeFiles/light_switch_proxy_server_nrf52840_xxAA_s140_6.0.0.dir/__/__/common/src/mesh_adv.c.obj
 .debug_loc     0x00000000000012cc      0x7fe CMakeFiles/light_switch_proxy_server_nrf52840_xxAA_s140_6.0.0.dir/__/__/__/mesh/prov/src/nrf_mesh_prov_bearer_gatt.c.obj
 .debug_loc     0x0000000000001aca      0x112 CMakeFiles/light_switch_proxy_server_nrf52840_xxAA_s140_6.0.0.dir/home/mazzer/work/nordic/sdk/nRF5_SDK_15.0.0/components/libraries/util/app_util_platform.c.obj
 .debug_loc     0x0000000000001bdc     0x173d CMakeFiles/light_switch_proxy_server_nrf52840_xxAA_s140_6.0.0.dir/home/mazzer/work/nordic/sdk/nRF5_SDK_15.0.0/components/ble/common/ble_advdata.c.obj
 .debug_loc     0x0000000000003319      0x287 CMakeFiles/light_switch_proxy_server_nrf52840_xxAA_s140_6.0.0.dir/home/mazzer/work/nordic/sdk/nRF5_SDK_15.0.0/components/softdevice/common/nrf_sdh.c.obj
 .debug_loc     0x00000000000035a0       0x74 CMakeFiles/light_switch_proxy_server_nrf52840_xxAA_s140_6.0.0.dir/home/mazzer/work/nordic/sdk/nRF5_SDK_15.0.0/components/softdevice/common/nrf_sdh_soc.c.obj
 .debug_loc     0x0000000000003614      0x1e0 CMakeFiles/light_switch_proxy_server_nrf52840_xxAA_s140_6.0.0.dir/home/mazzer/work/nordic/sdk/nRF5_SDK_15.0.0/components/softdevice/common/nrf_sdh_ble.c.obj
 .debug_loc     0x00000000000037f4      0x1c6 CMakeFiles/light_switch_proxy_server_nrf52840_xxAA_s140_6.0.0.dir/__/__/common/src/app_error_weak.c.obj
 .debug_loc     0x00000000000039ba       0x2c CMakeFiles/light_switch_proxy_server_nrf52840_xxAA_s140_6.0.0.dir/__/__/common/src/assertion_handler_weak.c.obj
 .debug_loc     0x00000000000039e6       0x2c CMakeFiles/light_switch_proxy_server_nrf52840_xxAA_s140_6.0.0.dir/__/__/__/mesh/core/src/nrf_mesh_configure.c.obj
 .debug_loc     0x0000000000003a12       0x89 CMakeFiles/light_switch_proxy_server_nrf52840_xxAA_s140_6.0.0.dir/__/__/__/mesh/core/src/aes.c.obj
 .debug_loc     0x0000000000003a9b       0xab CMakeFiles/light_switch_proxy_server_nrf52840_xxAA_s140_6.0.0.dir/__/__/__/mesh/core/src/msg_cache.c.obj
 .debug_loc     0x0000000000003b46     0x41e3 CMakeFiles/light_switch_proxy_server_nrf52840_xxAA_s140_6.0.0.dir/__/__/__/mesh/core/src/transport.c.obj
 .debug_loc     0x0000000000007d29      0x169 CMakeFiles/light_switch_proxy_server_nrf52840_xxAA_s140_6.0.0.dir/__/__/__/mesh/core/src/event.c.obj
 .debug_loc     0x0000000000007e92      0xcfb CMakeFiles/light_switch_proxy_server_nrf52840_xxAA_s140_6.0.0.dir/__/__/__/mesh/core/src/packet_buffer.c.obj
 .debug_loc     0x0000000000008b8d      0xbd0 CMakeFiles/light_switch_proxy_server_nrf52840_xxAA_s140_6.0.0.dir/__/__/__/mesh/core/src/flash_manager_defrag.c.obj
 .debug_loc     0x000000000000975d      0x86b CMakeFiles/light_switch_proxy_server_nrf52840_xxAA_s140_6.0.0.dir/__/__/__/mesh/core/src/fifo.c.obj
 .debug_loc     0x0000000000009fc8      0x194 CMakeFiles/light_switch_proxy_server_nrf52840_xxAA_s140_6.0.0.dir/__/__/__/mesh/core/src/nrf_flash.c.obj
 .debug_loc     0x000000000000a15c      0x788 CMakeFiles/light_switch_proxy_server_nrf52840_xxAA_s140_6.0.0.dir/__/__/__/mesh/core/src/packet_mgr.c.obj
 .debug_loc     0x000000000000a8e4      0xfdf CMakeFiles/light_switch_proxy_server_nrf52840_xxAA_s140_6.0.0.dir/__/__/__/mesh/core/src/net_state.c.obj
 .debug_loc     0x000000000000b8c3      0xfd3 CMakeFiles/light_switch_proxy_server_nrf52840_xxAA_s140_6.0.0.dir/__/__/__/mesh/core/src/mesh_flash.c.obj
 .debug_loc     0x000000000000c896      0x185 CMakeFiles/light_switch_proxy_server_nrf52840_xxAA_s140_6.0.0.dir/__/__/__/mesh/core/src/nrf_mesh_utils.c.obj
 .debug_loc     0x000000000000ca1b      0x700 CMakeFiles/light_switch_proxy_server_nrf52840_xxAA_s140_6.0.0.dir/__/__/__/mesh/core/src/nrf_mesh.c.obj
 .debug_loc     0x000000000000d11b      0x186 CMakeFiles/light_switch_proxy_server_nrf52840_xxAA_s140_6.0.0.dir/__/__/__/mesh/core/src/queue.c.obj
 .debug_loc     0x000000000000d2a1       0x63 CMakeFiles/light_switch_proxy_server_nrf52840_xxAA_s140_6.0.0.dir/__/__/__/mesh/core/src/hal.c.obj
 .debug_loc     0x000000000000d304      0xb75 CMakeFiles/light_switch_proxy_server_nrf52840_xxAA_s140_6.0.0.dir/__/__/__/mesh/core/src/aes_cmac.c.obj
 .debug_loc     0x000000000000de79      0x5b7 CMakeFiles/light_switch_proxy_server_nrf52840_xxAA_s140_6.0.0.dir/__/__/__/mesh/core/src/timer_scheduler.c.obj
 .debug_loc     0x000000000000e430      0x608 CMakeFiles/light_switch_proxy_server_nrf52840_xxAA_s140_6.0.0.dir/__/__/__/mesh/core/src/timer.c.obj
 .debug_loc     0x000000000000ea38      0x1c5 CMakeFiles/light_switch_proxy_server_nrf52840_xxAA_s140_6.0.0.dir/__/__/__/mesh/core/src/rand.c.obj
 .debug_loc     0x000000000000ebfd      0x194 CMakeFiles/light_switch_proxy_server_nrf52840_xxAA_s140_6.0.0.dir/__/__/__/mesh/core/src/nrf_mesh_opt.c.obj
 .debug_loc     0x000000000000ed91      0x4f1 CMakeFiles/light_switch_proxy_server_nrf52840_xxAA_s140_6.0.0.dir/__/__/__/mesh/core/src/timeslot.c.obj
 .debug_loc     0x000000000000f282      0x86e CMakeFiles/light_switch_proxy_server_nrf52840_xxAA_s140_6.0.0.dir/__/__/__/mesh/core/src/bearer_event.c.obj
 .debug_loc     0x000000000000faf0      0xb0d CMakeFiles/light_switch_proxy_server_nrf52840_xxAA_s140_6.0.0.dir/__/__/__/mesh/core/src/enc.c.obj
 .debug_loc     0x00000000000105fd      0x84e CMakeFiles/light_switch_proxy_server_nrf52840_xxAA_s140_6.0.0.dir/__/__/__/mesh/core/src/network.c.obj
 .debug_loc     0x0000000000010e4b      0x978 CMakeFiles/light_switch_proxy_server_nrf52840_xxAA_s140_6.0.0.dir/__/__/__/mesh/core/src/net_packet.c.obj
 .debug_loc     0x00000000000117c3      0x438 CMakeFiles/light_switch_proxy_server_nrf52840_xxAA_s140_6.0.0.dir/__/__/__/mesh/core/src/msqueue.c.obj
 .debug_loc     0x0000000000011bfb      0x210 CMakeFiles/light_switch_proxy_server_nrf52840_xxAA_s140_6.0.0.dir/__/__/__/mesh/core/src/nrf_mesh_keygen.c.obj
 .debug_loc     0x0000000000011e0b      0x3dc CMakeFiles/light_switch_proxy_server_nrf52840_xxAA_s140_6.0.0.dir/__/__/__/mesh/core/src/cache.c.obj
 .debug_loc     0x00000000000121e7      0x565 CMakeFiles/light_switch_proxy_server_nrf52840_xxAA_s140_6.0.0.dir/__/__/__/mesh/core/src/list.c.obj
 .debug_loc     0x000000000001274c      0x3dd CMakeFiles/light_switch_proxy_server_nrf52840_xxAA_s140_6.0.0.dir/__/__/__/mesh/core/src/log.c.obj
 .debug_loc     0x0000000000012b29     0x21f7 CMakeFiles/light_switch_proxy_server_nrf52840_xxAA_s140_6.0.0.dir/__/__/__/mesh/core/src/flash_manager.c.obj
 .debug_loc     0x0000000000014d20      0xb6e CMakeFiles/light_switch_proxy_server_nrf52840_xxAA_s140_6.0.0.dir/__/__/__/mesh/core/src/ccm_soft.c.obj
 .debug_loc     0x000000000001588e      0x16c CMakeFiles/light_switch_proxy_server_nrf52840_xxAA_s140_6.0.0.dir/__/__/__/mesh/core/src/replay_cache.c.obj
 .debug_loc     0x00000000000159fa      0x416 CMakeFiles/light_switch_proxy_server_nrf52840_xxAA_s140_6.0.0.dir/__/__/__/mesh/core/src/beacon.c.obj
 .debug_loc     0x0000000000015e10      0x12d CMakeFiles/light_switch_proxy_server_nrf52840_xxAA_s140_6.0.0.dir/__/__/__/mesh/core/src/flash_manager_internal.c.obj
 .debug_loc     0x0000000000015f3d      0x4d1 CMakeFiles/light_switch_proxy_server_nrf52840_xxAA_s140_6.0.0.dir/__/__/__/mesh/core/src/core_tx.c.obj
 .debug_loc     0x000000000001640e      0x6c5 CMakeFiles/light_switch_proxy_server_nrf52840_xxAA_s140_6.0.0.dir/__/__/__/mesh/core/src/heartbeat.c.obj
 .debug_loc     0x0000000000016ad3      0x6e9 CMakeFiles/light_switch_proxy_server_nrf52840_xxAA_s140_6.0.0.dir/__/__/__/mesh/core/src/net_beacon.c.obj
 .debug_loc     0x00000000000171bc      0x4f3 CMakeFiles/light_switch_proxy_server_nrf52840_xxAA_s140_6.0.0.dir/__/__/__/mesh/core/src/fsm.c.obj
 .debug_loc     0x00000000000176af      0x3d3 CMakeFiles/light_switch_proxy_server_nrf52840_xxAA_s140_6.0.0.dir/__/__/__/mesh/core/src/core_tx_adv.c.obj
 .debug_loc     0x0000000000017a82      0x45f CMakeFiles/light_switch_proxy_server_nrf52840_xxAA_s140_6.0.0.dir/__/__/__/mesh/bearer/src/ad_listener.c.obj
 .debug_loc     0x0000000000017ee1      0x321 CMakeFiles/light_switch_proxy_server_nrf52840_xxAA_s140_6.0.0.dir/__/__/__/mesh/bearer/src/ad_type_filter.c.obj
 .debug_loc     0x0000000000018202     0x12af CMakeFiles/light_switch_proxy_server_nrf52840_xxAA_s140_6.0.0.dir/__/__/__/mesh/bearer/src/advertiser.c.obj
 .debug_loc     0x00000000000194b1      0x394 CMakeFiles/light_switch_proxy_server_nrf52840_xxAA_s140_6.0.0.dir/__/__/__/mesh/bearer/src/bearer_handler.c.obj
 .debug_loc     0x0000000000019845      0x30e CMakeFiles/light_switch_proxy_server_nrf52840_xxAA_s140_6.0.0.dir/__/__/__/mesh/bearer/src/broadcast.c.obj
 .debug_loc     0x0000000000019b53      0x179 CMakeFiles/light_switch_proxy_server_nrf52840_xxAA_s140_6.0.0.dir/__/__/__/mesh/bearer/src/filter_engine.c.obj
 .debug_loc     0x0000000000019ccc      0x239 CMakeFiles/light_switch_proxy_server_nrf52840_xxAA_s140_6.0.0.dir/__/__/__/mesh/bearer/src/radio_config.c.obj
 .debug_loc     0x0000000000019f05      0x899 CMakeFiles/light_switch_proxy_server_nrf52840_xxAA_s140_6.0.0.dir/__/__/__/mesh/bearer/src/scanner.c.obj
 .debug_loc     0x000000000001a79e     0x190b CMakeFiles/light_switch_proxy_server_nrf52840_xxAA_s140_6.0.0.dir/__/__/__/mesh/gatt/src/mesh_gatt.c.obj
 .debug_loc     0x000000000001c0a9     0x1f59 CMakeFiles/light_switch_proxy_server_nrf52840_xxAA_s140_6.0.0.dir/__/__/__/mesh/gatt/src/proxy.c.obj
 .debug_loc     0x000000000001e002      0x3eb CMakeFiles/light_switch_proxy_server_nrf52840_xxAA_s140_6.0.0.dir/__/__/__/mesh/gatt/src/proxy_filter.c.obj
 .debug_loc     0x000000000001e3ed      0x565 CMakeFiles/light_switch_proxy_server_nrf52840_xxAA_s140_6.0.0.dir/__/__/__/models/simple_on_off/src/simple_on_off_server.c.obj
 .debug_loc     0x000000000001e952      0x33c CMakeFiles/light_switch_proxy_server_nrf52840_xxAA_s140_6.0.0.dir/__/__/__/models/config/src/composition_data.c.obj
 .debug_loc     0x000000000001ec8e     0xa6bd CMakeFiles/light_switch_proxy_server_nrf52840_xxAA_s140_6.0.0.dir/__/__/__/models/config/src/config_server.c.obj
 .debug_loc     0x000000000002934b       0xa8 CMakeFiles/light_switch_proxy_server_nrf52840_xxAA_s140_6.0.0.dir/__/__/__/models/config/src/packed_index_list.c.obj
 .debug_loc     0x00000000000293f3     0x3724 CMakeFiles/light_switch_proxy_server_nrf52840_xxAA_s140_6.0.0.dir/__/__/__/models/health/src/health_server.c.obj
 .debug_loc     0x000000000002cb17      0x939 CMakeFiles/light_switch_proxy_server_nrf52840_xxAA_s140_6.0.0.dir/__/__/__/mesh/access/src/access_publish.c.obj
 .debug_loc     0x000000000002d450     0x38c2 CMakeFiles/light_switch_proxy_server_nrf52840_xxAA_s140_6.0.0.dir/__/__/__/mesh/access/src/access.c.obj
 .debug_loc     0x0000000000030d12      0xd3a CMakeFiles/light_switch_proxy_server_nrf52840_xxAA_s140_6.0.0.dir/__/__/__/mesh/access/src/access_reliable.c.obj
 .debug_loc     0x0000000000031a4c     0x8a00 CMakeFiles/light_switch_proxy_server_nrf52840_xxAA_s140_6.0.0.dir/__/__/__/mesh/access/src/device_state_manager.c.obj
 .debug_loc     0x000000000003a44c      0xaad CMakeFiles/light_switch_proxy_server_nrf52840_xxAA_s140_6.0.0.dir/__/__/__/mesh/prov/src/prov_provisionee.c.obj
 .debug_loc     0x000000000003aef9      0xaf3 CMakeFiles/light_switch_proxy_server_nrf52840_xxAA_s140_6.0.0.dir/__/__/__/mesh/prov/src/nrf_mesh_prov.c.obj
 .debug_loc     0x000000000003b9ec      0xc0a CMakeFiles/light_switch_proxy_server_nrf52840_xxAA_s140_6.0.0.dir/__/__/__/mesh/prov/src/provisioning.c.obj
 .debug_loc     0x000000000003c5f6      0x255 CMakeFiles/light_switch_proxy_server_nrf52840_xxAA_s140_6.0.0.dir/__/__/__/mesh/prov/src/prov_beacon.c.obj
 .debug_loc     0x000000000003c84b      0x492 CMakeFiles/light_switch_proxy_server_nrf52840_xxAA_s140_6.0.0.dir/__/__/__/mesh/prov/src/prov_utils.c.obj
 .debug_loc     0x000000000003ccdd     0x2722 CMakeFiles/light_switch_proxy_server_nrf52840_xxAA_s140_6.0.0.dir/__/__/__/mesh/prov/src/prov_bearer_adv.c.obj
 .debug_loc     0x000000000003f3ff       0xca CMakeFiles/light_switch_proxy_server_nrf52840_xxAA_s140_6.0.0.dir/home/mazzer/work/nordic/sdk/nRF5_SDK_15.0.0/components/libraries/util/app_error.c.obj
 .debug_loc     0x000000000003f4c9       0x63 CMakeFiles/light_switch_proxy_server_nrf52840_xxAA_s140_6.0.0.dir/home/mazzer/work/nordic/sdk/nRF5_SDK_15.0.0/components/libraries/util/app_error_handler_gcc.c.obj
 .debug_loc     0x000000000003f52c     0x3e95 ../../../external/rtt/librtt_nrf52840_xxAA.a(SEGGER_RTT.c.obj)
 .debug_loc     0x00000000000433c1      0xec5 ../../../external/rtt/librtt_nrf52840_xxAA.a(SEGGER_RTT_printf.c.obj)
 .debug_loc     0x0000000000044286     0xb105 ../../../external/micro-ecc/libuECC_nrf52840_xxAA.a(uECC.c.obj)

.debug_aranges  0x0000000000000000     0x2330
 .debug_aranges
                0x0000000000000000       0x80 CMakeFiles/light_switch_proxy_server_nrf52840_xxAA_s140_6.0.0.dir/src/main.c.obj
 .debug_aranges
                0x0000000000000080       0x50 CMakeFiles/light_switch_proxy_server_nrf52840_xxAA_s140_6.0.0.dir/__/__/__/mesh/stack/src/mesh_stack.c.obj
 .debug_aranges
                0x00000000000000d0       0x30 CMakeFiles/light_switch_proxy_server_nrf52840_xxAA_s140_6.0.0.dir/__/__/common/src/mesh_provisionee.c.obj
 .debug_aranges
                0x0000000000000100       0x30 CMakeFiles/light_switch_proxy_server_nrf52840_xxAA_s140_6.0.0.dir/__/__/common/src/rtt_input.c.obj
 .debug_aranges
                0x0000000000000130       0x50 CMakeFiles/light_switch_proxy_server_nrf52840_xxAA_s140_6.0.0.dir/__/__/common/src/simple_hal.c.obj
 .debug_aranges
                0x0000000000000180       0x20 CMakeFiles/light_switch_proxy_server_nrf52840_xxAA_s140_6.0.0.dir/__/__/common/src/mesh_app_utils.c.obj
 .debug_aranges
                0x00000000000001a0       0x50 CMakeFiles/light_switch_proxy_server_nrf52840_xxAA_s140_6.0.0.dir/__/__/common/src/mesh_adv.c.obj
 .debug_aranges
                0x00000000000001f0       0xb8 CMakeFiles/light_switch_proxy_server_nrf52840_xxAA_s140_6.0.0.dir/__/__/__/mesh/prov/src/nrf_mesh_prov_bearer_gatt.c.obj
 .debug_aranges
                0x00000000000002a8       0x48 CMakeFiles/light_switch_proxy_server_nrf52840_xxAA_s140_6.0.0.dir/home/mazzer/work/nordic/sdk/nRF5_SDK_15.0.0/components/libraries/util/app_util_platform.c.obj
 .debug_aranges
                0x00000000000002f0       0x78 CMakeFiles/light_switch_proxy_server_nrf52840_xxAA_s140_6.0.0.dir/home/mazzer/work/nordic/sdk/nRF5_SDK_15.0.0/components/ble/common/ble_advdata.c.obj
 .debug_aranges
                0x0000000000000368       0x28 CMakeFiles/light_switch_proxy_server_nrf52840_xxAA_s140_6.0.0.dir/home/mazzer/work/nordic/sdk/nRF5_SDK_15.0.0/components/libraries/experimental_section_vars/nrf_section_iter.c.obj
 .debug_aranges
                0x0000000000000390       0x70 CMakeFiles/light_switch_proxy_server_nrf52840_xxAA_s140_6.0.0.dir/home/mazzer/work/nordic/sdk/nRF5_SDK_15.0.0/components/softdevice/common/nrf_sdh.c.obj
 .debug_aranges
                0x0000000000000400       0x28 CMakeFiles/light_switch_proxy_server_nrf52840_xxAA_s140_6.0.0.dir/home/mazzer/work/nordic/sdk/nRF5_SDK_15.0.0/components/softdevice/common/nrf_sdh_soc.c.obj
 .debug_aranges
                0x0000000000000428       0x50 CMakeFiles/light_switch_proxy_server_nrf52840_xxAA_s140_6.0.0.dir/home/mazzer/work/nordic/sdk/nRF5_SDK_15.0.0/components/softdevice/common/nrf_sdh_ble.c.obj
 .debug_aranges
                0x0000000000000478       0x28 CMakeFiles/light_switch_proxy_server_nrf52840_xxAA_s140_6.0.0.dir/__/__/nrf_mesh_weak.c.obj
 .debug_aranges
                0x00000000000004a0       0x20 CMakeFiles/light_switch_proxy_server_nrf52840_xxAA_s140_6.0.0.dir/__/__/common/src/app_error_weak.c.obj
 .debug_aranges
                0x00000000000004c0       0x20 CMakeFiles/light_switch_proxy_server_nrf52840_xxAA_s140_6.0.0.dir/__/__/common/src/assertion_handler_weak.c.obj
 .debug_aranges
                0x00000000000004e0       0x30 CMakeFiles/light_switch_proxy_server_nrf52840_xxAA_s140_6.0.0.dir/__/__/__/mesh/core/src/nrf_mesh_configure.c.obj
 .debug_aranges
                0x0000000000000510       0x28 CMakeFiles/light_switch_proxy_server_nrf52840_xxAA_s140_6.0.0.dir/__/__/__/mesh/core/src/aes.c.obj
 .debug_aranges
                0x0000000000000538       0x38 CMakeFiles/light_switch_proxy_server_nrf52840_xxAA_s140_6.0.0.dir/__/__/__/mesh/core/src/msg_cache.c.obj
 .debug_aranges
                0x0000000000000570       0xc0 CMakeFiles/light_switch_proxy_server_nrf52840_xxAA_s140_6.0.0.dir/__/__/__/mesh/core/src/transport.c.obj
 .debug_aranges
                0x0000000000000630       0x30 CMakeFiles/light_switch_proxy_server_nrf52840_xxAA_s140_6.0.0.dir/__/__/__/mesh/core/src/event.c.obj
 .debug_aranges
                0x0000000000000660       0x60 CMakeFiles/light_switch_proxy_server_nrf52840_xxAA_s140_6.0.0.dir/__/__/__/mesh/core/src/packet_buffer.c.obj
 .debug_aranges
                0x00000000000006c0       0xa0 CMakeFiles/light_switch_proxy_server_nrf52840_xxAA_s140_6.0.0.dir/__/__/__/mesh/core/src/flash_manager_defrag.c.obj
 .debug_aranges
                0x0000000000000760       0x60 CMakeFiles/light_switch_proxy_server_nrf52840_xxAA_s140_6.0.0.dir/__/__/__/mesh/core/src/fifo.c.obj
 .debug_aranges
                0x00000000000007c0       0x28 CMakeFiles/light_switch_proxy_server_nrf52840_xxAA_s140_6.0.0.dir/__/__/__/mesh/core/src/nrf_flash.c.obj
 .debug_aranges
                0x00000000000007e8       0x48 CMakeFiles/light_switch_proxy_server_nrf52840_xxAA_s140_6.0.0.dir/__/__/__/mesh/core/src/packet_mgr.c.obj
 .debug_aranges
                0x0000000000000830       0xd0 CMakeFiles/light_switch_proxy_server_nrf52840_xxAA_s140_6.0.0.dir/__/__/__/mesh/core/src/net_state.c.obj
 .debug_aranges
                0x0000000000000900       0x58 CMakeFiles/light_switch_proxy_server_nrf52840_xxAA_s140_6.0.0.dir/__/__/__/mesh/core/src/mesh_flash.c.obj
 .debug_aranges
                0x0000000000000958       0x30 CMakeFiles/light_switch_proxy_server_nrf52840_xxAA_s140_6.0.0.dir/__/__/__/mesh/core/src/nrf_mesh_utils.c.obj
 .debug_aranges
                0x0000000000000988       0x90 CMakeFiles/light_switch_proxy_server_nrf52840_xxAA_s140_6.0.0.dir/__/__/__/mesh/core/src/nrf_mesh.c.obj
 .debug_aranges
                0x0000000000000a18       0x38 CMakeFiles/light_switch_proxy_server_nrf52840_xxAA_s140_6.0.0.dir/__/__/__/mesh/core/src/queue.c.obj
 .debug_aranges
                0x0000000000000a50       0x30 CMakeFiles/light_switch_proxy_server_nrf52840_xxAA_s140_6.0.0.dir/__/__/__/mesh/core/src/hal.c.obj
 .debug_aranges
                0x0000000000000a80       0x28 CMakeFiles/light_switch_proxy_server_nrf52840_xxAA_s140_6.0.0.dir/__/__/__/mesh/core/src/aes_cmac.c.obj
 .debug_aranges
                0x0000000000000aa8       0x50 CMakeFiles/light_switch_proxy_server_nrf52840_xxAA_s140_6.0.0.dir/__/__/__/mesh/core/src/timer_scheduler.c.obj
 .debug_aranges
                0x0000000000000af8       0x58 CMakeFiles/light_switch_proxy_server_nrf52840_xxAA_s140_6.0.0.dir/__/__/__/mesh/core/src/timer.c.obj
 .debug_aranges
                0x0000000000000b50       0x30 CMakeFiles/light_switch_proxy_server_nrf52840_xxAA_s140_6.0.0.dir/__/__/__/mesh/core/src/ticker.c.obj
 .debug_aranges
                0x0000000000000b80       0x40 CMakeFiles/light_switch_proxy_server_nrf52840_xxAA_s140_6.0.0.dir/__/__/__/mesh/core/src/rand.c.obj
 .debug_aranges
                0x0000000000000bc0       0x28 CMakeFiles/light_switch_proxy_server_nrf52840_xxAA_s140_6.0.0.dir/__/__/__/mesh/core/src/nrf_mesh_opt.c.obj
 .debug_aranges
                0x0000000000000be8       0xa8 CMakeFiles/light_switch_proxy_server_nrf52840_xxAA_s140_6.0.0.dir/__/__/__/mesh/core/src/timeslot.c.obj
 .debug_aranges
                0x0000000000000c90       0x88 CMakeFiles/light_switch_proxy_server_nrf52840_xxAA_s140_6.0.0.dir/__/__/__/mesh/core/src/bearer_event.c.obj
 .debug_aranges
                0x0000000000000d18       0x70 CMakeFiles/light_switch_proxy_server_nrf52840_xxAA_s140_6.0.0.dir/__/__/__/mesh/core/src/enc.c.obj
 .debug_aranges
                0x0000000000000d88       0x50 CMakeFiles/light_switch_proxy_server_nrf52840_xxAA_s140_6.0.0.dir/__/__/__/mesh/core/src/network.c.obj
 .debug_aranges
                0x0000000000000dd8       0x58 CMakeFiles/light_switch_proxy_server_nrf52840_xxAA_s140_6.0.0.dir/__/__/__/mesh/core/src/net_packet.c.obj
 .debug_aranges
                0x0000000000000e30       0x40 CMakeFiles/light_switch_proxy_server_nrf52840_xxAA_s140_6.0.0.dir/__/__/__/mesh/core/src/msqueue.c.obj
 .debug_aranges
                0x0000000000000e70       0x40 CMakeFiles/light_switch_proxy_server_nrf52840_xxAA_s140_6.0.0.dir/__/__/__/mesh/core/src/nrf_mesh_keygen.c.obj
 .debug_aranges
                0x0000000000000eb0       0x38 CMakeFiles/light_switch_proxy_server_nrf52840_xxAA_s140_6.0.0.dir/__/__/__/mesh/core/src/cache.c.obj
 .debug_aranges
                0x0000000000000ee8       0x40 CMakeFiles/light_switch_proxy_server_nrf52840_xxAA_s140_6.0.0.dir/__/__/__/mesh/core/src/list.c.obj
 .debug_aranges
                0x0000000000000f28       0x48 CMakeFiles/light_switch_proxy_server_nrf52840_xxAA_s140_6.0.0.dir/__/__/__/mesh/core/src/log.c.obj
 .debug_aranges
                0x0000000000000f70       0xa0 CMakeFiles/light_switch_proxy_server_nrf52840_xxAA_s140_6.0.0.dir/__/__/__/mesh/core/src/flash_manager.c.obj
 .debug_aranges
                0x0000000000001010       0x38 CMakeFiles/light_switch_proxy_server_nrf52840_xxAA_s140_6.0.0.dir/__/__/__/mesh/core/src/ccm_soft.c.obj
 .debug_aranges
                0x0000000000001048       0x38 CMakeFiles/light_switch_proxy_server_nrf52840_xxAA_s140_6.0.0.dir/__/__/__/mesh/core/src/replay_cache.c.obj
 .debug_aranges
                0x0000000000001080       0x28 CMakeFiles/light_switch_proxy_server_nrf52840_xxAA_s140_6.0.0.dir/__/__/__/mesh/core/src/beacon.c.obj
 .debug_aranges
                0x00000000000010a8       0x20 CMakeFiles/light_switch_proxy_server_nrf52840_xxAA_s140_6.0.0.dir/__/__/__/mesh/core/src/flash_manager_internal.c.obj
 .debug_aranges
                0x00000000000010c8       0x58 CMakeFiles/light_switch_proxy_server_nrf52840_xxAA_s140_6.0.0.dir/__/__/__/mesh/core/src/core_tx.c.obj
 .debug_aranges
                0x0000000000001120       0x70 CMakeFiles/light_switch_proxy_server_nrf52840_xxAA_s140_6.0.0.dir/__/__/__/mesh/core/src/heartbeat.c.obj
 .debug_aranges
                0x0000000000001190       0x58 CMakeFiles/light_switch_proxy_server_nrf52840_xxAA_s140_6.0.0.dir/__/__/__/mesh/core/src/net_beacon.c.obj
 .debug_aranges
                0x00000000000011e8       0x38 CMakeFiles/light_switch_proxy_server_nrf52840_xxAA_s140_6.0.0.dir/__/__/__/mesh/core/src/fsm.c.obj
 .debug_aranges
                0x0000000000001220       0x68 CMakeFiles/light_switch_proxy_server_nrf52840_xxAA_s140_6.0.0.dir/__/__/__/mesh/core/src/core_tx_adv.c.obj
 .debug_aranges
                0x0000000000001288       0x30 CMakeFiles/light_switch_proxy_server_nrf52840_xxAA_s140_6.0.0.dir/__/__/__/mesh/bearer/src/ad_listener.c.obj
 .debug_aranges
                0x00000000000012b8       0x58 CMakeFiles/light_switch_proxy_server_nrf52840_xxAA_s140_6.0.0.dir/__/__/__/mesh/bearer/src/ad_type_filter.c.obj
 .debug_aranges
                0x0000000000001310       0xa0 CMakeFiles/light_switch_proxy_server_nrf52840_xxAA_s140_6.0.0.dir/__/__/__/mesh/bearer/src/advertiser.c.obj
 .debug_aranges
                0x00000000000013b0       0x70 CMakeFiles/light_switch_proxy_server_nrf52840_xxAA_s140_6.0.0.dir/__/__/__/mesh/bearer/src/bearer_handler.c.obj
 .debug_aranges
                0x0000000000001420       0x30 CMakeFiles/light_switch_proxy_server_nrf52840_xxAA_s140_6.0.0.dir/__/__/__/mesh/bearer/src/broadcast.c.obj
 .debug_aranges
                0x0000000000001450       0x38 CMakeFiles/light_switch_proxy_server_nrf52840_xxAA_s140_6.0.0.dir/__/__/__/mesh/bearer/src/filter_engine.c.obj
 .debug_aranges
                0x0000000000001488       0x40 CMakeFiles/light_switch_proxy_server_nrf52840_xxAA_s140_6.0.0.dir/__/__/__/mesh/bearer/src/radio_config.c.obj
 .debug_aranges
                0x00000000000014c8       0xb8 CMakeFiles/light_switch_proxy_server_nrf52840_xxAA_s140_6.0.0.dir/__/__/__/mesh/bearer/src/scanner.c.obj
 .debug_aranges
                0x0000000000001580       0xa0 CMakeFiles/light_switch_proxy_server_nrf52840_xxAA_s140_6.0.0.dir/__/__/__/mesh/gatt/src/mesh_gatt.c.obj
 .debug_aranges
                0x0000000000001620       0xa0 CMakeFiles/light_switch_proxy_server_nrf52840_xxAA_s140_6.0.0.dir/__/__/__/mesh/gatt/src/proxy.c.obj
 .debug_aranges
                0x00000000000016c0       0x40 CMakeFiles/light_switch_proxy_server_nrf52840_xxAA_s140_6.0.0.dir/__/__/__/mesh/gatt/src/proxy_filter.c.obj
 .debug_aranges
                0x0000000000001700       0x40 CMakeFiles/light_switch_proxy_server_nrf52840_xxAA_s140_6.0.0.dir/__/__/__/models/simple_on_off/src/simple_on_off_server.c.obj
 .debug_aranges
                0x0000000000001740       0x20 CMakeFiles/light_switch_proxy_server_nrf52840_xxAA_s140_6.0.0.dir/__/__/__/models/config/src/composition_data.c.obj
 .debug_aranges
                0x0000000000001760      0x1b0 CMakeFiles/light_switch_proxy_server_nrf52840_xxAA_s140_6.0.0.dir/__/__/__/models/config/src/config_server.c.obj
 .debug_aranges
                0x0000000000001910       0x20 CMakeFiles/light_switch_proxy_server_nrf52840_xxAA_s140_6.0.0.dir/__/__/__/models/config/src/packed_index_list.c.obj
 .debug_aranges
                0x0000000000001930       0xa0 CMakeFiles/light_switch_proxy_server_nrf52840_xxAA_s140_6.0.0.dir/__/__/__/models/health/src/health_server.c.obj
 .debug_aranges
                0x00000000000019d0       0x40 CMakeFiles/light_switch_proxy_server_nrf52840_xxAA_s140_6.0.0.dir/__/__/__/mesh/access/src/access_publish.c.obj
 .debug_aranges
                0x0000000000001a10      0x180 CMakeFiles/light_switch_proxy_server_nrf52840_xxAA_s140_6.0.0.dir/__/__/__/mesh/access/src/access.c.obj
 .debug_aranges
                0x0000000000001b90       0x50 CMakeFiles/light_switch_proxy_server_nrf52840_xxAA_s140_6.0.0.dir/__/__/__/mesh/access/src/access_reliable.c.obj
 .debug_aranges
                0x0000000000001be0      0x250 CMakeFiles/light_switch_proxy_server_nrf52840_xxAA_s140_6.0.0.dir/__/__/__/mesh/access/src/device_state_manager.c.obj
 .debug_aranges
                0x0000000000001e30       0x60 CMakeFiles/light_switch_proxy_server_nrf52840_xxAA_s140_6.0.0.dir/__/__/__/mesh/prov/src/prov_provisionee.c.obj
 .debug_aranges
                0x0000000000001e90       0x80 CMakeFiles/light_switch_proxy_server_nrf52840_xxAA_s140_6.0.0.dir/__/__/__/mesh/prov/src/nrf_mesh_prov.c.obj
 .debug_aranges
                0x0000000000001f10       0x78 CMakeFiles/light_switch_proxy_server_nrf52840_xxAA_s140_6.0.0.dir/__/__/__/mesh/prov/src/provisioning.c.obj
 .debug_aranges
                0x0000000000001f88       0x38 CMakeFiles/light_switch_proxy_server_nrf52840_xxAA_s140_6.0.0.dir/__/__/__/mesh/prov/src/prov_beacon.c.obj
 .debug_aranges
                0x0000000000001fc0       0x60 CMakeFiles/light_switch_proxy_server_nrf52840_xxAA_s140_6.0.0.dir/__/__/__/mesh/prov/src/prov_utils.c.obj
 .debug_aranges
                0x0000000000002020       0xa0 CMakeFiles/light_switch_proxy_server_nrf52840_xxAA_s140_6.0.0.dir/__/__/__/mesh/prov/src/prov_bearer_adv.c.obj
 .debug_aranges
                0x00000000000020c0       0x28 CMakeFiles/light_switch_proxy_server_nrf52840_xxAA_s140_6.0.0.dir/home/mazzer/work/nordic/sdk/nRF5_SDK_15.0.0/modules/nrfx/mdk/system_nrf52840.c.obj
 .debug_aranges
                0x00000000000020e8       0x20 CMakeFiles/light_switch_proxy_server_nrf52840_xxAA_s140_6.0.0.dir/home/mazzer/work/nordic/sdk/nRF5_SDK_15.0.0/modules/nrfx/mdk/gcc_startup_nrf52840.S.obj
 .debug_aranges
                0x0000000000002108       0x28 CMakeFiles/light_switch_proxy_server_nrf52840_xxAA_s140_6.0.0.dir/home/mazzer/work/nordic/sdk/nRF5_SDK_15.0.0/components/libraries/util/app_error.c.obj
 .debug_aranges
                0x0000000000002130       0x20 CMakeFiles/light_switch_proxy_server_nrf52840_xxAA_s140_6.0.0.dir/home/mazzer/work/nordic/sdk/nRF5_SDK_15.0.0/components/libraries/util/app_error_handler_gcc.c.obj
 .debug_aranges
                0x0000000000002150       0xb0 ../../../external/rtt/librtt_nrf52840_xxAA.a(SEGGER_RTT.c.obj)
 .debug_aranges
                0x0000000000002200       0x30 ../../../external/rtt/librtt_nrf52840_xxAA.a(SEGGER_RTT_printf.c.obj)
 .debug_aranges
                0x0000000000002230      0x100 ../../../external/micro-ecc/libuECC_nrf52840_xxAA.a(uECC.c.obj)

.debug_ranges   0x0000000000000000     0xed98
 .debug_ranges  0x0000000000000000      0x450 CMakeFiles/light_switch_proxy_server_nrf52840_xxAA_s140_6.0.0.dir/src/main.c.obj
 .debug_ranges  0x0000000000000450       0x88 CMakeFiles/light_switch_proxy_server_nrf52840_xxAA_s140_6.0.0.dir/__/__/__/mesh/stack/src/mesh_stack.c.obj
 .debug_ranges  0x00000000000004d8      0x150 CMakeFiles/light_switch_proxy_server_nrf52840_xxAA_s140_6.0.0.dir/__/__/common/src/mesh_provisionee.c.obj
 .debug_ranges  0x0000000000000628       0x78 CMakeFiles/light_switch_proxy_server_nrf52840_xxAA_s140_6.0.0.dir/__/__/common/src/rtt_input.c.obj
 .debug_ranges  0x00000000000006a0       0xc0 CMakeFiles/light_switch_proxy_server_nrf52840_xxAA_s140_6.0.0.dir/__/__/common/src/simple_hal.c.obj
 .debug_ranges  0x0000000000000760       0x10 CMakeFiles/light_switch_proxy_server_nrf52840_xxAA_s140_6.0.0.dir/__/__/common/src/mesh_app_utils.c.obj
 .debug_ranges  0x0000000000000770       0xb0 CMakeFiles/light_switch_proxy_server_nrf52840_xxAA_s140_6.0.0.dir/__/__/common/src/mesh_adv.c.obj
 .debug_ranges  0x0000000000000820      0x170 CMakeFiles/light_switch_proxy_server_nrf52840_xxAA_s140_6.0.0.dir/__/__/__/mesh/prov/src/nrf_mesh_prov_bearer_gatt.c.obj
 .debug_ranges  0x0000000000000990       0x80 CMakeFiles/light_switch_proxy_server_nrf52840_xxAA_s140_6.0.0.dir/home/mazzer/work/nordic/sdk/nRF5_SDK_15.0.0/components/libraries/util/app_util_platform.c.obj
 .debug_ranges  0x0000000000000a10      0x2b0 CMakeFiles/light_switch_proxy_server_nrf52840_xxAA_s140_6.0.0.dir/home/mazzer/work/nordic/sdk/nRF5_SDK_15.0.0/components/ble/common/ble_advdata.c.obj
 .debug_ranges  0x0000000000000cc0       0x18 CMakeFiles/light_switch_proxy_server_nrf52840_xxAA_s140_6.0.0.dir/home/mazzer/work/nordic/sdk/nRF5_SDK_15.0.0/components/libraries/experimental_section_vars/nrf_section_iter.c.obj
 .debug_ranges  0x0000000000000cd8      0x1d0 CMakeFiles/light_switch_proxy_server_nrf52840_xxAA_s140_6.0.0.dir/home/mazzer/work/nordic/sdk/nRF5_SDK_15.0.0/components/softdevice/common/nrf_sdh.c.obj
 .debug_ranges  0x0000000000000ea8       0x30 CMakeFiles/light_switch_proxy_server_nrf52840_xxAA_s140_6.0.0.dir/home/mazzer/work/nordic/sdk/nRF5_SDK_15.0.0/components/softdevice/common/nrf_sdh_soc.c.obj
 .debug_ranges  0x0000000000000ed8       0x90 CMakeFiles/light_switch_proxy_server_nrf52840_xxAA_s140_6.0.0.dir/home/mazzer/work/nordic/sdk/nRF5_SDK_15.0.0/components/softdevice/common/nrf_sdh_ble.c.obj
 .debug_ranges  0x0000000000000f68       0x18 CMakeFiles/light_switch_proxy_server_nrf52840_xxAA_s140_6.0.0.dir/__/__/nrf_mesh_weak.c.obj
 .debug_ranges  0x0000000000000f80       0xc8 CMakeFiles/light_switch_proxy_server_nrf52840_xxAA_s140_6.0.0.dir/__/__/common/src/app_error_weak.c.obj
 .debug_ranges  0x0000000000001048       0x10 CMakeFiles/light_switch_proxy_server_nrf52840_xxAA_s140_6.0.0.dir/__/__/common/src/assertion_handler_weak.c.obj
 .debug_ranges  0x0000000000001058       0x20 CMakeFiles/light_switch_proxy_server_nrf52840_xxAA_s140_6.0.0.dir/__/__/__/mesh/core/src/nrf_mesh_configure.c.obj
 .debug_ranges  0x0000000000001078       0x18 CMakeFiles/light_switch_proxy_server_nrf52840_xxAA_s140_6.0.0.dir/__/__/__/mesh/core/src/aes.c.obj
 .debug_ranges  0x0000000000001090       0x40 CMakeFiles/light_switch_proxy_server_nrf52840_xxAA_s140_6.0.0.dir/__/__/__/mesh/core/src/msg_cache.c.obj
 .debug_ranges  0x00000000000010d0      0xf08 CMakeFiles/light_switch_proxy_server_nrf52840_xxAA_s140_6.0.0.dir/__/__/__/mesh/core/src/transport.c.obj
 .debug_ranges  0x0000000000001fd8       0x20 CMakeFiles/light_switch_proxy_server_nrf52840_xxAA_s140_6.0.0.dir/__/__/__/mesh/core/src/event.c.obj
 .debug_ranges  0x0000000000001ff8      0x118 CMakeFiles/light_switch_proxy_server_nrf52840_xxAA_s140_6.0.0.dir/__/__/__/mesh/core/src/packet_buffer.c.obj
 .debug_ranges  0x0000000000002110      0x4c8 CMakeFiles/light_switch_proxy_server_nrf52840_xxAA_s140_6.0.0.dir/__/__/__/mesh/core/src/flash_manager_defrag.c.obj
 .debug_ranges  0x00000000000025d8       0xc0 CMakeFiles/light_switch_proxy_server_nrf52840_xxAA_s140_6.0.0.dir/__/__/__/mesh/core/src/fifo.c.obj
 .debug_ranges  0x0000000000002698       0x30 CMakeFiles/light_switch_proxy_server_nrf52840_xxAA_s140_6.0.0.dir/__/__/__/mesh/core/src/nrf_flash.c.obj
 .debug_ranges  0x00000000000026c8       0xe8 CMakeFiles/light_switch_proxy_server_nrf52840_xxAA_s140_6.0.0.dir/__/__/__/mesh/core/src/packet_mgr.c.obj
 .debug_ranges  0x00000000000027b0      0x868 CMakeFiles/light_switch_proxy_server_nrf52840_xxAA_s140_6.0.0.dir/__/__/__/mesh/core/src/net_state.c.obj
 .debug_ranges  0x0000000000003018      0x300 CMakeFiles/light_switch_proxy_server_nrf52840_xxAA_s140_6.0.0.dir/__/__/__/mesh/core/src/mesh_flash.c.obj
 .debug_ranges  0x0000000000003318       0x20 CMakeFiles/light_switch_proxy_server_nrf52840_xxAA_s140_6.0.0.dir/__/__/__/mesh/core/src/nrf_mesh_utils.c.obj
 .debug_ranges  0x0000000000003338      0x150 CMakeFiles/light_switch_proxy_server_nrf52840_xxAA_s140_6.0.0.dir/__/__/__/mesh/core/src/nrf_mesh.c.obj
 .debug_ranges  0x0000000000003488       0x28 CMakeFiles/light_switch_proxy_server_nrf52840_xxAA_s140_6.0.0.dir/__/__/__/mesh/core/src/queue.c.obj
 .debug_ranges  0x00000000000034b0       0x20 CMakeFiles/light_switch_proxy_server_nrf52840_xxAA_s140_6.0.0.dir/__/__/__/mesh/core/src/hal.c.obj
 .debug_ranges  0x00000000000034d0      0x150 CMakeFiles/light_switch_proxy_server_nrf52840_xxAA_s140_6.0.0.dir/__/__/__/mesh/core/src/aes_cmac.c.obj
 .debug_ranges  0x0000000000003620      0x288 CMakeFiles/light_switch_proxy_server_nrf52840_xxAA_s140_6.0.0.dir/__/__/__/mesh/core/src/timer_scheduler.c.obj
 .debug_ranges  0x00000000000038a8      0x178 CMakeFiles/light_switch_proxy_server_nrf52840_xxAA_s140_6.0.0.dir/__/__/__/mesh/core/src/timer.c.obj
 .debug_ranges  0x0000000000003a20       0x20 CMakeFiles/light_switch_proxy_server_nrf52840_xxAA_s140_6.0.0.dir/__/__/__/mesh/core/src/ticker.c.obj
 .debug_ranges  0x0000000000003a40       0x48 CMakeFiles/light_switch_proxy_server_nrf52840_xxAA_s140_6.0.0.dir/__/__/__/mesh/core/src/rand.c.obj
 .debug_ranges  0x0000000000003a88       0x18 CMakeFiles/light_switch_proxy_server_nrf52840_xxAA_s140_6.0.0.dir/__/__/__/mesh/core/src/nrf_mesh_opt.c.obj
 .debug_ranges  0x0000000000003aa0      0x250 CMakeFiles/light_switch_proxy_server_nrf52840_xxAA_s140_6.0.0.dir/__/__/__/mesh/core/src/timeslot.c.obj
 .debug_ranges  0x0000000000003cf0      0x288 CMakeFiles/light_switch_proxy_server_nrf52840_xxAA_s140_6.0.0.dir/__/__/__/mesh/core/src/bearer_event.c.obj
 .debug_ranges  0x0000000000003f78      0x1b8 CMakeFiles/light_switch_proxy_server_nrf52840_xxAA_s140_6.0.0.dir/__/__/__/mesh/core/src/enc.c.obj
 .debug_ranges  0x0000000000004130      0x1b0 CMakeFiles/light_switch_proxy_server_nrf52840_xxAA_s140_6.0.0.dir/__/__/__/mesh/core/src/network.c.obj
 .debug_ranges  0x00000000000042e0      0x208 CMakeFiles/light_switch_proxy_server_nrf52840_xxAA_s140_6.0.0.dir/__/__/__/mesh/core/src/net_packet.c.obj
 .debug_ranges  0x00000000000044e8       0x78 CMakeFiles/light_switch_proxy_server_nrf52840_xxAA_s140_6.0.0.dir/__/__/__/mesh/core/src/msqueue.c.obj
 .debug_ranges  0x0000000000004560       0x30 CMakeFiles/light_switch_proxy_server_nrf52840_xxAA_s140_6.0.0.dir/__/__/__/mesh/core/src/nrf_mesh_keygen.c.obj
 .debug_ranges  0x0000000000004590       0xb0 CMakeFiles/light_switch_proxy_server_nrf52840_xxAA_s140_6.0.0.dir/__/__/__/mesh/core/src/cache.c.obj
 .debug_ranges  0x0000000000004640       0xf0 CMakeFiles/light_switch_proxy_server_nrf52840_xxAA_s140_6.0.0.dir/__/__/__/mesh/core/src/list.c.obj
 .debug_ranges  0x0000000000004730       0x58 CMakeFiles/light_switch_proxy_server_nrf52840_xxAA_s140_6.0.0.dir/__/__/__/mesh/core/src/log.c.obj
 .debug_ranges  0x0000000000004788      0xc18 CMakeFiles/light_switch_proxy_server_nrf52840_xxAA_s140_6.0.0.dir/__/__/__/mesh/core/src/flash_manager.c.obj
 .debug_ranges  0x00000000000053a0       0xf8 CMakeFiles/light_switch_proxy_server_nrf52840_xxAA_s140_6.0.0.dir/__/__/__/mesh/core/src/ccm_soft.c.obj
 .debug_ranges  0x0000000000005498       0x48 CMakeFiles/light_switch_proxy_server_nrf52840_xxAA_s140_6.0.0.dir/__/__/__/mesh/core/src/replay_cache.c.obj
 .debug_ranges  0x00000000000054e0       0x90 CMakeFiles/light_switch_proxy_server_nrf52840_xxAA_s140_6.0.0.dir/__/__/__/mesh/core/src/beacon.c.obj
 .debug_ranges  0x0000000000005570       0x30 CMakeFiles/light_switch_proxy_server_nrf52840_xxAA_s140_6.0.0.dir/__/__/__/mesh/core/src/flash_manager_internal.c.obj
 .debug_ranges  0x00000000000055a0       0xc0 CMakeFiles/light_switch_proxy_server_nrf52840_xxAA_s140_6.0.0.dir/__/__/__/mesh/core/src/core_tx.c.obj
 .debug_ranges  0x0000000000005660      0x120 CMakeFiles/light_switch_proxy_server_nrf52840_xxAA_s140_6.0.0.dir/__/__/__/mesh/core/src/heartbeat.c.obj
 .debug_ranges  0x0000000000005780      0x1b8 CMakeFiles/light_switch_proxy_server_nrf52840_xxAA_s140_6.0.0.dir/__/__/__/mesh/core/src/net_beacon.c.obj
 .debug_ranges  0x0000000000005938       0xd8 CMakeFiles/light_switch_proxy_server_nrf52840_xxAA_s140_6.0.0.dir/__/__/__/mesh/core/src/fsm.c.obj
 .debug_ranges  0x0000000000005a10       0x58 CMakeFiles/light_switch_proxy_server_nrf52840_xxAA_s140_6.0.0.dir/__/__/__/mesh/core/src/core_tx_adv.c.obj
 .debug_ranges  0x0000000000005a68      0x118 CMakeFiles/light_switch_proxy_server_nrf52840_xxAA_s140_6.0.0.dir/__/__/__/mesh/bearer/src/ad_listener.c.obj
 .debug_ranges  0x0000000000005b80       0xc8 CMakeFiles/light_switch_proxy_server_nrf52840_xxAA_s140_6.0.0.dir/__/__/__/mesh/bearer/src/ad_type_filter.c.obj
 .debug_ranges  0x0000000000005c48      0x478 CMakeFiles/light_switch_proxy_server_nrf52840_xxAA_s140_6.0.0.dir/__/__/__/mesh/bearer/src/advertiser.c.obj
 .debug_ranges  0x00000000000060c0      0x188 CMakeFiles/light_switch_proxy_server_nrf52840_xxAA_s140_6.0.0.dir/__/__/__/mesh/bearer/src/bearer_handler.c.obj
 .debug_ranges  0x0000000000006248       0xa0 CMakeFiles/light_switch_proxy_server_nrf52840_xxAA_s140_6.0.0.dir/__/__/__/mesh/bearer/src/broadcast.c.obj
 .debug_ranges  0x00000000000062e8       0x28 CMakeFiles/light_switch_proxy_server_nrf52840_xxAA_s140_6.0.0.dir/__/__/__/mesh/bearer/src/filter_engine.c.obj
 .debug_ranges  0x0000000000006310       0x48 CMakeFiles/light_switch_proxy_server_nrf52840_xxAA_s140_6.0.0.dir/__/__/__/mesh/bearer/src/radio_config.c.obj
 .debug_ranges  0x0000000000006358      0x400 CMakeFiles/light_switch_proxy_server_nrf52840_xxAA_s140_6.0.0.dir/__/__/__/mesh/bearer/src/scanner.c.obj
 .debug_ranges  0x0000000000006758      0x358 CMakeFiles/light_switch_proxy_server_nrf52840_xxAA_s140_6.0.0.dir/__/__/__/mesh/gatt/src/mesh_gatt.c.obj
 .debug_ranges  0x0000000000006ab0      0x8f8 CMakeFiles/light_switch_proxy_server_nrf52840_xxAA_s140_6.0.0.dir/__/__/__/mesh/gatt/src/proxy.c.obj
 .debug_ranges  0x00000000000073a8       0xe0 CMakeFiles/light_switch_proxy_server_nrf52840_xxAA_s140_6.0.0.dir/__/__/__/mesh/gatt/src/proxy_filter.c.obj
 .debug_ranges  0x0000000000007488       0x50 CMakeFiles/light_switch_proxy_server_nrf52840_xxAA_s140_6.0.0.dir/__/__/__/models/simple_on_off/src/simple_on_off_server.c.obj
 .debug_ranges  0x00000000000074d8       0xa8 CMakeFiles/light_switch_proxy_server_nrf52840_xxAA_s140_6.0.0.dir/__/__/__/models/config/src/composition_data.c.obj
 .debug_ranges  0x0000000000007580     0x1620 CMakeFiles/light_switch_proxy_server_nrf52840_xxAA_s140_6.0.0.dir/__/__/__/models/config/src/config_server.c.obj
 .debug_ranges  0x0000000000008ba0       0x10 CMakeFiles/light_switch_proxy_server_nrf52840_xxAA_s140_6.0.0.dir/__/__/__/models/config/src/packed_index_list.c.obj
 .debug_ranges  0x0000000000008bb0      0x6c8 CMakeFiles/light_switch_proxy_server_nrf52840_xxAA_s140_6.0.0.dir/__/__/__/models/health/src/health_server.c.obj
 .debug_ranges  0x0000000000009278      0x318 CMakeFiles/light_switch_proxy_server_nrf52840_xxAA_s140_6.0.0.dir/__/__/__/mesh/access/src/access_publish.c.obj
 .debug_ranges  0x0000000000009590      0xc60 CMakeFiles/light_switch_proxy_server_nrf52840_xxAA_s140_6.0.0.dir/__/__/__/mesh/access/src/access.c.obj
 .debug_ranges  0x000000000000a1f0      0x260 CMakeFiles/light_switch_proxy_server_nrf52840_xxAA_s140_6.0.0.dir/__/__/__/mesh/access/src/access_reliable.c.obj
 .debug_ranges  0x000000000000a450     0x1fc8 CMakeFiles/light_switch_proxy_server_nrf52840_xxAA_s140_6.0.0.dir/__/__/__/mesh/access/src/device_state_manager.c.obj
 .debug_ranges  0x000000000000c418      0x1b0 CMakeFiles/light_switch_proxy_server_nrf52840_xxAA_s140_6.0.0.dir/__/__/__/mesh/prov/src/prov_provisionee.c.obj
 .debug_ranges  0x000000000000c5c8      0x140 CMakeFiles/light_switch_proxy_server_nrf52840_xxAA_s140_6.0.0.dir/__/__/__/mesh/prov/src/nrf_mesh_prov.c.obj
 .debug_ranges  0x000000000000c708      0x170 CMakeFiles/light_switch_proxy_server_nrf52840_xxAA_s140_6.0.0.dir/__/__/__/mesh/prov/src/provisioning.c.obj
 .debug_ranges  0x000000000000c878       0x40 CMakeFiles/light_switch_proxy_server_nrf52840_xxAA_s140_6.0.0.dir/__/__/__/mesh/prov/src/prov_beacon.c.obj
 .debug_ranges  0x000000000000c8b8       0x88 CMakeFiles/light_switch_proxy_server_nrf52840_xxAA_s140_6.0.0.dir/__/__/__/mesh/prov/src/prov_utils.c.obj
 .debug_ranges  0x000000000000c940      0x9c8 CMakeFiles/light_switch_proxy_server_nrf52840_xxAA_s140_6.0.0.dir/__/__/__/mesh/prov/src/prov_bearer_adv.c.obj
 .debug_ranges  0x000000000000d308       0x40 CMakeFiles/light_switch_proxy_server_nrf52840_xxAA_s140_6.0.0.dir/home/mazzer/work/nordic/sdk/nRF5_SDK_15.0.0/modules/nrfx/mdk/system_nrf52840.c.obj
 .debug_ranges  0x000000000000d348       0x18 CMakeFiles/light_switch_proxy_server_nrf52840_xxAA_s140_6.0.0.dir/home/mazzer/work/nordic/sdk/nRF5_SDK_15.0.0/components/libraries/util/app_error.c.obj
 .debug_ranges  0x000000000000d360       0x10 CMakeFiles/light_switch_proxy_server_nrf52840_xxAA_s140_6.0.0.dir/home/mazzer/work/nordic/sdk/nRF5_SDK_15.0.0/components/libraries/util/app_error_handler_gcc.c.obj
 .debug_ranges  0x000000000000d370      0x5d8 ../../../external/rtt/librtt_nrf52840_xxAA.a(SEGGER_RTT.c.obj)
 .debug_ranges  0x000000000000d948      0x1b8 ../../../external/rtt/librtt_nrf52840_xxAA.a(SEGGER_RTT_printf.c.obj)
 .debug_ranges  0x000000000000db00     0x1298 ../../../external/micro-ecc/libuECC_nrf52840_xxAA.a(uECC.c.obj)

.debug_line     0x0000000000000000    0x252d8
 .debug_line    0x0000000000000000      0xc2e CMakeFiles/light_switch_proxy_server_nrf52840_xxAA_s140_6.0.0.dir/src/main.c.obj
 .debug_line    0x0000000000000c2e      0x711 CMakeFiles/light_switch_proxy_server_nrf52840_xxAA_s140_6.0.0.dir/__/__/__/mesh/stack/src/mesh_stack.c.obj
 .debug_line    0x000000000000133f      0x89d CMakeFiles/light_switch_proxy_server_nrf52840_xxAA_s140_6.0.0.dir/__/__/common/src/mesh_provisionee.c.obj
 .debug_line    0x0000000000001bdc      0x37f CMakeFiles/light_switch_proxy_server_nrf52840_xxAA_s140_6.0.0.dir/__/__/common/src/rtt_input.c.obj
 .debug_line    0x0000000000001f5b      0x578 CMakeFiles/light_switch_proxy_server_nrf52840_xxAA_s140_6.0.0.dir/__/__/common/src/simple_hal.c.obj
 .debug_line    0x00000000000024d3      0x23a CMakeFiles/light_switch_proxy_server_nrf52840_xxAA_s140_6.0.0.dir/__/__/common/src/mesh_app_utils.c.obj
 .debug_line    0x000000000000270d      0x417 CMakeFiles/light_switch_proxy_server_nrf52840_xxAA_s140_6.0.0.dir/__/__/common/src/mesh_adv.c.obj
 .debug_line    0x0000000000002b24      0x6c1 CMakeFiles/light_switch_proxy_server_nrf52840_xxAA_s140_6.0.0.dir/__/__/__/mesh/prov/src/nrf_mesh_prov_bearer_gatt.c.obj
 .debug_line    0x00000000000031e5      0x378 CMakeFiles/light_switch_proxy_server_nrf52840_xxAA_s140_6.0.0.dir/home/mazzer/work/nordic/sdk/nRF5_SDK_15.0.0/components/libraries/util/app_util_platform.c.obj
 .debug_line    0x000000000000355d      0x6f7 CMakeFiles/light_switch_proxy_server_nrf52840_xxAA_s140_6.0.0.dir/home/mazzer/work/nordic/sdk/nRF5_SDK_15.0.0/components/ble/common/ble_advdata.c.obj
 .debug_line    0x0000000000003c54      0x290 CMakeFiles/light_switch_proxy_server_nrf52840_xxAA_s140_6.0.0.dir/home/mazzer/work/nordic/sdk/nRF5_SDK_15.0.0/components/libraries/experimental_section_vars/nrf_section_iter.c.obj
 .debug_line    0x0000000000003ee4      0x658 CMakeFiles/light_switch_proxy_server_nrf52840_xxAA_s140_6.0.0.dir/home/mazzer/work/nordic/sdk/nRF5_SDK_15.0.0/components/softdevice/common/nrf_sdh.c.obj
 .debug_line    0x000000000000453c      0x456 CMakeFiles/light_switch_proxy_server_nrf52840_xxAA_s140_6.0.0.dir/home/mazzer/work/nordic/sdk/nRF5_SDK_15.0.0/components/softdevice/common/nrf_sdh_soc.c.obj
 .debug_line    0x0000000000004992      0x578 CMakeFiles/light_switch_proxy_server_nrf52840_xxAA_s140_6.0.0.dir/home/mazzer/work/nordic/sdk/nRF5_SDK_15.0.0/components/softdevice/common/nrf_sdh_ble.c.obj
 .debug_line    0x0000000000004f0a      0x252 CMakeFiles/light_switch_proxy_server_nrf52840_xxAA_s140_6.0.0.dir/__/__/nrf_mesh_weak.c.obj
 .debug_line    0x000000000000515c      0x4ec CMakeFiles/light_switch_proxy_server_nrf52840_xxAA_s140_6.0.0.dir/__/__/common/src/app_error_weak.c.obj
 .debug_line    0x0000000000005648      0x275 CMakeFiles/light_switch_proxy_server_nrf52840_xxAA_s140_6.0.0.dir/__/__/common/src/assertion_handler_weak.c.obj
 .debug_line    0x00000000000058bd      0x250 CMakeFiles/light_switch_proxy_server_nrf52840_xxAA_s140_6.0.0.dir/__/__/__/mesh/core/src/nrf_mesh_configure.c.obj
 .debug_line    0x0000000000005b0d      0x285 CMakeFiles/light_switch_proxy_server_nrf52840_xxAA_s140_6.0.0.dir/__/__/__/mesh/core/src/aes.c.obj
 .debug_line    0x0000000000005d92      0x2c2 CMakeFiles/light_switch_proxy_server_nrf52840_xxAA_s140_6.0.0.dir/__/__/__/mesh/core/src/msg_cache.c.obj
 .debug_line    0x0000000000006054     0x125e CMakeFiles/light_switch_proxy_server_nrf52840_xxAA_s140_6.0.0.dir/__/__/__/mesh/core/src/transport.c.obj
 .debug_line    0x00000000000072b2      0x3e2 CMakeFiles/light_switch_proxy_server_nrf52840_xxAA_s140_6.0.0.dir/__/__/__/mesh/core/src/event.c.obj
 .debug_line    0x0000000000007694      0x560 CMakeFiles/light_switch_proxy_server_nrf52840_xxAA_s140_6.0.0.dir/__/__/__/mesh/core/src/packet_buffer.c.obj
 .debug_line    0x0000000000007bf4      0x8c0 CMakeFiles/light_switch_proxy_server_nrf52840_xxAA_s140_6.0.0.dir/__/__/__/mesh/core/src/flash_manager_defrag.c.obj
 .debug_line    0x00000000000084b4      0x46b CMakeFiles/light_switch_proxy_server_nrf52840_xxAA_s140_6.0.0.dir/__/__/__/mesh/core/src/fifo.c.obj
 .debug_line    0x000000000000891f      0x280 CMakeFiles/light_switch_proxy_server_nrf52840_xxAA_s140_6.0.0.dir/__/__/__/mesh/core/src/nrf_flash.c.obj
 .debug_line    0x0000000000008b9f      0x4cf CMakeFiles/light_switch_proxy_server_nrf52840_xxAA_s140_6.0.0.dir/__/__/__/mesh/core/src/packet_mgr.c.obj
 .debug_line    0x000000000000906e      0xae3 CMakeFiles/light_switch_proxy_server_nrf52840_xxAA_s140_6.0.0.dir/__/__/__/mesh/core/src/net_state.c.obj
 .debug_line    0x0000000000009b51      0x67d CMakeFiles/light_switch_proxy_server_nrf52840_xxAA_s140_6.0.0.dir/__/__/__/mesh/core/src/mesh_flash.c.obj
 .debug_line    0x000000000000a1ce      0x2fb CMakeFiles/light_switch_proxy_server_nrf52840_xxAA_s140_6.0.0.dir/__/__/__/mesh/core/src/nrf_mesh_utils.c.obj
 .debug_line    0x000000000000a4c9      0x98c CMakeFiles/light_switch_proxy_server_nrf52840_xxAA_s140_6.0.0.dir/__/__/__/mesh/core/src/nrf_mesh.c.obj
 .debug_line    0x000000000000ae55      0x33a CMakeFiles/light_switch_proxy_server_nrf52840_xxAA_s140_6.0.0.dir/__/__/__/mesh/core/src/queue.c.obj
 .debug_line    0x000000000000b18f      0x24e CMakeFiles/light_switch_proxy_server_nrf52840_xxAA_s140_6.0.0.dir/__/__/__/mesh/core/src/hal.c.obj
 .debug_line    0x000000000000b3dd      0x468 CMakeFiles/light_switch_proxy_server_nrf52840_xxAA_s140_6.0.0.dir/__/__/__/mesh/core/src/aes_cmac.c.obj
 .debug_line    0x000000000000b845      0x506 CMakeFiles/light_switch_proxy_server_nrf52840_xxAA_s140_6.0.0.dir/__/__/__/mesh/core/src/timer_scheduler.c.obj
 .debug_line    0x000000000000bd4b      0x55d CMakeFiles/light_switch_proxy_server_nrf52840_xxAA_s140_6.0.0.dir/__/__/__/mesh/core/src/timer.c.obj
 .debug_line    0x000000000000c2a8      0x17f CMakeFiles/light_switch_proxy_server_nrf52840_xxAA_s140_6.0.0.dir/__/__/__/mesh/core/src/ticker.c.obj
 .debug_line    0x000000000000c427      0x344 CMakeFiles/light_switch_proxy_server_nrf52840_xxAA_s140_6.0.0.dir/__/__/__/mesh/core/src/rand.c.obj
 .debug_line    0x000000000000c76b      0x339 CMakeFiles/light_switch_proxy_server_nrf52840_xxAA_s140_6.0.0.dir/__/__/__/mesh/core/src/nrf_mesh_opt.c.obj
 .debug_line    0x000000000000caa4      0x714 CMakeFiles/light_switch_proxy_server_nrf52840_xxAA_s140_6.0.0.dir/__/__/__/mesh/core/src/timeslot.c.obj
 .debug_line    0x000000000000d1b8      0x6a1 CMakeFiles/light_switch_proxy_server_nrf52840_xxAA_s140_6.0.0.dir/__/__/__/mesh/core/src/bearer_event.c.obj
 .debug_line    0x000000000000d859      0x524 CMakeFiles/light_switch_proxy_server_nrf52840_xxAA_s140_6.0.0.dir/__/__/__/mesh/core/src/enc.c.obj
 .debug_line    0x000000000000dd7d      0x687 CMakeFiles/light_switch_proxy_server_nrf52840_xxAA_s140_6.0.0.dir/__/__/__/mesh/core/src/network.c.obj
 .debug_line    0x000000000000e404      0x625 CMakeFiles/light_switch_proxy_server_nrf52840_xxAA_s140_6.0.0.dir/__/__/__/mesh/core/src/net_packet.c.obj
 .debug_line    0x000000000000ea29      0x38d CMakeFiles/light_switch_proxy_server_nrf52840_xxAA_s140_6.0.0.dir/__/__/__/mesh/core/src/msqueue.c.obj
 .debug_line    0x000000000000edb6      0x2f5 CMakeFiles/light_switch_proxy_server_nrf52840_xxAA_s140_6.0.0.dir/__/__/__/mesh/core/src/nrf_mesh_keygen.c.obj
 .debug_line    0x000000000000f0ab      0x255 CMakeFiles/light_switch_proxy_server_nrf52840_xxAA_s140_6.0.0.dir/__/__/__/mesh/core/src/cache.c.obj
 .debug_line    0x000000000000f300      0x3e9 CMakeFiles/light_switch_proxy_server_nrf52840_xxAA_s140_6.0.0.dir/__/__/__/mesh/core/src/list.c.obj
 .debug_line    0x000000000000f6e9      0x334 CMakeFiles/light_switch_proxy_server_nrf52840_xxAA_s140_6.0.0.dir/__/__/__/mesh/core/src/log.c.obj
 .debug_line    0x000000000000fa1d      0xc3d CMakeFiles/light_switch_proxy_server_nrf52840_xxAA_s140_6.0.0.dir/__/__/__/mesh/core/src/flash_manager.c.obj
 .debug_line    0x000000000001065a      0x4ac CMakeFiles/light_switch_proxy_server_nrf52840_xxAA_s140_6.0.0.dir/__/__/__/mesh/core/src/ccm_soft.c.obj
 .debug_line    0x0000000000010b06      0x1dc CMakeFiles/light_switch_proxy_server_nrf52840_xxAA_s140_6.0.0.dir/__/__/__/mesh/core/src/replay_cache.c.obj
 .debug_line    0x0000000000010ce2      0x5cb CMakeFiles/light_switch_proxy_server_nrf52840_xxAA_s140_6.0.0.dir/__/__/__/mesh/core/src/beacon.c.obj
 .debug_line    0x00000000000112ad      0x31e CMakeFiles/light_switch_proxy_server_nrf52840_xxAA_s140_6.0.0.dir/__/__/__/mesh/core/src/flash_manager_internal.c.obj
 .debug_line    0x00000000000115cb      0x431 CMakeFiles/light_switch_proxy_server_nrf52840_xxAA_s140_6.0.0.dir/__/__/__/mesh/core/src/core_tx.c.obj
 .debug_line    0x00000000000119fc      0x6bb CMakeFiles/light_switch_proxy_server_nrf52840_xxAA_s140_6.0.0.dir/__/__/__/mesh/core/src/heartbeat.c.obj
 .debug_line    0x00000000000120b7      0x75c CMakeFiles/light_switch_proxy_server_nrf52840_xxAA_s140_6.0.0.dir/__/__/__/mesh/core/src/net_beacon.c.obj
 .debug_line    0x0000000000012813      0x48d CMakeFiles/light_switch_proxy_server_nrf52840_xxAA_s140_6.0.0.dir/__/__/__/mesh/core/src/fsm.c.obj
 .debug_line    0x0000000000012ca0      0x5cf CMakeFiles/light_switch_proxy_server_nrf52840_xxAA_s140_6.0.0.dir/__/__/__/mesh/core/src/core_tx_adv.c.obj
 .debug_line    0x000000000001326f      0x43e CMakeFiles/light_switch_proxy_server_nrf52840_xxAA_s140_6.0.0.dir/__/__/__/mesh/bearer/src/ad_listener.c.obj
 .debug_line    0x00000000000136ad      0x512 CMakeFiles/light_switch_proxy_server_nrf52840_xxAA_s140_6.0.0.dir/__/__/__/mesh/bearer/src/ad_type_filter.c.obj
 .debug_line    0x0000000000013bbf      0x8d3 CMakeFiles/light_switch_proxy_server_nrf52840_xxAA_s140_6.0.0.dir/__/__/__/mesh/bearer/src/advertiser.c.obj
 .debug_line    0x0000000000014492      0x61d CMakeFiles/light_switch_proxy_server_nrf52840_xxAA_s140_6.0.0.dir/__/__/__/mesh/bearer/src/bearer_handler.c.obj
 .debug_line    0x0000000000014aaf      0x435 CMakeFiles/light_switch_proxy_server_nrf52840_xxAA_s140_6.0.0.dir/__/__/__/mesh/bearer/src/broadcast.c.obj
 .debug_line    0x0000000000014ee4      0x453 CMakeFiles/light_switch_proxy_server_nrf52840_xxAA_s140_6.0.0.dir/__/__/__/mesh/bearer/src/filter_engine.c.obj
 .debug_line    0x0000000000015337      0x34c CMakeFiles/light_switch_proxy_server_nrf52840_xxAA_s140_6.0.0.dir/__/__/__/mesh/bearer/src/radio_config.c.obj
 .debug_line    0x0000000000015683      0x8f5 CMakeFiles/light_switch_proxy_server_nrf52840_xxAA_s140_6.0.0.dir/__/__/__/mesh/bearer/src/scanner.c.obj
 .debug_line    0x0000000000015f78      0x906 CMakeFiles/light_switch_proxy_server_nrf52840_xxAA_s140_6.0.0.dir/__/__/__/mesh/gatt/src/mesh_gatt.c.obj
 .debug_line    0x000000000001687e      0xe66 CMakeFiles/light_switch_proxy_server_nrf52840_xxAA_s140_6.0.0.dir/__/__/__/mesh/gatt/src/proxy.c.obj
 .debug_line    0x00000000000176e4      0x35b CMakeFiles/light_switch_proxy_server_nrf52840_xxAA_s140_6.0.0.dir/__/__/__/mesh/gatt/src/proxy_filter.c.obj
 .debug_line    0x0000000000017a3f      0x454 CMakeFiles/light_switch_proxy_server_nrf52840_xxAA_s140_6.0.0.dir/__/__/__/models/simple_on_off/src/simple_on_off_server.c.obj
 .debug_line    0x0000000000017e93      0x3d5 CMakeFiles/light_switch_proxy_server_nrf52840_xxAA_s140_6.0.0.dir/__/__/__/models/config/src/composition_data.c.obj
 .debug_line    0x0000000000018268     0x221f CMakeFiles/light_switch_proxy_server_nrf52840_xxAA_s140_6.0.0.dir/__/__/__/models/config/src/config_server.c.obj
 .debug_line    0x000000000001a487      0x10a CMakeFiles/light_switch_proxy_server_nrf52840_xxAA_s140_6.0.0.dir/__/__/__/models/config/src/packed_index_list.c.obj
 .debug_line    0x000000000001a591      0xb59 CMakeFiles/light_switch_proxy_server_nrf52840_xxAA_s140_6.0.0.dir/__/__/__/models/health/src/health_server.c.obj
 .debug_line    0x000000000001b0ea      0x5cb CMakeFiles/light_switch_proxy_server_nrf52840_xxAA_s140_6.0.0.dir/__/__/__/mesh/access/src/access_publish.c.obj
 .debug_line    0x000000000001b6b5     0x1377 CMakeFiles/light_switch_proxy_server_nrf52840_xxAA_s140_6.0.0.dir/__/__/__/mesh/access/src/access.c.obj
 .debug_line    0x000000000001ca2c      0x6ad CMakeFiles/light_switch_proxy_server_nrf52840_xxAA_s140_6.0.0.dir/__/__/__/mesh/access/src/access_reliable.c.obj
 .debug_line    0x000000000001d0d9     0x2671 CMakeFiles/light_switch_proxy_server_nrf52840_xxAA_s140_6.0.0.dir/__/__/__/mesh/access/src/device_state_manager.c.obj
 .debug_line    0x000000000001f74a      0x809 CMakeFiles/light_switch_proxy_server_nrf52840_xxAA_s140_6.0.0.dir/__/__/__/mesh/prov/src/prov_provisionee.c.obj
 .debug_line    0x000000000001ff53      0x68a CMakeFiles/light_switch_proxy_server_nrf52840_xxAA_s140_6.0.0.dir/__/__/__/mesh/prov/src/nrf_mesh_prov.c.obj
 .debug_line    0x00000000000205dd      0x517 CMakeFiles/light_switch_proxy_server_nrf52840_xxAA_s140_6.0.0.dir/__/__/__/mesh/prov/src/provisioning.c.obj
 .debug_line    0x0000000000020af4      0x5c7 CMakeFiles/light_switch_proxy_server_nrf52840_xxAA_s140_6.0.0.dir/__/__/__/mesh/prov/src/prov_beacon.c.obj
 .debug_line    0x00000000000210bb      0x597 CMakeFiles/light_switch_proxy_server_nrf52840_xxAA_s140_6.0.0.dir/__/__/__/mesh/prov/src/prov_utils.c.obj
 .debug_line    0x0000000000021652      0xf1f CMakeFiles/light_switch_proxy_server_nrf52840_xxAA_s140_6.0.0.dir/__/__/__/mesh/prov/src/prov_bearer_adv.c.obj
 .debug_line    0x0000000000022571      0x22d CMakeFiles/light_switch_proxy_server_nrf52840_xxAA_s140_6.0.0.dir/home/mazzer/work/nordic/sdk/nRF5_SDK_15.0.0/modules/nrfx/mdk/system_nrf52840.c.obj
 .debug_line    0x000000000002279e       0xa4 CMakeFiles/light_switch_proxy_server_nrf52840_xxAA_s140_6.0.0.dir/home/mazzer/work/nordic/sdk/nRF5_SDK_15.0.0/modules/nrfx/mdk/gcc_startup_nrf52840.S.obj
 .debug_line    0x0000000000022842      0x274 CMakeFiles/light_switch_proxy_server_nrf52840_xxAA_s140_6.0.0.dir/home/mazzer/work/nordic/sdk/nRF5_SDK_15.0.0/components/libraries/util/app_error.c.obj
 .debug_line    0x0000000000022ab6      0x217 CMakeFiles/light_switch_proxy_server_nrf52840_xxAA_s140_6.0.0.dir/home/mazzer/work/nordic/sdk/nRF5_SDK_15.0.0/components/libraries/util/app_error_handler_gcc.c.obj
 .debug_line    0x0000000000022ccd      0xaaf ../../../external/rtt/librtt_nrf52840_xxAA.a(SEGGER_RTT.c.obj)
 .debug_line    0x000000000002377c      0x401 ../../../external/rtt/librtt_nrf52840_xxAA.a(SEGGER_RTT_printf.c.obj)
 .debug_line    0x0000000000023b7d     0x175b ../../../external/micro-ecc/libuECC_nrf52840_xxAA.a(uECC.c.obj)

.debug_str      0x0000000000000000    0x18e47
 .debug_str     0x0000000000000000     0x25b2 CMakeFiles/light_switch_proxy_server_nrf52840_xxAA_s140_6.0.0.dir/src/main.c.obj
                                       0x297c (size before relaxing)
 .debug_str     0x00000000000025b2     0x1133 CMakeFiles/light_switch_proxy_server_nrf52840_xxAA_s140_6.0.0.dir/__/__/__/mesh/stack/src/mesh_stack.c.obj
                                       0x27c9 (size before relaxing)
 .debug_str     0x00000000000036e5     0x1b91 CMakeFiles/light_switch_proxy_server_nrf52840_xxAA_s140_6.0.0.dir/__/__/common/src/mesh_provisionee.c.obj
                                       0x29c5 (size before relaxing)
 .debug_str     0x0000000000005276      0x242 CMakeFiles/light_switch_proxy_server_nrf52840_xxAA_s140_6.0.0.dir/__/__/common/src/rtt_input.c.obj
                                        0xc24 (size before relaxing)
 .debug_str     0x00000000000054b8      0x20c CMakeFiles/light_switch_proxy_server_nrf52840_xxAA_s140_6.0.0.dir/__/__/common/src/simple_hal.c.obj
                                        0xda6 (size before relaxing)
 .debug_str     0x00000000000056c4      0x1af CMakeFiles/light_switch_proxy_server_nrf52840_xxAA_s140_6.0.0.dir/__/__/common/src/mesh_app_utils.c.obj
                                        0x82f (size before relaxing)
 .debug_str     0x0000000000005873      0x5a1 CMakeFiles/light_switch_proxy_server_nrf52840_xxAA_s140_6.0.0.dir/__/__/common/src/mesh_adv.c.obj
                                       0x10dd (size before relaxing)
 .debug_str     0x0000000000005e14      0x71d CMakeFiles/light_switch_proxy_server_nrf52840_xxAA_s140_6.0.0.dir/__/__/__/mesh/prov/src/nrf_mesh_prov_bearer_gatt.c.obj
                                       0x1538 (size before relaxing)
 .debug_str     0x0000000000006531      0x20b CMakeFiles/light_switch_proxy_server_nrf52840_xxAA_s140_6.0.0.dir/home/mazzer/work/nordic/sdk/nRF5_SDK_15.0.0/components/libraries/util/app_util_platform.c.obj
                                        0xcdc (size before relaxing)
 .debug_str     0x000000000000673c      0x4dd CMakeFiles/light_switch_proxy_server_nrf52840_xxAA_s140_6.0.0.dir/home/mazzer/work/nordic/sdk/nRF5_SDK_15.0.0/components/ble/common/ble_advdata.c.obj
                                       0x133e (size before relaxing)
 .debug_str     0x0000000000006c19       0xee CMakeFiles/light_switch_proxy_server_nrf52840_xxAA_s140_6.0.0.dir/home/mazzer/work/nordic/sdk/nRF5_SDK_15.0.0/components/libraries/experimental_section_vars/nrf_section_iter.c.obj
                                        0x759 (size before relaxing)
 .debug_str     0x0000000000006d07      0x545 CMakeFiles/light_switch_proxy_server_nrf52840_xxAA_s140_6.0.0.dir/home/mazzer/work/nordic/sdk/nRF5_SDK_15.0.0/components/softdevice/common/nrf_sdh.c.obj
                                       0x1248 (size before relaxing)
 .debug_str     0x000000000000724c       0xdf CMakeFiles/light_switch_proxy_server_nrf52840_xxAA_s140_6.0.0.dir/home/mazzer/work/nordic/sdk/nRF5_SDK_15.0.0/components/softdevice/common/nrf_sdh_soc.c.obj
                                        0xdff (size before relaxing)
 .debug_str     0x000000000000732b     0x147f CMakeFiles/light_switch_proxy_server_nrf52840_xxAA_s140_6.0.0.dir/home/mazzer/work/nordic/sdk/nRF5_SDK_15.0.0/components/softdevice/common/nrf_sdh_ble.c.obj
                                       0x2090 (size before relaxing)
 .debug_str     0x00000000000087aa       0x73 CMakeFiles/light_switch_proxy_server_nrf52840_xxAA_s140_6.0.0.dir/__/__/nrf_mesh_weak.c.obj
                                        0x692 (size before relaxing)
 .debug_str     0x000000000000881d       0xce CMakeFiles/light_switch_proxy_server_nrf52840_xxAA_s140_6.0.0.dir/__/__/common/src/app_error_weak.c.obj
                                        0x8d3 (size before relaxing)
 .debug_str     0x00000000000088eb       0x67 CMakeFiles/light_switch_proxy_server_nrf52840_xxAA_s140_6.0.0.dir/__/__/common/src/assertion_handler_weak.c.obj
                                        0x6e8 (size before relaxing)
 .debug_str     0x0000000000008952       0xac CMakeFiles/light_switch_proxy_server_nrf52840_xxAA_s140_6.0.0.dir/__/__/__/mesh/core/src/nrf_mesh_configure.c.obj
                                        0x863 (size before relaxing)
 .debug_str     0x00000000000089fe       0xf8 CMakeFiles/light_switch_proxy_server_nrf52840_xxAA_s140_6.0.0.dir/__/__/__/mesh/core/src/aes.c.obj
                                        0xb90 (size before relaxing)
 .debug_str     0x0000000000008af6       0xf2 CMakeFiles/light_switch_proxy_server_nrf52840_xxAA_s140_6.0.0.dir/__/__/__/mesh/core/src/msg_cache.c.obj
                                        0x72f (size before relaxing)
 .debug_str     0x0000000000008be8     0x1679 CMakeFiles/light_switch_proxy_server_nrf52840_xxAA_s140_6.0.0.dir/__/__/__/mesh/core/src/transport.c.obj
                                       0x319a (size before relaxing)
 .debug_str     0x000000000000a261       0xb9 CMakeFiles/light_switch_proxy_server_nrf52840_xxAA_s140_6.0.0.dir/__/__/__/mesh/core/src/event.c.obj
                                       0x1736 (size before relaxing)
 .debug_str     0x000000000000a31a      0x344 CMakeFiles/light_switch_proxy_server_nrf52840_xxAA_s140_6.0.0.dir/__/__/__/mesh/core/src/packet_buffer.c.obj
                                        0xb91 (size before relaxing)
 .debug_str     0x000000000000a65e      0x94b CMakeFiles/light_switch_proxy_server_nrf52840_xxAA_s140_6.0.0.dir/__/__/__/mesh/core/src/flash_manager_defrag.c.obj
                                       0x1203 (size before relaxing)
 .debug_str     0x000000000000afa9       0xd5 CMakeFiles/light_switch_proxy_server_nrf52840_xxAA_s140_6.0.0.dir/__/__/__/mesh/core/src/fifo.c.obj
                                        0x751 (size before relaxing)
 .debug_str     0x000000000000b07e      0x110 CMakeFiles/light_switch_proxy_server_nrf52840_xxAA_s140_6.0.0.dir/__/__/__/mesh/core/src/nrf_flash.c.obj
                                        0x76a (size before relaxing)
 .debug_str     0x000000000000b18e      0x2be CMakeFiles/light_switch_proxy_server_nrf52840_xxAA_s140_6.0.0.dir/__/__/__/mesh/core/src/packet_mgr.c.obj
                                        0xa1b (size before relaxing)
 .debug_str     0x000000000000b44c      0x5bc CMakeFiles/light_switch_proxy_server_nrf52840_xxAA_s140_6.0.0.dir/__/__/__/mesh/core/src/net_state.c.obj
                                       0x21dc (size before relaxing)
 .debug_str     0x000000000000ba08      0x3b6 CMakeFiles/light_switch_proxy_server_nrf52840_xxAA_s140_6.0.0.dir/__/__/__/mesh/core/src/mesh_flash.c.obj
                                        0xd52 (size before relaxing)
 .debug_str     0x000000000000bdbe       0xcb CMakeFiles/light_switch_proxy_server_nrf52840_xxAA_s140_6.0.0.dir/__/__/__/mesh/core/src/nrf_mesh_utils.c.obj
                                        0x7c7 (size before relaxing)
 .debug_str     0x000000000000be89      0x61e CMakeFiles/light_switch_proxy_server_nrf52840_xxAA_s140_6.0.0.dir/__/__/__/mesh/core/src/nrf_mesh.c.obj
                                       0x21cd (size before relaxing)
 .debug_str     0x000000000000c4a7       0x92 CMakeFiles/light_switch_proxy_server_nrf52840_xxAA_s140_6.0.0.dir/__/__/__/mesh/core/src/queue.c.obj
                                        0x6f9 (size before relaxing)
 .debug_str     0x000000000000c539       0xbd CMakeFiles/light_switch_proxy_server_nrf52840_xxAA_s140_6.0.0.dir/__/__/__/mesh/core/src/hal.c.obj
                                        0x821 (size before relaxing)
 .debug_str     0x000000000000c5f6      0x107 CMakeFiles/light_switch_proxy_server_nrf52840_xxAA_s140_6.0.0.dir/__/__/__/mesh/core/src/aes_cmac.c.obj
                                        0x78b (size before relaxing)
 .debug_str     0x000000000000c6fd      0x174 CMakeFiles/light_switch_proxy_server_nrf52840_xxAA_s140_6.0.0.dir/__/__/__/mesh/core/src/timer_scheduler.c.obj
                                        0x9aa (size before relaxing)
 .debug_str     0x000000000000c871      0x212 CMakeFiles/light_switch_proxy_server_nrf52840_xxAA_s140_6.0.0.dir/__/__/__/mesh/core/src/timer.c.obj
                                        0x924 (size before relaxing)
 .debug_str     0x000000000000ca83       0x79 CMakeFiles/light_switch_proxy_server_nrf52840_xxAA_s140_6.0.0.dir/__/__/__/mesh/core/src/ticker.c.obj
                                        0x3cb (size before relaxing)
 .debug_str     0x000000000000cafc       0xe3 CMakeFiles/light_switch_proxy_server_nrf52840_xxAA_s140_6.0.0.dir/__/__/__/mesh/core/src/rand.c.obj
                                        0x7e4 (size before relaxing)
 .debug_str     0x000000000000cbdf       0xbf CMakeFiles/light_switch_proxy_server_nrf52840_xxAA_s140_6.0.0.dir/__/__/__/mesh/core/src/nrf_mesh_opt.c.obj
                                        0x966 (size before relaxing)
 .debug_str     0x000000000000cc9e      0x924 CMakeFiles/light_switch_proxy_server_nrf52840_xxAA_s140_6.0.0.dir/__/__/__/mesh/core/src/timeslot.c.obj
                                       0x1995 (size before relaxing)
 .debug_str     0x000000000000d5c2      0x2c4 CMakeFiles/light_switch_proxy_server_nrf52840_xxAA_s140_6.0.0.dir/__/__/__/mesh/core/src/bearer_event.c.obj
                                        0xf74 (size before relaxing)
 .debug_str     0x000000000000d886      0x19a CMakeFiles/light_switch_proxy_server_nrf52840_xxAA_s140_6.0.0.dir/__/__/__/mesh/core/src/enc.c.obj
                                        0xa5e (size before relaxing)
 .debug_str     0x000000000000da20      0x34b CMakeFiles/light_switch_proxy_server_nrf52840_xxAA_s140_6.0.0.dir/__/__/__/mesh/core/src/network.c.obj
                                       0x1379 (size before relaxing)
 .debug_str     0x000000000000dd6b      0x346 CMakeFiles/light_switch_proxy_server_nrf52840_xxAA_s140_6.0.0.dir/__/__/__/mesh/core/src/net_packet.c.obj
                                        0xefc (size before relaxing)
 .debug_str     0x000000000000e0b1       0x8a CMakeFiles/light_switch_proxy_server_nrf52840_xxAA_s140_6.0.0.dir/__/__/__/mesh/core/src/msqueue.c.obj
                                        0x735 (size before relaxing)
 .debug_str     0x000000000000e13b       0xff CMakeFiles/light_switch_proxy_server_nrf52840_xxAA_s140_6.0.0.dir/__/__/__/mesh/core/src/nrf_mesh_keygen.c.obj
                                        0x41a (size before relaxing)
 .debug_str     0x000000000000e23a       0xdf CMakeFiles/light_switch_proxy_server_nrf52840_xxAA_s140_6.0.0.dir/__/__/__/mesh/core/src/cache.c.obj
                                        0x725 (size before relaxing)
 .debug_str     0x000000000000e319       0xad CMakeFiles/light_switch_proxy_server_nrf52840_xxAA_s140_6.0.0.dir/__/__/__/mesh/core/src/list.c.obj
                                        0x334 (size before relaxing)
 .debug_str     0x000000000000e3c6      0x127 CMakeFiles/light_switch_proxy_server_nrf52840_xxAA_s140_6.0.0.dir/__/__/__/mesh/core/src/log.c.obj
                                        0x846 (size before relaxing)
 .debug_str     0x000000000000e4ed      0x55b CMakeFiles/light_switch_proxy_server_nrf52840_xxAA_s140_6.0.0.dir/__/__/__/mesh/core/src/flash_manager.c.obj
                                       0x15ee (size before relaxing)
 .debug_str     0x000000000000ea48       0xbc CMakeFiles/light_switch_proxy_server_nrf52840_xxAA_s140_6.0.0.dir/__/__/__/mesh/core/src/ccm_soft.c.obj
                                        0x7d3 (size before relaxing)
 .debug_str     0x000000000000eb04       0xc9 CMakeFiles/light_switch_proxy_server_nrf52840_xxAA_s140_6.0.0.dir/__/__/__/mesh/core/src/replay_cache.c.obj
                                        0x703 (size before relaxing)
 .debug_str     0x000000000000ebcd      0x10b CMakeFiles/light_switch_proxy_server_nrf52840_xxAA_s140_6.0.0.dir/__/__/__/mesh/core/src/beacon.c.obj
                                       0x1179 (size before relaxing)
 .debug_str     0x000000000000ecd8       0x6f CMakeFiles/light_switch_proxy_server_nrf52840_xxAA_s140_6.0.0.dir/__/__/__/mesh/core/src/flash_manager_internal.c.obj
                                        0x81a (size before relaxing)
 .debug_str     0x000000000000ed47      0x2f5 CMakeFiles/light_switch_proxy_server_nrf52840_xxAA_s140_6.0.0.dir/__/__/__/mesh/core/src/core_tx.c.obj
                                        0xc65 (size before relaxing)
 .debug_str     0x000000000000f03c      0x44f CMakeFiles/light_switch_proxy_server_nrf52840_xxAA_s140_6.0.0.dir/__/__/__/mesh/core/src/heartbeat.c.obj
                                       0x22c3 (size before relaxing)
 .debug_str     0x000000000000f48b      0x293 CMakeFiles/light_switch_proxy_server_nrf52840_xxAA_s140_6.0.0.dir/__/__/__/mesh/core/src/net_beacon.c.obj
                                       0x2123 (size before relaxing)
 .debug_str     0x000000000000f71e       0xfa CMakeFiles/light_switch_proxy_server_nrf52840_xxAA_s140_6.0.0.dir/__/__/__/mesh/core/src/fsm.c.obj
                                        0x9fa (size before relaxing)
 .debug_str     0x000000000000f818      0x13e CMakeFiles/light_switch_proxy_server_nrf52840_xxAA_s140_6.0.0.dir/__/__/__/mesh/core/src/core_tx_adv.c.obj
                                       0x134f (size before relaxing)
 .debug_str     0x000000000000f956      0x1c4 CMakeFiles/light_switch_proxy_server_nrf52840_xxAA_s140_6.0.0.dir/__/__/__/mesh/bearer/src/ad_listener.c.obj
                                        0xc58 (size before relaxing)
 .debug_str     0x000000000000fb1a      0x199 CMakeFiles/light_switch_proxy_server_nrf52840_xxAA_s140_6.0.0.dir/__/__/__/mesh/bearer/src/ad_type_filter.c.obj
                                        0xa15 (size before relaxing)
 .debug_str     0x000000000000fcb3      0x358 CMakeFiles/light_switch_proxy_server_nrf52840_xxAA_s140_6.0.0.dir/__/__/__/mesh/bearer/src/advertiser.c.obj
                                       0x15d7 (size before relaxing)
 .debug_str     0x000000000001000b      0x493 CMakeFiles/light_switch_proxy_server_nrf52840_xxAA_s140_6.0.0.dir/__/__/__/mesh/bearer/src/bearer_handler.c.obj
                                       0x1166 (size before relaxing)
 .debug_str     0x000000000001049e      0x1e3 CMakeFiles/light_switch_proxy_server_nrf52840_xxAA_s140_6.0.0.dir/__/__/__/mesh/bearer/src/broadcast.c.obj
                                       0x10d8 (size before relaxing)
 .debug_str     0x0000000000010681       0xa9 CMakeFiles/light_switch_proxy_server_nrf52840_xxAA_s140_6.0.0.dir/__/__/__/mesh/bearer/src/filter_engine.c.obj
                                        0x882 (size before relaxing)
 .debug_str     0x000000000001072a       0xb0 CMakeFiles/light_switch_proxy_server_nrf52840_xxAA_s140_6.0.0.dir/__/__/__/mesh/bearer/src/radio_config.c.obj
                                        0x926 (size before relaxing)
 .debug_str     0x00000000000107da      0x494 CMakeFiles/light_switch_proxy_server_nrf52840_xxAA_s140_6.0.0.dir/__/__/__/mesh/bearer/src/scanner.c.obj
                                       0x1aaf (size before relaxing)
 .debug_str     0x0000000000010c6e      0xcaf CMakeFiles/light_switch_proxy_server_nrf52840_xxAA_s140_6.0.0.dir/__/__/__/mesh/gatt/src/mesh_gatt.c.obj
                                       0x2f3a (size before relaxing)
 .debug_str     0x000000000001191d      0x6e3 CMakeFiles/light_switch_proxy_server_nrf52840_xxAA_s140_6.0.0.dir/__/__/__/mesh/gatt/src/proxy.c.obj
                                       0x2a37 (size before relaxing)
 .debug_str     0x0000000000012000       0x75 CMakeFiles/light_switch_proxy_server_nrf52840_xxAA_s140_6.0.0.dir/__/__/__/mesh/gatt/src/proxy_filter.c.obj
                                        0x3ce (size before relaxing)
 .debug_str     0x0000000000012075      0x2fd CMakeFiles/light_switch_proxy_server_nrf52840_xxAA_s140_6.0.0.dir/__/__/__/models/simple_on_off/src/simple_on_off_server.c.obj
                                        0xaa5 (size before relaxing)
 .debug_str     0x0000000000012372      0x258 CMakeFiles/light_switch_proxy_server_nrf52840_xxAA_s140_6.0.0.dir/__/__/__/models/config/src/composition_data.c.obj
                                        0x953 (size before relaxing)
 .debug_str     0x00000000000125ca     0x263f CMakeFiles/light_switch_proxy_server_nrf52840_xxAA_s140_6.0.0.dir/__/__/__/models/config/src/config_server.c.obj
                                       0x5113 (size before relaxing)
 .debug_str     0x0000000000014c09       0xa0 CMakeFiles/light_switch_proxy_server_nrf52840_xxAA_s140_6.0.0.dir/__/__/__/models/config/src/packed_index_list.c.obj
                                        0x2cc (size before relaxing)
 .debug_str     0x0000000000014ca9      0x638 CMakeFiles/light_switch_proxy_server_nrf52840_xxAA_s140_6.0.0.dir/__/__/__/models/health/src/health_server.c.obj
                                       0x1715 (size before relaxing)
 .debug_str     0x00000000000152e1      0x29b CMakeFiles/light_switch_proxy_server_nrf52840_xxAA_s140_6.0.0.dir/__/__/__/mesh/access/src/access_publish.c.obj
                                        0xc42 (size before relaxing)
 .debug_str     0x000000000001557c      0x866 CMakeFiles/light_switch_proxy_server_nrf52840_xxAA_s140_6.0.0.dir/__/__/__/mesh/access/src/access.c.obj
                                       0x2ff9 (size before relaxing)
 .debug_str     0x0000000000015de2      0x240 CMakeFiles/light_switch_proxy_server_nrf52840_xxAA_s140_6.0.0.dir/__/__/__/mesh/access/src/access_reliable.c.obj
                                       0x107c (size before relaxing)
 .debug_str     0x0000000000016022      0xcfe CMakeFiles/light_switch_proxy_server_nrf52840_xxAA_s140_6.0.0.dir/__/__/__/mesh/access/src/device_state_manager.c.obj
                                       0x3118 (size before relaxing)
 .debug_str     0x0000000000016d20      0x606 CMakeFiles/light_switch_proxy_server_nrf52840_xxAA_s140_6.0.0.dir/__/__/__/mesh/prov/src/prov_provisionee.c.obj
                                       0x225e (size before relaxing)
 .debug_str     0x0000000000017326      0x270 CMakeFiles/light_switch_proxy_server_nrf52840_xxAA_s140_6.0.0.dir/__/__/__/mesh/prov/src/nrf_mesh_prov.c.obj
                                       0x1e50 (size before relaxing)
 .debug_str     0x0000000000017596      0x124 CMakeFiles/light_switch_proxy_server_nrf52840_xxAA_s140_6.0.0.dir/__/__/__/mesh/prov/src/provisioning.c.obj
                                        0xfa1 (size before relaxing)
 .debug_str     0x00000000000176ba       0xd2 CMakeFiles/light_switch_proxy_server_nrf52840_xxAA_s140_6.0.0.dir/__/__/__/mesh/prov/src/prov_beacon.c.obj
                                       0x19d2 (size before relaxing)
 .debug_str     0x000000000001778c      0x1fa CMakeFiles/light_switch_proxy_server_nrf52840_xxAA_s140_6.0.0.dir/__/__/__/mesh/prov/src/prov_utils.c.obj
                                       0x1f9f (size before relaxing)
 .debug_str     0x0000000000017986      0x426 CMakeFiles/light_switch_proxy_server_nrf52840_xxAA_s140_6.0.0.dir/__/__/__/mesh/prov/src/prov_bearer_adv.c.obj
                                       0x1c36 (size before relaxing)
 .debug_str     0x0000000000017dac      0x3cb CMakeFiles/light_switch_proxy_server_nrf52840_xxAA_s140_6.0.0.dir/home/mazzer/work/nordic/sdk/nRF5_SDK_15.0.0/modules/nrfx/mdk/system_nrf52840.c.obj
                                        0x977 (size before relaxing)
 .debug_str     0x0000000000018177       0x64 CMakeFiles/light_switch_proxy_server_nrf52840_xxAA_s140_6.0.0.dir/home/mazzer/work/nordic/sdk/nRF5_SDK_15.0.0/modules/nrfx/mdk/gcc_startup_nrf52840.S.obj
                                         0xc3 (size before relaxing)
 .debug_str     0x00000000000181db       0xa1 CMakeFiles/light_switch_proxy_server_nrf52840_xxAA_s140_6.0.0.dir/home/mazzer/work/nordic/sdk/nRF5_SDK_15.0.0/components/libraries/util/app_error.c.obj
                                        0x773 (size before relaxing)
 .debug_str     0x000000000001827c       0x5f CMakeFiles/light_switch_proxy_server_nrf52840_xxAA_s140_6.0.0.dir/home/mazzer/work/nordic/sdk/nRF5_SDK_15.0.0/components/libraries/util/app_error_handler_gcc.c.obj
                                        0x6d8 (size before relaxing)
 .debug_str     0x00000000000182db      0x33f ../../../external/rtt/librtt_nrf52840_xxAA.a(SEGGER_RTT.c.obj)
                                        0x982 (size before relaxing)
 .debug_str     0x000000000001861a      0x116 ../../../external/rtt/librtt_nrf52840_xxAA.a(SEGGER_RTT_printf.c.obj)
                                        0x7f2 (size before relaxing)
 .debug_str     0x0000000000018730      0x717 ../../../external/micro-ecc/libuECC_nrf52840_xxAA.a(uECC.c.obj)
                                        0x8df (size before relaxing)

.debug_frame    0x0000000000000000     0x7acc
 .debug_frame   0x0000000000000000      0x1a8 CMakeFiles/light_switch_proxy_server_nrf52840_xxAA_s140_6.0.0.dir/src/main.c.obj
 .debug_frame   0x00000000000001a8       0xe8 CMakeFiles/light_switch_proxy_server_nrf52840_xxAA_s140_6.0.0.dir/__/__/__/mesh/stack/src/mesh_stack.c.obj
 .debug_frame   0x0000000000000290       0x88 CMakeFiles/light_switch_proxy_server_nrf52840_xxAA_s140_6.0.0.dir/__/__/common/src/mesh_provisionee.c.obj
 .debug_frame   0x0000000000000318       0x60 CMakeFiles/light_switch_proxy_server_nrf52840_xxAA_s140_6.0.0.dir/__/__/common/src/rtt_input.c.obj
 .debug_frame   0x0000000000000378       0xbc CMakeFiles/light_switch_proxy_server_nrf52840_xxAA_s140_6.0.0.dir/__/__/common/src/simple_hal.c.obj
 .debug_frame   0x0000000000000434       0x34 CMakeFiles/light_switch_proxy_server_nrf52840_xxAA_s140_6.0.0.dir/__/__/common/src/mesh_app_utils.c.obj
 .debug_frame   0x0000000000000468       0xb0 CMakeFiles/light_switch_proxy_server_nrf52840_xxAA_s140_6.0.0.dir/__/__/common/src/mesh_adv.c.obj
 .debug_frame   0x0000000000000518      0x250 CMakeFiles/light_switch_proxy_server_nrf52840_xxAA_s140_6.0.0.dir/__/__/__/mesh/prov/src/nrf_mesh_prov_bearer_gatt.c.obj
 .debug_frame   0x0000000000000768       0x90 CMakeFiles/light_switch_proxy_server_nrf52840_xxAA_s140_6.0.0.dir/home/mazzer/work/nordic/sdk/nRF5_SDK_15.0.0/components/libraries/util/app_util_platform.c.obj
 .debug_frame   0x00000000000007f8      0x1cc CMakeFiles/light_switch_proxy_server_nrf52840_xxAA_s140_6.0.0.dir/home/mazzer/work/nordic/sdk/nRF5_SDK_15.0.0/components/ble/common/ble_advdata.c.obj
 .debug_frame   0x00000000000009c4       0x30 CMakeFiles/light_switch_proxy_server_nrf52840_xxAA_s140_6.0.0.dir/home/mazzer/work/nordic/sdk/nRF5_SDK_15.0.0/components/libraries/experimental_section_vars/nrf_section_iter.c.obj
 .debug_frame   0x00000000000009f4      0x120 CMakeFiles/light_switch_proxy_server_nrf52840_xxAA_s140_6.0.0.dir/home/mazzer/work/nordic/sdk/nRF5_SDK_15.0.0/components/softdevice/common/nrf_sdh.c.obj
 .debug_frame   0x0000000000000b14       0x40 CMakeFiles/light_switch_proxy_server_nrf52840_xxAA_s140_6.0.0.dir/home/mazzer/work/nordic/sdk/nRF5_SDK_15.0.0/components/softdevice/common/nrf_sdh_soc.c.obj
 .debug_frame   0x0000000000000b54       0xbc CMakeFiles/light_switch_proxy_server_nrf52840_xxAA_s140_6.0.0.dir/home/mazzer/work/nordic/sdk/nRF5_SDK_15.0.0/components/softdevice/common/nrf_sdh_ble.c.obj
 .debug_frame   0x0000000000000c10       0x30 CMakeFiles/light_switch_proxy_server_nrf52840_xxAA_s140_6.0.0.dir/__/__/nrf_mesh_weak.c.obj
 .debug_frame   0x0000000000000c40       0x34 CMakeFiles/light_switch_proxy_server_nrf52840_xxAA_s140_6.0.0.dir/__/__/common/src/app_error_weak.c.obj
 .debug_frame   0x0000000000000c74       0x2c CMakeFiles/light_switch_proxy_server_nrf52840_xxAA_s140_6.0.0.dir/__/__/common/src/assertion_handler_weak.c.obj
 .debug_frame   0x0000000000000ca0       0x4c CMakeFiles/light_switch_proxy_server_nrf52840_xxAA_s140_6.0.0.dir/__/__/__/mesh/core/src/nrf_mesh_configure.c.obj
 .debug_frame   0x0000000000000cec       0x40 CMakeFiles/light_switch_proxy_server_nrf52840_xxAA_s140_6.0.0.dir/__/__/__/mesh/core/src/aes.c.obj
 .debug_frame   0x0000000000000d2c       0x7c CMakeFiles/light_switch_proxy_server_nrf52840_xxAA_s140_6.0.0.dir/__/__/__/mesh/core/src/msg_cache.c.obj
 .debug_frame   0x0000000000000da8      0x3fc CMakeFiles/light_switch_proxy_server_nrf52840_xxAA_s140_6.0.0.dir/__/__/__/mesh/core/src/transport.c.obj
 .debug_frame   0x00000000000011a4       0x74 CMakeFiles/light_switch_proxy_server_nrf52840_xxAA_s140_6.0.0.dir/__/__/__/mesh/core/src/event.c.obj
 .debug_frame   0x0000000000001218      0x10c CMakeFiles/light_switch_proxy_server_nrf52840_xxAA_s140_6.0.0.dir/__/__/__/mesh/core/src/packet_buffer.c.obj
 .debug_frame   0x0000000000001324      0x268 CMakeFiles/light_switch_proxy_server_nrf52840_xxAA_s140_6.0.0.dir/__/__/__/mesh/core/src/flash_manager_defrag.c.obj
 .debug_frame   0x000000000000158c       0xd8 CMakeFiles/light_switch_proxy_server_nrf52840_xxAA_s140_6.0.0.dir/__/__/__/mesh/core/src/fifo.c.obj
 .debug_frame   0x0000000000001664       0x3c CMakeFiles/light_switch_proxy_server_nrf52840_xxAA_s140_6.0.0.dir/__/__/__/mesh/core/src/nrf_flash.c.obj
 .debug_frame   0x00000000000016a0       0xac CMakeFiles/light_switch_proxy_server_nrf52840_xxAA_s140_6.0.0.dir/__/__/__/mesh/core/src/packet_mgr.c.obj
 .debug_frame   0x000000000000174c      0x31c CMakeFiles/light_switch_proxy_server_nrf52840_xxAA_s140_6.0.0.dir/__/__/__/mesh/core/src/net_state.c.obj
 .debug_frame   0x0000000000001a68      0x130 CMakeFiles/light_switch_proxy_server_nrf52840_xxAA_s140_6.0.0.dir/__/__/__/mesh/core/src/mesh_flash.c.obj
 .debug_frame   0x0000000000001b98       0x60 CMakeFiles/light_switch_proxy_server_nrf52840_xxAA_s140_6.0.0.dir/__/__/__/mesh/core/src/nrf_mesh_utils.c.obj
 .debug_frame   0x0000000000001bf8      0x200 CMakeFiles/light_switch_proxy_server_nrf52840_xxAA_s140_6.0.0.dir/__/__/__/mesh/core/src/nrf_mesh.c.obj
 .debug_frame   0x0000000000001df8       0x74 CMakeFiles/light_switch_proxy_server_nrf52840_xxAA_s140_6.0.0.dir/__/__/__/mesh/core/src/queue.c.obj
 .debug_frame   0x0000000000001e6c       0x48 CMakeFiles/light_switch_proxy_server_nrf52840_xxAA_s140_6.0.0.dir/__/__/__/mesh/core/src/hal.c.obj
 .debug_frame   0x0000000000001eb4       0x60 CMakeFiles/light_switch_proxy_server_nrf52840_xxAA_s140_6.0.0.dir/__/__/__/mesh/core/src/aes_cmac.c.obj
 .debug_frame   0x0000000000001f14       0xe4 CMakeFiles/light_switch_proxy_server_nrf52840_xxAA_s140_6.0.0.dir/__/__/__/mesh/core/src/timer_scheduler.c.obj
 .debug_frame   0x0000000000001ff8      0x158 CMakeFiles/light_switch_proxy_server_nrf52840_xxAA_s140_6.0.0.dir/__/__/__/mesh/core/src/timer.c.obj
 .debug_frame   0x0000000000002150       0x4c CMakeFiles/light_switch_proxy_server_nrf52840_xxAA_s140_6.0.0.dir/__/__/__/mesh/core/src/ticker.c.obj
 .debug_frame   0x000000000000219c       0x9c CMakeFiles/light_switch_proxy_server_nrf52840_xxAA_s140_6.0.0.dir/__/__/__/mesh/core/src/rand.c.obj
 .debug_frame   0x0000000000002238       0x30 CMakeFiles/light_switch_proxy_server_nrf52840_xxAA_s140_6.0.0.dir/__/__/__/mesh/core/src/nrf_mesh_opt.c.obj
 .debug_frame   0x0000000000002268      0x190 CMakeFiles/light_switch_proxy_server_nrf52840_xxAA_s140_6.0.0.dir/__/__/__/mesh/core/src/timeslot.c.obj
 .debug_frame   0x00000000000023f8      0x1ac CMakeFiles/light_switch_proxy_server_nrf52840_xxAA_s140_6.0.0.dir/__/__/__/mesh/core/src/bearer_event.c.obj
 .debug_frame   0x00000000000025a4      0x158 CMakeFiles/light_switch_proxy_server_nrf52840_xxAA_s140_6.0.0.dir/__/__/__/mesh/core/src/enc.c.obj
 .debug_frame   0x00000000000026fc      0x10c CMakeFiles/light_switch_proxy_server_nrf52840_xxAA_s140_6.0.0.dir/__/__/__/mesh/core/src/network.c.obj
 .debug_frame   0x0000000000002808       0xec CMakeFiles/light_switch_proxy_server_nrf52840_xxAA_s140_6.0.0.dir/__/__/__/mesh/core/src/net_packet.c.obj
 .debug_frame   0x00000000000028f4       0x94 CMakeFiles/light_switch_proxy_server_nrf52840_xxAA_s140_6.0.0.dir/__/__/__/mesh/core/src/msqueue.c.obj
 .debug_frame   0x0000000000002988       0xc8 CMakeFiles/light_switch_proxy_server_nrf52840_xxAA_s140_6.0.0.dir/__/__/__/mesh/core/src/nrf_mesh_keygen.c.obj
 .debug_frame   0x0000000000002a50       0x90 CMakeFiles/light_switch_proxy_server_nrf52840_xxAA_s140_6.0.0.dir/__/__/__/mesh/core/src/cache.c.obj
 .debug_frame   0x0000000000002ae0       0x98 CMakeFiles/light_switch_proxy_server_nrf52840_xxAA_s140_6.0.0.dir/__/__/__/mesh/core/src/list.c.obj
 .debug_frame   0x0000000000002b78       0xc0 CMakeFiles/light_switch_proxy_server_nrf52840_xxAA_s140_6.0.0.dir/__/__/__/mesh/core/src/log.c.obj
 .debug_frame   0x0000000000002c38      0x258 CMakeFiles/light_switch_proxy_server_nrf52840_xxAA_s140_6.0.0.dir/__/__/__/mesh/core/src/flash_manager.c.obj
 .debug_frame   0x0000000000002e90       0xcc CMakeFiles/light_switch_proxy_server_nrf52840_xxAA_s140_6.0.0.dir/__/__/__/mesh/core/src/ccm_soft.c.obj
 .debug_frame   0x0000000000002f5c       0xb8 CMakeFiles/light_switch_proxy_server_nrf52840_xxAA_s140_6.0.0.dir/__/__/__/mesh/core/src/replay_cache.c.obj
 .debug_frame   0x0000000000003014       0x7c CMakeFiles/light_switch_proxy_server_nrf52840_xxAA_s140_6.0.0.dir/__/__/__/mesh/core/src/beacon.c.obj
 .debug_frame   0x0000000000003090       0x34 CMakeFiles/light_switch_proxy_server_nrf52840_xxAA_s140_6.0.0.dir/__/__/__/mesh/core/src/flash_manager_internal.c.obj
 .debug_frame   0x00000000000030c4       0xf8 CMakeFiles/light_switch_proxy_server_nrf52840_xxAA_s140_6.0.0.dir/__/__/__/mesh/core/src/core_tx.c.obj
 .debug_frame   0x00000000000031bc      0x184 CMakeFiles/light_switch_proxy_server_nrf52840_xxAA_s140_6.0.0.dir/__/__/__/mesh/core/src/heartbeat.c.obj
 .debug_frame   0x0000000000003340      0x114 CMakeFiles/light_switch_proxy_server_nrf52840_xxAA_s140_6.0.0.dir/__/__/__/mesh/core/src/net_beacon.c.obj
 .debug_frame   0x0000000000003454       0xb0 CMakeFiles/light_switch_proxy_server_nrf52840_xxAA_s140_6.0.0.dir/__/__/__/mesh/core/src/fsm.c.obj
 .debug_frame   0x0000000000003504      0x138 CMakeFiles/light_switch_proxy_server_nrf52840_xxAA_s140_6.0.0.dir/__/__/__/mesh/core/src/core_tx_adv.c.obj
 .debug_frame   0x000000000000363c       0x94 CMakeFiles/light_switch_proxy_server_nrf52840_xxAA_s140_6.0.0.dir/__/__/__/mesh/bearer/src/ad_listener.c.obj
 .debug_frame   0x00000000000036d0       0xc0 CMakeFiles/light_switch_proxy_server_nrf52840_xxAA_s140_6.0.0.dir/__/__/__/mesh/bearer/src/ad_type_filter.c.obj
 .debug_frame   0x0000000000003790      0x278 CMakeFiles/light_switch_proxy_server_nrf52840_xxAA_s140_6.0.0.dir/__/__/__/mesh/bearer/src/advertiser.c.obj
 .debug_frame   0x0000000000003a08      0x170 CMakeFiles/light_switch_proxy_server_nrf52840_xxAA_s140_6.0.0.dir/__/__/__/mesh/bearer/src/bearer_handler.c.obj
 .debug_frame   0x0000000000003b78       0x74 CMakeFiles/light_switch_proxy_server_nrf52840_xxAA_s140_6.0.0.dir/__/__/__/mesh/bearer/src/broadcast.c.obj
 .debug_frame   0x0000000000003bec       0x88 CMakeFiles/light_switch_proxy_server_nrf52840_xxAA_s140_6.0.0.dir/__/__/__/mesh/bearer/src/filter_engine.c.obj
 .debug_frame   0x0000000000003c74       0x98 CMakeFiles/light_switch_proxy_server_nrf52840_xxAA_s140_6.0.0.dir/__/__/__/mesh/bearer/src/radio_config.c.obj
 .debug_frame   0x0000000000003d0c      0x244 CMakeFiles/light_switch_proxy_server_nrf52840_xxAA_s140_6.0.0.dir/__/__/__/mesh/bearer/src/scanner.c.obj
 .debug_frame   0x0000000000003f50      0x1e8 CMakeFiles/light_switch_proxy_server_nrf52840_xxAA_s140_6.0.0.dir/__/__/__/mesh/gatt/src/mesh_gatt.c.obj
 .debug_frame   0x0000000000004138      0x2a0 CMakeFiles/light_switch_proxy_server_nrf52840_xxAA_s140_6.0.0.dir/__/__/__/mesh/gatt/src/proxy.c.obj
 .debug_frame   0x00000000000043d8       0xb0 CMakeFiles/light_switch_proxy_server_nrf52840_xxAA_s140_6.0.0.dir/__/__/__/mesh/gatt/src/proxy_filter.c.obj
 .debug_frame   0x0000000000004488       0xcc CMakeFiles/light_switch_proxy_server_nrf52840_xxAA_s140_6.0.0.dir/__/__/__/models/simple_on_off/src/simple_on_off_server.c.obj
 .debug_frame   0x0000000000004554       0x48 CMakeFiles/light_switch_proxy_server_nrf52840_xxAA_s140_6.0.0.dir/__/__/__/models/config/src/composition_data.c.obj
 .debug_frame   0x000000000000459c      0x874 CMakeFiles/light_switch_proxy_server_nrf52840_xxAA_s140_6.0.0.dir/__/__/__/models/config/src/config_server.c.obj
 .debug_frame   0x0000000000004e10       0x30 CMakeFiles/light_switch_proxy_server_nrf52840_xxAA_s140_6.0.0.dir/__/__/__/models/config/src/packed_index_list.c.obj
 .debug_frame   0x0000000000004e40      0x27c CMakeFiles/light_switch_proxy_server_nrf52840_xxAA_s140_6.0.0.dir/__/__/__/models/health/src/health_server.c.obj
 .debug_frame   0x00000000000050bc       0xf4 CMakeFiles/light_switch_proxy_server_nrf52840_xxAA_s140_6.0.0.dir/__/__/__/mesh/access/src/access_publish.c.obj
 .debug_frame   0x00000000000051b0      0x658 CMakeFiles/light_switch_proxy_server_nrf52840_xxAA_s140_6.0.0.dir/__/__/__/mesh/access/src/access.c.obj
 .debug_frame   0x0000000000005808      0x148 CMakeFiles/light_switch_proxy_server_nrf52840_xxAA_s140_6.0.0.dir/__/__/__/mesh/access/src/access_reliable.c.obj
 .debug_frame   0x0000000000005950      0xbd4 CMakeFiles/light_switch_proxy_server_nrf52840_xxAA_s140_6.0.0.dir/__/__/__/mesh/access/src/device_state_manager.c.obj
 .debug_frame   0x0000000000006524      0x198 CMakeFiles/light_switch_proxy_server_nrf52840_xxAA_s140_6.0.0.dir/__/__/__/mesh/prov/src/prov_provisionee.c.obj
 .debug_frame   0x00000000000066bc      0x1c8 CMakeFiles/light_switch_proxy_server_nrf52840_xxAA_s140_6.0.0.dir/__/__/__/mesh/prov/src/nrf_mesh_prov.c.obj
 .debug_frame   0x0000000000006884      0x1a0 CMakeFiles/light_switch_proxy_server_nrf52840_xxAA_s140_6.0.0.dir/__/__/__/mesh/prov/src/provisioning.c.obj
 .debug_frame   0x0000000000006a24       0x88 CMakeFiles/light_switch_proxy_server_nrf52840_xxAA_s140_6.0.0.dir/__/__/__/mesh/prov/src/prov_beacon.c.obj
 .debug_frame   0x0000000000006aac      0x11c CMakeFiles/light_switch_proxy_server_nrf52840_xxAA_s140_6.0.0.dir/__/__/__/mesh/prov/src/prov_utils.c.obj
 .debug_frame   0x0000000000006bc8      0x2d8 CMakeFiles/light_switch_proxy_server_nrf52840_xxAA_s140_6.0.0.dir/__/__/__/mesh/prov/src/prov_bearer_adv.c.obj
 .debug_frame   0x0000000000006ea0       0x40 CMakeFiles/light_switch_proxy_server_nrf52840_xxAA_s140_6.0.0.dir/home/mazzer/work/nordic/sdk/nRF5_SDK_15.0.0/modules/nrfx/mdk/system_nrf52840.c.obj
 .debug_frame   0x0000000000006ee0       0x54 CMakeFiles/light_switch_proxy_server_nrf52840_xxAA_s140_6.0.0.dir/home/mazzer/work/nordic/sdk/nRF5_SDK_15.0.0/components/libraries/util/app_error.c.obj
 .debug_frame   0x0000000000006f34       0x20 CMakeFiles/light_switch_proxy_server_nrf52840_xxAA_s140_6.0.0.dir/home/mazzer/work/nordic/sdk/nRF5_SDK_15.0.0/components/libraries/util/app_error_handler_gcc.c.obj
 .debug_frame   0x0000000000006f54      0x2e4 ../../../external/rtt/librtt_nrf52840_xxAA.a(SEGGER_RTT.c.obj)
 .debug_frame   0x0000000000007238       0xa0 ../../../external/rtt/librtt_nrf52840_xxAA.a(SEGGER_RTT_printf.c.obj)
 .debug_frame   0x00000000000072d8      0x4c8 ../../../external/micro-ecc/libuECC_nrf52840_xxAA.a(uECC.c.obj)
 .debug_frame   0x00000000000077a0       0x2c /usr/bin/../lib/gcc/arm-none-eabi/7.2.1/thumb/v7e-m/fpv4-sp/hard/libgcc.a(_aeabi_uldivmod.o)
 .debug_frame   0x00000000000077cc       0x34 /usr/bin/../lib/gcc/arm-none-eabi/7.2.1/thumb/v7e-m/fpv4-sp/hard/libgcc.a(_udivmoddi4.o)
 .debug_frame   0x0000000000007800       0x28 /usr/bin/../lib/gcc/arm-none-eabi/7.2.1/../../../../arm-none-eabi/lib/thumb/v7e-m/fpv4-sp/hard/libg_nano.a(lib_a-exit.o)
 .debug_frame   0x0000000000007828       0x2c /usr/bin/../lib/gcc/arm-none-eabi/7.2.1/../../../../arm-none-eabi/lib/thumb/v7e-m/fpv4-sp/hard/libg_nano.a(lib_a-init.o)
 .debug_frame   0x0000000000007854       0x30 /usr/bin/../lib/gcc/arm-none-eabi/7.2.1/../../../../arm-none-eabi/lib/thumb/v7e-m/fpv4-sp/hard/libg_nano.a(lib_a-malloc.o)
 .debug_frame   0x0000000000007884       0x2c /usr/bin/../lib/gcc/arm-none-eabi/7.2.1/../../../../arm-none-eabi/lib/thumb/v7e-m/fpv4-sp/hard/libg_nano.a(lib_a-memcmp.o)
 .debug_frame   0x00000000000078b0       0x28 /usr/bin/../lib/gcc/arm-none-eabi/7.2.1/../../../../arm-none-eabi/lib/thumb/v7e-m/fpv4-sp/hard/libg_nano.a(lib_a-memcpy-stub.o)
 .debug_frame   0x00000000000078d8       0x20 /usr/bin/../lib/gcc/arm-none-eabi/7.2.1/../../../../arm-none-eabi/lib/thumb/v7e-m/fpv4-sp/hard/libg_nano.a(lib_a-memset.o)
 .debug_frame   0x00000000000078f8       0x38 /usr/bin/../lib/gcc/arm-none-eabi/7.2.1/../../../../arm-none-eabi/lib/thumb/v7e-m/fpv4-sp/hard/libg_nano.a(lib_a-nano-freer.o)
 .debug_frame   0x0000000000007930       0x2c /usr/bin/../lib/gcc/arm-none-eabi/7.2.1/../../../../arm-none-eabi/lib/thumb/v7e-m/fpv4-sp/hard/libg_nano.a(lib_a-nano-mallocr.o)
 .debug_frame   0x000000000000795c       0x2c /usr/bin/../lib/gcc/arm-none-eabi/7.2.1/../../../../arm-none-eabi/lib/thumb/v7e-m/fpv4-sp/hard/libg_nano.a(lib_a-sbrkr.o)
 .debug_frame   0x0000000000007988       0x20 /usr/bin/../lib/gcc/arm-none-eabi/7.2.1/../../../../arm-none-eabi/lib/thumb/v7e-m/fpv4-sp/hard/libg_nano.a(lib_a-strcpy.o)
 .debug_frame   0x00000000000079a8       0x38 /usr/bin/../lib/gcc/arm-none-eabi/7.2.1/../../../../arm-none-eabi/lib/thumb/v7e-m/fpv4-sp/hard/libg_nano.a(lib_a-strrchr.o)
 .debug_frame   0x00000000000079e0       0x30 /usr/bin/../lib/gcc/arm-none-eabi/7.2.1/../../../../arm-none-eabi/lib/thumb/v7e-m/fpv4-sp/hard/libg_nano.a(lib_a-mlock.o)
 .debug_frame   0x0000000000007a10       0x5c /usr/bin/../lib/gcc/arm-none-eabi/7.2.1/../../../../arm-none-eabi/lib/thumb/v7e-m/fpv4-sp/hard/libg_nano.a(lib_a-reent.o)
 .debug_frame   0x0000000000007a6c       0x20 /usr/bin/../lib/gcc/arm-none-eabi/7.2.1/../../../../arm-none-eabi/lib/thumb/v7e-m/fpv4-sp/hard/libg_nano.a(lib_a-strchr.o)
 .debug_frame   0x0000000000007a8c       0x20 /usr/bin/../lib/gcc/arm-none-eabi/7.2.1/../../../../arm-none-eabi/lib/thumb/v7e-m/fpv4-sp/hard/libnosys.a(sbrk.o)
 .debug_frame   0x0000000000007aac       0x20 /usr/bin/../lib/gcc/arm-none-eabi/7.2.1/../../../../arm-none-eabi/lib/thumb/v7e-m/fpv4-sp/hard/libnosys.a(_exit.o)
