Archive member included to satisfy reference by file (symbol)

../../../external/rtt/librtt_nrf52832_xxAA.a(SEGGER_RTT.c.obj)
                              CMakeFiles/light_switch_client_nrf52832_xxAA_s132_6.0.0.dir/__/__/__/mesh/core/src/log.c.obj (SEGGER_RTT_Write)
../../../external/rtt/librtt_nrf52832_xxAA.a(SEGGER_RTT_printf.c.obj)
                              CMakeFiles/light_switch_client_nrf52832_xxAA_s132_6.0.0.dir/__/__/__/mesh/core/src/log.c.obj (SEGGER_RTT_vprintf)
../../../external/micro-ecc/libuECC_nrf52832_xxAA.a(uECC.c.obj)
                              CMakeFiles/light_switch_client_nrf52832_xxAA_s132_6.0.0.dir/__/__/__/mesh/prov/src/prov_utils.c.obj (uECC_secp256r1)
/usr/bin/../lib/gcc/arm-none-eabi/7.2.1/thumb/v7e-m/fpv4-sp/hard/libgcc.a(_aeabi_ldivmod.o)
                              CMakeFiles/light_switch_client_nrf52832_xxAA_s132_6.0.0.dir/__/__/common/src/rtt_input.c.obj (__aeabi_ldivmod)
/usr/bin/../lib/gcc/arm-none-eabi/7.2.1/thumb/v7e-m/fpv4-sp/hard/libgcc.a(_aeabi_uldivmod.o)
                              CMakeFiles/light_switch_client_nrf52832_xxAA_s132_6.0.0.dir/__/__/common/src/rtt_input.c.obj (__aeabi_uldivmod)
/usr/bin/../lib/gcc/arm-none-eabi/7.2.1/thumb/v7e-m/fpv4-sp/hard/libgcc.a(_udivmoddi4.o)
                              /usr/bin/../lib/gcc/arm-none-eabi/7.2.1/thumb/v7e-m/fpv4-sp/hard/libgcc.a(_aeabi_ldivmod.o) (__udivmoddi4)
/usr/bin/../lib/gcc/arm-none-eabi/7.2.1/thumb/v7e-m/fpv4-sp/hard/libgcc.a(_dvmd_tls.o)
                              /usr/bin/../lib/gcc/arm-none-eabi/7.2.1/thumb/v7e-m/fpv4-sp/hard/libgcc.a(_aeabi_ldivmod.o) (__aeabi_ldiv0)
/usr/bin/../lib/gcc/arm-none-eabi/7.2.1/../../../../arm-none-eabi/lib/thumb/v7e-m/fpv4-sp/hard/libg_nano.a(lib_a-exit.o)
                              /usr/bin/../lib/gcc/arm-none-eabi/7.2.1/../../../../arm-none-eabi/lib/thumb/v7e-m/fpv4-sp/hard/crt0.o (exit)
/usr/bin/../lib/gcc/arm-none-eabi/7.2.1/../../../../arm-none-eabi/lib/thumb/v7e-m/fpv4-sp/hard/libg_nano.a(lib_a-impure.o)
                              /usr/bin/../lib/gcc/arm-none-eabi/7.2.1/../../../../arm-none-eabi/lib/thumb/v7e-m/fpv4-sp/hard/libg_nano.a(lib_a-exit.o) (_global_impure_ptr)
/usr/bin/../lib/gcc/arm-none-eabi/7.2.1/../../../../arm-none-eabi/lib/thumb/v7e-m/fpv4-sp/hard/libg_nano.a(lib_a-init.o)
                              /usr/bin/../lib/gcc/arm-none-eabi/7.2.1/../../../../arm-none-eabi/lib/thumb/v7e-m/fpv4-sp/hard/crt0.o (__libc_init_array)
/usr/bin/../lib/gcc/arm-none-eabi/7.2.1/../../../../arm-none-eabi/lib/thumb/v7e-m/fpv4-sp/hard/libg_nano.a(lib_a-malloc.o)
                              CMakeFiles/light_switch_client_nrf52832_xxAA_s132_6.0.0.dir/__/__/__/mesh/core/src/transport.c.obj (malloc)
/usr/bin/../lib/gcc/arm-none-eabi/7.2.1/../../../../arm-none-eabi/lib/thumb/v7e-m/fpv4-sp/hard/libg_nano.a(lib_a-memcmp.o)
                              CMakeFiles/light_switch_client_nrf52832_xxAA_s132_6.0.0.dir/__/__/__/mesh/core/src/cache.c.obj (memcmp)
/usr/bin/../lib/gcc/arm-none-eabi/7.2.1/../../../../arm-none-eabi/lib/thumb/v7e-m/fpv4-sp/hard/libg_nano.a(lib_a-memcpy-stub.o)
                              CMakeFiles/light_switch_client_nrf52832_xxAA_s132_6.0.0.dir/__/__/__/mesh/core/src/nrf_mesh_configure.c.obj (memcpy)
/usr/bin/../lib/gcc/arm-none-eabi/7.2.1/../../../../arm-none-eabi/lib/thumb/v7e-m/fpv4-sp/hard/libg_nano.a(lib_a-memset.o)
                              /usr/bin/../lib/gcc/arm-none-eabi/7.2.1/../../../../arm-none-eabi/lib/thumb/v7e-m/fpv4-sp/hard/crt0.o (memset)
/usr/bin/../lib/gcc/arm-none-eabi/7.2.1/../../../../arm-none-eabi/lib/thumb/v7e-m/fpv4-sp/hard/libg_nano.a(lib_a-nano-freer.o)
                              /usr/bin/../lib/gcc/arm-none-eabi/7.2.1/../../../../arm-none-eabi/lib/thumb/v7e-m/fpv4-sp/hard/libg_nano.a(lib_a-malloc.o) (_free_r)
/usr/bin/../lib/gcc/arm-none-eabi/7.2.1/../../../../arm-none-eabi/lib/thumb/v7e-m/fpv4-sp/hard/libg_nano.a(lib_a-nano-mallocr.o)
                              /usr/bin/../lib/gcc/arm-none-eabi/7.2.1/../../../../arm-none-eabi/lib/thumb/v7e-m/fpv4-sp/hard/libg_nano.a(lib_a-malloc.o) (_malloc_r)
/usr/bin/../lib/gcc/arm-none-eabi/7.2.1/../../../../arm-none-eabi/lib/thumb/v7e-m/fpv4-sp/hard/libg_nano.a(lib_a-sbrkr.o)
                              /usr/bin/../lib/gcc/arm-none-eabi/7.2.1/../../../../arm-none-eabi/lib/thumb/v7e-m/fpv4-sp/hard/libg_nano.a(lib_a-nano-mallocr.o) (_sbrk_r)
/usr/bin/../lib/gcc/arm-none-eabi/7.2.1/../../../../arm-none-eabi/lib/thumb/v7e-m/fpv4-sp/hard/libg_nano.a(lib_a-strcpy.o)
                              ../../../external/rtt/librtt_nrf52832_xxAA.a(SEGGER_RTT.c.obj) (strcpy)
/usr/bin/../lib/gcc/arm-none-eabi/7.2.1/../../../../arm-none-eabi/lib/thumb/v7e-m/fpv4-sp/hard/libg_nano.a(lib_a-strlen.o)
                              CMakeFiles/light_switch_client_nrf52832_xxAA_s132_6.0.0.dir/__/__/__/mesh/core/src/uri.c.obj (strlen)
/usr/bin/../lib/gcc/arm-none-eabi/7.2.1/../../../../arm-none-eabi/lib/thumb/v7e-m/fpv4-sp/hard/libg_nano.a(lib_a-strrchr.o)
                              CMakeFiles/light_switch_client_nrf52832_xxAA_s132_6.0.0.dir/src/main.c.obj (strrchr)
/usr/bin/../lib/gcc/arm-none-eabi/7.2.1/../../../../arm-none-eabi/lib/thumb/v7e-m/fpv4-sp/hard/libg_nano.a(lib_a-mlock.o)
                              /usr/bin/../lib/gcc/arm-none-eabi/7.2.1/../../../../arm-none-eabi/lib/thumb/v7e-m/fpv4-sp/hard/libg_nano.a(lib_a-nano-freer.o) (__malloc_lock)
/usr/bin/../lib/gcc/arm-none-eabi/7.2.1/../../../../arm-none-eabi/lib/thumb/v7e-m/fpv4-sp/hard/libg_nano.a(lib_a-reent.o)
                              /usr/bin/../lib/gcc/arm-none-eabi/7.2.1/../../../../arm-none-eabi/lib/thumb/v7e-m/fpv4-sp/hard/libg_nano.a(lib_a-sbrkr.o) (errno)
/usr/bin/../lib/gcc/arm-none-eabi/7.2.1/../../../../arm-none-eabi/lib/thumb/v7e-m/fpv4-sp/hard/libg_nano.a(lib_a-strchr.o)
                              /usr/bin/../lib/gcc/arm-none-eabi/7.2.1/../../../../arm-none-eabi/lib/thumb/v7e-m/fpv4-sp/hard/libg_nano.a(lib_a-strrchr.o) (strchr)
/usr/bin/../lib/gcc/arm-none-eabi/7.2.1/../../../../arm-none-eabi/lib/thumb/v7e-m/fpv4-sp/hard/libnosys.a(sbrk.o)
                              /usr/bin/../lib/gcc/arm-none-eabi/7.2.1/../../../../arm-none-eabi/lib/thumb/v7e-m/fpv4-sp/hard/libg_nano.a(lib_a-sbrkr.o) (_sbrk)
/usr/bin/../lib/gcc/arm-none-eabi/7.2.1/../../../../arm-none-eabi/lib/thumb/v7e-m/fpv4-sp/hard/libnosys.a(_exit.o)
                              /usr/bin/../lib/gcc/arm-none-eabi/7.2.1/../../../../arm-none-eabi/lib/thumb/v7e-m/fpv4-sp/hard/libg_nano.a(lib_a-exit.o) (_exit)

Allocating common symbols
Common symbol       size              file

nrf_nvic_state      0xc               CMakeFiles/light_switch_client_nrf52832_xxAA_s132_6.0.0.dir/__/__/common/src/mesh_softdevice_init.c.obj
m_packet            0x24              CMakeFiles/light_switch_client_nrf52832_xxAA_s132_6.0.0.dir/__/__/__/mesh/core/src/core_tx.c.obj
errno               0x4               /usr/bin/../lib/gcc/arm-none-eabi/7.2.1/../../../../arm-none-eabi/lib/thumb/v7e-m/fpv4-sp/hard/libg_nano.a(lib_a-reent.o)
_SEGGER_RTT         0x78              ../../../external/rtt/librtt_nrf52832_xxAA.a(SEGGER_RTT.c.obj)

Discarded input sections

 .text          0x0000000000000000        0x0 /usr/bin/../lib/gcc/arm-none-eabi/7.2.1/thumb/v7e-m/fpv4-sp/hard/crti.o
 .data          0x0000000000000000        0x0 /usr/bin/../lib/gcc/arm-none-eabi/7.2.1/thumb/v7e-m/fpv4-sp/hard/crti.o
 .bss           0x0000000000000000        0x0 /usr/bin/../lib/gcc/arm-none-eabi/7.2.1/thumb/v7e-m/fpv4-sp/hard/crti.o
 .data          0x0000000000000000        0x4 /usr/bin/../lib/gcc/arm-none-eabi/7.2.1/thumb/v7e-m/fpv4-sp/hard/crtbegin.o
 .data          0x0000000000000000        0x0 /usr/bin/../lib/gcc/arm-none-eabi/7.2.1/../../../../arm-none-eabi/lib/thumb/v7e-m/fpv4-sp/hard/crt0.o
 .bss           0x0000000000000000        0x0 /usr/bin/../lib/gcc/arm-none-eabi/7.2.1/../../../../arm-none-eabi/lib/thumb/v7e-m/fpv4-sp/hard/crt0.o
 .ARM.extab     0x0000000000000000        0x0 /usr/bin/../lib/gcc/arm-none-eabi/7.2.1/../../../../arm-none-eabi/lib/thumb/v7e-m/fpv4-sp/hard/crt0.o
 .text          0x0000000000000000        0x0 CMakeFiles/light_switch_client_nrf52832_xxAA_s132_6.0.0.dir/src/main.c.obj
 .data          0x0000000000000000        0x0 CMakeFiles/light_switch_client_nrf52832_xxAA_s132_6.0.0.dir/src/main.c.obj
 .bss           0x0000000000000000        0x0 CMakeFiles/light_switch_client_nrf52832_xxAA_s132_6.0.0.dir/src/main.c.obj
 .text          0x0000000000000000        0x0 CMakeFiles/light_switch_client_nrf52832_xxAA_s132_6.0.0.dir/__/__/__/mesh/stack/src/mesh_stack.c.obj
 .data          0x0000000000000000        0x0 CMakeFiles/light_switch_client_nrf52832_xxAA_s132_6.0.0.dir/__/__/__/mesh/stack/src/mesh_stack.c.obj
 .bss           0x0000000000000000        0x0 CMakeFiles/light_switch_client_nrf52832_xxAA_s132_6.0.0.dir/__/__/__/mesh/stack/src/mesh_stack.c.obj
 .text.mesh_stack_is_device_provisioned
                0x0000000000000000       0x1c CMakeFiles/light_switch_client_nrf52832_xxAA_s132_6.0.0.dir/__/__/__/mesh/stack/src/mesh_stack.c.obj
 .text          0x0000000000000000        0x0 CMakeFiles/light_switch_client_nrf52832_xxAA_s132_6.0.0.dir/__/__/common/src/mesh_softdevice_init.c.obj
 .data          0x0000000000000000        0x0 CMakeFiles/light_switch_client_nrf52832_xxAA_s132_6.0.0.dir/__/__/common/src/mesh_softdevice_init.c.obj
 .bss           0x0000000000000000        0x0 CMakeFiles/light_switch_client_nrf52832_xxAA_s132_6.0.0.dir/__/__/common/src/mesh_softdevice_init.c.obj
 .text          0x0000000000000000        0x0 CMakeFiles/light_switch_client_nrf52832_xxAA_s132_6.0.0.dir/__/__/common/src/mesh_provisionee.c.obj
 .data          0x0000000000000000        0x0 CMakeFiles/light_switch_client_nrf52832_xxAA_s132_6.0.0.dir/__/__/common/src/mesh_provisionee.c.obj
 .bss           0x0000000000000000        0x0 CMakeFiles/light_switch_client_nrf52832_xxAA_s132_6.0.0.dir/__/__/common/src/mesh_provisionee.c.obj
 .text          0x0000000000000000        0x0 CMakeFiles/light_switch_client_nrf52832_xxAA_s132_6.0.0.dir/__/__/common/src/rtt_input.c.obj
 .data          0x0000000000000000        0x0 CMakeFiles/light_switch_client_nrf52832_xxAA_s132_6.0.0.dir/__/__/common/src/rtt_input.c.obj
 .bss           0x0000000000000000        0x0 CMakeFiles/light_switch_client_nrf52832_xxAA_s132_6.0.0.dir/__/__/common/src/rtt_input.c.obj
 .text.rtt_input_disable
                0x0000000000000000       0x28 CMakeFiles/light_switch_client_nrf52832_xxAA_s132_6.0.0.dir/__/__/common/src/rtt_input.c.obj
 .text          0x0000000000000000        0x0 CMakeFiles/light_switch_client_nrf52832_xxAA_s132_6.0.0.dir/__/__/common/src/simple_hal.c.obj
 .data          0x0000000000000000        0x0 CMakeFiles/light_switch_client_nrf52832_xxAA_s132_6.0.0.dir/__/__/common/src/simple_hal.c.obj
 .bss           0x0000000000000000        0x0 CMakeFiles/light_switch_client_nrf52832_xxAA_s132_6.0.0.dir/__/__/common/src/simple_hal.c.obj
 .text          0x0000000000000000        0x0 CMakeFiles/light_switch_client_nrf52832_xxAA_s132_6.0.0.dir/__/__/nrf_mesh_weak.c.obj
 .data          0x0000000000000000        0x0 CMakeFiles/light_switch_client_nrf52832_xxAA_s132_6.0.0.dir/__/__/nrf_mesh_weak.c.obj
 .bss           0x0000000000000000        0x0 CMakeFiles/light_switch_client_nrf52832_xxAA_s132_6.0.0.dir/__/__/nrf_mesh_weak.c.obj
 .text._weak_handler_ptr
                0x0000000000000000        0x4 CMakeFiles/light_switch_client_nrf52832_xxAA_s132_6.0.0.dir/__/__/nrf_mesh_weak.c.obj
 .text          0x0000000000000000        0x0 CMakeFiles/light_switch_client_nrf52832_xxAA_s132_6.0.0.dir/__/__/common/src/app_error_weak.c.obj
 .data          0x0000000000000000        0x0 CMakeFiles/light_switch_client_nrf52832_xxAA_s132_6.0.0.dir/__/__/common/src/app_error_weak.c.obj
 .bss           0x0000000000000000        0x0 CMakeFiles/light_switch_client_nrf52832_xxAA_s132_6.0.0.dir/__/__/common/src/app_error_weak.c.obj
 .text          0x0000000000000000        0x0 CMakeFiles/light_switch_client_nrf52832_xxAA_s132_6.0.0.dir/__/__/common/src/assertion_handler_weak.c.obj
 .data          0x0000000000000000        0x0 CMakeFiles/light_switch_client_nrf52832_xxAA_s132_6.0.0.dir/__/__/common/src/assertion_handler_weak.c.obj
 .bss           0x0000000000000000        0x0 CMakeFiles/light_switch_client_nrf52832_xxAA_s132_6.0.0.dir/__/__/common/src/assertion_handler_weak.c.obj
 .text          0x0000000000000000        0x0 CMakeFiles/light_switch_client_nrf52832_xxAA_s132_6.0.0.dir/__/__/__/mesh/core/src/internal_event.c.obj
 .data          0x0000000000000000        0x0 CMakeFiles/light_switch_client_nrf52832_xxAA_s132_6.0.0.dir/__/__/__/mesh/core/src/internal_event.c.obj
 .bss           0x0000000000000000        0x0 CMakeFiles/light_switch_client_nrf52832_xxAA_s132_6.0.0.dir/__/__/__/mesh/core/src/internal_event.c.obj
 .debug_info    0x0000000000000000      0x8eb CMakeFiles/light_switch_client_nrf52832_xxAA_s132_6.0.0.dir/__/__/__/mesh/core/src/internal_event.c.obj
 .debug_abbrev  0x0000000000000000      0x192 CMakeFiles/light_switch_client_nrf52832_xxAA_s132_6.0.0.dir/__/__/__/mesh/core/src/internal_event.c.obj
 .debug_aranges
                0x0000000000000000       0x18 CMakeFiles/light_switch_client_nrf52832_xxAA_s132_6.0.0.dir/__/__/__/mesh/core/src/internal_event.c.obj
 .debug_line    0x0000000000000000      0x1d9 CMakeFiles/light_switch_client_nrf52832_xxAA_s132_6.0.0.dir/__/__/__/mesh/core/src/internal_event.c.obj
 .debug_str     0x0000000000000000      0x672 CMakeFiles/light_switch_client_nrf52832_xxAA_s132_6.0.0.dir/__/__/__/mesh/core/src/internal_event.c.obj
 .comment       0x0000000000000000       0x7f CMakeFiles/light_switch_client_nrf52832_xxAA_s132_6.0.0.dir/__/__/__/mesh/core/src/internal_event.c.obj
 .ARM.attributes
                0x0000000000000000       0x39 CMakeFiles/light_switch_client_nrf52832_xxAA_s132_6.0.0.dir/__/__/__/mesh/core/src/internal_event.c.obj
 .text          0x0000000000000000        0x0 CMakeFiles/light_switch_client_nrf52832_xxAA_s132_6.0.0.dir/__/__/__/mesh/core/src/nrf_mesh_configure.c.obj
 .data          0x0000000000000000        0x0 CMakeFiles/light_switch_client_nrf52832_xxAA_s132_6.0.0.dir/__/__/__/mesh/core/src/nrf_mesh_configure.c.obj
 .bss           0x0000000000000000        0x0 CMakeFiles/light_switch_client_nrf52832_xxAA_s132_6.0.0.dir/__/__/__/mesh/core/src/nrf_mesh_configure.c.obj
 .text          0x0000000000000000        0x0 CMakeFiles/light_switch_client_nrf52832_xxAA_s132_6.0.0.dir/__/__/__/mesh/core/src/aes.c.obj
 .data          0x0000000000000000        0x0 CMakeFiles/light_switch_client_nrf52832_xxAA_s132_6.0.0.dir/__/__/__/mesh/core/src/aes.c.obj
 .bss           0x0000000000000000        0x0 CMakeFiles/light_switch_client_nrf52832_xxAA_s132_6.0.0.dir/__/__/__/mesh/core/src/aes.c.obj
 .text          0x0000000000000000        0x0 CMakeFiles/light_switch_client_nrf52832_xxAA_s132_6.0.0.dir/__/__/__/mesh/core/src/msg_cache.c.obj
 .data          0x0000000000000000        0x0 CMakeFiles/light_switch_client_nrf52832_xxAA_s132_6.0.0.dir/__/__/__/mesh/core/src/msg_cache.c.obj
 .bss           0x0000000000000000        0x0 CMakeFiles/light_switch_client_nrf52832_xxAA_s132_6.0.0.dir/__/__/__/mesh/core/src/msg_cache.c.obj
 .text.msg_cache_clear
                0x0000000000000000       0x18 CMakeFiles/light_switch_client_nrf52832_xxAA_s132_6.0.0.dir/__/__/__/mesh/core/src/msg_cache.c.obj
 .text          0x0000000000000000        0x0 CMakeFiles/light_switch_client_nrf52832_xxAA_s132_6.0.0.dir/__/__/__/mesh/core/src/transport.c.obj
 .data          0x0000000000000000        0x0 CMakeFiles/light_switch_client_nrf52832_xxAA_s132_6.0.0.dir/__/__/__/mesh/core/src/transport.c.obj
 .bss           0x0000000000000000        0x0 CMakeFiles/light_switch_client_nrf52832_xxAA_s132_6.0.0.dir/__/__/__/mesh/core/src/transport.c.obj
 .text.transport_sar_mem_funcs_set
                0x0000000000000000       0x64 CMakeFiles/light_switch_client_nrf52832_xxAA_s132_6.0.0.dir/__/__/__/mesh/core/src/transport.c.obj
 .text.transport_sar_mem_funcs_reset
                0x0000000000000000       0x30 CMakeFiles/light_switch_client_nrf52832_xxAA_s132_6.0.0.dir/__/__/__/mesh/core/src/transport.c.obj
 .text          0x0000000000000000        0x0 CMakeFiles/light_switch_client_nrf52832_xxAA_s132_6.0.0.dir/__/__/__/mesh/core/src/event.c.obj
 .data          0x0000000000000000        0x0 CMakeFiles/light_switch_client_nrf52832_xxAA_s132_6.0.0.dir/__/__/__/mesh/core/src/event.c.obj
 .bss           0x0000000000000000        0x0 CMakeFiles/light_switch_client_nrf52832_xxAA_s132_6.0.0.dir/__/__/__/mesh/core/src/event.c.obj
 .text          0x0000000000000000        0x0 CMakeFiles/light_switch_client_nrf52832_xxAA_s132_6.0.0.dir/__/__/__/mesh/core/src/packet_buffer.c.obj
 .data          0x0000000000000000        0x0 CMakeFiles/light_switch_client_nrf52832_xxAA_s132_6.0.0.dir/__/__/__/mesh/core/src/packet_buffer.c.obj
 .bss           0x0000000000000000        0x0 CMakeFiles/light_switch_client_nrf52832_xxAA_s132_6.0.0.dir/__/__/__/mesh/core/src/packet_buffer.c.obj
 .text.packet_buffer_max_packet_len_get
                0x0000000000000000       0x24 CMakeFiles/light_switch_client_nrf52832_xxAA_s132_6.0.0.dir/__/__/__/mesh/core/src/packet_buffer.c.obj
 .text          0x0000000000000000        0x0 CMakeFiles/light_switch_client_nrf52832_xxAA_s132_6.0.0.dir/__/__/__/mesh/core/src/flash_manager_defrag.c.obj
 .data          0x0000000000000000        0x0 CMakeFiles/light_switch_client_nrf52832_xxAA_s132_6.0.0.dir/__/__/__/mesh/core/src/flash_manager_defrag.c.obj
 .bss           0x0000000000000000        0x0 CMakeFiles/light_switch_client_nrf52832_xxAA_s132_6.0.0.dir/__/__/__/mesh/core/src/flash_manager_defrag.c.obj
 .text.flash_manager_defragging
                0x0000000000000000       0x44 CMakeFiles/light_switch_client_nrf52832_xxAA_s132_6.0.0.dir/__/__/__/mesh/core/src/flash_manager_defrag.c.obj
 .text          0x0000000000000000        0x0 CMakeFiles/light_switch_client_nrf52832_xxAA_s132_6.0.0.dir/__/__/__/mesh/core/src/fifo.c.obj
 .data          0x0000000000000000        0x0 CMakeFiles/light_switch_client_nrf52832_xxAA_s132_6.0.0.dir/__/__/__/mesh/core/src/fifo.c.obj
 .bss           0x0000000000000000        0x0 CMakeFiles/light_switch_client_nrf52832_xxAA_s132_6.0.0.dir/__/__/__/mesh/core/src/fifo.c.obj
 .text.fifo_peek_at
                0x0000000000000000       0x58 CMakeFiles/light_switch_client_nrf52832_xxAA_s132_6.0.0.dir/__/__/__/mesh/core/src/fifo.c.obj
 .text.fifo_peek
                0x0000000000000000       0x54 CMakeFiles/light_switch_client_nrf52832_xxAA_s132_6.0.0.dir/__/__/__/mesh/core/src/fifo.c.obj
 .text.fifo_flush
                0x0000000000000000        0x8 CMakeFiles/light_switch_client_nrf52832_xxAA_s132_6.0.0.dir/__/__/__/mesh/core/src/fifo.c.obj
 .text.fifo_get_len
                0x0000000000000000        0x8 CMakeFiles/light_switch_client_nrf52832_xxAA_s132_6.0.0.dir/__/__/__/mesh/core/src/fifo.c.obj
 .text.fifo_is_full
                0x0000000000000000       0x14 CMakeFiles/light_switch_client_nrf52832_xxAA_s132_6.0.0.dir/__/__/__/mesh/core/src/fifo.c.obj
 .text.fifo_is_empty
                0x0000000000000000       0x10 CMakeFiles/light_switch_client_nrf52832_xxAA_s132_6.0.0.dir/__/__/__/mesh/core/src/fifo.c.obj
 .text          0x0000000000000000        0x0 CMakeFiles/light_switch_client_nrf52832_xxAA_s132_6.0.0.dir/__/__/__/mesh/core/src/nrf_flash.c.obj
 .data          0x0000000000000000        0x0 CMakeFiles/light_switch_client_nrf52832_xxAA_s132_6.0.0.dir/__/__/__/mesh/core/src/nrf_flash.c.obj
 .bss           0x0000000000000000        0x0 CMakeFiles/light_switch_client_nrf52832_xxAA_s132_6.0.0.dir/__/__/__/mesh/core/src/nrf_flash.c.obj
 .text          0x0000000000000000        0x0 CMakeFiles/light_switch_client_nrf52832_xxAA_s132_6.0.0.dir/__/__/__/mesh/core/src/packet_mgr.c.obj
 .data          0x0000000000000000        0x0 CMakeFiles/light_switch_client_nrf52832_xxAA_s132_6.0.0.dir/__/__/__/mesh/core/src/packet_mgr.c.obj
 .bss           0x0000000000000000        0x0 CMakeFiles/light_switch_client_nrf52832_xxAA_s132_6.0.0.dir/__/__/__/mesh/core/src/packet_mgr.c.obj
 .text.packet_mgr_alloc
                0x0000000000000000      0x1a4 CMakeFiles/light_switch_client_nrf52832_xxAA_s132_6.0.0.dir/__/__/__/mesh/core/src/packet_mgr.c.obj
 .text.packet_mgr_free
                0x0000000000000000       0x5c CMakeFiles/light_switch_client_nrf52832_xxAA_s132_6.0.0.dir/__/__/__/mesh/core/src/packet_mgr.c.obj
 .text.packet_mgr_get_free_space
                0x0000000000000000       0x1c CMakeFiles/light_switch_client_nrf52832_xxAA_s132_6.0.0.dir/__/__/__/mesh/core/src/packet_mgr.c.obj
 .text.packet_mgr_refcount_get
                0x0000000000000000        0x8 CMakeFiles/light_switch_client_nrf52832_xxAA_s132_6.0.0.dir/__/__/__/mesh/core/src/packet_mgr.c.obj
 .text.packet_mgr_size_get
                0x0000000000000000        0x8 CMakeFiles/light_switch_client_nrf52832_xxAA_s132_6.0.0.dir/__/__/__/mesh/core/src/packet_mgr.c.obj
 .text          0x0000000000000000        0x0 CMakeFiles/light_switch_client_nrf52832_xxAA_s132_6.0.0.dir/__/__/__/mesh/core/src/net_state.c.obj
 .data          0x0000000000000000        0x0 CMakeFiles/light_switch_client_nrf52832_xxAA_s132_6.0.0.dir/__/__/__/mesh/core/src/net_state.c.obj
 .bss           0x0000000000000000        0x0 CMakeFiles/light_switch_client_nrf52832_xxAA_s132_6.0.0.dir/__/__/__/mesh/core/src/net_state.c.obj
 .text.net_state_iv_update_start
                0x0000000000000000       0x94 CMakeFiles/light_switch_client_nrf52832_xxAA_s132_6.0.0.dir/__/__/__/mesh/core/src/net_state.c.obj
 .text.net_state_iv_update_test_mode_set
                0x0000000000000000        0xc CMakeFiles/light_switch_client_nrf52832_xxAA_s132_6.0.0.dir/__/__/__/mesh/core/src/net_state.c.obj
 .text.net_state_test_mode_transition_run
                0x0000000000000000      0x170 CMakeFiles/light_switch_client_nrf52832_xxAA_s132_6.0.0.dir/__/__/__/mesh/core/src/net_state.c.obj
 .text          0x0000000000000000        0x0 CMakeFiles/light_switch_client_nrf52832_xxAA_s132_6.0.0.dir/__/__/__/mesh/core/src/mesh_flash.c.obj
 .data          0x0000000000000000        0x0 CMakeFiles/light_switch_client_nrf52832_xxAA_s132_6.0.0.dir/__/__/__/mesh/core/src/mesh_flash.c.obj
 .bss           0x0000000000000000        0x0 CMakeFiles/light_switch_client_nrf52832_xxAA_s132_6.0.0.dir/__/__/__/mesh/core/src/mesh_flash.c.obj
 .text.mesh_flash_op_available_slots
                0x0000000000000000       0x2c CMakeFiles/light_switch_client_nrf52832_xxAA_s132_6.0.0.dir/__/__/__/mesh/core/src/mesh_flash.c.obj
 .text.mesh_flash_in_progress
                0x0000000000000000       0x34 CMakeFiles/light_switch_client_nrf52832_xxAA_s132_6.0.0.dir/__/__/__/mesh/core/src/mesh_flash.c.obj
 .text.mesh_flash_set_suspended
                0x0000000000000000      0x21c CMakeFiles/light_switch_client_nrf52832_xxAA_s132_6.0.0.dir/__/__/__/mesh/core/src/mesh_flash.c.obj
 .bss.suspend_count.10284
                0x0000000000000000        0x4 CMakeFiles/light_switch_client_nrf52832_xxAA_s132_6.0.0.dir/__/__/__/mesh/core/src/mesh_flash.c.obj
 .text          0x0000000000000000        0x0 CMakeFiles/light_switch_client_nrf52832_xxAA_s132_6.0.0.dir/__/__/__/mesh/core/src/nrf_mesh_utils.c.obj
 .data          0x0000000000000000        0x0 CMakeFiles/light_switch_client_nrf52832_xxAA_s132_6.0.0.dir/__/__/__/mesh/core/src/nrf_mesh_utils.c.obj
 .bss           0x0000000000000000        0x0 CMakeFiles/light_switch_client_nrf52832_xxAA_s132_6.0.0.dir/__/__/__/mesh/core/src/nrf_mesh_utils.c.obj
 .text.nrf_mesh_rand_get
                0x0000000000000000       0x10 CMakeFiles/light_switch_client_nrf52832_xxAA_s132_6.0.0.dir/__/__/__/mesh/core/src/nrf_mesh_utils.c.obj
 .text.nrf_mesh_gap_address_type_get
                0x0000000000000000       0x34 CMakeFiles/light_switch_client_nrf52832_xxAA_s132_6.0.0.dir/__/__/__/mesh/core/src/nrf_mesh_utils.c.obj
 .text          0x0000000000000000        0x0 CMakeFiles/light_switch_client_nrf52832_xxAA_s132_6.0.0.dir/__/__/__/mesh/core/src/nrf_mesh.c.obj
 .data          0x0000000000000000        0x0 CMakeFiles/light_switch_client_nrf52832_xxAA_s132_6.0.0.dir/__/__/__/mesh/core/src/nrf_mesh.c.obj
 .bss           0x0000000000000000        0x0 CMakeFiles/light_switch_client_nrf52832_xxAA_s132_6.0.0.dir/__/__/__/mesh/core/src/nrf_mesh.c.obj
 .text.nrf_mesh_disable
                0x0000000000000000       0x30 CMakeFiles/light_switch_client_nrf52832_xxAA_s132_6.0.0.dir/__/__/__/mesh/core/src/nrf_mesh.c.obj
 .text.nrf_mesh_process
                0x0000000000000000        0x4 CMakeFiles/light_switch_client_nrf52832_xxAA_s132_6.0.0.dir/__/__/__/mesh/core/src/nrf_mesh.c.obj
 .text.nrf_mesh_evt_handler_remove
                0x0000000000000000        0x4 CMakeFiles/light_switch_client_nrf52832_xxAA_s132_6.0.0.dir/__/__/__/mesh/core/src/nrf_mesh.c.obj
 .text.nrf_mesh_rx_cb_set
                0x0000000000000000        0xc CMakeFiles/light_switch_client_nrf52832_xxAA_s132_6.0.0.dir/__/__/__/mesh/core/src/nrf_mesh.c.obj
 .text.nrf_mesh_rx_cb_clear
                0x0000000000000000        0xc CMakeFiles/light_switch_client_nrf52832_xxAA_s132_6.0.0.dir/__/__/__/mesh/core/src/nrf_mesh.c.obj
 .text          0x0000000000000000        0x0 CMakeFiles/light_switch_client_nrf52832_xxAA_s132_6.0.0.dir/__/__/__/mesh/core/src/queue.c.obj
 .data          0x0000000000000000        0x0 CMakeFiles/light_switch_client_nrf52832_xxAA_s132_6.0.0.dir/__/__/__/mesh/core/src/queue.c.obj
 .bss           0x0000000000000000        0x0 CMakeFiles/light_switch_client_nrf52832_xxAA_s132_6.0.0.dir/__/__/__/mesh/core/src/queue.c.obj
 .text          0x0000000000000000        0x0 CMakeFiles/light_switch_client_nrf52832_xxAA_s132_6.0.0.dir/__/__/__/mesh/core/src/hal.c.obj
 .data          0x0000000000000000        0x0 CMakeFiles/light_switch_client_nrf52832_xxAA_s132_6.0.0.dir/__/__/__/mesh/core/src/hal.c.obj
 .bss           0x0000000000000000        0x0 CMakeFiles/light_switch_client_nrf52832_xxAA_s132_6.0.0.dir/__/__/__/mesh/core/src/hal.c.obj
 .text          0x0000000000000000        0x0 CMakeFiles/light_switch_client_nrf52832_xxAA_s132_6.0.0.dir/__/__/__/mesh/core/src/aes_cmac.c.obj
 .data          0x0000000000000000        0x0 CMakeFiles/light_switch_client_nrf52832_xxAA_s132_6.0.0.dir/__/__/__/mesh/core/src/aes_cmac.c.obj
 .bss           0x0000000000000000        0x0 CMakeFiles/light_switch_client_nrf52832_xxAA_s132_6.0.0.dir/__/__/__/mesh/core/src/aes_cmac.c.obj
 .text          0x0000000000000000        0x0 CMakeFiles/light_switch_client_nrf52832_xxAA_s132_6.0.0.dir/__/__/__/mesh/core/src/timer_scheduler.c.obj
 .data          0x0000000000000000        0x0 CMakeFiles/light_switch_client_nrf52832_xxAA_s132_6.0.0.dir/__/__/__/mesh/core/src/timer_scheduler.c.obj
 .bss           0x0000000000000000        0x0 CMakeFiles/light_switch_client_nrf52832_xxAA_s132_6.0.0.dir/__/__/__/mesh/core/src/timer_scheduler.c.obj
 .text          0x0000000000000000        0x0 CMakeFiles/light_switch_client_nrf52832_xxAA_s132_6.0.0.dir/__/__/__/mesh/core/src/timer.c.obj
 .data          0x0000000000000000        0x0 CMakeFiles/light_switch_client_nrf52832_xxAA_s132_6.0.0.dir/__/__/__/mesh/core/src/timer.c.obj
 .bss           0x0000000000000000        0x0 CMakeFiles/light_switch_client_nrf52832_xxAA_s132_6.0.0.dir/__/__/__/mesh/core/src/timer.c.obj
 .text.timer_order_cb_ppi
                0x0000000000000000       0xd8 CMakeFiles/light_switch_client_nrf52832_xxAA_s132_6.0.0.dir/__/__/__/mesh/core/src/timer.c.obj
 .text.timer_order_ppi
                0x0000000000000000       0xcc CMakeFiles/light_switch_client_nrf52832_xxAA_s132_6.0.0.dir/__/__/__/mesh/core/src/timer.c.obj
 .text.timer_abort
                0x0000000000000000       0x84 CMakeFiles/light_switch_client_nrf52832_xxAA_s132_6.0.0.dir/__/__/__/mesh/core/src/timer.c.obj
 .text          0x0000000000000000        0x0 CMakeFiles/light_switch_client_nrf52832_xxAA_s132_6.0.0.dir/__/__/__/mesh/core/src/ticker.c.obj
 .data          0x0000000000000000        0x0 CMakeFiles/light_switch_client_nrf52832_xxAA_s132_6.0.0.dir/__/__/__/mesh/core/src/ticker.c.obj
 .bss           0x0000000000000000        0x0 CMakeFiles/light_switch_client_nrf52832_xxAA_s132_6.0.0.dir/__/__/__/mesh/core/src/ticker.c.obj
 .text.ticker_get
                0x0000000000000000        0xc CMakeFiles/light_switch_client_nrf52832_xxAA_s132_6.0.0.dir/__/__/__/mesh/core/src/ticker.c.obj
 .text          0x0000000000000000        0x0 CMakeFiles/light_switch_client_nrf52832_xxAA_s132_6.0.0.dir/__/__/__/mesh/core/src/rand.c.obj
 .data          0x0000000000000000        0x0 CMakeFiles/light_switch_client_nrf52832_xxAA_s132_6.0.0.dir/__/__/__/mesh/core/src/rand.c.obj
 .bss           0x0000000000000000        0x0 CMakeFiles/light_switch_client_nrf52832_xxAA_s132_6.0.0.dir/__/__/__/mesh/core/src/rand.c.obj
 .text          0x0000000000000000        0x0 CMakeFiles/light_switch_client_nrf52832_xxAA_s132_6.0.0.dir/__/__/__/mesh/core/src/nrf_mesh_opt.c.obj
 .data          0x0000000000000000        0x0 CMakeFiles/light_switch_client_nrf52832_xxAA_s132_6.0.0.dir/__/__/__/mesh/core/src/nrf_mesh_opt.c.obj
 .bss           0x0000000000000000        0x0 CMakeFiles/light_switch_client_nrf52832_xxAA_s132_6.0.0.dir/__/__/__/mesh/core/src/nrf_mesh_opt.c.obj
 .text          0x0000000000000000        0x0 CMakeFiles/light_switch_client_nrf52832_xxAA_s132_6.0.0.dir/__/__/__/mesh/core/src/timeslot.c.obj
 .data          0x0000000000000000        0x0 CMakeFiles/light_switch_client_nrf52832_xxAA_s132_6.0.0.dir/__/__/__/mesh/core/src/timeslot.c.obj
 .bss           0x0000000000000000        0x0 CMakeFiles/light_switch_client_nrf52832_xxAA_s132_6.0.0.dir/__/__/__/mesh/core/src/timeslot.c.obj
 .text.timeslot_restart
                0x0000000000000000       0x30 CMakeFiles/light_switch_client_nrf52832_xxAA_s132_6.0.0.dir/__/__/__/mesh/core/src/timeslot.c.obj
 .text.timeslot_end_time_get
                0x0000000000000000       0x30 CMakeFiles/light_switch_client_nrf52832_xxAA_s132_6.0.0.dir/__/__/__/mesh/core/src/timeslot.c.obj
 .text.timeslot_is_in_ts
                0x0000000000000000        0xc CMakeFiles/light_switch_client_nrf52832_xxAA_s132_6.0.0.dir/__/__/__/mesh/core/src/timeslot.c.obj
 .text          0x0000000000000000        0x0 CMakeFiles/light_switch_client_nrf52832_xxAA_s132_6.0.0.dir/__/__/__/mesh/core/src/bearer_event.c.obj
 .data          0x0000000000000000        0x0 CMakeFiles/light_switch_client_nrf52832_xxAA_s132_6.0.0.dir/__/__/__/mesh/core/src/bearer_event.c.obj
 .bss           0x0000000000000000        0x0 CMakeFiles/light_switch_client_nrf52832_xxAA_s132_6.0.0.dir/__/__/__/mesh/core/src/bearer_event.c.obj
 .text.bearer_event_generic_post
                0x0000000000000000       0x50 CMakeFiles/light_switch_client_nrf52832_xxAA_s132_6.0.0.dir/__/__/__/mesh/core/src/bearer_event.c.obj
 .text.bearer_event_timer_sch_post
                0x0000000000000000       0x54 CMakeFiles/light_switch_client_nrf52832_xxAA_s132_6.0.0.dir/__/__/__/mesh/core/src/bearer_event.c.obj
 .text.bearer_event_in_correct_irq_priority
                0x0000000000000000       0x58 CMakeFiles/light_switch_client_nrf52832_xxAA_s132_6.0.0.dir/__/__/__/mesh/core/src/bearer_event.c.obj
 .text          0x0000000000000000        0x0 CMakeFiles/light_switch_client_nrf52832_xxAA_s132_6.0.0.dir/__/__/__/mesh/core/src/enc.c.obj
 .data          0x0000000000000000        0x0 CMakeFiles/light_switch_client_nrf52832_xxAA_s132_6.0.0.dir/__/__/__/mesh/core/src/enc.c.obj
 .bss           0x0000000000000000        0x0 CMakeFiles/light_switch_client_nrf52832_xxAA_s132_6.0.0.dir/__/__/__/mesh/core/src/enc.c.obj
 .text.enc_key_generate
                0x0000000000000000        0x8 CMakeFiles/light_switch_client_nrf52832_xxAA_s132_6.0.0.dir/__/__/__/mesh/core/src/enc.c.obj
 .text          0x0000000000000000        0x0 CMakeFiles/light_switch_client_nrf52832_xxAA_s132_6.0.0.dir/__/__/__/mesh/core/src/network.c.obj
 .data          0x0000000000000000        0x0 CMakeFiles/light_switch_client_nrf52832_xxAA_s132_6.0.0.dir/__/__/__/mesh/core/src/network.c.obj
 .bss           0x0000000000000000        0x0 CMakeFiles/light_switch_client_nrf52832_xxAA_s132_6.0.0.dir/__/__/__/mesh/core/src/network.c.obj
 .text.network_packet_discard
                0x0000000000000000       0x28 CMakeFiles/light_switch_client_nrf52832_xxAA_s132_6.0.0.dir/__/__/__/mesh/core/src/network.c.obj
 .text          0x0000000000000000        0x0 CMakeFiles/light_switch_client_nrf52832_xxAA_s132_6.0.0.dir/__/__/__/mesh/core/src/net_packet.c.obj
 .data          0x0000000000000000        0x0 CMakeFiles/light_switch_client_nrf52832_xxAA_s132_6.0.0.dir/__/__/__/mesh/core/src/net_packet.c.obj
 .bss           0x0000000000000000        0x0 CMakeFiles/light_switch_client_nrf52832_xxAA_s132_6.0.0.dir/__/__/__/mesh/core/src/net_packet.c.obj
 .text.net_packet_enc_start_get
                0x0000000000000000        0x4 CMakeFiles/light_switch_client_nrf52832_xxAA_s132_6.0.0.dir/__/__/__/mesh/core/src/net_packet.c.obj
 .text.net_packet_payload_get
                0x0000000000000000        0x4 CMakeFiles/light_switch_client_nrf52832_xxAA_s132_6.0.0.dir/__/__/__/mesh/core/src/net_packet.c.obj
 .text          0x0000000000000000        0x0 CMakeFiles/light_switch_client_nrf52832_xxAA_s132_6.0.0.dir/__/__/__/mesh/core/src/msqueue.c.obj
 .data          0x0000000000000000        0x0 CMakeFiles/light_switch_client_nrf52832_xxAA_s132_6.0.0.dir/__/__/__/mesh/core/src/msqueue.c.obj
 .bss           0x0000000000000000        0x0 CMakeFiles/light_switch_client_nrf52832_xxAA_s132_6.0.0.dir/__/__/__/mesh/core/src/msqueue.c.obj
 .text.msq_reset
                0x0000000000000000       0x24 CMakeFiles/light_switch_client_nrf52832_xxAA_s132_6.0.0.dir/__/__/__/mesh/core/src/msqueue.c.obj
 .text          0x0000000000000000        0x0 CMakeFiles/light_switch_client_nrf52832_xxAA_s132_6.0.0.dir/__/__/__/mesh/core/src/nrf_mesh_keygen.c.obj
 .data          0x0000000000000000        0x0 CMakeFiles/light_switch_client_nrf52832_xxAA_s132_6.0.0.dir/__/__/__/mesh/core/src/nrf_mesh_keygen.c.obj
 .bss           0x0000000000000000        0x0 CMakeFiles/light_switch_client_nrf52832_xxAA_s132_6.0.0.dir/__/__/__/mesh/core/src/nrf_mesh_keygen.c.obj
 .text.nrf_mesh_keygen_identitykey
                0x0000000000000000       0x4c CMakeFiles/light_switch_client_nrf52832_xxAA_s132_6.0.0.dir/__/__/__/mesh/core/src/nrf_mesh_keygen.c.obj
 .text          0x0000000000000000        0x0 CMakeFiles/light_switch_client_nrf52832_xxAA_s132_6.0.0.dir/__/__/__/mesh/core/src/cache.c.obj
 .data          0x0000000000000000        0x0 CMakeFiles/light_switch_client_nrf52832_xxAA_s132_6.0.0.dir/__/__/__/mesh/core/src/cache.c.obj
 .bss           0x0000000000000000        0x0 CMakeFiles/light_switch_client_nrf52832_xxAA_s132_6.0.0.dir/__/__/__/mesh/core/src/cache.c.obj
 .text.cache_init
                0x0000000000000000       0x40 CMakeFiles/light_switch_client_nrf52832_xxAA_s132_6.0.0.dir/__/__/__/mesh/core/src/cache.c.obj
 .text.cache_has_elem
                0x0000000000000000       0x54 CMakeFiles/light_switch_client_nrf52832_xxAA_s132_6.0.0.dir/__/__/__/mesh/core/src/cache.c.obj
 .text.cache_put
                0x0000000000000000       0x2c CMakeFiles/light_switch_client_nrf52832_xxAA_s132_6.0.0.dir/__/__/__/mesh/core/src/cache.c.obj
 .text.cache_erase_elem
                0x0000000000000000       0x6c CMakeFiles/light_switch_client_nrf52832_xxAA_s132_6.0.0.dir/__/__/__/mesh/core/src/cache.c.obj
 .debug_info    0x0000000000000000      0xbf9 CMakeFiles/light_switch_client_nrf52832_xxAA_s132_6.0.0.dir/__/__/__/mesh/core/src/cache.c.obj
 .debug_abbrev  0x0000000000000000      0x2e2 CMakeFiles/light_switch_client_nrf52832_xxAA_s132_6.0.0.dir/__/__/__/mesh/core/src/cache.c.obj
 .debug_loc     0x0000000000000000      0x3dc CMakeFiles/light_switch_client_nrf52832_xxAA_s132_6.0.0.dir/__/__/__/mesh/core/src/cache.c.obj
 .debug_aranges
                0x0000000000000000       0x38 CMakeFiles/light_switch_client_nrf52832_xxAA_s132_6.0.0.dir/__/__/__/mesh/core/src/cache.c.obj
 .debug_ranges  0x0000000000000000       0xb0 CMakeFiles/light_switch_client_nrf52832_xxAA_s132_6.0.0.dir/__/__/__/mesh/core/src/cache.c.obj
 .debug_line    0x0000000000000000      0x255 CMakeFiles/light_switch_client_nrf52832_xxAA_s132_6.0.0.dir/__/__/__/mesh/core/src/cache.c.obj
 .debug_str     0x0000000000000000      0x71f CMakeFiles/light_switch_client_nrf52832_xxAA_s132_6.0.0.dir/__/__/__/mesh/core/src/cache.c.obj
 .comment       0x0000000000000000       0x7f CMakeFiles/light_switch_client_nrf52832_xxAA_s132_6.0.0.dir/__/__/__/mesh/core/src/cache.c.obj
 .debug_frame   0x0000000000000000       0x90 CMakeFiles/light_switch_client_nrf52832_xxAA_s132_6.0.0.dir/__/__/__/mesh/core/src/cache.c.obj
 .ARM.attributes
                0x0000000000000000       0x39 CMakeFiles/light_switch_client_nrf52832_xxAA_s132_6.0.0.dir/__/__/__/mesh/core/src/cache.c.obj
 .text          0x0000000000000000        0x0 CMakeFiles/light_switch_client_nrf52832_xxAA_s132_6.0.0.dir/__/__/__/mesh/core/src/uri.c.obj
 .data          0x0000000000000000        0x0 CMakeFiles/light_switch_client_nrf52832_xxAA_s132_6.0.0.dir/__/__/__/mesh/core/src/uri.c.obj
 .bss           0x0000000000000000        0x0 CMakeFiles/light_switch_client_nrf52832_xxAA_s132_6.0.0.dir/__/__/__/mesh/core/src/uri.c.obj
 .text.uri_data_generate
                0x0000000000000000       0x88 CMakeFiles/light_switch_client_nrf52832_xxAA_s132_6.0.0.dir/__/__/__/mesh/core/src/uri.c.obj
 .text.uri_data_parse
                0x0000000000000000       0x84 CMakeFiles/light_switch_client_nrf52832_xxAA_s132_6.0.0.dir/__/__/__/mesh/core/src/uri.c.obj
 .text.uri_scheme_name_code_point
                0x0000000000000000       0x5c CMakeFiles/light_switch_client_nrf52832_xxAA_s132_6.0.0.dir/__/__/__/mesh/core/src/uri.c.obj
 .text.uri_scheme_name_string
                0x0000000000000000       0x14 CMakeFiles/light_switch_client_nrf52832_xxAA_s132_6.0.0.dir/__/__/__/mesh/core/src/uri.c.obj
 .rodata.m_code_point_strings
                0x0000000000000000      0x2ec CMakeFiles/light_switch_client_nrf52832_xxAA_s132_6.0.0.dir/__/__/__/mesh/core/src/uri.c.obj
 .rodata.str1.4
                0x0000000000000000      0x6ba CMakeFiles/light_switch_client_nrf52832_xxAA_s132_6.0.0.dir/__/__/__/mesh/core/src/uri.c.obj
 .debug_info    0x0000000000000000      0xd55 CMakeFiles/light_switch_client_nrf52832_xxAA_s132_6.0.0.dir/__/__/__/mesh/core/src/uri.c.obj
 .debug_abbrev  0x0000000000000000      0x331 CMakeFiles/light_switch_client_nrf52832_xxAA_s132_6.0.0.dir/__/__/__/mesh/core/src/uri.c.obj
 .debug_loc     0x0000000000000000      0x38d CMakeFiles/light_switch_client_nrf52832_xxAA_s132_6.0.0.dir/__/__/__/mesh/core/src/uri.c.obj
 .debug_aranges
                0x0000000000000000       0x38 CMakeFiles/light_switch_client_nrf52832_xxAA_s132_6.0.0.dir/__/__/__/mesh/core/src/uri.c.obj
 .debug_ranges  0x0000000000000000       0x58 CMakeFiles/light_switch_client_nrf52832_xxAA_s132_6.0.0.dir/__/__/__/mesh/core/src/uri.c.obj
 .debug_line    0x0000000000000000      0x31f CMakeFiles/light_switch_client_nrf52832_xxAA_s132_6.0.0.dir/__/__/__/mesh/core/src/uri.c.obj
 .debug_str     0x0000000000000000      0x74d CMakeFiles/light_switch_client_nrf52832_xxAA_s132_6.0.0.dir/__/__/__/mesh/core/src/uri.c.obj
 .comment       0x0000000000000000       0x7f CMakeFiles/light_switch_client_nrf52832_xxAA_s132_6.0.0.dir/__/__/__/mesh/core/src/uri.c.obj
 .debug_frame   0x0000000000000000       0x8c CMakeFiles/light_switch_client_nrf52832_xxAA_s132_6.0.0.dir/__/__/__/mesh/core/src/uri.c.obj
 .ARM.attributes
                0x0000000000000000       0x39 CMakeFiles/light_switch_client_nrf52832_xxAA_s132_6.0.0.dir/__/__/__/mesh/core/src/uri.c.obj
 .text          0x0000000000000000        0x0 CMakeFiles/light_switch_client_nrf52832_xxAA_s132_6.0.0.dir/__/__/__/mesh/core/src/list.c.obj
 .data          0x0000000000000000        0x0 CMakeFiles/light_switch_client_nrf52832_xxAA_s132_6.0.0.dir/__/__/__/mesh/core/src/list.c.obj
 .bss           0x0000000000000000        0x0 CMakeFiles/light_switch_client_nrf52832_xxAA_s132_6.0.0.dir/__/__/__/mesh/core/src/list.c.obj
 .text.list_size_get
                0x0000000000000000       0x14 CMakeFiles/light_switch_client_nrf52832_xxAA_s132_6.0.0.dir/__/__/__/mesh/core/src/list.c.obj
 .text.list_sorted_add
                0x0000000000000000       0x88 CMakeFiles/light_switch_client_nrf52832_xxAA_s132_6.0.0.dir/__/__/__/mesh/core/src/list.c.obj
 .text          0x0000000000000000        0x0 CMakeFiles/light_switch_client_nrf52832_xxAA_s132_6.0.0.dir/__/__/__/mesh/core/src/log.c.obj
 .data          0x0000000000000000        0x0 CMakeFiles/light_switch_client_nrf52832_xxAA_s132_6.0.0.dir/__/__/__/mesh/core/src/log.c.obj
 .bss           0x0000000000000000        0x0 CMakeFiles/light_switch_client_nrf52832_xxAA_s132_6.0.0.dir/__/__/__/mesh/core/src/log.c.obj
 .text.log_callback_logview
                0x0000000000000000       0x38 CMakeFiles/light_switch_client_nrf52832_xxAA_s132_6.0.0.dir/__/__/__/mesh/core/src/log.c.obj
 .text.log_set_callback
                0x0000000000000000        0xc CMakeFiles/light_switch_client_nrf52832_xxAA_s132_6.0.0.dir/__/__/__/mesh/core/src/log.c.obj
 .text.log_vprintf
                0x0000000000000000       0x1c CMakeFiles/light_switch_client_nrf52832_xxAA_s132_6.0.0.dir/__/__/__/mesh/core/src/log.c.obj
 .rodata.log_callback_logview.str1.4
                0x0000000000000000       0x12 CMakeFiles/light_switch_client_nrf52832_xxAA_s132_6.0.0.dir/__/__/__/mesh/core/src/log.c.obj
 .text          0x0000000000000000        0x0 CMakeFiles/light_switch_client_nrf52832_xxAA_s132_6.0.0.dir/__/__/__/mesh/core/src/flash_manager.c.obj
 .data          0x0000000000000000        0x0 CMakeFiles/light_switch_client_nrf52832_xxAA_s132_6.0.0.dir/__/__/__/mesh/core/src/flash_manager.c.obj
 .bss           0x0000000000000000        0x0 CMakeFiles/light_switch_client_nrf52832_xxAA_s132_6.0.0.dir/__/__/__/mesh/core/src/flash_manager.c.obj
 .text.flash_manager_entry_count_get
                0x0000000000000000       0xfc CMakeFiles/light_switch_client_nrf52832_xxAA_s132_6.0.0.dir/__/__/__/mesh/core/src/flash_manager.c.obj
 .text.flash_manager_entry_release
                0x0000000000000000       0x74 CMakeFiles/light_switch_client_nrf52832_xxAA_s132_6.0.0.dir/__/__/__/mesh/core/src/flash_manager.c.obj
 .text          0x0000000000000000        0x0 CMakeFiles/light_switch_client_nrf52832_xxAA_s132_6.0.0.dir/__/__/__/mesh/core/src/ccm_soft.c.obj
 .data          0x0000000000000000        0x0 CMakeFiles/light_switch_client_nrf52832_xxAA_s132_6.0.0.dir/__/__/__/mesh/core/src/ccm_soft.c.obj
 .bss           0x0000000000000000        0x0 CMakeFiles/light_switch_client_nrf52832_xxAA_s132_6.0.0.dir/__/__/__/mesh/core/src/ccm_soft.c.obj
 .text          0x0000000000000000        0x0 CMakeFiles/light_switch_client_nrf52832_xxAA_s132_6.0.0.dir/__/__/__/mesh/core/src/toolchain.c.obj
 .data          0x0000000000000000        0x0 CMakeFiles/light_switch_client_nrf52832_xxAA_s132_6.0.0.dir/__/__/__/mesh/core/src/toolchain.c.obj
 .bss           0x0000000000000000        0x0 CMakeFiles/light_switch_client_nrf52832_xxAA_s132_6.0.0.dir/__/__/__/mesh/core/src/toolchain.c.obj
 .debug_info    0x0000000000000000       0xac CMakeFiles/light_switch_client_nrf52832_xxAA_s132_6.0.0.dir/__/__/__/mesh/core/src/toolchain.c.obj
 .debug_abbrev  0x0000000000000000       0x5c CMakeFiles/light_switch_client_nrf52832_xxAA_s132_6.0.0.dir/__/__/__/mesh/core/src/toolchain.c.obj
 .debug_aranges
                0x0000000000000000       0x18 CMakeFiles/light_switch_client_nrf52832_xxAA_s132_6.0.0.dir/__/__/__/mesh/core/src/toolchain.c.obj
 .debug_line    0x0000000000000000      0x12e CMakeFiles/light_switch_client_nrf52832_xxAA_s132_6.0.0.dir/__/__/__/mesh/core/src/toolchain.c.obj
 .debug_str     0x0000000000000000      0x26a CMakeFiles/light_switch_client_nrf52832_xxAA_s132_6.0.0.dir/__/__/__/mesh/core/src/toolchain.c.obj
 .comment       0x0000000000000000       0x7f CMakeFiles/light_switch_client_nrf52832_xxAA_s132_6.0.0.dir/__/__/__/mesh/core/src/toolchain.c.obj
 .ARM.attributes
                0x0000000000000000       0x39 CMakeFiles/light_switch_client_nrf52832_xxAA_s132_6.0.0.dir/__/__/__/mesh/core/src/toolchain.c.obj
 .text          0x0000000000000000        0x0 CMakeFiles/light_switch_client_nrf52832_xxAA_s132_6.0.0.dir/__/__/__/mesh/core/src/replay_cache.c.obj
 .data          0x0000000000000000        0x0 CMakeFiles/light_switch_client_nrf52832_xxAA_s132_6.0.0.dir/__/__/__/mesh/core/src/replay_cache.c.obj
 .bss           0x0000000000000000        0x0 CMakeFiles/light_switch_client_nrf52832_xxAA_s132_6.0.0.dir/__/__/__/mesh/core/src/replay_cache.c.obj
 .text.replay_cache_on_iv_update
                0x0000000000000000       0x2c CMakeFiles/light_switch_client_nrf52832_xxAA_s132_6.0.0.dir/__/__/__/mesh/core/src/replay_cache.c.obj
 .text.replay_cache_clear
                0x0000000000000000       0x20 CMakeFiles/light_switch_client_nrf52832_xxAA_s132_6.0.0.dir/__/__/__/mesh/core/src/replay_cache.c.obj
 .text          0x0000000000000000        0x0 CMakeFiles/light_switch_client_nrf52832_xxAA_s132_6.0.0.dir/__/__/__/mesh/core/src/beacon.c.obj
 .data          0x0000000000000000        0x0 CMakeFiles/light_switch_client_nrf52832_xxAA_s132_6.0.0.dir/__/__/__/mesh/core/src/beacon.c.obj
 .bss           0x0000000000000000        0x0 CMakeFiles/light_switch_client_nrf52832_xxAA_s132_6.0.0.dir/__/__/__/mesh/core/src/beacon.c.obj
 .text          0x0000000000000000        0x0 CMakeFiles/light_switch_client_nrf52832_xxAA_s132_6.0.0.dir/__/__/__/mesh/core/src/flash_manager_internal.c.obj
 .data          0x0000000000000000        0x0 CMakeFiles/light_switch_client_nrf52832_xxAA_s132_6.0.0.dir/__/__/__/mesh/core/src/flash_manager_internal.c.obj
 .bss           0x0000000000000000        0x0 CMakeFiles/light_switch_client_nrf52832_xxAA_s132_6.0.0.dir/__/__/__/mesh/core/src/flash_manager_internal.c.obj
 .text          0x0000000000000000        0x0 CMakeFiles/light_switch_client_nrf52832_xxAA_s132_6.0.0.dir/__/__/__/mesh/core/src/core_tx.c.obj
 .data          0x0000000000000000        0x0 CMakeFiles/light_switch_client_nrf52832_xxAA_s132_6.0.0.dir/__/__/__/mesh/core/src/core_tx.c.obj
 .bss           0x0000000000000000        0x0 CMakeFiles/light_switch_client_nrf52832_xxAA_s132_6.0.0.dir/__/__/__/mesh/core/src/core_tx.c.obj
 .text.core_tx_bearer_type_get
                0x0000000000000000       0x2c CMakeFiles/light_switch_client_nrf52832_xxAA_s132_6.0.0.dir/__/__/__/mesh/core/src/core_tx.c.obj
 .text.core_tx_bearer_count_get
                0x0000000000000000        0xc CMakeFiles/light_switch_client_nrf52832_xxAA_s132_6.0.0.dir/__/__/__/mesh/core/src/core_tx.c.obj
 .text          0x0000000000000000        0x0 CMakeFiles/light_switch_client_nrf52832_xxAA_s132_6.0.0.dir/__/__/__/mesh/core/src/heartbeat.c.obj
 .data          0x0000000000000000        0x0 CMakeFiles/light_switch_client_nrf52832_xxAA_s132_6.0.0.dir/__/__/__/mesh/core/src/heartbeat.c.obj
 .bss           0x0000000000000000        0x0 CMakeFiles/light_switch_client_nrf52832_xxAA_s132_6.0.0.dir/__/__/__/mesh/core/src/heartbeat.c.obj
 .text          0x0000000000000000        0x0 CMakeFiles/light_switch_client_nrf52832_xxAA_s132_6.0.0.dir/__/__/__/mesh/core/src/net_beacon.c.obj
 .data          0x0000000000000000        0x0 CMakeFiles/light_switch_client_nrf52832_xxAA_s132_6.0.0.dir/__/__/__/mesh/core/src/net_beacon.c.obj
 .bss           0x0000000000000000        0x0 CMakeFiles/light_switch_client_nrf52832_xxAA_s132_6.0.0.dir/__/__/__/mesh/core/src/net_beacon.c.obj
 .text.net_beacon_build
                0x0000000000000000       0x68 CMakeFiles/light_switch_client_nrf52832_xxAA_s132_6.0.0.dir/__/__/__/mesh/core/src/net_beacon.c.obj
 .text          0x0000000000000000        0x0 CMakeFiles/light_switch_client_nrf52832_xxAA_s132_6.0.0.dir/__/__/__/mesh/core/src/fsm.c.obj
 .data          0x0000000000000000        0x0 CMakeFiles/light_switch_client_nrf52832_xxAA_s132_6.0.0.dir/__/__/__/mesh/core/src/fsm.c.obj
 .bss           0x0000000000000000        0x0 CMakeFiles/light_switch_client_nrf52832_xxAA_s132_6.0.0.dir/__/__/__/mesh/core/src/fsm.c.obj
 .text.fsm_event_post_try
                0x0000000000000000      0x24c CMakeFiles/light_switch_client_nrf52832_xxAA_s132_6.0.0.dir/__/__/__/mesh/core/src/fsm.c.obj
 .text.fsm_init
                0x0000000000000000      0x100 CMakeFiles/light_switch_client_nrf52832_xxAA_s132_6.0.0.dir/__/__/__/mesh/core/src/fsm.c.obj
 .text.fsm_event_post
                0x0000000000000000       0xbc CMakeFiles/light_switch_client_nrf52832_xxAA_s132_6.0.0.dir/__/__/__/mesh/core/src/fsm.c.obj
 .text.fsm_is_processing
                0x0000000000000000        0xc CMakeFiles/light_switch_client_nrf52832_xxAA_s132_6.0.0.dir/__/__/__/mesh/core/src/fsm.c.obj
 .rodata.fsm_event_post.str1.4
                0x0000000000000000        0xb CMakeFiles/light_switch_client_nrf52832_xxAA_s132_6.0.0.dir/__/__/__/mesh/core/src/fsm.c.obj
 .rodata.fsm_event_post_try.str1.4
                0x0000000000000000       0x7c CMakeFiles/light_switch_client_nrf52832_xxAA_s132_6.0.0.dir/__/__/__/mesh/core/src/fsm.c.obj
 .rodata.fsm_init.str1.4
                0x0000000000000000        0xa CMakeFiles/light_switch_client_nrf52832_xxAA_s132_6.0.0.dir/__/__/__/mesh/core/src/fsm.c.obj
 .debug_info    0x0000000000000000     0x13e3 CMakeFiles/light_switch_client_nrf52832_xxAA_s132_6.0.0.dir/__/__/__/mesh/core/src/fsm.c.obj
 .debug_abbrev  0x0000000000000000      0x35d CMakeFiles/light_switch_client_nrf52832_xxAA_s132_6.0.0.dir/__/__/__/mesh/core/src/fsm.c.obj
 .debug_loc     0x0000000000000000      0x4f3 CMakeFiles/light_switch_client_nrf52832_xxAA_s132_6.0.0.dir/__/__/__/mesh/core/src/fsm.c.obj
 .debug_aranges
                0x0000000000000000       0x38 CMakeFiles/light_switch_client_nrf52832_xxAA_s132_6.0.0.dir/__/__/__/mesh/core/src/fsm.c.obj
 .debug_ranges  0x0000000000000000       0xd8 CMakeFiles/light_switch_client_nrf52832_xxAA_s132_6.0.0.dir/__/__/__/mesh/core/src/fsm.c.obj
 .debug_line    0x0000000000000000      0x487 CMakeFiles/light_switch_client_nrf52832_xxAA_s132_6.0.0.dir/__/__/__/mesh/core/src/fsm.c.obj
 .debug_str     0x0000000000000000      0x9f4 CMakeFiles/light_switch_client_nrf52832_xxAA_s132_6.0.0.dir/__/__/__/mesh/core/src/fsm.c.obj
 .comment       0x0000000000000000       0x7f CMakeFiles/light_switch_client_nrf52832_xxAA_s132_6.0.0.dir/__/__/__/mesh/core/src/fsm.c.obj
 .debug_frame   0x0000000000000000       0xb0 CMakeFiles/light_switch_client_nrf52832_xxAA_s132_6.0.0.dir/__/__/__/mesh/core/src/fsm.c.obj
 .ARM.attributes
                0x0000000000000000       0x39 CMakeFiles/light_switch_client_nrf52832_xxAA_s132_6.0.0.dir/__/__/__/mesh/core/src/fsm.c.obj
 .text          0x0000000000000000        0x0 CMakeFiles/light_switch_client_nrf52832_xxAA_s132_6.0.0.dir/__/__/__/mesh/core/src/core_tx_adv.c.obj
 .data          0x0000000000000000        0x0 CMakeFiles/light_switch_client_nrf52832_xxAA_s132_6.0.0.dir/__/__/__/mesh/core/src/core_tx_adv.c.obj
 .bss           0x0000000000000000        0x0 CMakeFiles/light_switch_client_nrf52832_xxAA_s132_6.0.0.dir/__/__/__/mesh/core/src/core_tx_adv.c.obj
 .text.core_tx_adv_address_set
                0x0000000000000000       0x28 CMakeFiles/light_switch_client_nrf52832_xxAA_s132_6.0.0.dir/__/__/__/mesh/core/src/core_tx_adv.c.obj
 .text          0x0000000000000000        0x0 CMakeFiles/light_switch_client_nrf52832_xxAA_s132_6.0.0.dir/__/__/__/mesh/bearer/src/ad_listener.c.obj
 .data          0x0000000000000000        0x0 CMakeFiles/light_switch_client_nrf52832_xxAA_s132_6.0.0.dir/__/__/__/mesh/bearer/src/ad_listener.c.obj
 .bss           0x0000000000000000        0x0 CMakeFiles/light_switch_client_nrf52832_xxAA_s132_6.0.0.dir/__/__/__/mesh/bearer/src/ad_listener.c.obj
 .text.ad_listener_unsubscribe
                0x0000000000000000       0x78 CMakeFiles/light_switch_client_nrf52832_xxAA_s132_6.0.0.dir/__/__/__/mesh/bearer/src/ad_listener.c.obj
 .text          0x0000000000000000        0x0 CMakeFiles/light_switch_client_nrf52832_xxAA_s132_6.0.0.dir/__/__/__/mesh/bearer/src/ad_type_filter.c.obj
 .data          0x0000000000000000        0x0 CMakeFiles/light_switch_client_nrf52832_xxAA_s132_6.0.0.dir/__/__/__/mesh/bearer/src/ad_type_filter.c.obj
 .bss           0x0000000000000000        0x0 CMakeFiles/light_switch_client_nrf52832_xxAA_s132_6.0.0.dir/__/__/__/mesh/bearer/src/ad_type_filter.c.obj
 .text.bearer_adtype_remove
                0x0000000000000000       0x28 CMakeFiles/light_switch_client_nrf52832_xxAA_s132_6.0.0.dir/__/__/__/mesh/bearer/src/ad_type_filter.c.obj
 .text.bearer_adtype_clear
                0x0000000000000000       0x10 CMakeFiles/light_switch_client_nrf52832_xxAA_s132_6.0.0.dir/__/__/__/mesh/bearer/src/ad_type_filter.c.obj
 .text.bearer_invalid_length_amount_get
                0x0000000000000000        0xc CMakeFiles/light_switch_client_nrf52832_xxAA_s132_6.0.0.dir/__/__/__/mesh/bearer/src/ad_type_filter.c.obj
 .text.bearer_adtype_filtered_amount_get
                0x0000000000000000        0xc CMakeFiles/light_switch_client_nrf52832_xxAA_s132_6.0.0.dir/__/__/__/mesh/bearer/src/ad_type_filter.c.obj
 .text          0x0000000000000000        0x0 CMakeFiles/light_switch_client_nrf52832_xxAA_s132_6.0.0.dir/__/__/__/mesh/bearer/src/adv_packet_filter.c.obj
 .data          0x0000000000000000        0x0 CMakeFiles/light_switch_client_nrf52832_xxAA_s132_6.0.0.dir/__/__/__/mesh/bearer/src/adv_packet_filter.c.obj
 .bss           0x0000000000000000        0x0 CMakeFiles/light_switch_client_nrf52832_xxAA_s132_6.0.0.dir/__/__/__/mesh/bearer/src/adv_packet_filter.c.obj
 .text.adv_filter_handle
                0x0000000000000000       0x40 CMakeFiles/light_switch_client_nrf52832_xxAA_s132_6.0.0.dir/__/__/__/mesh/bearer/src/adv_packet_filter.c.obj
 .text.bearer_adv_packet_filtering_set
                0x0000000000000000       0x1c CMakeFiles/light_switch_client_nrf52832_xxAA_s132_6.0.0.dir/__/__/__/mesh/bearer/src/adv_packet_filter.c.obj
 .text.bearer_adv_packet_remove
                0x0000000000000000       0x18 CMakeFiles/light_switch_client_nrf52832_xxAA_s132_6.0.0.dir/__/__/__/mesh/bearer/src/adv_packet_filter.c.obj
 .text.bearer_adv_packet_add
                0x0000000000000000       0x14 CMakeFiles/light_switch_client_nrf52832_xxAA_s132_6.0.0.dir/__/__/__/mesh/bearer/src/adv_packet_filter.c.obj
 .text.bearer_adv_packet_clear
                0x0000000000000000        0xc CMakeFiles/light_switch_client_nrf52832_xxAA_s132_6.0.0.dir/__/__/__/mesh/bearer/src/adv_packet_filter.c.obj
 .text.bearer_adv_packet_filter_mode_set
                0x0000000000000000       0x18 CMakeFiles/light_switch_client_nrf52832_xxAA_s132_6.0.0.dir/__/__/__/mesh/bearer/src/adv_packet_filter.c.obj
 .text.bearer_adv_packet_filtered_amount_get
                0x0000000000000000        0xc CMakeFiles/light_switch_client_nrf52832_xxAA_s132_6.0.0.dir/__/__/__/mesh/bearer/src/adv_packet_filter.c.obj
 .bss.m_adv_packet_filter
                0x0000000000000000       0x14 CMakeFiles/light_switch_client_nrf52832_xxAA_s132_6.0.0.dir/__/__/__/mesh/bearer/src/adv_packet_filter.c.obj
 .debug_info    0x0000000000000000      0xd92 CMakeFiles/light_switch_client_nrf52832_xxAA_s132_6.0.0.dir/__/__/__/mesh/bearer/src/adv_packet_filter.c.obj
 .debug_abbrev  0x0000000000000000      0x2cb CMakeFiles/light_switch_client_nrf52832_xxAA_s132_6.0.0.dir/__/__/__/mesh/bearer/src/adv_packet_filter.c.obj
 .debug_loc     0x0000000000000000      0x1b2 CMakeFiles/light_switch_client_nrf52832_xxAA_s132_6.0.0.dir/__/__/__/mesh/bearer/src/adv_packet_filter.c.obj
 .debug_aranges
                0x0000000000000000       0x50 CMakeFiles/light_switch_client_nrf52832_xxAA_s132_6.0.0.dir/__/__/__/mesh/bearer/src/adv_packet_filter.c.obj
 .debug_ranges  0x0000000000000000       0x40 CMakeFiles/light_switch_client_nrf52832_xxAA_s132_6.0.0.dir/__/__/__/mesh/bearer/src/adv_packet_filter.c.obj
 .debug_line    0x0000000000000000      0x486 CMakeFiles/light_switch_client_nrf52832_xxAA_s132_6.0.0.dir/__/__/__/mesh/bearer/src/adv_packet_filter.c.obj
 .debug_str     0x0000000000000000      0xa98 CMakeFiles/light_switch_client_nrf52832_xxAA_s132_6.0.0.dir/__/__/__/mesh/bearer/src/adv_packet_filter.c.obj
 .comment       0x0000000000000000       0x7f CMakeFiles/light_switch_client_nrf52832_xxAA_s132_6.0.0.dir/__/__/__/mesh/bearer/src/adv_packet_filter.c.obj
 .debug_frame   0x0000000000000000       0x88 CMakeFiles/light_switch_client_nrf52832_xxAA_s132_6.0.0.dir/__/__/__/mesh/bearer/src/adv_packet_filter.c.obj
 .ARM.attributes
                0x0000000000000000       0x39 CMakeFiles/light_switch_client_nrf52832_xxAA_s132_6.0.0.dir/__/__/__/mesh/bearer/src/adv_packet_filter.c.obj
 .text          0x0000000000000000        0x0 CMakeFiles/light_switch_client_nrf52832_xxAA_s132_6.0.0.dir/__/__/__/mesh/bearer/src/advertiser.c.obj
 .data          0x0000000000000000        0x0 CMakeFiles/light_switch_client_nrf52832_xxAA_s132_6.0.0.dir/__/__/__/mesh/bearer/src/advertiser.c.obj
 .bss           0x0000000000000000        0x0 CMakeFiles/light_switch_client_nrf52832_xxAA_s132_6.0.0.dir/__/__/__/mesh/bearer/src/advertiser.c.obj
 .text.advertiser_disable
                0x0000000000000000        0xc CMakeFiles/light_switch_client_nrf52832_xxAA_s132_6.0.0.dir/__/__/__/mesh/bearer/src/advertiser.c.obj
 .text.advertiser_config_set
                0x0000000000000000      0x184 CMakeFiles/light_switch_client_nrf52832_xxAA_s132_6.0.0.dir/__/__/__/mesh/bearer/src/advertiser.c.obj
 .text.advertiser_channels_set
                0x0000000000000000       0x98 CMakeFiles/light_switch_client_nrf52832_xxAA_s132_6.0.0.dir/__/__/__/mesh/bearer/src/advertiser.c.obj
 .text.advertiser_address_set
                0x0000000000000000       0x74 CMakeFiles/light_switch_client_nrf52832_xxAA_s132_6.0.0.dir/__/__/__/mesh/bearer/src/advertiser.c.obj
 .text.advertiser_config_get
                0x0000000000000000       0x24 CMakeFiles/light_switch_client_nrf52832_xxAA_s132_6.0.0.dir/__/__/__/mesh/bearer/src/advertiser.c.obj
 .text.advertiser_address_default_get
                0x0000000000000000       0x5c CMakeFiles/light_switch_client_nrf52832_xxAA_s132_6.0.0.dir/__/__/__/mesh/bearer/src/advertiser.c.obj
 .text          0x0000000000000000        0x0 CMakeFiles/light_switch_client_nrf52832_xxAA_s132_6.0.0.dir/__/__/__/mesh/bearer/src/bearer_handler.c.obj
 .data          0x0000000000000000        0x0 CMakeFiles/light_switch_client_nrf52832_xxAA_s132_6.0.0.dir/__/__/__/mesh/bearer/src/bearer_handler.c.obj
 .bss           0x0000000000000000        0x0 CMakeFiles/light_switch_client_nrf52832_xxAA_s132_6.0.0.dir/__/__/__/mesh/bearer/src/bearer_handler.c.obj
 .text.bearer_handler_stop
                0x0000000000000000       0x20 CMakeFiles/light_switch_client_nrf52832_xxAA_s132_6.0.0.dir/__/__/__/mesh/bearer/src/bearer_handler.c.obj
 .text.bearer_handler_action_fire
                0x0000000000000000       0xa0 CMakeFiles/light_switch_client_nrf52832_xxAA_s132_6.0.0.dir/__/__/__/mesh/bearer/src/bearer_handler.c.obj
 .text          0x0000000000000000        0x0 CMakeFiles/light_switch_client_nrf52832_xxAA_s132_6.0.0.dir/__/__/__/mesh/bearer/src/broadcast.c.obj
 .data          0x0000000000000000        0x0 CMakeFiles/light_switch_client_nrf52832_xxAA_s132_6.0.0.dir/__/__/__/mesh/bearer/src/broadcast.c.obj
 .bss           0x0000000000000000        0x0 CMakeFiles/light_switch_client_nrf52832_xxAA_s132_6.0.0.dir/__/__/__/mesh/bearer/src/broadcast.c.obj
 .text          0x0000000000000000        0x0 CMakeFiles/light_switch_client_nrf52832_xxAA_s132_6.0.0.dir/__/__/__/mesh/bearer/src/filter_engine.c.obj
 .data          0x0000000000000000        0x0 CMakeFiles/light_switch_client_nrf52832_xxAA_s132_6.0.0.dir/__/__/__/mesh/bearer/src/filter_engine.c.obj
 .bss           0x0000000000000000        0x0 CMakeFiles/light_switch_client_nrf52832_xxAA_s132_6.0.0.dir/__/__/__/mesh/bearer/src/filter_engine.c.obj
 .text.fen_accepted_amount_get
                0x0000000000000000        0xc CMakeFiles/light_switch_client_nrf52832_xxAA_s132_6.0.0.dir/__/__/__/mesh/bearer/src/filter_engine.c.obj
 .text          0x0000000000000000        0x0 CMakeFiles/light_switch_client_nrf52832_xxAA_s132_6.0.0.dir/__/__/__/mesh/bearer/src/gap_address_filter.c.obj
 .data          0x0000000000000000        0x0 CMakeFiles/light_switch_client_nrf52832_xxAA_s132_6.0.0.dir/__/__/__/mesh/bearer/src/gap_address_filter.c.obj
 .bss           0x0000000000000000        0x0 CMakeFiles/light_switch_client_nrf52832_xxAA_s132_6.0.0.dir/__/__/__/mesh/bearer/src/gap_address_filter.c.obj
 .text.gap_address_filter_handle
                0x0000000000000000       0xb8 CMakeFiles/light_switch_client_nrf52832_xxAA_s132_6.0.0.dir/__/__/__/mesh/bearer/src/gap_address_filter.c.obj
 .text.bearer_filter_gap_addr_whitelist_set
                0x0000000000000000       0x48 CMakeFiles/light_switch_client_nrf52832_xxAA_s132_6.0.0.dir/__/__/__/mesh/bearer/src/gap_address_filter.c.obj
 .text.bearer_filter_gap_addr_blacklist_set
                0x0000000000000000       0x4c CMakeFiles/light_switch_client_nrf52832_xxAA_s132_6.0.0.dir/__/__/__/mesh/bearer/src/gap_address_filter.c.obj
 .text.bearer_filter_gap_addr_range_set
                0x0000000000000000       0x64 CMakeFiles/light_switch_client_nrf52832_xxAA_s132_6.0.0.dir/__/__/__/mesh/bearer/src/gap_address_filter.c.obj
 .text.bearer_filter_gap_addr_clear
                0x0000000000000000       0x24 CMakeFiles/light_switch_client_nrf52832_xxAA_s132_6.0.0.dir/__/__/__/mesh/bearer/src/gap_address_filter.c.obj
 .text.bearer_gap_addr_filtered_amount_get
                0x0000000000000000        0xc CMakeFiles/light_switch_client_nrf52832_xxAA_s132_6.0.0.dir/__/__/__/mesh/bearer/src/gap_address_filter.c.obj
 .bss.m_addr_filter
                0x0000000000000000       0x18 CMakeFiles/light_switch_client_nrf52832_xxAA_s132_6.0.0.dir/__/__/__/mesh/bearer/src/gap_address_filter.c.obj
 .debug_info    0x0000000000000000      0xf34 CMakeFiles/light_switch_client_nrf52832_xxAA_s132_6.0.0.dir/__/__/__/mesh/bearer/src/gap_address_filter.c.obj
 .debug_abbrev  0x0000000000000000      0x2f8 CMakeFiles/light_switch_client_nrf52832_xxAA_s132_6.0.0.dir/__/__/__/mesh/bearer/src/gap_address_filter.c.obj
 .debug_loc     0x0000000000000000      0x823 CMakeFiles/light_switch_client_nrf52832_xxAA_s132_6.0.0.dir/__/__/__/mesh/bearer/src/gap_address_filter.c.obj
 .debug_aranges
                0x0000000000000000       0x48 CMakeFiles/light_switch_client_nrf52832_xxAA_s132_6.0.0.dir/__/__/__/mesh/bearer/src/gap_address_filter.c.obj
 .debug_ranges  0x0000000000000000      0x100 CMakeFiles/light_switch_client_nrf52832_xxAA_s132_6.0.0.dir/__/__/__/mesh/bearer/src/gap_address_filter.c.obj
 .debug_line    0x0000000000000000      0x516 CMakeFiles/light_switch_client_nrf52832_xxAA_s132_6.0.0.dir/__/__/__/mesh/bearer/src/gap_address_filter.c.obj
 .debug_str     0x0000000000000000      0x9f2 CMakeFiles/light_switch_client_nrf52832_xxAA_s132_6.0.0.dir/__/__/__/mesh/bearer/src/gap_address_filter.c.obj
 .comment       0x0000000000000000       0x7f CMakeFiles/light_switch_client_nrf52832_xxAA_s132_6.0.0.dir/__/__/__/mesh/bearer/src/gap_address_filter.c.obj
 .debug_frame   0x0000000000000000       0xd4 CMakeFiles/light_switch_client_nrf52832_xxAA_s132_6.0.0.dir/__/__/__/mesh/bearer/src/gap_address_filter.c.obj
 .ARM.attributes
                0x0000000000000000       0x39 CMakeFiles/light_switch_client_nrf52832_xxAA_s132_6.0.0.dir/__/__/__/mesh/bearer/src/gap_address_filter.c.obj
 .text          0x0000000000000000        0x0 CMakeFiles/light_switch_client_nrf52832_xxAA_s132_6.0.0.dir/__/__/__/mesh/bearer/src/radio_config.c.obj
 .data          0x0000000000000000        0x0 CMakeFiles/light_switch_client_nrf52832_xxAA_s132_6.0.0.dir/__/__/__/mesh/bearer/src/radio_config.c.obj
 .bss           0x0000000000000000        0x0 CMakeFiles/light_switch_client_nrf52832_xxAA_s132_6.0.0.dir/__/__/__/mesh/bearer/src/radio_config.c.obj
 .text.radio_config_access_addr_get
                0x0000000000000000       0x58 CMakeFiles/light_switch_client_nrf52832_xxAA_s132_6.0.0.dir/__/__/__/mesh/bearer/src/radio_config.c.obj
 .text          0x0000000000000000        0x0 CMakeFiles/light_switch_client_nrf52832_xxAA_s132_6.0.0.dir/__/__/__/mesh/bearer/src/rssi_filter.c.obj
 .data          0x0000000000000000        0x0 CMakeFiles/light_switch_client_nrf52832_xxAA_s132_6.0.0.dir/__/__/__/mesh/bearer/src/rssi_filter.c.obj
 .bss           0x0000000000000000        0x0 CMakeFiles/light_switch_client_nrf52832_xxAA_s132_6.0.0.dir/__/__/__/mesh/bearer/src/rssi_filter.c.obj
 .text.rssi_filter_handle
                0x0000000000000000       0x20 CMakeFiles/light_switch_client_nrf52832_xxAA_s132_6.0.0.dir/__/__/__/mesh/bearer/src/rssi_filter.c.obj
 .text.bearer_rssi_filtering_set
                0x0000000000000000       0x38 CMakeFiles/light_switch_client_nrf52832_xxAA_s132_6.0.0.dir/__/__/__/mesh/bearer/src/rssi_filter.c.obj
 .text.bearer_rssi_filtered_amount_get
                0x0000000000000000        0xc CMakeFiles/light_switch_client_nrf52832_xxAA_s132_6.0.0.dir/__/__/__/mesh/bearer/src/rssi_filter.c.obj
 .bss.m_rssi_filter
                0x0000000000000000       0x18 CMakeFiles/light_switch_client_nrf52832_xxAA_s132_6.0.0.dir/__/__/__/mesh/bearer/src/rssi_filter.c.obj
 .debug_info    0x0000000000000000      0xc70 CMakeFiles/light_switch_client_nrf52832_xxAA_s132_6.0.0.dir/__/__/__/mesh/bearer/src/rssi_filter.c.obj
 .debug_abbrev  0x0000000000000000      0x290 CMakeFiles/light_switch_client_nrf52832_xxAA_s132_6.0.0.dir/__/__/__/mesh/bearer/src/rssi_filter.c.obj
 .debug_loc     0x0000000000000000       0xbe CMakeFiles/light_switch_client_nrf52832_xxAA_s132_6.0.0.dir/__/__/__/mesh/bearer/src/rssi_filter.c.obj
 .debug_aranges
                0x0000000000000000       0x30 CMakeFiles/light_switch_client_nrf52832_xxAA_s132_6.0.0.dir/__/__/__/mesh/bearer/src/rssi_filter.c.obj
 .debug_ranges  0x0000000000000000       0x20 CMakeFiles/light_switch_client_nrf52832_xxAA_s132_6.0.0.dir/__/__/__/mesh/bearer/src/rssi_filter.c.obj
 .debug_line    0x0000000000000000      0x3f8 CMakeFiles/light_switch_client_nrf52832_xxAA_s132_6.0.0.dir/__/__/__/mesh/bearer/src/rssi_filter.c.obj
 .debug_str     0x0000000000000000      0x8ad CMakeFiles/light_switch_client_nrf52832_xxAA_s132_6.0.0.dir/__/__/__/mesh/bearer/src/rssi_filter.c.obj
 .comment       0x0000000000000000       0x7f CMakeFiles/light_switch_client_nrf52832_xxAA_s132_6.0.0.dir/__/__/__/mesh/bearer/src/rssi_filter.c.obj
 .debug_frame   0x0000000000000000       0x58 CMakeFiles/light_switch_client_nrf52832_xxAA_s132_6.0.0.dir/__/__/__/mesh/bearer/src/rssi_filter.c.obj
 .ARM.attributes
                0x0000000000000000       0x39 CMakeFiles/light_switch_client_nrf52832_xxAA_s132_6.0.0.dir/__/__/__/mesh/bearer/src/rssi_filter.c.obj
 .text          0x0000000000000000        0x0 CMakeFiles/light_switch_client_nrf52832_xxAA_s132_6.0.0.dir/__/__/__/mesh/bearer/src/scanner.c.obj
 .data          0x0000000000000000        0x0 CMakeFiles/light_switch_client_nrf52832_xxAA_s132_6.0.0.dir/__/__/__/mesh/bearer/src/scanner.c.obj
 .bss           0x0000000000000000        0x0 CMakeFiles/light_switch_client_nrf52832_xxAA_s132_6.0.0.dir/__/__/__/mesh/bearer/src/scanner.c.obj
 .text.scanner_rx_callback_set
                0x0000000000000000       0x20 CMakeFiles/light_switch_client_nrf52832_xxAA_s132_6.0.0.dir/__/__/__/mesh/bearer/src/scanner.c.obj
 .text.scanner_disable
                0x0000000000000000       0x50 CMakeFiles/light_switch_client_nrf52832_xxAA_s132_6.0.0.dir/__/__/__/mesh/bearer/src/scanner.c.obj
 .text.scanner_is_enabled
                0x0000000000000000       0x14 CMakeFiles/light_switch_client_nrf52832_xxAA_s132_6.0.0.dir/__/__/__/mesh/bearer/src/scanner.c.obj
 .text.scanner_stats_get
                0x0000000000000000        0x8 CMakeFiles/light_switch_client_nrf52832_xxAA_s132_6.0.0.dir/__/__/__/mesh/bearer/src/scanner.c.obj
 .text.scanner_config_radio_mode_set
                0x0000000000000000       0x10 CMakeFiles/light_switch_client_nrf52832_xxAA_s132_6.0.0.dir/__/__/__/mesh/bearer/src/scanner.c.obj
 .text.scanner_config_scan_time_set
                0x0000000000000000       0x88 CMakeFiles/light_switch_client_nrf52832_xxAA_s132_6.0.0.dir/__/__/__/mesh/bearer/src/scanner.c.obj
 .text.scanner_config_channels_set
                0x0000000000000000       0x50 CMakeFiles/light_switch_client_nrf52832_xxAA_s132_6.0.0.dir/__/__/__/mesh/bearer/src/scanner.c.obj
 .text.scanner_config_access_addresses_set
                0x0000000000000000       0x38 CMakeFiles/light_switch_client_nrf52832_xxAA_s132_6.0.0.dir/__/__/__/mesh/bearer/src/scanner.c.obj
 .text          0x0000000000000000        0x0 CMakeFiles/light_switch_client_nrf52832_xxAA_s132_6.0.0.dir/__/__/__/models/simple_on_off/src/simple_on_off_client.c.obj
 .data          0x0000000000000000        0x0 CMakeFiles/light_switch_client_nrf52832_xxAA_s132_6.0.0.dir/__/__/__/models/simple_on_off/src/simple_on_off_client.c.obj
 .bss           0x0000000000000000        0x0 CMakeFiles/light_switch_client_nrf52832_xxAA_s132_6.0.0.dir/__/__/__/models/simple_on_off/src/simple_on_off_client.c.obj
 .text.simple_on_off_client_get
                0x0000000000000000       0x60 CMakeFiles/light_switch_client_nrf52832_xxAA_s132_6.0.0.dir/__/__/__/models/simple_on_off/src/simple_on_off_client.c.obj
 .text.simple_on_off_client_pending_msg_cancel
                0x0000000000000000        0x8 CMakeFiles/light_switch_client_nrf52832_xxAA_s132_6.0.0.dir/__/__/__/models/simple_on_off/src/simple_on_off_client.c.obj
 .text          0x0000000000000000        0x0 CMakeFiles/light_switch_client_nrf52832_xxAA_s132_6.0.0.dir/__/__/__/models/config/src/composition_data.c.obj
 .data          0x0000000000000000        0x0 CMakeFiles/light_switch_client_nrf52832_xxAA_s132_6.0.0.dir/__/__/__/models/config/src/composition_data.c.obj
 .bss           0x0000000000000000        0x0 CMakeFiles/light_switch_client_nrf52832_xxAA_s132_6.0.0.dir/__/__/__/models/config/src/composition_data.c.obj
 .text          0x0000000000000000        0x0 CMakeFiles/light_switch_client_nrf52832_xxAA_s132_6.0.0.dir/__/__/__/models/config/src/config_server.c.obj
 .data          0x0000000000000000        0x0 CMakeFiles/light_switch_client_nrf52832_xxAA_s132_6.0.0.dir/__/__/__/models/config/src/config_server.c.obj
 .bss           0x0000000000000000        0x0 CMakeFiles/light_switch_client_nrf52832_xxAA_s132_6.0.0.dir/__/__/__/models/config/src/config_server.c.obj
 .text          0x0000000000000000        0x0 CMakeFiles/light_switch_client_nrf52832_xxAA_s132_6.0.0.dir/__/__/__/models/config/src/packed_index_list.c.obj
 .data          0x0000000000000000        0x0 CMakeFiles/light_switch_client_nrf52832_xxAA_s132_6.0.0.dir/__/__/__/models/config/src/packed_index_list.c.obj
 .bss           0x0000000000000000        0x0 CMakeFiles/light_switch_client_nrf52832_xxAA_s132_6.0.0.dir/__/__/__/models/config/src/packed_index_list.c.obj
 .text          0x0000000000000000        0x0 CMakeFiles/light_switch_client_nrf52832_xxAA_s132_6.0.0.dir/__/__/__/models/health/src/health_server.c.obj
 .data          0x0000000000000000        0x0 CMakeFiles/light_switch_client_nrf52832_xxAA_s132_6.0.0.dir/__/__/__/models/health/src/health_server.c.obj
 .bss           0x0000000000000000        0x0 CMakeFiles/light_switch_client_nrf52832_xxAA_s132_6.0.0.dir/__/__/__/models/health/src/health_server.c.obj
 .text.health_server_fault_register
                0x0000000000000000      0x23c CMakeFiles/light_switch_client_nrf52832_xxAA_s132_6.0.0.dir/__/__/__/models/health/src/health_server.c.obj
 .text.health_server_fault_clear
                0x0000000000000000      0x2d8 CMakeFiles/light_switch_client_nrf52832_xxAA_s132_6.0.0.dir/__/__/__/models/health/src/health_server.c.obj
 .text.health_server_fault_is_set
                0x0000000000000000       0x1c CMakeFiles/light_switch_client_nrf52832_xxAA_s132_6.0.0.dir/__/__/__/models/health/src/health_server.c.obj
 .text.health_server_fault_count_get
                0x0000000000000000      0x14c CMakeFiles/light_switch_client_nrf52832_xxAA_s132_6.0.0.dir/__/__/__/models/health/src/health_server.c.obj
 .text.health_server_attention_get
                0x0000000000000000        0x8 CMakeFiles/light_switch_client_nrf52832_xxAA_s132_6.0.0.dir/__/__/__/models/health/src/health_server.c.obj
 .text.health_server_attention_set
                0x0000000000000000       0x90 CMakeFiles/light_switch_client_nrf52832_xxAA_s132_6.0.0.dir/__/__/__/models/health/src/health_server.c.obj
 .text          0x0000000000000000        0x0 CMakeFiles/light_switch_client_nrf52832_xxAA_s132_6.0.0.dir/__/__/__/mesh/access/src/access_publish.c.obj
 .data          0x0000000000000000        0x0 CMakeFiles/light_switch_client_nrf52832_xxAA_s132_6.0.0.dir/__/__/__/mesh/access/src/access_publish.c.obj
 .bss           0x0000000000000000        0x0 CMakeFiles/light_switch_client_nrf52832_xxAA_s132_6.0.0.dir/__/__/__/mesh/access/src/access_publish.c.obj
 .text          0x0000000000000000        0x0 CMakeFiles/light_switch_client_nrf52832_xxAA_s132_6.0.0.dir/__/__/__/mesh/access/src/access.c.obj
 .data          0x0000000000000000        0x0 CMakeFiles/light_switch_client_nrf52832_xxAA_s132_6.0.0.dir/__/__/__/mesh/access/src/access.c.obj
 .bss           0x0000000000000000        0x0 CMakeFiles/light_switch_client_nrf52832_xxAA_s132_6.0.0.dir/__/__/__/mesh/access/src/access.c.obj
 .text.access_model_subscription_lists_share
                0x0000000000000000       0x68 CMakeFiles/light_switch_client_nrf52832_xxAA_s132_6.0.0.dir/__/__/__/mesh/access/src/access.c.obj
 .text.access_element_location_set
                0x0000000000000000       0x3c CMakeFiles/light_switch_client_nrf52832_xxAA_s132_6.0.0.dir/__/__/__/mesh/access/src/access.c.obj
 .text          0x0000000000000000        0x0 CMakeFiles/light_switch_client_nrf52832_xxAA_s132_6.0.0.dir/__/__/__/mesh/access/src/access_reliable.c.obj
 .data          0x0000000000000000        0x0 CMakeFiles/light_switch_client_nrf52832_xxAA_s132_6.0.0.dir/__/__/__/mesh/access/src/access_reliable.c.obj
 .bss           0x0000000000000000        0x0 CMakeFiles/light_switch_client_nrf52832_xxAA_s132_6.0.0.dir/__/__/__/mesh/access/src/access_reliable.c.obj
 .text          0x0000000000000000        0x0 CMakeFiles/light_switch_client_nrf52832_xxAA_s132_6.0.0.dir/__/__/__/mesh/access/src/device_state_manager.c.obj
 .data          0x0000000000000000        0x0 CMakeFiles/light_switch_client_nrf52832_xxAA_s132_6.0.0.dir/__/__/__/mesh/access/src/device_state_manager.c.obj
 .bss           0x0000000000000000        0x0 CMakeFiles/light_switch_client_nrf52832_xxAA_s132_6.0.0.dir/__/__/__/mesh/access/src/device_state_manager.c.obj
 .text.dsm_has_unflashed_data
                0x0000000000000000       0x58 CMakeFiles/light_switch_client_nrf52832_xxAA_s132_6.0.0.dir/__/__/__/mesh/access/src/device_state_manager.c.obj
 .text.dsm_address_subscription_count_get
                0x0000000000000000       0x74 CMakeFiles/light_switch_client_nrf52832_xxAA_s132_6.0.0.dir/__/__/__/mesh/access/src/device_state_manager.c.obj
 .text.dsm_address_get_all
                0x0000000000000000       0xd8 CMakeFiles/light_switch_client_nrf52832_xxAA_s132_6.0.0.dir/__/__/__/mesh/access/src/device_state_manager.c.obj
 .text.dsm_subnet_handle_to_netkey_index
                0x0000000000000000       0x24 CMakeFiles/light_switch_client_nrf52832_xxAA_s132_6.0.0.dir/__/__/__/mesh/access/src/device_state_manager.c.obj
 .text.dsm_devkey_delete
                0x0000000000000000       0x6c CMakeFiles/light_switch_client_nrf52832_xxAA_s132_6.0.0.dir/__/__/__/mesh/access/src/device_state_manager.c.obj
 .text.dsm_devkey_handle_get
                0x0000000000000000       0x3c CMakeFiles/light_switch_client_nrf52832_xxAA_s132_6.0.0.dir/__/__/__/mesh/access/src/device_state_manager.c.obj
 .text.dsm_beacon_info_get
                0x0000000000000000       0x24 CMakeFiles/light_switch_client_nrf52832_xxAA_s132_6.0.0.dir/__/__/__/mesh/access/src/device_state_manager.c.obj
 .text          0x0000000000000000        0x0 CMakeFiles/light_switch_client_nrf52832_xxAA_s132_6.0.0.dir/__/__/__/mesh/prov/src/prov_provisionee.c.obj
 .data          0x0000000000000000        0x0 CMakeFiles/light_switch_client_nrf52832_xxAA_s132_6.0.0.dir/__/__/__/mesh/prov/src/prov_provisionee.c.obj
 .bss           0x0000000000000000        0x0 CMakeFiles/light_switch_client_nrf52832_xxAA_s132_6.0.0.dir/__/__/__/mesh/prov/src/prov_provisionee.c.obj
 .text.prov_provisionee_shared_secret
                0x0000000000000000       0xa0 CMakeFiles/light_switch_client_nrf52832_xxAA_s132_6.0.0.dir/__/__/__/mesh/prov/src/prov_provisionee.c.obj
 .text          0x0000000000000000        0x0 CMakeFiles/light_switch_client_nrf52832_xxAA_s132_6.0.0.dir/__/__/__/mesh/prov/src/nrf_mesh_prov.c.obj
 .data          0x0000000000000000        0x0 CMakeFiles/light_switch_client_nrf52832_xxAA_s132_6.0.0.dir/__/__/__/mesh/prov/src/nrf_mesh_prov.c.obj
 .bss           0x0000000000000000        0x0 CMakeFiles/light_switch_client_nrf52832_xxAA_s132_6.0.0.dir/__/__/__/mesh/prov/src/nrf_mesh_prov.c.obj
 .text.nrf_mesh_prov_listen_stop
                0x0000000000000000       0x30 CMakeFiles/light_switch_client_nrf52832_xxAA_s132_6.0.0.dir/__/__/__/mesh/prov/src/nrf_mesh_prov.c.obj
 .text.nrf_mesh_prov_provision
                0x0000000000000000       0x68 CMakeFiles/light_switch_client_nrf52832_xxAA_s132_6.0.0.dir/__/__/__/mesh/prov/src/nrf_mesh_prov.c.obj
 .text.nrf_mesh_prov_oob_use
                0x0000000000000000       0x18 CMakeFiles/light_switch_client_nrf52832_xxAA_s132_6.0.0.dir/__/__/__/mesh/prov/src/nrf_mesh_prov.c.obj
 .text.nrf_mesh_prov_shared_secret_provide
                0x0000000000000000       0x10 CMakeFiles/light_switch_client_nrf52832_xxAA_s132_6.0.0.dir/__/__/__/mesh/prov/src/nrf_mesh_prov.c.obj
 .text.nrf_mesh_prov_pubkey_provide
                0x0000000000000000       0x10 CMakeFiles/light_switch_client_nrf52832_xxAA_s132_6.0.0.dir/__/__/__/mesh/prov/src/nrf_mesh_prov.c.obj
 .text.nrf_mesh_prov_scan_start
                0x0000000000000000       0x10 CMakeFiles/light_switch_client_nrf52832_xxAA_s132_6.0.0.dir/__/__/__/mesh/prov/src/nrf_mesh_prov.c.obj
 .text.nrf_mesh_prov_scan_stop
                0x0000000000000000        0x4 CMakeFiles/light_switch_client_nrf52832_xxAA_s132_6.0.0.dir/__/__/__/mesh/prov/src/nrf_mesh_prov.c.obj
 .text          0x0000000000000000        0x0 CMakeFiles/light_switch_client_nrf52832_xxAA_s132_6.0.0.dir/__/__/__/mesh/prov/src/provisioning.c.obj
 .data          0x0000000000000000        0x0 CMakeFiles/light_switch_client_nrf52832_xxAA_s132_6.0.0.dir/__/__/__/mesh/prov/src/provisioning.c.obj
 .bss           0x0000000000000000        0x0 CMakeFiles/light_switch_client_nrf52832_xxAA_s132_6.0.0.dir/__/__/__/mesh/prov/src/provisioning.c.obj
 .text.prov_tx_invite
                0x0000000000000000       0x38 CMakeFiles/light_switch_client_nrf52832_xxAA_s132_6.0.0.dir/__/__/__/mesh/prov/src/provisioning.c.obj
 .text.prov_tx_start
                0x0000000000000000       0x38 CMakeFiles/light_switch_client_nrf52832_xxAA_s132_6.0.0.dir/__/__/__/mesh/prov/src/provisioning.c.obj
 .text.prov_tx_data
                0x0000000000000000       0x34 CMakeFiles/light_switch_client_nrf52832_xxAA_s132_6.0.0.dir/__/__/__/mesh/prov/src/provisioning.c.obj
 .text.prov_tx  0x0000000000000000       0x3c CMakeFiles/light_switch_client_nrf52832_xxAA_s132_6.0.0.dir/__/__/__/mesh/prov/src/provisioning.c.obj
 .text          0x0000000000000000        0x0 CMakeFiles/light_switch_client_nrf52832_xxAA_s132_6.0.0.dir/__/__/__/mesh/prov/src/prov_beacon.c.obj
 .data          0x0000000000000000        0x0 CMakeFiles/light_switch_client_nrf52832_xxAA_s132_6.0.0.dir/__/__/__/mesh/prov/src/prov_beacon.c.obj
 .bss           0x0000000000000000        0x0 CMakeFiles/light_switch_client_nrf52832_xxAA_s132_6.0.0.dir/__/__/__/mesh/prov/src/prov_beacon.c.obj
 .text.prov_beacon_scan_start
                0x0000000000000000       0x1c CMakeFiles/light_switch_client_nrf52832_xxAA_s132_6.0.0.dir/__/__/__/mesh/prov/src/prov_beacon.c.obj
 .text.prov_beacon_scan_stop
                0x0000000000000000        0xc CMakeFiles/light_switch_client_nrf52832_xxAA_s132_6.0.0.dir/__/__/__/mesh/prov/src/prov_beacon.c.obj
 .text          0x0000000000000000        0x0 CMakeFiles/light_switch_client_nrf52832_xxAA_s132_6.0.0.dir/__/__/__/mesh/prov/src/prov_utils.c.obj
 .data          0x0000000000000000        0x0 CMakeFiles/light_switch_client_nrf52832_xxAA_s132_6.0.0.dir/__/__/__/mesh/prov/src/prov_utils.c.obj
 .bss           0x0000000000000000        0x0 CMakeFiles/light_switch_client_nrf52832_xxAA_s132_6.0.0.dir/__/__/__/mesh/prov/src/prov_utils.c.obj
 .text          0x0000000000000000        0x0 CMakeFiles/light_switch_client_nrf52832_xxAA_s132_6.0.0.dir/__/__/__/mesh/prov/src/prov_bearer_adv.c.obj
 .data          0x0000000000000000        0x0 CMakeFiles/light_switch_client_nrf52832_xxAA_s132_6.0.0.dir/__/__/__/mesh/prov/src/prov_bearer_adv.c.obj
 .bss           0x0000000000000000        0x0 CMakeFiles/light_switch_client_nrf52832_xxAA_s132_6.0.0.dir/__/__/__/mesh/prov/src/prov_bearer_adv.c.obj
 .text.calculate_3GPP_CRC
                0x0000000000000000       0x28 CMakeFiles/light_switch_client_nrf52832_xxAA_s132_6.0.0.dir/__/__/__/mesh/prov/src/prov_bearer_adv.c.obj
 .text          0x0000000000000000        0x0 CMakeFiles/light_switch_client_nrf52832_xxAA_s132_6.0.0.dir/home/mazzer/work/nordic/sdk/nRF5_SDK_15.0.0/modules/nrfx/mdk/system_nrf52.c.obj
 .data          0x0000000000000000        0x0 CMakeFiles/light_switch_client_nrf52832_xxAA_s132_6.0.0.dir/home/mazzer/work/nordic/sdk/nRF5_SDK_15.0.0/modules/nrfx/mdk/system_nrf52.c.obj
 .bss           0x0000000000000000        0x0 CMakeFiles/light_switch_client_nrf52832_xxAA_s132_6.0.0.dir/home/mazzer/work/nordic/sdk/nRF5_SDK_15.0.0/modules/nrfx/mdk/system_nrf52.c.obj
 .text.SystemCoreClockUpdate
                0x0000000000000000       0x10 CMakeFiles/light_switch_client_nrf52832_xxAA_s132_6.0.0.dir/home/mazzer/work/nordic/sdk/nRF5_SDK_15.0.0/modules/nrfx/mdk/system_nrf52.c.obj
 .data          0x0000000000000000        0x0 CMakeFiles/light_switch_client_nrf52832_xxAA_s132_6.0.0.dir/home/mazzer/work/nordic/sdk/nRF5_SDK_15.0.0/modules/nrfx/mdk/gcc_startup_nrf52.S.obj
 .bss           0x0000000000000000        0x0 CMakeFiles/light_switch_client_nrf52832_xxAA_s132_6.0.0.dir/home/mazzer/work/nordic/sdk/nRF5_SDK_15.0.0/modules/nrfx/mdk/gcc_startup_nrf52.S.obj
 .text          0x0000000000000000        0x0 CMakeFiles/light_switch_client_nrf52832_xxAA_s132_6.0.0.dir/home/mazzer/work/nordic/sdk/nRF5_SDK_15.0.0/components/libraries/util/app_error.c.obj
 .data          0x0000000000000000        0x0 CMakeFiles/light_switch_client_nrf52832_xxAA_s132_6.0.0.dir/home/mazzer/work/nordic/sdk/nRF5_SDK_15.0.0/components/libraries/util/app_error.c.obj
 .bss           0x0000000000000000        0x0 CMakeFiles/light_switch_client_nrf52832_xxAA_s132_6.0.0.dir/home/mazzer/work/nordic/sdk/nRF5_SDK_15.0.0/components/libraries/util/app_error.c.obj
 .text.app_error_save_and_stop
                0x0000000000000000       0x64 CMakeFiles/light_switch_client_nrf52832_xxAA_s132_6.0.0.dir/home/mazzer/work/nordic/sdk/nRF5_SDK_15.0.0/components/libraries/util/app_error.c.obj
 .bss.m_error_data.8037
                0x0000000000000000       0x20 CMakeFiles/light_switch_client_nrf52832_xxAA_s132_6.0.0.dir/home/mazzer/work/nordic/sdk/nRF5_SDK_15.0.0/components/libraries/util/app_error.c.obj
 .text          0x0000000000000000        0x0 CMakeFiles/light_switch_client_nrf52832_xxAA_s132_6.0.0.dir/home/mazzer/work/nordic/sdk/nRF5_SDK_15.0.0/components/libraries/util/app_error_handler_gcc.c.obj
 .data          0x0000000000000000        0x0 CMakeFiles/light_switch_client_nrf52832_xxAA_s132_6.0.0.dir/home/mazzer/work/nordic/sdk/nRF5_SDK_15.0.0/components/libraries/util/app_error_handler_gcc.c.obj
 .bss           0x0000000000000000        0x0 CMakeFiles/light_switch_client_nrf52832_xxAA_s132_6.0.0.dir/home/mazzer/work/nordic/sdk/nRF5_SDK_15.0.0/components/libraries/util/app_error_handler_gcc.c.obj
 .text          0x0000000000000000        0x0 ../../../external/rtt/librtt_nrf52832_xxAA.a(SEGGER_RTT.c.obj)
 .data          0x0000000000000000        0x0 ../../../external/rtt/librtt_nrf52832_xxAA.a(SEGGER_RTT.c.obj)
 .bss           0x0000000000000000        0x0 ../../../external/rtt/librtt_nrf52832_xxAA.a(SEGGER_RTT.c.obj)
 .text.SEGGER_RTT_ReadNoLock
                0x0000000000000000       0xfc ../../../external/rtt/librtt_nrf52832_xxAA.a(SEGGER_RTT.c.obj)
 .text.SEGGER_RTT_Read
                0x0000000000000000      0x118 ../../../external/rtt/librtt_nrf52832_xxAA.a(SEGGER_RTT.c.obj)
 .text.SEGGER_RTT_WriteSkipNoLock
                0x0000000000000000      0x1a8 ../../../external/rtt/librtt_nrf52832_xxAA.a(SEGGER_RTT.c.obj)
 .text.SEGGER_RTT_WriteNoLock
                0x0000000000000000      0x168 ../../../external/rtt/librtt_nrf52832_xxAA.a(SEGGER_RTT.c.obj)
 .text.SEGGER_RTT_WriteString
                0x0000000000000000      0x1f8 ../../../external/rtt/librtt_nrf52832_xxAA.a(SEGGER_RTT.c.obj)
 .text.SEGGER_RTT_WaitKey
                0x0000000000000000       0xfc ../../../external/rtt/librtt_nrf52832_xxAA.a(SEGGER_RTT.c.obj)
 .text.SEGGER_RTT_HasKey
                0x0000000000000000       0x6c ../../../external/rtt/librtt_nrf52832_xxAA.a(SEGGER_RTT.c.obj)
 .text.SEGGER_RTT_HasData
                0x0000000000000000       0x18 ../../../external/rtt/librtt_nrf52832_xxAA.a(SEGGER_RTT.c.obj)
 .text.SEGGER_RTT_AllocDownBuffer
                0x0000000000000000       0xb8 ../../../external/rtt/librtt_nrf52832_xxAA.a(SEGGER_RTT.c.obj)
 .text.SEGGER_RTT_AllocUpBuffer
                0x0000000000000000       0xd4 ../../../external/rtt/librtt_nrf52832_xxAA.a(SEGGER_RTT.c.obj)
 .text.SEGGER_RTT_ConfigUpBuffer
                0x0000000000000000       0xd0 ../../../external/rtt/librtt_nrf52832_xxAA.a(SEGGER_RTT.c.obj)
 .text.SEGGER_RTT_ConfigDownBuffer
                0x0000000000000000       0xb4 ../../../external/rtt/librtt_nrf52832_xxAA.a(SEGGER_RTT.c.obj)
 .text.SEGGER_RTT_SetNameUpBuffer
                0x0000000000000000       0x90 ../../../external/rtt/librtt_nrf52832_xxAA.a(SEGGER_RTT.c.obj)
 .text.SEGGER_RTT_SetNameDownBuffer
                0x0000000000000000       0x90 ../../../external/rtt/librtt_nrf52832_xxAA.a(SEGGER_RTT.c.obj)
 .text.SEGGER_RTT_Init
                0x0000000000000000       0x64 ../../../external/rtt/librtt_nrf52832_xxAA.a(SEGGER_RTT.c.obj)
 .text.SEGGER_RTT_SetTerminal
                0x0000000000000000      0x16c ../../../external/rtt/librtt_nrf52832_xxAA.a(SEGGER_RTT.c.obj)
 .text.SEGGER_RTT_TerminalOut
                0x0000000000000000      0x4d8 ../../../external/rtt/librtt_nrf52832_xxAA.a(SEGGER_RTT.c.obj)
 .bss._ActiveTerminal
                0x0000000000000000        0x1 ../../../external/rtt/librtt_nrf52832_xxAA.a(SEGGER_RTT.c.obj)
 .rodata._aTerminalId
                0x0000000000000000       0x10 ../../../external/rtt/librtt_nrf52832_xxAA.a(SEGGER_RTT.c.obj)
 .text          0x0000000000000000        0x0 ../../../external/rtt/librtt_nrf52832_xxAA.a(SEGGER_RTT_printf.c.obj)
 .data          0x0000000000000000        0x0 ../../../external/rtt/librtt_nrf52832_xxAA.a(SEGGER_RTT_printf.c.obj)
 .bss           0x0000000000000000        0x0 ../../../external/rtt/librtt_nrf52832_xxAA.a(SEGGER_RTT_printf.c.obj)
 .text          0x0000000000000000        0x0 ../../../external/micro-ecc/libuECC_nrf52832_xxAA.a(uECC.c.obj)
 .data          0x0000000000000000        0x0 ../../../external/micro-ecc/libuECC_nrf52832_xxAA.a(uECC.c.obj)
 .bss           0x0000000000000000        0x0 ../../../external/micro-ecc/libuECC_nrf52832_xxAA.a(uECC.c.obj)
 .text.HMAC_finish
                0x0000000000000000       0x70 ../../../external/micro-ecc/libuECC_nrf52832_xxAA.a(uECC.c.obj)
 .text.uECC_vli_mmod
                0x0000000000000000      0x418 ../../../external/micro-ecc/libuECC_nrf52832_xxAA.a(uECC.c.obj)
 .text.uECC_vli_modSub.isra.2
                0x0000000000000000       0x98 ../../../external/micro-ecc/libuECC_nrf52832_xxAA.a(uECC.c.obj)
 .text.bits2int
                0x0000000000000000      0x160 ../../../external/micro-ecc/libuECC_nrf52832_xxAA.a(uECC.c.obj)
 .text.uECC_sign_with_k
                0x0000000000000000      0x630 ../../../external/micro-ecc/libuECC_nrf52832_xxAA.a(uECC.c.obj)
 .text.uECC_set_rng
                0x0000000000000000        0xc ../../../external/micro-ecc/libuECC_nrf52832_xxAA.a(uECC.c.obj)
 .text.uECC_get_rng
                0x0000000000000000        0xc ../../../external/micro-ecc/libuECC_nrf52832_xxAA.a(uECC.c.obj)
 .text.uECC_curve_private_key_size
                0x0000000000000000       0x10 ../../../external/micro-ecc/libuECC_nrf52832_xxAA.a(uECC.c.obj)
 .text.uECC_curve_public_key_size
                0x0000000000000000        0x8 ../../../external/micro-ecc/libuECC_nrf52832_xxAA.a(uECC.c.obj)
 .text.uECC_valid_point
                0x0000000000000000      0x154 ../../../external/micro-ecc/libuECC_nrf52832_xxAA.a(uECC.c.obj)
 .text.uECC_compute_public_key
                0x0000000000000000      0x2e8 ../../../external/micro-ecc/libuECC_nrf52832_xxAA.a(uECC.c.obj)
 .text.uECC_sign
                0x0000000000000000       0x5c ../../../external/micro-ecc/libuECC_nrf52832_xxAA.a(uECC.c.obj)
 .text.uECC_sign_deterministic
                0x0000000000000000      0x414 ../../../external/micro-ecc/libuECC_nrf52832_xxAA.a(uECC.c.obj)
 .text.uECC_verify
                0x0000000000000000      0x960 ../../../external/micro-ecc/libuECC_nrf52832_xxAA.a(uECC.c.obj)
 .text          0x0000000000000000       0xa0 /usr/bin/../lib/gcc/arm-none-eabi/7.2.1/thumb/v7e-m/fpv4-sp/hard/libgcc.a(_aeabi_ldivmod.o)
 .data          0x0000000000000000        0x0 /usr/bin/../lib/gcc/arm-none-eabi/7.2.1/thumb/v7e-m/fpv4-sp/hard/libgcc.a(_aeabi_ldivmod.o)
 .bss           0x0000000000000000        0x0 /usr/bin/../lib/gcc/arm-none-eabi/7.2.1/thumb/v7e-m/fpv4-sp/hard/libgcc.a(_aeabi_ldivmod.o)
 .debug_frame   0x0000000000000000       0x44 /usr/bin/../lib/gcc/arm-none-eabi/7.2.1/thumb/v7e-m/fpv4-sp/hard/libgcc.a(_aeabi_ldivmod.o)
 .ARM.attributes
                0x0000000000000000       0x22 /usr/bin/../lib/gcc/arm-none-eabi/7.2.1/thumb/v7e-m/fpv4-sp/hard/libgcc.a(_aeabi_ldivmod.o)
 .data          0x0000000000000000        0x0 /usr/bin/../lib/gcc/arm-none-eabi/7.2.1/thumb/v7e-m/fpv4-sp/hard/libgcc.a(_aeabi_uldivmod.o)
 .bss           0x0000000000000000        0x0 /usr/bin/../lib/gcc/arm-none-eabi/7.2.1/thumb/v7e-m/fpv4-sp/hard/libgcc.a(_aeabi_uldivmod.o)
 .data          0x0000000000000000        0x0 /usr/bin/../lib/gcc/arm-none-eabi/7.2.1/thumb/v7e-m/fpv4-sp/hard/libgcc.a(_udivmoddi4.o)
 .bss           0x0000000000000000        0x0 /usr/bin/../lib/gcc/arm-none-eabi/7.2.1/thumb/v7e-m/fpv4-sp/hard/libgcc.a(_udivmoddi4.o)
 .ARM.extab     0x0000000000000000        0x0 /usr/bin/../lib/gcc/arm-none-eabi/7.2.1/thumb/v7e-m/fpv4-sp/hard/libgcc.a(_udivmoddi4.o)
 .data          0x0000000000000000        0x0 /usr/bin/../lib/gcc/arm-none-eabi/7.2.1/thumb/v7e-m/fpv4-sp/hard/libgcc.a(_dvmd_tls.o)
 .bss           0x0000000000000000        0x0 /usr/bin/../lib/gcc/arm-none-eabi/7.2.1/thumb/v7e-m/fpv4-sp/hard/libgcc.a(_dvmd_tls.o)
 .text          0x0000000000000000        0x0 /usr/bin/../lib/gcc/arm-none-eabi/7.2.1/../../../../arm-none-eabi/lib/thumb/v7e-m/fpv4-sp/hard/libg_nano.a(lib_a-exit.o)
 .data          0x0000000000000000        0x0 /usr/bin/../lib/gcc/arm-none-eabi/7.2.1/../../../../arm-none-eabi/lib/thumb/v7e-m/fpv4-sp/hard/libg_nano.a(lib_a-exit.o)
 .bss           0x0000000000000000        0x0 /usr/bin/../lib/gcc/arm-none-eabi/7.2.1/../../../../arm-none-eabi/lib/thumb/v7e-m/fpv4-sp/hard/libg_nano.a(lib_a-exit.o)
 .text          0x0000000000000000        0x0 /usr/bin/../lib/gcc/arm-none-eabi/7.2.1/../../../../arm-none-eabi/lib/thumb/v7e-m/fpv4-sp/hard/libg_nano.a(lib_a-impure.o)
 .data          0x0000000000000000        0x0 /usr/bin/../lib/gcc/arm-none-eabi/7.2.1/../../../../arm-none-eabi/lib/thumb/v7e-m/fpv4-sp/hard/libg_nano.a(lib_a-impure.o)
 .bss           0x0000000000000000        0x0 /usr/bin/../lib/gcc/arm-none-eabi/7.2.1/../../../../arm-none-eabi/lib/thumb/v7e-m/fpv4-sp/hard/libg_nano.a(lib_a-impure.o)
 .text          0x0000000000000000        0x0 /usr/bin/../lib/gcc/arm-none-eabi/7.2.1/../../../../arm-none-eabi/lib/thumb/v7e-m/fpv4-sp/hard/libg_nano.a(lib_a-init.o)
 .data          0x0000000000000000        0x0 /usr/bin/../lib/gcc/arm-none-eabi/7.2.1/../../../../arm-none-eabi/lib/thumb/v7e-m/fpv4-sp/hard/libg_nano.a(lib_a-init.o)
 .bss           0x0000000000000000        0x0 /usr/bin/../lib/gcc/arm-none-eabi/7.2.1/../../../../arm-none-eabi/lib/thumb/v7e-m/fpv4-sp/hard/libg_nano.a(lib_a-init.o)
 .text          0x0000000000000000        0x0 /usr/bin/../lib/gcc/arm-none-eabi/7.2.1/../../../../arm-none-eabi/lib/thumb/v7e-m/fpv4-sp/hard/libg_nano.a(lib_a-malloc.o)
 .data          0x0000000000000000        0x0 /usr/bin/../lib/gcc/arm-none-eabi/7.2.1/../../../../arm-none-eabi/lib/thumb/v7e-m/fpv4-sp/hard/libg_nano.a(lib_a-malloc.o)
 .bss           0x0000000000000000        0x0 /usr/bin/../lib/gcc/arm-none-eabi/7.2.1/../../../../arm-none-eabi/lib/thumb/v7e-m/fpv4-sp/hard/libg_nano.a(lib_a-malloc.o)
 .text          0x0000000000000000        0x0 /usr/bin/../lib/gcc/arm-none-eabi/7.2.1/../../../../arm-none-eabi/lib/thumb/v7e-m/fpv4-sp/hard/libg_nano.a(lib_a-memcmp.o)
 .data          0x0000000000000000        0x0 /usr/bin/../lib/gcc/arm-none-eabi/7.2.1/../../../../arm-none-eabi/lib/thumb/v7e-m/fpv4-sp/hard/libg_nano.a(lib_a-memcmp.o)
 .bss           0x0000000000000000        0x0 /usr/bin/../lib/gcc/arm-none-eabi/7.2.1/../../../../arm-none-eabi/lib/thumb/v7e-m/fpv4-sp/hard/libg_nano.a(lib_a-memcmp.o)
 .text          0x0000000000000000        0x0 /usr/bin/../lib/gcc/arm-none-eabi/7.2.1/../../../../arm-none-eabi/lib/thumb/v7e-m/fpv4-sp/hard/libg_nano.a(lib_a-memcpy-stub.o)
 .data          0x0000000000000000        0x0 /usr/bin/../lib/gcc/arm-none-eabi/7.2.1/../../../../arm-none-eabi/lib/thumb/v7e-m/fpv4-sp/hard/libg_nano.a(lib_a-memcpy-stub.o)
 .bss           0x0000000000000000        0x0 /usr/bin/../lib/gcc/arm-none-eabi/7.2.1/../../../../arm-none-eabi/lib/thumb/v7e-m/fpv4-sp/hard/libg_nano.a(lib_a-memcpy-stub.o)
 .text          0x0000000000000000        0x0 /usr/bin/../lib/gcc/arm-none-eabi/7.2.1/../../../../arm-none-eabi/lib/thumb/v7e-m/fpv4-sp/hard/libg_nano.a(lib_a-memset.o)
 .data          0x0000000000000000        0x0 /usr/bin/../lib/gcc/arm-none-eabi/7.2.1/../../../../arm-none-eabi/lib/thumb/v7e-m/fpv4-sp/hard/libg_nano.a(lib_a-memset.o)
 .bss           0x0000000000000000        0x0 /usr/bin/../lib/gcc/arm-none-eabi/7.2.1/../../../../arm-none-eabi/lib/thumb/v7e-m/fpv4-sp/hard/libg_nano.a(lib_a-memset.o)
 .text          0x0000000000000000        0x0 /usr/bin/../lib/gcc/arm-none-eabi/7.2.1/../../../../arm-none-eabi/lib/thumb/v7e-m/fpv4-sp/hard/libg_nano.a(lib_a-nano-freer.o)
 .data          0x0000000000000000        0x0 /usr/bin/../lib/gcc/arm-none-eabi/7.2.1/../../../../arm-none-eabi/lib/thumb/v7e-m/fpv4-sp/hard/libg_nano.a(lib_a-nano-freer.o)
 .bss           0x0000000000000000        0x0 /usr/bin/../lib/gcc/arm-none-eabi/7.2.1/../../../../arm-none-eabi/lib/thumb/v7e-m/fpv4-sp/hard/libg_nano.a(lib_a-nano-freer.o)
 .text          0x0000000000000000        0x0 /usr/bin/../lib/gcc/arm-none-eabi/7.2.1/../../../../arm-none-eabi/lib/thumb/v7e-m/fpv4-sp/hard/libg_nano.a(lib_a-nano-mallocr.o)
 .data          0x0000000000000000        0x0 /usr/bin/../lib/gcc/arm-none-eabi/7.2.1/../../../../arm-none-eabi/lib/thumb/v7e-m/fpv4-sp/hard/libg_nano.a(lib_a-nano-mallocr.o)
 .bss           0x0000000000000000        0x0 /usr/bin/../lib/gcc/arm-none-eabi/7.2.1/../../../../arm-none-eabi/lib/thumb/v7e-m/fpv4-sp/hard/libg_nano.a(lib_a-nano-mallocr.o)
 .text          0x0000000000000000        0x0 /usr/bin/../lib/gcc/arm-none-eabi/7.2.1/../../../../arm-none-eabi/lib/thumb/v7e-m/fpv4-sp/hard/libg_nano.a(lib_a-sbrkr.o)
 .data          0x0000000000000000        0x0 /usr/bin/../lib/gcc/arm-none-eabi/7.2.1/../../../../arm-none-eabi/lib/thumb/v7e-m/fpv4-sp/hard/libg_nano.a(lib_a-sbrkr.o)
 .bss           0x0000000000000000        0x0 /usr/bin/../lib/gcc/arm-none-eabi/7.2.1/../../../../arm-none-eabi/lib/thumb/v7e-m/fpv4-sp/hard/libg_nano.a(lib_a-sbrkr.o)
 .text          0x0000000000000000        0x0 /usr/bin/../lib/gcc/arm-none-eabi/7.2.1/../../../../arm-none-eabi/lib/thumb/v7e-m/fpv4-sp/hard/libg_nano.a(lib_a-strcpy.o)
 .data          0x0000000000000000        0x0 /usr/bin/../lib/gcc/arm-none-eabi/7.2.1/../../../../arm-none-eabi/lib/thumb/v7e-m/fpv4-sp/hard/libg_nano.a(lib_a-strcpy.o)
 .bss           0x0000000000000000        0x0 /usr/bin/../lib/gcc/arm-none-eabi/7.2.1/../../../../arm-none-eabi/lib/thumb/v7e-m/fpv4-sp/hard/libg_nano.a(lib_a-strcpy.o)
 .data          0x0000000000000000        0x0 /usr/bin/../lib/gcc/arm-none-eabi/7.2.1/../../../../arm-none-eabi/lib/thumb/v7e-m/fpv4-sp/hard/libg_nano.a(lib_a-strlen.o)
 .bss           0x0000000000000000        0x0 /usr/bin/../lib/gcc/arm-none-eabi/7.2.1/../../../../arm-none-eabi/lib/thumb/v7e-m/fpv4-sp/hard/libg_nano.a(lib_a-strlen.o)
 .text          0x0000000000000000        0x0 /usr/bin/../lib/gcc/arm-none-eabi/7.2.1/../../../../arm-none-eabi/lib/thumb/v7e-m/fpv4-sp/hard/libg_nano.a(lib_a-strrchr.o)
 .data          0x0000000000000000        0x0 /usr/bin/../lib/gcc/arm-none-eabi/7.2.1/../../../../arm-none-eabi/lib/thumb/v7e-m/fpv4-sp/hard/libg_nano.a(lib_a-strrchr.o)
 .bss           0x0000000000000000        0x0 /usr/bin/../lib/gcc/arm-none-eabi/7.2.1/../../../../arm-none-eabi/lib/thumb/v7e-m/fpv4-sp/hard/libg_nano.a(lib_a-strrchr.o)
 .text          0x0000000000000000        0x0 /usr/bin/../lib/gcc/arm-none-eabi/7.2.1/../../../../arm-none-eabi/lib/thumb/v7e-m/fpv4-sp/hard/libg_nano.a(lib_a-mlock.o)
 .data          0x0000000000000000        0x0 /usr/bin/../lib/gcc/arm-none-eabi/7.2.1/../../../../arm-none-eabi/lib/thumb/v7e-m/fpv4-sp/hard/libg_nano.a(lib_a-mlock.o)
 .bss           0x0000000000000000        0x0 /usr/bin/../lib/gcc/arm-none-eabi/7.2.1/../../../../arm-none-eabi/lib/thumb/v7e-m/fpv4-sp/hard/libg_nano.a(lib_a-mlock.o)
 .text          0x0000000000000000        0x0 /usr/bin/../lib/gcc/arm-none-eabi/7.2.1/../../../../arm-none-eabi/lib/thumb/v7e-m/fpv4-sp/hard/libg_nano.a(lib_a-reent.o)
 .data          0x0000000000000000        0x0 /usr/bin/../lib/gcc/arm-none-eabi/7.2.1/../../../../arm-none-eabi/lib/thumb/v7e-m/fpv4-sp/hard/libg_nano.a(lib_a-reent.o)
 .bss           0x0000000000000000        0x0 /usr/bin/../lib/gcc/arm-none-eabi/7.2.1/../../../../arm-none-eabi/lib/thumb/v7e-m/fpv4-sp/hard/libg_nano.a(lib_a-reent.o)
 .text.cleanup_glue
                0x0000000000000000       0x1a /usr/bin/../lib/gcc/arm-none-eabi/7.2.1/../../../../arm-none-eabi/lib/thumb/v7e-m/fpv4-sp/hard/libg_nano.a(lib_a-reent.o)
 .text._reclaim_reent
                0x0000000000000000       0xb8 /usr/bin/../lib/gcc/arm-none-eabi/7.2.1/../../../../arm-none-eabi/lib/thumb/v7e-m/fpv4-sp/hard/libg_nano.a(lib_a-reent.o)
 .text          0x0000000000000000        0x0 /usr/bin/../lib/gcc/arm-none-eabi/7.2.1/../../../../arm-none-eabi/lib/thumb/v7e-m/fpv4-sp/hard/libg_nano.a(lib_a-strchr.o)
 .data          0x0000000000000000        0x0 /usr/bin/../lib/gcc/arm-none-eabi/7.2.1/../../../../arm-none-eabi/lib/thumb/v7e-m/fpv4-sp/hard/libg_nano.a(lib_a-strchr.o)
 .bss           0x0000000000000000        0x0 /usr/bin/../lib/gcc/arm-none-eabi/7.2.1/../../../../arm-none-eabi/lib/thumb/v7e-m/fpv4-sp/hard/libg_nano.a(lib_a-strchr.o)
 .text          0x0000000000000000        0x0 /usr/bin/../lib/gcc/arm-none-eabi/7.2.1/thumb/v7e-m/fpv4-sp/hard/crtend.o
 .data          0x0000000000000000        0x0 /usr/bin/../lib/gcc/arm-none-eabi/7.2.1/thumb/v7e-m/fpv4-sp/hard/crtend.o
 .bss           0x0000000000000000        0x0 /usr/bin/../lib/gcc/arm-none-eabi/7.2.1/thumb/v7e-m/fpv4-sp/hard/crtend.o
 .text          0x0000000000000000        0x0 /usr/bin/../lib/gcc/arm-none-eabi/7.2.1/thumb/v7e-m/fpv4-sp/hard/crtn.o
 .data          0x0000000000000000        0x0 /usr/bin/../lib/gcc/arm-none-eabi/7.2.1/thumb/v7e-m/fpv4-sp/hard/crtn.o
 .bss           0x0000000000000000        0x0 /usr/bin/../lib/gcc/arm-none-eabi/7.2.1/thumb/v7e-m/fpv4-sp/hard/crtn.o
 .text          0x0000000000000000        0x0 /usr/bin/../lib/gcc/arm-none-eabi/7.2.1/../../../../arm-none-eabi/lib/thumb/v7e-m/fpv4-sp/hard/libnosys.a(sbrk.o)
 .data          0x0000000000000000        0x0 /usr/bin/../lib/gcc/arm-none-eabi/7.2.1/../../../../arm-none-eabi/lib/thumb/v7e-m/fpv4-sp/hard/libnosys.a(sbrk.o)
 .bss           0x0000000000000000        0x0 /usr/bin/../lib/gcc/arm-none-eabi/7.2.1/../../../../arm-none-eabi/lib/thumb/v7e-m/fpv4-sp/hard/libnosys.a(sbrk.o)
 .text          0x0000000000000000        0x0 /usr/bin/../lib/gcc/arm-none-eabi/7.2.1/../../../../arm-none-eabi/lib/thumb/v7e-m/fpv4-sp/hard/libnosys.a(_exit.o)
 .data          0x0000000000000000        0x0 /usr/bin/../lib/gcc/arm-none-eabi/7.2.1/../../../../arm-none-eabi/lib/thumb/v7e-m/fpv4-sp/hard/libnosys.a(_exit.o)
 .bss           0x0000000000000000        0x0 /usr/bin/../lib/gcc/arm-none-eabi/7.2.1/../../../../arm-none-eabi/lib/thumb/v7e-m/fpv4-sp/hard/libnosys.a(_exit.o)

Memory Configuration

Name             Origin             Length             Attributes
FLASH            0x0000000000026000 0x0000000000051000 xr
RAM              0x00000000200032c8 0x000000000000ca38 xrw
*default*        0x0000000000000000 0xffffffffffffffff

Linker script and memory map


.text           0x0000000000026000    0x1dea8
 *(.isr_vector)
 .isr_vector    0x0000000000026000      0x200 CMakeFiles/light_switch_client_nrf52832_xxAA_s132_6.0.0.dir/home/mazzer/work/nordic/sdk/nRF5_SDK_15.0.0/modules/nrfx/mdk/gcc_startup_nrf52.S.obj
                0x0000000000026000                __isr_vector
 *(.text*)
 .text          0x0000000000026200       0x40 /usr/bin/../lib/gcc/arm-none-eabi/7.2.1/thumb/v7e-m/fpv4-sp/hard/crtbegin.o
 .text          0x0000000000026240       0x74 /usr/bin/../lib/gcc/arm-none-eabi/7.2.1/../../../../arm-none-eabi/lib/thumb/v7e-m/fpv4-sp/hard/crt0.o
                0x0000000000026240                _mainCRTStartup
                0x0000000000026240                _start
 .text.sd_app_evt_wait
                0x00000000000262b4        0x4 CMakeFiles/light_switch_client_nrf52832_xxAA_s132_6.0.0.dir/src/main.c.obj
 .text.provisioning_complete_cb
                0x00000000000262b8       0xe4 CMakeFiles/light_switch_client_nrf52832_xxAA_s132_6.0.0.dir/src/main.c.obj
 .text.button_event_handler
                0x000000000002639c      0x1d0 CMakeFiles/light_switch_client_nrf52832_xxAA_s132_6.0.0.dir/src/main.c.obj
 .text.models_init_cb
                0x000000000002656c       0xbc CMakeFiles/light_switch_client_nrf52832_xxAA_s132_6.0.0.dir/src/main.c.obj
 .text.client_status_cb
                0x0000000000026628      0x128 CMakeFiles/light_switch_client_nrf52832_xxAA_s132_6.0.0.dir/src/main.c.obj
 .text.config_server_evt_cb
                0x0000000000026750       0x88 CMakeFiles/light_switch_client_nrf52832_xxAA_s132_6.0.0.dir/src/main.c.obj
 .text.client_publish_timeout_cb
                0x00000000000267d8       0x70 CMakeFiles/light_switch_client_nrf52832_xxAA_s132_6.0.0.dir/src/main.c.obj
 .text.rtt_input_handler
                0x0000000000026848      0x1d8 CMakeFiles/light_switch_client_nrf52832_xxAA_s132_6.0.0.dir/src/main.c.obj
 .text.startup.main
                0x0000000000026a20      0x3b8 CMakeFiles/light_switch_client_nrf52832_xxAA_s132_6.0.0.dir/src/main.c.obj
                0x0000000000026a20                main
 .text.mesh_evt_handler
                0x0000000000026dd8       0x10 CMakeFiles/light_switch_client_nrf52832_xxAA_s132_6.0.0.dir/__/__/__/mesh/stack/src/mesh_stack.c.obj
 .text.mesh_stack_init
                0x0000000000026de8       0x90 CMakeFiles/light_switch_client_nrf52832_xxAA_s132_6.0.0.dir/__/__/__/mesh/stack/src/mesh_stack.c.obj
                0x0000000000026de8                mesh_stack_init
 .text.mesh_stack_start
                0x0000000000026e78        0x4 CMakeFiles/light_switch_client_nrf52832_xxAA_s132_6.0.0.dir/__/__/__/mesh/stack/src/mesh_stack.c.obj
                0x0000000000026e78                mesh_stack_start
 .text.mesh_stack_provisioning_data_store
                0x0000000000026e7c       0x78 CMakeFiles/light_switch_client_nrf52832_xxAA_s132_6.0.0.dir/__/__/__/mesh/stack/src/mesh_stack.c.obj
                0x0000000000026e7c                mesh_stack_provisioning_data_store
 .text.mesh_stack_config_clear
                0x0000000000026ef4       0x14 CMakeFiles/light_switch_client_nrf52832_xxAA_s132_6.0.0.dir/__/__/__/mesh/stack/src/mesh_stack.c.obj
                0x0000000000026ef4                mesh_stack_config_clear
 .text.mesh_stack_device_reset
                0x0000000000026f08       0x20 CMakeFiles/light_switch_client_nrf52832_xxAA_s132_6.0.0.dir/__/__/__/mesh/stack/src/mesh_stack.c.obj
                0x0000000000026f08                mesh_stack_device_reset
 .text.sd_evt_get
                0x0000000000026f28        0x4 CMakeFiles/light_switch_client_nrf52832_xxAA_s132_6.0.0.dir/__/__/common/src/mesh_softdevice_init.c.obj
 .text.sd_softdevice_enable
                0x0000000000026f2c        0x4 CMakeFiles/light_switch_client_nrf52832_xxAA_s132_6.0.0.dir/__/__/common/src/mesh_softdevice_init.c.obj
 .text.sd_ble_enable
                0x0000000000026f30        0x4 CMakeFiles/light_switch_client_nrf52832_xxAA_s132_6.0.0.dir/__/__/common/src/mesh_softdevice_init.c.obj
 .text.SWI2_EGU2_IRQHandler
                0x0000000000026f34       0x1c CMakeFiles/light_switch_client_nrf52832_xxAA_s132_6.0.0.dir/__/__/common/src/mesh_softdevice_init.c.obj
                0x0000000000026f34                SWI2_EGU2_IRQHandler
 .text.mesh_softdevice_init
                0x0000000000026f50      0x1f8 CMakeFiles/light_switch_client_nrf52832_xxAA_s132_6.0.0.dir/__/__/common/src/mesh_softdevice_init.c.obj
                0x0000000000026f50                mesh_softdevice_init
 .text.prov_evt_handler
                0x0000000000027148       0x70 CMakeFiles/light_switch_client_nrf52832_xxAA_s132_6.0.0.dir/__/__/common/src/mesh_provisionee.c.obj
 .text.mesh_provisionee_prov_start
                0x00000000000271b8       0x88 CMakeFiles/light_switch_client_nrf52832_xxAA_s132_6.0.0.dir/__/__/common/src/mesh_provisionee.c.obj
                0x00000000000271b8                mesh_provisionee_prov_start
 .text.TIMER2_IRQHandler
                0x0000000000027240       0x3c CMakeFiles/light_switch_client_nrf52832_xxAA_s132_6.0.0.dir/__/__/common/src/rtt_input.c.obj
                0x0000000000027240                TIMER2_IRQHandler
 .text.rtt_input_enable
                0x000000000002727c       0x5c CMakeFiles/light_switch_client_nrf52832_xxAA_s132_6.0.0.dir/__/__/common/src/rtt_input.c.obj
                0x000000000002727c                rtt_input_enable
 .text.hal_led_pin_get
                0x00000000000272d8       0x18 CMakeFiles/light_switch_client_nrf52832_xxAA_s132_6.0.0.dir/__/__/common/src/simple_hal.c.obj
                0x00000000000272d8                hal_led_pin_get
 .text.hal_led_pin_set
                0x00000000000272f0       0x18 CMakeFiles/light_switch_client_nrf52832_xxAA_s132_6.0.0.dir/__/__/common/src/simple_hal.c.obj
                0x00000000000272f0                hal_led_pin_set
 .text.hal_led_mask_set
                0x0000000000027308       0x14 CMakeFiles/light_switch_client_nrf52832_xxAA_s132_6.0.0.dir/__/__/common/src/simple_hal.c.obj
                0x0000000000027308                hal_led_mask_set
 .text.hal_led_blink_ms
                0x000000000002731c       0x50 CMakeFiles/light_switch_client_nrf52832_xxAA_s132_6.0.0.dir/__/__/common/src/simple_hal.c.obj
                0x000000000002731c                hal_led_blink_ms
 .text.hal_leds_init
                0x000000000002736c       0x3c CMakeFiles/light_switch_client_nrf52832_xxAA_s132_6.0.0.dir/__/__/common/src/simple_hal.c.obj
                0x000000000002736c                hal_leds_init
 .text.hal_buttons_init
                0x00000000000273a8       0x54 CMakeFiles/light_switch_client_nrf52832_xxAA_s132_6.0.0.dir/__/__/common/src/simple_hal.c.obj
                0x00000000000273a8                hal_buttons_init
 .text.GPIOTE_IRQHandler
                0x00000000000273fc       0x70 CMakeFiles/light_switch_client_nrf52832_xxAA_s132_6.0.0.dir/__/__/common/src/simple_hal.c.obj
                0x00000000000273fc                GPIOTE_IRQHandler
 .text._weak_handler
                0x000000000002746c        0x4 CMakeFiles/light_switch_client_nrf52832_xxAA_s132_6.0.0.dir/__/__/nrf_mesh_weak.c.obj
                0x000000000002746c                nrf_mesh_dfu_init
                0x000000000002746c                nrf_mesh_dfu_jump_to_bootloader
                0x000000000002746c                nrf_mesh_dfu_rx
                0x000000000002746c                prov_provisioner_provision
                0x000000000002746c                nrf_mesh_dfu_bank_info_get
                0x000000000002746c                prov_provisioner_oob_pubkey
                0x000000000002746c                nrf_mesh_dfu_request
                0x000000000002746c                nrf_mesh_dfu_bank_flash
                0x000000000002746c                _weak_handler
                0x000000000002746c                nrf_mesh_dfu_relay
                0x000000000002746c                nrf_mesh_dfu_abort
                0x000000000002746c                mesh_flash_op_execute
                0x000000000002746c                prov_provisionee_init
                0x000000000002746c                nrf_mesh_dfu_state_get
                0x000000000002746c                prov_provisioner_shared_secret
                0x000000000002746c                prov_provisioner_auth_data
                0x000000000002746c                prov_provisioner_oob_use
 .text.app_error_fault_handler
                0x0000000000027470      0x238 CMakeFiles/light_switch_client_nrf52832_xxAA_s132_6.0.0.dir/__/__/common/src/app_error_weak.c.obj
                0x0000000000027470                app_error_fault_handler
 .text.mesh_assertion_handler
                0x00000000000276a8       0x24 CMakeFiles/light_switch_client_nrf52832_xxAA_s132_6.0.0.dir/__/__/common/src/assertion_handler_weak.c.obj
                0x00000000000276a8                mesh_assertion_handler
 .text.nrf_mesh_configure_device_uuid_set
                0x00000000000276cc       0x10 CMakeFiles/light_switch_client_nrf52832_xxAA_s132_6.0.0.dir/__/__/__/mesh/core/src/nrf_mesh_configure.c.obj
                0x00000000000276cc                nrf_mesh_configure_device_uuid_set
 .text.nrf_mesh_configure_device_uuid_reset
                0x00000000000276dc       0x2c CMakeFiles/light_switch_client_nrf52832_xxAA_s132_6.0.0.dir/__/__/__/mesh/core/src/nrf_mesh_configure.c.obj
                0x00000000000276dc                nrf_mesh_configure_device_uuid_reset
 .text.nrf_mesh_configure_device_uuid_get
                0x0000000000027708        0x8 CMakeFiles/light_switch_client_nrf52832_xxAA_s132_6.0.0.dir/__/__/__/mesh/core/src/nrf_mesh_configure.c.obj
                0x0000000000027708                nrf_mesh_configure_device_uuid_get
 .text.sd_ecb_block_encrypt
                0x0000000000027710        0x4 CMakeFiles/light_switch_client_nrf52832_xxAA_s132_6.0.0.dir/__/__/__/mesh/core/src/aes.c.obj
 .text.aes_encrypt
                0x0000000000027714       0x34 CMakeFiles/light_switch_client_nrf52832_xxAA_s132_6.0.0.dir/__/__/__/mesh/core/src/aes.c.obj
                0x0000000000027714                aes_encrypt
 .text.msg_cache_init
                0x0000000000027748       0x24 CMakeFiles/light_switch_client_nrf52832_xxAA_s132_6.0.0.dir/__/__/__/mesh/core/src/msg_cache.c.obj
                0x0000000000027748                msg_cache_init
 .text.msg_cache_entry_exists
                0x000000000002776c       0x40 CMakeFiles/light_switch_client_nrf52832_xxAA_s132_6.0.0.dir/__/__/__/mesh/core/src/msg_cache.c.obj
                0x000000000002776c                msg_cache_entry_exists
 .text.msg_cache_entry_add
                0x00000000000277ac       0x2c CMakeFiles/light_switch_client_nrf52832_xxAA_s132_6.0.0.dir/__/__/__/mesh/core/src/msg_cache.c.obj
                0x00000000000277ac                msg_cache_entry_add
 .text.tx_complete
                0x00000000000277d8       0x30 CMakeFiles/light_switch_client_nrf52832_xxAA_s132_6.0.0.dir/__/__/__/mesh/core/src/transport.c.obj
 .text.upper_trs_packet_encrypt
                0x0000000000027808       0xa8 CMakeFiles/light_switch_client_nrf52832_xxAA_s132_6.0.0.dir/__/__/__/mesh/core/src/transport.c.obj
 .text.trs_sar_packet_out
                0x00000000000278b0      0x19c CMakeFiles/light_switch_client_nrf52832_xxAA_s132_6.0.0.dir/__/__/__/mesh/core/src/transport.c.obj
 .text.upper_transport_access_packet_in
                0x0000000000027a4c      0x33c CMakeFiles/light_switch_client_nrf52832_xxAA_s132_6.0.0.dir/__/__/__/mesh/core/src/transport.c.obj
 .text.sar_ctx_cancel
                0x0000000000027d88      0x148 CMakeFiles/light_switch_client_nrf52832_xxAA_s132_6.0.0.dir/__/__/__/mesh/core/src/transport.c.obj
 .text.retry_timeout
                0x0000000000027ed0       0x98 CMakeFiles/light_switch_client_nrf52832_xxAA_s132_6.0.0.dir/__/__/__/mesh/core/src/transport.c.obj
 .text.upper_transport_packet_in
                0x0000000000027f68      0x2a4 CMakeFiles/light_switch_client_nrf52832_xxAA_s132_6.0.0.dir/__/__/__/mesh/core/src/transport.c.obj
 .text.upper_transport_tx.part.27
                0x000000000002820c      0x370 CMakeFiles/light_switch_client_nrf52832_xxAA_s132_6.0.0.dir/__/__/__/mesh/core/src/transport.c.obj
 .text.sar_ack_send.part.31
                0x000000000002857c       0xd4 CMakeFiles/light_switch_client_nrf52832_xxAA_s132_6.0.0.dir/__/__/__/mesh/core/src/transport.c.obj
 .text.transport_sar_process
                0x0000000000028650      0x274 CMakeFiles/light_switch_client_nrf52832_xxAA_s132_6.0.0.dir/__/__/__/mesh/core/src/transport.c.obj
 .text.abort_timeout
                0x00000000000288c4      0x138 CMakeFiles/light_switch_client_nrf52832_xxAA_s132_6.0.0.dir/__/__/__/mesh/core/src/transport.c.obj
 .text.ack_timeout
                0x00000000000289fc       0xf8 CMakeFiles/light_switch_client_nrf52832_xxAA_s132_6.0.0.dir/__/__/__/mesh/core/src/transport.c.obj
 .text.transport_init
                0x0000000000028af4       0xac CMakeFiles/light_switch_client_nrf52832_xxAA_s132_6.0.0.dir/__/__/__/mesh/core/src/transport.c.obj
                0x0000000000028af4                transport_init
 .text.transport_packet_in
                0x0000000000028ba0      0x778 CMakeFiles/light_switch_client_nrf52832_xxAA_s132_6.0.0.dir/__/__/__/mesh/core/src/transport.c.obj
                0x0000000000028ba0                transport_packet_in
 .text.transport_tx
                0x0000000000029318       0xec CMakeFiles/light_switch_client_nrf52832_xxAA_s132_6.0.0.dir/__/__/__/mesh/core/src/transport.c.obj
                0x0000000000029318                transport_tx
 .text.transport_control_tx
                0x0000000000029404       0xc4 CMakeFiles/light_switch_client_nrf52832_xxAA_s132_6.0.0.dir/__/__/__/mesh/core/src/transport.c.obj
                0x0000000000029404                transport_control_tx
 .text.transport_opt_set
                0x00000000000294c8       0xdc CMakeFiles/light_switch_client_nrf52832_xxAA_s132_6.0.0.dir/__/__/__/mesh/core/src/transport.c.obj
                0x00000000000294c8                transport_opt_set
 .text.transport_opt_get
                0x00000000000295a4       0x84 CMakeFiles/light_switch_client_nrf52832_xxAA_s132_6.0.0.dir/__/__/__/mesh/core/src/transport.c.obj
                0x00000000000295a4                transport_opt_get
 .text.transport_control_packet_consumer_add
                0x0000000000029628       0x68 CMakeFiles/light_switch_client_nrf52832_xxAA_s132_6.0.0.dir/__/__/__/mesh/core/src/transport.c.obj
                0x0000000000029628                transport_control_packet_consumer_add
 .text.event_handle
                0x0000000000029690       0x28 CMakeFiles/light_switch_client_nrf52832_xxAA_s132_6.0.0.dir/__/__/__/mesh/core/src/event.c.obj
                0x0000000000029690                event_handle
 .text.event_handler_add
                0x00000000000296b8       0x28 CMakeFiles/light_switch_client_nrf52832_xxAA_s132_6.0.0.dir/__/__/__/mesh/core/src/event.c.obj
                0x00000000000296b8                event_handler_add
 .text.event_handler_remove
                0x00000000000296e0       0x28 CMakeFiles/light_switch_client_nrf52832_xxAA_s132_6.0.0.dir/__/__/__/mesh/core/src/event.c.obj
                0x00000000000296e0                event_handler_remove
 .text.packet_buffer_init
                0x0000000000029708       0xb4 CMakeFiles/light_switch_client_nrf52832_xxAA_s132_6.0.0.dir/__/__/__/mesh/core/src/packet_buffer.c.obj
                0x0000000000029708                packet_buffer_init
 .text.packet_buffer_flush
                0x00000000000297bc       0x6c CMakeFiles/light_switch_client_nrf52832_xxAA_s132_6.0.0.dir/__/__/__/mesh/core/src/packet_buffer.c.obj
                0x00000000000297bc                packet_buffer_flush
 .text.packet_buffer_reserve
                0x0000000000029828       0xa4 CMakeFiles/light_switch_client_nrf52832_xxAA_s132_6.0.0.dir/__/__/__/mesh/core/src/packet_buffer.c.obj
                0x0000000000029828                packet_buffer_reserve
 .text.packet_buffer_commit
                0x00000000000298cc       0x7c CMakeFiles/light_switch_client_nrf52832_xxAA_s132_6.0.0.dir/__/__/__/mesh/core/src/packet_buffer.c.obj
                0x00000000000298cc                packet_buffer_commit
 .text.packet_buffer_pop
                0x0000000000029948       0x44 CMakeFiles/light_switch_client_nrf52832_xxAA_s132_6.0.0.dir/__/__/__/mesh/core/src/packet_buffer.c.obj
                0x0000000000029948                packet_buffer_pop
 .text.packet_buffer_can_pop
                0x000000000002998c       0x24 CMakeFiles/light_switch_client_nrf52832_xxAA_s132_6.0.0.dir/__/__/__/mesh/core/src/packet_buffer.c.obj
                0x000000000002998c                packet_buffer_can_pop
 .text.packet_buffer_packets_ready_to_pop
                0x00000000000299b0       0x5c CMakeFiles/light_switch_client_nrf52832_xxAA_s132_6.0.0.dir/__/__/__/mesh/core/src/packet_buffer.c.obj
                0x00000000000299b0                packet_buffer_packets_ready_to_pop
 .text.packet_buffer_free
                0x0000000000029a0c       0x8c CMakeFiles/light_switch_client_nrf52832_xxAA_s132_6.0.0.dir/__/__/__/mesh/core/src/packet_buffer.c.obj
                0x0000000000029a0c                packet_buffer_free
 .text.erase_source
                0x0000000000029a98       0x34 CMakeFiles/light_switch_client_nrf52832_xxAA_s132_6.0.0.dir/__/__/__/mesh/core/src/flash_manager_defrag.c.obj
 .text.erase_recovery_area
                0x0000000000029acc       0x34 CMakeFiles/light_switch_client_nrf52832_xxAA_s132_6.0.0.dir/__/__/__/mesh/core/src/flash_manager_defrag.c.obj
 .text.write_back
                0x0000000000029b00       0x44 CMakeFiles/light_switch_client_nrf52832_xxAA_s132_6.0.0.dir/__/__/__/mesh/core/src/flash_manager_defrag.c.obj
 .text.write_defrag_start_pointer
                0x0000000000029b44       0x38 CMakeFiles/light_switch_client_nrf52832_xxAA_s132_6.0.0.dir/__/__/__/mesh/core/src/flash_manager_defrag.c.obj
 .text.copy_metadata
                0x0000000000029b7c       0x58 CMakeFiles/light_switch_client_nrf52832_xxAA_s132_6.0.0.dir/__/__/__/mesh/core/src/flash_manager_defrag.c.obj
 .text.seal_storage_page
                0x0000000000029bd4       0x70 CMakeFiles/light_switch_client_nrf52832_xxAA_s132_6.0.0.dir/__/__/__/mesh/core/src/flash_manager_defrag.c.obj
 .text.post_process
                0x0000000000029c44       0x64 CMakeFiles/light_switch_client_nrf52832_xxAA_s132_6.0.0.dir/__/__/__/mesh/core/src/flash_manager_defrag.c.obj
 .text.check_for_invalid_entries
                0x0000000000029ca8       0x40 CMakeFiles/light_switch_client_nrf52832_xxAA_s132_6.0.0.dir/__/__/__/mesh/core/src/flash_manager_defrag.c.obj
 .text.execute_procedure_step
                0x0000000000029ce8       0x98 CMakeFiles/light_switch_client_nrf52832_xxAA_s132_6.0.0.dir/__/__/__/mesh/core/src/flash_manager_defrag.c.obj
 .text.on_flash_op_end
                0x0000000000029d80       0x48 CMakeFiles/light_switch_client_nrf52832_xxAA_s132_6.0.0.dir/__/__/__/mesh/core/src/flash_manager_defrag.c.obj
 .text.invalidate_duplicate_entries
                0x0000000000029dc8      0x150 CMakeFiles/light_switch_client_nrf52832_xxAA_s132_6.0.0.dir/__/__/__/mesh/core/src/flash_manager_defrag.c.obj
 .text.backup_entries
                0x0000000000029f18      0x1c8 CMakeFiles/light_switch_client_nrf52832_xxAA_s132_6.0.0.dir/__/__/__/mesh/core/src/flash_manager_defrag.c.obj
 .text.flash_manager_defrag_init
                0x000000000002a0e0       0x6c CMakeFiles/light_switch_client_nrf52832_xxAA_s132_6.0.0.dir/__/__/__/mesh/core/src/flash_manager_defrag.c.obj
                0x000000000002a0e0                flash_manager_defrag_init
 .text.flash_manager_defrag_is_running
                0x000000000002a14c       0x10 CMakeFiles/light_switch_client_nrf52832_xxAA_s132_6.0.0.dir/__/__/__/mesh/core/src/flash_manager_defrag.c.obj
                0x000000000002a14c                flash_manager_defrag_is_running
 .text.flash_manager_defrag
                0x000000000002a15c       0x48 CMakeFiles/light_switch_client_nrf52832_xxAA_s132_6.0.0.dir/__/__/__/mesh/core/src/flash_manager_defrag.c.obj
                0x000000000002a15c                flash_manager_defrag
 .text.flash_manager_defrag_recovery_page_get
                0x000000000002a1a4        0xc CMakeFiles/light_switch_client_nrf52832_xxAA_s132_6.0.0.dir/__/__/__/mesh/core/src/flash_manager_defrag.c.obj
                0x000000000002a1a4                flash_manager_defrag_recovery_page_get
 .text.fifo_init
                0x000000000002a1b0       0x38 CMakeFiles/light_switch_client_nrf52832_xxAA_s132_6.0.0.dir/__/__/__/mesh/core/src/fifo.c.obj
                0x000000000002a1b0                fifo_init
 .text.fifo_push
                0x000000000002a1e8       0x60 CMakeFiles/light_switch_client_nrf52832_xxAA_s132_6.0.0.dir/__/__/__/mesh/core/src/fifo.c.obj
                0x000000000002a1e8                fifo_push
 .text.fifo_pop
                0x000000000002a248       0x5c CMakeFiles/light_switch_client_nrf52832_xxAA_s132_6.0.0.dir/__/__/__/mesh/core/src/fifo.c.obj
                0x000000000002a248                fifo_pop
 .text.nrf_flash_erase
                0x000000000002a2a4       0x5c CMakeFiles/light_switch_client_nrf52832_xxAA_s132_6.0.0.dir/__/__/__/mesh/core/src/nrf_flash.c.obj
                0x000000000002a2a4                nrf_flash_erase
 .text.nrf_flash_write
                0x000000000002a300       0x70 CMakeFiles/light_switch_client_nrf52832_xxAA_s132_6.0.0.dir/__/__/__/mesh/core/src/nrf_flash.c.obj
                0x000000000002a300                nrf_flash_write
 .text.packet_mgr_init
                0x000000000002a370       0x48 CMakeFiles/light_switch_client_nrf52832_xxAA_s132_6.0.0.dir/__/__/__/mesh/core/src/packet_mgr.c.obj
                0x000000000002a370                packet_mgr_init
 .text.flash_store_iv_index
                0x000000000002a3b8       0x38 CMakeFiles/light_switch_client_nrf52832_xxAA_s132_6.0.0.dir/__/__/__/mesh/core/src/net_state.c.obj
 .text.flash_mem_available
                0x000000000002a3f0       0x1c CMakeFiles/light_switch_client_nrf52832_xxAA_s132_6.0.0.dir/__/__/__/mesh/core/src/net_state.c.obj
 .text.init_flash_storage
                0x000000000002a40c       0x44 CMakeFiles/light_switch_client_nrf52832_xxAA_s132_6.0.0.dir/__/__/__/mesh/core/src/net_state.c.obj
 .text.flash_write_complete
                0x000000000002a450       0x6c CMakeFiles/light_switch_client_nrf52832_xxAA_s132_6.0.0.dir/__/__/__/mesh/core/src/net_state.c.obj
 .text.seqnum_block_allocate
                0x000000000002a4bc       0x4c CMakeFiles/light_switch_client_nrf52832_xxAA_s132_6.0.0.dir/__/__/__/mesh/core/src/net_state.c.obj
 .text.net_state_reset
                0x000000000002a508       0x78 CMakeFiles/light_switch_client_nrf52832_xxAA_s132_6.0.0.dir/__/__/__/mesh/core/src/net_state.c.obj
                0x000000000002a508                net_state_reset
 .text.iv_update_trigger_if_pending
                0x000000000002a580      0x174 CMakeFiles/light_switch_client_nrf52832_xxAA_s132_6.0.0.dir/__/__/__/mesh/core/src/net_state.c.obj
 .text.iv_update_timer_handler
                0x000000000002a6f4       0x70 CMakeFiles/light_switch_client_nrf52832_xxAA_s132_6.0.0.dir/__/__/__/mesh/core/src/net_state.c.obj
 .text.mesh_evt_handler
                0x000000000002a764      0x104 CMakeFiles/light_switch_client_nrf52832_xxAA_s132_6.0.0.dir/__/__/__/mesh/core/src/net_state.c.obj
 .text.net_state_recover_from_flash
                0x000000000002a868      0x118 CMakeFiles/light_switch_client_nrf52832_xxAA_s132_6.0.0.dir/__/__/__/mesh/core/src/net_state.c.obj
                0x000000000002a868                net_state_recover_from_flash
 .text.net_state_flash_area_get
                0x000000000002a980        0xc CMakeFiles/light_switch_client_nrf52832_xxAA_s132_6.0.0.dir/__/__/__/mesh/core/src/net_state.c.obj
                0x000000000002a980                net_state_flash_area_get
 .text.net_state_init
                0x000000000002a98c       0x94 CMakeFiles/light_switch_client_nrf52832_xxAA_s132_6.0.0.dir/__/__/__/mesh/core/src/net_state.c.obj
                0x000000000002a98c                net_state_init
 .text.net_state_seqnum_alloc
                0x000000000002aa20       0xd0 CMakeFiles/light_switch_client_nrf52832_xxAA_s132_6.0.0.dir/__/__/__/mesh/core/src/net_state.c.obj
                0x000000000002aa20                net_state_seqnum_alloc
 .text.net_state_iv_index_lock
                0x000000000002aaf0      0x188 CMakeFiles/light_switch_client_nrf52832_xxAA_s132_6.0.0.dir/__/__/__/mesh/core/src/net_state.c.obj
                0x000000000002aaf0                net_state_iv_index_lock
 .text.net_state_key_refresh_phase_changed
                0x000000000002ac78       0x20 CMakeFiles/light_switch_client_nrf52832_xxAA_s132_6.0.0.dir/__/__/__/mesh/core/src/net_state.c.obj
                0x000000000002ac78                net_state_key_refresh_phase_changed
 .text.net_state_beacon_iv_index_get
                0x000000000002ac98        0xc CMakeFiles/light_switch_client_nrf52832_xxAA_s132_6.0.0.dir/__/__/__/mesh/core/src/net_state.c.obj
                0x000000000002ac98                net_state_beacon_iv_index_get
 .text.net_state_tx_iv_index_get
                0x000000000002aca4       0x14 CMakeFiles/light_switch_client_nrf52832_xxAA_s132_6.0.0.dir/__/__/__/mesh/core/src/net_state.c.obj
                0x000000000002aca4                net_state_tx_iv_index_get
 .text.net_state_rx_iv_index_get
                0x000000000002acb8       0x18 CMakeFiles/light_switch_client_nrf52832_xxAA_s132_6.0.0.dir/__/__/__/mesh/core/src/net_state.c.obj
                0x000000000002acb8                net_state_rx_iv_index_get
 .text.net_state_iv_update_get
                0x000000000002acd0        0xc CMakeFiles/light_switch_client_nrf52832_xxAA_s132_6.0.0.dir/__/__/__/mesh/core/src/net_state.c.obj
                0x000000000002acd0                net_state_iv_update_get
 .text.net_state_iv_index_set
                0x000000000002acdc       0x88 CMakeFiles/light_switch_client_nrf52832_xxAA_s132_6.0.0.dir/__/__/__/mesh/core/src/net_state.c.obj
                0x000000000002acdc                net_state_iv_index_set
 .text.send_end_events
                0x000000000002ad64       0x98 CMakeFiles/light_switch_client_nrf52832_xxAA_s132_6.0.0.dir/__/__/__/mesh/core/src/mesh_flash.c.obj
 .text.flash_op_start
                0x000000000002adfc      0x214 CMakeFiles/light_switch_client_nrf52832_xxAA_s132_6.0.0.dir/__/__/__/mesh/core/src/mesh_flash.c.obj
 .text.mesh_flash_init
                0x000000000002b010       0x78 CMakeFiles/light_switch_client_nrf52832_xxAA_s132_6.0.0.dir/__/__/__/mesh/core/src/mesh_flash.c.obj
                0x000000000002b010                mesh_flash_init
 .text.mesh_flash_user_callback_set
                0x000000000002b088       0x20 CMakeFiles/light_switch_client_nrf52832_xxAA_s132_6.0.0.dir/__/__/__/mesh/core/src/mesh_flash.c.obj
                0x000000000002b088                mesh_flash_user_callback_set
 .text.mesh_flash_op_push
                0x000000000002b0a8      0x198 CMakeFiles/light_switch_client_nrf52832_xxAA_s132_6.0.0.dir/__/__/__/mesh/core/src/mesh_flash.c.obj
                0x000000000002b0a8                mesh_flash_op_push
 .text.nrf_mesh_address_type_get
                0x000000000002b240       0x10 CMakeFiles/light_switch_client_nrf52832_xxAA_s132_6.0.0.dir/__/__/__/mesh/core/src/nrf_mesh_utils.c.obj
                0x000000000002b240                nrf_mesh_address_type_get
 .text.sd_softdevice_is_enabled
                0x000000000002b250        0x4 CMakeFiles/light_switch_client_nrf52832_xxAA_s132_6.0.0.dir/__/__/__/mesh/core/src/nrf_mesh.c.obj
 .text.nrf_mesh_listen
                0x000000000002b254      0x184 CMakeFiles/light_switch_client_nrf52832_xxAA_s132_6.0.0.dir/__/__/__/mesh/core/src/nrf_mesh.c.obj
 .text.flash_stable_cb
                0x000000000002b3d8       0x20 CMakeFiles/light_switch_client_nrf52832_xxAA_s132_6.0.0.dir/__/__/__/mesh/core/src/nrf_mesh.c.obj
 .text.scanner_packet_process_cb
                0x000000000002b3f8       0x88 CMakeFiles/light_switch_client_nrf52832_xxAA_s132_6.0.0.dir/__/__/__/mesh/core/src/nrf_mesh.c.obj
 .text.nrf_mesh_init
                0x000000000002b480       0xe4 CMakeFiles/light_switch_client_nrf52832_xxAA_s132_6.0.0.dir/__/__/__/mesh/core/src/nrf_mesh.c.obj
                0x000000000002b480                nrf_mesh_init
 .text.nrf_mesh_enable
                0x000000000002b564       0x48 CMakeFiles/light_switch_client_nrf52832_xxAA_s132_6.0.0.dir/__/__/__/mesh/core/src/nrf_mesh.c.obj
                0x000000000002b564                nrf_mesh_enable
 .text.nrf_mesh_packet_send
                0x000000000002b5ac       0x94 CMakeFiles/light_switch_client_nrf52832_xxAA_s132_6.0.0.dir/__/__/__/mesh/core/src/nrf_mesh.c.obj
                0x000000000002b5ac                nrf_mesh_packet_send
 .text.nrf_mesh_evt_handler_add
                0x000000000002b640        0x4 CMakeFiles/light_switch_client_nrf52832_xxAA_s132_6.0.0.dir/__/__/__/mesh/core/src/nrf_mesh.c.obj
                0x000000000002b640                nrf_mesh_evt_handler_add
 .text.nrf_mesh_on_sd_evt
                0x000000000002b644        0xc CMakeFiles/light_switch_client_nrf52832_xxAA_s132_6.0.0.dir/__/__/__/mesh/core/src/nrf_mesh.c.obj
                0x000000000002b644                nrf_mesh_on_sd_evt
 .text.nrf_mesh_subnet_added
                0x000000000002b650        0x4 CMakeFiles/light_switch_client_nrf52832_xxAA_s132_6.0.0.dir/__/__/__/mesh/core/src/nrf_mesh.c.obj
                0x000000000002b650                nrf_mesh_subnet_added
 .text.queue_init
                0x000000000002b654       0x1c CMakeFiles/light_switch_client_nrf52832_xxAA_s132_6.0.0.dir/__/__/__/mesh/core/src/queue.c.obj
                0x000000000002b654                queue_init
 .text.queue_push
                0x000000000002b670       0x3c CMakeFiles/light_switch_client_nrf52832_xxAA_s132_6.0.0.dir/__/__/__/mesh/core/src/queue.c.obj
                0x000000000002b670                queue_push
 .text.queue_pop
                0x000000000002b6ac       0x2c CMakeFiles/light_switch_client_nrf52832_xxAA_s132_6.0.0.dir/__/__/__/mesh/core/src/queue.c.obj
                0x000000000002b6ac                queue_pop
 .text.queue_peek
                0x000000000002b6d8       0x14 CMakeFiles/light_switch_client_nrf52832_xxAA_s132_6.0.0.dir/__/__/__/mesh/core/src/queue.c.obj
                0x000000000002b6d8                queue_peek
 .text.sd_power_reset_reason_clr
                0x000000000002b6ec        0x4 CMakeFiles/light_switch_client_nrf52832_xxAA_s132_6.0.0.dir/__/__/__/mesh/core/src/hal.c.obj
 .text.sd_power_gpregret_set
                0x000000000002b6f0        0x4 CMakeFiles/light_switch_client_nrf52832_xxAA_s132_6.0.0.dir/__/__/__/mesh/core/src/hal.c.obj
 .text.hal_device_reset
                0x000000000002b6f4       0x38 CMakeFiles/light_switch_client_nrf52832_xxAA_s132_6.0.0.dir/__/__/__/mesh/core/src/hal.c.obj
                0x000000000002b6f4                hal_device_reset
 .text.hal_lfclk_ppm_get
                0x000000000002b72c       0x14 CMakeFiles/light_switch_client_nrf52832_xxAA_s132_6.0.0.dir/__/__/__/mesh/core/src/hal.c.obj
                0x000000000002b72c                hal_lfclk_ppm_get
 .text.aes_cmac_subkey_generate
                0x000000000002b740      0x294 CMakeFiles/light_switch_client_nrf52832_xxAA_s132_6.0.0.dir/__/__/__/mesh/core/src/aes_cmac.c.obj
                0x000000000002b740                aes_cmac_subkey_generate
 .text.aes_cmac
                0x000000000002b9d4      0x4b8 CMakeFiles/light_switch_client_nrf52832_xxAA_s132_6.0.0.dir/__/__/__/mesh/core/src/aes_cmac.c.obj
                0x000000000002b9d4                aes_cmac
 .text.timer_cb
                0x000000000002be8c        0xc CMakeFiles/light_switch_client_nrf52832_xxAA_s132_6.0.0.dir/__/__/__/mesh/core/src/timer_scheduler.c.obj
 .text.add_evt.constprop.1
                0x000000000002be98       0x60 CMakeFiles/light_switch_client_nrf52832_xxAA_s132_6.0.0.dir/__/__/__/mesh/core/src/timer_scheduler.c.obj
 .text.flag_event_cb
                0x000000000002bef8      0x2f0 CMakeFiles/light_switch_client_nrf52832_xxAA_s132_6.0.0.dir/__/__/__/mesh/core/src/timer_scheduler.c.obj
 .text.timer_sch_init
                0x000000000002c1e8       0x24 CMakeFiles/light_switch_client_nrf52832_xxAA_s132_6.0.0.dir/__/__/__/mesh/core/src/timer_scheduler.c.obj
                0x000000000002c1e8                timer_sch_init
 .text.timer_sch_schedule
                0x000000000002c20c       0x68 CMakeFiles/light_switch_client_nrf52832_xxAA_s132_6.0.0.dir/__/__/__/mesh/core/src/timer_scheduler.c.obj
                0x000000000002c20c                timer_sch_schedule
 .text.timer_sch_abort
                0x000000000002c274       0x5c CMakeFiles/light_switch_client_nrf52832_xxAA_s132_6.0.0.dir/__/__/__/mesh/core/src/timer_scheduler.c.obj
                0x000000000002c274                timer_sch_abort
 .text.timer_sch_reschedule
                0x000000000002c2d0       0x90 CMakeFiles/light_switch_client_nrf52832_xxAA_s132_6.0.0.dir/__/__/__/mesh/core/src/timer_scheduler.c.obj
                0x000000000002c2d0                timer_sch_reschedule
 .text.timer_event_handler
                0x000000000002c360       0xd0 CMakeFiles/light_switch_client_nrf52832_xxAA_s132_6.0.0.dir/__/__/__/mesh/core/src/timer.c.obj
                0x000000000002c360                timer_event_handler
 .text.timer_order_cb
                0x000000000002c430       0x9c CMakeFiles/light_switch_client_nrf52832_xxAA_s132_6.0.0.dir/__/__/__/mesh/core/src/timer.c.obj
                0x000000000002c430                timer_order_cb
 .text.timer_now
                0x000000000002c4cc       0x58 CMakeFiles/light_switch_client_nrf52832_xxAA_s132_6.0.0.dir/__/__/__/mesh/core/src/timer.c.obj
                0x000000000002c4cc                timer_now
 .text.timer_on_ts_begin
                0x000000000002c524      0x100 CMakeFiles/light_switch_client_nrf52832_xxAA_s132_6.0.0.dir/__/__/__/mesh/core/src/timer.c.obj
                0x000000000002c524                timer_on_ts_begin
 .text.timer_on_ts_end
                0x000000000002c624       0x78 CMakeFiles/light_switch_client_nrf52832_xxAA_s132_6.0.0.dir/__/__/__/mesh/core/src/timer.c.obj
                0x000000000002c624                timer_on_ts_end
 .text.timer_cb
                0x000000000002c69c       0x10 CMakeFiles/light_switch_client_nrf52832_xxAA_s132_6.0.0.dir/__/__/__/mesh/core/src/ticker.c.obj
 .text.ticker_init
                0x000000000002c6ac       0x3c CMakeFiles/light_switch_client_nrf52832_xxAA_s132_6.0.0.dir/__/__/__/mesh/core/src/ticker.c.obj
                0x000000000002c6ac                ticker_init
 .text.sd_rand_application_bytes_available_get
                0x000000000002c6e8        0x4 CMakeFiles/light_switch_client_nrf52832_xxAA_s132_6.0.0.dir/__/__/__/mesh/core/src/rand.c.obj
 .text.sd_rand_application_vector_get
                0x000000000002c6ec        0x4 CMakeFiles/light_switch_client_nrf52832_xxAA_s132_6.0.0.dir/__/__/__/mesh/core/src/rand.c.obj
 .text.rand_prng_seed
                0x000000000002c6f0       0x78 CMakeFiles/light_switch_client_nrf52832_xxAA_s132_6.0.0.dir/__/__/__/mesh/core/src/rand.c.obj
                0x000000000002c6f0                rand_prng_seed
 .text.rand_prng_get
                0x000000000002c768       0x28 CMakeFiles/light_switch_client_nrf52832_xxAA_s132_6.0.0.dir/__/__/__/mesh/core/src/rand.c.obj
                0x000000000002c768                rand_prng_get
 .text.rand_hw_rng_get
                0x000000000002c790       0x60 CMakeFiles/light_switch_client_nrf52832_xxAA_s132_6.0.0.dir/__/__/__/mesh/core/src/rand.c.obj
                0x000000000002c790                rand_hw_rng_get
 .text.nrf_mesh_opt_set
                0x000000000002c7f0       0x28 CMakeFiles/light_switch_client_nrf52832_xxAA_s132_6.0.0.dir/__/__/__/mesh/core/src/nrf_mesh_opt.c.obj
                0x000000000002c7f0                nrf_mesh_opt_set
 .text.nrf_mesh_opt_get
                0x000000000002c818       0x28 CMakeFiles/light_switch_client_nrf52832_xxAA_s132_6.0.0.dir/__/__/__/mesh/core/src/nrf_mesh_opt.c.obj
                0x000000000002c818                nrf_mesh_opt_get
 .text.sd_radio_session_open
                0x000000000002c840        0x4 CMakeFiles/light_switch_client_nrf52832_xxAA_s132_6.0.0.dir/__/__/__/mesh/core/src/timeslot.c.obj
 .text.sd_radio_session_close
                0x000000000002c844        0x4 CMakeFiles/light_switch_client_nrf52832_xxAA_s132_6.0.0.dir/__/__/__/mesh/core/src/timeslot.c.obj
 .text.sd_radio_request
                0x000000000002c848        0x4 CMakeFiles/light_switch_client_nrf52832_xxAA_s132_6.0.0.dir/__/__/__/mesh/core/src/timeslot.c.obj
 .text.end_timer_handler
                0x000000000002c84c       0x2c CMakeFiles/light_switch_client_nrf52832_xxAA_s132_6.0.0.dir/__/__/__/mesh/core/src/timeslot.c.obj
 .text.radio_signal_callback
                0x000000000002c878      0x2b4 CMakeFiles/light_switch_client_nrf52832_xxAA_s132_6.0.0.dir/__/__/__/mesh/core/src/timeslot.c.obj
 .text.timeslot_sd_event_handler
                0x000000000002cb2c       0x44 CMakeFiles/light_switch_client_nrf52832_xxAA_s132_6.0.0.dir/__/__/__/mesh/core/src/timeslot.c.obj
                0x000000000002cb2c                timeslot_sd_event_handler
 .text.timeslot_init
                0x000000000002cb70       0x4c CMakeFiles/light_switch_client_nrf52832_xxAA_s132_6.0.0.dir/__/__/__/mesh/core/src/timeslot.c.obj
                0x000000000002cb70                timeslot_init
 .text.timeslot_start
                0x000000000002cbbc       0x20 CMakeFiles/light_switch_client_nrf52832_xxAA_s132_6.0.0.dir/__/__/__/mesh/core/src/timeslot.c.obj
                0x000000000002cbbc                timeslot_start
 .text.timeslot_stop
                0x000000000002cbdc       0x30 CMakeFiles/light_switch_client_nrf52832_xxAA_s132_6.0.0.dir/__/__/__/mesh/core/src/timeslot.c.obj
                0x000000000002cbdc                timeslot_stop
 .text.timeslot_state_lock
                0x000000000002cc0c       0x44 CMakeFiles/light_switch_client_nrf52832_xxAA_s132_6.0.0.dir/__/__/__/mesh/core/src/timeslot.c.obj
                0x000000000002cc0c                timeslot_state_lock
 .text.timeslot_end_is_pending
                0x000000000002cc50       0x24 CMakeFiles/light_switch_client_nrf52832_xxAA_s132_6.0.0.dir/__/__/__/mesh/core/src/timeslot.c.obj
                0x000000000002cc50                timeslot_end_is_pending
 .text.timeslot_start_time_get
                0x000000000002cc74        0xc CMakeFiles/light_switch_client_nrf52832_xxAA_s132_6.0.0.dir/__/__/__/mesh/core/src/timeslot.c.obj
                0x000000000002cc74                timeslot_start_time_get
 .text.timeslot_remaining_time_get
                0x000000000002cc80       0x40 CMakeFiles/light_switch_client_nrf52832_xxAA_s132_6.0.0.dir/__/__/__/mesh/core/src/timeslot.c.obj
                0x000000000002cc80                timeslot_remaining_time_get
 .text.timeslot_is_in_cb
                0x000000000002ccc0        0xc CMakeFiles/light_switch_client_nrf52832_xxAA_s132_6.0.0.dir/__/__/__/mesh/core/src/timeslot.c.obj
                0x000000000002ccc0                timeslot_is_in_cb
 .text.timeslot_trigger
                0x000000000002cccc       0x24 CMakeFiles/light_switch_client_nrf52832_xxAA_s132_6.0.0.dir/__/__/__/mesh/core/src/timeslot.c.obj
                0x000000000002cccc                timeslot_trigger
 .text.bearer_event_init
                0x000000000002ccf0       0x4c CMakeFiles/light_switch_client_nrf52832_xxAA_s132_6.0.0.dir/__/__/__/mesh/core/src/bearer_event.c.obj
                0x000000000002ccf0                bearer_event_init
 .text.bearer_event_timer_post
                0x000000000002cd3c       0x50 CMakeFiles/light_switch_client_nrf52832_xxAA_s132_6.0.0.dir/__/__/__/mesh/core/src/bearer_event.c.obj
                0x000000000002cd3c                bearer_event_timer_post
 .text.bearer_event_critical_section_begin
                0x000000000002cd8c       0x44 CMakeFiles/light_switch_client_nrf52832_xxAA_s132_6.0.0.dir/__/__/__/mesh/core/src/bearer_event.c.obj
                0x000000000002cd8c                bearer_event_critical_section_begin
 .text.bearer_event_critical_section_end
                0x000000000002cdd0       0x40 CMakeFiles/light_switch_client_nrf52832_xxAA_s132_6.0.0.dir/__/__/__/mesh/core/src/bearer_event.c.obj
                0x000000000002cdd0                bearer_event_critical_section_end
 .text.bearer_event_flag_add
                0x000000000002ce10       0x40 CMakeFiles/light_switch_client_nrf52832_xxAA_s132_6.0.0.dir/__/__/__/mesh/core/src/bearer_event.c.obj
                0x000000000002ce10                bearer_event_flag_add
 .text.bearer_event_flag_set
                0x000000000002ce50       0x5c CMakeFiles/light_switch_client_nrf52832_xxAA_s132_6.0.0.dir/__/__/__/mesh/core/src/bearer_event.c.obj
                0x000000000002ce50                bearer_event_flag_set
 .text.bearer_event_sequential_add
                0x000000000002ceac       0x34 CMakeFiles/light_switch_client_nrf52832_xxAA_s132_6.0.0.dir/__/__/__/mesh/core/src/bearer_event.c.obj
                0x000000000002ceac                bearer_event_sequential_add
 .text.bearer_event_sequential_post
                0x000000000002cee0       0x64 CMakeFiles/light_switch_client_nrf52832_xxAA_s132_6.0.0.dir/__/__/__/mesh/core/src/bearer_event.c.obj
                0x000000000002cee0                bearer_event_sequential_post
 .text.bearer_event_sequential_pending
                0x000000000002cf44       0x14 CMakeFiles/light_switch_client_nrf52832_xxAA_s132_6.0.0.dir/__/__/__/mesh/core/src/bearer_event.c.obj
                0x000000000002cf44                bearer_event_sequential_pending
 .text.bearer_event_handler
                0x000000000002cf58      0x16c CMakeFiles/light_switch_client_nrf52832_xxAA_s132_6.0.0.dir/__/__/__/mesh/core/src/bearer_event.c.obj
                0x000000000002cf58                bearer_event_handler
 .text.QDEC_IRQHandler
                0x000000000002d0c4        0x4 CMakeFiles/light_switch_client_nrf52832_xxAA_s132_6.0.0.dir/__/__/__/mesh/core/src/bearer_event.c.obj
                0x000000000002d0c4                QDEC_IRQHandler
 .text.enc_aes_encrypt
                0x000000000002d0c8        0x4 CMakeFiles/light_switch_client_nrf52832_xxAA_s132_6.0.0.dir/__/__/__/mesh/core/src/enc.c.obj
                0x000000000002d0c8                enc_aes_encrypt
 .text.enc_aes_cmac
                0x000000000002d0cc        0x4 CMakeFiles/light_switch_client_nrf52832_xxAA_s132_6.0.0.dir/__/__/__/mesh/core/src/enc.c.obj
                0x000000000002d0cc                enc_aes_cmac
 .text.enc_aes_ccm_encrypt
                0x000000000002d0d0        0x4 CMakeFiles/light_switch_client_nrf52832_xxAA_s132_6.0.0.dir/__/__/__/mesh/core/src/enc.c.obj
                0x000000000002d0d0                enc_aes_ccm_encrypt
 .text.enc_aes_ccm_decrypt
                0x000000000002d0d4        0x4 CMakeFiles/light_switch_client_nrf52832_xxAA_s132_6.0.0.dir/__/__/__/mesh/core/src/enc.c.obj
                0x000000000002d0d4                enc_aes_ccm_decrypt
 .text.enc_nonce_generate
                0x000000000002d0d8       0xc8 CMakeFiles/light_switch_client_nrf52832_xxAA_s132_6.0.0.dir/__/__/__/mesh/core/src/enc.c.obj
                0x000000000002d0d8                enc_nonce_generate
 .text.enc_s1   0x000000000002d1a0       0x30 CMakeFiles/light_switch_client_nrf52832_xxAA_s132_6.0.0.dir/__/__/__/mesh/core/src/enc.c.obj
                0x000000000002d1a0                enc_s1
 .text.enc_k1   0x000000000002d1d0       0x40 CMakeFiles/light_switch_client_nrf52832_xxAA_s132_6.0.0.dir/__/__/__/mesh/core/src/enc.c.obj
                0x000000000002d1d0                enc_k1
 .text.enc_k2   0x000000000002d210       0xe0 CMakeFiles/light_switch_client_nrf52832_xxAA_s132_6.0.0.dir/__/__/__/mesh/core/src/enc.c.obj
                0x000000000002d210                enc_k2
 .text.enc_k3   0x000000000002d2f0       0x68 CMakeFiles/light_switch_client_nrf52832_xxAA_s132_6.0.0.dir/__/__/__/mesh/core/src/enc.c.obj
                0x000000000002d2f0                enc_k3
 .text.enc_k4   0x000000000002d358       0x60 CMakeFiles/light_switch_client_nrf52832_xxAA_s132_6.0.0.dir/__/__/__/mesh/core/src/enc.c.obj
                0x000000000002d358                enc_k4
 .text.network_init
                0x000000000002d3b8       0x28 CMakeFiles/light_switch_client_nrf52832_xxAA_s132_6.0.0.dir/__/__/__/mesh/core/src/network.c.obj
                0x000000000002d3b8                network_init
 .text.network_opt_set
                0x000000000002d3e0       0x84 CMakeFiles/light_switch_client_nrf52832_xxAA_s132_6.0.0.dir/__/__/__/mesh/core/src/network.c.obj
                0x000000000002d3e0                network_opt_set
 .text.network_opt_get
                0x000000000002d464       0x5c CMakeFiles/light_switch_client_nrf52832_xxAA_s132_6.0.0.dir/__/__/__/mesh/core/src/network.c.obj
                0x000000000002d464                network_opt_get
 .text.network_packet_alloc
                0x000000000002d4c0       0xa0 CMakeFiles/light_switch_client_nrf52832_xxAA_s132_6.0.0.dir/__/__/__/mesh/core/src/network.c.obj
                0x000000000002d4c0                network_packet_alloc
 .text.network_packet_send
                0x000000000002d560       0x58 CMakeFiles/light_switch_client_nrf52832_xxAA_s132_6.0.0.dir/__/__/__/mesh/core/src/network.c.obj
                0x000000000002d560                network_packet_send
 .text.network_packet_in
                0x000000000002d5b8      0x1c8 CMakeFiles/light_switch_client_nrf52832_xxAA_s132_6.0.0.dir/__/__/__/mesh/core/src/network.c.obj
                0x000000000002d5b8                network_packet_in
 .text.net_packet_decrypt
                0x000000000002d780      0x2bc CMakeFiles/light_switch_client_nrf52832_xxAA_s132_6.0.0.dir/__/__/__/mesh/core/src/net_packet.c.obj
                0x000000000002d780                net_packet_decrypt
 .text.net_packet_encrypt
                0x000000000002da3c      0x100 CMakeFiles/light_switch_client_nrf52832_xxAA_s132_6.0.0.dir/__/__/__/mesh/core/src/net_packet.c.obj
                0x000000000002da3c                net_packet_encrypt
 .text.net_packet_header_set
                0x000000000002db3c       0xc0 CMakeFiles/light_switch_client_nrf52832_xxAA_s132_6.0.0.dir/__/__/__/mesh/core/src/net_packet.c.obj
                0x000000000002db3c                net_packet_header_set
 .text.net_packet_payload_len_get
                0x000000000002dbfc       0x14 CMakeFiles/light_switch_client_nrf52832_xxAA_s132_6.0.0.dir/__/__/__/mesh/core/src/net_packet.c.obj
                0x000000000002dbfc                net_packet_payload_len_get
 .text.net_packet_from_payload
                0x000000000002dc10        0x4 CMakeFiles/light_switch_client_nrf52832_xxAA_s132_6.0.0.dir/__/__/__/mesh/core/src/net_packet.c.obj
                0x000000000002dc10                net_packet_from_payload
 .text.net_packet_obfuscation_start_get
                0x000000000002dc14        0x4 CMakeFiles/light_switch_client_nrf52832_xxAA_s132_6.0.0.dir/__/__/__/mesh/core/src/net_packet.c.obj
                0x000000000002dc14                net_packet_obfuscation_start_get
 .text.msq_init
                0x000000000002dc18       0x6c CMakeFiles/light_switch_client_nrf52832_xxAA_s132_6.0.0.dir/__/__/__/mesh/core/src/msqueue.c.obj
                0x000000000002dc18                msq_init
 .text.msq_get  0x000000000002dc84       0x54 CMakeFiles/light_switch_client_nrf52832_xxAA_s132_6.0.0.dir/__/__/__/mesh/core/src/msqueue.c.obj
                0x000000000002dc84                msq_get
 .text.msq_move
                0x000000000002dcd8       0x4c CMakeFiles/light_switch_client_nrf52832_xxAA_s132_6.0.0.dir/__/__/__/mesh/core/src/msqueue.c.obj
                0x000000000002dcd8                msq_move
 .text.msq_available
                0x000000000002dd24       0x44 CMakeFiles/light_switch_client_nrf52832_xxAA_s132_6.0.0.dir/__/__/__/mesh/core/src/msqueue.c.obj
                0x000000000002dd24                msq_available
 .text.nrf_mesh_keygen_aid
                0x000000000002dd68       0x18 CMakeFiles/light_switch_client_nrf52832_xxAA_s132_6.0.0.dir/__/__/__/mesh/core/src/nrf_mesh_keygen.c.obj
                0x000000000002dd68                nrf_mesh_keygen_aid
 .text.nrf_mesh_keygen_network_secmat
                0x000000000002dd80       0x24 CMakeFiles/light_switch_client_nrf52832_xxAA_s132_6.0.0.dir/__/__/__/mesh/core/src/nrf_mesh_keygen.c.obj
                0x000000000002dd80                nrf_mesh_keygen_network_secmat
 .text.nrf_mesh_keygen_beacon_secmat
                0x000000000002dda4       0x50 CMakeFiles/light_switch_client_nrf52832_xxAA_s132_6.0.0.dir/__/__/__/mesh/core/src/nrf_mesh_keygen.c.obj
                0x000000000002dda4                nrf_mesh_keygen_beacon_secmat
 .text.nrf_mesh_keygen_virtual_address
                0x000000000002ddf4       0x50 CMakeFiles/light_switch_client_nrf52832_xxAA_s132_6.0.0.dir/__/__/__/mesh/core/src/nrf_mesh_keygen.c.obj
                0x000000000002ddf4                nrf_mesh_keygen_virtual_address
 .text.list_add
                0x000000000002de44       0x64 CMakeFiles/light_switch_client_nrf52832_xxAA_s132_6.0.0.dir/__/__/__/mesh/core/src/list.c.obj
                0x000000000002de44                list_add
 .text.list_remove
                0x000000000002dea8       0x44 CMakeFiles/light_switch_client_nrf52832_xxAA_s132_6.0.0.dir/__/__/__/mesh/core/src/list.c.obj
                0x000000000002dea8                list_remove
 .text.list_compare_add
                0x000000000002deec       0x80 CMakeFiles/light_switch_client_nrf52832_xxAA_s132_6.0.0.dir/__/__/__/mesh/core/src/list.c.obj
                0x000000000002deec                list_compare_add
 .text.log_callback_rtt
                0x000000000002df6c       0x2c CMakeFiles/light_switch_client_nrf52832_xxAA_s132_6.0.0.dir/__/__/__/mesh/core/src/log.c.obj
                0x000000000002df6c                log_callback_rtt
 .text.log_init
                0x000000000002df98       0x20 CMakeFiles/light_switch_client_nrf52832_xxAA_s132_6.0.0.dir/__/__/__/mesh/core/src/log.c.obj
                0x000000000002df98                log_init
 .text.log_printf
                0x000000000002dfb8       0x20 CMakeFiles/light_switch_client_nrf52832_xxAA_s132_6.0.0.dir/__/__/__/mesh/core/src/log.c.obj
                0x000000000002dfb8                log_printf
 .text.process_action_queue
                0x000000000002dfd8      0x794 CMakeFiles/light_switch_client_nrf52832_xxAA_s132_6.0.0.dir/__/__/__/mesh/core/src/flash_manager.c.obj
 .text.flash_op_ended_callback
                0x000000000002e76c       0x24 CMakeFiles/light_switch_client_nrf52832_xxAA_s132_6.0.0.dir/__/__/__/mesh/core/src/flash_manager.c.obj
 .text.flash_manager_init
                0x000000000002e790       0x68 CMakeFiles/light_switch_client_nrf52832_xxAA_s132_6.0.0.dir/__/__/__/mesh/core/src/flash_manager.c.obj
                0x000000000002e790                flash_manager_init
 .text.flash_manager_remove
                0x000000000002e7f8       0x6c CMakeFiles/light_switch_client_nrf52832_xxAA_s132_6.0.0.dir/__/__/__/mesh/core/src/flash_manager.c.obj
                0x000000000002e7f8                flash_manager_remove
 .text.flash_manager_entry_get
                0x000000000002e864       0x48 CMakeFiles/light_switch_client_nrf52832_xxAA_s132_6.0.0.dir/__/__/__/mesh/core/src/flash_manager.c.obj
                0x000000000002e864                flash_manager_entry_get
 .text.flash_manager_entry_next_get
                0x000000000002e8ac      0x144 CMakeFiles/light_switch_client_nrf52832_xxAA_s132_6.0.0.dir/__/__/__/mesh/core/src/flash_manager.c.obj
                0x000000000002e8ac                flash_manager_entry_next_get
 .text.flash_manager_entry_alloc
                0x000000000002e9f0       0x80 CMakeFiles/light_switch_client_nrf52832_xxAA_s132_6.0.0.dir/__/__/__/mesh/core/src/flash_manager.c.obj
                0x000000000002e9f0                flash_manager_entry_alloc
 .text.flash_manager_entry_commit
                0x000000000002ea70       0x58 CMakeFiles/light_switch_client_nrf52832_xxAA_s132_6.0.0.dir/__/__/__/mesh/core/src/flash_manager.c.obj
                0x000000000002ea70                flash_manager_entry_commit
 .text.flash_manager_entry_invalidate
                0x000000000002eac8       0x98 CMakeFiles/light_switch_client_nrf52832_xxAA_s132_6.0.0.dir/__/__/__/mesh/core/src/flash_manager.c.obj
                0x000000000002eac8                flash_manager_entry_invalidate
 .text.flash_manager_add
                0x000000000002eb60      0x3f4 CMakeFiles/light_switch_client_nrf52832_xxAA_s132_6.0.0.dir/__/__/__/mesh/core/src/flash_manager.c.obj
                0x000000000002eb60                flash_manager_add
 .text.flash_manager_mem_listener_register
                0x000000000002ef54       0x38 CMakeFiles/light_switch_client_nrf52832_xxAA_s132_6.0.0.dir/__/__/__/mesh/core/src/flash_manager.c.obj
                0x000000000002ef54                flash_manager_mem_listener_register
 .text.flash_manager_is_stable
                0x000000000002ef8c       0x20 CMakeFiles/light_switch_client_nrf52832_xxAA_s132_6.0.0.dir/__/__/__/mesh/core/src/flash_manager.c.obj
                0x000000000002ef8c                flash_manager_is_stable
 .text.flash_manager_on_defrag_end
                0x000000000002efac       0x58 CMakeFiles/light_switch_client_nrf52832_xxAA_s132_6.0.0.dir/__/__/__/mesh/core/src/flash_manager.c.obj
                0x000000000002efac                flash_manager_on_defrag_end
 .text.flash_manager_recovery_page_get
                0x000000000002f004        0x4 CMakeFiles/light_switch_client_nrf52832_xxAA_s132_6.0.0.dir/__/__/__/mesh/core/src/flash_manager.c.obj
                0x000000000002f004                flash_manager_recovery_page_get
 .text.flash_manager_action_queue_empty_cb_set
                0x000000000002f008       0x20 CMakeFiles/light_switch_client_nrf52832_xxAA_s132_6.0.0.dir/__/__/__/mesh/core/src/flash_manager.c.obj
                0x000000000002f008                flash_manager_action_queue_empty_cb_set
 .text.ccm_soft_crypt.constprop.0
                0x000000000002f028      0x274 CMakeFiles/light_switch_client_nrf52832_xxAA_s132_6.0.0.dir/__/__/__/mesh/core/src/ccm_soft.c.obj
 .text.ccm_soft_authenticate
                0x000000000002f29c      0x308 CMakeFiles/light_switch_client_nrf52832_xxAA_s132_6.0.0.dir/__/__/__/mesh/core/src/ccm_soft.c.obj
 .text.ccm_soft_encrypt
                0x000000000002f5a4       0x7c CMakeFiles/light_switch_client_nrf52832_xxAA_s132_6.0.0.dir/__/__/__/mesh/core/src/ccm_soft.c.obj
                0x000000000002f5a4                ccm_soft_encrypt
 .text.ccm_soft_decrypt
                0x000000000002f620      0x114 CMakeFiles/light_switch_client_nrf52832_xxAA_s132_6.0.0.dir/__/__/__/mesh/core/src/ccm_soft.c.obj
                0x000000000002f620                ccm_soft_decrypt
 .text.replay_cache_init
                0x000000000002f734       0x20 CMakeFiles/light_switch_client_nrf52832_xxAA_s132_6.0.0.dir/__/__/__/mesh/core/src/replay_cache.c.obj
                0x000000000002f734                replay_cache_init
 .text.replay_cache_add
                0x000000000002f754       0x60 CMakeFiles/light_switch_client_nrf52832_xxAA_s132_6.0.0.dir/__/__/__/mesh/core/src/replay_cache.c.obj
                0x000000000002f754                replay_cache_add
 .text.replay_cache_has_elem
                0x000000000002f7b4       0x40 CMakeFiles/light_switch_client_nrf52832_xxAA_s132_6.0.0.dir/__/__/__/mesh/core/src/replay_cache.c.obj
                0x000000000002f7b4                replay_cache_has_elem
 .text.beacon_create
                0x000000000002f7f4       0x50 CMakeFiles/light_switch_client_nrf52832_xxAA_s132_6.0.0.dir/__/__/__/mesh/core/src/beacon.c.obj
                0x000000000002f7f4                beacon_create
 .text.beacon_packet_in
                0x000000000002f844      0x178 CMakeFiles/light_switch_client_nrf52832_xxAA_s132_6.0.0.dir/__/__/__/mesh/core/src/beacon.c.obj
                0x000000000002f844                beacon_packet_in
 .text.entry_get
                0x000000000002f9bc       0x7c CMakeFiles/light_switch_client_nrf52832_xxAA_s132_6.0.0.dir/__/__/__/mesh/core/src/flash_manager_internal.c.obj
                0x000000000002f9bc                entry_get
 .text.core_tx_complete_cb_set
                0x000000000002fa38        0xc CMakeFiles/light_switch_client_nrf52832_xxAA_s132_6.0.0.dir/__/__/__/mesh/core/src/core_tx.c.obj
                0x000000000002fa38                core_tx_complete_cb_set
 .text.core_tx_packet_alloc
                0x000000000002fa44       0xc0 CMakeFiles/light_switch_client_nrf52832_xxAA_s132_6.0.0.dir/__/__/__/mesh/core/src/core_tx.c.obj
                0x000000000002fa44                core_tx_packet_alloc
 .text.core_tx_packet_send
                0x000000000002fb04       0x5c CMakeFiles/light_switch_client_nrf52832_xxAA_s132_6.0.0.dir/__/__/__/mesh/core/src/core_tx.c.obj
                0x000000000002fb04                core_tx_packet_send
 .text.core_tx_packet_discard
                0x000000000002fb60       0x54 CMakeFiles/light_switch_client_nrf52832_xxAA_s132_6.0.0.dir/__/__/__/mesh/core/src/core_tx.c.obj
                0x000000000002fb60                core_tx_packet_discard
 .text.core_tx_complete
                0x000000000002fbb4       0x38 CMakeFiles/light_switch_client_nrf52832_xxAA_s132_6.0.0.dir/__/__/__/mesh/core/src/core_tx.c.obj
                0x000000000002fbb4                core_tx_complete
 .text.core_tx_bearer_add
                0x000000000002fbec       0x90 CMakeFiles/light_switch_client_nrf52832_xxAA_s132_6.0.0.dir/__/__/__/mesh/core/src/core_tx.c.obj
                0x000000000002fbec                core_tx_bearer_add
 .text.heartbeat_subscription_timer_cb
                0x000000000002fc7c       0x1c CMakeFiles/light_switch_client_nrf52832_xxAA_s132_6.0.0.dir/__/__/__/mesh/core/src/heartbeat.c.obj
 .text.heartbeat_opcode_handle
                0x000000000002fc98       0x8c CMakeFiles/light_switch_client_nrf52832_xxAA_s132_6.0.0.dir/__/__/__/mesh/core/src/heartbeat.c.obj
 .text.heartbeat_send
                0x000000000002fd24       0xbc CMakeFiles/light_switch_client_nrf52832_xxAA_s132_6.0.0.dir/__/__/__/mesh/core/src/heartbeat.c.obj
 .text.heartbeat_core_evt_cb
                0x000000000002fde0       0x94 CMakeFiles/light_switch_client_nrf52832_xxAA_s132_6.0.0.dir/__/__/__/mesh/core/src/heartbeat.c.obj
 .text.heartbeat_publication_timer_cb
                0x000000000002fe74       0xb0 CMakeFiles/light_switch_client_nrf52832_xxAA_s132_6.0.0.dir/__/__/__/mesh/core/src/heartbeat.c.obj
 .text.heartbeat_on_feature_change_trigger
                0x000000000002ff24       0x48 CMakeFiles/light_switch_client_nrf52832_xxAA_s132_6.0.0.dir/__/__/__/mesh/core/src/heartbeat.c.obj
                0x000000000002ff24                heartbeat_on_feature_change_trigger
 .text.heartbeat_init
                0x000000000002ff6c       0x7c CMakeFiles/light_switch_client_nrf52832_xxAA_s132_6.0.0.dir/__/__/__/mesh/core/src/heartbeat.c.obj
                0x000000000002ff6c                heartbeat_init
 .text.heartbeat_subscription_set
                0x000000000002ffe8       0xa4 CMakeFiles/light_switch_client_nrf52832_xxAA_s132_6.0.0.dir/__/__/__/mesh/core/src/heartbeat.c.obj
                0x000000000002ffe8                heartbeat_subscription_set
 .text.heartbeat_subscription_get
                0x000000000003008c        0x8 CMakeFiles/light_switch_client_nrf52832_xxAA_s132_6.0.0.dir/__/__/__/mesh/core/src/heartbeat.c.obj
                0x000000000003008c                heartbeat_subscription_get
 .text.heartbeat_config_server_cb_set
                0x0000000000030094       0x30 CMakeFiles/light_switch_client_nrf52832_xxAA_s132_6.0.0.dir/__/__/__/mesh/core/src/heartbeat.c.obj
                0x0000000000030094                heartbeat_config_server_cb_set
 .text.heartbeat_publication_state_updated
                0x00000000000300c4       0x78 CMakeFiles/light_switch_client_nrf52832_xxAA_s132_6.0.0.dir/__/__/__/mesh/core/src/heartbeat.c.obj
                0x00000000000300c4                heartbeat_publication_state_updated
 .text.beacon_tx
                0x000000000003013c      0x194 CMakeFiles/light_switch_client_nrf52832_xxAA_s132_6.0.0.dir/__/__/__/mesh/core/src/net_beacon.c.obj
 .text.tx_complete_cb
                0x00000000000302d0       0x10 CMakeFiles/light_switch_client_nrf52832_xxAA_s132_6.0.0.dir/__/__/__/mesh/core/src/net_beacon.c.obj
 .text.beacon_tx_timeout
                0x00000000000302e0        0x4 CMakeFiles/light_switch_client_nrf52832_xxAA_s132_6.0.0.dir/__/__/__/mesh/core/src/net_beacon.c.obj
 .text.net_beacon_init
                0x00000000000302e4       0x94 CMakeFiles/light_switch_client_nrf52832_xxAA_s132_6.0.0.dir/__/__/__/mesh/core/src/net_beacon.c.obj
                0x00000000000302e4                net_beacon_init
 .text.net_beacon_state_set
                0x0000000000030378       0x3c CMakeFiles/light_switch_client_nrf52832_xxAA_s132_6.0.0.dir/__/__/__/mesh/core/src/net_beacon.c.obj
                0x0000000000030378                net_beacon_state_set
 .text.net_beacon_state_get
                0x00000000000303b4        0xc CMakeFiles/light_switch_client_nrf52832_xxAA_s132_6.0.0.dir/__/__/__/mesh/core/src/net_beacon.c.obj
                0x00000000000303b4                net_beacon_state_get
 .text.net_beacon_packet_in
                0x00000000000303c0      0x134 CMakeFiles/light_switch_client_nrf52832_xxAA_s132_6.0.0.dir/__/__/__/mesh/core/src/net_beacon.c.obj
                0x00000000000303c0                net_beacon_packet_in
 .text.packet_discard
                0x00000000000304f4       0x40 CMakeFiles/light_switch_client_nrf52832_xxAA_s132_6.0.0.dir/__/__/__/mesh/core/src/core_tx_adv.c.obj
 .text.packet_send
                0x0000000000030534       0x58 CMakeFiles/light_switch_client_nrf52832_xxAA_s132_6.0.0.dir/__/__/__/mesh/core/src/core_tx_adv.c.obj
 .text.packet_alloc
                0x000000000003058c       0x5c CMakeFiles/light_switch_client_nrf52832_xxAA_s132_6.0.0.dir/__/__/__/mesh/core/src/core_tx_adv.c.obj
 .text.adv_tx_complete_callback
                0x00000000000305e8       0x28 CMakeFiles/light_switch_client_nrf52832_xxAA_s132_6.0.0.dir/__/__/__/mesh/core/src/core_tx_adv.c.obj
 .text.core_tx_adv_init
                0x0000000000030610       0x60 CMakeFiles/light_switch_client_nrf52832_xxAA_s132_6.0.0.dir/__/__/__/mesh/core/src/core_tx_adv.c.obj
                0x0000000000030610                core_tx_adv_init
 .text.core_tx_adv_count_set
                0x0000000000030670       0x2c CMakeFiles/light_switch_client_nrf52832_xxAA_s132_6.0.0.dir/__/__/__/mesh/core/src/core_tx_adv.c.obj
                0x0000000000030670                core_tx_adv_count_set
 .text.core_tx_adv_count_get
                0x000000000003069c       0x20 CMakeFiles/light_switch_client_nrf52832_xxAA_s132_6.0.0.dir/__/__/__/mesh/core/src/core_tx_adv.c.obj
                0x000000000003069c                core_tx_adv_count_get
 .text.core_tx_adv_interval_set
                0x00000000000306bc       0x28 CMakeFiles/light_switch_client_nrf52832_xxAA_s132_6.0.0.dir/__/__/__/mesh/core/src/core_tx_adv.c.obj
                0x00000000000306bc                core_tx_adv_interval_set
 .text.core_tx_adv_interval_get
                0x00000000000306e4       0x2c CMakeFiles/light_switch_client_nrf52832_xxAA_s132_6.0.0.dir/__/__/__/mesh/core/src/core_tx_adv.c.obj
                0x00000000000306e4                core_tx_adv_interval_get
 .text.ad_listener_subscribe
                0x0000000000030710       0x60 CMakeFiles/light_switch_client_nrf52832_xxAA_s132_6.0.0.dir/__/__/__/mesh/bearer/src/ad_listener.c.obj
                0x0000000000030710                ad_listener_subscribe
 .text.ad_listener_process
                0x0000000000030770       0x84 CMakeFiles/light_switch_client_nrf52832_xxAA_s132_6.0.0.dir/__/__/__/mesh/bearer/src/ad_listener.c.obj
                0x0000000000030770                ad_listener_process
 .text.adtype_filter_handle
                0x00000000000307f4       0x94 CMakeFiles/light_switch_client_nrf52832_xxAA_s132_6.0.0.dir/__/__/__/mesh/bearer/src/ad_type_filter.c.obj
 .text.bearer_adtype_filtering_set
                0x0000000000030888       0x1c CMakeFiles/light_switch_client_nrf52832_xxAA_s132_6.0.0.dir/__/__/__/mesh/bearer/src/ad_type_filter.c.obj
                0x0000000000030888                bearer_adtype_filtering_set
 .text.bearer_adtype_add
                0x00000000000308a4       0x24 CMakeFiles/light_switch_client_nrf52832_xxAA_s132_6.0.0.dir/__/__/__/mesh/bearer/src/ad_type_filter.c.obj
                0x00000000000308a4                bearer_adtype_add
 .text.bearer_adtype_mode_set
                0x00000000000308c8       0x18 CMakeFiles/light_switch_client_nrf52832_xxAA_s132_6.0.0.dir/__/__/__/mesh/bearer/src/ad_type_filter.c.obj
                0x00000000000308c8                bearer_adtype_mode_set
 .text.tx_complete_event_callback
                0x00000000000308e0       0x34 CMakeFiles/light_switch_client_nrf52832_xxAA_s132_6.0.0.dir/__/__/__/mesh/bearer/src/advertiser.c.obj
 .text.broadcast_complete_cb
                0x0000000000030914       0x48 CMakeFiles/light_switch_client_nrf52832_xxAA_s132_6.0.0.dir/__/__/__/mesh/bearer/src/advertiser.c.obj
 .text.timeout_event
                0x000000000003095c      0x12c CMakeFiles/light_switch_client_nrf52832_xxAA_s132_6.0.0.dir/__/__/__/mesh/bearer/src/advertiser.c.obj
 .text.advertiser_init
                0x0000000000030a88        0xc CMakeFiles/light_switch_client_nrf52832_xxAA_s132_6.0.0.dir/__/__/__/mesh/bearer/src/advertiser.c.obj
                0x0000000000030a88                advertiser_init
 .text.advertiser_instance_init
                0x0000000000030a94      0x100 CMakeFiles/light_switch_client_nrf52832_xxAA_s132_6.0.0.dir/__/__/__/mesh/bearer/src/advertiser.c.obj
                0x0000000000030a94                advertiser_instance_init
 .text.advertiser_enable
                0x0000000000030b94       0x44 CMakeFiles/light_switch_client_nrf52832_xxAA_s132_6.0.0.dir/__/__/__/mesh/bearer/src/advertiser.c.obj
                0x0000000000030b94                advertiser_enable
 .text.advertiser_packet_alloc
                0x0000000000030bd8       0x80 CMakeFiles/light_switch_client_nrf52832_xxAA_s132_6.0.0.dir/__/__/__/mesh/bearer/src/advertiser.c.obj
                0x0000000000030bd8                advertiser_packet_alloc
 .text.advertiser_packet_send
                0x0000000000030c58       0x84 CMakeFiles/light_switch_client_nrf52832_xxAA_s132_6.0.0.dir/__/__/__/mesh/bearer/src/advertiser.c.obj
                0x0000000000030c58                advertiser_packet_send
 .text.advertiser_packet_discard
                0x0000000000030cdc       0x2c CMakeFiles/light_switch_client_nrf52832_xxAA_s132_6.0.0.dir/__/__/__/mesh/bearer/src/advertiser.c.obj
                0x0000000000030cdc                advertiser_packet_discard
 .text.advertiser_interval_set
                0x0000000000030d08       0x6c CMakeFiles/light_switch_client_nrf52832_xxAA_s132_6.0.0.dir/__/__/__/mesh/bearer/src/advertiser.c.obj
                0x0000000000030d08                advertiser_interval_set
 .text.advertiser_flush
                0x0000000000030d74       0x20 CMakeFiles/light_switch_client_nrf52832_xxAA_s132_6.0.0.dir/__/__/__/mesh/bearer/src/advertiser.c.obj
                0x0000000000030d74                advertiser_flush
 .text.action_switch.part.2
                0x0000000000030d94       0xb4 CMakeFiles/light_switch_client_nrf52832_xxAA_s132_6.0.0.dir/__/__/__/mesh/bearer/src/bearer_handler.c.obj
 .text.bearer_handler_init
                0x0000000000030e48       0x2c CMakeFiles/light_switch_client_nrf52832_xxAA_s132_6.0.0.dir/__/__/__/mesh/bearer/src/bearer_handler.c.obj
                0x0000000000030e48                bearer_handler_init
 .text.bearer_handler_start
                0x0000000000030e74       0x1c CMakeFiles/light_switch_client_nrf52832_xxAA_s132_6.0.0.dir/__/__/__/mesh/bearer/src/bearer_handler.c.obj
                0x0000000000030e74                bearer_handler_start
 .text.bearer_handler_action_enqueue
                0x0000000000030e90       0x88 CMakeFiles/light_switch_client_nrf52832_xxAA_s132_6.0.0.dir/__/__/__/mesh/bearer/src/bearer_handler.c.obj
                0x0000000000030e90                bearer_handler_action_enqueue
 .text.bearer_handler_action_end
                0x0000000000030f18       0x68 CMakeFiles/light_switch_client_nrf52832_xxAA_s132_6.0.0.dir/__/__/__/mesh/bearer/src/bearer_handler.c.obj
                0x0000000000030f18                bearer_handler_action_end
 .text.bearer_handler_radio_irq_handler
                0x0000000000030f80       0x58 CMakeFiles/light_switch_client_nrf52832_xxAA_s132_6.0.0.dir/__/__/__/mesh/bearer/src/bearer_handler.c.obj
                0x0000000000030f80                bearer_handler_radio_irq_handler
 .text.bearer_handler_timer_irq_handler
                0x0000000000030fd8       0x34 CMakeFiles/light_switch_client_nrf52832_xxAA_s132_6.0.0.dir/__/__/__/mesh/bearer/src/bearer_handler.c.obj
                0x0000000000030fd8                bearer_handler_timer_irq_handler
 .text.bearer_handler_on_ts_begin
                0x000000000003100c       0x3c CMakeFiles/light_switch_client_nrf52832_xxAA_s132_6.0.0.dir/__/__/__/mesh/bearer/src/bearer_handler.c.obj
                0x000000000003100c                bearer_handler_on_ts_begin
 .text.bearer_handler_on_ts_end
                0x0000000000031048       0x38 CMakeFiles/light_switch_client_nrf52832_xxAA_s132_6.0.0.dir/__/__/__/mesh/bearer/src/bearer_handler.c.obj
                0x0000000000031048                bearer_handler_on_ts_end
 .text.radio_irq_handler
                0x0000000000031080       0x98 CMakeFiles/light_switch_client_nrf52832_xxAA_s132_6.0.0.dir/__/__/__/mesh/bearer/src/broadcast.c.obj
 .text.broadcast_start
                0x0000000000031118       0x8c CMakeFiles/light_switch_client_nrf52832_xxAA_s132_6.0.0.dir/__/__/__/mesh/bearer/src/broadcast.c.obj
 .text.broadcast_send
                0x00000000000311a4       0x74 CMakeFiles/light_switch_client_nrf52832_xxAA_s132_6.0.0.dir/__/__/__/mesh/bearer/src/broadcast.c.obj
                0x00000000000311a4                broadcast_send
 .text.fen_filter_start
                0x0000000000031218       0x38 CMakeFiles/light_switch_client_nrf52832_xxAA_s132_6.0.0.dir/__/__/__/mesh/bearer/src/filter_engine.c.obj
                0x0000000000031218                fen_filter_start
 .text.fen_filter_stop
                0x0000000000031250       0x2c CMakeFiles/light_switch_client_nrf52832_xxAA_s132_6.0.0.dir/__/__/__/mesh/bearer/src/filter_engine.c.obj
                0x0000000000031250                fen_filter_stop
 .text.fen_filters_apply
                0x000000000003127c       0x34 CMakeFiles/light_switch_client_nrf52832_xxAA_s132_6.0.0.dir/__/__/__/mesh/bearer/src/filter_engine.c.obj
                0x000000000003127c                fen_filters_apply
 .text.radio_config_reset
                0x00000000000312b0       0x38 CMakeFiles/light_switch_client_nrf52832_xxAA_s132_6.0.0.dir/__/__/__/mesh/bearer/src/radio_config.c.obj
                0x00000000000312b0                radio_config_reset
 .text.radio_config_channel_set
                0x00000000000312e8       0x28 CMakeFiles/light_switch_client_nrf52832_xxAA_s132_6.0.0.dir/__/__/__/mesh/bearer/src/radio_config.c.obj
                0x00000000000312e8                radio_config_channel_set
 .text.radio_config_config
                0x0000000000031310       0x94 CMakeFiles/light_switch_client_nrf52832_xxAA_s132_6.0.0.dir/__/__/__/mesh/bearer/src/radio_config.c.obj
                0x0000000000031310                radio_config_config
 .text.radio_config_access_addr_set
                0x00000000000313a4       0x58 CMakeFiles/light_switch_client_nrf52832_xxAA_s132_6.0.0.dir/__/__/__/mesh/bearer/src/radio_config.c.obj
                0x00000000000313a4                radio_config_access_addr_set
 .text.scan_window_end
                0x00000000000313fc       0x28 CMakeFiles/light_switch_client_nrf52832_xxAA_s132_6.0.0.dir/__/__/__/mesh/bearer/src/scanner.c.obj
 .text.scan_window_start
                0x0000000000031424       0x38 CMakeFiles/light_switch_client_nrf52832_xxAA_s132_6.0.0.dir/__/__/__/mesh/bearer/src/scanner.c.obj
 .text.radio_start
                0x000000000003145c      0x1a8 CMakeFiles/light_switch_client_nrf52832_xxAA_s132_6.0.0.dir/__/__/__/mesh/bearer/src/scanner.c.obj
 .text.scanner_radio_start
                0x0000000000031604      0x14c CMakeFiles/light_switch_client_nrf52832_xxAA_s132_6.0.0.dir/__/__/__/mesh/bearer/src/scanner.c.obj
                0x0000000000031604                scanner_radio_start
 .text.scanner_radio_stop
                0x0000000000031750       0x34 CMakeFiles/light_switch_client_nrf52832_xxAA_s132_6.0.0.dir/__/__/__/mesh/bearer/src/scanner.c.obj
                0x0000000000031750                scanner_radio_stop
 .text.scanner_radio_irq_handler
                0x0000000000031784      0x200 CMakeFiles/light_switch_client_nrf52832_xxAA_s132_6.0.0.dir/__/__/__/mesh/bearer/src/scanner.c.obj
                0x0000000000031784                scanner_radio_irq_handler
 .text.scanner_enable
                0x0000000000031984       0x50 CMakeFiles/light_switch_client_nrf52832_xxAA_s132_6.0.0.dir/__/__/__/mesh/bearer/src/scanner.c.obj
                0x0000000000031984                scanner_enable
 .text.scanner_rx
                0x00000000000319d4       0x8c CMakeFiles/light_switch_client_nrf52832_xxAA_s132_6.0.0.dir/__/__/__/mesh/bearer/src/scanner.c.obj
                0x00000000000319d4                scanner_rx
 .text.scanner_packet_release
                0x0000000000031a60       0x40 CMakeFiles/light_switch_client_nrf52832_xxAA_s132_6.0.0.dir/__/__/__/mesh/bearer/src/scanner.c.obj
                0x0000000000031a60                scanner_packet_release
 .text.scanner_rx_pending
                0x0000000000031aa0        0xc CMakeFiles/light_switch_client_nrf52832_xxAA_s132_6.0.0.dir/__/__/__/mesh/bearer/src/scanner.c.obj
                0x0000000000031aa0                scanner_rx_pending
 .text.scanner_config_reset
                0x0000000000031aac       0xa4 CMakeFiles/light_switch_client_nrf52832_xxAA_s132_6.0.0.dir/__/__/__/mesh/bearer/src/scanner.c.obj
                0x0000000000031aac                scanner_config_reset
 .text.scanner_init
                0x0000000000031b50       0x54 CMakeFiles/light_switch_client_nrf52832_xxAA_s132_6.0.0.dir/__/__/__/mesh/bearer/src/scanner.c.obj
                0x0000000000031b50                scanner_init
 .text.handle_publish_timeout
                0x0000000000031ba4        0x8 CMakeFiles/light_switch_client_nrf52832_xxAA_s132_6.0.0.dir/__/__/__/models/simple_on_off/src/simple_on_off_client.c.obj
 .text.reliable_status_cb
                0x0000000000031bac       0x7c CMakeFiles/light_switch_client_nrf52832_xxAA_s132_6.0.0.dir/__/__/__/models/simple_on_off/src/simple_on_off_client.c.obj
 .text.handle_status_cb
                0x0000000000031c28       0x58 CMakeFiles/light_switch_client_nrf52832_xxAA_s132_6.0.0.dir/__/__/__/models/simple_on_off/src/simple_on_off_client.c.obj
 .text.simple_on_off_client_init
                0x0000000000031c80       0x40 CMakeFiles/light_switch_client_nrf52832_xxAA_s132_6.0.0.dir/__/__/__/models/simple_on_off/src/simple_on_off_client.c.obj
                0x0000000000031c80                simple_on_off_client_init
 .text.simple_on_off_client_set
                0x0000000000031cc0       0x74 CMakeFiles/light_switch_client_nrf52832_xxAA_s132_6.0.0.dir/__/__/__/models/simple_on_off/src/simple_on_off_client.c.obj
                0x0000000000031cc0                simple_on_off_client_set
 .text.simple_on_off_client_set_unreliable
                0x0000000000031d34       0x5c CMakeFiles/light_switch_client_nrf52832_xxAA_s132_6.0.0.dir/__/__/__/models/simple_on_off/src/simple_on_off_client.c.obj
                0x0000000000031d34                simple_on_off_client_set_unreliable
 .text.config_composition_data_get
                0x0000000000031d90      0x1dc CMakeFiles/light_switch_client_nrf52832_xxAA_s132_6.0.0.dir/__/__/__/models/config/src/composition_data.c.obj
                0x0000000000031d90                config_composition_data_get
 .text.config_server_heartbeat_publication_count_decrement
                0x0000000000031f6c       0x1c CMakeFiles/light_switch_client_nrf52832_xxAA_s132_6.0.0.dir/__/__/__/models/config/src/config_server.c.obj
 .text.config_server_heartbeat_publication_params_get
                0x0000000000031f88       0x38 CMakeFiles/light_switch_client_nrf52832_xxAA_s132_6.0.0.dir/__/__/__/models/config/src/config_server.c.obj
 .text.handle_config_network_transmit_set
                0x0000000000031fc0      0x118 CMakeFiles/light_switch_client_nrf52832_xxAA_s132_6.0.0.dir/__/__/__/models/config/src/config_server.c.obj
 .text.handle_node_reset
                0x00000000000320d8       0x30 CMakeFiles/light_switch_client_nrf52832_xxAA_s132_6.0.0.dir/__/__/__/models/config/src/config_server.c.obj
 .text.handle_config_relay_set
                0x0000000000032108      0x1a8 CMakeFiles/light_switch_client_nrf52832_xxAA_s132_6.0.0.dir/__/__/__/models/config/src/config_server.c.obj
 .text.handle_netkey_get
                0x00000000000322b0       0x70 CMakeFiles/light_switch_client_nrf52832_xxAA_s132_6.0.0.dir/__/__/__/models/config/src/config_server.c.obj
 .text.handle_model_app_bind_unbind
                0x0000000000032320      0x234 CMakeFiles/light_switch_client_nrf52832_xxAA_s132_6.0.0.dir/__/__/__/models/config/src/config_server.c.obj
 .text.status_error_sub_send
                0x0000000000032554      0x180 CMakeFiles/light_switch_client_nrf52832_xxAA_s132_6.0.0.dir/__/__/__/models/config/src/config_server.c.obj
 .text.send_publication_status
                0x00000000000326d4      0x1a8 CMakeFiles/light_switch_client_nrf52832_xxAA_s132_6.0.0.dir/__/__/__/models/config/src/config_server.c.obj
 .text.handle_config_key_refresh_phase_set
                0x000000000003287c       0xf0 CMakeFiles/light_switch_client_nrf52832_xxAA_s132_6.0.0.dir/__/__/__/models/config/src/config_server.c.obj
 .text.handle_config_default_ttl_set
                0x000000000003296c       0x70 CMakeFiles/light_switch_client_nrf52832_xxAA_s132_6.0.0.dir/__/__/__/models/config/src/config_server.c.obj
 .text.handle_heartbeat_publication_set
                0x00000000000329dc      0x168 CMakeFiles/light_switch_client_nrf52832_xxAA_s132_6.0.0.dir/__/__/__/models/config/src/config_server.c.obj
 .text.mesh_event_cb
                0x0000000000032b44       0x70 CMakeFiles/light_switch_client_nrf52832_xxAA_s132_6.0.0.dir/__/__/__/models/config/src/config_server.c.obj
 .text.handle_node_identity_set
                0x0000000000032bb4       0x48 CMakeFiles/light_switch_client_nrf52832_xxAA_s132_6.0.0.dir/__/__/__/models/config/src/config_server.c.obj
 .text.handle_node_identity_get
                0x0000000000032bfc       0x44 CMakeFiles/light_switch_client_nrf52832_xxAA_s132_6.0.0.dir/__/__/__/models/config/src/config_server.c.obj
 .text.handle_config_gatt_proxy_set
                0x0000000000032c40       0x40 CMakeFiles/light_switch_client_nrf52832_xxAA_s132_6.0.0.dir/__/__/__/models/config/src/config_server.c.obj
 .text.handle_config_friend_set
                0x0000000000032c80       0x40 CMakeFiles/light_switch_client_nrf52832_xxAA_s132_6.0.0.dir/__/__/__/models/config/src/config_server.c.obj
 .text.status_error_pub_send
                0x0000000000032cc0       0xc8 CMakeFiles/light_switch_client_nrf52832_xxAA_s132_6.0.0.dir/__/__/__/models/config/src/config_server.c.obj
 .text.handle_config_key_refresh_phase_get
                0x0000000000032d88       0x70 CMakeFiles/light_switch_client_nrf52832_xxAA_s132_6.0.0.dir/__/__/__/models/config/src/config_server.c.obj
 .text.handle_config_default_ttl_get
                0x0000000000032df8       0x48 CMakeFiles/light_switch_client_nrf52832_xxAA_s132_6.0.0.dir/__/__/__/models/config/src/config_server.c.obj
 .text.handle_config_beacon_set
                0x0000000000032e40       0x80 CMakeFiles/light_switch_client_nrf52832_xxAA_s132_6.0.0.dir/__/__/__/models/config/src/config_server.c.obj
 .text.handle_composition_data_get
                0x0000000000032ec0       0x64 CMakeFiles/light_switch_client_nrf52832_xxAA_s132_6.0.0.dir/__/__/__/models/config/src/config_server.c.obj
 .text.handle_appkey_update
                0x0000000000032f24      0x108 CMakeFiles/light_switch_client_nrf52832_xxAA_s132_6.0.0.dir/__/__/__/models/config/src/config_server.c.obj
 .text.handle_model_app_get
                0x000000000003302c      0x22c CMakeFiles/light_switch_client_nrf52832_xxAA_s132_6.0.0.dir/__/__/__/models/config/src/config_server.c.obj
 .text.handle_appkey_get
                0x0000000000033258      0x104 CMakeFiles/light_switch_client_nrf52832_xxAA_s132_6.0.0.dir/__/__/__/models/config/src/config_server.c.obj
 .text.handle_heartbeat_subscription_get
                0x000000000003335c       0xdc CMakeFiles/light_switch_client_nrf52832_xxAA_s132_6.0.0.dir/__/__/__/models/config/src/config_server.c.obj
 .text.handle_config_friend_get
                0x0000000000033438       0x38 CMakeFiles/light_switch_client_nrf52832_xxAA_s132_6.0.0.dir/__/__/__/models/config/src/config_server.c.obj
 .text.handle_config_gatt_proxy_get
                0x0000000000033470       0x38 CMakeFiles/light_switch_client_nrf52832_xxAA_s132_6.0.0.dir/__/__/__/models/config/src/config_server.c.obj
 .text.handle_heartbeat_subscription_set
                0x00000000000334a8      0x114 CMakeFiles/light_switch_client_nrf52832_xxAA_s132_6.0.0.dir/__/__/__/models/config/src/config_server.c.obj
 .text.handle_heartbeat_publication_get
                0x00000000000335bc       0xcc CMakeFiles/light_switch_client_nrf52832_xxAA_s132_6.0.0.dir/__/__/__/models/config/src/config_server.c.obj
 .text.handle_config_beacon_get
                0x0000000000033688       0x40 CMakeFiles/light_switch_client_nrf52832_xxAA_s132_6.0.0.dir/__/__/__/models/config/src/config_server.c.obj
 .text.handle_appkey_delete
                0x00000000000336c8      0x11c CMakeFiles/light_switch_client_nrf52832_xxAA_s132_6.0.0.dir/__/__/__/models/config/src/config_server.c.obj
 .text.handle_appkey_add
                0x00000000000337e4      0x124 CMakeFiles/light_switch_client_nrf52832_xxAA_s132_6.0.0.dir/__/__/__/models/config/src/config_server.c.obj
 .text.handle_config_vendor_model_subscription_get
                0x0000000000033908      0x18c CMakeFiles/light_switch_client_nrf52832_xxAA_s132_6.0.0.dir/__/__/__/models/config/src/config_server.c.obj
 .text.handle_netkey_add_update
                0x0000000000033a94       0xec CMakeFiles/light_switch_client_nrf52832_xxAA_s132_6.0.0.dir/__/__/__/models/config/src/config_server.c.obj
 .text.handle_netkey_delete
                0x0000000000033b80      0x118 CMakeFiles/light_switch_client_nrf52832_xxAA_s132_6.0.0.dir/__/__/__/models/config/src/config_server.c.obj
 .text.handle_config_network_transmit_get
                0x0000000000033c98       0x94 CMakeFiles/light_switch_client_nrf52832_xxAA_s132_6.0.0.dir/__/__/__/models/config/src/config_server.c.obj
 .text.handle_config_model_publication_get
                0x0000000000033d2c      0x150 CMakeFiles/light_switch_client_nrf52832_xxAA_s132_6.0.0.dir/__/__/__/models/config/src/config_server.c.obj
 .text.handle_config_relay_get
                0x0000000000033e7c       0xcc CMakeFiles/light_switch_client_nrf52832_xxAA_s132_6.0.0.dir/__/__/__/models/config/src/config_server.c.obj
 .text.handle_config_model_publication_set
                0x0000000000033f48      0x3d4 CMakeFiles/light_switch_client_nrf52832_xxAA_s132_6.0.0.dir/__/__/__/models/config/src/config_server.c.obj
 .text.handle_config_model_subscription_delete_all
                0x000000000003431c      0x2fc CMakeFiles/light_switch_client_nrf52832_xxAA_s132_6.0.0.dir/__/__/__/models/config/src/config_server.c.obj
 .text.handle_config_model_subscription_virtual_address_delete
                0x0000000000034618      0x2f0 CMakeFiles/light_switch_client_nrf52832_xxAA_s132_6.0.0.dir/__/__/__/models/config/src/config_server.c.obj
 .text.handle_config_model_subscription_virtual_address_add
                0x0000000000034908      0x2cc CMakeFiles/light_switch_client_nrf52832_xxAA_s132_6.0.0.dir/__/__/__/models/config/src/config_server.c.obj
 .text.handle_config_model_subscription_delete
                0x0000000000034bd4      0x2e4 CMakeFiles/light_switch_client_nrf52832_xxAA_s132_6.0.0.dir/__/__/__/models/config/src/config_server.c.obj
 .text.handle_config_model_subscription_add
                0x0000000000034eb8      0x2e4 CMakeFiles/light_switch_client_nrf52832_xxAA_s132_6.0.0.dir/__/__/__/models/config/src/config_server.c.obj
 .text.handle_config_model_subscription_virtual_address_overwrite
                0x000000000003519c      0x374 CMakeFiles/light_switch_client_nrf52832_xxAA_s132_6.0.0.dir/__/__/__/models/config/src/config_server.c.obj
 .text.handle_config_model_subscription_overwrite
                0x0000000000035510      0x370 CMakeFiles/light_switch_client_nrf52832_xxAA_s132_6.0.0.dir/__/__/__/models/config/src/config_server.c.obj
 .text.handle_config_sig_model_subscription_get
                0x0000000000035880      0x2a4 CMakeFiles/light_switch_client_nrf52832_xxAA_s132_6.0.0.dir/__/__/__/models/config/src/config_server.c.obj
 .text.config_server_init
                0x0000000000035b24       0x70 CMakeFiles/light_switch_client_nrf52832_xxAA_s132_6.0.0.dir/__/__/__/models/config/src/config_server.c.obj
                0x0000000000035b24                config_server_init
 .text.config_server_bind
                0x0000000000035b94       0x10 CMakeFiles/light_switch_client_nrf52832_xxAA_s132_6.0.0.dir/__/__/__/models/config/src/config_server.c.obj
                0x0000000000035b94                config_server_bind
 .text.packed_index_list_create
                0x0000000000035ba4       0x3c CMakeFiles/light_switch_client_nrf52832_xxAA_s132_6.0.0.dir/__/__/__/models/config/src/packed_index_list.c.obj
                0x0000000000035ba4                packed_index_list_create
 .text.attention_timer_handler
                0x0000000000035be0       0x6c CMakeFiles/light_switch_client_nrf52832_xxAA_s132_6.0.0.dir/__/__/__/models/health/src/health_server.c.obj
 .text.handle_attention_get
                0x0000000000035c4c       0x40 CMakeFiles/light_switch_client_nrf52832_xxAA_s132_6.0.0.dir/__/__/__/models/health/src/health_server.c.obj
 .text.handle_period_get
                0x0000000000035c8c       0x3c CMakeFiles/light_switch_client_nrf52832_xxAA_s132_6.0.0.dir/__/__/__/models/health/src/health_server.c.obj
 .text.handle_attention_set
                0x0000000000035cc8       0xdc CMakeFiles/light_switch_client_nrf52832_xxAA_s132_6.0.0.dir/__/__/__/models/health/src/health_server.c.obj
 .text.handle_period_set
                0x0000000000035da4       0x54 CMakeFiles/light_switch_client_nrf52832_xxAA_s132_6.0.0.dir/__/__/__/models/health/src/health_server.c.obj
 .text.send_fault_status
                0x0000000000035df8      0x3b4 CMakeFiles/light_switch_client_nrf52832_xxAA_s132_6.0.0.dir/__/__/__/models/health/src/health_server.c.obj
 .text.health_publish_timeout_handler
                0x00000000000361ac        0xc CMakeFiles/light_switch_client_nrf52832_xxAA_s132_6.0.0.dir/__/__/__/models/health/src/health_server.c.obj
 .text.handle_fault_test
                0x00000000000361b8       0x8c CMakeFiles/light_switch_client_nrf52832_xxAA_s132_6.0.0.dir/__/__/__/models/health/src/health_server.c.obj
 .text.handle_fault_clear
                0x0000000000036244       0x54 CMakeFiles/light_switch_client_nrf52832_xxAA_s132_6.0.0.dir/__/__/__/models/health/src/health_server.c.obj
 .text.handle_fault_get
                0x0000000000036298       0x40 CMakeFiles/light_switch_client_nrf52832_xxAA_s132_6.0.0.dir/__/__/__/models/health/src/health_server.c.obj
 .text.health_server_init
                0x00000000000362d8       0x68 CMakeFiles/light_switch_client_nrf52832_xxAA_s132_6.0.0.dir/__/__/__/models/health/src/health_server.c.obj
                0x00000000000362d8                health_server_init
 .text.schedule_publication_timer
                0x0000000000036340      0x2d0 CMakeFiles/light_switch_client_nrf52832_xxAA_s132_6.0.0.dir/__/__/__/mesh/access/src/access_publish.c.obj
 .text.publish_timer_tick
                0x0000000000036610      0x140 CMakeFiles/light_switch_client_nrf52832_xxAA_s132_6.0.0.dir/__/__/__/mesh/access/src/access_publish.c.obj
 .text.access_publish_init
                0x0000000000036750       0x38 CMakeFiles/light_switch_client_nrf52832_xxAA_s132_6.0.0.dir/__/__/__/mesh/access/src/access_publish.c.obj
                0x0000000000036750                access_publish_init
 .text.access_publish_period_set
                0x0000000000036788      0x118 CMakeFiles/light_switch_client_nrf52832_xxAA_s132_6.0.0.dir/__/__/__/mesh/access/src/access_publish.c.obj
                0x0000000000036788                access_publish_period_set
 .text.access_publish_period_get
                0x00000000000368a0       0x2c CMakeFiles/light_switch_client_nrf52832_xxAA_s132_6.0.0.dir/__/__/__/mesh/access/src/access_publish.c.obj
                0x00000000000368a0                access_publish_period_get
 .text.flash_manager_mem_available
                0x00000000000368cc        0x4 CMakeFiles/light_switch_client_nrf52832_xxAA_s132_6.0.0.dir/__/__/__/mesh/access/src/access.c.obj
 .text.flash_invalidate_complete
                0x00000000000368d0        0x8 CMakeFiles/light_switch_client_nrf52832_xxAA_s132_6.0.0.dir/__/__/__/mesh/access/src/access.c.obj
 .text.access_flash_config_clear
                0x00000000000368d8       0x28 CMakeFiles/light_switch_client_nrf52832_xxAA_s132_6.0.0.dir/__/__/__/mesh/access/src/access.c.obj
 .text.access_flash_config_store
                0x0000000000036900      0x43c CMakeFiles/light_switch_client_nrf52832_xxAA_s132_6.0.0.dir/__/__/__/mesh/access/src/access.c.obj
                0x0000000000036900                access_flash_config_store
 .text.handle_incoming
                0x0000000000036d3c      0x198 CMakeFiles/light_switch_client_nrf52832_xxAA_s132_6.0.0.dir/__/__/__/mesh/access/src/access.c.obj
 .text.mesh_evt_cb
                0x0000000000036ed4      0x158 CMakeFiles/light_switch_client_nrf52832_xxAA_s132_6.0.0.dir/__/__/__/mesh/access/src/access.c.obj
 .text.add_flash_manager
                0x000000000003702c       0x58 CMakeFiles/light_switch_client_nrf52832_xxAA_s132_6.0.0.dir/__/__/__/mesh/access/src/access.c.obj
 .text.flash_write_complete
                0x0000000000037084       0x4c CMakeFiles/light_switch_client_nrf52832_xxAA_s132_6.0.0.dir/__/__/__/mesh/access/src/access.c.obj
 .text.flash_remove_complete
                0x00000000000370d0      0x158 CMakeFiles/light_switch_client_nrf52832_xxAA_s132_6.0.0.dir/__/__/__/mesh/access/src/access.c.obj
 .text.access_flash_config_load
                0x0000000000037228      0x2d0 CMakeFiles/light_switch_client_nrf52832_xxAA_s132_6.0.0.dir/__/__/__/mesh/access/src/access.c.obj
                0x0000000000037228                access_flash_config_load
 .text.access_clear
                0x00000000000374f8       0x88 CMakeFiles/light_switch_client_nrf52832_xxAA_s132_6.0.0.dir/__/__/__/mesh/access/src/access.c.obj
                0x00000000000374f8                access_clear
 .text.access_init
                0x0000000000037580       0xd0 CMakeFiles/light_switch_client_nrf52832_xxAA_s132_6.0.0.dir/__/__/__/mesh/access/src/access.c.obj
                0x0000000000037580                access_init
 .text.access_model_add
                0x0000000000037650      0x2ec CMakeFiles/light_switch_client_nrf52832_xxAA_s132_6.0.0.dir/__/__/__/mesh/access/src/access.c.obj
                0x0000000000037650                access_model_add
 .text.access_model_publish
                0x000000000003793c      0x3c8 CMakeFiles/light_switch_client_nrf52832_xxAA_s132_6.0.0.dir/__/__/__/mesh/access/src/access.c.obj
                0x000000000003793c                access_model_publish
 .text.access_model_reply
                0x0000000000037d04      0x3e4 CMakeFiles/light_switch_client_nrf52832_xxAA_s132_6.0.0.dir/__/__/__/mesh/access/src/access.c.obj
                0x0000000000037d04                access_model_reply
 .text.access_model_publish_address_set
                0x00000000000380e8       0x3c CMakeFiles/light_switch_client_nrf52832_xxAA_s132_6.0.0.dir/__/__/__/mesh/access/src/access.c.obj
                0x00000000000380e8                access_model_publish_address_set
 .text.access_model_publish_address_get
                0x0000000000038124       0x2c CMakeFiles/light_switch_client_nrf52832_xxAA_s132_6.0.0.dir/__/__/__/mesh/access/src/access.c.obj
                0x0000000000038124                access_model_publish_address_get
 .text.access_model_publish_retransmit_set
                0x0000000000038150       0x58 CMakeFiles/light_switch_client_nrf52832_xxAA_s132_6.0.0.dir/__/__/__/mesh/access/src/access.c.obj
                0x0000000000038150                access_model_publish_retransmit_set
 .text.access_model_publish_retransmit_get
                0x00000000000381a8       0x2c CMakeFiles/light_switch_client_nrf52832_xxAA_s132_6.0.0.dir/__/__/__/mesh/access/src/access.c.obj
                0x00000000000381a8                access_model_publish_retransmit_get
 .text.access_model_publish_period_set
                0x00000000000381d4       0x78 CMakeFiles/light_switch_client_nrf52832_xxAA_s132_6.0.0.dir/__/__/__/mesh/access/src/access.c.obj
                0x00000000000381d4                access_model_publish_period_set
 .text.access_model_publish_period_get
                0x000000000003824c       0x40 CMakeFiles/light_switch_client_nrf52832_xxAA_s132_6.0.0.dir/__/__/__/mesh/access/src/access.c.obj
                0x000000000003824c                access_model_publish_period_get
 .text.access_model_subscription_list_alloc
                0x000000000003828c       0x84 CMakeFiles/light_switch_client_nrf52832_xxAA_s132_6.0.0.dir/__/__/__/mesh/access/src/access.c.obj
                0x000000000003828c                access_model_subscription_list_alloc
 .text.access_model_subscription_add
                0x0000000000038310       0x64 CMakeFiles/light_switch_client_nrf52832_xxAA_s132_6.0.0.dir/__/__/__/mesh/access/src/access.c.obj
                0x0000000000038310                access_model_subscription_add
 .text.access_model_subscription_remove
                0x0000000000038374       0x60 CMakeFiles/light_switch_client_nrf52832_xxAA_s132_6.0.0.dir/__/__/__/mesh/access/src/access.c.obj
                0x0000000000038374                access_model_subscription_remove
 .text.access_model_subscriptions_get
                0x00000000000383d4      0x1d8 CMakeFiles/light_switch_client_nrf52832_xxAA_s132_6.0.0.dir/__/__/__/mesh/access/src/access.c.obj
                0x00000000000383d4                access_model_subscriptions_get
 .text.access_model_application_bind
                0x00000000000385ac       0x5c CMakeFiles/light_switch_client_nrf52832_xxAA_s132_6.0.0.dir/__/__/__/mesh/access/src/access.c.obj
                0x00000000000385ac                access_model_application_bind
 .text.access_model_application_unbind
                0x0000000000038608       0x58 CMakeFiles/light_switch_client_nrf52832_xxAA_s132_6.0.0.dir/__/__/__/mesh/access/src/access.c.obj
                0x0000000000038608                access_model_application_unbind
 .text.access_model_applications_get
                0x0000000000038660       0x54 CMakeFiles/light_switch_client_nrf52832_xxAA_s132_6.0.0.dir/__/__/__/mesh/access/src/access.c.obj
                0x0000000000038660                access_model_applications_get
 .text.access_model_publish_application_set
                0x00000000000386b4       0x3c CMakeFiles/light_switch_client_nrf52832_xxAA_s132_6.0.0.dir/__/__/__/mesh/access/src/access.c.obj
                0x00000000000386b4                access_model_publish_application_set
 .text.access_model_publish_application_get
                0x00000000000386f0       0x2c CMakeFiles/light_switch_client_nrf52832_xxAA_s132_6.0.0.dir/__/__/__/mesh/access/src/access.c.obj
                0x00000000000386f0                access_model_publish_application_get
 .text.access_default_ttl_set
                0x000000000003871c       0x1c CMakeFiles/light_switch_client_nrf52832_xxAA_s132_6.0.0.dir/__/__/__/mesh/access/src/access.c.obj
                0x000000000003871c                access_default_ttl_set
 .text.access_default_ttl_get
                0x0000000000038738        0xc CMakeFiles/light_switch_client_nrf52832_xxAA_s132_6.0.0.dir/__/__/__/mesh/access/src/access.c.obj
                0x0000000000038738                access_default_ttl_get
 .text.access_model_publish_ttl_set
                0x0000000000038744       0x40 CMakeFiles/light_switch_client_nrf52832_xxAA_s132_6.0.0.dir/__/__/__/mesh/access/src/access.c.obj
                0x0000000000038744                access_model_publish_ttl_set
 .text.access_model_publish_ttl_get
                0x0000000000038784       0x2c CMakeFiles/light_switch_client_nrf52832_xxAA_s132_6.0.0.dir/__/__/__/mesh/access/src/access.c.obj
                0x0000000000038784                access_model_publish_ttl_get
 .text.access_element_location_get
                0x00000000000387b0       0x24 CMakeFiles/light_switch_client_nrf52832_xxAA_s132_6.0.0.dir/__/__/__/mesh/access/src/access.c.obj
                0x00000000000387b0                access_element_location_get
 .text.access_element_sig_model_count_get
                0x00000000000387d4       0x24 CMakeFiles/light_switch_client_nrf52832_xxAA_s132_6.0.0.dir/__/__/__/mesh/access/src/access.c.obj
                0x00000000000387d4                access_element_sig_model_count_get
 .text.access_element_vendor_model_count_get
                0x00000000000387f8       0x24 CMakeFiles/light_switch_client_nrf52832_xxAA_s132_6.0.0.dir/__/__/__/mesh/access/src/access.c.obj
                0x00000000000387f8                access_element_vendor_model_count_get
 .text.access_model_id_get
                0x000000000003881c       0x40 CMakeFiles/light_switch_client_nrf52832_xxAA_s132_6.0.0.dir/__/__/__/mesh/access/src/access.c.obj
                0x000000000003881c                access_model_id_get
 .text.access_handle_get
                0x000000000003885c       0xd8 CMakeFiles/light_switch_client_nrf52832_xxAA_s132_6.0.0.dir/__/__/__/mesh/access/src/access.c.obj
                0x000000000003885c                access_handle_get
 .text.access_element_models_get
                0x0000000000038934       0xf8 CMakeFiles/light_switch_client_nrf52832_xxAA_s132_6.0.0.dir/__/__/__/mesh/access/src/access.c.obj
                0x0000000000038934                access_element_models_get
 .text.access_model_p_args_get
                0x0000000000038a2c       0x2c CMakeFiles/light_switch_client_nrf52832_xxAA_s132_6.0.0.dir/__/__/__/mesh/access/src/access.c.obj
                0x0000000000038a2c                access_model_p_args_get
 .text.access_model_publication_stop
                0x0000000000038a58       0x5c CMakeFiles/light_switch_client_nrf52832_xxAA_s132_6.0.0.dir/__/__/__/mesh/access/src/access.c.obj
                0x0000000000038a58                access_model_publication_stop
 .text.access_model_publication_by_appkey_stop
                0x0000000000038ab4      0x1b8 CMakeFiles/light_switch_client_nrf52832_xxAA_s132_6.0.0.dir/__/__/__/mesh/access/src/access.c.obj
                0x0000000000038ab4                access_model_publication_by_appkey_stop
 .text.remove_and_reschedule
                0x0000000000038c6c      0x12c CMakeFiles/light_switch_client_nrf52832_xxAA_s132_6.0.0.dir/__/__/__/mesh/access/src/access_reliable.c.obj
 .text.reliable_timer_cb
                0x0000000000038d98      0x128 CMakeFiles/light_switch_client_nrf52832_xxAA_s132_6.0.0.dir/__/__/__/mesh/access/src/access_reliable.c.obj
 .text.access_reliable_message_rx_cb
                0x0000000000038ec0       0xb4 CMakeFiles/light_switch_client_nrf52832_xxAA_s132_6.0.0.dir/__/__/__/mesh/access/src/access_reliable.c.obj
                0x0000000000038ec0                access_reliable_message_rx_cb
 .text.access_reliable_init
                0x0000000000038f74       0x20 CMakeFiles/light_switch_client_nrf52832_xxAA_s132_6.0.0.dir/__/__/__/mesh/access/src/access_reliable.c.obj
                0x0000000000038f74                access_reliable_init
 .text.access_reliable_cancel_all
                0x0000000000038f94      0x1b4 CMakeFiles/light_switch_client_nrf52832_xxAA_s132_6.0.0.dir/__/__/__/mesh/access/src/access_reliable.c.obj
                0x0000000000038f94                access_reliable_cancel_all
 .text.access_model_reliable_cancel
                0x0000000000039148       0xbc CMakeFiles/light_switch_client_nrf52832_xxAA_s132_6.0.0.dir/__/__/__/mesh/access/src/access_reliable.c.obj
                0x0000000000039148                access_model_reliable_cancel
 .text.access_model_reliable_publish
                0x0000000000039204      0x2c4 CMakeFiles/light_switch_client_nrf52832_xxAA_s132_6.0.0.dir/__/__/__/mesh/access/src/access_reliable.c.obj
                0x0000000000039204                access_model_reliable_publish
 .text.addr_nonvirtual_to_dsm_entry
                0x00000000000394c8       0x48 CMakeFiles/light_switch_client_nrf52832_xxAA_s132_6.0.0.dir/__/__/__/mesh/access/src/device_state_manager.c.obj
 .text.addr_nonvirtual_to_flash_entry
                0x0000000000039510       0x10 CMakeFiles/light_switch_client_nrf52832_xxAA_s132_6.0.0.dir/__/__/__/mesh/access/src/device_state_manager.c.obj
 .text.devkey_to_flash_entry
                0x0000000000039520       0x28 CMakeFiles/light_switch_client_nrf52832_xxAA_s132_6.0.0.dir/__/__/__/mesh/access/src/device_state_manager.c.obj
 .text.addr_virtual_to_flash_entry
                0x0000000000039548       0x18 CMakeFiles/light_switch_client_nrf52832_xxAA_s132_6.0.0.dir/__/__/__/mesh/access/src/device_state_manager.c.obj
 .text.addr_unicast_to_dsm_entry
                0x0000000000039560        0xc CMakeFiles/light_switch_client_nrf52832_xxAA_s132_6.0.0.dir/__/__/__/mesh/access/src/device_state_manager.c.obj
 .text.addr_unicast_to_flash_entry
                0x000000000003956c       0x10 CMakeFiles/light_switch_client_nrf52832_xxAA_s132_6.0.0.dir/__/__/__/mesh/access/src/device_state_manager.c.obj
 .text.flash_mem_listener_callback
                0x000000000003957c       0x1c CMakeFiles/light_switch_client_nrf52832_xxAA_s132_6.0.0.dir/__/__/__/mesh/access/src/device_state_manager.c.obj
 .text.appkey_to_flash_entry
                0x0000000000039598       0x54 CMakeFiles/light_switch_client_nrf52832_xxAA_s132_6.0.0.dir/__/__/__/mesh/access/src/device_state_manager.c.obj
 .text.subnet_to_flash_entry
                0x00000000000395ec       0x60 CMakeFiles/light_switch_client_nrf52832_xxAA_s132_6.0.0.dir/__/__/__/mesh/access/src/device_state_manager.c.obj
 .text.reset_flash_area
                0x000000000003964c       0x28 CMakeFiles/light_switch_client_nrf52832_xxAA_s132_6.0.0.dir/__/__/__/mesh/access/src/device_state_manager.c.obj
 .text.build_flash_area
                0x0000000000039674       0x90 CMakeFiles/light_switch_client_nrf52832_xxAA_s132_6.0.0.dir/__/__/__/mesh/access/src/device_state_manager.c.obj
 .text.flash_invalidate_complete
                0x0000000000039704       0x54 CMakeFiles/light_switch_client_nrf52832_xxAA_s132_6.0.0.dir/__/__/__/mesh/access/src/device_state_manager.c.obj
 .text.flash_write_complete
                0x0000000000039758       0x50 CMakeFiles/light_switch_client_nrf52832_xxAA_s132_6.0.0.dir/__/__/__/mesh/access/src/device_state_manager.c.obj
 .text.devkey_to_dsm_entry
                0x00000000000397a8       0x70 CMakeFiles/light_switch_client_nrf52832_xxAA_s132_6.0.0.dir/__/__/__/mesh/access/src/device_state_manager.c.obj
 .text.addr_virtual_to_dsm_entry
                0x0000000000039818       0x60 CMakeFiles/light_switch_client_nrf52832_xxAA_s132_6.0.0.dir/__/__/__/mesh/access/src/device_state_manager.c.obj
 .text.appkey_to_dsm_entry
                0x0000000000039878       0xf4 CMakeFiles/light_switch_client_nrf52832_xxAA_s132_6.0.0.dir/__/__/__/mesh/access/src/device_state_manager.c.obj
 .text.address_delete_if_unused
                0x000000000003996c       0xd8 CMakeFiles/light_switch_client_nrf52832_xxAA_s132_6.0.0.dir/__/__/__/mesh/access/src/device_state_manager.c.obj
 .text.subnet_to_dsm_entry
                0x0000000000039a44      0x11c CMakeFiles/light_switch_client_nrf52832_xxAA_s132_6.0.0.dir/__/__/__/mesh/access/src/device_state_manager.c.obj
 .text.flash_remove_complete
                0x0000000000039b60       0x90 CMakeFiles/light_switch_client_nrf52832_xxAA_s132_6.0.0.dir/__/__/__/mesh/access/src/device_state_manager.c.obj
 .text.flash_update_all
                0x0000000000039bf0      0x184 CMakeFiles/light_switch_client_nrf52832_xxAA_s132_6.0.0.dir/__/__/__/mesh/access/src/device_state_manager.c.obj
 .text.dsm_flash_config_load
                0x0000000000039d74      0x1f8 CMakeFiles/light_switch_client_nrf52832_xxAA_s132_6.0.0.dir/__/__/__/mesh/access/src/device_state_manager.c.obj
                0x0000000000039d74                dsm_flash_config_load
 .text.dsm_flash_area_get
                0x0000000000039f6c        0xc CMakeFiles/light_switch_client_nrf52832_xxAA_s132_6.0.0.dir/__/__/__/mesh/access/src/device_state_manager.c.obj
                0x0000000000039f6c                dsm_flash_area_get
 .text.dsm_clear
                0x0000000000039f78       0xd8 CMakeFiles/light_switch_client_nrf52832_xxAA_s132_6.0.0.dir/__/__/__/mesh/access/src/device_state_manager.c.obj
                0x0000000000039f78                dsm_clear
 .text.dsm_init
                0x000000000003a050       0xb8 CMakeFiles/light_switch_client_nrf52832_xxAA_s132_6.0.0.dir/__/__/__/mesh/access/src/device_state_manager.c.obj
                0x000000000003a050                dsm_init
 .text.dsm_local_unicast_addresses_set
                0x000000000003a108       0xbc CMakeFiles/light_switch_client_nrf52832_xxAA_s132_6.0.0.dir/__/__/__/mesh/access/src/device_state_manager.c.obj
                0x000000000003a108                dsm_local_unicast_addresses_set
 .text.dsm_local_unicast_addresses_get
                0x000000000003a1c4       0x20 CMakeFiles/light_switch_client_nrf52832_xxAA_s132_6.0.0.dir/__/__/__/mesh/access/src/device_state_manager.c.obj
                0x000000000003a1c4                dsm_local_unicast_addresses_get
 .text.dsm_address_publish_add
                0x000000000003a1e4      0x19c CMakeFiles/light_switch_client_nrf52832_xxAA_s132_6.0.0.dir/__/__/__/mesh/access/src/device_state_manager.c.obj
                0x000000000003a1e4                dsm_address_publish_add
 .text.dsm_address_publish_add_handle
                0x000000000003a380       0x4c CMakeFiles/light_switch_client_nrf52832_xxAA_s132_6.0.0.dir/__/__/__/mesh/access/src/device_state_manager.c.obj
                0x000000000003a380                dsm_address_publish_add_handle
 .text.dsm_address_publish_virtual_add
                0x000000000003a3cc       0xc4 CMakeFiles/light_switch_client_nrf52832_xxAA_s132_6.0.0.dir/__/__/__/mesh/access/src/device_state_manager.c.obj
                0x000000000003a3cc                dsm_address_publish_virtual_add
 .text.dsm_address_publish_remove
                0x000000000003a490       0xe4 CMakeFiles/light_switch_client_nrf52832_xxAA_s132_6.0.0.dir/__/__/__/mesh/access/src/device_state_manager.c.obj
                0x000000000003a490                dsm_address_publish_remove
 .text.dsm_address_subscription_add
                0x000000000003a574      0x1c8 CMakeFiles/light_switch_client_nrf52832_xxAA_s132_6.0.0.dir/__/__/__/mesh/access/src/device_state_manager.c.obj
                0x000000000003a574                dsm_address_subscription_add
 .text.dsm_address_subscription_virtual_add
                0x000000000003a73c       0xc4 CMakeFiles/light_switch_client_nrf52832_xxAA_s132_6.0.0.dir/__/__/__/mesh/access/src/device_state_manager.c.obj
                0x000000000003a73c                dsm_address_subscription_virtual_add
 .text.dsm_address_subscription_add_handle
                0x000000000003a800       0x4c CMakeFiles/light_switch_client_nrf52832_xxAA_s132_6.0.0.dir/__/__/__/mesh/access/src/device_state_manager.c.obj
                0x000000000003a800                dsm_address_subscription_add_handle
 .text.dsm_address_subscription_get
                0x000000000003a84c       0x50 CMakeFiles/light_switch_client_nrf52832_xxAA_s132_6.0.0.dir/__/__/__/mesh/access/src/device_state_manager.c.obj
                0x000000000003a84c                dsm_address_subscription_get
 .text.dsm_address_subscription_remove
                0x000000000003a89c       0x84 CMakeFiles/light_switch_client_nrf52832_xxAA_s132_6.0.0.dir/__/__/__/mesh/access/src/device_state_manager.c.obj
                0x000000000003a89c                dsm_address_subscription_remove
 .text.dsm_address_get
                0x000000000003a920       0x68 CMakeFiles/light_switch_client_nrf52832_xxAA_s132_6.0.0.dir/__/__/__/mesh/access/src/device_state_manager.c.obj
                0x000000000003a920                dsm_address_get
 .text.dsm_address_handle_get
                0x000000000003a988      0x150 CMakeFiles/light_switch_client_nrf52832_xxAA_s132_6.0.0.dir/__/__/__/mesh/access/src/device_state_manager.c.obj
                0x000000000003a988                dsm_address_handle_get
 .text.dsm_net_key_index_to_subnet_handle
                0x000000000003aad8       0x28 CMakeFiles/light_switch_client_nrf52832_xxAA_s132_6.0.0.dir/__/__/__/mesh/access/src/device_state_manager.c.obj
                0x000000000003aad8                dsm_net_key_index_to_subnet_handle
 .text.dsm_subnet_handle_get
                0x000000000003ab00       0x3c CMakeFiles/light_switch_client_nrf52832_xxAA_s132_6.0.0.dir/__/__/__/mesh/access/src/device_state_manager.c.obj
                0x000000000003ab00                dsm_subnet_handle_get
 .text.dsm_appkey_index_to_appkey_handle
                0x000000000003ab3c       0x28 CMakeFiles/light_switch_client_nrf52832_xxAA_s132_6.0.0.dir/__/__/__/mesh/access/src/device_state_manager.c.obj
                0x000000000003ab3c                dsm_appkey_index_to_appkey_handle
 .text.dsm_appkey_handle_get
                0x000000000003ab64       0x2c CMakeFiles/light_switch_client_nrf52832_xxAA_s132_6.0.0.dir/__/__/__/mesh/access/src/device_state_manager.c.obj
                0x000000000003ab64                dsm_appkey_handle_get
 .text.dsm_appkey_handle_to_appkey_index
                0x000000000003ab90       0x24 CMakeFiles/light_switch_client_nrf52832_xxAA_s132_6.0.0.dir/__/__/__/mesh/access/src/device_state_manager.c.obj
                0x000000000003ab90                dsm_appkey_handle_to_appkey_index
 .text.dsm_appkey_handle_to_subnet_handle
                0x000000000003abb4       0x78 CMakeFiles/light_switch_client_nrf52832_xxAA_s132_6.0.0.dir/__/__/__/mesh/access/src/device_state_manager.c.obj
                0x000000000003abb4                dsm_appkey_handle_to_subnet_handle
 .text.dsm_subnet_add
                0x000000000003ac2c      0x15c CMakeFiles/light_switch_client_nrf52832_xxAA_s132_6.0.0.dir/__/__/__/mesh/access/src/device_state_manager.c.obj
                0x000000000003ac2c                dsm_subnet_add
 .text.dsm_subnet_kr_phase_get
                0x000000000003ad88       0x20 CMakeFiles/light_switch_client_nrf52832_xxAA_s132_6.0.0.dir/__/__/__/mesh/access/src/device_state_manager.c.obj
                0x000000000003ad88                dsm_subnet_kr_phase_get
 .text.dsm_subnet_update
                0x000000000003ada8       0xe4 CMakeFiles/light_switch_client_nrf52832_xxAA_s132_6.0.0.dir/__/__/__/mesh/access/src/device_state_manager.c.obj
                0x000000000003ada8                dsm_subnet_update
 .text.dsm_subnet_update_swap_keys
                0x000000000003ae8c       0x94 CMakeFiles/light_switch_client_nrf52832_xxAA_s132_6.0.0.dir/__/__/__/mesh/access/src/device_state_manager.c.obj
                0x000000000003ae8c                dsm_subnet_update_swap_keys
 .text.dsm_subnet_update_commit
                0x000000000003af20      0x138 CMakeFiles/light_switch_client_nrf52832_xxAA_s132_6.0.0.dir/__/__/__/mesh/access/src/device_state_manager.c.obj
                0x000000000003af20                dsm_subnet_update_commit
 .text.mesh_evt_handler
                0x000000000003b058       0xc4 CMakeFiles/light_switch_client_nrf52832_xxAA_s132_6.0.0.dir/__/__/__/mesh/access/src/device_state_manager.c.obj
 .text.dsm_subnet_delete
                0x000000000003b11c       0xe8 CMakeFiles/light_switch_client_nrf52832_xxAA_s132_6.0.0.dir/__/__/__/mesh/access/src/device_state_manager.c.obj
                0x000000000003b11c                dsm_subnet_delete
 .text.dsm_subnet_get_all
                0x000000000003b204       0x40 CMakeFiles/light_switch_client_nrf52832_xxAA_s132_6.0.0.dir/__/__/__/mesh/access/src/device_state_manager.c.obj
                0x000000000003b204                dsm_subnet_get_all
 .text.dsm_devkey_add
                0x000000000003b244       0xf8 CMakeFiles/light_switch_client_nrf52832_xxAA_s132_6.0.0.dir/__/__/__/mesh/access/src/device_state_manager.c.obj
                0x000000000003b244                dsm_devkey_add
 .text.dsm_appkey_add
                0x000000000003b33c      0x134 CMakeFiles/light_switch_client_nrf52832_xxAA_s132_6.0.0.dir/__/__/__/mesh/access/src/device_state_manager.c.obj
                0x000000000003b33c                dsm_appkey_add
 .text.dsm_appkey_update
                0x000000000003b470       0xd8 CMakeFiles/light_switch_client_nrf52832_xxAA_s132_6.0.0.dir/__/__/__/mesh/access/src/device_state_manager.c.obj
                0x000000000003b470                dsm_appkey_update
 .text.dsm_appkey_delete
                0x000000000003b548       0x60 CMakeFiles/light_switch_client_nrf52832_xxAA_s132_6.0.0.dir/__/__/__/mesh/access/src/device_state_manager.c.obj
                0x000000000003b548                dsm_appkey_delete
 .text.dsm_appkey_get_all
                0x000000000003b5a8       0x58 CMakeFiles/light_switch_client_nrf52832_xxAA_s132_6.0.0.dir/__/__/__/mesh/access/src/device_state_manager.c.obj
                0x000000000003b5a8                dsm_appkey_get_all
 .text.dsm_tx_secmat_get
                0x000000000003b600       0xa4 CMakeFiles/light_switch_client_nrf52832_xxAA_s132_6.0.0.dir/__/__/__/mesh/access/src/device_state_manager.c.obj
                0x000000000003b600                dsm_tx_secmat_get
 .text.dsm_net_secmat_from_keyindex_get
                0x000000000003b6a4       0x30 CMakeFiles/light_switch_client_nrf52832_xxAA_s132_6.0.0.dir/__/__/__/mesh/access/src/device_state_manager.c.obj
                0x000000000003b6a4                dsm_net_secmat_from_keyindex_get
 .text.nrf_mesh_net_secmat_next_get
                0x000000000003b6d4       0x80 CMakeFiles/light_switch_client_nrf52832_xxAA_s132_6.0.0.dir/__/__/__/mesh/access/src/device_state_manager.c.obj
                0x000000000003b6d4                nrf_mesh_net_secmat_next_get
 .text.nrf_mesh_app_secmat_next_get
                0x000000000003b754       0x80 CMakeFiles/light_switch_client_nrf52832_xxAA_s132_6.0.0.dir/__/__/__/mesh/access/src/device_state_manager.c.obj
                0x000000000003b754                nrf_mesh_app_secmat_next_get
 .text.nrf_mesh_devkey_secmat_get
                0x000000000003b7d4       0x30 CMakeFiles/light_switch_client_nrf52832_xxAA_s132_6.0.0.dir/__/__/__/mesh/access/src/device_state_manager.c.obj
                0x000000000003b7d4                nrf_mesh_devkey_secmat_get
 .text.nrf_mesh_beacon_info_next_get
                0x000000000003b804       0xb0 CMakeFiles/light_switch_client_nrf52832_xxAA_s132_6.0.0.dir/__/__/__/mesh/access/src/device_state_manager.c.obj
                0x000000000003b804                nrf_mesh_beacon_info_next_get
 .text.nrf_mesh_rx_address_get
                0x000000000003b8b4      0x178 CMakeFiles/light_switch_client_nrf52832_xxAA_s132_6.0.0.dir/__/__/__/mesh/access/src/device_state_manager.c.obj
                0x000000000003b8b4                nrf_mesh_rx_address_get
 .text.nrf_mesh_unicast_address_get
                0x000000000003ba2c       0x24 CMakeFiles/light_switch_client_nrf52832_xxAA_s132_6.0.0.dir/__/__/__/mesh/access/src/device_state_manager.c.obj
                0x000000000003ba2c                nrf_mesh_unicast_address_get
 .text.prov_provisionee_cb_link_established
                0x000000000003ba50       0x40 CMakeFiles/light_switch_client_nrf52832_xxAA_s132_6.0.0.dir/__/__/__/mesh/prov/src/prov_provisionee.c.obj
 .text.prov_provisionee_cb_link_closed
                0x000000000003ba90       0x50 CMakeFiles/light_switch_client_nrf52832_xxAA_s132_6.0.0.dir/__/__/__/mesh/prov/src/prov_provisionee.c.obj
 .text.request_authentication
                0x000000000003bae0       0x90 CMakeFiles/light_switch_client_nrf52832_xxAA_s132_6.0.0.dir/__/__/__/mesh/prov/src/prov_provisionee.c.obj
 .text.send_failed
                0x000000000003bb70       0x38 CMakeFiles/light_switch_client_nrf52832_xxAA_s132_6.0.0.dir/__/__/__/mesh/prov/src/prov_provisionee.c.obj
 .text.prov_provisionee_cb_ack_received
                0x000000000003bba8      0x174 CMakeFiles/light_switch_client_nrf52832_xxAA_s132_6.0.0.dir/__/__/__/mesh/prov/src/prov_provisionee.c.obj
 .text.prov_provisionee_pkt_in
                0x000000000003bd1c      0x428 CMakeFiles/light_switch_client_nrf52832_xxAA_s132_6.0.0.dir/__/__/__/mesh/prov/src/prov_provisionee.c.obj
 .text.prov_provisionee_listen
                0x000000000003c144       0x34 CMakeFiles/light_switch_client_nrf52832_xxAA_s132_6.0.0.dir/__/__/__/mesh/prov/src/prov_provisionee.c.obj
                0x000000000003c144                prov_provisionee_listen
 .text.prov_provisionee_auth_data
                0x000000000003c178      0x100 CMakeFiles/light_switch_client_nrf52832_xxAA_s132_6.0.0.dir/__/__/__/mesh/prov/src/prov_provisionee.c.obj
                0x000000000003c178                prov_provisionee_auth_data
 .text.bearer_compare_callback
                0x000000000003c278       0x10 CMakeFiles/light_switch_client_nrf52832_xxAA_s132_6.0.0.dir/__/__/__/mesh/prov/src/nrf_mesh_prov.c.obj
 .text.nrf_mesh_prov_init
                0x000000000003c288       0x3c CMakeFiles/light_switch_client_nrf52832_xxAA_s132_6.0.0.dir/__/__/__/mesh/prov/src/nrf_mesh_prov.c.obj
                0x000000000003c288                nrf_mesh_prov_init
 .text.nrf_mesh_prov_bearer_add
                0x000000000003c2c4       0x2c CMakeFiles/light_switch_client_nrf52832_xxAA_s132_6.0.0.dir/__/__/__/mesh/prov/src/nrf_mesh_prov.c.obj
                0x000000000003c2c4                nrf_mesh_prov_bearer_add
 .text.nrf_mesh_prov_generate_keys
                0x000000000003c2f0        0x4 CMakeFiles/light_switch_client_nrf52832_xxAA_s132_6.0.0.dir/__/__/__/mesh/prov/src/nrf_mesh_prov.c.obj
                0x000000000003c2f0                nrf_mesh_prov_generate_keys
 .text.nrf_mesh_prov_listen
                0x000000000003c2f4       0xf0 CMakeFiles/light_switch_client_nrf52832_xxAA_s132_6.0.0.dir/__/__/__/mesh/prov/src/nrf_mesh_prov.c.obj
                0x000000000003c2f4                nrf_mesh_prov_listen
 .text.nrf_mesh_prov_auth_data_provide
                0x000000000003c3e4       0x10 CMakeFiles/light_switch_client_nrf52832_xxAA_s132_6.0.0.dir/__/__/__/mesh/prov/src/nrf_mesh_prov.c.obj
                0x000000000003c3e4                nrf_mesh_prov_auth_data_provide
 .text.prov_packet_length_valid
                0x000000000003c3f4       0x20 CMakeFiles/light_switch_client_nrf52832_xxAA_s132_6.0.0.dir/__/__/__/mesh/prov/src/provisioning.c.obj
                0x000000000003c3f4                prov_packet_length_valid
 .text.prov_tx_capabilities
                0x000000000003c414       0x38 CMakeFiles/light_switch_client_nrf52832_xxAA_s132_6.0.0.dir/__/__/__/mesh/prov/src/provisioning.c.obj
                0x000000000003c414                prov_tx_capabilities
 .text.prov_tx_public_key
                0x000000000003c44c       0x30 CMakeFiles/light_switch_client_nrf52832_xxAA_s132_6.0.0.dir/__/__/__/mesh/prov/src/provisioning.c.obj
                0x000000000003c44c                prov_tx_public_key
 .text.prov_tx_input_complete
                0x000000000003c47c       0x28 CMakeFiles/light_switch_client_nrf52832_xxAA_s132_6.0.0.dir/__/__/__/mesh/prov/src/provisioning.c.obj
                0x000000000003c47c                prov_tx_input_complete
 .text.prov_tx_confirmation
                0x000000000003c4a4       0x30 CMakeFiles/light_switch_client_nrf52832_xxAA_s132_6.0.0.dir/__/__/__/mesh/prov/src/provisioning.c.obj
                0x000000000003c4a4                prov_tx_confirmation
 .text.prov_tx_random
                0x000000000003c4d4       0x30 CMakeFiles/light_switch_client_nrf52832_xxAA_s132_6.0.0.dir/__/__/__/mesh/prov/src/provisioning.c.obj
                0x000000000003c4d4                prov_tx_random
 .text.prov_tx_complete
                0x000000000003c504       0x28 CMakeFiles/light_switch_client_nrf52832_xxAA_s132_6.0.0.dir/__/__/__/mesh/prov/src/provisioning.c.obj
                0x000000000003c504                prov_tx_complete
 .text.prov_tx_failed
                0x000000000003c52c       0x2c CMakeFiles/light_switch_client_nrf52832_xxAA_s132_6.0.0.dir/__/__/__/mesh/prov/src/provisioning.c.obj
                0x000000000003c52c                prov_tx_failed
 .text.prov_beacon_unprov_build
                0x000000000003c558       0x54 CMakeFiles/light_switch_client_nrf52832_xxAA_s132_6.0.0.dir/__/__/__/mesh/prov/src/prov_beacon.c.obj
                0x000000000003c558                prov_beacon_unprov_build
 .text.prov_beacon_unprov_packet_in
                0x000000000003c5ac       0xd0 CMakeFiles/light_switch_client_nrf52832_xxAA_s132_6.0.0.dir/__/__/__/mesh/prov/src/prov_beacon.c.obj
                0x000000000003c5ac                prov_beacon_unprov_packet_in
 .text.prov_utils_opt_set
                0x000000000003c67c       0x24 CMakeFiles/light_switch_client_nrf52832_xxAA_s132_6.0.0.dir/__/__/__/mesh/prov/src/prov_utils.c.obj
                0x000000000003c67c                prov_utils_opt_set
 .text.prov_utils_opt_get
                0x000000000003c6a0       0x1c CMakeFiles/light_switch_client_nrf52832_xxAA_s132_6.0.0.dir/__/__/__/mesh/prov/src/prov_utils.c.obj
                0x000000000003c6a0                prov_utils_opt_get
 .text.prov_utils_use_ecdh_offloading
                0x000000000003c6bc        0xc CMakeFiles/light_switch_client_nrf52832_xxAA_s132_6.0.0.dir/__/__/__/mesh/prov/src/prov_utils.c.obj
                0x000000000003c6bc                prov_utils_use_ecdh_offloading
 .text.prov_utils_authentication_values_derive
                0x000000000003c6c8       0xac CMakeFiles/light_switch_client_nrf52832_xxAA_s132_6.0.0.dir/__/__/__/mesh/prov/src/prov_utils.c.obj
                0x000000000003c6c8                prov_utils_authentication_values_derive
 .text.prov_utils_keys_generate
                0x000000000003c774       0x20 CMakeFiles/light_switch_client_nrf52832_xxAA_s132_6.0.0.dir/__/__/__/mesh/prov/src/prov_utils.c.obj
                0x000000000003c774                prov_utils_keys_generate
 .text.prov_utils_derive_keys
                0x000000000003c794       0xb4 CMakeFiles/light_switch_client_nrf52832_xxAA_s132_6.0.0.dir/__/__/__/mesh/prov/src/prov_utils.c.obj
                0x000000000003c794                prov_utils_derive_keys
 .text.prov_utils_calculate_shared_secret
                0x000000000003c848       0x34 CMakeFiles/light_switch_client_nrf52832_xxAA_s132_6.0.0.dir/__/__/__/mesh/prov/src/prov_utils.c.obj
                0x000000000003c848                prov_utils_calculate_shared_secret
 .text.prov_utils_generate_oob_data
                0x000000000003c87c      0x1b8 CMakeFiles/light_switch_client_nrf52832_xxAA_s132_6.0.0.dir/__/__/__/mesh/prov/src/prov_utils.c.obj
                0x000000000003c87c                prov_utils_generate_oob_data
 .text.prov_utils_confirmation_check
                0x000000000003ca34       0x5c CMakeFiles/light_switch_client_nrf52832_xxAA_s132_6.0.0.dir/__/__/__/mesh/prov/src/prov_utils.c.obj
                0x000000000003ca34                prov_utils_confirmation_check
 .text.link_timeout_cb
                0x000000000003ca90       0x10 CMakeFiles/light_switch_client_nrf52832_xxAA_s132_6.0.0.dir/__/__/__/mesh/prov/src/prov_bearer_adv.c.obj
 .text.prov_bearer_adv_listen_stop
                0x000000000003caa0       0x98 CMakeFiles/light_switch_client_nrf52832_xxAA_s132_6.0.0.dir/__/__/__/mesh/prov/src/prov_bearer_adv.c.obj
 .text.tx_complete_cb
                0x000000000003cb38       0x20 CMakeFiles/light_switch_client_nrf52832_xxAA_s132_6.0.0.dir/__/__/__/mesh/prov/src/prov_bearer_adv.c.obj
 .text.prov_bearer_adv_listen
                0x000000000003cb58      0x15c CMakeFiles/light_switch_client_nrf52832_xxAA_s132_6.0.0.dir/__/__/__/mesh/prov/src/prov_bearer_adv.c.obj
 .text.close_link
                0x000000000003ccb4       0xd8 CMakeFiles/light_switch_client_nrf52832_xxAA_s132_6.0.0.dir/__/__/__/mesh/prov/src/prov_bearer_adv.c.obj
 .text.send_link_ack
                0x000000000003cd8c       0x70 CMakeFiles/light_switch_client_nrf52832_xxAA_s132_6.0.0.dir/__/__/__/mesh/prov/src/prov_bearer_adv.c.obj
 .text.send_transaction_ack
                0x000000000003cdfc       0x68 CMakeFiles/light_switch_client_nrf52832_xxAA_s132_6.0.0.dir/__/__/__/mesh/prov/src/prov_bearer_adv.c.obj
 .text.prov_buffer_rx
                0x000000000003ce64       0xa0 CMakeFiles/light_switch_client_nrf52832_xxAA_s132_6.0.0.dir/__/__/__/mesh/prov/src/prov_bearer_adv.c.obj
 .text.prov_bearer_adv_link_open
                0x000000000003cf04      0x1b8 CMakeFiles/light_switch_client_nrf52832_xxAA_s132_6.0.0.dir/__/__/__/mesh/prov/src/prov_bearer_adv.c.obj
 .text.prov_bearer_adv_link_close
                0x000000000003d0bc       0xcc CMakeFiles/light_switch_client_nrf52832_xxAA_s132_6.0.0.dir/__/__/__/mesh/prov/src/prov_bearer_adv.c.obj
 .text.prov_buffer_tx
                0x000000000003d188      0x1e4 CMakeFiles/light_switch_client_nrf52832_xxAA_s132_6.0.0.dir/__/__/__/mesh/prov/src/prov_bearer_adv.c.obj
 .text.tx_retry_cb
                0x000000000003d36c      0x130 CMakeFiles/light_switch_client_nrf52832_xxAA_s132_6.0.0.dir/__/__/__/mesh/prov/src/prov_bearer_adv.c.obj
 .text.prov_bearer_adv_tx
                0x000000000003d49c       0xe8 CMakeFiles/light_switch_client_nrf52832_xxAA_s132_6.0.0.dir/__/__/__/mesh/prov/src/prov_bearer_adv.c.obj
 .text.async_process
                0x000000000003d584      0x118 CMakeFiles/light_switch_client_nrf52832_xxAA_s132_6.0.0.dir/__/__/__/mesh/prov/src/prov_bearer_adv.c.obj
 .text.nrf_mesh_prov_bearer_adv_interface_get
                0x000000000003d69c       0x40 CMakeFiles/light_switch_client_nrf52832_xxAA_s132_6.0.0.dir/__/__/__/mesh/prov/src/prov_bearer_adv.c.obj
                0x000000000003d69c                nrf_mesh_prov_bearer_adv_interface_get
 .text.prov_bearer_adv_packet_in
                0x000000000003d6dc      0x914 CMakeFiles/light_switch_client_nrf52832_xxAA_s132_6.0.0.dir/__/__/__/mesh/prov/src/prov_bearer_adv.c.obj
                0x000000000003d6dc                prov_bearer_adv_packet_in
 .text.SystemInit
                0x000000000003dff0      0x3c0 CMakeFiles/light_switch_client_nrf52832_xxAA_s132_6.0.0.dir/home/mazzer/work/nordic/sdk/nRF5_SDK_15.0.0/modules/nrfx/mdk/system_nrf52.c.obj
                0x000000000003dff0                SystemInit
 .text          0x000000000003e3b0       0x3c CMakeFiles/light_switch_client_nrf52832_xxAA_s132_6.0.0.dir/home/mazzer/work/nordic/sdk/nRF5_SDK_15.0.0/modules/nrfx/mdk/gcc_startup_nrf52.S.obj
                0x000000000003e3b0                Reset_Handler
                0x000000000003e3d8                NMI_Handler
                0x000000000003e3da                HardFault_Handler
                0x000000000003e3dc                MemoryManagement_Handler
                0x000000000003e3de                BusFault_Handler
                0x000000000003e3e0                UsageFault_Handler
                0x000000000003e3e2                SVC_Handler
                0x000000000003e3e4                DebugMon_Handler
                0x000000000003e3e6                PendSV_Handler
                0x000000000003e3e8                SysTick_Handler
                0x000000000003e3ea                RTC0_IRQHandler
                0x000000000003e3ea                SWI0_EGU0_IRQHandler
                0x000000000003e3ea                PWM1_IRQHandler
                0x000000000003e3ea                POWER_CLOCK_IRQHandler
                0x000000000003e3ea                RADIO_IRQHandler
                0x000000000003e3ea                PDM_IRQHandler
                0x000000000003e3ea                TEMP_IRQHandler
                0x000000000003e3ea                TIMER3_IRQHandler
                0x000000000003e3ea                FPU_IRQHandler
                0x000000000003e3ea                SPIM0_SPIS0_TWIM0_TWIS0_SPI0_TWI0_IRQHandler
                0x000000000003e3ea                UARTE0_UART0_IRQHandler
                0x000000000003e3ea                TIMER4_IRQHandler
                0x000000000003e3ea                I2S_IRQHandler
                0x000000000003e3ea                SWI4_EGU4_IRQHandler
                0x000000000003e3ea                TIMER0_IRQHandler
                0x000000000003e3ea                TIMER1_IRQHandler
                0x000000000003e3ea                PWM2_IRQHandler
                0x000000000003e3ea                ECB_IRQHandler
                0x000000000003e3ea                SPIM1_SPIS1_TWIM1_TWIS1_SPI1_TWI1_IRQHandler
                0x000000000003e3ea                Default_Handler
                0x000000000003e3ea                SAADC_IRQHandler
                0x000000000003e3ea                CCM_AAR_IRQHandler
                0x000000000003e3ea                WDT_IRQHandler
                0x000000000003e3ea                SWI5_EGU5_IRQHandler
                0x000000000003e3ea                RNG_IRQHandler
                0x000000000003e3ea                RTC2_IRQHandler
                0x000000000003e3ea                PWM0_IRQHandler
                0x000000000003e3ea                SWI3_EGU3_IRQHandler
                0x000000000003e3ea                RTC1_IRQHandler
                0x000000000003e3ea                SWI1_EGU1_IRQHandler
                0x000000000003e3ea                SPIM2_SPIS2_SPI2_IRQHandler
                0x000000000003e3ea                NFCT_IRQHandler
                0x000000000003e3ea                MWU_IRQHandler
                0x000000000003e3ea                COMP_LPCOMP_IRQHandler
 .text.app_error_handler_bare
                0x000000000003e3ec       0x20 CMakeFiles/light_switch_client_nrf52832_xxAA_s132_6.0.0.dir/home/mazzer/work/nordic/sdk/nRF5_SDK_15.0.0/components/libraries/util/app_error.c.obj
                0x000000000003e3ec                app_error_handler_bare
 .text.app_error_handler
                0x000000000003e40c       0x1c CMakeFiles/light_switch_client_nrf52832_xxAA_s132_6.0.0.dir/home/mazzer/work/nordic/sdk/nRF5_SDK_15.0.0/components/libraries/util/app_error_handler_gcc.c.obj
                0x000000000003e40c                app_error_handler
 .text.SEGGER_RTT_Write
                0x000000000003e428      0x1f4 ../../../external/rtt/librtt_nrf52832_xxAA.a(SEGGER_RTT.c.obj)
                0x000000000003e428                SEGGER_RTT_Write
 .text.SEGGER_RTT_GetKey
                0x000000000003e61c       0xf8 ../../../external/rtt/librtt_nrf52832_xxAA.a(SEGGER_RTT.c.obj)
                0x000000000003e61c                SEGGER_RTT_GetKey
 .text._PrintUnsigned
                0x000000000003e714      0x17c ../../../external/rtt/librtt_nrf52832_xxAA.a(SEGGER_RTT_printf.c.obj)
 .text.SEGGER_RTT_vprintf
                0x000000000003e890      0x524 ../../../external/rtt/librtt_nrf52832_xxAA.a(SEGGER_RTT_printf.c.obj)
                0x000000000003e890                SEGGER_RTT_vprintf
 .text.SEGGER_RTT_printf
                0x000000000003edb4       0x20 ../../../external/rtt/librtt_nrf52832_xxAA.a(SEGGER_RTT_printf.c.obj)
                0x000000000003edb4                SEGGER_RTT_printf
 .text.default_RNG
                0x000000000003edd4        0xc ../../../external/micro-ecc/libuECC_nrf52832_xxAA.a(uECC.c.obj)
 .text.uECC_generate_random_int
                0x000000000003ede0      0x17c ../../../external/micro-ecc/libuECC_nrf52832_xxAA.a(uECC.c.obj)
 .text.apply_z  0x000000000003ef5c      0x1a8 ../../../external/micro-ecc/libuECC_nrf52832_xxAA.a(uECC.c.obj)
 .text.uECC_vli_modAdd
                0x000000000003f104       0xd8 ../../../external/micro-ecc/libuECC_nrf52832_xxAA.a(uECC.c.obj)
 .text.x_side_default
                0x000000000003f1dc      0x26c ../../../external/micro-ecc/libuECC_nrf52832_xxAA.a(uECC.c.obj)
 .text.vli_mmod_fast_secp256r1
                0x000000000003f448      0x514 ../../../external/micro-ecc/libuECC_nrf52832_xxAA.a(uECC.c.obj)
 .text.XYcZ_add
                0x000000000003f95c      0x6e0 ../../../external/micro-ecc/libuECC_nrf52832_xxAA.a(uECC.c.obj)
 .text.XYcZ_addC
                0x000000000004003c      0xabc ../../../external/micro-ecc/libuECC_nrf52832_xxAA.a(uECC.c.obj)
 .text.uECC_vli_modInv.part.4
                0x0000000000040af8      0x71c ../../../external/micro-ecc/libuECC_nrf52832_xxAA.a(uECC.c.obj)
 .text.EccPoint_mult
                0x0000000000041214      0x4a4 ../../../external/micro-ecc/libuECC_nrf52832_xxAA.a(uECC.c.obj)
 .text.double_jacobian_default
                0x00000000000416b8      0x814 ../../../external/micro-ecc/libuECC_nrf52832_xxAA.a(uECC.c.obj)
 .text.uECC_secp256r1
                0x0000000000041ecc        0x8 ../../../external/micro-ecc/libuECC_nrf52832_xxAA.a(uECC.c.obj)
                0x0000000000041ecc                uECC_secp256r1
 .text.uECC_make_key
                0x0000000000041ed4      0x240 ../../../external/micro-ecc/libuECC_nrf52832_xxAA.a(uECC.c.obj)
                0x0000000000041ed4                uECC_make_key
 .text.uECC_shared_secret
                0x0000000000042114      0x314 ../../../external/micro-ecc/libuECC_nrf52832_xxAA.a(uECC.c.obj)
                0x0000000000042114                uECC_shared_secret
 .text.uECC_valid_public_key
                0x0000000000042428      0x230 ../../../external/micro-ecc/libuECC_nrf52832_xxAA.a(uECC.c.obj)
                0x0000000000042428                uECC_valid_public_key
 .text          0x0000000000042658       0x30 /usr/bin/../lib/gcc/arm-none-eabi/7.2.1/thumb/v7e-m/fpv4-sp/hard/libgcc.a(_aeabi_uldivmod.o)
                0x0000000000042658                __aeabi_uldivmod
 .text          0x0000000000042688      0x2cc /usr/bin/../lib/gcc/arm-none-eabi/7.2.1/thumb/v7e-m/fpv4-sp/hard/libgcc.a(_udivmoddi4.o)
                0x0000000000042688                __udivmoddi4
 .text          0x0000000000042954        0x4 /usr/bin/../lib/gcc/arm-none-eabi/7.2.1/thumb/v7e-m/fpv4-sp/hard/libgcc.a(_dvmd_tls.o)
                0x0000000000042954                __aeabi_ldiv0
                0x0000000000042954                __aeabi_idiv0
 .text.exit     0x0000000000042958       0x28 /usr/bin/../lib/gcc/arm-none-eabi/7.2.1/../../../../arm-none-eabi/lib/thumb/v7e-m/fpv4-sp/hard/libg_nano.a(lib_a-exit.o)
                0x0000000000042958                exit
 .text.__libc_init_array
                0x0000000000042980       0x48 /usr/bin/../lib/gcc/arm-none-eabi/7.2.1/../../../../arm-none-eabi/lib/thumb/v7e-m/fpv4-sp/hard/libg_nano.a(lib_a-init.o)
                0x0000000000042980                __libc_init_array
 .text.malloc   0x00000000000429c8       0x10 /usr/bin/../lib/gcc/arm-none-eabi/7.2.1/../../../../arm-none-eabi/lib/thumb/v7e-m/fpv4-sp/hard/libg_nano.a(lib_a-malloc.o)
                0x00000000000429c8                malloc
 .text.free     0x00000000000429d8       0x10 /usr/bin/../lib/gcc/arm-none-eabi/7.2.1/../../../../arm-none-eabi/lib/thumb/v7e-m/fpv4-sp/hard/libg_nano.a(lib_a-malloc.o)
                0x00000000000429d8                free
 .text.memcmp   0x00000000000429e8       0x1e /usr/bin/../lib/gcc/arm-none-eabi/7.2.1/../../../../arm-none-eabi/lib/thumb/v7e-m/fpv4-sp/hard/libg_nano.a(lib_a-memcmp.o)
                0x00000000000429e8                memcmp
 .text.memcpy   0x0000000000042a06       0x16 /usr/bin/../lib/gcc/arm-none-eabi/7.2.1/../../../../arm-none-eabi/lib/thumb/v7e-m/fpv4-sp/hard/libg_nano.a(lib_a-memcpy-stub.o)
                0x0000000000042a06                memcpy
 .text.memset   0x0000000000042a1c       0x10 /usr/bin/../lib/gcc/arm-none-eabi/7.2.1/../../../../arm-none-eabi/lib/thumb/v7e-m/fpv4-sp/hard/libg_nano.a(lib_a-memset.o)
                0x0000000000042a1c                memset
 .text._free_r  0x0000000000042a2c       0x9c /usr/bin/../lib/gcc/arm-none-eabi/7.2.1/../../../../arm-none-eabi/lib/thumb/v7e-m/fpv4-sp/hard/libg_nano.a(lib_a-nano-freer.o)
                0x0000000000042a2c                _free_r
 .text._malloc_r
                0x0000000000042ac8       0xb4 /usr/bin/../lib/gcc/arm-none-eabi/7.2.1/../../../../arm-none-eabi/lib/thumb/v7e-m/fpv4-sp/hard/libg_nano.a(lib_a-nano-mallocr.o)
                0x0000000000042ac8                _malloc_r
 .text._sbrk_r  0x0000000000042b7c       0x20 /usr/bin/../lib/gcc/arm-none-eabi/7.2.1/../../../../arm-none-eabi/lib/thumb/v7e-m/fpv4-sp/hard/libg_nano.a(lib_a-sbrkr.o)
                0x0000000000042b7c                _sbrk_r
 .text.strcpy   0x0000000000042b9c       0x10 /usr/bin/../lib/gcc/arm-none-eabi/7.2.1/../../../../arm-none-eabi/lib/thumb/v7e-m/fpv4-sp/hard/libg_nano.a(lib_a-strcpy.o)
                0x0000000000042b9c                strcpy
 .text          0x0000000000042bac       0x10 /usr/bin/../lib/gcc/arm-none-eabi/7.2.1/../../../../arm-none-eabi/lib/thumb/v7e-m/fpv4-sp/hard/libg_nano.a(lib_a-strlen.o)
                0x0000000000042bac                strlen
 .text.strrchr  0x0000000000042bbc       0x28 /usr/bin/../lib/gcc/arm-none-eabi/7.2.1/../../../../arm-none-eabi/lib/thumb/v7e-m/fpv4-sp/hard/libg_nano.a(lib_a-strrchr.o)
                0x0000000000042bbc                strrchr
 .text.__malloc_lock
                0x0000000000042be4        0x2 /usr/bin/../lib/gcc/arm-none-eabi/7.2.1/../../../../arm-none-eabi/lib/thumb/v7e-m/fpv4-sp/hard/libg_nano.a(lib_a-mlock.o)
                0x0000000000042be4                __malloc_lock
 .text.__malloc_unlock
                0x0000000000042be6        0x2 /usr/bin/../lib/gcc/arm-none-eabi/7.2.1/../../../../arm-none-eabi/lib/thumb/v7e-m/fpv4-sp/hard/libg_nano.a(lib_a-mlock.o)
                0x0000000000042be6                __malloc_unlock
 .text.strchr   0x0000000000042be8       0x1a /usr/bin/../lib/gcc/arm-none-eabi/7.2.1/../../../../arm-none-eabi/lib/thumb/v7e-m/fpv4-sp/hard/libg_nano.a(lib_a-strchr.o)
                0x0000000000042be8                strchr
 *fill*         0x0000000000042c02        0x2 
 .text._sbrk    0x0000000000042c04       0x1c /usr/bin/../lib/gcc/arm-none-eabi/7.2.1/../../../../arm-none-eabi/lib/thumb/v7e-m/fpv4-sp/hard/libnosys.a(sbrk.o)
                0x0000000000042c04                _sbrk
 .text._exit    0x0000000000042c20        0x4 /usr/bin/../lib/gcc/arm-none-eabi/7.2.1/../../../../arm-none-eabi/lib/thumb/v7e-m/fpv4-sp/hard/libnosys.a(_exit.o)
                0x0000000000042c20                _exit
 *(.init)
 .init          0x0000000000042c24        0x4 /usr/bin/../lib/gcc/arm-none-eabi/7.2.1/thumb/v7e-m/fpv4-sp/hard/crti.o
                0x0000000000042c24                _init
 .init          0x0000000000042c28        0x8 /usr/bin/../lib/gcc/arm-none-eabi/7.2.1/thumb/v7e-m/fpv4-sp/hard/crtn.o
 *(.fini)
 .fini          0x0000000000042c30        0x4 /usr/bin/../lib/gcc/arm-none-eabi/7.2.1/thumb/v7e-m/fpv4-sp/hard/crti.o
                0x0000000000042c30                _fini
 .fini          0x0000000000042c34        0x8 /usr/bin/../lib/gcc/arm-none-eabi/7.2.1/thumb/v7e-m/fpv4-sp/hard/crtn.o
 *crtbegin.o(.ctors)
 *crtbegin?.o(.ctors)
 *(EXCLUDE_FILE(*crtend.o *crtend?.o) .ctors)
 *(SORT_BY_NAME(.ctors.*))
 *(.ctors)
 *crtbegin.o(.dtors)
 *crtbegin?.o(.dtors)
 *(EXCLUDE_FILE(*crtend.o *crtend?.o) .dtors)
 *(SORT_BY_NAME(.dtors.*))
 *(.dtors)
 *(.rodata*)
 .rodata.button_event_handler.str1.4
                0x0000000000042c3c       0x56 CMakeFiles/light_switch_client_nrf52832_xxAA_s132_6.0.0.dir/src/main.c.obj
 *fill*         0x0000000000042c92        0x2 
 .rodata.client_publish_timeout_cb.str1.4
                0x0000000000042c94       0x1c CMakeFiles/light_switch_client_nrf52832_xxAA_s132_6.0.0.dir/src/main.c.obj
 .rodata.client_status_cb.str1.4
                0x0000000000042cb0       0x2d CMakeFiles/light_switch_client_nrf52832_xxAA_s132_6.0.0.dir/src/main.c.obj
 *fill*         0x0000000000042cdd        0x3 
 .rodata.config_server_evt_cb.str1.4
                0x0000000000042ce0       0x19 CMakeFiles/light_switch_client_nrf52832_xxAA_s132_6.0.0.dir/src/main.c.obj
 *fill*         0x0000000000042cf9        0x3 
 .rodata.m_client_node_uuid
                0x0000000000042cfc       0x10 CMakeFiles/light_switch_client_nrf52832_xxAA_s132_6.0.0.dir/src/main.c.obj
 .rodata.main.str1.4
                0x0000000000042d0c       0x48 CMakeFiles/light_switch_client_nrf52832_xxAA_s132_6.0.0.dir/src/main.c.obj
 .rodata.models_init_cb.str1.4
                0x0000000000042d54       0x20 CMakeFiles/light_switch_client_nrf52832_xxAA_s132_6.0.0.dir/src/main.c.obj
 .rodata.provisioning_complete_cb.str1.4
                0x0000000000042d74       0x97 CMakeFiles/light_switch_client_nrf52832_xxAA_s132_6.0.0.dir/src/main.c.obj
 *fill*         0x0000000000042e0b        0x1 
 .rodata.static_auth_data.12246
                0x0000000000042e0c       0x10 CMakeFiles/light_switch_client_nrf52832_xxAA_s132_6.0.0.dir/src/main.c.obj
 .rodata.mesh_softdevice_init.str1.4
                0x0000000000042e1c       0xe1 CMakeFiles/light_switch_client_nrf52832_xxAA_s132_6.0.0.dir/__/__/common/src/mesh_softdevice_init.c.obj
 *fill*         0x0000000000042efd        0x3 
 .rodata        0x0000000000042f00        0xb CMakeFiles/light_switch_client_nrf52832_xxAA_s132_6.0.0.dir/__/__/common/src/mesh_provisionee.c.obj
 *fill*         0x0000000000042f0b        0x5 
 .rodata.delay_bytecode.8588
                0x0000000000042f10        0x6 CMakeFiles/light_switch_client_nrf52832_xxAA_s132_6.0.0.dir/__/__/common/src/simple_hal.c.obj
 *fill*         0x0000000000042f16        0x2 
 .rodata.m_buttons_list
                0x0000000000042f18        0x4 CMakeFiles/light_switch_client_nrf52832_xxAA_s132_6.0.0.dir/__/__/common/src/simple_hal.c.obj
 .rodata.app_error_fault_handler.str1.4
                0x0000000000042f1c       0xfd CMakeFiles/light_switch_client_nrf52832_xxAA_s132_6.0.0.dir/__/__/common/src/app_error_weak.c.obj
 .rodata.mesh_assertion_handler.str1.4
                0x0000000000043019       0xfd CMakeFiles/light_switch_client_nrf52832_xxAA_s132_6.0.0.dir/__/__/common/src/assertion_handler_weak.c.obj
                                          0x1 (size before relaxing)
 *fill*         0x0000000000043019        0x3 
 .rodata.sar_ctx_cancel.str1.4
                0x000000000004301c       0x23 CMakeFiles/light_switch_client_nrf52832_xxAA_s132_6.0.0.dir/__/__/__/mesh/core/src/transport.c.obj
 *fill*         0x000000000004303f        0x1 
 .rodata.transport_packet_in.str1.4
                0x0000000000043040       0x24 CMakeFiles/light_switch_client_nrf52832_xxAA_s132_6.0.0.dir/__/__/__/mesh/core/src/transport.c.obj
 .rodata.upper_transport_access_packet_in.str1.4
                0x0000000000043064       0x91 CMakeFiles/light_switch_client_nrf52832_xxAA_s132_6.0.0.dir/__/__/__/mesh/core/src/transport.c.obj
 *fill*         0x00000000000430f5        0x3 
 .rodata.upper_transport_packet_in.str1.4
                0x00000000000430f8       0x2e CMakeFiles/light_switch_client_nrf52832_xxAA_s132_6.0.0.dir/__/__/__/mesh/core/src/transport.c.obj
 *fill*         0x0000000000043126        0x2 
 .rodata.upper_transport_tx.part.27.str1.4
                0x0000000000043128        0xe CMakeFiles/light_switch_client_nrf52832_xxAA_s132_6.0.0.dir/__/__/__/mesh/core/src/transport.c.obj
                                         0x18 (size before relaxing)
 *fill*         0x0000000000043136        0x2 
 .rodata.m_procedure_steps
                0x0000000000043138       0x28 CMakeFiles/light_switch_client_nrf52832_xxAA_s132_6.0.0.dir/__/__/__/mesh/core/src/flash_manager_defrag.c.obj
 .rodata.m_all_operations
                0x0000000000043160       0x10 CMakeFiles/light_switch_client_nrf52832_xxAA_s132_6.0.0.dir/__/__/__/mesh/core/src/mesh_flash.c.obj
 .rodata.types_lookup.9220
                0x0000000000043170        0x4 CMakeFiles/light_switch_client_nrf52832_xxAA_s132_6.0.0.dir/__/__/__/mesh/core/src/nrf_mesh_utils.c.obj
 .rodata.__func__.11692
                0x0000000000043174       0x15 CMakeFiles/light_switch_client_nrf52832_xxAA_s132_6.0.0.dir/__/__/__/mesh/core/src/nrf_mesh.c.obj
 *fill*         0x0000000000043189        0x3 
 .rodata.nrf_mesh_listen.str1.4
                0x000000000004318c       0xab CMakeFiles/light_switch_client_nrf52832_xxAA_s132_6.0.0.dir/__/__/__/mesh/core/src/nrf_mesh.c.obj
 .rodata.nrf_mesh_packet_send.str1.4
                0x0000000000043237       0xab CMakeFiles/light_switch_client_nrf52832_xxAA_s132_6.0.0.dir/__/__/__/mesh/core/src/nrf_mesh.c.obj
                                          0x4 (size before relaxing)
 *fill*         0x0000000000043237        0x1 
 .rodata.CSWTCH.8
                0x0000000000043238       0x20 CMakeFiles/light_switch_client_nrf52832_xxAA_s132_6.0.0.dir/__/__/__/mesh/core/src/hal.c.obj
 .rodata        0x0000000000043258       0x18 CMakeFiles/light_switch_client_nrf52832_xxAA_s132_6.0.0.dir/__/__/__/mesh/core/src/enc.c.obj
 .rodata.network_packet_in.str1.4
                0x0000000000043270       0x81 CMakeFiles/light_switch_client_nrf52832_xxAA_s132_6.0.0.dir/__/__/__/mesh/core/src/network.c.obj
 *fill*         0x00000000000432f1        0x3 
 .rodata.net_packet_decrypt.str1.4
                0x00000000000432f4       0x6b CMakeFiles/light_switch_client_nrf52832_xxAA_s132_6.0.0.dir/__/__/__/mesh/core/src/net_packet.c.obj
                                         0x74 (size before relaxing)
 *fill*         0x000000000004335f        0x1 
 .rodata        0x0000000000043360        0x7 CMakeFiles/light_switch_client_nrf52832_xxAA_s132_6.0.0.dir/__/__/__/mesh/core/src/nrf_mesh_keygen.c.obj
 *fill*         0x0000000000043367        0x1 
 .rodata.log_callback_rtt.str1.4
                0x0000000000043368       0x15 CMakeFiles/light_switch_client_nrf52832_xxAA_s132_6.0.0.dir/__/__/__/mesh/core/src/log.c.obj
 *fill*         0x000000000004337d        0x3 
 .rodata.str1.4
                0x0000000000043380       0x11 CMakeFiles/light_switch_client_nrf52832_xxAA_s132_6.0.0.dir/__/__/__/mesh/core/src/log.c.obj
 *fill*         0x0000000000043391        0x3 
 .rodata.INVALID_HEADER
                0x0000000000043394        0x4 CMakeFiles/light_switch_client_nrf52832_xxAA_s132_6.0.0.dir/__/__/__/mesh/core/src/flash_manager.c.obj
                0x0000000000043394                INVALID_HEADER
 .rodata.PADDING_HEADER
                0x0000000000043398        0x4 CMakeFiles/light_switch_client_nrf52832_xxAA_s132_6.0.0.dir/__/__/__/mesh/core/src/flash_manager.c.obj
                0x0000000000043398                PADDING_HEADER
 .rodata.SEAL_HEADER
                0x000000000004339c        0x4 CMakeFiles/light_switch_client_nrf52832_xxAA_s132_6.0.0.dir/__/__/__/mesh/core/src/flash_manager.c.obj
                0x000000000004339c                SEAL_HEADER
 .rodata.beacon_packet_in.str1.4
                0x00000000000433a0       0x8d CMakeFiles/light_switch_client_nrf52832_xxAA_s132_6.0.0.dir/__/__/__/mesh/core/src/beacon.c.obj
                                         0x98 (size before relaxing)
 *fill*         0x000000000004342d        0x3 
 .rodata.cp_handler
                0x0000000000043430        0x8 CMakeFiles/light_switch_client_nrf52832_xxAA_s132_6.0.0.dir/__/__/__/mesh/core/src/heartbeat.c.obj
 .rodata.beacon_tx.str1.4
                0x0000000000043438       0x6f CMakeFiles/light_switch_client_nrf52832_xxAA_s132_6.0.0.dir/__/__/__/mesh/core/src/net_beacon.c.obj
 *fill*         0x00000000000434a7        0x1 
 .rodata.net_beacon_init.str1.4
                0x00000000000434a8        0x5 CMakeFiles/light_switch_client_nrf52832_xxAA_s132_6.0.0.dir/__/__/__/mesh/core/src/net_beacon.c.obj
 *fill*         0x00000000000434ad        0x3 
 .rodata.m_interface
                0x00000000000434b0        0xc CMakeFiles/light_switch_client_nrf52832_xxAA_s132_6.0.0.dir/__/__/__/mesh/core/src/core_tx_adv.c.obj
 .rodata.radio_mode_to_us_per_byte.9613
                0x00000000000434bc        0x6 CMakeFiles/light_switch_client_nrf52832_xxAA_s132_6.0.0.dir/__/__/__/mesh/bearer/src/broadcast.c.obj
 *fill*         0x00000000000434c2        0x2 
 .rodata.channel_rf_offsets.8831
                0x00000000000434c4       0x28 CMakeFiles/light_switch_client_nrf52832_xxAA_s132_6.0.0.dir/__/__/__/mesh/bearer/src/radio_config.c.obj
 .rodata.m_opcode_handlers
                0x00000000000434ec        0x8 CMakeFiles/light_switch_client_nrf52832_xxAA_s132_6.0.0.dir/__/__/__/models/simple_on_off/src/simple_on_off_client.c.obj
 .rodata        0x00000000000434f4        0x8 CMakeFiles/light_switch_client_nrf52832_xxAA_s132_6.0.0.dir/__/__/__/models/config/src/config_server.c.obj
 .rodata.CSWTCH.178
                0x00000000000434fc       0x10 CMakeFiles/light_switch_client_nrf52832_xxAA_s132_6.0.0.dir/__/__/__/models/config/src/config_server.c.obj
 .rodata.opcode_handlers
                0x000000000004350c      0x170 CMakeFiles/light_switch_client_nrf52832_xxAA_s132_6.0.0.dir/__/__/__/models/config/src/config_server.c.obj
 .rodata.m_opcode_handlers
                0x000000000004367c       0x58 CMakeFiles/light_switch_client_nrf52832_xxAA_s132_6.0.0.dir/__/__/__/models/health/src/health_server.c.obj
 .rodata.multiply_de_bruijn_bit_position.9465
                0x00000000000436d4       0x20 CMakeFiles/light_switch_client_nrf52832_xxAA_s132_6.0.0.dir/__/__/__/models/health/src/health_server.c.obj
 .rodata.access_model_publish.str1.4
                0x00000000000436f4       0x1c CMakeFiles/light_switch_client_nrf52832_xxAA_s132_6.0.0.dir/__/__/__/mesh/access/src/access.c.obj
                                         0x24 (size before relaxing)
 .rodata.mesh_evt_cb.str1.4
                0x0000000000043710       0x67 CMakeFiles/light_switch_client_nrf52832_xxAA_s132_6.0.0.dir/__/__/__/mesh/access/src/access.c.obj
 *fill*         0x0000000000043777        0x1 
 .rodata.multiply_de_bruijn_bit_position.9421
                0x0000000000043778       0x20 CMakeFiles/light_switch_client_nrf52832_xxAA_s132_6.0.0.dir/__/__/__/mesh/access/src/access.c.obj
 .rodata.m_flash_groups
                0x0000000000043798       0xa8 CMakeFiles/light_switch_client_nrf52832_xxAA_s132_6.0.0.dir/__/__/__/mesh/access/src/device_state_manager.c.obj
 .rodata.multiply_de_bruijn_bit_position.9527
                0x0000000000043840       0x20 CMakeFiles/light_switch_client_nrf52832_xxAA_s132_6.0.0.dir/__/__/__/mesh/access/src/device_state_manager.c.obj
 .rodata.m_prov_callbacks
                0x0000000000043860       0x10 CMakeFiles/light_switch_client_nrf52832_xxAA_s132_6.0.0.dir/__/__/__/mesh/prov/src/prov_provisionee.c.obj
 .rodata.prov_provisionee_cb_ack_received.str1.4
                0x0000000000043870       0x8b CMakeFiles/light_switch_client_nrf52832_xxAA_s132_6.0.0.dir/__/__/__/mesh/prov/src/prov_provisionee.c.obj
 *fill*         0x00000000000438fb        0x1 
 .rodata.multiply_de_bruijn_bit_position.9474
                0x00000000000438fc       0x20 CMakeFiles/light_switch_client_nrf52832_xxAA_s132_6.0.0.dir/__/__/__/mesh/prov/src/nrf_mesh_prov.c.obj
 .rodata.pdu_sizes.11435
                0x000000000004391c        0xa CMakeFiles/light_switch_client_nrf52832_xxAA_s132_6.0.0.dir/__/__/__/mesh/prov/src/provisioning.c.obj
 *fill*         0x0000000000043926        0x2 
 .rodata.alphanumeric.11540
                0x0000000000043928       0x25 CMakeFiles/light_switch_client_nrf52832_xxAA_s132_6.0.0.dir/__/__/__/mesh/prov/src/prov_utils.c.obj
 *fill*         0x000000000004394d        0x3 
 .rodata.numeric_max.11534
                0x0000000000043950       0x24 CMakeFiles/light_switch_client_nrf52832_xxAA_s132_6.0.0.dir/__/__/__/mesh/prov/src/prov_utils.c.obj
 .rodata.prov_utils_authentication_values_derive.str1.4
                0x0000000000043974        0x5 CMakeFiles/light_switch_client_nrf52832_xxAA_s132_6.0.0.dir/__/__/__/mesh/prov/src/prov_utils.c.obj
 *fill*         0x0000000000043979        0x3 
 .rodata.prov_utils_derive_keys.str1.4
                0x000000000004397c       0x15 CMakeFiles/light_switch_client_nrf52832_xxAA_s132_6.0.0.dir/__/__/__/mesh/prov/src/prov_utils.c.obj
 *fill*         0x0000000000043991        0x3 
 .rodata.crctable.11169
                0x0000000000043994      0x100 CMakeFiles/light_switch_client_nrf52832_xxAA_s132_6.0.0.dir/__/__/__/mesh/prov/src/prov_bearer_adv.c.obj
 .rodata.interface.11399
                0x0000000000043a94       0x14 CMakeFiles/light_switch_client_nrf52832_xxAA_s132_6.0.0.dir/__/__/__/mesh/prov/src/prov_bearer_adv.c.obj
 .rodata.prov_bearer_adv_listen.str1.4
                0x0000000000043aa8       0x88 CMakeFiles/light_switch_client_nrf52832_xxAA_s132_6.0.0.dir/__/__/__/mesh/prov/src/prov_bearer_adv.c.obj
 .rodata.prov_bearer_adv_packet_in.str1.4
                0x0000000000043b30      0x283 CMakeFiles/light_switch_client_nrf52832_xxAA_s132_6.0.0.dir/__/__/__/mesh/prov/src/prov_bearer_adv.c.obj
 *fill*         0x0000000000043db3        0x1 
 .rodata.tx_retry_cb.str1.4
                0x0000000000043db4       0x14 CMakeFiles/light_switch_client_nrf52832_xxAA_s132_6.0.0.dir/__/__/__/mesh/prov/src/prov_bearer_adv.c.obj
 .rodata.SEGGER_RTT_ReadNoLock.str1.4
                0x0000000000043dc8       0x18 ../../../external/rtt/librtt_nrf52832_xxAA.a(SEGGER_RTT.c.obj)
                                         0x17 (size before relaxing)
 .rodata._aV2C.5639
                0x0000000000043de0       0x10 ../../../external/rtt/librtt_nrf52832_xxAA.a(SEGGER_RTT_printf.c.obj)
 .rodata.curve_secp256r1
                0x0000000000043df0       0xb0 ../../../external/micro-ecc/libuECC_nrf52832_xxAA.a(uECC.c.obj)
 .rodata._global_impure_ptr
                0x0000000000043ea0        0x4 /usr/bin/../lib/gcc/arm-none-eabi/7.2.1/../../../../arm-none-eabi/lib/thumb/v7e-m/fpv4-sp/hard/libg_nano.a(lib_a-impure.o)
                0x0000000000043ea0                _global_impure_ptr
 *(.eh_frame*)
 .eh_frame      0x0000000000043ea4        0x0 /usr/bin/../lib/gcc/arm-none-eabi/7.2.1/thumb/v7e-m/fpv4-sp/hard/crtbegin.o
 .eh_frame      0x0000000000043ea4        0x4 /usr/bin/../lib/gcc/arm-none-eabi/7.2.1/thumb/v7e-m/fpv4-sp/hard/crtend.o

.glue_7         0x0000000000043ea8        0x0
 .glue_7        0x0000000000043ea8        0x0 linker stubs

.glue_7t        0x0000000000043ea8        0x0
 .glue_7t       0x0000000000043ea8        0x0 linker stubs

.vfp11_veneer   0x0000000000043ea8        0x0
 .vfp11_veneer  0x0000000000043ea8        0x0 linker stubs

.v4_bx          0x0000000000043ea8        0x0
 .v4_bx         0x0000000000043ea8        0x0 linker stubs

.iplt           0x0000000000043ea8        0x0
 .iplt          0x0000000000043ea8        0x0 /usr/bin/../lib/gcc/arm-none-eabi/7.2.1/thumb/v7e-m/fpv4-sp/hard/crtbegin.o

.pwr_mgmt_data  0x0000000000043ea8        0x0
                [!provide]                        PROVIDE (__start_pwr_mgmt_data, .)
 *(SORT_BY_NAME(.pwr_mgmt_data*))
                [!provide]                        PROVIDE (__stop_pwr_mgmt_data, .)

.log_const_data
                0x0000000000043ea8        0x0
                [!provide]                        PROVIDE (__start_log_const_data, .)
 *(.log_const_data)
                [!provide]                        PROVIDE (__stop_log_const_data, .)

.cli_command    0x0000000000043ea8        0x0
                [!provide]                        PROVIDE (__start_cli_command, .)
 *(.cli_command)
                [!provide]                        PROVIDE (__stop_cli_command, .)

.sdh_stack_observers
                0x0000000000043ea8        0x0
                [!provide]                        PROVIDE (__start_sdh_stack_observers, .)
 *(SORT_BY_NAME(.sdh_stack_observers*))
                [!provide]                        PROVIDE (__stop_sdh_stack_observers, .)

.sdh_req_observers
                0x0000000000043ea8        0x0
                [!provide]                        PROVIDE (__start_sdh_req_observers, .)
 *(SORT_BY_NAME(.sdh_req_observers*))
                [!provide]                        PROVIDE (__stop_sdh_req_observers, .)

.sdh_state_observers
                0x0000000000043ea8        0x0
                [!provide]                        PROVIDE (__start_sdh_state_observers, .)
 *(SORT_BY_NAME(.sdh_state_observers*))
                [!provide]                        PROVIDE (__stop_sdh_state_observers, .)

.sdh_ant_observers
                0x0000000000043ea8        0x0
                [!provide]                        PROVIDE (__start_sdh_ant_observers, .)
 *(SORT_BY_NAME(.sdh_ant_observers*))
                [!provide]                        PROVIDE (__stop_sdh_ant_observers, .)

.sdh_ble_observers
                0x0000000000043ea8        0x0
                [!provide]                        PROVIDE (__start_sdh_ble_observers, .)
 *(SORT_BY_NAME(.sdh_ble_observers*))
                [!provide]                        PROVIDE (__stop_sdh_ble_observers, .)

.sdh_soc_observers
                0x0000000000043ea8        0x0
                [!provide]                        PROVIDE (__start_sdh_soc_observers, .)
 *(SORT_BY_NAME(.sdh_soc_observers*))
                [!provide]                        PROVIDE (__stop_sdh_soc_observers, .)

.ARM.extab
 *(.ARM.extab* .gnu.linkonce.armextab.*)
                0x0000000000043ea8                __exidx_start = .

.ARM.exidx      0x0000000000043ea8        0x8
 *(.ARM.exidx* .gnu.linkonce.armexidx.*)
 .ARM.exidx     0x0000000000043ea8        0x8 /usr/bin/../lib/gcc/arm-none-eabi/7.2.1/../../../../arm-none-eabi/lib/thumb/v7e-m/fpv4-sp/hard/crt0.o
 .ARM.exidx     0x0000000000043eb0        0x0 /usr/bin/../lib/gcc/arm-none-eabi/7.2.1/thumb/v7e-m/fpv4-sp/hard/libgcc.a(_udivmoddi4.o)
                                          0x8 (size before relaxing)
                0x0000000000043eb0                __exidx_end = .
                0x0000000000043eb0                __etext = .

.rel.dyn        0x0000000000043eb0        0x0
 .rel.iplt      0x0000000000043eb0        0x0 /usr/bin/../lib/gcc/arm-none-eabi/7.2.1/thumb/v7e-m/fpv4-sp/hard/crtbegin.o

.data           0x00000000200032c8      0x140 load address 0x0000000000043eb0
                0x00000000200032c8                __data_start__ = .
 *(vtable)
 *(.data*)
 .data.s_evt_handler.11216
                0x00000000200032c8        0x8 CMakeFiles/light_switch_client_nrf52832_xxAA_s132_6.0.0.dir/__/__/__/mesh/stack/src/mesh_stack.c.obj
 .data.wait.9133
                0x00000000200032d0        0x1 CMakeFiles/light_switch_client_nrf52832_xxAA_s132_6.0.0.dir/__/__/common/src/app_error_weak.c.obj
 *fill*         0x00000000200032d1        0x3 
 .data.mem_listener.10007
                0x00000000200032d4       0x10 CMakeFiles/light_switch_client_nrf52832_xxAA_s132_6.0.0.dir/__/__/__/mesh/core/src/net_state.c.obj
 .data.mem_listener.9971
                0x00000000200032e4       0x10 CMakeFiles/light_switch_client_nrf52832_xxAA_s132_6.0.0.dir/__/__/__/mesh/core/src/net_state.c.obj
 .data.mem_listener.9976
                0x00000000200032f4       0x10 CMakeFiles/light_switch_client_nrf52832_xxAA_s132_6.0.0.dir/__/__/__/mesh/core/src/net_state.c.obj
 .data.mem_listener.9990
                0x0000000020003304       0x10 CMakeFiles/light_switch_client_nrf52832_xxAA_s132_6.0.0.dir/__/__/__/mesh/core/src/net_state.c.obj
 .data.m_nrf_mesh_listener
                0x0000000020003314        0xc CMakeFiles/light_switch_client_nrf52832_xxAA_s132_6.0.0.dir/__/__/__/mesh/core/src/nrf_mesh.c.obj
 .data.g_log_dbg_lvl
                0x0000000020003320        0x4 CMakeFiles/light_switch_client_nrf52832_xxAA_s132_6.0.0.dir/__/__/__/mesh/core/src/log.c.obj
                0x0000000020003320                g_log_dbg_lvl
 .data.g_log_dbg_msk
                0x0000000020003324        0x4 CMakeFiles/light_switch_client_nrf52832_xxAA_s132_6.0.0.dir/__/__/__/mesh/core/src/log.c.obj
                0x0000000020003324                g_log_dbg_msk
 .data.g_log_hex_digits
                0x0000000020003328        0x4 CMakeFiles/light_switch_client_nrf52832_xxAA_s132_6.0.0.dir/__/__/__/mesh/core/src/log.c.obj
                0x0000000020003328                g_log_hex_digits
 .data.m_log_callback
                0x000000002000332c        0x4 CMakeFiles/light_switch_client_nrf52832_xxAA_s132_6.0.0.dir/__/__/__/mesh/core/src/log.c.obj
                0x000000002000332c                m_log_callback
 .data.m_config_server_handle
                0x0000000020003330        0x2 CMakeFiles/light_switch_client_nrf52832_xxAA_s132_6.0.0.dir/__/__/__/models/config/src/config_server.c.obj
 *fill*         0x0000000020003332        0x2 
 .data.m_mesh_evt_handler
                0x0000000020003334        0x8 CMakeFiles/light_switch_client_nrf52832_xxAA_s132_6.0.0.dir/__/__/__/models/config/src/config_server.c.obj
 .data.flash_add_mem_available_struct.10545
                0x000000002000333c       0x10 CMakeFiles/light_switch_client_nrf52832_xxAA_s132_6.0.0.dir/__/__/__/mesh/access/src/access.c.obj
 .data.flash_clear_mem_available_struct.10634
                0x000000002000334c       0x10 CMakeFiles/light_switch_client_nrf52832_xxAA_s132_6.0.0.dir/__/__/__/mesh/access/src/access.c.obj
 .data.flash_store_mem_available_struct.10658
                0x000000002000335c       0x10 CMakeFiles/light_switch_client_nrf52832_xxAA_s132_6.0.0.dir/__/__/__/mesh/access/src/access.c.obj
 .data.m_default_ttl
                0x000000002000336c        0x1 CMakeFiles/light_switch_client_nrf52832_xxAA_s132_6.0.0.dir/__/__/__/mesh/access/src/access.c.obj
 *fill*         0x000000002000336d        0x3 
 .data.mem_listener.10834
                0x0000000020003370       0x10 CMakeFiles/light_switch_client_nrf52832_xxAA_s132_6.0.0.dir/__/__/__/mesh/access/src/device_state_manager.c.obj
 .data.mem_listener.10860
                0x0000000020003380       0x10 CMakeFiles/light_switch_client_nrf52832_xxAA_s132_6.0.0.dir/__/__/__/mesh/access/src/device_state_manager.c.obj
 .data.m_async_process_flag
                0x0000000020003390        0x4 CMakeFiles/light_switch_client_nrf52832_xxAA_s132_6.0.0.dir/__/__/__/mesh/prov/src/prov_bearer_adv.c.obj
 .data.SystemCoreClock
                0x0000000020003394        0x4 CMakeFiles/light_switch_client_nrf52832_xxAA_s132_6.0.0.dir/home/mazzer/work/nordic/sdk/nRF5_SDK_15.0.0/modules/nrfx/mdk/system_nrf52.c.obj
                0x0000000020003394                SystemCoreClock
 .data.g_rng_function
                0x0000000020003398        0x4 ../../../external/micro-ecc/libuECC_nrf52832_xxAA.a(uECC.c.obj)
 .data._impure_ptr
                0x000000002000339c        0x4 /usr/bin/../lib/gcc/arm-none-eabi/7.2.1/../../../../arm-none-eabi/lib/thumb/v7e-m/fpv4-sp/hard/libg_nano.a(lib_a-impure.o)
                0x000000002000339c                _impure_ptr
 .data.impure_data
                0x00000000200033a0       0x60 /usr/bin/../lib/gcc/arm-none-eabi/7.2.1/../../../../arm-none-eabi/lib/thumb/v7e-m/fpv4-sp/hard/libg_nano.a(lib_a-impure.o)
                0x0000000020003400                . = ALIGN (0x4)
                0x0000000020003400                PROVIDE (__preinit_array_start, .)
 *(.preinit_array)
                0x0000000020003400                PROVIDE (__preinit_array_end, .)
                0x0000000020003400                . = ALIGN (0x4)
                0x0000000020003400                PROVIDE (__init_array_start, .)
 *(SORT_BY_NAME(.init_array.*))
 *(.init_array)
 .init_array    0x0000000020003400        0x4 /usr/bin/../lib/gcc/arm-none-eabi/7.2.1/thumb/v7e-m/fpv4-sp/hard/crtbegin.o
                0x0000000020003404                PROVIDE (__init_array_end, .)
                0x0000000020003404                . = ALIGN (0x4)
                [!provide]                        PROVIDE (__fini_array_start, .)
 *(SORT_BY_NAME(.fini_array.*))
 *(.fini_array)
 .fini_array    0x0000000020003404        0x4 /usr/bin/../lib/gcc/arm-none-eabi/7.2.1/thumb/v7e-m/fpv4-sp/hard/crtbegin.o
                [!provide]                        PROVIDE (__fini_array_end, .)
 *(.jcr*)
                0x0000000020003408                . = ALIGN (0x4)
                0x0000000020003408                __data_end__ = .
LOAD /usr/bin/../lib/gcc/arm-none-eabi/7.2.1/thumb/v7e-m/fpv4-sp/hard/crti.o
LOAD /usr/bin/../lib/gcc/arm-none-eabi/7.2.1/thumb/v7e-m/fpv4-sp/hard/crtbegin.o
LOAD /usr/bin/../lib/gcc/arm-none-eabi/7.2.1/../../../../arm-none-eabi/lib/thumb/v7e-m/fpv4-sp/hard/crt0.o
LOAD CMakeFiles/light_switch_client_nrf52832_xxAA_s132_6.0.0.dir/src/main.c.obj
LOAD CMakeFiles/light_switch_client_nrf52832_xxAA_s132_6.0.0.dir/__/__/__/mesh/stack/src/mesh_stack.c.obj
LOAD CMakeFiles/light_switch_client_nrf52832_xxAA_s132_6.0.0.dir/__/__/common/src/mesh_softdevice_init.c.obj
LOAD CMakeFiles/light_switch_client_nrf52832_xxAA_s132_6.0.0.dir/__/__/common/src/mesh_provisionee.c.obj
LOAD CMakeFiles/light_switch_client_nrf52832_xxAA_s132_6.0.0.dir/__/__/common/src/rtt_input.c.obj
LOAD CMakeFiles/light_switch_client_nrf52832_xxAA_s132_6.0.0.dir/__/__/common/src/simple_hal.c.obj
LOAD CMakeFiles/light_switch_client_nrf52832_xxAA_s132_6.0.0.dir/__/__/nrf_mesh_weak.c.obj
LOAD CMakeFiles/light_switch_client_nrf52832_xxAA_s132_6.0.0.dir/__/__/common/src/app_error_weak.c.obj
LOAD CMakeFiles/light_switch_client_nrf52832_xxAA_s132_6.0.0.dir/__/__/common/src/assertion_handler_weak.c.obj
LOAD CMakeFiles/light_switch_client_nrf52832_xxAA_s132_6.0.0.dir/__/__/__/mesh/core/src/internal_event.c.obj
LOAD CMakeFiles/light_switch_client_nrf52832_xxAA_s132_6.0.0.dir/__/__/__/mesh/core/src/nrf_mesh_configure.c.obj
LOAD CMakeFiles/light_switch_client_nrf52832_xxAA_s132_6.0.0.dir/__/__/__/mesh/core/src/aes.c.obj
LOAD CMakeFiles/light_switch_client_nrf52832_xxAA_s132_6.0.0.dir/__/__/__/mesh/core/src/msg_cache.c.obj
LOAD CMakeFiles/light_switch_client_nrf52832_xxAA_s132_6.0.0.dir/__/__/__/mesh/core/src/transport.c.obj
LOAD CMakeFiles/light_switch_client_nrf52832_xxAA_s132_6.0.0.dir/__/__/__/mesh/core/src/event.c.obj
LOAD CMakeFiles/light_switch_client_nrf52832_xxAA_s132_6.0.0.dir/__/__/__/mesh/core/src/packet_buffer.c.obj
LOAD CMakeFiles/light_switch_client_nrf52832_xxAA_s132_6.0.0.dir/__/__/__/mesh/core/src/flash_manager_defrag.c.obj
LOAD CMakeFiles/light_switch_client_nrf52832_xxAA_s132_6.0.0.dir/__/__/__/mesh/core/src/fifo.c.obj
LOAD CMakeFiles/light_switch_client_nrf52832_xxAA_s132_6.0.0.dir/__/__/__/mesh/core/src/nrf_flash.c.obj
LOAD CMakeFiles/light_switch_client_nrf52832_xxAA_s132_6.0.0.dir/__/__/__/mesh/core/src/packet_mgr.c.obj
LOAD CMakeFiles/light_switch_client_nrf52832_xxAA_s132_6.0.0.dir/__/__/__/mesh/core/src/net_state.c.obj
LOAD CMakeFiles/light_switch_client_nrf52832_xxAA_s132_6.0.0.dir/__/__/__/mesh/core/src/mesh_flash.c.obj
LOAD CMakeFiles/light_switch_client_nrf52832_xxAA_s132_6.0.0.dir/__/__/__/mesh/core/src/nrf_mesh_utils.c.obj
LOAD CMakeFiles/light_switch_client_nrf52832_xxAA_s132_6.0.0.dir/__/__/__/mesh/core/src/nrf_mesh.c.obj
LOAD CMakeFiles/light_switch_client_nrf52832_xxAA_s132_6.0.0.dir/__/__/__/mesh/core/src/queue.c.obj
LOAD CMakeFiles/light_switch_client_nrf52832_xxAA_s132_6.0.0.dir/__/__/__/mesh/core/src/hal.c.obj
LOAD CMakeFiles/light_switch_client_nrf52832_xxAA_s132_6.0.0.dir/__/__/__/mesh/core/src/aes_cmac.c.obj
LOAD CMakeFiles/light_switch_client_nrf52832_xxAA_s132_6.0.0.dir/__/__/__/mesh/core/src/timer_scheduler.c.obj
LOAD CMakeFiles/light_switch_client_nrf52832_xxAA_s132_6.0.0.dir/__/__/__/mesh/core/src/timer.c.obj
LOAD CMakeFiles/light_switch_client_nrf52832_xxAA_s132_6.0.0.dir/__/__/__/mesh/core/src/ticker.c.obj
LOAD CMakeFiles/light_switch_client_nrf52832_xxAA_s132_6.0.0.dir/__/__/__/mesh/core/src/rand.c.obj
LOAD CMakeFiles/light_switch_client_nrf52832_xxAA_s132_6.0.0.dir/__/__/__/mesh/core/src/nrf_mesh_opt.c.obj
LOAD CMakeFiles/light_switch_client_nrf52832_xxAA_s132_6.0.0.dir/__/__/__/mesh/core/src/timeslot.c.obj
LOAD CMakeFiles/light_switch_client_nrf52832_xxAA_s132_6.0.0.dir/__/__/__/mesh/core/src/bearer_event.c.obj
LOAD CMakeFiles/light_switch_client_nrf52832_xxAA_s132_6.0.0.dir/__/__/__/mesh/core/src/enc.c.obj
LOAD CMakeFiles/light_switch_client_nrf52832_xxAA_s132_6.0.0.dir/__/__/__/mesh/core/src/network.c.obj
LOAD CMakeFiles/light_switch_client_nrf52832_xxAA_s132_6.0.0.dir/__/__/__/mesh/core/src/net_packet.c.obj
LOAD CMakeFiles/light_switch_client_nrf52832_xxAA_s132_6.0.0.dir/__/__/__/mesh/core/src/msqueue.c.obj
LOAD CMakeFiles/light_switch_client_nrf52832_xxAA_s132_6.0.0.dir/__/__/__/mesh/core/src/nrf_mesh_keygen.c.obj
LOAD CMakeFiles/light_switch_client_nrf52832_xxAA_s132_6.0.0.dir/__/__/__/mesh/core/src/cache.c.obj
LOAD CMakeFiles/light_switch_client_nrf52832_xxAA_s132_6.0.0.dir/__/__/__/mesh/core/src/uri.c.obj
LOAD CMakeFiles/light_switch_client_nrf52832_xxAA_s132_6.0.0.dir/__/__/__/mesh/core/src/list.c.obj
LOAD CMakeFiles/light_switch_client_nrf52832_xxAA_s132_6.0.0.dir/__/__/__/mesh/core/src/log.c.obj
LOAD CMakeFiles/light_switch_client_nrf52832_xxAA_s132_6.0.0.dir/__/__/__/mesh/core/src/flash_manager.c.obj
LOAD CMakeFiles/light_switch_client_nrf52832_xxAA_s132_6.0.0.dir/__/__/__/mesh/core/src/ccm_soft.c.obj
LOAD CMakeFiles/light_switch_client_nrf52832_xxAA_s132_6.0.0.dir/__/__/__/mesh/core/src/toolchain.c.obj
LOAD CMakeFiles/light_switch_client_nrf52832_xxAA_s132_6.0.0.dir/__/__/__/mesh/core/src/replay_cache.c.obj
LOAD CMakeFiles/light_switch_client_nrf52832_xxAA_s132_6.0.0.dir/__/__/__/mesh/core/src/beacon.c.obj
LOAD CMakeFiles/light_switch_client_nrf52832_xxAA_s132_6.0.0.dir/__/__/__/mesh/core/src/flash_manager_internal.c.obj
LOAD CMakeFiles/light_switch_client_nrf52832_xxAA_s132_6.0.0.dir/__/__/__/mesh/core/src/core_tx.c.obj
LOAD CMakeFiles/light_switch_client_nrf52832_xxAA_s132_6.0.0.dir/__/__/__/mesh/core/src/heartbeat.c.obj
LOAD CMakeFiles/light_switch_client_nrf52832_xxAA_s132_6.0.0.dir/__/__/__/mesh/core/src/net_beacon.c.obj
LOAD CMakeFiles/light_switch_client_nrf52832_xxAA_s132_6.0.0.dir/__/__/__/mesh/core/src/fsm.c.obj
LOAD CMakeFiles/light_switch_client_nrf52832_xxAA_s132_6.0.0.dir/__/__/__/mesh/core/src/core_tx_adv.c.obj
LOAD CMakeFiles/light_switch_client_nrf52832_xxAA_s132_6.0.0.dir/__/__/__/mesh/bearer/src/ad_listener.c.obj
LOAD CMakeFiles/light_switch_client_nrf52832_xxAA_s132_6.0.0.dir/__/__/__/mesh/bearer/src/ad_type_filter.c.obj
LOAD CMakeFiles/light_switch_client_nrf52832_xxAA_s132_6.0.0.dir/__/__/__/mesh/bearer/src/adv_packet_filter.c.obj
LOAD CMakeFiles/light_switch_client_nrf52832_xxAA_s132_6.0.0.dir/__/__/__/mesh/bearer/src/advertiser.c.obj
LOAD CMakeFiles/light_switch_client_nrf52832_xxAA_s132_6.0.0.dir/__/__/__/mesh/bearer/src/bearer_handler.c.obj
LOAD CMakeFiles/light_switch_client_nrf52832_xxAA_s132_6.0.0.dir/__/__/__/mesh/bearer/src/broadcast.c.obj
LOAD CMakeFiles/light_switch_client_nrf52832_xxAA_s132_6.0.0.dir/__/__/__/mesh/bearer/src/filter_engine.c.obj
LOAD CMakeFiles/light_switch_client_nrf52832_xxAA_s132_6.0.0.dir/__/__/__/mesh/bearer/src/gap_address_filter.c.obj
LOAD CMakeFiles/light_switch_client_nrf52832_xxAA_s132_6.0.0.dir/__/__/__/mesh/bearer/src/radio_config.c.obj
LOAD CMakeFiles/light_switch_client_nrf52832_xxAA_s132_6.0.0.dir/__/__/__/mesh/bearer/src/rssi_filter.c.obj
LOAD CMakeFiles/light_switch_client_nrf52832_xxAA_s132_6.0.0.dir/__/__/__/mesh/bearer/src/scanner.c.obj
LOAD CMakeFiles/light_switch_client_nrf52832_xxAA_s132_6.0.0.dir/__/__/__/models/simple_on_off/src/simple_on_off_client.c.obj
LOAD CMakeFiles/light_switch_client_nrf52832_xxAA_s132_6.0.0.dir/__/__/__/models/config/src/composition_data.c.obj
LOAD CMakeFiles/light_switch_client_nrf52832_xxAA_s132_6.0.0.dir/__/__/__/models/config/src/config_server.c.obj
LOAD CMakeFiles/light_switch_client_nrf52832_xxAA_s132_6.0.0.dir/__/__/__/models/config/src/packed_index_list.c.obj
LOAD CMakeFiles/light_switch_client_nrf52832_xxAA_s132_6.0.0.dir/__/__/__/models/health/src/health_server.c.obj
LOAD CMakeFiles/light_switch_client_nrf52832_xxAA_s132_6.0.0.dir/__/__/__/mesh/access/src/access_publish.c.obj
LOAD CMakeFiles/light_switch_client_nrf52832_xxAA_s132_6.0.0.dir/__/__/__/mesh/access/src/access.c.obj
LOAD CMakeFiles/light_switch_client_nrf52832_xxAA_s132_6.0.0.dir/__/__/__/mesh/access/src/access_reliable.c.obj
LOAD CMakeFiles/light_switch_client_nrf52832_xxAA_s132_6.0.0.dir/__/__/__/mesh/access/src/device_state_manager.c.obj
LOAD CMakeFiles/light_switch_client_nrf52832_xxAA_s132_6.0.0.dir/__/__/__/mesh/prov/src/prov_provisionee.c.obj
LOAD CMakeFiles/light_switch_client_nrf52832_xxAA_s132_6.0.0.dir/__/__/__/mesh/prov/src/nrf_mesh_prov.c.obj
LOAD CMakeFiles/light_switch_client_nrf52832_xxAA_s132_6.0.0.dir/__/__/__/mesh/prov/src/provisioning.c.obj
LOAD CMakeFiles/light_switch_client_nrf52832_xxAA_s132_6.0.0.dir/__/__/__/mesh/prov/src/prov_beacon.c.obj
LOAD CMakeFiles/light_switch_client_nrf52832_xxAA_s132_6.0.0.dir/__/__/__/mesh/prov/src/prov_utils.c.obj
LOAD CMakeFiles/light_switch_client_nrf52832_xxAA_s132_6.0.0.dir/__/__/__/mesh/prov/src/prov_bearer_adv.c.obj
LOAD CMakeFiles/light_switch_client_nrf52832_xxAA_s132_6.0.0.dir/home/mazzer/work/nordic/sdk/nRF5_SDK_15.0.0/modules/nrfx/mdk/system_nrf52.c.obj
LOAD CMakeFiles/light_switch_client_nrf52832_xxAA_s132_6.0.0.dir/home/mazzer/work/nordic/sdk/nRF5_SDK_15.0.0/modules/nrfx/mdk/gcc_startup_nrf52.S.obj
LOAD CMakeFiles/light_switch_client_nrf52832_xxAA_s132_6.0.0.dir/home/mazzer/work/nordic/sdk/nRF5_SDK_15.0.0/components/libraries/util/app_error.c.obj
LOAD CMakeFiles/light_switch_client_nrf52832_xxAA_s132_6.0.0.dir/home/mazzer/work/nordic/sdk/nRF5_SDK_15.0.0/components/libraries/util/app_error_handler_gcc.c.obj
LOAD ../../../external/rtt/librtt_nrf52832_xxAA.a
LOAD ../../../external/micro-ecc/libuECC_nrf52832_xxAA.a
START GROUP
LOAD /usr/bin/../lib/gcc/arm-none-eabi/7.2.1/thumb/v7e-m/fpv4-sp/hard/libgcc.a
LOAD /usr/bin/../lib/gcc/arm-none-eabi/7.2.1/../../../../arm-none-eabi/lib/thumb/v7e-m/fpv4-sp/hard/libg_nano.a
LOAD /usr/bin/../lib/gcc/arm-none-eabi/7.2.1/../../../../arm-none-eabi/lib/thumb/v7e-m/fpv4-sp/hard/libc_nano.a
END GROUP
START GROUP
LOAD /usr/bin/../lib/gcc/arm-none-eabi/7.2.1/thumb/v7e-m/fpv4-sp/hard/libgcc.a
LOAD /usr/bin/../lib/gcc/arm-none-eabi/7.2.1/../../../../arm-none-eabi/lib/thumb/v7e-m/fpv4-sp/hard/libc_nano.a
END GROUP
LOAD /usr/bin/../lib/gcc/arm-none-eabi/7.2.1/thumb/v7e-m/fpv4-sp/hard/crtend.o
LOAD /usr/bin/../lib/gcc/arm-none-eabi/7.2.1/thumb/v7e-m/fpv4-sp/hard/crtn.o
START GROUP
LOAD /usr/bin/../lib/gcc/arm-none-eabi/7.2.1/thumb/v7e-m/fpv4-sp/hard/libgcc.a
LOAD /usr/bin/../lib/gcc/arm-none-eabi/7.2.1/../../../../arm-none-eabi/lib/thumb/v7e-m/fpv4-sp/hard/libc.a
LOAD /usr/bin/../lib/gcc/arm-none-eabi/7.2.1/../../../../arm-none-eabi/lib/thumb/v7e-m/fpv4-sp/hard/libnosys.a
END GROUP

.igot.plt       0x0000000020003408        0x0 load address 0x0000000000043ff0
 .igot.plt      0x0000000020003408        0x0 /usr/bin/../lib/gcc/arm-none-eabi/7.2.1/thumb/v7e-m/fpv4-sp/hard/crtbegin.o
                0x0000000020003408                . = ALIGN (0x4)

.svc_data       0x0000000020003408        0x0
                [!provide]                        PROVIDE (__start_svc_data, .)
 *(.svc_data)
                [!provide]                        PROVIDE (__stop_svc_data, .)

.fs_data        0x0000000020003408        0x0
                [!provide]                        PROVIDE (__start_fs_data, .)
 *(.fs_data)
                [!provide]                        PROVIDE (__stop_fs_data, .)

.log_dynamic_data
                0x0000000020003408        0x0
                [!provide]                        PROVIDE (__start_log_dynamic_data, .)
 *(.log_dynamic_data)
                [!provide]                        PROVIDE (__stop_log_dynamic_data, .)

.cli_sorted_cmd_ptrs
                0x0000000020003408        0x0
                [!provide]                        PROVIDE (__start_cli_sorted_cmd_ptrs, .)
 *(.cli_sorted_cmd_ptrs)
                [!provide]                        PROVIDE (__stop_cli_sorted_cmd_ptrs, .)

.bss            0x0000000020003408     0x30f0 load address 0x0000000000043ff0
                0x0000000020003408                . = ALIGN (0x4)
                0x0000000020003408                __bss_start__ = .
 *(.bss*)
 .bss           0x0000000020003408       0x1c /usr/bin/../lib/gcc/arm-none-eabi/7.2.1/thumb/v7e-m/fpv4-sp/hard/crtbegin.o
 .bss.m_clients
                0x0000000020003424       0x40 CMakeFiles/light_switch_client_nrf52832_xxAA_s132_6.0.0.dir/src/main.c.obj
 .bss.m_device_provisioned
                0x0000000020003464        0x1 CMakeFiles/light_switch_client_nrf52832_xxAA_s132_6.0.0.dir/src/main.c.obj
 *fill*         0x0000000020003465        0x3 
 .bss.m_health_server
                0x0000000020003468       0x5c CMakeFiles/light_switch_client_nrf52832_xxAA_s132_6.0.0.dir/__/__/__/mesh/stack/src/mesh_stack.c.obj
 .bss.m_init_params
                0x00000000200034c4       0x24 CMakeFiles/light_switch_client_nrf52832_xxAA_s132_6.0.0.dir/__/__/__/mesh/stack/src/mesh_stack.c.obj
 .bss.m_device_provisioned
                0x00000000200034e8        0x1 CMakeFiles/light_switch_client_nrf52832_xxAA_s132_6.0.0.dir/__/__/common/src/mesh_provisionee.c.obj
 *fill*         0x00000000200034e9        0x3 
 .bss.m_params  0x00000000200034ec        0xc CMakeFiles/light_switch_client_nrf52832_xxAA_s132_6.0.0.dir/__/__/common/src/mesh_provisionee.c.obj
 .bss.m_private_key
                0x00000000200034f8       0x20 CMakeFiles/light_switch_client_nrf52832_xxAA_s132_6.0.0.dir/__/__/common/src/mesh_provisionee.c.obj
 .bss.m_prov_bearer_adv
                0x0000000020003518      0x1c4 CMakeFiles/light_switch_client_nrf52832_xxAA_s132_6.0.0.dir/__/__/common/src/mesh_provisionee.c.obj
 .bss.m_prov_ctx
                0x00000000200036dc      0x134 CMakeFiles/light_switch_client_nrf52832_xxAA_s132_6.0.0.dir/__/__/common/src/mesh_provisionee.c.obj
 .bss.m_public_key
                0x0000000020003810       0x40 CMakeFiles/light_switch_client_nrf52832_xxAA_s132_6.0.0.dir/__/__/common/src/mesh_provisionee.c.obj
 .bss.m_rtt_input_handler
                0x0000000020003850        0x4 CMakeFiles/light_switch_client_nrf52832_xxAA_s132_6.0.0.dir/__/__/common/src/rtt_input.c.obj
 .bss.m_button_handler_cb
                0x0000000020003854        0x4 CMakeFiles/light_switch_client_nrf52832_xxAA_s132_6.0.0.dir/__/__/common/src/simple_hal.c.obj
 .bss.m_last_button_press
                0x0000000020003858        0x4 CMakeFiles/light_switch_client_nrf52832_xxAA_s132_6.0.0.dir/__/__/common/src/simple_hal.c.obj
 .bss.m_uuid    0x000000002000385c       0x10 CMakeFiles/light_switch_client_nrf52832_xxAA_s132_6.0.0.dir/__/__/__/mesh/core/src/nrf_mesh_configure.c.obj
 .bss.m_msg_cache
                0x000000002000386c      0x100 CMakeFiles/light_switch_client_nrf52832_xxAA_s132_6.0.0.dir/__/__/__/mesh/core/src/msg_cache.c.obj
 .bss.m_msg_cache_head
                0x000000002000396c        0x4 CMakeFiles/light_switch_client_nrf52832_xxAA_s132_6.0.0.dir/__/__/__/mesh/core/src/msg_cache.c.obj
 .bss.m_control_packet_consumer_count
                0x0000000020003970        0x4 CMakeFiles/light_switch_client_nrf52832_xxAA_s132_6.0.0.dir/__/__/__/mesh/core/src/transport.c.obj
 .bss.m_control_packet_consumers
                0x0000000020003974        0x8 CMakeFiles/light_switch_client_nrf52832_xxAA_s132_6.0.0.dir/__/__/__/mesh/core/src/transport.c.obj
 .bss.m_sar_alloc
                0x000000002000397c        0x4 CMakeFiles/light_switch_client_nrf52832_xxAA_s132_6.0.0.dir/__/__/__/mesh/core/src/transport.c.obj
 .bss.m_sar_process_flag
                0x0000000020003980        0x4 CMakeFiles/light_switch_client_nrf52832_xxAA_s132_6.0.0.dir/__/__/__/mesh/core/src/transport.c.obj
 .bss.m_sar_release
                0x0000000020003984        0x4 CMakeFiles/light_switch_client_nrf52832_xxAA_s132_6.0.0.dir/__/__/__/mesh/core/src/transport.c.obj
 .bss.m_sar_session_cache
                0x0000000020003988       0x40 CMakeFiles/light_switch_client_nrf52832_xxAA_s132_6.0.0.dir/__/__/__/mesh/core/src/transport.c.obj
 .bss.m_sar_session_cache_head
                0x00000000200039c8        0x4 CMakeFiles/light_switch_client_nrf52832_xxAA_s132_6.0.0.dir/__/__/__/mesh/core/src/transport.c.obj
 .bss.m_trs_config
                0x00000000200039cc       0x18 CMakeFiles/light_switch_client_nrf52832_xxAA_s132_6.0.0.dir/__/__/__/mesh/core/src/transport.c.obj
 .bss.m_trs_sar_sessions
                0x00000000200039e4      0x1b0 CMakeFiles/light_switch_client_nrf52832_xxAA_s132_6.0.0.dir/__/__/__/mesh/core/src/transport.c.obj
 .bss.mp_evt_handlers_head
                0x0000000020003b94        0x4 CMakeFiles/light_switch_client_nrf52832_xxAA_s132_6.0.0.dir/__/__/__/mesh/core/src/event.c.obj
 .bss.m_defrag  0x0000000020003b98       0x1c CMakeFiles/light_switch_client_nrf52832_xxAA_s132_6.0.0.dir/__/__/__/mesh/core/src/flash_manager_defrag.c.obj
 .bss.m_token   0x0000000020003bb4        0x2 CMakeFiles/light_switch_client_nrf52832_xxAA_s132_6.0.0.dir/__/__/__/mesh/core/src/flash_manager_defrag.c.obj
 *fill*         0x0000000020003bb6        0x2 
 .bss.mp_recovery_area
                0x0000000020003bb8        0x4 CMakeFiles/light_switch_client_nrf52832_xxAA_s132_6.0.0.dir/__/__/__/mesh/core/src/flash_manager_defrag.c.obj
 .bss.p_null_ptr.10402
                0x0000000020003bbc        0x4 CMakeFiles/light_switch_client_nrf52832_xxAA_s132_6.0.0.dir/__/__/__/mesh/core/src/flash_manager_defrag.c.obj
 .bss.m_pool    0x0000000020003bc0     0x1000 CMakeFiles/light_switch_client_nrf52832_xxAA_s132_6.0.0.dir/__/__/__/mesh/core/src/packet_mgr.c.obj
 .bss.mp_free_head
                0x0000000020004bc0        0x4 CMakeFiles/light_switch_client_nrf52832_xxAA_s132_6.0.0.dir/__/__/__/mesh/core/src/packet_mgr.c.obj
 .bss.iv_state_set.10057
                0x0000000020004bc4        0x1 CMakeFiles/light_switch_client_nrf52832_xxAA_s132_6.0.0.dir/__/__/__/mesh/core/src/net_state.c.obj
 *fill*         0x0000000020004bc5        0x3 
 .bss.lock_count.10033
                0x0000000020004bc8        0x4 CMakeFiles/light_switch_client_nrf52832_xxAA_s132_6.0.0.dir/__/__/__/mesh/core/src/net_state.c.obj
 .bss.m_flash_manager
                0x0000000020004bcc       0x24 CMakeFiles/light_switch_client_nrf52832_xxAA_s132_6.0.0.dir/__/__/__/mesh/core/src/net_state.c.obj
 .bss.m_iv_update_timer
                0x0000000020004bf0       0x18 CMakeFiles/light_switch_client_nrf52832_xxAA_s132_6.0.0.dir/__/__/__/mesh/core/src/net_state.c.obj
 .bss.m_mesh_evt_handler
                0x0000000020004c08        0x8 CMakeFiles/light_switch_client_nrf52832_xxAA_s132_6.0.0.dir/__/__/__/mesh/core/src/net_state.c.obj
 .bss.m_net_state
                0x0000000020004c10       0x14 CMakeFiles/light_switch_client_nrf52832_xxAA_s132_6.0.0.dir/__/__/__/mesh/core/src/net_state.c.obj
 .bss.m_seqnum_allocation_in_progress
                0x0000000020004c24        0x1 CMakeFiles/light_switch_client_nrf52832_xxAA_s132_6.0.0.dir/__/__/__/mesh/core/src/net_state.c.obj
 .bss.m_test_mode
                0x0000000020004c25        0x1 CMakeFiles/light_switch_client_nrf52832_xxAA_s132_6.0.0.dir/__/__/__/mesh/core/src/net_state.c.obj
 *fill*         0x0000000020004c26        0x2 
 .bss.m_event_flag
                0x0000000020004c28        0x4 CMakeFiles/light_switch_client_nrf52832_xxAA_s132_6.0.0.dir/__/__/__/mesh/core/src/mesh_flash.c.obj
 .bss.m_suspended
                0x0000000020004c2c        0x1 CMakeFiles/light_switch_client_nrf52832_xxAA_s132_6.0.0.dir/__/__/__/mesh/core/src/mesh_flash.c.obj
 *fill*         0x0000000020004c2d        0x3 
 .bss.m_users   0x0000000020004c30      0x228 CMakeFiles/light_switch_client_nrf52832_xxAA_s132_6.0.0.dir/__/__/__/mesh/core/src/mesh_flash.c.obj
 .bss.m_is_enabled
                0x0000000020004e58        0x1 CMakeFiles/light_switch_client_nrf52832_xxAA_s132_6.0.0.dir/__/__/__/mesh/core/src/nrf_mesh.c.obj
 .bss.m_is_initialized
                0x0000000020004e59        0x1 CMakeFiles/light_switch_client_nrf52832_xxAA_s132_6.0.0.dir/__/__/__/mesh/core/src/nrf_mesh.c.obj
 *fill*         0x0000000020004e5a        0x2 
 .bss.m_rx_cb   0x0000000020004e5c        0x4 CMakeFiles/light_switch_client_nrf52832_xxAA_s132_6.0.0.dir/__/__/__/mesh/core/src/nrf_mesh.c.obj
 .bss.m_128buf  0x0000000020004e60       0x10 CMakeFiles/light_switch_client_nrf52832_xxAA_s132_6.0.0.dir/__/__/__/mesh/core/src/aes_cmac.c.obj
 .bss.m_subkey1
                0x0000000020004e70       0x10 CMakeFiles/light_switch_client_nrf52832_xxAA_s132_6.0.0.dir/__/__/__/mesh/core/src/aes_cmac.c.obj
 .bss.m_subkey2
                0x0000000020004e80       0x10 CMakeFiles/light_switch_client_nrf52832_xxAA_s132_6.0.0.dir/__/__/__/mesh/core/src/aes_cmac.c.obj
 .bss.m_event_flag
                0x0000000020004e90        0x4 CMakeFiles/light_switch_client_nrf52832_xxAA_s132_6.0.0.dir/__/__/__/mesh/core/src/timer_scheduler.c.obj
 .bss.m_scheduler
                0x0000000020004e94       0x10 CMakeFiles/light_switch_client_nrf52832_xxAA_s132_6.0.0.dir/__/__/__/mesh/core/src/timer_scheduler.c.obj
 .bss.m_attributes
                0x0000000020004ea4        0x3 CMakeFiles/light_switch_client_nrf52832_xxAA_s132_6.0.0.dir/__/__/__/mesh/core/src/timer.c.obj
 *fill*         0x0000000020004ea7        0x1 
 .bss.m_callbacks
                0x0000000020004ea8        0xc CMakeFiles/light_switch_client_nrf52832_xxAA_s132_6.0.0.dir/__/__/__/mesh/core/src/timer.c.obj
 .bss.m_is_in_ts
                0x0000000020004eb4        0x1 CMakeFiles/light_switch_client_nrf52832_xxAA_s132_6.0.0.dir/__/__/__/mesh/core/src/timer.c.obj
 *fill*         0x0000000020004eb5        0x3 
 .bss.m_reference_time
                0x0000000020004eb8        0x4 CMakeFiles/light_switch_client_nrf52832_xxAA_s132_6.0.0.dir/__/__/__/mesh/core/src/timer.c.obj
 .bss.m_timeouts
                0x0000000020004ebc        0xc CMakeFiles/light_switch_client_nrf52832_xxAA_s132_6.0.0.dir/__/__/__/mesh/core/src/timer.c.obj
 .bss.m_timer_mut
                0x0000000020004ec8        0x4 CMakeFiles/light_switch_client_nrf52832_xxAA_s132_6.0.0.dir/__/__/__/mesh/core/src/timer.c.obj
 .bss.m_ts_end_time
                0x0000000020004ecc        0x4 CMakeFiles/light_switch_client_nrf52832_xxAA_s132_6.0.0.dir/__/__/__/mesh/core/src/timer.c.obj
 .bss.mp_ppi_tasks
                0x0000000020004ed0        0xc CMakeFiles/light_switch_client_nrf52832_xxAA_s132_6.0.0.dir/__/__/__/mesh/core/src/timer.c.obj
 .bss.m_current_time
                0x0000000020004edc        0x4 CMakeFiles/light_switch_client_nrf52832_xxAA_s132_6.0.0.dir/__/__/__/mesh/core/src/ticker.c.obj
 .bss.m_timer   0x0000000020004ee0       0x18 CMakeFiles/light_switch_client_nrf52832_xxAA_s132_6.0.0.dir/__/__/__/mesh/core/src/ticker.c.obj
 .bss.m_current_timeslot
                0x0000000020004ef8       0x1c CMakeFiles/light_switch_client_nrf52832_xxAA_s132_6.0.0.dir/__/__/__/mesh/core/src/timeslot.c.obj
 .bss.m_lfclk_ppm
                0x0000000020004f14        0x4 CMakeFiles/light_switch_client_nrf52832_xxAA_s132_6.0.0.dir/__/__/__/mesh/core/src/timeslot.c.obj
 .bss.m_radio_request_earliest
                0x0000000020004f18       0x10 CMakeFiles/light_switch_client_nrf52832_xxAA_s132_6.0.0.dir/__/__/__/mesh/core/src/timeslot.c.obj
 .bss.m_state_lock
                0x0000000020004f28        0x1 CMakeFiles/light_switch_client_nrf52832_xxAA_s132_6.0.0.dir/__/__/__/mesh/core/src/timeslot.c.obj
 .bss.m_timeslot_forced_command
                0x0000000020004f29        0x1 CMakeFiles/light_switch_client_nrf52832_xxAA_s132_6.0.0.dir/__/__/__/mesh/core/src/timeslot.c.obj
 *fill*         0x0000000020004f2a        0x6 
 .bss.s_last_rtc_value.9460
                0x0000000020004f30        0x8 CMakeFiles/light_switch_client_nrf52832_xxAA_s132_6.0.0.dir/__/__/__/mesh/core/src/timeslot.c.obj
 .bss.m_bearer_event_fifo
                0x0000000020004f38       0x14 CMakeFiles/light_switch_client_nrf52832_xxAA_s132_6.0.0.dir/__/__/__/mesh/core/src/bearer_event.c.obj
 .bss.m_bearer_event_fifo_buffer
                0x0000000020004f4c      0x100 CMakeFiles/light_switch_client_nrf52832_xxAA_s132_6.0.0.dir/__/__/__/mesh/core/src/bearer_event.c.obj
 .bss.m_critical
                0x000000002000504c        0x4 CMakeFiles/light_switch_client_nrf52832_xxAA_s132_6.0.0.dir/__/__/__/mesh/core/src/bearer_event.c.obj
 .bss.m_flag_count
                0x0000000020005050        0x4 CMakeFiles/light_switch_client_nrf52832_xxAA_s132_6.0.0.dir/__/__/__/mesh/core/src/bearer_event.c.obj
 .bss.m_flag_event_callbacks
                0x0000000020005054       0x20 CMakeFiles/light_switch_client_nrf52832_xxAA_s132_6.0.0.dir/__/__/__/mesh/core/src/bearer_event.c.obj
 .bss.m_flags   0x0000000020005074        0x4 CMakeFiles/light_switch_client_nrf52832_xxAA_s132_6.0.0.dir/__/__/__/mesh/core/src/bearer_event.c.obj
 .bss.m_irq_priority
                0x0000000020005078        0x1 CMakeFiles/light_switch_client_nrf52832_xxAA_s132_6.0.0.dir/__/__/__/mesh/core/src/bearer_event.c.obj
 *fill*         0x0000000020005079        0x3 
 .bss.m_sequential_event_queue
                0x000000002000507c        0x8 CMakeFiles/light_switch_client_nrf52832_xxAA_s132_6.0.0.dir/__/__/__/mesh/core/src/bearer_event.c.obj
 .bss.s_recursion_guard.9591
                0x0000000020005084        0x1 CMakeFiles/light_switch_client_nrf52832_xxAA_s132_6.0.0.dir/__/__/__/mesh/core/src/bearer_event.c.obj
 *fill*         0x0000000020005085        0x3 
 .bss.m_relay_check_cb
                0x0000000020005088        0x4 CMakeFiles/light_switch_client_nrf52832_xxAA_s132_6.0.0.dir/__/__/__/mesh/core/src/network.c.obj
 .bss.m_relay_enable
                0x000000002000508c        0x1 CMakeFiles/light_switch_client_nrf52832_xxAA_s132_6.0.0.dir/__/__/__/mesh/core/src/network.c.obj
 *fill*         0x000000002000508d        0x3 
 .bss.m_action_queue
                0x0000000020005090        0xc CMakeFiles/light_switch_client_nrf52832_xxAA_s132_6.0.0.dir/__/__/__/mesh/core/src/flash_manager.c.obj
 .bss.m_action_queue_buffer
                0x000000002000509c      0x104 CMakeFiles/light_switch_client_nrf52832_xxAA_s132_6.0.0.dir/__/__/__/mesh/core/src/flash_manager.c.obj
 .bss.m_action_state
                0x00000000200051a0        0x1 CMakeFiles/light_switch_client_nrf52832_xxAA_s132_6.0.0.dir/__/__/__/mesh/core/src/flash_manager.c.obj
 *fill*         0x00000000200051a1        0x3 
 .bss.m_memory_listener_queue
                0x00000000200051a4        0x8 CMakeFiles/light_switch_client_nrf52832_xxAA_s132_6.0.0.dir/__/__/__/mesh/core/src/flash_manager.c.obj
 .bss.m_processing_flag
                0x00000000200051ac        0x4 CMakeFiles/light_switch_client_nrf52832_xxAA_s132_6.0.0.dir/__/__/__/mesh/core/src/flash_manager.c.obj
 .bss.m_queue_empty_cb
                0x00000000200051b0        0x4 CMakeFiles/light_switch_client_nrf52832_xxAA_s132_6.0.0.dir/__/__/__/mesh/core/src/flash_manager.c.obj
 .bss.m_state   0x00000000200051b4        0x1 CMakeFiles/light_switch_client_nrf52832_xxAA_s132_6.0.0.dir/__/__/__/mesh/core/src/flash_manager.c.obj
 *fill*         0x00000000200051b5        0x1 
 .bss.m_token   0x00000000200051b6        0x2 CMakeFiles/light_switch_client_nrf52832_xxAA_s132_6.0.0.dir/__/__/__/mesh/core/src/flash_manager.c.obj
 .bss.p_current.11346
                0x00000000200051b8        0x4 CMakeFiles/light_switch_client_nrf52832_xxAA_s132_6.0.0.dir/__/__/__/mesh/core/src/flash_manager.c.obj
 .bss.result.11347
                0x00000000200051bc        0x1 CMakeFiles/light_switch_client_nrf52832_xxAA_s132_6.0.0.dir/__/__/__/mesh/core/src/flash_manager.c.obj
 .bss.m_cache_index
                0x00000000200051bd        0x1 CMakeFiles/light_switch_client_nrf52832_xxAA_s132_6.0.0.dir/__/__/__/mesh/core/src/replay_cache.c.obj
 *fill*         0x00000000200051be        0x2 
 .bss.m_replay_cache
                0x00000000200051c0      0x200 CMakeFiles/light_switch_client_nrf52832_xxAA_s132_6.0.0.dir/__/__/__/mesh/core/src/replay_cache.c.obj
 .bss.m_bearer_count
                0x00000000200053c0        0x1 CMakeFiles/light_switch_client_nrf52832_xxAA_s132_6.0.0.dir/__/__/__/mesh/core/src/core_tx.c.obj
 *fill*         0x00000000200053c1        0x3 
 .bss.m_tx_complete_callback
                0x00000000200053c4        0x4 CMakeFiles/light_switch_client_nrf52832_xxAA_s132_6.0.0.dir/__/__/__/mesh/core/src/core_tx.c.obj
 .bss.mp_bearers
                0x00000000200053c8        0x4 CMakeFiles/light_switch_client_nrf52832_xxAA_s132_6.0.0.dir/__/__/__/mesh/core/src/core_tx.c.obj
 .bss.m_hb_core_evt_handler
                0x00000000200053cc        0x8 CMakeFiles/light_switch_client_nrf52832_xxAA_s132_6.0.0.dir/__/__/__/mesh/core/src/heartbeat.c.obj
 .bss.m_hb_pending_feat_msg
                0x00000000200053d4        0x1 CMakeFiles/light_switch_client_nrf52832_xxAA_s132_6.0.0.dir/__/__/__/mesh/core/src/heartbeat.c.obj
 .bss.m_hb_pending_pub_msg
                0x00000000200053d5        0x1 CMakeFiles/light_switch_client_nrf52832_xxAA_s132_6.0.0.dir/__/__/__/mesh/core/src/heartbeat.c.obj
 .bss.m_heartbeat_init_done
                0x00000000200053d6        0x1 CMakeFiles/light_switch_client_nrf52832_xxAA_s132_6.0.0.dir/__/__/__/mesh/core/src/heartbeat.c.obj
 *fill*         0x00000000200053d7        0x1 
 .bss.m_heartbeat_subscription
                0x00000000200053d8       0x10 CMakeFiles/light_switch_client_nrf52832_xxAA_s132_6.0.0.dir/__/__/__/mesh/core/src/heartbeat.c.obj
 .bss.m_publication_count_decrement_cb
                0x00000000200053e8        0x4 CMakeFiles/light_switch_client_nrf52832_xxAA_s132_6.0.0.dir/__/__/__/mesh/core/src/heartbeat.c.obj
 .bss.m_publication_get_cb
                0x00000000200053ec        0x4 CMakeFiles/light_switch_client_nrf52832_xxAA_s132_6.0.0.dir/__/__/__/mesh/core/src/heartbeat.c.obj
 .bss.m_publication_timer
                0x00000000200053f0       0x1c CMakeFiles/light_switch_client_nrf52832_xxAA_s132_6.0.0.dir/__/__/__/mesh/core/src/heartbeat.c.obj
 .bss.m_subscription_timer
                0x000000002000540c       0x18 CMakeFiles/light_switch_client_nrf52832_xxAA_s132_6.0.0.dir/__/__/__/mesh/core/src/heartbeat.c.obj
 .bss.m_adv     0x0000000020005424       0x98 CMakeFiles/light_switch_client_nrf52832_xxAA_s132_6.0.0.dir/__/__/__/mesh/core/src/net_beacon.c.obj
 .bss.m_adv_buf
                0x00000000200054bc       0x34 CMakeFiles/light_switch_client_nrf52832_xxAA_s132_6.0.0.dir/__/__/__/mesh/core/src/net_beacon.c.obj
 .bss.m_beacon_salt
                0x00000000200054f0       0x10 CMakeFiles/light_switch_client_nrf52832_xxAA_s132_6.0.0.dir/__/__/__/mesh/core/src/net_beacon.c.obj
 .bss.m_enabled
                0x0000000020005500        0x1 CMakeFiles/light_switch_client_nrf52832_xxAA_s132_6.0.0.dir/__/__/__/mesh/core/src/net_beacon.c.obj
 *fill*         0x0000000020005501        0x3 
 .bss.m_tx_timer
                0x0000000020005504       0x18 CMakeFiles/light_switch_client_nrf52832_xxAA_s132_6.0.0.dir/__/__/__/mesh/core/src/net_beacon.c.obj
 .bss.mp_beacon_info
                0x000000002000551c        0x4 CMakeFiles/light_switch_client_nrf52832_xxAA_s132_6.0.0.dir/__/__/__/mesh/core/src/net_beacon.c.obj
 .bss.m_bearer  0x0000000020005520        0xc CMakeFiles/light_switch_client_nrf52832_xxAA_s132_6.0.0.dir/__/__/__/mesh/core/src/core_tx_adv.c.obj
 .bss.m_bearer_roles
                0x000000002000552c      0x138 CMakeFiles/light_switch_client_nrf52832_xxAA_s132_6.0.0.dir/__/__/__/mesh/core/src/core_tx_adv.c.obj
 .bss.m_current_alloc
                0x0000000020005664        0x8 CMakeFiles/light_switch_client_nrf52832_xxAA_s132_6.0.0.dir/__/__/__/mesh/core/src/core_tx_adv.c.obj
 .bss.m_originator_adv_packet_buffer
                0x000000002000566c      0x100 CMakeFiles/light_switch_client_nrf52832_xxAA_s132_6.0.0.dir/__/__/__/mesh/core/src/core_tx_adv.c.obj
 .bss.m_relay_adv_packet_buffer
                0x000000002000576c       0x80 CMakeFiles/light_switch_client_nrf52832_xxAA_s132_6.0.0.dir/__/__/__/mesh/core/src/core_tx_adv.c.obj
 .bss.m_subscribers
                0x00000000200057ec        0x4 CMakeFiles/light_switch_client_nrf52832_xxAA_s132_6.0.0.dir/__/__/__/mesh/bearer/src/ad_listener.c.obj
 .bss.m_adtype_filter
                0x00000000200057f0       0x38 CMakeFiles/light_switch_client_nrf52832_xxAA_s132_6.0.0.dir/__/__/__/mesh/bearer/src/ad_type_filter.c.obj
 .bss.m_adv_prng
                0x0000000020005828       0x10 CMakeFiles/light_switch_client_nrf52832_xxAA_s132_6.0.0.dir/__/__/__/mesh/bearer/src/advertiser.c.obj
 .bss.m_action_queue
                0x0000000020005838        0x8 CMakeFiles/light_switch_client_nrf52832_xxAA_s132_6.0.0.dir/__/__/__/mesh/bearer/src/bearer_handler.c.obj
 .bss.m_end_time
                0x0000000020005840        0x4 CMakeFiles/light_switch_client_nrf52832_xxAA_s132_6.0.0.dir/__/__/__/mesh/bearer/src/bearer_handler.c.obj
 .bss.m_scanner_is_active
                0x0000000020005844        0x1 CMakeFiles/light_switch_client_nrf52832_xxAA_s132_6.0.0.dir/__/__/__/mesh/bearer/src/bearer_handler.c.obj
 .bss.m_stopped
                0x0000000020005845        0x1 CMakeFiles/light_switch_client_nrf52832_xxAA_s132_6.0.0.dir/__/__/__/mesh/bearer/src/bearer_handler.c.obj
 *fill*         0x0000000020005846        0x2 
 .bss.mp_action
                0x0000000020005848        0x4 CMakeFiles/light_switch_client_nrf52832_xxAA_s132_6.0.0.dir/__/__/__/mesh/bearer/src/bearer_handler.c.obj
 .bss.m_next_channel_index
                0x000000002000584c        0x1 CMakeFiles/light_switch_client_nrf52832_xxAA_s132_6.0.0.dir/__/__/__/mesh/bearer/src/broadcast.c.obj
 *fill*         0x000000002000584d        0x3 
 .bss.m_accepted_amount
                0x0000000020005850        0x4 CMakeFiles/light_switch_client_nrf52832_xxAA_s132_6.0.0.dir/__/__/__/mesh/bearer/src/filter_engine.c.obj
 .bss.m_filter_list_head
                0x0000000020005854        0x4 CMakeFiles/light_switch_client_nrf52832_xxAA_s132_6.0.0.dir/__/__/__/mesh/bearer/src/filter_engine.c.obj
 .bss.m_scanner
                0x0000000020005858      0x290 CMakeFiles/light_switch_client_nrf52832_xxAA_s132_6.0.0.dir/__/__/__/mesh/bearer/src/scanner.c.obj
 .bss.m_tid     0x0000000020005ae8        0x1 CMakeFiles/light_switch_client_nrf52832_xxAA_s132_6.0.0.dir/__/__/__/models/simple_on_off/src/simple_on_off_client.c.obj
 *fill*         0x0000000020005ae9        0x3 
 .bss.m_evt_cb  0x0000000020005aec        0x4 CMakeFiles/light_switch_client_nrf52832_xxAA_s132_6.0.0.dir/__/__/__/models/config/src/config_server.c.obj
 .bss.m_heartbeat_publication
                0x0000000020005af0       0x14 CMakeFiles/light_switch_client_nrf52832_xxAA_s132_6.0.0.dir/__/__/__/models/config/src/config_server.c.obj
 .bss.m_node_reset_pending
                0x0000000020005b04        0x1 CMakeFiles/light_switch_client_nrf52832_xxAA_s132_6.0.0.dir/__/__/__/models/config/src/config_server.c.obj
 *fill*         0x0000000020005b05        0x3 
 .bss.m_attention_timer
                0x0000000020005b08       0x18 CMakeFiles/light_switch_client_nrf52832_xxAA_s132_6.0.0.dir/__/__/__/models/health/src/health_server.c.obj
 .bss.mp_attention_list
                0x0000000020005b20        0x4 CMakeFiles/light_switch_client_nrf52832_xxAA_s132_6.0.0.dir/__/__/__/models/health/src/health_server.c.obj
 .bss.m_publish_timer
                0x0000000020005b24       0x18 CMakeFiles/light_switch_client_nrf52832_xxAA_s132_6.0.0.dir/__/__/__/mesh/access/src/access_publish.c.obj
 .bss.m_publish_timer_counter
                0x0000000020005b3c        0x4 CMakeFiles/light_switch_client_nrf52832_xxAA_s132_6.0.0.dir/__/__/__/mesh/access/src/access_publish.c.obj
 .bss.m_publish_timer_running
                0x0000000020005b40        0x1 CMakeFiles/light_switch_client_nrf52832_xxAA_s132_6.0.0.dir/__/__/__/mesh/access/src/access_publish.c.obj
 .bss.m_timer_resolution
                0x0000000020005b41        0x1 CMakeFiles/light_switch_client_nrf52832_xxAA_s132_6.0.0.dir/__/__/__/mesh/access/src/access_publish.c.obj
 *fill*         0x0000000020005b42        0x2 
 .bss.mp_publication_list
                0x0000000020005b44        0x4 CMakeFiles/light_switch_client_nrf52832_xxAA_s132_6.0.0.dir/__/__/__/mesh/access/src/access_publish.c.obj
 .bss.m_element_pool
                0x0000000020005b48       0x1e CMakeFiles/light_switch_client_nrf52832_xxAA_s132_6.0.0.dir/__/__/__/mesh/access/src/access.c.obj
 *fill*         0x0000000020005b66        0x2 
 .bss.m_evt_handler
                0x0000000020005b68        0x8 CMakeFiles/light_switch_client_nrf52832_xxAA_s132_6.0.0.dir/__/__/__/mesh/access/src/access.c.obj
 .bss.m_flash_manager
                0x0000000020005b70       0x24 CMakeFiles/light_switch_client_nrf52832_xxAA_s132_6.0.0.dir/__/__/__/mesh/access/src/access.c.obj
 .bss.m_flash_not_ready
                0x0000000020005b94        0x1 CMakeFiles/light_switch_client_nrf52832_xxAA_s132_6.0.0.dir/__/__/__/mesh/access/src/access.c.obj
 .bss.m_metadata_stored
                0x0000000020005b95        0x1 CMakeFiles/light_switch_client_nrf52832_xxAA_s132_6.0.0.dir/__/__/__/mesh/access/src/access.c.obj
 *fill*         0x0000000020005b96        0x2 
 .bss.m_model_pool
                0x0000000020005b98      0x138 CMakeFiles/light_switch_client_nrf52832_xxAA_s132_6.0.0.dir/__/__/__/mesh/access/src/access.c.obj
 .bss.m_subscription_list_pool
                0x0000000020005cd0       0x30 CMakeFiles/light_switch_client_nrf52832_xxAA_s132_6.0.0.dir/__/__/__/mesh/access/src/access.c.obj
 .bss.m_reliable
                0x0000000020005d00      0x124 CMakeFiles/light_switch_client_nrf52832_xxAA_s132_6.0.0.dir/__/__/__/mesh/access/src/access_reliable.c.obj
 .bss.m_addr_nonvirtual_allocated
                0x0000000020005e24        0x4 CMakeFiles/light_switch_client_nrf52832_xxAA_s132_6.0.0.dir/__/__/__/mesh/access/src/device_state_manager.c.obj
 .bss.m_addr_nonvirtual_needs_flashing
                0x0000000020005e28        0x4 CMakeFiles/light_switch_client_nrf52832_xxAA_s132_6.0.0.dir/__/__/__/mesh/access/src/device_state_manager.c.obj
 .bss.m_addr_unicast_allocated
                0x0000000020005e2c        0x4 CMakeFiles/light_switch_client_nrf52832_xxAA_s132_6.0.0.dir/__/__/__/mesh/access/src/device_state_manager.c.obj
 .bss.m_addr_unicast_needs_flashing
                0x0000000020005e30        0x4 CMakeFiles/light_switch_client_nrf52832_xxAA_s132_6.0.0.dir/__/__/__/mesh/access/src/device_state_manager.c.obj
 .bss.m_addr_virtual_allocated
                0x0000000020005e34        0x4 CMakeFiles/light_switch_client_nrf52832_xxAA_s132_6.0.0.dir/__/__/__/mesh/access/src/device_state_manager.c.obj
 .bss.m_addr_virtual_needs_flashing
                0x0000000020005e38        0x4 CMakeFiles/light_switch_client_nrf52832_xxAA_s132_6.0.0.dir/__/__/__/mesh/access/src/device_state_manager.c.obj
 .bss.m_addresses
                0x0000000020005e3c       0x1c CMakeFiles/light_switch_client_nrf52832_xxAA_s132_6.0.0.dir/__/__/__/mesh/access/src/device_state_manager.c.obj
 .bss.m_appkey_allocated
                0x0000000020005e58        0x4 CMakeFiles/light_switch_client_nrf52832_xxAA_s132_6.0.0.dir/__/__/__/mesh/access/src/device_state_manager.c.obj
 .bss.m_appkey_needs_flashing
                0x0000000020005e5c        0x4 CMakeFiles/light_switch_client_nrf52832_xxAA_s132_6.0.0.dir/__/__/__/mesh/access/src/device_state_manager.c.obj
 .bss.m_appkeys
                0x0000000020005e60       0x2a CMakeFiles/light_switch_client_nrf52832_xxAA_s132_6.0.0.dir/__/__/__/mesh/access/src/device_state_manager.c.obj
 *fill*         0x0000000020005e8a        0x2 
 .bss.m_devkey_allocated
                0x0000000020005e8c        0x4 CMakeFiles/light_switch_client_nrf52832_xxAA_s132_6.0.0.dir/__/__/__/mesh/access/src/device_state_manager.c.obj
 .bss.m_devkey_needs_flashing
                0x0000000020005e90        0x4 CMakeFiles/light_switch_client_nrf52832_xxAA_s132_6.0.0.dir/__/__/__/mesh/access/src/device_state_manager.c.obj
 .bss.m_devkeys
                0x0000000020005e94       0x16 CMakeFiles/light_switch_client_nrf52832_xxAA_s132_6.0.0.dir/__/__/__/mesh/access/src/device_state_manager.c.obj
 .bss.m_flash_is_available
                0x0000000020005eaa        0x1 CMakeFiles/light_switch_client_nrf52832_xxAA_s132_6.0.0.dir/__/__/__/mesh/access/src/device_state_manager.c.obj
 *fill*         0x0000000020005eab        0x1 
 .bss.m_flash_manager
                0x0000000020005eac       0x24 CMakeFiles/light_switch_client_nrf52832_xxAA_s132_6.0.0.dir/__/__/__/mesh/access/src/device_state_manager.c.obj
 .bss.m_flash_mem_listener_update_all
                0x0000000020005ed0       0x10 CMakeFiles/light_switch_client_nrf52832_xxAA_s132_6.0.0.dir/__/__/__/mesh/access/src/device_state_manager.c.obj
 .bss.m_has_primary_subnet
                0x0000000020005ee0        0x1 CMakeFiles/light_switch_client_nrf52832_xxAA_s132_6.0.0.dir/__/__/__/mesh/access/src/device_state_manager.c.obj
 *fill*         0x0000000020005ee1        0x3 
 .bss.m_local_unicast_addr
                0x0000000020005ee4        0x4 CMakeFiles/light_switch_client_nrf52832_xxAA_s132_6.0.0.dir/__/__/__/mesh/access/src/device_state_manager.c.obj
 .bss.m_mesh_evt_handler
                0x0000000020005ee8        0x8 CMakeFiles/light_switch_client_nrf52832_xxAA_s132_6.0.0.dir/__/__/__/mesh/access/src/device_state_manager.c.obj
 .bss.m_subnet_allocated
                0x0000000020005ef0        0x4 CMakeFiles/light_switch_client_nrf52832_xxAA_s132_6.0.0.dir/__/__/__/mesh/access/src/device_state_manager.c.obj
 .bss.m_subnet_needs_flashing
                0x0000000020005ef4        0x4 CMakeFiles/light_switch_client_nrf52832_xxAA_s132_6.0.0.dir/__/__/__/mesh/access/src/device_state_manager.c.obj
 .bss.m_subnets
                0x0000000020005ef8       0xa8 CMakeFiles/light_switch_client_nrf52832_xxAA_s132_6.0.0.dir/__/__/__/mesh/access/src/device_state_manager.c.obj
 .bss.m_virtual_addresses
                0x0000000020005fa0       0x14 CMakeFiles/light_switch_client_nrf52832_xxAA_s132_6.0.0.dir/__/__/__/mesh/access/src/device_state_manager.c.obj
 .bss.m_event_handler
                0x0000000020005fb4        0x4 CMakeFiles/light_switch_client_nrf52832_xxAA_s132_6.0.0.dir/__/__/__/mesh/prov/src/prov_beacon.c.obj
 .bss.m_offload_ecdh
                0x0000000020005fb8        0x1 CMakeFiles/light_switch_client_nrf52832_xxAA_s132_6.0.0.dir/__/__/__/mesh/prov/src/prov_utils.c.obj
 *fill*         0x0000000020005fb9        0x3 
 .bss.mp_bearer_head
                0x0000000020005fbc        0x4 CMakeFiles/light_switch_client_nrf52832_xxAA_s132_6.0.0.dir/__/__/__/mesh/prov/src/prov_bearer_adv.c.obj
 .bss._acDownBuffer
                0x0000000020005fc0       0x80 ../../../external/rtt/librtt_nrf52832_xxAA.a(SEGGER_RTT.c.obj)
 .bss._acUpBuffer
                0x0000000020006040      0x400 ../../../external/rtt/librtt_nrf52832_xxAA.a(SEGGER_RTT.c.obj)
 .bss.__malloc_free_list
                0x0000000020006440        0x4 /usr/bin/../lib/gcc/arm-none-eabi/7.2.1/../../../../arm-none-eabi/lib/thumb/v7e-m/fpv4-sp/hard/libg_nano.a(lib_a-nano-mallocr.o)
                0x0000000020006440                __malloc_free_list
 .bss.__malloc_sbrk_start
                0x0000000020006444        0x4 /usr/bin/../lib/gcc/arm-none-eabi/7.2.1/../../../../arm-none-eabi/lib/thumb/v7e-m/fpv4-sp/hard/libg_nano.a(lib_a-nano-mallocr.o)
                0x0000000020006444                __malloc_sbrk_start
 .bss.heap_end.5377
                0x0000000020006448        0x4 /usr/bin/../lib/gcc/arm-none-eabi/7.2.1/../../../../arm-none-eabi/lib/thumb/v7e-m/fpv4-sp/hard/libnosys.a(sbrk.o)
 *(COMMON)
 COMMON         0x000000002000644c        0xc CMakeFiles/light_switch_client_nrf52832_xxAA_s132_6.0.0.dir/__/__/common/src/mesh_softdevice_init.c.obj
                0x000000002000644c                nrf_nvic_state
 COMMON         0x0000000020006458       0x24 CMakeFiles/light_switch_client_nrf52832_xxAA_s132_6.0.0.dir/__/__/__/mesh/core/src/core_tx.c.obj
                0x0000000020006458                m_packet
 COMMON         0x000000002000647c       0x78 ../../../external/rtt/librtt_nrf52832_xxAA.a(SEGGER_RTT.c.obj)
                0x000000002000647c                _SEGGER_RTT
 COMMON         0x00000000200064f4        0x4 /usr/bin/../lib/gcc/arm-none-eabi/7.2.1/../../../../arm-none-eabi/lib/thumb/v7e-m/fpv4-sp/hard/libg_nano.a(lib_a-reent.o)
                0x00000000200064f4                errno
                0x00000000200064f8                . = ALIGN (0x4)
                0x00000000200064f8                __bss_end__ = .

.heap           0x00000000200064f8     0x2000
                0x00000000200064f8                __HeapBase = .
                0x00000000200064f8                __end__ = .
                0x00000000200064f8                PROVIDE (end, .)
 *(.heap*)
 .heap          0x00000000200064f8     0x2000 CMakeFiles/light_switch_client_nrf52832_xxAA_s132_6.0.0.dir/home/mazzer/work/nordic/sdk/nRF5_SDK_15.0.0/modules/nrfx/mdk/gcc_startup_nrf52.S.obj
                0x00000000200084f8                __HeapLimit = .

.stack_dummy    0x00000000200064f8     0x2000
 *(.stack*)
 .stack         0x00000000200064f8     0x2000 CMakeFiles/light_switch_client_nrf52832_xxAA_s132_6.0.0.dir/home/mazzer/work/nordic/sdk/nRF5_SDK_15.0.0/modules/nrfx/mdk/gcc_startup_nrf52.S.obj
                0x000000002000fd00                __StackTop = (ORIGIN (RAM) + LENGTH (RAM))
                0x000000002000dd00                __StackLimit = (__StackTop - SIZEOF (.stack_dummy))
                0x000000002000fd00                PROVIDE (__stack, __StackTop)
                0x0000000000000001                ASSERT ((__StackLimit >= __HeapLimit), region RAM overflowed with stack)
                0x0000000000000140                DataInitFlashUsed = (__bss_start__ - __data_start__)
                0x000000000001deb0                CodeFlashUsed = (__etext - ORIGIN (FLASH))
                0x000000000001dff0                TotalFlashUsed = (CodeFlashUsed + DataInitFlashUsed)
                0x0000000000000001                ASSERT ((TotalFlashUsed <= LENGTH (FLASH)), region FLASH overflowed with .data and user data)
OUTPUT(light_switch_client_nrf52832_xxAA_s132_6.0.0.elf elf32-littlearm)

.ARM.attributes
                0x0000000000000000       0x30
 .ARM.attributes
                0x0000000000000000       0x22 /usr/bin/../lib/gcc/arm-none-eabi/7.2.1/thumb/v7e-m/fpv4-sp/hard/crti.o
 .ARM.attributes
                0x0000000000000022       0x34 /usr/bin/../lib/gcc/arm-none-eabi/7.2.1/thumb/v7e-m/fpv4-sp/hard/crtbegin.o
 .ARM.attributes
                0x0000000000000056       0x20 /usr/bin/../lib/gcc/arm-none-eabi/7.2.1/../../../../arm-none-eabi/lib/thumb/v7e-m/fpv4-sp/hard/crt0.o
 .ARM.attributes
                0x0000000000000076       0x39 CMakeFiles/light_switch_client_nrf52832_xxAA_s132_6.0.0.dir/src/main.c.obj
 .ARM.attributes
                0x00000000000000af       0x39 CMakeFiles/light_switch_client_nrf52832_xxAA_s132_6.0.0.dir/__/__/__/mesh/stack/src/mesh_stack.c.obj
 .ARM.attributes
                0x00000000000000e8       0x39 CMakeFiles/light_switch_client_nrf52832_xxAA_s132_6.0.0.dir/__/__/common/src/mesh_softdevice_init.c.obj
 .ARM.attributes
                0x0000000000000121       0x39 CMakeFiles/light_switch_client_nrf52832_xxAA_s132_6.0.0.dir/__/__/common/src/mesh_provisionee.c.obj
 .ARM.attributes
                0x000000000000015a       0x39 CMakeFiles/light_switch_client_nrf52832_xxAA_s132_6.0.0.dir/__/__/common/src/rtt_input.c.obj
 .ARM.attributes
                0x0000000000000193       0x39 CMakeFiles/light_switch_client_nrf52832_xxAA_s132_6.0.0.dir/__/__/common/src/simple_hal.c.obj
 .ARM.attributes
                0x00000000000001cc       0x39 CMakeFiles/light_switch_client_nrf52832_xxAA_s132_6.0.0.dir/__/__/nrf_mesh_weak.c.obj
 .ARM.attributes
                0x0000000000000205       0x39 CMakeFiles/light_switch_client_nrf52832_xxAA_s132_6.0.0.dir/__/__/common/src/app_error_weak.c.obj
 .ARM.attributes
                0x000000000000023e       0x39 CMakeFiles/light_switch_client_nrf52832_xxAA_s132_6.0.0.dir/__/__/common/src/assertion_handler_weak.c.obj
 .ARM.attributes
                0x0000000000000277       0x39 CMakeFiles/light_switch_client_nrf52832_xxAA_s132_6.0.0.dir/__/__/__/mesh/core/src/nrf_mesh_configure.c.obj
 .ARM.attributes
                0x00000000000002b0       0x39 CMakeFiles/light_switch_client_nrf52832_xxAA_s132_6.0.0.dir/__/__/__/mesh/core/src/aes.c.obj
 .ARM.attributes
                0x00000000000002e9       0x39 CMakeFiles/light_switch_client_nrf52832_xxAA_s132_6.0.0.dir/__/__/__/mesh/core/src/msg_cache.c.obj
 .ARM.attributes
                0x0000000000000322       0x39 CMakeFiles/light_switch_client_nrf52832_xxAA_s132_6.0.0.dir/__/__/__/mesh/core/src/transport.c.obj
 .ARM.attributes
                0x000000000000035b       0x39 CMakeFiles/light_switch_client_nrf52832_xxAA_s132_6.0.0.dir/__/__/__/mesh/core/src/event.c.obj
 .ARM.attributes
                0x0000000000000394       0x39 CMakeFiles/light_switch_client_nrf52832_xxAA_s132_6.0.0.dir/__/__/__/mesh/core/src/packet_buffer.c.obj
 .ARM.attributes
                0x00000000000003cd       0x39 CMakeFiles/light_switch_client_nrf52832_xxAA_s132_6.0.0.dir/__/__/__/mesh/core/src/flash_manager_defrag.c.obj
 .ARM.attributes
                0x0000000000000406       0x39 CMakeFiles/light_switch_client_nrf52832_xxAA_s132_6.0.0.dir/__/__/__/mesh/core/src/fifo.c.obj
 .ARM.attributes
                0x000000000000043f       0x39 CMakeFiles/light_switch_client_nrf52832_xxAA_s132_6.0.0.dir/__/__/__/mesh/core/src/nrf_flash.c.obj
 .ARM.attributes
                0x0000000000000478       0x39 CMakeFiles/light_switch_client_nrf52832_xxAA_s132_6.0.0.dir/__/__/__/mesh/core/src/packet_mgr.c.obj
 .ARM.attributes
                0x00000000000004b1       0x39 CMakeFiles/light_switch_client_nrf52832_xxAA_s132_6.0.0.dir/__/__/__/mesh/core/src/net_state.c.obj
 .ARM.attributes
                0x00000000000004ea       0x39 CMakeFiles/light_switch_client_nrf52832_xxAA_s132_6.0.0.dir/__/__/__/mesh/core/src/mesh_flash.c.obj
 .ARM.attributes
                0x0000000000000523       0x39 CMakeFiles/light_switch_client_nrf52832_xxAA_s132_6.0.0.dir/__/__/__/mesh/core/src/nrf_mesh_utils.c.obj
 .ARM.attributes
                0x000000000000055c       0x39 CMakeFiles/light_switch_client_nrf52832_xxAA_s132_6.0.0.dir/__/__/__/mesh/core/src/nrf_mesh.c.obj
 .ARM.attributes
                0x0000000000000595       0x39 CMakeFiles/light_switch_client_nrf52832_xxAA_s132_6.0.0.dir/__/__/__/mesh/core/src/queue.c.obj
 .ARM.attributes
                0x00000000000005ce       0x39 CMakeFiles/light_switch_client_nrf52832_xxAA_s132_6.0.0.dir/__/__/__/mesh/core/src/hal.c.obj
 .ARM.attributes
                0x0000000000000607       0x39 CMakeFiles/light_switch_client_nrf52832_xxAA_s132_6.0.0.dir/__/__/__/mesh/core/src/aes_cmac.c.obj
 .ARM.attributes
                0x0000000000000640       0x39 CMakeFiles/light_switch_client_nrf52832_xxAA_s132_6.0.0.dir/__/__/__/mesh/core/src/timer_scheduler.c.obj
 .ARM.attributes
                0x0000000000000679       0x39 CMakeFiles/light_switch_client_nrf52832_xxAA_s132_6.0.0.dir/__/__/__/mesh/core/src/timer.c.obj
 .ARM.attributes
                0x00000000000006b2       0x39 CMakeFiles/light_switch_client_nrf52832_xxAA_s132_6.0.0.dir/__/__/__/mesh/core/src/ticker.c.obj
 .ARM.attributes
                0x00000000000006eb       0x39 CMakeFiles/light_switch_client_nrf52832_xxAA_s132_6.0.0.dir/__/__/__/mesh/core/src/rand.c.obj
 .ARM.attributes
                0x0000000000000724       0x39 CMakeFiles/light_switch_client_nrf52832_xxAA_s132_6.0.0.dir/__/__/__/mesh/core/src/nrf_mesh_opt.c.obj
 .ARM.attributes
                0x000000000000075d       0x39 CMakeFiles/light_switch_client_nrf52832_xxAA_s132_6.0.0.dir/__/__/__/mesh/core/src/timeslot.c.obj
 .ARM.attributes
                0x0000000000000796       0x39 CMakeFiles/light_switch_client_nrf52832_xxAA_s132_6.0.0.dir/__/__/__/mesh/core/src/bearer_event.c.obj
 .ARM.attributes
                0x00000000000007cf       0x39 CMakeFiles/light_switch_client_nrf52832_xxAA_s132_6.0.0.dir/__/__/__/mesh/core/src/enc.c.obj
 .ARM.attributes
                0x0000000000000808       0x39 CMakeFiles/light_switch_client_nrf52832_xxAA_s132_6.0.0.dir/__/__/__/mesh/core/src/network.c.obj
 .ARM.attributes
                0x0000000000000841       0x39 CMakeFiles/light_switch_client_nrf52832_xxAA_s132_6.0.0.dir/__/__/__/mesh/core/src/net_packet.c.obj
 .ARM.attributes
                0x000000000000087a       0x39 CMakeFiles/light_switch_client_nrf52832_xxAA_s132_6.0.0.dir/__/__/__/mesh/core/src/msqueue.c.obj
 .ARM.attributes
                0x00000000000008b3       0x39 CMakeFiles/light_switch_client_nrf52832_xxAA_s132_6.0.0.dir/__/__/__/mesh/core/src/nrf_mesh_keygen.c.obj
 .ARM.attributes
                0x00000000000008ec       0x39 CMakeFiles/light_switch_client_nrf52832_xxAA_s132_6.0.0.dir/__/__/__/mesh/core/src/list.c.obj
 .ARM.attributes
                0x0000000000000925       0x39 CMakeFiles/light_switch_client_nrf52832_xxAA_s132_6.0.0.dir/__/__/__/mesh/core/src/log.c.obj
 .ARM.attributes
                0x000000000000095e       0x39 CMakeFiles/light_switch_client_nrf52832_xxAA_s132_6.0.0.dir/__/__/__/mesh/core/src/flash_manager.c.obj
 .ARM.attributes
                0x0000000000000997       0x39 CMakeFiles/light_switch_client_nrf52832_xxAA_s132_6.0.0.dir/__/__/__/mesh/core/src/ccm_soft.c.obj
 .ARM.attributes
                0x00000000000009d0       0x39 CMakeFiles/light_switch_client_nrf52832_xxAA_s132_6.0.0.dir/__/__/__/mesh/core/src/replay_cache.c.obj
 .ARM.attributes
                0x0000000000000a09       0x39 CMakeFiles/light_switch_client_nrf52832_xxAA_s132_6.0.0.dir/__/__/__/mesh/core/src/beacon.c.obj
 .ARM.attributes
                0x0000000000000a42       0x39 CMakeFiles/light_switch_client_nrf52832_xxAA_s132_6.0.0.dir/__/__/__/mesh/core/src/flash_manager_internal.c.obj
 .ARM.attributes
                0x0000000000000a7b       0x39 CMakeFiles/light_switch_client_nrf52832_xxAA_s132_6.0.0.dir/__/__/__/mesh/core/src/core_tx.c.obj
 .ARM.attributes
                0x0000000000000ab4       0x39 CMakeFiles/light_switch_client_nrf52832_xxAA_s132_6.0.0.dir/__/__/__/mesh/core/src/heartbeat.c.obj
 .ARM.attributes
                0x0000000000000aed       0x39 CMakeFiles/light_switch_client_nrf52832_xxAA_s132_6.0.0.dir/__/__/__/mesh/core/src/net_beacon.c.obj
 .ARM.attributes
                0x0000000000000b26       0x39 CMakeFiles/light_switch_client_nrf52832_xxAA_s132_6.0.0.dir/__/__/__/mesh/core/src/core_tx_adv.c.obj
 .ARM.attributes
                0x0000000000000b5f       0x39 CMakeFiles/light_switch_client_nrf52832_xxAA_s132_6.0.0.dir/__/__/__/mesh/bearer/src/ad_listener.c.obj
 .ARM.attributes
                0x0000000000000b98       0x39 CMakeFiles/light_switch_client_nrf52832_xxAA_s132_6.0.0.dir/__/__/__/mesh/bearer/src/ad_type_filter.c.obj
 .ARM.attributes
                0x0000000000000bd1       0x39 CMakeFiles/light_switch_client_nrf52832_xxAA_s132_6.0.0.dir/__/__/__/mesh/bearer/src/advertiser.c.obj
 .ARM.attributes
                0x0000000000000c0a       0x39 CMakeFiles/light_switch_client_nrf52832_xxAA_s132_6.0.0.dir/__/__/__/mesh/bearer/src/bearer_handler.c.obj
 .ARM.attributes
                0x0000000000000c43       0x39 CMakeFiles/light_switch_client_nrf52832_xxAA_s132_6.0.0.dir/__/__/__/mesh/bearer/src/broadcast.c.obj
 .ARM.attributes
                0x0000000000000c7c       0x39 CMakeFiles/light_switch_client_nrf52832_xxAA_s132_6.0.0.dir/__/__/__/mesh/bearer/src/filter_engine.c.obj
 .ARM.attributes
                0x0000000000000cb5       0x39 CMakeFiles/light_switch_client_nrf52832_xxAA_s132_6.0.0.dir/__/__/__/mesh/bearer/src/radio_config.c.obj
 .ARM.attributes
                0x0000000000000cee       0x39 CMakeFiles/light_switch_client_nrf52832_xxAA_s132_6.0.0.dir/__/__/__/mesh/bearer/src/scanner.c.obj
 .ARM.attributes
                0x0000000000000d27       0x39 CMakeFiles/light_switch_client_nrf52832_xxAA_s132_6.0.0.dir/__/__/__/models/simple_on_off/src/simple_on_off_client.c.obj
 .ARM.attributes
                0x0000000000000d60       0x39 CMakeFiles/light_switch_client_nrf52832_xxAA_s132_6.0.0.dir/__/__/__/models/config/src/composition_data.c.obj
 .ARM.attributes
                0x0000000000000d99       0x39 CMakeFiles/light_switch_client_nrf52832_xxAA_s132_6.0.0.dir/__/__/__/models/config/src/config_server.c.obj
 .ARM.attributes
                0x0000000000000dd2       0x39 CMakeFiles/light_switch_client_nrf52832_xxAA_s132_6.0.0.dir/__/__/__/models/config/src/packed_index_list.c.obj
 .ARM.attributes
                0x0000000000000e0b       0x39 CMakeFiles/light_switch_client_nrf52832_xxAA_s132_6.0.0.dir/__/__/__/models/health/src/health_server.c.obj
 .ARM.attributes
                0x0000000000000e44       0x39 CMakeFiles/light_switch_client_nrf52832_xxAA_s132_6.0.0.dir/__/__/__/mesh/access/src/access_publish.c.obj
 .ARM.attributes
                0x0000000000000e7d       0x39 CMakeFiles/light_switch_client_nrf52832_xxAA_s132_6.0.0.dir/__/__/__/mesh/access/src/access.c.obj
 .ARM.attributes
                0x0000000000000eb6       0x39 CMakeFiles/light_switch_client_nrf52832_xxAA_s132_6.0.0.dir/__/__/__/mesh/access/src/access_reliable.c.obj
 .ARM.attributes
                0x0000000000000eef       0x39 CMakeFiles/light_switch_client_nrf52832_xxAA_s132_6.0.0.dir/__/__/__/mesh/access/src/device_state_manager.c.obj
 .ARM.attributes
                0x0000000000000f28       0x39 CMakeFiles/light_switch_client_nrf52832_xxAA_s132_6.0.0.dir/__/__/__/mesh/prov/src/prov_provisionee.c.obj
 .ARM.attributes
                0x0000000000000f61       0x39 CMakeFiles/light_switch_client_nrf52832_xxAA_s132_6.0.0.dir/__/__/__/mesh/prov/src/nrf_mesh_prov.c.obj
 .ARM.attributes
                0x0000000000000f9a       0x39 CMakeFiles/light_switch_client_nrf52832_xxAA_s132_6.0.0.dir/__/__/__/mesh/prov/src/provisioning.c.obj
 .ARM.attributes
                0x0000000000000fd3       0x39 CMakeFiles/light_switch_client_nrf52832_xxAA_s132_6.0.0.dir/__/__/__/mesh/prov/src/prov_beacon.c.obj
 .ARM.attributes
                0x000000000000100c       0x39 CMakeFiles/light_switch_client_nrf52832_xxAA_s132_6.0.0.dir/__/__/__/mesh/prov/src/prov_utils.c.obj
 .ARM.attributes
                0x0000000000001045       0x39 CMakeFiles/light_switch_client_nrf52832_xxAA_s132_6.0.0.dir/__/__/__/mesh/prov/src/prov_bearer_adv.c.obj
 .ARM.attributes
                0x000000000000107e       0x39 CMakeFiles/light_switch_client_nrf52832_xxAA_s132_6.0.0.dir/home/mazzer/work/nordic/sdk/nRF5_SDK_15.0.0/modules/nrfx/mdk/system_nrf52.c.obj
 .ARM.attributes
                0x00000000000010b7       0x20 CMakeFiles/light_switch_client_nrf52832_xxAA_s132_6.0.0.dir/home/mazzer/work/nordic/sdk/nRF5_SDK_15.0.0/modules/nrfx/mdk/gcc_startup_nrf52.S.obj
 .ARM.attributes
                0x00000000000010d7       0x39 CMakeFiles/light_switch_client_nrf52832_xxAA_s132_6.0.0.dir/home/mazzer/work/nordic/sdk/nRF5_SDK_15.0.0/components/libraries/util/app_error.c.obj
 .ARM.attributes
                0x0000000000001110       0x39 CMakeFiles/light_switch_client_nrf52832_xxAA_s132_6.0.0.dir/home/mazzer/work/nordic/sdk/nRF5_SDK_15.0.0/components/libraries/util/app_error_handler_gcc.c.obj
 .ARM.attributes
                0x0000000000001149       0x39 ../../../external/rtt/librtt_nrf52832_xxAA.a(SEGGER_RTT.c.obj)
 .ARM.attributes
                0x0000000000001182       0x39 ../../../external/rtt/librtt_nrf52832_xxAA.a(SEGGER_RTT_printf.c.obj)
 .ARM.attributes
                0x00000000000011bb       0x39 ../../../external/micro-ecc/libuECC_nrf52832_xxAA.a(uECC.c.obj)
 .ARM.attributes
                0x00000000000011f4       0x22 /usr/bin/../lib/gcc/arm-none-eabi/7.2.1/thumb/v7e-m/fpv4-sp/hard/libgcc.a(_aeabi_uldivmod.o)
 .ARM.attributes
                0x0000000000001216       0x34 /usr/bin/../lib/gcc/arm-none-eabi/7.2.1/thumb/v7e-m/fpv4-sp/hard/libgcc.a(_udivmoddi4.o)
 .ARM.attributes
                0x000000000000124a       0x22 /usr/bin/../lib/gcc/arm-none-eabi/7.2.1/thumb/v7e-m/fpv4-sp/hard/libgcc.a(_dvmd_tls.o)
 .ARM.attributes
                0x000000000000126c       0x34 /usr/bin/../lib/gcc/arm-none-eabi/7.2.1/../../../../arm-none-eabi/lib/thumb/v7e-m/fpv4-sp/hard/libg_nano.a(lib_a-exit.o)
 .ARM.attributes
                0x00000000000012a0       0x34 /usr/bin/../lib/gcc/arm-none-eabi/7.2.1/../../../../arm-none-eabi/lib/thumb/v7e-m/fpv4-sp/hard/libg_nano.a(lib_a-impure.o)
 .ARM.attributes
                0x00000000000012d4       0x34 /usr/bin/../lib/gcc/arm-none-eabi/7.2.1/../../../../arm-none-eabi/lib/thumb/v7e-m/fpv4-sp/hard/libg_nano.a(lib_a-init.o)
 .ARM.attributes
                0x0000000000001308       0x34 /usr/bin/../lib/gcc/arm-none-eabi/7.2.1/../../../../arm-none-eabi/lib/thumb/v7e-m/fpv4-sp/hard/libg_nano.a(lib_a-malloc.o)
 .ARM.attributes
                0x000000000000133c       0x34 /usr/bin/../lib/gcc/arm-none-eabi/7.2.1/../../../../arm-none-eabi/lib/thumb/v7e-m/fpv4-sp/hard/libg_nano.a(lib_a-memcmp.o)
 .ARM.attributes
                0x0000000000001370       0x34 /usr/bin/../lib/gcc/arm-none-eabi/7.2.1/../../../../arm-none-eabi/lib/thumb/v7e-m/fpv4-sp/hard/libg_nano.a(lib_a-memcpy-stub.o)
 .ARM.attributes
                0x00000000000013a4       0x34 /usr/bin/../lib/gcc/arm-none-eabi/7.2.1/../../../../arm-none-eabi/lib/thumb/v7e-m/fpv4-sp/hard/libg_nano.a(lib_a-memset.o)
 .ARM.attributes
                0x00000000000013d8       0x34 /usr/bin/../lib/gcc/arm-none-eabi/7.2.1/../../../../arm-none-eabi/lib/thumb/v7e-m/fpv4-sp/hard/libg_nano.a(lib_a-nano-freer.o)
 .ARM.attributes
                0x000000000000140c       0x34 /usr/bin/../lib/gcc/arm-none-eabi/7.2.1/../../../../arm-none-eabi/lib/thumb/v7e-m/fpv4-sp/hard/libg_nano.a(lib_a-nano-mallocr.o)
 .ARM.attributes
                0x0000000000001440       0x34 /usr/bin/../lib/gcc/arm-none-eabi/7.2.1/../../../../arm-none-eabi/lib/thumb/v7e-m/fpv4-sp/hard/libg_nano.a(lib_a-sbrkr.o)
 .ARM.attributes
                0x0000000000001474       0x34 /usr/bin/../lib/gcc/arm-none-eabi/7.2.1/../../../../arm-none-eabi/lib/thumb/v7e-m/fpv4-sp/hard/libg_nano.a(lib_a-strcpy.o)
 .ARM.attributes
                0x00000000000014a8       0x1b /usr/bin/../lib/gcc/arm-none-eabi/7.2.1/../../../../arm-none-eabi/lib/thumb/v7e-m/fpv4-sp/hard/libg_nano.a(lib_a-strlen.o)
 .ARM.attributes
                0x00000000000014c3       0x34 /usr/bin/../lib/gcc/arm-none-eabi/7.2.1/../../../../arm-none-eabi/lib/thumb/v7e-m/fpv4-sp/hard/libg_nano.a(lib_a-strrchr.o)
 .ARM.attributes
                0x00000000000014f7       0x34 /usr/bin/../lib/gcc/arm-none-eabi/7.2.1/../../../../arm-none-eabi/lib/thumb/v7e-m/fpv4-sp/hard/libg_nano.a(lib_a-mlock.o)
 .ARM.attributes
                0x000000000000152b       0x34 /usr/bin/../lib/gcc/arm-none-eabi/7.2.1/../../../../arm-none-eabi/lib/thumb/v7e-m/fpv4-sp/hard/libg_nano.a(lib_a-reent.o)
 .ARM.attributes
                0x000000000000155f       0x34 /usr/bin/../lib/gcc/arm-none-eabi/7.2.1/../../../../arm-none-eabi/lib/thumb/v7e-m/fpv4-sp/hard/libg_nano.a(lib_a-strchr.o)
 .ARM.attributes
                0x0000000000001593       0x34 /usr/bin/../lib/gcc/arm-none-eabi/7.2.1/thumb/v7e-m/fpv4-sp/hard/crtend.o
 .ARM.attributes
                0x00000000000015c7       0x22 /usr/bin/../lib/gcc/arm-none-eabi/7.2.1/thumb/v7e-m/fpv4-sp/hard/crtn.o
 .ARM.attributes
                0x00000000000015e9       0x34 /usr/bin/../lib/gcc/arm-none-eabi/7.2.1/../../../../arm-none-eabi/lib/thumb/v7e-m/fpv4-sp/hard/libnosys.a(sbrk.o)
 .ARM.attributes
                0x000000000000161d       0x34 /usr/bin/../lib/gcc/arm-none-eabi/7.2.1/../../../../arm-none-eabi/lib/thumb/v7e-m/fpv4-sp/hard/libnosys.a(_exit.o)

.comment        0x0000000000000000       0x7e
 .comment       0x0000000000000000       0x7e CMakeFiles/light_switch_client_nrf52832_xxAA_s132_6.0.0.dir/src/main.c.obj
                                         0x7f (size before relaxing)
 .comment       0x000000000000007e       0x7f CMakeFiles/light_switch_client_nrf52832_xxAA_s132_6.0.0.dir/__/__/__/mesh/stack/src/mesh_stack.c.obj
 .comment       0x000000000000007e       0x7f CMakeFiles/light_switch_client_nrf52832_xxAA_s132_6.0.0.dir/__/__/common/src/mesh_softdevice_init.c.obj
 .comment       0x000000000000007e       0x7f CMakeFiles/light_switch_client_nrf52832_xxAA_s132_6.0.0.dir/__/__/common/src/mesh_provisionee.c.obj
 .comment       0x000000000000007e       0x7f CMakeFiles/light_switch_client_nrf52832_xxAA_s132_6.0.0.dir/__/__/common/src/rtt_input.c.obj
 .comment       0x000000000000007e       0x7f CMakeFiles/light_switch_client_nrf52832_xxAA_s132_6.0.0.dir/__/__/common/src/simple_hal.c.obj
 .comment       0x000000000000007e       0x7f CMakeFiles/light_switch_client_nrf52832_xxAA_s132_6.0.0.dir/__/__/nrf_mesh_weak.c.obj
 .comment       0x000000000000007e       0x7f CMakeFiles/light_switch_client_nrf52832_xxAA_s132_6.0.0.dir/__/__/common/src/app_error_weak.c.obj
 .comment       0x000000000000007e       0x7f CMakeFiles/light_switch_client_nrf52832_xxAA_s132_6.0.0.dir/__/__/common/src/assertion_handler_weak.c.obj
 .comment       0x000000000000007e       0x7f CMakeFiles/light_switch_client_nrf52832_xxAA_s132_6.0.0.dir/__/__/__/mesh/core/src/nrf_mesh_configure.c.obj
 .comment       0x000000000000007e       0x7f CMakeFiles/light_switch_client_nrf52832_xxAA_s132_6.0.0.dir/__/__/__/mesh/core/src/aes.c.obj
 .comment       0x000000000000007e       0x7f CMakeFiles/light_switch_client_nrf52832_xxAA_s132_6.0.0.dir/__/__/__/mesh/core/src/msg_cache.c.obj
 .comment       0x000000000000007e       0x7f CMakeFiles/light_switch_client_nrf52832_xxAA_s132_6.0.0.dir/__/__/__/mesh/core/src/transport.c.obj
 .comment       0x000000000000007e       0x7f CMakeFiles/light_switch_client_nrf52832_xxAA_s132_6.0.0.dir/__/__/__/mesh/core/src/event.c.obj
 .comment       0x000000000000007e       0x7f CMakeFiles/light_switch_client_nrf52832_xxAA_s132_6.0.0.dir/__/__/__/mesh/core/src/packet_buffer.c.obj
 .comment       0x000000000000007e       0x7f CMakeFiles/light_switch_client_nrf52832_xxAA_s132_6.0.0.dir/__/__/__/mesh/core/src/flash_manager_defrag.c.obj
 .comment       0x000000000000007e       0x7f CMakeFiles/light_switch_client_nrf52832_xxAA_s132_6.0.0.dir/__/__/__/mesh/core/src/fifo.c.obj
 .comment       0x000000000000007e       0x7f CMakeFiles/light_switch_client_nrf52832_xxAA_s132_6.0.0.dir/__/__/__/mesh/core/src/nrf_flash.c.obj
 .comment       0x000000000000007e       0x7f CMakeFiles/light_switch_client_nrf52832_xxAA_s132_6.0.0.dir/__/__/__/mesh/core/src/packet_mgr.c.obj
 .comment       0x000000000000007e       0x7f CMakeFiles/light_switch_client_nrf52832_xxAA_s132_6.0.0.dir/__/__/__/mesh/core/src/net_state.c.obj
 .comment       0x000000000000007e       0x7f CMakeFiles/light_switch_client_nrf52832_xxAA_s132_6.0.0.dir/__/__/__/mesh/core/src/mesh_flash.c.obj
 .comment       0x000000000000007e       0x7f CMakeFiles/light_switch_client_nrf52832_xxAA_s132_6.0.0.dir/__/__/__/mesh/core/src/nrf_mesh_utils.c.obj
 .comment       0x000000000000007e       0x7f CMakeFiles/light_switch_client_nrf52832_xxAA_s132_6.0.0.dir/__/__/__/mesh/core/src/nrf_mesh.c.obj
 .comment       0x000000000000007e       0x7f CMakeFiles/light_switch_client_nrf52832_xxAA_s132_6.0.0.dir/__/__/__/mesh/core/src/queue.c.obj
 .comment       0x000000000000007e       0x7f CMakeFiles/light_switch_client_nrf52832_xxAA_s132_6.0.0.dir/__/__/__/mesh/core/src/hal.c.obj
 .comment       0x000000000000007e       0x7f CMakeFiles/light_switch_client_nrf52832_xxAA_s132_6.0.0.dir/__/__/__/mesh/core/src/aes_cmac.c.obj
 .comment       0x000000000000007e       0x7f CMakeFiles/light_switch_client_nrf52832_xxAA_s132_6.0.0.dir/__/__/__/mesh/core/src/timer_scheduler.c.obj
 .comment       0x000000000000007e       0x7f CMakeFiles/light_switch_client_nrf52832_xxAA_s132_6.0.0.dir/__/__/__/mesh/core/src/timer.c.obj
 .comment       0x000000000000007e       0x7f CMakeFiles/light_switch_client_nrf52832_xxAA_s132_6.0.0.dir/__/__/__/mesh/core/src/ticker.c.obj
 .comment       0x000000000000007e       0x7f CMakeFiles/light_switch_client_nrf52832_xxAA_s132_6.0.0.dir/__/__/__/mesh/core/src/rand.c.obj
 .comment       0x000000000000007e       0x7f CMakeFiles/light_switch_client_nrf52832_xxAA_s132_6.0.0.dir/__/__/__/mesh/core/src/nrf_mesh_opt.c.obj
 .comment       0x000000000000007e       0x7f CMakeFiles/light_switch_client_nrf52832_xxAA_s132_6.0.0.dir/__/__/__/mesh/core/src/timeslot.c.obj
 .comment       0x000000000000007e       0x7f CMakeFiles/light_switch_client_nrf52832_xxAA_s132_6.0.0.dir/__/__/__/mesh/core/src/bearer_event.c.obj
 .comment       0x000000000000007e       0x7f CMakeFiles/light_switch_client_nrf52832_xxAA_s132_6.0.0.dir/__/__/__/mesh/core/src/enc.c.obj
 .comment       0x000000000000007e       0x7f CMakeFiles/light_switch_client_nrf52832_xxAA_s132_6.0.0.dir/__/__/__/mesh/core/src/network.c.obj
 .comment       0x000000000000007e       0x7f CMakeFiles/light_switch_client_nrf52832_xxAA_s132_6.0.0.dir/__/__/__/mesh/core/src/net_packet.c.obj
 .comment       0x000000000000007e       0x7f CMakeFiles/light_switch_client_nrf52832_xxAA_s132_6.0.0.dir/__/__/__/mesh/core/src/msqueue.c.obj
 .comment       0x000000000000007e       0x7f CMakeFiles/light_switch_client_nrf52832_xxAA_s132_6.0.0.dir/__/__/__/mesh/core/src/nrf_mesh_keygen.c.obj
 .comment       0x000000000000007e       0x7f CMakeFiles/light_switch_client_nrf52832_xxAA_s132_6.0.0.dir/__/__/__/mesh/core/src/list.c.obj
 .comment       0x000000000000007e       0x7f CMakeFiles/light_switch_client_nrf52832_xxAA_s132_6.0.0.dir/__/__/__/mesh/core/src/log.c.obj
 .comment       0x000000000000007e       0x7f CMakeFiles/light_switch_client_nrf52832_xxAA_s132_6.0.0.dir/__/__/__/mesh/core/src/flash_manager.c.obj
 .comment       0x000000000000007e       0x7f CMakeFiles/light_switch_client_nrf52832_xxAA_s132_6.0.0.dir/__/__/__/mesh/core/src/ccm_soft.c.obj
 .comment       0x000000000000007e       0x7f CMakeFiles/light_switch_client_nrf52832_xxAA_s132_6.0.0.dir/__/__/__/mesh/core/src/replay_cache.c.obj
 .comment       0x000000000000007e       0x7f CMakeFiles/light_switch_client_nrf52832_xxAA_s132_6.0.0.dir/__/__/__/mesh/core/src/beacon.c.obj
 .comment       0x000000000000007e       0x7f CMakeFiles/light_switch_client_nrf52832_xxAA_s132_6.0.0.dir/__/__/__/mesh/core/src/flash_manager_internal.c.obj
 .comment       0x000000000000007e       0x7f CMakeFiles/light_switch_client_nrf52832_xxAA_s132_6.0.0.dir/__/__/__/mesh/core/src/core_tx.c.obj
 .comment       0x000000000000007e       0x7f CMakeFiles/light_switch_client_nrf52832_xxAA_s132_6.0.0.dir/__/__/__/mesh/core/src/heartbeat.c.obj
 .comment       0x000000000000007e       0x7f CMakeFiles/light_switch_client_nrf52832_xxAA_s132_6.0.0.dir/__/__/__/mesh/core/src/net_beacon.c.obj
 .comment       0x000000000000007e       0x7f CMakeFiles/light_switch_client_nrf52832_xxAA_s132_6.0.0.dir/__/__/__/mesh/core/src/core_tx_adv.c.obj
 .comment       0x000000000000007e       0x7f CMakeFiles/light_switch_client_nrf52832_xxAA_s132_6.0.0.dir/__/__/__/mesh/bearer/src/ad_listener.c.obj
 .comment       0x000000000000007e       0x7f CMakeFiles/light_switch_client_nrf52832_xxAA_s132_6.0.0.dir/__/__/__/mesh/bearer/src/ad_type_filter.c.obj
 .comment       0x000000000000007e       0x7f CMakeFiles/light_switch_client_nrf52832_xxAA_s132_6.0.0.dir/__/__/__/mesh/bearer/src/advertiser.c.obj
 .comment       0x000000000000007e       0x7f CMakeFiles/light_switch_client_nrf52832_xxAA_s132_6.0.0.dir/__/__/__/mesh/bearer/src/bearer_handler.c.obj
 .comment       0x000000000000007e       0x7f CMakeFiles/light_switch_client_nrf52832_xxAA_s132_6.0.0.dir/__/__/__/mesh/bearer/src/broadcast.c.obj
 .comment       0x000000000000007e       0x7f CMakeFiles/light_switch_client_nrf52832_xxAA_s132_6.0.0.dir/__/__/__/mesh/bearer/src/filter_engine.c.obj
 .comment       0x000000000000007e       0x7f CMakeFiles/light_switch_client_nrf52832_xxAA_s132_6.0.0.dir/__/__/__/mesh/bearer/src/radio_config.c.obj
 .comment       0x000000000000007e       0x7f CMakeFiles/light_switch_client_nrf52832_xxAA_s132_6.0.0.dir/__/__/__/mesh/bearer/src/scanner.c.obj
 .comment       0x000000000000007e       0x7f CMakeFiles/light_switch_client_nrf52832_xxAA_s132_6.0.0.dir/__/__/__/models/simple_on_off/src/simple_on_off_client.c.obj
 .comment       0x000000000000007e       0x7f CMakeFiles/light_switch_client_nrf52832_xxAA_s132_6.0.0.dir/__/__/__/models/config/src/composition_data.c.obj
 .comment       0x000000000000007e       0x7f CMakeFiles/light_switch_client_nrf52832_xxAA_s132_6.0.0.dir/__/__/__/models/config/src/config_server.c.obj
 .comment       0x000000000000007e       0x7f CMakeFiles/light_switch_client_nrf52832_xxAA_s132_6.0.0.dir/__/__/__/models/config/src/packed_index_list.c.obj
 .comment       0x000000000000007e       0x7f CMakeFiles/light_switch_client_nrf52832_xxAA_s132_6.0.0.dir/__/__/__/models/health/src/health_server.c.obj
 .comment       0x000000000000007e       0x7f CMakeFiles/light_switch_client_nrf52832_xxAA_s132_6.0.0.dir/__/__/__/mesh/access/src/access_publish.c.obj
 .comment       0x000000000000007e       0x7f CMakeFiles/light_switch_client_nrf52832_xxAA_s132_6.0.0.dir/__/__/__/mesh/access/src/access.c.obj
 .comment       0x000000000000007e       0x7f CMakeFiles/light_switch_client_nrf52832_xxAA_s132_6.0.0.dir/__/__/__/mesh/access/src/access_reliable.c.obj
 .comment       0x000000000000007e       0x7f CMakeFiles/light_switch_client_nrf52832_xxAA_s132_6.0.0.dir/__/__/__/mesh/access/src/device_state_manager.c.obj
 .comment       0x000000000000007e       0x7f CMakeFiles/light_switch_client_nrf52832_xxAA_s132_6.0.0.dir/__/__/__/mesh/prov/src/prov_provisionee.c.obj
 .comment       0x000000000000007e       0x7f CMakeFiles/light_switch_client_nrf52832_xxAA_s132_6.0.0.dir/__/__/__/mesh/prov/src/nrf_mesh_prov.c.obj
 .comment       0x000000000000007e       0x7f CMakeFiles/light_switch_client_nrf52832_xxAA_s132_6.0.0.dir/__/__/__/mesh/prov/src/provisioning.c.obj
 .comment       0x000000000000007e       0x7f CMakeFiles/light_switch_client_nrf52832_xxAA_s132_6.0.0.dir/__/__/__/mesh/prov/src/prov_beacon.c.obj
 .comment       0x000000000000007e       0x7f CMakeFiles/light_switch_client_nrf52832_xxAA_s132_6.0.0.dir/__/__/__/mesh/prov/src/prov_utils.c.obj
 .comment       0x000000000000007e       0x7f CMakeFiles/light_switch_client_nrf52832_xxAA_s132_6.0.0.dir/__/__/__/mesh/prov/src/prov_bearer_adv.c.obj
 .comment       0x000000000000007e       0x7f CMakeFiles/light_switch_client_nrf52832_xxAA_s132_6.0.0.dir/home/mazzer/work/nordic/sdk/nRF5_SDK_15.0.0/modules/nrfx/mdk/system_nrf52.c.obj
 .comment       0x000000000000007e       0x7f CMakeFiles/light_switch_client_nrf52832_xxAA_s132_6.0.0.dir/home/mazzer/work/nordic/sdk/nRF5_SDK_15.0.0/components/libraries/util/app_error.c.obj
 .comment       0x000000000000007e       0x7f CMakeFiles/light_switch_client_nrf52832_xxAA_s132_6.0.0.dir/home/mazzer/work/nordic/sdk/nRF5_SDK_15.0.0/components/libraries/util/app_error_handler_gcc.c.obj
 .comment       0x000000000000007e       0x7f ../../../external/rtt/librtt_nrf52832_xxAA.a(SEGGER_RTT.c.obj)
 .comment       0x000000000000007e       0x7f ../../../external/rtt/librtt_nrf52832_xxAA.a(SEGGER_RTT_printf.c.obj)
 .comment       0x000000000000007e       0x7f ../../../external/micro-ecc/libuECC_nrf52832_xxAA.a(uECC.c.obj)

.debug_info     0x0000000000000000    0x9315c
 .debug_info    0x0000000000000000     0x319a CMakeFiles/light_switch_client_nrf52832_xxAA_s132_6.0.0.dir/src/main.c.obj
 .debug_info    0x000000000000319a     0x2346 CMakeFiles/light_switch_client_nrf52832_xxAA_s132_6.0.0.dir/__/__/__/mesh/stack/src/mesh_stack.c.obj
 .debug_info    0x00000000000054e0     0x17aa CMakeFiles/light_switch_client_nrf52832_xxAA_s132_6.0.0.dir/__/__/common/src/mesh_softdevice_init.c.obj
 .debug_info    0x0000000000006c8a     0x218f CMakeFiles/light_switch_client_nrf52832_xxAA_s132_6.0.0.dir/__/__/common/src/mesh_provisionee.c.obj
 .debug_info    0x0000000000008e19     0x1169 CMakeFiles/light_switch_client_nrf52832_xxAA_s132_6.0.0.dir/__/__/common/src/rtt_input.c.obj
 .debug_info    0x0000000000009f82     0x1572 CMakeFiles/light_switch_client_nrf52832_xxAA_s132_6.0.0.dir/__/__/common/src/simple_hal.c.obj
 .debug_info    0x000000000000b4f4      0x91d CMakeFiles/light_switch_client_nrf52832_xxAA_s132_6.0.0.dir/__/__/nrf_mesh_weak.c.obj
 .debug_info    0x000000000000be11     0x1170 CMakeFiles/light_switch_client_nrf52832_xxAA_s132_6.0.0.dir/__/__/common/src/app_error_weak.c.obj
 .debug_info    0x000000000000cf81      0x994 CMakeFiles/light_switch_client_nrf52832_xxAA_s132_6.0.0.dir/__/__/common/src/assertion_handler_weak.c.obj
 .debug_info    0x000000000000d915      0xcfd CMakeFiles/light_switch_client_nrf52832_xxAA_s132_6.0.0.dir/__/__/__/mesh/core/src/nrf_mesh_configure.c.obj
 .debug_info    0x000000000000e612      0xbcc CMakeFiles/light_switch_client_nrf52832_xxAA_s132_6.0.0.dir/__/__/__/mesh/core/src/aes.c.obj
 .debug_info    0x000000000000f1de      0xa51 CMakeFiles/light_switch_client_nrf52832_xxAA_s132_6.0.0.dir/__/__/__/mesh/core/src/msg_cache.c.obj
 .debug_info    0x000000000000fc2f     0x6184 CMakeFiles/light_switch_client_nrf52832_xxAA_s132_6.0.0.dir/__/__/__/mesh/core/src/transport.c.obj
 .debug_info    0x0000000000015db3     0x1763 CMakeFiles/light_switch_client_nrf52832_xxAA_s132_6.0.0.dir/__/__/__/mesh/core/src/event.c.obj
 .debug_info    0x0000000000017516     0x19a8 CMakeFiles/light_switch_client_nrf52832_xxAA_s132_6.0.0.dir/__/__/__/mesh/core/src/packet_buffer.c.obj
 .debug_info    0x0000000000018ebe     0x2372 CMakeFiles/light_switch_client_nrf52832_xxAA_s132_6.0.0.dir/__/__/__/mesh/core/src/flash_manager_defrag.c.obj
 .debug_info    0x000000000001b230      0xd9a CMakeFiles/light_switch_client_nrf52832_xxAA_s132_6.0.0.dir/__/__/__/mesh/core/src/fifo.c.obj
 .debug_info    0x000000000001bfca      0xb38 CMakeFiles/light_switch_client_nrf52832_xxAA_s132_6.0.0.dir/__/__/__/mesh/core/src/nrf_flash.c.obj
 .debug_info    0x000000000001cb02     0x118f CMakeFiles/light_switch_client_nrf52832_xxAA_s132_6.0.0.dir/__/__/__/mesh/core/src/packet_mgr.c.obj
 .debug_info    0x000000000001dc91     0x3735 CMakeFiles/light_switch_client_nrf52832_xxAA_s132_6.0.0.dir/__/__/__/mesh/core/src/net_state.c.obj
 .debug_info    0x00000000000213c6     0x1be8 CMakeFiles/light_switch_client_nrf52832_xxAA_s132_6.0.0.dir/__/__/__/mesh/core/src/mesh_flash.c.obj
 .debug_info    0x0000000000022fae      0xa72 CMakeFiles/light_switch_client_nrf52832_xxAA_s132_6.0.0.dir/__/__/__/mesh/core/src/nrf_mesh_utils.c.obj
 .debug_info    0x0000000000023a20     0x2678 CMakeFiles/light_switch_client_nrf52832_xxAA_s132_6.0.0.dir/__/__/__/mesh/core/src/nrf_mesh.c.obj
 .debug_info    0x0000000000026098      0xb10 CMakeFiles/light_switch_client_nrf52832_xxAA_s132_6.0.0.dir/__/__/__/mesh/core/src/queue.c.obj
 .debug_info    0x0000000000026ba8      0x549 CMakeFiles/light_switch_client_nrf52832_xxAA_s132_6.0.0.dir/__/__/__/mesh/core/src/hal.c.obj
 .debug_info    0x00000000000270f1      0xe8f CMakeFiles/light_switch_client_nrf52832_xxAA_s132_6.0.0.dir/__/__/__/mesh/core/src/aes_cmac.c.obj
 .debug_info    0x0000000000027f80     0x13bd CMakeFiles/light_switch_client_nrf52832_xxAA_s132_6.0.0.dir/__/__/__/mesh/core/src/timer_scheduler.c.obj
 .debug_info    0x000000000002933d      0xdfa CMakeFiles/light_switch_client_nrf52832_xxAA_s132_6.0.0.dir/__/__/__/mesh/core/src/timer.c.obj
 .debug_info    0x000000000002a137      0x20c CMakeFiles/light_switch_client_nrf52832_xxAA_s132_6.0.0.dir/__/__/__/mesh/core/src/ticker.c.obj
 .debug_info    0x000000000002a343      0x4b6 CMakeFiles/light_switch_client_nrf52832_xxAA_s132_6.0.0.dir/__/__/__/mesh/core/src/rand.c.obj
 .debug_info    0x000000000002a7f9      0xaef CMakeFiles/light_switch_client_nrf52832_xxAA_s132_6.0.0.dir/__/__/__/mesh/core/src/nrf_mesh_opt.c.obj
 .debug_info    0x000000000002b2e8     0x1bc6 CMakeFiles/light_switch_client_nrf52832_xxAA_s132_6.0.0.dir/__/__/__/mesh/core/src/timeslot.c.obj
 .debug_info    0x000000000002ceae     0x1c7b CMakeFiles/light_switch_client_nrf52832_xxAA_s132_6.0.0.dir/__/__/__/mesh/core/src/bearer_event.c.obj
 .debug_info    0x000000000002eb29     0x181f CMakeFiles/light_switch_client_nrf52832_xxAA_s132_6.0.0.dir/__/__/__/mesh/core/src/enc.c.obj
 .debug_info    0x0000000000030348     0x1cc0 CMakeFiles/light_switch_client_nrf52832_xxAA_s132_6.0.0.dir/__/__/__/mesh/core/src/network.c.obj
 .debug_info    0x0000000000032008     0x1de3 CMakeFiles/light_switch_client_nrf52832_xxAA_s132_6.0.0.dir/__/__/__/mesh/core/src/net_packet.c.obj
 .debug_info    0x0000000000033deb      0xe51 CMakeFiles/light_switch_client_nrf52832_xxAA_s132_6.0.0.dir/__/__/__/mesh/core/src/msqueue.c.obj
 .debug_info    0x0000000000034c3c      0x4c0 CMakeFiles/light_switch_client_nrf52832_xxAA_s132_6.0.0.dir/__/__/__/mesh/core/src/nrf_mesh_keygen.c.obj
 .debug_info    0x00000000000350fc      0x573 CMakeFiles/light_switch_client_nrf52832_xxAA_s132_6.0.0.dir/__/__/__/mesh/core/src/list.c.obj
 .debug_info    0x000000000003566f      0xe8b CMakeFiles/light_switch_client_nrf52832_xxAA_s132_6.0.0.dir/__/__/__/mesh/core/src/log.c.obj
 .debug_info    0x00000000000364fa     0x3cc6 CMakeFiles/light_switch_client_nrf52832_xxAA_s132_6.0.0.dir/__/__/__/mesh/core/src/flash_manager.c.obj
 .debug_info    0x000000000003a1c0     0x120f CMakeFiles/light_switch_client_nrf52832_xxAA_s132_6.0.0.dir/__/__/__/mesh/core/src/ccm_soft.c.obj
 .debug_info    0x000000000003b3cf      0xa87 CMakeFiles/light_switch_client_nrf52832_xxAA_s132_6.0.0.dir/__/__/__/mesh/core/src/replay_cache.c.obj
 .debug_info    0x000000000003be56     0x17c2 CMakeFiles/light_switch_client_nrf52832_xxAA_s132_6.0.0.dir/__/__/__/mesh/core/src/beacon.c.obj
 .debug_info    0x000000000003d618      0xb98 CMakeFiles/light_switch_client_nrf52832_xxAA_s132_6.0.0.dir/__/__/__/mesh/core/src/flash_manager_internal.c.obj
 .debug_info    0x000000000003e1b0     0x1264 CMakeFiles/light_switch_client_nrf52832_xxAA_s132_6.0.0.dir/__/__/__/mesh/core/src/core_tx.c.obj
 .debug_info    0x000000000003f414     0x24e7 CMakeFiles/light_switch_client_nrf52832_xxAA_s132_6.0.0.dir/__/__/__/mesh/core/src/heartbeat.c.obj
 .debug_info    0x00000000000418fb     0x2a3c CMakeFiles/light_switch_client_nrf52832_xxAA_s132_6.0.0.dir/__/__/__/mesh/core/src/net_beacon.c.obj
 .debug_info    0x0000000000044337     0x197e CMakeFiles/light_switch_client_nrf52832_xxAA_s132_6.0.0.dir/__/__/__/mesh/core/src/core_tx_adv.c.obj
 .debug_info    0x0000000000045cb5     0x116a CMakeFiles/light_switch_client_nrf52832_xxAA_s132_6.0.0.dir/__/__/__/mesh/bearer/src/ad_listener.c.obj
 .debug_info    0x0000000000046e1f      0xfc4 CMakeFiles/light_switch_client_nrf52832_xxAA_s132_6.0.0.dir/__/__/__/mesh/bearer/src/ad_type_filter.c.obj
 .debug_info    0x0000000000047de3     0x29fb CMakeFiles/light_switch_client_nrf52832_xxAA_s132_6.0.0.dir/__/__/__/mesh/bearer/src/advertiser.c.obj
 .debug_info    0x000000000004a7de     0x1a38 CMakeFiles/light_switch_client_nrf52832_xxAA_s132_6.0.0.dir/__/__/__/mesh/bearer/src/bearer_handler.c.obj
 .debug_info    0x000000000004c216     0x19a6 CMakeFiles/light_switch_client_nrf52832_xxAA_s132_6.0.0.dir/__/__/__/mesh/bearer/src/broadcast.c.obj
 .debug_info    0x000000000004dbbc      0xd3e CMakeFiles/light_switch_client_nrf52832_xxAA_s132_6.0.0.dir/__/__/__/mesh/bearer/src/filter_engine.c.obj
 .debug_info    0x000000000004e8fa      0x8d7 CMakeFiles/light_switch_client_nrf52832_xxAA_s132_6.0.0.dir/__/__/__/mesh/bearer/src/radio_config.c.obj
 .debug_info    0x000000000004f1d1     0x2c83 CMakeFiles/light_switch_client_nrf52832_xxAA_s132_6.0.0.dir/__/__/__/mesh/bearer/src/scanner.c.obj
 .debug_info    0x0000000000051e54     0x168b CMakeFiles/light_switch_client_nrf52832_xxAA_s132_6.0.0.dir/__/__/__/models/simple_on_off/src/simple_on_off_client.c.obj
 .debug_info    0x00000000000534df      0xee4 CMakeFiles/light_switch_client_nrf52832_xxAA_s132_6.0.0.dir/__/__/__/models/config/src/composition_data.c.obj
 .debug_info    0x00000000000543c3     0xc3c7 CMakeFiles/light_switch_client_nrf52832_xxAA_s132_6.0.0.dir/__/__/__/models/config/src/config_server.c.obj
 .debug_info    0x000000000006078a      0x126 CMakeFiles/light_switch_client_nrf52832_xxAA_s132_6.0.0.dir/__/__/__/models/config/src/packed_index_list.c.obj
 .debug_info    0x00000000000608b0     0x2e65 CMakeFiles/light_switch_client_nrf52832_xxAA_s132_6.0.0.dir/__/__/__/models/health/src/health_server.c.obj
 .debug_info    0x0000000000063715     0x12cf CMakeFiles/light_switch_client_nrf52832_xxAA_s132_6.0.0.dir/__/__/__/mesh/access/src/access_publish.c.obj
 .debug_info    0x00000000000649e4     0x58be CMakeFiles/light_switch_client_nrf52832_xxAA_s132_6.0.0.dir/__/__/__/mesh/access/src/access.c.obj
 .debug_info    0x000000000006a2a2     0x1b90 CMakeFiles/light_switch_client_nrf52832_xxAA_s132_6.0.0.dir/__/__/__/mesh/access/src/access_reliable.c.obj
 .debug_info    0x000000000006be32     0x8b40 CMakeFiles/light_switch_client_nrf52832_xxAA_s132_6.0.0.dir/__/__/__/mesh/access/src/device_state_manager.c.obj
 .debug_info    0x0000000000074972     0x2c7b CMakeFiles/light_switch_client_nrf52832_xxAA_s132_6.0.0.dir/__/__/__/mesh/prov/src/prov_provisionee.c.obj
 .debug_info    0x00000000000775ed     0x1fa2 CMakeFiles/light_switch_client_nrf52832_xxAA_s132_6.0.0.dir/__/__/__/mesh/prov/src/nrf_mesh_prov.c.obj
 .debug_info    0x000000000007958f     0x18dc CMakeFiles/light_switch_client_nrf52832_xxAA_s132_6.0.0.dir/__/__/__/mesh/prov/src/provisioning.c.obj
 .debug_info    0x000000000007ae6b     0x1a93 CMakeFiles/light_switch_client_nrf52832_xxAA_s132_6.0.0.dir/__/__/__/mesh/prov/src/prov_beacon.c.obj
 .debug_info    0x000000000007c8fe     0x2108 CMakeFiles/light_switch_client_nrf52832_xxAA_s132_6.0.0.dir/__/__/__/mesh/prov/src/prov_utils.c.obj
 .debug_info    0x000000000007ea06     0x4a03 CMakeFiles/light_switch_client_nrf52832_xxAA_s132_6.0.0.dir/__/__/__/mesh/prov/src/prov_bearer_adv.c.obj
 .debug_info    0x0000000000083409     0x1116 CMakeFiles/light_switch_client_nrf52832_xxAA_s132_6.0.0.dir/home/mazzer/work/nordic/sdk/nRF5_SDK_15.0.0/modules/nrfx/mdk/system_nrf52.c.obj
 .debug_info    0x000000000008451f       0x26 CMakeFiles/light_switch_client_nrf52832_xxAA_s132_6.0.0.dir/home/mazzer/work/nordic/sdk/nRF5_SDK_15.0.0/modules/nrfx/mdk/gcc_startup_nrf52.S.obj
 .debug_info    0x0000000000084545      0xae7 CMakeFiles/light_switch_client_nrf52832_xxAA_s132_6.0.0.dir/home/mazzer/work/nordic/sdk/nRF5_SDK_15.0.0/components/libraries/util/app_error.c.obj
 .debug_info    0x000000000008502c      0x96d CMakeFiles/light_switch_client_nrf52832_xxAA_s132_6.0.0.dir/home/mazzer/work/nordic/sdk/nRF5_SDK_15.0.0/components/libraries/util/app_error_handler_gcc.c.obj
 .debug_info    0x0000000000085999     0x2b01 ../../../external/rtt/librtt_nrf52832_xxAA.a(SEGGER_RTT.c.obj)
 .debug_info    0x000000000008849a     0x11e1 ../../../external/rtt/librtt_nrf52832_xxAA.a(SEGGER_RTT_printf.c.obj)
 .debug_info    0x000000000008967b     0x9ae1 ../../../external/micro-ecc/libuECC_nrf52832_xxAA.a(uECC.c.obj)

.debug_abbrev   0x0000000000000000    0x11385
 .debug_abbrev  0x0000000000000000      0x553 CMakeFiles/light_switch_client_nrf52832_xxAA_s132_6.0.0.dir/src/main.c.obj
 .debug_abbrev  0x0000000000000553      0x3b3 CMakeFiles/light_switch_client_nrf52832_xxAA_s132_6.0.0.dir/__/__/__/mesh/stack/src/mesh_stack.c.obj
 .debug_abbrev  0x0000000000000906      0x408 CMakeFiles/light_switch_client_nrf52832_xxAA_s132_6.0.0.dir/__/__/common/src/mesh_softdevice_init.c.obj
 .debug_abbrev  0x0000000000000d0e      0x393 CMakeFiles/light_switch_client_nrf52832_xxAA_s132_6.0.0.dir/__/__/common/src/mesh_provisionee.c.obj
 .debug_abbrev  0x00000000000010a1      0x2ba CMakeFiles/light_switch_client_nrf52832_xxAA_s132_6.0.0.dir/__/__/common/src/rtt_input.c.obj
 .debug_abbrev  0x000000000000135b      0x372 CMakeFiles/light_switch_client_nrf52832_xxAA_s132_6.0.0.dir/__/__/common/src/simple_hal.c.obj
 .debug_abbrev  0x00000000000016cd      0x1ae CMakeFiles/light_switch_client_nrf52832_xxAA_s132_6.0.0.dir/__/__/nrf_mesh_weak.c.obj
 .debug_abbrev  0x000000000000187b      0x2d5 CMakeFiles/light_switch_client_nrf52832_xxAA_s132_6.0.0.dir/__/__/common/src/app_error_weak.c.obj
 .debug_abbrev  0x0000000000001b50      0x1f6 CMakeFiles/light_switch_client_nrf52832_xxAA_s132_6.0.0.dir/__/__/common/src/assertion_handler_weak.c.obj
 .debug_abbrev  0x0000000000001d46      0x24b CMakeFiles/light_switch_client_nrf52832_xxAA_s132_6.0.0.dir/__/__/__/mesh/core/src/nrf_mesh_configure.c.obj
 .debug_abbrev  0x0000000000001f91      0x266 CMakeFiles/light_switch_client_nrf52832_xxAA_s132_6.0.0.dir/__/__/__/mesh/core/src/aes.c.obj
 .debug_abbrev  0x00000000000021f7      0x24e CMakeFiles/light_switch_client_nrf52832_xxAA_s132_6.0.0.dir/__/__/__/mesh/core/src/msg_cache.c.obj
 .debug_abbrev  0x0000000000002445      0x5f7 CMakeFiles/light_switch_client_nrf52832_xxAA_s132_6.0.0.dir/__/__/__/mesh/core/src/transport.c.obj
 .debug_abbrev  0x0000000000002a3c      0x2d2 CMakeFiles/light_switch_client_nrf52832_xxAA_s132_6.0.0.dir/__/__/__/mesh/core/src/event.c.obj
 .debug_abbrev  0x0000000000002d0e      0x44c CMakeFiles/light_switch_client_nrf52832_xxAA_s132_6.0.0.dir/__/__/__/mesh/core/src/packet_buffer.c.obj
 .debug_abbrev  0x000000000000315a      0x526 CMakeFiles/light_switch_client_nrf52832_xxAA_s132_6.0.0.dir/__/__/__/mesh/core/src/flash_manager_defrag.c.obj
 .debug_abbrev  0x0000000000003680      0x2fc CMakeFiles/light_switch_client_nrf52832_xxAA_s132_6.0.0.dir/__/__/__/mesh/core/src/fifo.c.obj
 .debug_abbrev  0x000000000000397c      0x22d CMakeFiles/light_switch_client_nrf52832_xxAA_s132_6.0.0.dir/__/__/__/mesh/core/src/nrf_flash.c.obj
 .debug_abbrev  0x0000000000003ba9      0x3bf CMakeFiles/light_switch_client_nrf52832_xxAA_s132_6.0.0.dir/__/__/__/mesh/core/src/packet_mgr.c.obj
 .debug_abbrev  0x0000000000003f68      0x5a6 CMakeFiles/light_switch_client_nrf52832_xxAA_s132_6.0.0.dir/__/__/__/mesh/core/src/net_state.c.obj
 .debug_abbrev  0x000000000000450e      0x467 CMakeFiles/light_switch_client_nrf52832_xxAA_s132_6.0.0.dir/__/__/__/mesh/core/src/mesh_flash.c.obj
 .debug_abbrev  0x0000000000004975      0x244 CMakeFiles/light_switch_client_nrf52832_xxAA_s132_6.0.0.dir/__/__/__/mesh/core/src/nrf_mesh_utils.c.obj
 .debug_abbrev  0x0000000000004bb9      0x47a CMakeFiles/light_switch_client_nrf52832_xxAA_s132_6.0.0.dir/__/__/__/mesh/core/src/nrf_mesh.c.obj
 .debug_abbrev  0x0000000000005033      0x247 CMakeFiles/light_switch_client_nrf52832_xxAA_s132_6.0.0.dir/__/__/__/mesh/core/src/queue.c.obj
 .debug_abbrev  0x000000000000527a      0x1ed CMakeFiles/light_switch_client_nrf52832_xxAA_s132_6.0.0.dir/__/__/__/mesh/core/src/hal.c.obj
 .debug_abbrev  0x0000000000005467      0x2e3 CMakeFiles/light_switch_client_nrf52832_xxAA_s132_6.0.0.dir/__/__/__/mesh/core/src/aes_cmac.c.obj
 .debug_abbrev  0x000000000000574a      0x3f7 CMakeFiles/light_switch_client_nrf52832_xxAA_s132_6.0.0.dir/__/__/__/mesh/core/src/timer_scheduler.c.obj
 .debug_abbrev  0x0000000000005b41      0x378 CMakeFiles/light_switch_client_nrf52832_xxAA_s132_6.0.0.dir/__/__/__/mesh/core/src/timer.c.obj
 .debug_abbrev  0x0000000000005eb9      0x154 CMakeFiles/light_switch_client_nrf52832_xxAA_s132_6.0.0.dir/__/__/__/mesh/core/src/ticker.c.obj
 .debug_abbrev  0x000000000000600d      0x22e CMakeFiles/light_switch_client_nrf52832_xxAA_s132_6.0.0.dir/__/__/__/mesh/core/src/rand.c.obj
 .debug_abbrev  0x000000000000623b      0x24c CMakeFiles/light_switch_client_nrf52832_xxAA_s132_6.0.0.dir/__/__/__/mesh/core/src/nrf_mesh_opt.c.obj
 .debug_abbrev  0x0000000000006487      0x4e5 CMakeFiles/light_switch_client_nrf52832_xxAA_s132_6.0.0.dir/__/__/__/mesh/core/src/timeslot.c.obj
 .debug_abbrev  0x000000000000696c      0x4f9 CMakeFiles/light_switch_client_nrf52832_xxAA_s132_6.0.0.dir/__/__/__/mesh/core/src/bearer_event.c.obj
 .debug_abbrev  0x0000000000006e65      0x39b CMakeFiles/light_switch_client_nrf52832_xxAA_s132_6.0.0.dir/__/__/__/mesh/core/src/enc.c.obj
 .debug_abbrev  0x0000000000007200      0x4e2 CMakeFiles/light_switch_client_nrf52832_xxAA_s132_6.0.0.dir/__/__/__/mesh/core/src/network.c.obj
 .debug_abbrev  0x00000000000076e2      0x4a1 CMakeFiles/light_switch_client_nrf52832_xxAA_s132_6.0.0.dir/__/__/__/mesh/core/src/net_packet.c.obj
 .debug_abbrev  0x0000000000007b83      0x2e9 CMakeFiles/light_switch_client_nrf52832_xxAA_s132_6.0.0.dir/__/__/__/mesh/core/src/msqueue.c.obj
 .debug_abbrev  0x0000000000007e6c      0x156 CMakeFiles/light_switch_client_nrf52832_xxAA_s132_6.0.0.dir/__/__/__/mesh/core/src/nrf_mesh_keygen.c.obj
 .debug_abbrev  0x0000000000007fc2      0x1ec CMakeFiles/light_switch_client_nrf52832_xxAA_s132_6.0.0.dir/__/__/__/mesh/core/src/list.c.obj
 .debug_abbrev  0x00000000000081ae      0x2b4 CMakeFiles/light_switch_client_nrf52832_xxAA_s132_6.0.0.dir/__/__/__/mesh/core/src/log.c.obj
 .debug_abbrev  0x0000000000008462      0x538 CMakeFiles/light_switch_client_nrf52832_xxAA_s132_6.0.0.dir/__/__/__/mesh/core/src/flash_manager.c.obj
 .debug_abbrev  0x000000000000899a      0x2f5 CMakeFiles/light_switch_client_nrf52832_xxAA_s132_6.0.0.dir/__/__/__/mesh/core/src/ccm_soft.c.obj
 .debug_abbrev  0x0000000000008c8f      0x29b CMakeFiles/light_switch_client_nrf52832_xxAA_s132_6.0.0.dir/__/__/__/mesh/core/src/replay_cache.c.obj
 .debug_abbrev  0x0000000000008f2a      0x310 CMakeFiles/light_switch_client_nrf52832_xxAA_s132_6.0.0.dir/__/__/__/mesh/core/src/beacon.c.obj
 .debug_abbrev  0x000000000000923a      0x2a4 CMakeFiles/light_switch_client_nrf52832_xxAA_s132_6.0.0.dir/__/__/__/mesh/core/src/flash_manager_internal.c.obj
 .debug_abbrev  0x00000000000094de      0x2fc CMakeFiles/light_switch_client_nrf52832_xxAA_s132_6.0.0.dir/__/__/__/mesh/core/src/core_tx.c.obj
 .debug_abbrev  0x00000000000097da      0x4e3 CMakeFiles/light_switch_client_nrf52832_xxAA_s132_6.0.0.dir/__/__/__/mesh/core/src/heartbeat.c.obj
 .debug_abbrev  0x0000000000009cbd      0x512 CMakeFiles/light_switch_client_nrf52832_xxAA_s132_6.0.0.dir/__/__/__/mesh/core/src/net_beacon.c.obj
 .debug_abbrev  0x000000000000a1cf      0x330 CMakeFiles/light_switch_client_nrf52832_xxAA_s132_6.0.0.dir/__/__/__/mesh/core/src/core_tx_adv.c.obj
 .debug_abbrev  0x000000000000a4ff      0x340 CMakeFiles/light_switch_client_nrf52832_xxAA_s132_6.0.0.dir/__/__/__/mesh/bearer/src/ad_listener.c.obj
 .debug_abbrev  0x000000000000a83f      0x375 CMakeFiles/light_switch_client_nrf52832_xxAA_s132_6.0.0.dir/__/__/__/mesh/bearer/src/ad_type_filter.c.obj
 .debug_abbrev  0x000000000000abb4      0x561 CMakeFiles/light_switch_client_nrf52832_xxAA_s132_6.0.0.dir/__/__/__/mesh/bearer/src/advertiser.c.obj
 .debug_abbrev  0x000000000000b115      0x3fa CMakeFiles/light_switch_client_nrf52832_xxAA_s132_6.0.0.dir/__/__/__/mesh/bearer/src/bearer_handler.c.obj
 .debug_abbrev  0x000000000000b50f      0x3eb CMakeFiles/light_switch_client_nrf52832_xxAA_s132_6.0.0.dir/__/__/__/mesh/bearer/src/broadcast.c.obj
 .debug_abbrev  0x000000000000b8fa      0x2af CMakeFiles/light_switch_client_nrf52832_xxAA_s132_6.0.0.dir/__/__/__/mesh/bearer/src/filter_engine.c.obj
 .debug_abbrev  0x000000000000bba9      0x1e4 CMakeFiles/light_switch_client_nrf52832_xxAA_s132_6.0.0.dir/__/__/__/mesh/bearer/src/radio_config.c.obj
 .debug_abbrev  0x000000000000bd8d      0x59f CMakeFiles/light_switch_client_nrf52832_xxAA_s132_6.0.0.dir/__/__/__/mesh/bearer/src/scanner.c.obj
 .debug_abbrev  0x000000000000c32c      0x3c9 CMakeFiles/light_switch_client_nrf52832_xxAA_s132_6.0.0.dir/__/__/__/models/simple_on_off/src/simple_on_off_client.c.obj
 .debug_abbrev  0x000000000000c6f5      0x305 CMakeFiles/light_switch_client_nrf52832_xxAA_s132_6.0.0.dir/__/__/__/models/config/src/composition_data.c.obj
 .debug_abbrev  0x000000000000c9fa      0x56c CMakeFiles/light_switch_client_nrf52832_xxAA_s132_6.0.0.dir/__/__/__/models/config/src/config_server.c.obj
 .debug_abbrev  0x000000000000cf66       0x95 CMakeFiles/light_switch_client_nrf52832_xxAA_s132_6.0.0.dir/__/__/__/models/config/src/packed_index_list.c.obj
 .debug_abbrev  0x000000000000cffb      0x505 CMakeFiles/light_switch_client_nrf52832_xxAA_s132_6.0.0.dir/__/__/__/models/health/src/health_server.c.obj
 .debug_abbrev  0x000000000000d500      0x423 CMakeFiles/light_switch_client_nrf52832_xxAA_s132_6.0.0.dir/__/__/__/mesh/access/src/access_publish.c.obj
 .debug_abbrev  0x000000000000d923      0x67c CMakeFiles/light_switch_client_nrf52832_xxAA_s132_6.0.0.dir/__/__/__/mesh/access/src/access.c.obj
 .debug_abbrev  0x000000000000df9f      0x455 CMakeFiles/light_switch_client_nrf52832_xxAA_s132_6.0.0.dir/__/__/__/mesh/access/src/access_reliable.c.obj
 .debug_abbrev  0x000000000000e3f4      0x5a8 CMakeFiles/light_switch_client_nrf52832_xxAA_s132_6.0.0.dir/__/__/__/mesh/access/src/device_state_manager.c.obj
 .debug_abbrev  0x000000000000e99c      0x47e CMakeFiles/light_switch_client_nrf52832_xxAA_s132_6.0.0.dir/__/__/__/mesh/prov/src/prov_provisionee.c.obj
 .debug_abbrev  0x000000000000ee1a      0x450 CMakeFiles/light_switch_client_nrf52832_xxAA_s132_6.0.0.dir/__/__/__/mesh/prov/src/nrf_mesh_prov.c.obj
 .debug_abbrev  0x000000000000f26a      0x2e6 CMakeFiles/light_switch_client_nrf52832_xxAA_s132_6.0.0.dir/__/__/__/mesh/prov/src/provisioning.c.obj
 .debug_abbrev  0x000000000000f550      0x2fc CMakeFiles/light_switch_client_nrf52832_xxAA_s132_6.0.0.dir/__/__/__/mesh/prov/src/prov_beacon.c.obj
 .debug_abbrev  0x000000000000f84c      0x3f3 CMakeFiles/light_switch_client_nrf52832_xxAA_s132_6.0.0.dir/__/__/__/mesh/prov/src/prov_utils.c.obj
 .debug_abbrev  0x000000000000fc3f      0x55d CMakeFiles/light_switch_client_nrf52832_xxAA_s132_6.0.0.dir/__/__/__/mesh/prov/src/prov_bearer_adv.c.obj
 .debug_abbrev  0x000000000001019c      0x1df CMakeFiles/light_switch_client_nrf52832_xxAA_s132_6.0.0.dir/home/mazzer/work/nordic/sdk/nRF5_SDK_15.0.0/modules/nrfx/mdk/system_nrf52.c.obj
 .debug_abbrev  0x000000000001037b       0x14 CMakeFiles/light_switch_client_nrf52832_xxAA_s132_6.0.0.dir/home/mazzer/work/nordic/sdk/nRF5_SDK_15.0.0/modules/nrfx/mdk/gcc_startup_nrf52.S.obj
 .debug_abbrev  0x000000000001038f      0x232 CMakeFiles/light_switch_client_nrf52832_xxAA_s132_6.0.0.dir/home/mazzer/work/nordic/sdk/nRF5_SDK_15.0.0/components/libraries/util/app_error.c.obj
 .debug_abbrev  0x00000000000105c1      0x1bd CMakeFiles/light_switch_client_nrf52832_xxAA_s132_6.0.0.dir/home/mazzer/work/nordic/sdk/nRF5_SDK_15.0.0/components/libraries/util/app_error_handler_gcc.c.obj
 .debug_abbrev  0x000000000001077e      0x3d2 ../../../external/rtt/librtt_nrf52832_xxAA.a(SEGGER_RTT.c.obj)
 .debug_abbrev  0x0000000000010b50      0x353 ../../../external/rtt/librtt_nrf52832_xxAA.a(SEGGER_RTT_printf.c.obj)
 .debug_abbrev  0x0000000000010ea3      0x4e2 ../../../external/micro-ecc/libuECC_nrf52832_xxAA.a(uECC.c.obj)

.debug_loc      0x0000000000000000    0x473c0
 .debug_loc     0x0000000000000000      0x87a CMakeFiles/light_switch_client_nrf52832_xxAA_s132_6.0.0.dir/src/main.c.obj
 .debug_loc     0x000000000000087a      0x1a3 CMakeFiles/light_switch_client_nrf52832_xxAA_s132_6.0.0.dir/__/__/__/mesh/stack/src/mesh_stack.c.obj
 .debug_loc     0x0000000000000a1d      0x1bb CMakeFiles/light_switch_client_nrf52832_xxAA_s132_6.0.0.dir/__/__/common/src/mesh_softdevice_init.c.obj
 .debug_loc     0x0000000000000bd8      0x16b CMakeFiles/light_switch_client_nrf52832_xxAA_s132_6.0.0.dir/__/__/common/src/mesh_provisionee.c.obj
 .debug_loc     0x0000000000000d43       0xbf CMakeFiles/light_switch_client_nrf52832_xxAA_s132_6.0.0.dir/__/__/common/src/rtt_input.c.obj
 .debug_loc     0x0000000000000e02      0x29c CMakeFiles/light_switch_client_nrf52832_xxAA_s132_6.0.0.dir/__/__/common/src/simple_hal.c.obj
 .debug_loc     0x000000000000109e      0x1c6 CMakeFiles/light_switch_client_nrf52832_xxAA_s132_6.0.0.dir/__/__/common/src/app_error_weak.c.obj
 .debug_loc     0x0000000000001264       0x2c CMakeFiles/light_switch_client_nrf52832_xxAA_s132_6.0.0.dir/__/__/common/src/assertion_handler_weak.c.obj
 .debug_loc     0x0000000000001290       0x2c CMakeFiles/light_switch_client_nrf52832_xxAA_s132_6.0.0.dir/__/__/__/mesh/core/src/nrf_mesh_configure.c.obj
 .debug_loc     0x00000000000012bc       0x89 CMakeFiles/light_switch_client_nrf52832_xxAA_s132_6.0.0.dir/__/__/__/mesh/core/src/aes.c.obj
 .debug_loc     0x0000000000001345       0xab CMakeFiles/light_switch_client_nrf52832_xxAA_s132_6.0.0.dir/__/__/__/mesh/core/src/msg_cache.c.obj
 .debug_loc     0x00000000000013f0     0x41e3 CMakeFiles/light_switch_client_nrf52832_xxAA_s132_6.0.0.dir/__/__/__/mesh/core/src/transport.c.obj
 .debug_loc     0x00000000000055d3      0x169 CMakeFiles/light_switch_client_nrf52832_xxAA_s132_6.0.0.dir/__/__/__/mesh/core/src/event.c.obj
 .debug_loc     0x000000000000573c      0xcfb CMakeFiles/light_switch_client_nrf52832_xxAA_s132_6.0.0.dir/__/__/__/mesh/core/src/packet_buffer.c.obj
 .debug_loc     0x0000000000006437      0xbd0 CMakeFiles/light_switch_client_nrf52832_xxAA_s132_6.0.0.dir/__/__/__/mesh/core/src/flash_manager_defrag.c.obj
 .debug_loc     0x0000000000007007      0x86b CMakeFiles/light_switch_client_nrf52832_xxAA_s132_6.0.0.dir/__/__/__/mesh/core/src/fifo.c.obj
 .debug_loc     0x0000000000007872      0x194 CMakeFiles/light_switch_client_nrf52832_xxAA_s132_6.0.0.dir/__/__/__/mesh/core/src/nrf_flash.c.obj
 .debug_loc     0x0000000000007a06      0x788 CMakeFiles/light_switch_client_nrf52832_xxAA_s132_6.0.0.dir/__/__/__/mesh/core/src/packet_mgr.c.obj
 .debug_loc     0x000000000000818e      0xfdf CMakeFiles/light_switch_client_nrf52832_xxAA_s132_6.0.0.dir/__/__/__/mesh/core/src/net_state.c.obj
 .debug_loc     0x000000000000916d      0xfd3 CMakeFiles/light_switch_client_nrf52832_xxAA_s132_6.0.0.dir/__/__/__/mesh/core/src/mesh_flash.c.obj
 .debug_loc     0x000000000000a140      0x185 CMakeFiles/light_switch_client_nrf52832_xxAA_s132_6.0.0.dir/__/__/__/mesh/core/src/nrf_mesh_utils.c.obj
 .debug_loc     0x000000000000a2c5      0x6be CMakeFiles/light_switch_client_nrf52832_xxAA_s132_6.0.0.dir/__/__/__/mesh/core/src/nrf_mesh.c.obj
 .debug_loc     0x000000000000a983      0x186 CMakeFiles/light_switch_client_nrf52832_xxAA_s132_6.0.0.dir/__/__/__/mesh/core/src/queue.c.obj
 .debug_loc     0x000000000000ab09       0x84 CMakeFiles/light_switch_client_nrf52832_xxAA_s132_6.0.0.dir/__/__/__/mesh/core/src/hal.c.obj
 .debug_loc     0x000000000000ab8d      0xb75 CMakeFiles/light_switch_client_nrf52832_xxAA_s132_6.0.0.dir/__/__/__/mesh/core/src/aes_cmac.c.obj
 .debug_loc     0x000000000000b702      0x5b7 CMakeFiles/light_switch_client_nrf52832_xxAA_s132_6.0.0.dir/__/__/__/mesh/core/src/timer_scheduler.c.obj
 .debug_loc     0x000000000000bcb9      0x608 CMakeFiles/light_switch_client_nrf52832_xxAA_s132_6.0.0.dir/__/__/__/mesh/core/src/timer.c.obj
 .debug_loc     0x000000000000c2c1      0x1c5 CMakeFiles/light_switch_client_nrf52832_xxAA_s132_6.0.0.dir/__/__/__/mesh/core/src/rand.c.obj
 .debug_loc     0x000000000000c486      0x194 CMakeFiles/light_switch_client_nrf52832_xxAA_s132_6.0.0.dir/__/__/__/mesh/core/src/nrf_mesh_opt.c.obj
 .debug_loc     0x000000000000c61a      0x4f1 CMakeFiles/light_switch_client_nrf52832_xxAA_s132_6.0.0.dir/__/__/__/mesh/core/src/timeslot.c.obj
 .debug_loc     0x000000000000cb0b      0x86e CMakeFiles/light_switch_client_nrf52832_xxAA_s132_6.0.0.dir/__/__/__/mesh/core/src/bearer_event.c.obj
 .debug_loc     0x000000000000d379      0xb0d CMakeFiles/light_switch_client_nrf52832_xxAA_s132_6.0.0.dir/__/__/__/mesh/core/src/enc.c.obj
 .debug_loc     0x000000000000de86      0x864 CMakeFiles/light_switch_client_nrf52832_xxAA_s132_6.0.0.dir/__/__/__/mesh/core/src/network.c.obj
 .debug_loc     0x000000000000e6ea      0x978 CMakeFiles/light_switch_client_nrf52832_xxAA_s132_6.0.0.dir/__/__/__/mesh/core/src/net_packet.c.obj
 .debug_loc     0x000000000000f062      0x438 CMakeFiles/light_switch_client_nrf52832_xxAA_s132_6.0.0.dir/__/__/__/mesh/core/src/msqueue.c.obj
 .debug_loc     0x000000000000f49a      0x210 CMakeFiles/light_switch_client_nrf52832_xxAA_s132_6.0.0.dir/__/__/__/mesh/core/src/nrf_mesh_keygen.c.obj
 .debug_loc     0x000000000000f6aa      0x565 CMakeFiles/light_switch_client_nrf52832_xxAA_s132_6.0.0.dir/__/__/__/mesh/core/src/list.c.obj
 .debug_loc     0x000000000000fc0f      0x3dd CMakeFiles/light_switch_client_nrf52832_xxAA_s132_6.0.0.dir/__/__/__/mesh/core/src/log.c.obj
 .debug_loc     0x000000000000ffec     0x21f7 CMakeFiles/light_switch_client_nrf52832_xxAA_s132_6.0.0.dir/__/__/__/mesh/core/src/flash_manager.c.obj
 .debug_loc     0x00000000000121e3      0xb6e CMakeFiles/light_switch_client_nrf52832_xxAA_s132_6.0.0.dir/__/__/__/mesh/core/src/ccm_soft.c.obj
 .debug_loc     0x0000000000012d51      0x16c CMakeFiles/light_switch_client_nrf52832_xxAA_s132_6.0.0.dir/__/__/__/mesh/core/src/replay_cache.c.obj
 .debug_loc     0x0000000000012ebd      0x416 CMakeFiles/light_switch_client_nrf52832_xxAA_s132_6.0.0.dir/__/__/__/mesh/core/src/beacon.c.obj
 .debug_loc     0x00000000000132d3      0x12d CMakeFiles/light_switch_client_nrf52832_xxAA_s132_6.0.0.dir/__/__/__/mesh/core/src/flash_manager_internal.c.obj
 .debug_loc     0x0000000000013400      0x4c4 CMakeFiles/light_switch_client_nrf52832_xxAA_s132_6.0.0.dir/__/__/__/mesh/core/src/core_tx.c.obj
 .debug_loc     0x00000000000138c4      0x6c5 CMakeFiles/light_switch_client_nrf52832_xxAA_s132_6.0.0.dir/__/__/__/mesh/core/src/heartbeat.c.obj
 .debug_loc     0x0000000000013f89      0x6e9 CMakeFiles/light_switch_client_nrf52832_xxAA_s132_6.0.0.dir/__/__/__/mesh/core/src/net_beacon.c.obj
 .debug_loc     0x0000000000014672      0x3d3 CMakeFiles/light_switch_client_nrf52832_xxAA_s132_6.0.0.dir/__/__/__/mesh/core/src/core_tx_adv.c.obj
 .debug_loc     0x0000000000014a45      0x45f CMakeFiles/light_switch_client_nrf52832_xxAA_s132_6.0.0.dir/__/__/__/mesh/bearer/src/ad_listener.c.obj
 .debug_loc     0x0000000000014ea4      0x321 CMakeFiles/light_switch_client_nrf52832_xxAA_s132_6.0.0.dir/__/__/__/mesh/bearer/src/ad_type_filter.c.obj
 .debug_loc     0x00000000000151c5     0x12af CMakeFiles/light_switch_client_nrf52832_xxAA_s132_6.0.0.dir/__/__/__/mesh/bearer/src/advertiser.c.obj
 .debug_loc     0x0000000000016474      0x394 CMakeFiles/light_switch_client_nrf52832_xxAA_s132_6.0.0.dir/__/__/__/mesh/bearer/src/bearer_handler.c.obj
 .debug_loc     0x0000000000016808      0x30e CMakeFiles/light_switch_client_nrf52832_xxAA_s132_6.0.0.dir/__/__/__/mesh/bearer/src/broadcast.c.obj
 .debug_loc     0x0000000000016b16      0x179 CMakeFiles/light_switch_client_nrf52832_xxAA_s132_6.0.0.dir/__/__/__/mesh/bearer/src/filter_engine.c.obj
 .debug_loc     0x0000000000016c8f      0x239 CMakeFiles/light_switch_client_nrf52832_xxAA_s132_6.0.0.dir/__/__/__/mesh/bearer/src/radio_config.c.obj
 .debug_loc     0x0000000000016ec8      0x899 CMakeFiles/light_switch_client_nrf52832_xxAA_s132_6.0.0.dir/__/__/__/mesh/bearer/src/scanner.c.obj
 .debug_loc     0x0000000000017761      0x805 CMakeFiles/light_switch_client_nrf52832_xxAA_s132_6.0.0.dir/__/__/__/models/simple_on_off/src/simple_on_off_client.c.obj
 .debug_loc     0x0000000000017f66      0x29f CMakeFiles/light_switch_client_nrf52832_xxAA_s132_6.0.0.dir/__/__/__/models/config/src/composition_data.c.obj
 .debug_loc     0x0000000000018205     0xa6e3 CMakeFiles/light_switch_client_nrf52832_xxAA_s132_6.0.0.dir/__/__/__/models/config/src/config_server.c.obj
 .debug_loc     0x00000000000228e8       0xa8 CMakeFiles/light_switch_client_nrf52832_xxAA_s132_6.0.0.dir/__/__/__/models/config/src/packed_index_list.c.obj
 .debug_loc     0x0000000000022990     0x3724 CMakeFiles/light_switch_client_nrf52832_xxAA_s132_6.0.0.dir/__/__/__/models/health/src/health_server.c.obj
 .debug_loc     0x00000000000260b4      0x939 CMakeFiles/light_switch_client_nrf52832_xxAA_s132_6.0.0.dir/__/__/__/mesh/access/src/access_publish.c.obj
 .debug_loc     0x00000000000269ed     0x403f CMakeFiles/light_switch_client_nrf52832_xxAA_s132_6.0.0.dir/__/__/__/mesh/access/src/access.c.obj
 .debug_loc     0x000000000002aa2c      0xead CMakeFiles/light_switch_client_nrf52832_xxAA_s132_6.0.0.dir/__/__/__/mesh/access/src/access_reliable.c.obj
 .debug_loc     0x000000000002b8d9     0x6bb6 CMakeFiles/light_switch_client_nrf52832_xxAA_s132_6.0.0.dir/__/__/__/mesh/access/src/device_state_manager.c.obj
 .debug_loc     0x000000000003248f      0xa9f CMakeFiles/light_switch_client_nrf52832_xxAA_s132_6.0.0.dir/__/__/__/mesh/prov/src/prov_provisionee.c.obj
 .debug_loc     0x0000000000032f2e      0xaf3 CMakeFiles/light_switch_client_nrf52832_xxAA_s132_6.0.0.dir/__/__/__/mesh/prov/src/nrf_mesh_prov.c.obj
 .debug_loc     0x0000000000033a21      0xc0a CMakeFiles/light_switch_client_nrf52832_xxAA_s132_6.0.0.dir/__/__/__/mesh/prov/src/provisioning.c.obj
 .debug_loc     0x000000000003462b      0x255 CMakeFiles/light_switch_client_nrf52832_xxAA_s132_6.0.0.dir/__/__/__/mesh/prov/src/prov_beacon.c.obj
 .debug_loc     0x0000000000034880      0x492 CMakeFiles/light_switch_client_nrf52832_xxAA_s132_6.0.0.dir/__/__/__/mesh/prov/src/prov_utils.c.obj
 .debug_loc     0x0000000000034d12     0x2722 CMakeFiles/light_switch_client_nrf52832_xxAA_s132_6.0.0.dir/__/__/__/mesh/prov/src/prov_bearer_adv.c.obj
 .debug_loc     0x0000000000037434       0xca CMakeFiles/light_switch_client_nrf52832_xxAA_s132_6.0.0.dir/home/mazzer/work/nordic/sdk/nRF5_SDK_15.0.0/components/libraries/util/app_error.c.obj
 .debug_loc     0x00000000000374fe       0x63 CMakeFiles/light_switch_client_nrf52832_xxAA_s132_6.0.0.dir/home/mazzer/work/nordic/sdk/nRF5_SDK_15.0.0/components/libraries/util/app_error_handler_gcc.c.obj
 .debug_loc     0x0000000000037561     0x3e95 ../../../external/rtt/librtt_nrf52832_xxAA.a(SEGGER_RTT.c.obj)
 .debug_loc     0x000000000003b3f6      0xec5 ../../../external/rtt/librtt_nrf52832_xxAA.a(SEGGER_RTT_printf.c.obj)
 .debug_loc     0x000000000003c2bb     0xb105 ../../../external/micro-ecc/libuECC_nrf52832_xxAA.a(uECC.c.obj)

.debug_aranges  0x0000000000000000     0x1e78
 .debug_aranges
                0x0000000000000000       0x60 CMakeFiles/light_switch_client_nrf52832_xxAA_s132_6.0.0.dir/src/main.c.obj
 .debug_aranges
                0x0000000000000060       0x50 CMakeFiles/light_switch_client_nrf52832_xxAA_s132_6.0.0.dir/__/__/__/mesh/stack/src/mesh_stack.c.obj
 .debug_aranges
                0x00000000000000b0       0x40 CMakeFiles/light_switch_client_nrf52832_xxAA_s132_6.0.0.dir/__/__/common/src/mesh_softdevice_init.c.obj
 .debug_aranges
                0x00000000000000f0       0x28 CMakeFiles/light_switch_client_nrf52832_xxAA_s132_6.0.0.dir/__/__/common/src/mesh_provisionee.c.obj
 .debug_aranges
                0x0000000000000118       0x30 CMakeFiles/light_switch_client_nrf52832_xxAA_s132_6.0.0.dir/__/__/common/src/rtt_input.c.obj
 .debug_aranges
                0x0000000000000148       0x50 CMakeFiles/light_switch_client_nrf52832_xxAA_s132_6.0.0.dir/__/__/common/src/simple_hal.c.obj
 .debug_aranges
                0x0000000000000198       0x28 CMakeFiles/light_switch_client_nrf52832_xxAA_s132_6.0.0.dir/__/__/nrf_mesh_weak.c.obj
 .debug_aranges
                0x00000000000001c0       0x20 CMakeFiles/light_switch_client_nrf52832_xxAA_s132_6.0.0.dir/__/__/common/src/app_error_weak.c.obj
 .debug_aranges
                0x00000000000001e0       0x20 CMakeFiles/light_switch_client_nrf52832_xxAA_s132_6.0.0.dir/__/__/common/src/assertion_handler_weak.c.obj
 .debug_aranges
                0x0000000000000200       0x30 CMakeFiles/light_switch_client_nrf52832_xxAA_s132_6.0.0.dir/__/__/__/mesh/core/src/nrf_mesh_configure.c.obj
 .debug_aranges
                0x0000000000000230       0x28 CMakeFiles/light_switch_client_nrf52832_xxAA_s132_6.0.0.dir/__/__/__/mesh/core/src/aes.c.obj
 .debug_aranges
                0x0000000000000258       0x38 CMakeFiles/light_switch_client_nrf52832_xxAA_s132_6.0.0.dir/__/__/__/mesh/core/src/msg_cache.c.obj
 .debug_aranges
                0x0000000000000290       0xc0 CMakeFiles/light_switch_client_nrf52832_xxAA_s132_6.0.0.dir/__/__/__/mesh/core/src/transport.c.obj
 .debug_aranges
                0x0000000000000350       0x30 CMakeFiles/light_switch_client_nrf52832_xxAA_s132_6.0.0.dir/__/__/__/mesh/core/src/event.c.obj
 .debug_aranges
                0x0000000000000380       0x60 CMakeFiles/light_switch_client_nrf52832_xxAA_s132_6.0.0.dir/__/__/__/mesh/core/src/packet_buffer.c.obj
 .debug_aranges
                0x00000000000003e0       0xa0 CMakeFiles/light_switch_client_nrf52832_xxAA_s132_6.0.0.dir/__/__/__/mesh/core/src/flash_manager_defrag.c.obj
 .debug_aranges
                0x0000000000000480       0x60 CMakeFiles/light_switch_client_nrf52832_xxAA_s132_6.0.0.dir/__/__/__/mesh/core/src/fifo.c.obj
 .debug_aranges
                0x00000000000004e0       0x28 CMakeFiles/light_switch_client_nrf52832_xxAA_s132_6.0.0.dir/__/__/__/mesh/core/src/nrf_flash.c.obj
 .debug_aranges
                0x0000000000000508       0x48 CMakeFiles/light_switch_client_nrf52832_xxAA_s132_6.0.0.dir/__/__/__/mesh/core/src/packet_mgr.c.obj
 .debug_aranges
                0x0000000000000550       0xd0 CMakeFiles/light_switch_client_nrf52832_xxAA_s132_6.0.0.dir/__/__/__/mesh/core/src/net_state.c.obj
 .debug_aranges
                0x0000000000000620       0x58 CMakeFiles/light_switch_client_nrf52832_xxAA_s132_6.0.0.dir/__/__/__/mesh/core/src/mesh_flash.c.obj
 .debug_aranges
                0x0000000000000678       0x30 CMakeFiles/light_switch_client_nrf52832_xxAA_s132_6.0.0.dir/__/__/__/mesh/core/src/nrf_mesh_utils.c.obj
 .debug_aranges
                0x00000000000006a8       0x90 CMakeFiles/light_switch_client_nrf52832_xxAA_s132_6.0.0.dir/__/__/__/mesh/core/src/nrf_mesh.c.obj
 .debug_aranges
                0x0000000000000738       0x38 CMakeFiles/light_switch_client_nrf52832_xxAA_s132_6.0.0.dir/__/__/__/mesh/core/src/queue.c.obj
 .debug_aranges
                0x0000000000000770       0x38 CMakeFiles/light_switch_client_nrf52832_xxAA_s132_6.0.0.dir/__/__/__/mesh/core/src/hal.c.obj
 .debug_aranges
                0x00000000000007a8       0x28 CMakeFiles/light_switch_client_nrf52832_xxAA_s132_6.0.0.dir/__/__/__/mesh/core/src/aes_cmac.c.obj
 .debug_aranges
                0x00000000000007d0       0x50 CMakeFiles/light_switch_client_nrf52832_xxAA_s132_6.0.0.dir/__/__/__/mesh/core/src/timer_scheduler.c.obj
 .debug_aranges
                0x0000000000000820       0x58 CMakeFiles/light_switch_client_nrf52832_xxAA_s132_6.0.0.dir/__/__/__/mesh/core/src/timer.c.obj
 .debug_aranges
                0x0000000000000878       0x30 CMakeFiles/light_switch_client_nrf52832_xxAA_s132_6.0.0.dir/__/__/__/mesh/core/src/ticker.c.obj
 .debug_aranges
                0x00000000000008a8       0x40 CMakeFiles/light_switch_client_nrf52832_xxAA_s132_6.0.0.dir/__/__/__/mesh/core/src/rand.c.obj
 .debug_aranges
                0x00000000000008e8       0x28 CMakeFiles/light_switch_client_nrf52832_xxAA_s132_6.0.0.dir/__/__/__/mesh/core/src/nrf_mesh_opt.c.obj
 .debug_aranges
                0x0000000000000910       0xa8 CMakeFiles/light_switch_client_nrf52832_xxAA_s132_6.0.0.dir/__/__/__/mesh/core/src/timeslot.c.obj
 .debug_aranges
                0x00000000000009b8       0x88 CMakeFiles/light_switch_client_nrf52832_xxAA_s132_6.0.0.dir/__/__/__/mesh/core/src/bearer_event.c.obj
 .debug_aranges
                0x0000000000000a40       0x70 CMakeFiles/light_switch_client_nrf52832_xxAA_s132_6.0.0.dir/__/__/__/mesh/core/src/enc.c.obj
 .debug_aranges
                0x0000000000000ab0       0x50 CMakeFiles/light_switch_client_nrf52832_xxAA_s132_6.0.0.dir/__/__/__/mesh/core/src/network.c.obj
 .debug_aranges
                0x0000000000000b00       0x58 CMakeFiles/light_switch_client_nrf52832_xxAA_s132_6.0.0.dir/__/__/__/mesh/core/src/net_packet.c.obj
 .debug_aranges
                0x0000000000000b58       0x40 CMakeFiles/light_switch_client_nrf52832_xxAA_s132_6.0.0.dir/__/__/__/mesh/core/src/msqueue.c.obj
 .debug_aranges
                0x0000000000000b98       0x40 CMakeFiles/light_switch_client_nrf52832_xxAA_s132_6.0.0.dir/__/__/__/mesh/core/src/nrf_mesh_keygen.c.obj
 .debug_aranges
                0x0000000000000bd8       0x40 CMakeFiles/light_switch_client_nrf52832_xxAA_s132_6.0.0.dir/__/__/__/mesh/core/src/list.c.obj
 .debug_aranges
                0x0000000000000c18       0x48 CMakeFiles/light_switch_client_nrf52832_xxAA_s132_6.0.0.dir/__/__/__/mesh/core/src/log.c.obj
 .debug_aranges
                0x0000000000000c60       0xa0 CMakeFiles/light_switch_client_nrf52832_xxAA_s132_6.0.0.dir/__/__/__/mesh/core/src/flash_manager.c.obj
 .debug_aranges
                0x0000000000000d00       0x38 CMakeFiles/light_switch_client_nrf52832_xxAA_s132_6.0.0.dir/__/__/__/mesh/core/src/ccm_soft.c.obj
 .debug_aranges
                0x0000000000000d38       0x38 CMakeFiles/light_switch_client_nrf52832_xxAA_s132_6.0.0.dir/__/__/__/mesh/core/src/replay_cache.c.obj
 .debug_aranges
                0x0000000000000d70       0x28 CMakeFiles/light_switch_client_nrf52832_xxAA_s132_6.0.0.dir/__/__/__/mesh/core/src/beacon.c.obj
 .debug_aranges
                0x0000000000000d98       0x20 CMakeFiles/light_switch_client_nrf52832_xxAA_s132_6.0.0.dir/__/__/__/mesh/core/src/flash_manager_internal.c.obj
 .debug_aranges
                0x0000000000000db8       0x58 CMakeFiles/light_switch_client_nrf52832_xxAA_s132_6.0.0.dir/__/__/__/mesh/core/src/core_tx.c.obj
 .debug_aranges
                0x0000000000000e10       0x70 CMakeFiles/light_switch_client_nrf52832_xxAA_s132_6.0.0.dir/__/__/__/mesh/core/src/heartbeat.c.obj
 .debug_aranges
                0x0000000000000e80       0x58 CMakeFiles/light_switch_client_nrf52832_xxAA_s132_6.0.0.dir/__/__/__/mesh/core/src/net_beacon.c.obj
 .debug_aranges
                0x0000000000000ed8       0x68 CMakeFiles/light_switch_client_nrf52832_xxAA_s132_6.0.0.dir/__/__/__/mesh/core/src/core_tx_adv.c.obj
 .debug_aranges
                0x0000000000000f40       0x30 CMakeFiles/light_switch_client_nrf52832_xxAA_s132_6.0.0.dir/__/__/__/mesh/bearer/src/ad_listener.c.obj
 .debug_aranges
                0x0000000000000f70       0x58 CMakeFiles/light_switch_client_nrf52832_xxAA_s132_6.0.0.dir/__/__/__/mesh/bearer/src/ad_type_filter.c.obj
 .debug_aranges
                0x0000000000000fc8       0xa0 CMakeFiles/light_switch_client_nrf52832_xxAA_s132_6.0.0.dir/__/__/__/mesh/bearer/src/advertiser.c.obj
 .debug_aranges
                0x0000000000001068       0x70 CMakeFiles/light_switch_client_nrf52832_xxAA_s132_6.0.0.dir/__/__/__/mesh/bearer/src/bearer_handler.c.obj
 .debug_aranges
                0x00000000000010d8       0x30 CMakeFiles/light_switch_client_nrf52832_xxAA_s132_6.0.0.dir/__/__/__/mesh/bearer/src/broadcast.c.obj
 .debug_aranges
                0x0000000000001108       0x38 CMakeFiles/light_switch_client_nrf52832_xxAA_s132_6.0.0.dir/__/__/__/mesh/bearer/src/filter_engine.c.obj
 .debug_aranges
                0x0000000000001140       0x40 CMakeFiles/light_switch_client_nrf52832_xxAA_s132_6.0.0.dir/__/__/__/mesh/bearer/src/radio_config.c.obj
 .debug_aranges
                0x0000000000001180       0xb8 CMakeFiles/light_switch_client_nrf52832_xxAA_s132_6.0.0.dir/__/__/__/mesh/bearer/src/scanner.c.obj
 .debug_aranges
                0x0000000000001238       0x58 CMakeFiles/light_switch_client_nrf52832_xxAA_s132_6.0.0.dir/__/__/__/models/simple_on_off/src/simple_on_off_client.c.obj
 .debug_aranges
                0x0000000000001290       0x20 CMakeFiles/light_switch_client_nrf52832_xxAA_s132_6.0.0.dir/__/__/__/models/config/src/composition_data.c.obj
 .debug_aranges
                0x00000000000012b0      0x1a8 CMakeFiles/light_switch_client_nrf52832_xxAA_s132_6.0.0.dir/__/__/__/models/config/src/config_server.c.obj
 .debug_aranges
                0x0000000000001458       0x20 CMakeFiles/light_switch_client_nrf52832_xxAA_s132_6.0.0.dir/__/__/__/models/config/src/packed_index_list.c.obj
 .debug_aranges
                0x0000000000001478       0xa0 CMakeFiles/light_switch_client_nrf52832_xxAA_s132_6.0.0.dir/__/__/__/models/health/src/health_server.c.obj
 .debug_aranges
                0x0000000000001518       0x40 CMakeFiles/light_switch_client_nrf52832_xxAA_s132_6.0.0.dir/__/__/__/mesh/access/src/access_publish.c.obj
 .debug_aranges
                0x0000000000001558      0x180 CMakeFiles/light_switch_client_nrf52832_xxAA_s132_6.0.0.dir/__/__/__/mesh/access/src/access.c.obj
 .debug_aranges
                0x00000000000016d8       0x50 CMakeFiles/light_switch_client_nrf52832_xxAA_s132_6.0.0.dir/__/__/__/mesh/access/src/access_reliable.c.obj
 .debug_aranges
                0x0000000000001728      0x250 CMakeFiles/light_switch_client_nrf52832_xxAA_s132_6.0.0.dir/__/__/__/mesh/access/src/device_state_manager.c.obj
 .debug_aranges
                0x0000000000001978       0x60 CMakeFiles/light_switch_client_nrf52832_xxAA_s132_6.0.0.dir/__/__/__/mesh/prov/src/prov_provisionee.c.obj
 .debug_aranges
                0x00000000000019d8       0x80 CMakeFiles/light_switch_client_nrf52832_xxAA_s132_6.0.0.dir/__/__/__/mesh/prov/src/nrf_mesh_prov.c.obj
 .debug_aranges
                0x0000000000001a58       0x78 CMakeFiles/light_switch_client_nrf52832_xxAA_s132_6.0.0.dir/__/__/__/mesh/prov/src/provisioning.c.obj
 .debug_aranges
                0x0000000000001ad0       0x38 CMakeFiles/light_switch_client_nrf52832_xxAA_s132_6.0.0.dir/__/__/__/mesh/prov/src/prov_beacon.c.obj
 .debug_aranges
                0x0000000000001b08       0x60 CMakeFiles/light_switch_client_nrf52832_xxAA_s132_6.0.0.dir/__/__/__/mesh/prov/src/prov_utils.c.obj
 .debug_aranges
                0x0000000000001b68       0xa0 CMakeFiles/light_switch_client_nrf52832_xxAA_s132_6.0.0.dir/__/__/__/mesh/prov/src/prov_bearer_adv.c.obj
 .debug_aranges
                0x0000000000001c08       0x28 CMakeFiles/light_switch_client_nrf52832_xxAA_s132_6.0.0.dir/home/mazzer/work/nordic/sdk/nRF5_SDK_15.0.0/modules/nrfx/mdk/system_nrf52.c.obj
 .debug_aranges
                0x0000000000001c30       0x20 CMakeFiles/light_switch_client_nrf52832_xxAA_s132_6.0.0.dir/home/mazzer/work/nordic/sdk/nRF5_SDK_15.0.0/modules/nrfx/mdk/gcc_startup_nrf52.S.obj
 .debug_aranges
                0x0000000000001c50       0x28 CMakeFiles/light_switch_client_nrf52832_xxAA_s132_6.0.0.dir/home/mazzer/work/nordic/sdk/nRF5_SDK_15.0.0/components/libraries/util/app_error.c.obj
 .debug_aranges
                0x0000000000001c78       0x20 CMakeFiles/light_switch_client_nrf52832_xxAA_s132_6.0.0.dir/home/mazzer/work/nordic/sdk/nRF5_SDK_15.0.0/components/libraries/util/app_error_handler_gcc.c.obj
 .debug_aranges
                0x0000000000001c98       0xb0 ../../../external/rtt/librtt_nrf52832_xxAA.a(SEGGER_RTT.c.obj)
 .debug_aranges
                0x0000000000001d48       0x30 ../../../external/rtt/librtt_nrf52832_xxAA.a(SEGGER_RTT_printf.c.obj)
 .debug_aranges
                0x0000000000001d78      0x100 ../../../external/micro-ecc/libuECC_nrf52832_xxAA.a(uECC.c.obj)

.debug_ranges   0x0000000000000000     0xd208
 .debug_ranges  0x0000000000000000      0x448 CMakeFiles/light_switch_client_nrf52832_xxAA_s132_6.0.0.dir/src/main.c.obj
 .debug_ranges  0x0000000000000448       0x88 CMakeFiles/light_switch_client_nrf52832_xxAA_s132_6.0.0.dir/__/__/__/mesh/stack/src/mesh_stack.c.obj
 .debug_ranges  0x00000000000004d0       0xe8 CMakeFiles/light_switch_client_nrf52832_xxAA_s132_6.0.0.dir/__/__/common/src/mesh_softdevice_init.c.obj
 .debug_ranges  0x00000000000005b8       0x90 CMakeFiles/light_switch_client_nrf52832_xxAA_s132_6.0.0.dir/__/__/common/src/mesh_provisionee.c.obj
 .debug_ranges  0x0000000000000648       0x78 CMakeFiles/light_switch_client_nrf52832_xxAA_s132_6.0.0.dir/__/__/common/src/rtt_input.c.obj
 .debug_ranges  0x00000000000006c0       0xc0 CMakeFiles/light_switch_client_nrf52832_xxAA_s132_6.0.0.dir/__/__/common/src/simple_hal.c.obj
 .debug_ranges  0x0000000000000780       0x18 CMakeFiles/light_switch_client_nrf52832_xxAA_s132_6.0.0.dir/__/__/nrf_mesh_weak.c.obj
 .debug_ranges  0x0000000000000798       0xc8 CMakeFiles/light_switch_client_nrf52832_xxAA_s132_6.0.0.dir/__/__/common/src/app_error_weak.c.obj
 .debug_ranges  0x0000000000000860       0x10 CMakeFiles/light_switch_client_nrf52832_xxAA_s132_6.0.0.dir/__/__/common/src/assertion_handler_weak.c.obj
 .debug_ranges  0x0000000000000870       0x20 CMakeFiles/light_switch_client_nrf52832_xxAA_s132_6.0.0.dir/__/__/__/mesh/core/src/nrf_mesh_configure.c.obj
 .debug_ranges  0x0000000000000890       0x18 CMakeFiles/light_switch_client_nrf52832_xxAA_s132_6.0.0.dir/__/__/__/mesh/core/src/aes.c.obj
 .debug_ranges  0x00000000000008a8       0x40 CMakeFiles/light_switch_client_nrf52832_xxAA_s132_6.0.0.dir/__/__/__/mesh/core/src/msg_cache.c.obj
 .debug_ranges  0x00000000000008e8      0xf08 CMakeFiles/light_switch_client_nrf52832_xxAA_s132_6.0.0.dir/__/__/__/mesh/core/src/transport.c.obj
 .debug_ranges  0x00000000000017f0       0x20 CMakeFiles/light_switch_client_nrf52832_xxAA_s132_6.0.0.dir/__/__/__/mesh/core/src/event.c.obj
 .debug_ranges  0x0000000000001810      0x118 CMakeFiles/light_switch_client_nrf52832_xxAA_s132_6.0.0.dir/__/__/__/mesh/core/src/packet_buffer.c.obj
 .debug_ranges  0x0000000000001928      0x4c8 CMakeFiles/light_switch_client_nrf52832_xxAA_s132_6.0.0.dir/__/__/__/mesh/core/src/flash_manager_defrag.c.obj
 .debug_ranges  0x0000000000001df0       0xc0 CMakeFiles/light_switch_client_nrf52832_xxAA_s132_6.0.0.dir/__/__/__/mesh/core/src/fifo.c.obj
 .debug_ranges  0x0000000000001eb0       0x30 CMakeFiles/light_switch_client_nrf52832_xxAA_s132_6.0.0.dir/__/__/__/mesh/core/src/nrf_flash.c.obj
 .debug_ranges  0x0000000000001ee0       0xe8 CMakeFiles/light_switch_client_nrf52832_xxAA_s132_6.0.0.dir/__/__/__/mesh/core/src/packet_mgr.c.obj
 .debug_ranges  0x0000000000001fc8      0x868 CMakeFiles/light_switch_client_nrf52832_xxAA_s132_6.0.0.dir/__/__/__/mesh/core/src/net_state.c.obj
 .debug_ranges  0x0000000000002830      0x300 CMakeFiles/light_switch_client_nrf52832_xxAA_s132_6.0.0.dir/__/__/__/mesh/core/src/mesh_flash.c.obj
 .debug_ranges  0x0000000000002b30       0x20 CMakeFiles/light_switch_client_nrf52832_xxAA_s132_6.0.0.dir/__/__/__/mesh/core/src/nrf_mesh_utils.c.obj
 .debug_ranges  0x0000000000002b50      0x150 CMakeFiles/light_switch_client_nrf52832_xxAA_s132_6.0.0.dir/__/__/__/mesh/core/src/nrf_mesh.c.obj
 .debug_ranges  0x0000000000002ca0       0x28 CMakeFiles/light_switch_client_nrf52832_xxAA_s132_6.0.0.dir/__/__/__/mesh/core/src/queue.c.obj
 .debug_ranges  0x0000000000002cc8       0x28 CMakeFiles/light_switch_client_nrf52832_xxAA_s132_6.0.0.dir/__/__/__/mesh/core/src/hal.c.obj
 .debug_ranges  0x0000000000002cf0      0x150 CMakeFiles/light_switch_client_nrf52832_xxAA_s132_6.0.0.dir/__/__/__/mesh/core/src/aes_cmac.c.obj
 .debug_ranges  0x0000000000002e40      0x288 CMakeFiles/light_switch_client_nrf52832_xxAA_s132_6.0.0.dir/__/__/__/mesh/core/src/timer_scheduler.c.obj
 .debug_ranges  0x00000000000030c8      0x178 CMakeFiles/light_switch_client_nrf52832_xxAA_s132_6.0.0.dir/__/__/__/mesh/core/src/timer.c.obj
 .debug_ranges  0x0000000000003240       0x20 CMakeFiles/light_switch_client_nrf52832_xxAA_s132_6.0.0.dir/__/__/__/mesh/core/src/ticker.c.obj
 .debug_ranges  0x0000000000003260       0x48 CMakeFiles/light_switch_client_nrf52832_xxAA_s132_6.0.0.dir/__/__/__/mesh/core/src/rand.c.obj
 .debug_ranges  0x00000000000032a8       0x18 CMakeFiles/light_switch_client_nrf52832_xxAA_s132_6.0.0.dir/__/__/__/mesh/core/src/nrf_mesh_opt.c.obj
 .debug_ranges  0x00000000000032c0      0x250 CMakeFiles/light_switch_client_nrf52832_xxAA_s132_6.0.0.dir/__/__/__/mesh/core/src/timeslot.c.obj
 .debug_ranges  0x0000000000003510      0x288 CMakeFiles/light_switch_client_nrf52832_xxAA_s132_6.0.0.dir/__/__/__/mesh/core/src/bearer_event.c.obj
 .debug_ranges  0x0000000000003798      0x1b8 CMakeFiles/light_switch_client_nrf52832_xxAA_s132_6.0.0.dir/__/__/__/mesh/core/src/enc.c.obj
 .debug_ranges  0x0000000000003950      0x1b8 CMakeFiles/light_switch_client_nrf52832_xxAA_s132_6.0.0.dir/__/__/__/mesh/core/src/network.c.obj
 .debug_ranges  0x0000000000003b08      0x208 CMakeFiles/light_switch_client_nrf52832_xxAA_s132_6.0.0.dir/__/__/__/mesh/core/src/net_packet.c.obj
 .debug_ranges  0x0000000000003d10       0x78 CMakeFiles/light_switch_client_nrf52832_xxAA_s132_6.0.0.dir/__/__/__/mesh/core/src/msqueue.c.obj
 .debug_ranges  0x0000000000003d88       0x30 CMakeFiles/light_switch_client_nrf52832_xxAA_s132_6.0.0.dir/__/__/__/mesh/core/src/nrf_mesh_keygen.c.obj
 .debug_ranges  0x0000000000003db8       0xf0 CMakeFiles/light_switch_client_nrf52832_xxAA_s132_6.0.0.dir/__/__/__/mesh/core/src/list.c.obj
 .debug_ranges  0x0000000000003ea8       0x58 CMakeFiles/light_switch_client_nrf52832_xxAA_s132_6.0.0.dir/__/__/__/mesh/core/src/log.c.obj
 .debug_ranges  0x0000000000003f00      0xc18 CMakeFiles/light_switch_client_nrf52832_xxAA_s132_6.0.0.dir/__/__/__/mesh/core/src/flash_manager.c.obj
 .debug_ranges  0x0000000000004b18       0xf8 CMakeFiles/light_switch_client_nrf52832_xxAA_s132_6.0.0.dir/__/__/__/mesh/core/src/ccm_soft.c.obj
 .debug_ranges  0x0000000000004c10       0x48 CMakeFiles/light_switch_client_nrf52832_xxAA_s132_6.0.0.dir/__/__/__/mesh/core/src/replay_cache.c.obj
 .debug_ranges  0x0000000000004c58       0x90 CMakeFiles/light_switch_client_nrf52832_xxAA_s132_6.0.0.dir/__/__/__/mesh/core/src/beacon.c.obj
 .debug_ranges  0x0000000000004ce8       0x30 CMakeFiles/light_switch_client_nrf52832_xxAA_s132_6.0.0.dir/__/__/__/mesh/core/src/flash_manager_internal.c.obj
 .debug_ranges  0x0000000000004d18       0xc0 CMakeFiles/light_switch_client_nrf52832_xxAA_s132_6.0.0.dir/__/__/__/mesh/core/src/core_tx.c.obj
 .debug_ranges  0x0000000000004dd8      0x120 CMakeFiles/light_switch_client_nrf52832_xxAA_s132_6.0.0.dir/__/__/__/mesh/core/src/heartbeat.c.obj
 .debug_ranges  0x0000000000004ef8      0x1b8 CMakeFiles/light_switch_client_nrf52832_xxAA_s132_6.0.0.dir/__/__/__/mesh/core/src/net_beacon.c.obj
 .debug_ranges  0x00000000000050b0       0x58 CMakeFiles/light_switch_client_nrf52832_xxAA_s132_6.0.0.dir/__/__/__/mesh/core/src/core_tx_adv.c.obj
 .debug_ranges  0x0000000000005108      0x118 CMakeFiles/light_switch_client_nrf52832_xxAA_s132_6.0.0.dir/__/__/__/mesh/bearer/src/ad_listener.c.obj
 .debug_ranges  0x0000000000005220       0xc8 CMakeFiles/light_switch_client_nrf52832_xxAA_s132_6.0.0.dir/__/__/__/mesh/bearer/src/ad_type_filter.c.obj
 .debug_ranges  0x00000000000052e8      0x478 CMakeFiles/light_switch_client_nrf52832_xxAA_s132_6.0.0.dir/__/__/__/mesh/bearer/src/advertiser.c.obj
 .debug_ranges  0x0000000000005760      0x188 CMakeFiles/light_switch_client_nrf52832_xxAA_s132_6.0.0.dir/__/__/__/mesh/bearer/src/bearer_handler.c.obj
 .debug_ranges  0x00000000000058e8       0xa0 CMakeFiles/light_switch_client_nrf52832_xxAA_s132_6.0.0.dir/__/__/__/mesh/bearer/src/broadcast.c.obj
 .debug_ranges  0x0000000000005988       0x28 CMakeFiles/light_switch_client_nrf52832_xxAA_s132_6.0.0.dir/__/__/__/mesh/bearer/src/filter_engine.c.obj
 .debug_ranges  0x00000000000059b0       0x48 CMakeFiles/light_switch_client_nrf52832_xxAA_s132_6.0.0.dir/__/__/__/mesh/bearer/src/radio_config.c.obj
 .debug_ranges  0x00000000000059f8      0x400 CMakeFiles/light_switch_client_nrf52832_xxAA_s132_6.0.0.dir/__/__/__/mesh/bearer/src/scanner.c.obj
 .debug_ranges  0x0000000000005df8       0xc0 CMakeFiles/light_switch_client_nrf52832_xxAA_s132_6.0.0.dir/__/__/__/models/simple_on_off/src/simple_on_off_client.c.obj
 .debug_ranges  0x0000000000005eb8       0x90 CMakeFiles/light_switch_client_nrf52832_xxAA_s132_6.0.0.dir/__/__/__/models/config/src/composition_data.c.obj
 .debug_ranges  0x0000000000005f48     0x1640 CMakeFiles/light_switch_client_nrf52832_xxAA_s132_6.0.0.dir/__/__/__/models/config/src/config_server.c.obj
 .debug_ranges  0x0000000000007588       0x10 CMakeFiles/light_switch_client_nrf52832_xxAA_s132_6.0.0.dir/__/__/__/models/config/src/packed_index_list.c.obj
 .debug_ranges  0x0000000000007598      0x6c8 CMakeFiles/light_switch_client_nrf52832_xxAA_s132_6.0.0.dir/__/__/__/models/health/src/health_server.c.obj
 .debug_ranges  0x0000000000007c60      0x318 CMakeFiles/light_switch_client_nrf52832_xxAA_s132_6.0.0.dir/__/__/__/mesh/access/src/access_publish.c.obj
 .debug_ranges  0x0000000000007f78      0xd98 CMakeFiles/light_switch_client_nrf52832_xxAA_s132_6.0.0.dir/__/__/__/mesh/access/src/access.c.obj
 .debug_ranges  0x0000000000008d10      0x280 CMakeFiles/light_switch_client_nrf52832_xxAA_s132_6.0.0.dir/__/__/__/mesh/access/src/access_reliable.c.obj
 .debug_ranges  0x0000000000008f90     0x17d0 CMakeFiles/light_switch_client_nrf52832_xxAA_s132_6.0.0.dir/__/__/__/mesh/access/src/device_state_manager.c.obj
 .debug_ranges  0x000000000000a760      0x1b0 CMakeFiles/light_switch_client_nrf52832_xxAA_s132_6.0.0.dir/__/__/__/mesh/prov/src/prov_provisionee.c.obj
 .debug_ranges  0x000000000000a910      0x140 CMakeFiles/light_switch_client_nrf52832_xxAA_s132_6.0.0.dir/__/__/__/mesh/prov/src/nrf_mesh_prov.c.obj
 .debug_ranges  0x000000000000aa50      0x170 CMakeFiles/light_switch_client_nrf52832_xxAA_s132_6.0.0.dir/__/__/__/mesh/prov/src/provisioning.c.obj
 .debug_ranges  0x000000000000abc0       0x40 CMakeFiles/light_switch_client_nrf52832_xxAA_s132_6.0.0.dir/__/__/__/mesh/prov/src/prov_beacon.c.obj
 .debug_ranges  0x000000000000ac00       0x88 CMakeFiles/light_switch_client_nrf52832_xxAA_s132_6.0.0.dir/__/__/__/mesh/prov/src/prov_utils.c.obj
 .debug_ranges  0x000000000000ac88      0x9c8 CMakeFiles/light_switch_client_nrf52832_xxAA_s132_6.0.0.dir/__/__/__/mesh/prov/src/prov_bearer_adv.c.obj
 .debug_ranges  0x000000000000b650      0x168 CMakeFiles/light_switch_client_nrf52832_xxAA_s132_6.0.0.dir/home/mazzer/work/nordic/sdk/nRF5_SDK_15.0.0/modules/nrfx/mdk/system_nrf52.c.obj
 .debug_ranges  0x000000000000b7b8       0x18 CMakeFiles/light_switch_client_nrf52832_xxAA_s132_6.0.0.dir/home/mazzer/work/nordic/sdk/nRF5_SDK_15.0.0/components/libraries/util/app_error.c.obj
 .debug_ranges  0x000000000000b7d0       0x10 CMakeFiles/light_switch_client_nrf52832_xxAA_s132_6.0.0.dir/home/mazzer/work/nordic/sdk/nRF5_SDK_15.0.0/components/libraries/util/app_error_handler_gcc.c.obj
 .debug_ranges  0x000000000000b7e0      0x5d8 ../../../external/rtt/librtt_nrf52832_xxAA.a(SEGGER_RTT.c.obj)
 .debug_ranges  0x000000000000bdb8      0x1b8 ../../../external/rtt/librtt_nrf52832_xxAA.a(SEGGER_RTT_printf.c.obj)
 .debug_ranges  0x000000000000bf70     0x1298 ../../../external/micro-ecc/libuECC_nrf52832_xxAA.a(uECC.c.obj)

.debug_line     0x0000000000000000    0x2037a
 .debug_line    0x0000000000000000      0xbc7 CMakeFiles/light_switch_client_nrf52832_xxAA_s132_6.0.0.dir/src/main.c.obj
 .debug_line    0x0000000000000bc7      0x6a9 CMakeFiles/light_switch_client_nrf52832_xxAA_s132_6.0.0.dir/__/__/__/mesh/stack/src/mesh_stack.c.obj
 .debug_line    0x0000000000001270      0x49c CMakeFiles/light_switch_client_nrf52832_xxAA_s132_6.0.0.dir/__/__/common/src/mesh_softdevice_init.c.obj
 .debug_line    0x000000000000170c      0x6ff CMakeFiles/light_switch_client_nrf52832_xxAA_s132_6.0.0.dir/__/__/common/src/mesh_provisionee.c.obj
 .debug_line    0x0000000000001e0b      0x379 CMakeFiles/light_switch_client_nrf52832_xxAA_s132_6.0.0.dir/__/__/common/src/rtt_input.c.obj
 .debug_line    0x0000000000002184      0x572 CMakeFiles/light_switch_client_nrf52832_xxAA_s132_6.0.0.dir/__/__/common/src/simple_hal.c.obj
 .debug_line    0x00000000000026f6      0x24f CMakeFiles/light_switch_client_nrf52832_xxAA_s132_6.0.0.dir/__/__/nrf_mesh_weak.c.obj
 .debug_line    0x0000000000002945      0x4e6 CMakeFiles/light_switch_client_nrf52832_xxAA_s132_6.0.0.dir/__/__/common/src/app_error_weak.c.obj
 .debug_line    0x0000000000002e2b      0x272 CMakeFiles/light_switch_client_nrf52832_xxAA_s132_6.0.0.dir/__/__/common/src/assertion_handler_weak.c.obj
 .debug_line    0x000000000000309d      0x24a CMakeFiles/light_switch_client_nrf52832_xxAA_s132_6.0.0.dir/__/__/__/mesh/core/src/nrf_mesh_configure.c.obj
 .debug_line    0x00000000000032e7      0x282 CMakeFiles/light_switch_client_nrf52832_xxAA_s132_6.0.0.dir/__/__/__/mesh/core/src/aes.c.obj
 .debug_line    0x0000000000003569      0x2bf CMakeFiles/light_switch_client_nrf52832_xxAA_s132_6.0.0.dir/__/__/__/mesh/core/src/msg_cache.c.obj
 .debug_line    0x0000000000003828     0x1258 CMakeFiles/light_switch_client_nrf52832_xxAA_s132_6.0.0.dir/__/__/__/mesh/core/src/transport.c.obj
 .debug_line    0x0000000000004a80      0x3df CMakeFiles/light_switch_client_nrf52832_xxAA_s132_6.0.0.dir/__/__/__/mesh/core/src/event.c.obj
 .debug_line    0x0000000000004e5f      0x55a CMakeFiles/light_switch_client_nrf52832_xxAA_s132_6.0.0.dir/__/__/__/mesh/core/src/packet_buffer.c.obj
 .debug_line    0x00000000000053b9      0x8ba CMakeFiles/light_switch_client_nrf52832_xxAA_s132_6.0.0.dir/__/__/__/mesh/core/src/flash_manager_defrag.c.obj
 .debug_line    0x0000000000005c73      0x468 CMakeFiles/light_switch_client_nrf52832_xxAA_s132_6.0.0.dir/__/__/__/mesh/core/src/fifo.c.obj
 .debug_line    0x00000000000060db      0x27a CMakeFiles/light_switch_client_nrf52832_xxAA_s132_6.0.0.dir/__/__/__/mesh/core/src/nrf_flash.c.obj
 .debug_line    0x0000000000006355      0x4cc CMakeFiles/light_switch_client_nrf52832_xxAA_s132_6.0.0.dir/__/__/__/mesh/core/src/packet_mgr.c.obj
 .debug_line    0x0000000000006821      0xae0 CMakeFiles/light_switch_client_nrf52832_xxAA_s132_6.0.0.dir/__/__/__/mesh/core/src/net_state.c.obj
 .debug_line    0x0000000000007301      0x67a CMakeFiles/light_switch_client_nrf52832_xxAA_s132_6.0.0.dir/__/__/__/mesh/core/src/mesh_flash.c.obj
 .debug_line    0x000000000000797b      0x2f8 CMakeFiles/light_switch_client_nrf52832_xxAA_s132_6.0.0.dir/__/__/__/mesh/core/src/nrf_mesh_utils.c.obj
 .debug_line    0x0000000000007c73      0x92f CMakeFiles/light_switch_client_nrf52832_xxAA_s132_6.0.0.dir/__/__/__/mesh/core/src/nrf_mesh.c.obj
 .debug_line    0x00000000000085a2      0x337 CMakeFiles/light_switch_client_nrf52832_xxAA_s132_6.0.0.dir/__/__/__/mesh/core/src/queue.c.obj
 .debug_line    0x00000000000088d9      0x25e CMakeFiles/light_switch_client_nrf52832_xxAA_s132_6.0.0.dir/__/__/__/mesh/core/src/hal.c.obj
 .debug_line    0x0000000000008b37      0x465 CMakeFiles/light_switch_client_nrf52832_xxAA_s132_6.0.0.dir/__/__/__/mesh/core/src/aes_cmac.c.obj
 .debug_line    0x0000000000008f9c      0x503 CMakeFiles/light_switch_client_nrf52832_xxAA_s132_6.0.0.dir/__/__/__/mesh/core/src/timer_scheduler.c.obj
 .debug_line    0x000000000000949f      0x557 CMakeFiles/light_switch_client_nrf52832_xxAA_s132_6.0.0.dir/__/__/__/mesh/core/src/timer.c.obj
 .debug_line    0x00000000000099f6      0x17f CMakeFiles/light_switch_client_nrf52832_xxAA_s132_6.0.0.dir/__/__/__/mesh/core/src/ticker.c.obj
 .debug_line    0x0000000000009b75      0x341 CMakeFiles/light_switch_client_nrf52832_xxAA_s132_6.0.0.dir/__/__/__/mesh/core/src/rand.c.obj
 .debug_line    0x0000000000009eb6      0x336 CMakeFiles/light_switch_client_nrf52832_xxAA_s132_6.0.0.dir/__/__/__/mesh/core/src/nrf_mesh_opt.c.obj
 .debug_line    0x000000000000a1ec      0x70e CMakeFiles/light_switch_client_nrf52832_xxAA_s132_6.0.0.dir/__/__/__/mesh/core/src/timeslot.c.obj
 .debug_line    0x000000000000a8fa      0x69b CMakeFiles/light_switch_client_nrf52832_xxAA_s132_6.0.0.dir/__/__/__/mesh/core/src/bearer_event.c.obj
 .debug_line    0x000000000000af95      0x521 CMakeFiles/light_switch_client_nrf52832_xxAA_s132_6.0.0.dir/__/__/__/mesh/core/src/enc.c.obj
 .debug_line    0x000000000000b4b6      0x62d CMakeFiles/light_switch_client_nrf52832_xxAA_s132_6.0.0.dir/__/__/__/mesh/core/src/network.c.obj
 .debug_line    0x000000000000bae3      0x61f CMakeFiles/light_switch_client_nrf52832_xxAA_s132_6.0.0.dir/__/__/__/mesh/core/src/net_packet.c.obj
 .debug_line    0x000000000000c102      0x38a CMakeFiles/light_switch_client_nrf52832_xxAA_s132_6.0.0.dir/__/__/__/mesh/core/src/msqueue.c.obj
 .debug_line    0x000000000000c48c      0x2f2 CMakeFiles/light_switch_client_nrf52832_xxAA_s132_6.0.0.dir/__/__/__/mesh/core/src/nrf_mesh_keygen.c.obj
 .debug_line    0x000000000000c77e      0x3e6 CMakeFiles/light_switch_client_nrf52832_xxAA_s132_6.0.0.dir/__/__/__/mesh/core/src/list.c.obj
 .debug_line    0x000000000000cb64      0x331 CMakeFiles/light_switch_client_nrf52832_xxAA_s132_6.0.0.dir/__/__/__/mesh/core/src/log.c.obj
 .debug_line    0x000000000000ce95      0xc3a CMakeFiles/light_switch_client_nrf52832_xxAA_s132_6.0.0.dir/__/__/__/mesh/core/src/flash_manager.c.obj
 .debug_line    0x000000000000dacf      0x4a9 CMakeFiles/light_switch_client_nrf52832_xxAA_s132_6.0.0.dir/__/__/__/mesh/core/src/ccm_soft.c.obj
 .debug_line    0x000000000000df78      0x1dc CMakeFiles/light_switch_client_nrf52832_xxAA_s132_6.0.0.dir/__/__/__/mesh/core/src/replay_cache.c.obj
 .debug_line    0x000000000000e154      0x5c5 CMakeFiles/light_switch_client_nrf52832_xxAA_s132_6.0.0.dir/__/__/__/mesh/core/src/beacon.c.obj
 .debug_line    0x000000000000e719      0x31b CMakeFiles/light_switch_client_nrf52832_xxAA_s132_6.0.0.dir/__/__/__/mesh/core/src/flash_manager_internal.c.obj
 .debug_line    0x000000000000ea34      0x42e CMakeFiles/light_switch_client_nrf52832_xxAA_s132_6.0.0.dir/__/__/__/mesh/core/src/core_tx.c.obj
 .debug_line    0x000000000000ee62      0x6b8 CMakeFiles/light_switch_client_nrf52832_xxAA_s132_6.0.0.dir/__/__/__/mesh/core/src/heartbeat.c.obj
 .debug_line    0x000000000000f51a      0x756 CMakeFiles/light_switch_client_nrf52832_xxAA_s132_6.0.0.dir/__/__/__/mesh/core/src/net_beacon.c.obj
 .debug_line    0x000000000000fc70      0x5cc CMakeFiles/light_switch_client_nrf52832_xxAA_s132_6.0.0.dir/__/__/__/mesh/core/src/core_tx_adv.c.obj
 .debug_line    0x000000000001023c      0x43b CMakeFiles/light_switch_client_nrf52832_xxAA_s132_6.0.0.dir/__/__/__/mesh/bearer/src/ad_listener.c.obj
 .debug_line    0x0000000000010677      0x50f CMakeFiles/light_switch_client_nrf52832_xxAA_s132_6.0.0.dir/__/__/__/mesh/bearer/src/ad_type_filter.c.obj
 .debug_line    0x0000000000010b86      0x8cd CMakeFiles/light_switch_client_nrf52832_xxAA_s132_6.0.0.dir/__/__/__/mesh/bearer/src/advertiser.c.obj
 .debug_line    0x0000000000011453      0x617 CMakeFiles/light_switch_client_nrf52832_xxAA_s132_6.0.0.dir/__/__/__/mesh/bearer/src/bearer_handler.c.obj
 .debug_line    0x0000000000011a6a      0x42f CMakeFiles/light_switch_client_nrf52832_xxAA_s132_6.0.0.dir/__/__/__/mesh/bearer/src/broadcast.c.obj
 .debug_line    0x0000000000011e99      0x450 CMakeFiles/light_switch_client_nrf52832_xxAA_s132_6.0.0.dir/__/__/__/mesh/bearer/src/filter_engine.c.obj
 .debug_line    0x00000000000122e9      0x346 CMakeFiles/light_switch_client_nrf52832_xxAA_s132_6.0.0.dir/__/__/__/mesh/bearer/src/radio_config.c.obj
 .debug_line    0x000000000001262f      0x8ef CMakeFiles/light_switch_client_nrf52832_xxAA_s132_6.0.0.dir/__/__/__/mesh/bearer/src/scanner.c.obj
 .debug_line    0x0000000000012f1e      0x5db CMakeFiles/light_switch_client_nrf52832_xxAA_s132_6.0.0.dir/__/__/__/models/simple_on_off/src/simple_on_off_client.c.obj
 .debug_line    0x00000000000134f9      0x3d1 CMakeFiles/light_switch_client_nrf52832_xxAA_s132_6.0.0.dir/__/__/__/models/config/src/composition_data.c.obj
 .debug_line    0x00000000000138ca     0x222b CMakeFiles/light_switch_client_nrf52832_xxAA_s132_6.0.0.dir/__/__/__/models/config/src/config_server.c.obj
 .debug_line    0x0000000000015af5      0x10a CMakeFiles/light_switch_client_nrf52832_xxAA_s132_6.0.0.dir/__/__/__/models/config/src/packed_index_list.c.obj
 .debug_line    0x0000000000015bff      0xb56 CMakeFiles/light_switch_client_nrf52832_xxAA_s132_6.0.0.dir/__/__/__/models/health/src/health_server.c.obj
 .debug_line    0x0000000000016755      0x5c8 CMakeFiles/light_switch_client_nrf52832_xxAA_s132_6.0.0.dir/__/__/__/mesh/access/src/access_publish.c.obj
 .debug_line    0x0000000000016d1d     0x14ba CMakeFiles/light_switch_client_nrf52832_xxAA_s132_6.0.0.dir/__/__/__/mesh/access/src/access.c.obj
 .debug_line    0x00000000000181d7      0x6ac CMakeFiles/light_switch_client_nrf52832_xxAA_s132_6.0.0.dir/__/__/__/mesh/access/src/access_reliable.c.obj
 .debug_line    0x0000000000018883     0x1efa CMakeFiles/light_switch_client_nrf52832_xxAA_s132_6.0.0.dir/__/__/__/mesh/access/src/device_state_manager.c.obj
 .debug_line    0x000000000001a77d      0x803 CMakeFiles/light_switch_client_nrf52832_xxAA_s132_6.0.0.dir/__/__/__/mesh/prov/src/prov_provisionee.c.obj
 .debug_line    0x000000000001af80      0x687 CMakeFiles/light_switch_client_nrf52832_xxAA_s132_6.0.0.dir/__/__/__/mesh/prov/src/nrf_mesh_prov.c.obj
 .debug_line    0x000000000001b607      0x514 CMakeFiles/light_switch_client_nrf52832_xxAA_s132_6.0.0.dir/__/__/__/mesh/prov/src/provisioning.c.obj
 .debug_line    0x000000000001bb1b      0x5c4 CMakeFiles/light_switch_client_nrf52832_xxAA_s132_6.0.0.dir/__/__/__/mesh/prov/src/prov_beacon.c.obj
 .debug_line    0x000000000001c0df      0x594 CMakeFiles/light_switch_client_nrf52832_xxAA_s132_6.0.0.dir/__/__/__/mesh/prov/src/prov_utils.c.obj
 .debug_line    0x000000000001c673      0xf19 CMakeFiles/light_switch_client_nrf52832_xxAA_s132_6.0.0.dir/__/__/__/mesh/prov/src/prov_bearer_adv.c.obj
 .debug_line    0x000000000001d58c      0x2bd CMakeFiles/light_switch_client_nrf52832_xxAA_s132_6.0.0.dir/home/mazzer/work/nordic/sdk/nRF5_SDK_15.0.0/modules/nrfx/mdk/system_nrf52.c.obj
 .debug_line    0x000000000001d849       0xa1 CMakeFiles/light_switch_client_nrf52832_xxAA_s132_6.0.0.dir/home/mazzer/work/nordic/sdk/nRF5_SDK_15.0.0/modules/nrfx/mdk/gcc_startup_nrf52.S.obj
 .debug_line    0x000000000001d8ea      0x271 CMakeFiles/light_switch_client_nrf52832_xxAA_s132_6.0.0.dir/home/mazzer/work/nordic/sdk/nRF5_SDK_15.0.0/components/libraries/util/app_error.c.obj
 .debug_line    0x000000000001db5b      0x214 CMakeFiles/light_switch_client_nrf52832_xxAA_s132_6.0.0.dir/home/mazzer/work/nordic/sdk/nRF5_SDK_15.0.0/components/libraries/util/app_error_handler_gcc.c.obj
 .debug_line    0x000000000001dd6f      0xaaf ../../../external/rtt/librtt_nrf52832_xxAA.a(SEGGER_RTT.c.obj)
 .debug_line    0x000000000001e81e      0x401 ../../../external/rtt/librtt_nrf52832_xxAA.a(SEGGER_RTT_printf.c.obj)
 .debug_line    0x000000000001ec1f     0x175b ../../../external/micro-ecc/libuECC_nrf52832_xxAA.a(uECC.c.obj)

.debug_str      0x0000000000000000    0x141e8
 .debug_str     0x0000000000000000     0x2051 CMakeFiles/light_switch_client_nrf52832_xxAA_s132_6.0.0.dir/src/main.c.obj
                                       0x241a (size before relaxing)
 .debug_str     0x0000000000002051     0x112f CMakeFiles/light_switch_client_nrf52832_xxAA_s132_6.0.0.dir/__/__/__/mesh/stack/src/mesh_stack.c.obj
                                       0x279e (size before relaxing)
 .debug_str     0x0000000000003180      0x34e CMakeFiles/light_switch_client_nrf52832_xxAA_s132_6.0.0.dir/__/__/common/src/mesh_softdevice_init.c.obj
                                       0x11ec (size before relaxing)
 .debug_str     0x00000000000034ce     0x185d CMakeFiles/light_switch_client_nrf52832_xxAA_s132_6.0.0.dir/__/__/common/src/mesh_provisionee.c.obj
                                       0x24b1 (size before relaxing)
 .debug_str     0x0000000000004d2b      0x1c4 CMakeFiles/light_switch_client_nrf52832_xxAA_s132_6.0.0.dir/__/__/common/src/rtt_input.c.obj
                                        0xbd9 (size before relaxing)
 .debug_str     0x0000000000004eef      0x20c CMakeFiles/light_switch_client_nrf52832_xxAA_s132_6.0.0.dir/__/__/common/src/simple_hal.c.obj
                                        0xd5b (size before relaxing)
 .debug_str     0x00000000000050fb       0x73 CMakeFiles/light_switch_client_nrf52832_xxAA_s132_6.0.0.dir/__/__/nrf_mesh_weak.c.obj
                                        0x68c (size before relaxing)
 .debug_str     0x000000000000516e       0xd7 CMakeFiles/light_switch_client_nrf52832_xxAA_s132_6.0.0.dir/__/__/common/src/app_error_weak.c.obj
                                        0x8cd (size before relaxing)
 .debug_str     0x0000000000005245       0x67 CMakeFiles/light_switch_client_nrf52832_xxAA_s132_6.0.0.dir/__/__/common/src/assertion_handler_weak.c.obj
                                        0x6e2 (size before relaxing)
 .debug_str     0x00000000000052ac      0x16d CMakeFiles/light_switch_client_nrf52832_xxAA_s132_6.0.0.dir/__/__/__/mesh/core/src/nrf_mesh_configure.c.obj
                                        0x7ee (size before relaxing)
 .debug_str     0x0000000000005419       0xf8 CMakeFiles/light_switch_client_nrf52832_xxAA_s132_6.0.0.dir/__/__/__/mesh/core/src/aes.c.obj
                                        0xaf9 (size before relaxing)
 .debug_str     0x0000000000005511       0xf2 CMakeFiles/light_switch_client_nrf52832_xxAA_s132_6.0.0.dir/__/__/__/mesh/core/src/msg_cache.c.obj
                                        0x729 (size before relaxing)
 .debug_str     0x0000000000005603     0x16b0 CMakeFiles/light_switch_client_nrf52832_xxAA_s132_6.0.0.dir/__/__/__/mesh/core/src/transport.c.obj
                                       0x3187 (size before relaxing)
 .debug_str     0x0000000000006cb3       0xb9 CMakeFiles/light_switch_client_nrf52832_xxAA_s132_6.0.0.dir/__/__/__/mesh/core/src/event.c.obj
                                       0x1723 (size before relaxing)
 .debug_str     0x0000000000006d6c      0x344 CMakeFiles/light_switch_client_nrf52832_xxAA_s132_6.0.0.dir/__/__/__/mesh/core/src/packet_buffer.c.obj
                                        0xb1c (size before relaxing)
 .debug_str     0x00000000000070b0      0x931 CMakeFiles/light_switch_client_nrf52832_xxAA_s132_6.0.0.dir/__/__/__/mesh/core/src/flash_manager_defrag.c.obj
                                       0x1174 (size before relaxing)
 .debug_str     0x00000000000079e1       0xdc CMakeFiles/light_switch_client_nrf52832_xxAA_s132_6.0.0.dir/__/__/__/mesh/core/src/fifo.c.obj
                                        0x74b (size before relaxing)
 .debug_str     0x0000000000007abd       0xe1 CMakeFiles/light_switch_client_nrf52832_xxAA_s132_6.0.0.dir/__/__/__/mesh/core/src/nrf_flash.c.obj
                                        0x72b (size before relaxing)
 .debug_str     0x0000000000007b9e      0x2be CMakeFiles/light_switch_client_nrf52832_xxAA_s132_6.0.0.dir/__/__/__/mesh/core/src/packet_mgr.c.obj
                                        0xa15 (size before relaxing)
 .debug_str     0x0000000000007e5c      0x5bc CMakeFiles/light_switch_client_nrf52832_xxAA_s132_6.0.0.dir/__/__/__/mesh/core/src/net_state.c.obj
                                       0x21c9 (size before relaxing)
 .debug_str     0x0000000000008418      0x3be CMakeFiles/light_switch_client_nrf52832_xxAA_s132_6.0.0.dir/__/__/__/mesh/core/src/mesh_flash.c.obj
                                        0xd4c (size before relaxing)
 .debug_str     0x00000000000087d6       0xd2 CMakeFiles/light_switch_client_nrf52832_xxAA_s132_6.0.0.dir/__/__/__/mesh/core/src/nrf_mesh_utils.c.obj
                                        0x7c1 (size before relaxing)
 .debug_str     0x00000000000088a8      0x633 CMakeFiles/light_switch_client_nrf52832_xxAA_s132_6.0.0.dir/__/__/__/mesh/core/src/nrf_mesh.c.obj
                                       0x21a7 (size before relaxing)
 .debug_str     0x0000000000008edb       0x92 CMakeFiles/light_switch_client_nrf52832_xxAA_s132_6.0.0.dir/__/__/__/mesh/core/src/queue.c.obj
                                        0x6f3 (size before relaxing)
 .debug_str     0x0000000000008f6d       0xec CMakeFiles/light_switch_client_nrf52832_xxAA_s132_6.0.0.dir/__/__/__/mesh/core/src/hal.c.obj
                                        0x7b9 (size before relaxing)
 .debug_str     0x0000000000009059      0x107 CMakeFiles/light_switch_client_nrf52832_xxAA_s132_6.0.0.dir/__/__/__/mesh/core/src/aes_cmac.c.obj
                                        0x785 (size before relaxing)
 .debug_str     0x0000000000009160      0x17d CMakeFiles/light_switch_client_nrf52832_xxAA_s132_6.0.0.dir/__/__/__/mesh/core/src/timer_scheduler.c.obj
                                        0x9a4 (size before relaxing)
 .debug_str     0x00000000000092dd      0x212 CMakeFiles/light_switch_client_nrf52832_xxAA_s132_6.0.0.dir/__/__/__/mesh/core/src/timer.c.obj
                                        0x8d9 (size before relaxing)
 .debug_str     0x00000000000094ef       0x79 CMakeFiles/light_switch_client_nrf52832_xxAA_s132_6.0.0.dir/__/__/__/mesh/core/src/ticker.c.obj
                                        0x3c5 (size before relaxing)
 .debug_str     0x0000000000009568       0xe3 CMakeFiles/light_switch_client_nrf52832_xxAA_s132_6.0.0.dir/__/__/__/mesh/core/src/rand.c.obj
                                        0x74d (size before relaxing)
 .debug_str     0x000000000000964b       0xbf CMakeFiles/light_switch_client_nrf52832_xxAA_s132_6.0.0.dir/__/__/__/mesh/core/src/nrf_mesh_opt.c.obj
                                        0x960 (size before relaxing)
 .debug_str     0x000000000000970a      0x8ee CMakeFiles/light_switch_client_nrf52832_xxAA_s132_6.0.0.dir/__/__/__/mesh/core/src/timeslot.c.obj
                                       0x1866 (size before relaxing)
 .debug_str     0x0000000000009ff8      0x2fd CMakeFiles/light_switch_client_nrf52832_xxAA_s132_6.0.0.dir/__/__/__/mesh/core/src/bearer_event.c.obj
                                        0xf29 (size before relaxing)
 .debug_str     0x000000000000a2f5      0x1a5 CMakeFiles/light_switch_client_nrf52832_xxAA_s132_6.0.0.dir/__/__/__/mesh/core/src/enc.c.obj
                                        0xa58 (size before relaxing)
 .debug_str     0x000000000000a49a      0x330 CMakeFiles/light_switch_client_nrf52832_xxAA_s132_6.0.0.dir/__/__/__/mesh/core/src/network.c.obj
                                       0x1358 (size before relaxing)
 .debug_str     0x000000000000a7ca      0x346 CMakeFiles/light_switch_client_nrf52832_xxAA_s132_6.0.0.dir/__/__/__/mesh/core/src/net_packet.c.obj
                                        0xef6 (size before relaxing)
 .debug_str     0x000000000000ab10       0x8a CMakeFiles/light_switch_client_nrf52832_xxAA_s132_6.0.0.dir/__/__/__/mesh/core/src/msqueue.c.obj
                                        0x72f (size before relaxing)
 .debug_str     0x000000000000ab9a       0xff CMakeFiles/light_switch_client_nrf52832_xxAA_s132_6.0.0.dir/__/__/__/mesh/core/src/nrf_mesh_keygen.c.obj
                                        0x407 (size before relaxing)
 .debug_str     0x000000000000ac99       0xb4 CMakeFiles/light_switch_client_nrf52832_xxAA_s132_6.0.0.dir/__/__/__/mesh/core/src/list.c.obj
                                        0x32e (size before relaxing)
 .debug_str     0x000000000000ad4d      0x12e CMakeFiles/light_switch_client_nrf52832_xxAA_s132_6.0.0.dir/__/__/__/mesh/core/src/log.c.obj
                                        0x840 (size before relaxing)
 .debug_str     0x000000000000ae7b      0x562 CMakeFiles/light_switch_client_nrf52832_xxAA_s132_6.0.0.dir/__/__/__/mesh/core/src/flash_manager.c.obj
                                       0x15e8 (size before relaxing)
 .debug_str     0x000000000000b3dd       0xbc CMakeFiles/light_switch_client_nrf52832_xxAA_s132_6.0.0.dir/__/__/__/mesh/core/src/ccm_soft.c.obj
                                        0x7cd (size before relaxing)
 .debug_str     0x000000000000b499       0xc9 CMakeFiles/light_switch_client_nrf52832_xxAA_s132_6.0.0.dir/__/__/__/mesh/core/src/replay_cache.c.obj
                                        0x6fd (size before relaxing)
 .debug_str     0x000000000000b562      0x10b CMakeFiles/light_switch_client_nrf52832_xxAA_s132_6.0.0.dir/__/__/__/mesh/core/src/beacon.c.obj
                                       0x1173 (size before relaxing)
 .debug_str     0x000000000000b66d       0x6f CMakeFiles/light_switch_client_nrf52832_xxAA_s132_6.0.0.dir/__/__/__/mesh/core/src/flash_manager_internal.c.obj
                                        0x814 (size before relaxing)
 .debug_str     0x000000000000b6dc      0x2f5 CMakeFiles/light_switch_client_nrf52832_xxAA_s132_6.0.0.dir/__/__/__/mesh/core/src/core_tx.c.obj
                                        0xc5f (size before relaxing)
 .debug_str     0x000000000000b9d1      0x44f CMakeFiles/light_switch_client_nrf52832_xxAA_s132_6.0.0.dir/__/__/__/mesh/core/src/heartbeat.c.obj
                                       0x22b0 (size before relaxing)
 .debug_str     0x000000000000be20      0x293 CMakeFiles/light_switch_client_nrf52832_xxAA_s132_6.0.0.dir/__/__/__/mesh/core/src/net_beacon.c.obj
                                       0x2110 (size before relaxing)
 .debug_str     0x000000000000c0b3      0x13e CMakeFiles/light_switch_client_nrf52832_xxAA_s132_6.0.0.dir/__/__/__/mesh/core/src/core_tx_adv.c.obj
                                       0x1349 (size before relaxing)
 .debug_str     0x000000000000c1f1      0x1c4 CMakeFiles/light_switch_client_nrf52832_xxAA_s132_6.0.0.dir/__/__/__/mesh/bearer/src/ad_listener.c.obj
                                        0xc52 (size before relaxing)
 .debug_str     0x000000000000c3b5      0x199 CMakeFiles/light_switch_client_nrf52832_xxAA_s132_6.0.0.dir/__/__/__/mesh/bearer/src/ad_type_filter.c.obj
                                        0xa0f (size before relaxing)
 .debug_str     0x000000000000c54e      0x358 CMakeFiles/light_switch_client_nrf52832_xxAA_s132_6.0.0.dir/__/__/__/mesh/bearer/src/advertiser.c.obj
                                       0x1562 (size before relaxing)
 .debug_str     0x000000000000c8a6      0x35f CMakeFiles/light_switch_client_nrf52832_xxAA_s132_6.0.0.dir/__/__/__/mesh/bearer/src/bearer_handler.c.obj
                                        0xfe5 (size before relaxing)
 .debug_str     0x000000000000cc05      0x1e3 CMakeFiles/light_switch_client_nrf52832_xxAA_s132_6.0.0.dir/__/__/__/mesh/bearer/src/broadcast.c.obj
                                        0xf9c (size before relaxing)
 .debug_str     0x000000000000cde8       0xa9 CMakeFiles/light_switch_client_nrf52832_xxAA_s132_6.0.0.dir/__/__/__/mesh/bearer/src/filter_engine.c.obj
                                        0x87c (size before relaxing)
 .debug_str     0x000000000000ce91       0xb0 CMakeFiles/light_switch_client_nrf52832_xxAA_s132_6.0.0.dir/__/__/__/mesh/bearer/src/radio_config.c.obj
                                        0x7ea (size before relaxing)
 .debug_str     0x000000000000cf41      0x494 CMakeFiles/light_switch_client_nrf52832_xxAA_s132_6.0.0.dir/__/__/__/mesh/bearer/src/scanner.c.obj
                                       0x192e (size before relaxing)
 .debug_str     0x000000000000d3d5      0x46f CMakeFiles/light_switch_client_nrf52832_xxAA_s132_6.0.0.dir/__/__/__/models/simple_on_off/src/simple_on_off_client.c.obj
                                       0x115a (size before relaxing)
 .debug_str     0x000000000000d844      0x262 CMakeFiles/light_switch_client_nrf52832_xxAA_s132_6.0.0.dir/__/__/__/models/config/src/composition_data.c.obj
                                        0x94d (size before relaxing)
 .debug_str     0x000000000000daa6     0x2675 CMakeFiles/light_switch_client_nrf52832_xxAA_s132_6.0.0.dir/__/__/__/models/config/src/config_server.c.obj
                                       0x5075 (size before relaxing)
 .debug_str     0x000000000001011b       0xa0 CMakeFiles/light_switch_client_nrf52832_xxAA_s132_6.0.0.dir/__/__/__/models/config/src/packed_index_list.c.obj
                                        0x2c6 (size before relaxing)
 .debug_str     0x00000000000101bb      0x641 CMakeFiles/light_switch_client_nrf52832_xxAA_s132_6.0.0.dir/__/__/__/models/health/src/health_server.c.obj
                                       0x170f (size before relaxing)
 .debug_str     0x00000000000107fc      0x29b CMakeFiles/light_switch_client_nrf52832_xxAA_s132_6.0.0.dir/__/__/__/mesh/access/src/access_publish.c.obj
                                        0xc3c (size before relaxing)
 .debug_str     0x0000000000010a97      0x83a CMakeFiles/light_switch_client_nrf52832_xxAA_s132_6.0.0.dir/__/__/__/mesh/access/src/access.c.obj
                                       0x2fe6 (size before relaxing)
 .debug_str     0x00000000000112d1      0x156 CMakeFiles/light_switch_client_nrf52832_xxAA_s132_6.0.0.dir/__/__/__/mesh/access/src/access_reliable.c.obj
                                       0x1076 (size before relaxing)
 .debug_str     0x0000000000011427      0xd12 CMakeFiles/light_switch_client_nrf52832_xxAA_s132_6.0.0.dir/__/__/__/mesh/access/src/device_state_manager.c.obj
                                       0x30e9 (size before relaxing)
 .debug_str     0x0000000000012139      0x60f CMakeFiles/light_switch_client_nrf52832_xxAA_s132_6.0.0.dir/__/__/__/mesh/prov/src/prov_provisionee.c.obj
                                       0x2258 (size before relaxing)
 .debug_str     0x0000000000012748      0x27e CMakeFiles/light_switch_client_nrf52832_xxAA_s132_6.0.0.dir/__/__/__/mesh/prov/src/nrf_mesh_prov.c.obj
                                       0x1e4a (size before relaxing)
 .debug_str     0x00000000000129c6      0x124 CMakeFiles/light_switch_client_nrf52832_xxAA_s132_6.0.0.dir/__/__/__/mesh/prov/src/provisioning.c.obj
                                        0xf9b (size before relaxing)
 .debug_str     0x0000000000012aea       0xe8 CMakeFiles/light_switch_client_nrf52832_xxAA_s132_6.0.0.dir/__/__/__/mesh/prov/src/prov_beacon.c.obj
                                       0x19cc (size before relaxing)
 .debug_str     0x0000000000012bd2      0x1fa CMakeFiles/light_switch_client_nrf52832_xxAA_s132_6.0.0.dir/__/__/__/mesh/prov/src/prov_utils.c.obj
                                       0x1f99 (size before relaxing)
 .debug_str     0x0000000000012dcc      0x44e CMakeFiles/light_switch_client_nrf52832_xxAA_s132_6.0.0.dir/__/__/__/mesh/prov/src/prov_bearer_adv.c.obj
                                       0x1c30 (size before relaxing)
 .debug_str     0x000000000001321a      0x2f6 CMakeFiles/light_switch_client_nrf52832_xxAA_s132_6.0.0.dir/home/mazzer/work/nordic/sdk/nRF5_SDK_15.0.0/modules/nrfx/mdk/system_nrf52.c.obj
                                        0x7c2 (size before relaxing)
 .debug_str     0x0000000000013510       0x61 CMakeFiles/light_switch_client_nrf52832_xxAA_s132_6.0.0.dir/home/mazzer/work/nordic/sdk/nRF5_SDK_15.0.0/modules/nrfx/mdk/gcc_startup_nrf52.S.obj
                                         0xba (size before relaxing)
 .debug_str     0x0000000000013571       0xac CMakeFiles/light_switch_client_nrf52832_xxAA_s132_6.0.0.dir/home/mazzer/work/nordic/sdk/nRF5_SDK_15.0.0/components/libraries/util/app_error.c.obj
                                        0x76d (size before relaxing)
 .debug_str     0x000000000001361d       0x5f CMakeFiles/light_switch_client_nrf52832_xxAA_s132_6.0.0.dir/home/mazzer/work/nordic/sdk/nRF5_SDK_15.0.0/components/libraries/util/app_error_handler_gcc.c.obj
                                        0x6d2 (size before relaxing)
 .debug_str     0x000000000001367c      0x33f ../../../external/rtt/librtt_nrf52832_xxAA.a(SEGGER_RTT.c.obj)
                                        0x982 (size before relaxing)
 .debug_str     0x00000000000139bb      0x116 ../../../external/rtt/librtt_nrf52832_xxAA.a(SEGGER_RTT_printf.c.obj)
                                        0x7f2 (size before relaxing)
 .debug_str     0x0000000000013ad1      0x717 ../../../external/micro-ecc/libuECC_nrf52832_xxAA.a(uECC.c.obj)
                                        0x8df (size before relaxing)

.debug_frame    0x0000000000000000     0x6b78
 .debug_frame   0x0000000000000000      0x180 CMakeFiles/light_switch_client_nrf52832_xxAA_s132_6.0.0.dir/src/main.c.obj
 .debug_frame   0x0000000000000180       0xdc CMakeFiles/light_switch_client_nrf52832_xxAA_s132_6.0.0.dir/__/__/__/mesh/stack/src/mesh_stack.c.obj
 .debug_frame   0x000000000000025c       0x88 CMakeFiles/light_switch_client_nrf52832_xxAA_s132_6.0.0.dir/__/__/common/src/mesh_softdevice_init.c.obj
 .debug_frame   0x00000000000002e4       0x64 CMakeFiles/light_switch_client_nrf52832_xxAA_s132_6.0.0.dir/__/__/common/src/mesh_provisionee.c.obj
 .debug_frame   0x0000000000000348       0x60 CMakeFiles/light_switch_client_nrf52832_xxAA_s132_6.0.0.dir/__/__/common/src/rtt_input.c.obj
 .debug_frame   0x00000000000003a8       0xbc CMakeFiles/light_switch_client_nrf52832_xxAA_s132_6.0.0.dir/__/__/common/src/simple_hal.c.obj
 .debug_frame   0x0000000000000464       0x30 CMakeFiles/light_switch_client_nrf52832_xxAA_s132_6.0.0.dir/__/__/nrf_mesh_weak.c.obj
 .debug_frame   0x0000000000000494       0x34 CMakeFiles/light_switch_client_nrf52832_xxAA_s132_6.0.0.dir/__/__/common/src/app_error_weak.c.obj
 .debug_frame   0x00000000000004c8       0x2c CMakeFiles/light_switch_client_nrf52832_xxAA_s132_6.0.0.dir/__/__/common/src/assertion_handler_weak.c.obj
 .debug_frame   0x00000000000004f4       0x4c CMakeFiles/light_switch_client_nrf52832_xxAA_s132_6.0.0.dir/__/__/__/mesh/core/src/nrf_mesh_configure.c.obj
 .debug_frame   0x0000000000000540       0x40 CMakeFiles/light_switch_client_nrf52832_xxAA_s132_6.0.0.dir/__/__/__/mesh/core/src/aes.c.obj
 .debug_frame   0x0000000000000580       0x7c CMakeFiles/light_switch_client_nrf52832_xxAA_s132_6.0.0.dir/__/__/__/mesh/core/src/msg_cache.c.obj
 .debug_frame   0x00000000000005fc      0x3fc CMakeFiles/light_switch_client_nrf52832_xxAA_s132_6.0.0.dir/__/__/__/mesh/core/src/transport.c.obj
 .debug_frame   0x00000000000009f8       0x74 CMakeFiles/light_switch_client_nrf52832_xxAA_s132_6.0.0.dir/__/__/__/mesh/core/src/event.c.obj
 .debug_frame   0x0000000000000a6c      0x10c CMakeFiles/light_switch_client_nrf52832_xxAA_s132_6.0.0.dir/__/__/__/mesh/core/src/packet_buffer.c.obj
 .debug_frame   0x0000000000000b78      0x268 CMakeFiles/light_switch_client_nrf52832_xxAA_s132_6.0.0.dir/__/__/__/mesh/core/src/flash_manager_defrag.c.obj
 .debug_frame   0x0000000000000de0       0xd8 CMakeFiles/light_switch_client_nrf52832_xxAA_s132_6.0.0.dir/__/__/__/mesh/core/src/fifo.c.obj
 .debug_frame   0x0000000000000eb8       0x3c CMakeFiles/light_switch_client_nrf52832_xxAA_s132_6.0.0.dir/__/__/__/mesh/core/src/nrf_flash.c.obj
 .debug_frame   0x0000000000000ef4       0xac CMakeFiles/light_switch_client_nrf52832_xxAA_s132_6.0.0.dir/__/__/__/mesh/core/src/packet_mgr.c.obj
 .debug_frame   0x0000000000000fa0      0x31c CMakeFiles/light_switch_client_nrf52832_xxAA_s132_6.0.0.dir/__/__/__/mesh/core/src/net_state.c.obj
 .debug_frame   0x00000000000012bc      0x130 CMakeFiles/light_switch_client_nrf52832_xxAA_s132_6.0.0.dir/__/__/__/mesh/core/src/mesh_flash.c.obj
 .debug_frame   0x00000000000013ec       0x60 CMakeFiles/light_switch_client_nrf52832_xxAA_s132_6.0.0.dir/__/__/__/mesh/core/src/nrf_mesh_utils.c.obj
 .debug_frame   0x000000000000144c      0x200 CMakeFiles/light_switch_client_nrf52832_xxAA_s132_6.0.0.dir/__/__/__/mesh/core/src/nrf_mesh.c.obj
 .debug_frame   0x000000000000164c       0x74 CMakeFiles/light_switch_client_nrf52832_xxAA_s132_6.0.0.dir/__/__/__/mesh/core/src/queue.c.obj
 .debug_frame   0x00000000000016c0       0x58 CMakeFiles/light_switch_client_nrf52832_xxAA_s132_6.0.0.dir/__/__/__/mesh/core/src/hal.c.obj
 .debug_frame   0x0000000000001718       0x60 CMakeFiles/light_switch_client_nrf52832_xxAA_s132_6.0.0.dir/__/__/__/mesh/core/src/aes_cmac.c.obj
 .debug_frame   0x0000000000001778       0xe4 CMakeFiles/light_switch_client_nrf52832_xxAA_s132_6.0.0.dir/__/__/__/mesh/core/src/timer_scheduler.c.obj
 .debug_frame   0x000000000000185c      0x158 CMakeFiles/light_switch_client_nrf52832_xxAA_s132_6.0.0.dir/__/__/__/mesh/core/src/timer.c.obj
 .debug_frame   0x00000000000019b4       0x4c CMakeFiles/light_switch_client_nrf52832_xxAA_s132_6.0.0.dir/__/__/__/mesh/core/src/ticker.c.obj
 .debug_frame   0x0000000000001a00       0x9c CMakeFiles/light_switch_client_nrf52832_xxAA_s132_6.0.0.dir/__/__/__/mesh/core/src/rand.c.obj
 .debug_frame   0x0000000000001a9c       0x30 CMakeFiles/light_switch_client_nrf52832_xxAA_s132_6.0.0.dir/__/__/__/mesh/core/src/nrf_mesh_opt.c.obj
 .debug_frame   0x0000000000001acc      0x190 CMakeFiles/light_switch_client_nrf52832_xxAA_s132_6.0.0.dir/__/__/__/mesh/core/src/timeslot.c.obj
 .debug_frame   0x0000000000001c5c      0x1ac CMakeFiles/light_switch_client_nrf52832_xxAA_s132_6.0.0.dir/__/__/__/mesh/core/src/bearer_event.c.obj
 .debug_frame   0x0000000000001e08      0x158 CMakeFiles/light_switch_client_nrf52832_xxAA_s132_6.0.0.dir/__/__/__/mesh/core/src/enc.c.obj
 .debug_frame   0x0000000000001f60      0x10c CMakeFiles/light_switch_client_nrf52832_xxAA_s132_6.0.0.dir/__/__/__/mesh/core/src/network.c.obj
 .debug_frame   0x000000000000206c       0xec CMakeFiles/light_switch_client_nrf52832_xxAA_s132_6.0.0.dir/__/__/__/mesh/core/src/net_packet.c.obj
 .debug_frame   0x0000000000002158       0x94 CMakeFiles/light_switch_client_nrf52832_xxAA_s132_6.0.0.dir/__/__/__/mesh/core/src/msqueue.c.obj
 .debug_frame   0x00000000000021ec       0xc8 CMakeFiles/light_switch_client_nrf52832_xxAA_s132_6.0.0.dir/__/__/__/mesh/core/src/nrf_mesh_keygen.c.obj
 .debug_frame   0x00000000000022b4       0x98 CMakeFiles/light_switch_client_nrf52832_xxAA_s132_6.0.0.dir/__/__/__/mesh/core/src/list.c.obj
 .debug_frame   0x000000000000234c       0xc0 CMakeFiles/light_switch_client_nrf52832_xxAA_s132_6.0.0.dir/__/__/__/mesh/core/src/log.c.obj
 .debug_frame   0x000000000000240c      0x258 CMakeFiles/light_switch_client_nrf52832_xxAA_s132_6.0.0.dir/__/__/__/mesh/core/src/flash_manager.c.obj
 .debug_frame   0x0000000000002664       0xcc CMakeFiles/light_switch_client_nrf52832_xxAA_s132_6.0.0.dir/__/__/__/mesh/core/src/ccm_soft.c.obj
 .debug_frame   0x0000000000002730       0xb8 CMakeFiles/light_switch_client_nrf52832_xxAA_s132_6.0.0.dir/__/__/__/mesh/core/src/replay_cache.c.obj
 .debug_frame   0x00000000000027e8       0x7c CMakeFiles/light_switch_client_nrf52832_xxAA_s132_6.0.0.dir/__/__/__/mesh/core/src/beacon.c.obj
 .debug_frame   0x0000000000002864       0x34 CMakeFiles/light_switch_client_nrf52832_xxAA_s132_6.0.0.dir/__/__/__/mesh/core/src/flash_manager_internal.c.obj
 .debug_frame   0x0000000000002898       0xf8 CMakeFiles/light_switch_client_nrf52832_xxAA_s132_6.0.0.dir/__/__/__/mesh/core/src/core_tx.c.obj
 .debug_frame   0x0000000000002990      0x184 CMakeFiles/light_switch_client_nrf52832_xxAA_s132_6.0.0.dir/__/__/__/mesh/core/src/heartbeat.c.obj
 .debug_frame   0x0000000000002b14      0x114 CMakeFiles/light_switch_client_nrf52832_xxAA_s132_6.0.0.dir/__/__/__/mesh/core/src/net_beacon.c.obj
 .debug_frame   0x0000000000002c28      0x138 CMakeFiles/light_switch_client_nrf52832_xxAA_s132_6.0.0.dir/__/__/__/mesh/core/src/core_tx_adv.c.obj
 .debug_frame   0x0000000000002d60       0x94 CMakeFiles/light_switch_client_nrf52832_xxAA_s132_6.0.0.dir/__/__/__/mesh/bearer/src/ad_listener.c.obj
 .debug_frame   0x0000000000002df4       0xc0 CMakeFiles/light_switch_client_nrf52832_xxAA_s132_6.0.0.dir/__/__/__/mesh/bearer/src/ad_type_filter.c.obj
 .debug_frame   0x0000000000002eb4      0x278 CMakeFiles/light_switch_client_nrf52832_xxAA_s132_6.0.0.dir/__/__/__/mesh/bearer/src/advertiser.c.obj
 .debug_frame   0x000000000000312c      0x170 CMakeFiles/light_switch_client_nrf52832_xxAA_s132_6.0.0.dir/__/__/__/mesh/bearer/src/bearer_handler.c.obj
 .debug_frame   0x000000000000329c       0x74 CMakeFiles/light_switch_client_nrf52832_xxAA_s132_6.0.0.dir/__/__/__/mesh/bearer/src/broadcast.c.obj
 .debug_frame   0x0000000000003310       0x88 CMakeFiles/light_switch_client_nrf52832_xxAA_s132_6.0.0.dir/__/__/__/mesh/bearer/src/filter_engine.c.obj
 .debug_frame   0x0000000000003398       0x98 CMakeFiles/light_switch_client_nrf52832_xxAA_s132_6.0.0.dir/__/__/__/mesh/bearer/src/radio_config.c.obj
 .debug_frame   0x0000000000003430      0x244 CMakeFiles/light_switch_client_nrf52832_xxAA_s132_6.0.0.dir/__/__/__/mesh/bearer/src/scanner.c.obj
 .debug_frame   0x0000000000003674      0x130 CMakeFiles/light_switch_client_nrf52832_xxAA_s132_6.0.0.dir/__/__/__/models/simple_on_off/src/simple_on_off_client.c.obj
 .debug_frame   0x00000000000037a4       0x40 CMakeFiles/light_switch_client_nrf52832_xxAA_s132_6.0.0.dir/__/__/__/models/config/src/composition_data.c.obj
 .debug_frame   0x00000000000037e4      0x830 CMakeFiles/light_switch_client_nrf52832_xxAA_s132_6.0.0.dir/__/__/__/models/config/src/config_server.c.obj
 .debug_frame   0x0000000000004014       0x30 CMakeFiles/light_switch_client_nrf52832_xxAA_s132_6.0.0.dir/__/__/__/models/config/src/packed_index_list.c.obj
 .debug_frame   0x0000000000004044      0x27c CMakeFiles/light_switch_client_nrf52832_xxAA_s132_6.0.0.dir/__/__/__/models/health/src/health_server.c.obj
 .debug_frame   0x00000000000042c0       0xf4 CMakeFiles/light_switch_client_nrf52832_xxAA_s132_6.0.0.dir/__/__/__/mesh/access/src/access_publish.c.obj
 .debug_frame   0x00000000000043b4      0x674 CMakeFiles/light_switch_client_nrf52832_xxAA_s132_6.0.0.dir/__/__/__/mesh/access/src/access.c.obj
 .debug_frame   0x0000000000004a28      0x14c CMakeFiles/light_switch_client_nrf52832_xxAA_s132_6.0.0.dir/__/__/__/mesh/access/src/access_reliable.c.obj
 .debug_frame   0x0000000000004b74      0xa5c CMakeFiles/light_switch_client_nrf52832_xxAA_s132_6.0.0.dir/__/__/__/mesh/access/src/device_state_manager.c.obj
 .debug_frame   0x00000000000055d0      0x198 CMakeFiles/light_switch_client_nrf52832_xxAA_s132_6.0.0.dir/__/__/__/mesh/prov/src/prov_provisionee.c.obj
 .debug_frame   0x0000000000005768      0x1c8 CMakeFiles/light_switch_client_nrf52832_xxAA_s132_6.0.0.dir/__/__/__/mesh/prov/src/nrf_mesh_prov.c.obj
 .debug_frame   0x0000000000005930      0x1a0 CMakeFiles/light_switch_client_nrf52832_xxAA_s132_6.0.0.dir/__/__/__/mesh/prov/src/provisioning.c.obj
 .debug_frame   0x0000000000005ad0       0x88 CMakeFiles/light_switch_client_nrf52832_xxAA_s132_6.0.0.dir/__/__/__/mesh/prov/src/prov_beacon.c.obj
 .debug_frame   0x0000000000005b58      0x11c CMakeFiles/light_switch_client_nrf52832_xxAA_s132_6.0.0.dir/__/__/__/mesh/prov/src/prov_utils.c.obj
 .debug_frame   0x0000000000005c74      0x2d8 CMakeFiles/light_switch_client_nrf52832_xxAA_s132_6.0.0.dir/__/__/__/mesh/prov/src/prov_bearer_adv.c.obj
 .debug_frame   0x0000000000005f4c       0x40 CMakeFiles/light_switch_client_nrf52832_xxAA_s132_6.0.0.dir/home/mazzer/work/nordic/sdk/nRF5_SDK_15.0.0/modules/nrfx/mdk/system_nrf52.c.obj
 .debug_frame   0x0000000000005f8c       0x54 CMakeFiles/light_switch_client_nrf52832_xxAA_s132_6.0.0.dir/home/mazzer/work/nordic/sdk/nRF5_SDK_15.0.0/components/libraries/util/app_error.c.obj
 .debug_frame   0x0000000000005fe0       0x20 CMakeFiles/light_switch_client_nrf52832_xxAA_s132_6.0.0.dir/home/mazzer/work/nordic/sdk/nRF5_SDK_15.0.0/components/libraries/util/app_error_handler_gcc.c.obj
 .debug_frame   0x0000000000006000      0x2e4 ../../../external/rtt/librtt_nrf52832_xxAA.a(SEGGER_RTT.c.obj)
 .debug_frame   0x00000000000062e4       0xa0 ../../../external/rtt/librtt_nrf52832_xxAA.a(SEGGER_RTT_printf.c.obj)
 .debug_frame   0x0000000000006384      0x4c8 ../../../external/micro-ecc/libuECC_nrf52832_xxAA.a(uECC.c.obj)
 .debug_frame   0x000000000000684c       0x2c /usr/bin/../lib/gcc/arm-none-eabi/7.2.1/thumb/v7e-m/fpv4-sp/hard/libgcc.a(_aeabi_uldivmod.o)
 .debug_frame   0x0000000000006878       0x34 /usr/bin/../lib/gcc/arm-none-eabi/7.2.1/thumb/v7e-m/fpv4-sp/hard/libgcc.a(_udivmoddi4.o)
 .debug_frame   0x00000000000068ac       0x28 /usr/bin/../lib/gcc/arm-none-eabi/7.2.1/../../../../arm-none-eabi/lib/thumb/v7e-m/fpv4-sp/hard/libg_nano.a(lib_a-exit.o)
 .debug_frame   0x00000000000068d4       0x2c /usr/bin/../lib/gcc/arm-none-eabi/7.2.1/../../../../arm-none-eabi/lib/thumb/v7e-m/fpv4-sp/hard/libg_nano.a(lib_a-init.o)
 .debug_frame   0x0000000000006900       0x30 /usr/bin/../lib/gcc/arm-none-eabi/7.2.1/../../../../arm-none-eabi/lib/thumb/v7e-m/fpv4-sp/hard/libg_nano.a(lib_a-malloc.o)
 .debug_frame   0x0000000000006930       0x2c /usr/bin/../lib/gcc/arm-none-eabi/7.2.1/../../../../arm-none-eabi/lib/thumb/v7e-m/fpv4-sp/hard/libg_nano.a(lib_a-memcmp.o)
 .debug_frame   0x000000000000695c       0x28 /usr/bin/../lib/gcc/arm-none-eabi/7.2.1/../../../../arm-none-eabi/lib/thumb/v7e-m/fpv4-sp/hard/libg_nano.a(lib_a-memcpy-stub.o)
 .debug_frame   0x0000000000006984       0x20 /usr/bin/../lib/gcc/arm-none-eabi/7.2.1/../../../../arm-none-eabi/lib/thumb/v7e-m/fpv4-sp/hard/libg_nano.a(lib_a-memset.o)
 .debug_frame   0x00000000000069a4       0x38 /usr/bin/../lib/gcc/arm-none-eabi/7.2.1/../../../../arm-none-eabi/lib/thumb/v7e-m/fpv4-sp/hard/libg_nano.a(lib_a-nano-freer.o)
 .debug_frame   0x00000000000069dc       0x2c /usr/bin/../lib/gcc/arm-none-eabi/7.2.1/../../../../arm-none-eabi/lib/thumb/v7e-m/fpv4-sp/hard/libg_nano.a(lib_a-nano-mallocr.o)
 .debug_frame   0x0000000000006a08       0x2c /usr/bin/../lib/gcc/arm-none-eabi/7.2.1/../../../../arm-none-eabi/lib/thumb/v7e-m/fpv4-sp/hard/libg_nano.a(lib_a-sbrkr.o)
 .debug_frame   0x0000000000006a34       0x20 /usr/bin/../lib/gcc/arm-none-eabi/7.2.1/../../../../arm-none-eabi/lib/thumb/v7e-m/fpv4-sp/hard/libg_nano.a(lib_a-strcpy.o)
 .debug_frame   0x0000000000006a54       0x38 /usr/bin/../lib/gcc/arm-none-eabi/7.2.1/../../../../arm-none-eabi/lib/thumb/v7e-m/fpv4-sp/hard/libg_nano.a(lib_a-strrchr.o)
 .debug_frame   0x0000000000006a8c       0x30 /usr/bin/../lib/gcc/arm-none-eabi/7.2.1/../../../../arm-none-eabi/lib/thumb/v7e-m/fpv4-sp/hard/libg_nano.a(lib_a-mlock.o)
 .debug_frame   0x0000000000006abc       0x5c /usr/bin/../lib/gcc/arm-none-eabi/7.2.1/../../../../arm-none-eabi/lib/thumb/v7e-m/fpv4-sp/hard/libg_nano.a(lib_a-reent.o)
 .debug_frame   0x0000000000006b18       0x20 /usr/bin/../lib/gcc/arm-none-eabi/7.2.1/../../../../arm-none-eabi/lib/thumb/v7e-m/fpv4-sp/hard/libg_nano.a(lib_a-strchr.o)
 .debug_frame   0x0000000000006b38       0x20 /usr/bin/../lib/gcc/arm-none-eabi/7.2.1/../../../../arm-none-eabi/lib/thumb/v7e-m/fpv4-sp/hard/libnosys.a(sbrk.o)
 .debug_frame   0x0000000000006b58       0x20 /usr/bin/../lib/gcc/arm-none-eabi/7.2.1/../../../../arm-none-eabi/lib/thumb/v7e-m/fpv4-sp/hard/libnosys.a(_exit.o)
