Archive member included to satisfy reference by file (symbol)

../../../external/rtt/librtt_nrf52840_xxAA.a(SEGGER_RTT.c.obj)
                              CMakeFiles/light_switch_client_nrf52840_xxAA_s140_6.0.0.dir/__/__/__/mesh/core/src/log.c.obj (SEGGER_RTT_Write)
../../../external/rtt/librtt_nrf52840_xxAA.a(SEGGER_RTT_printf.c.obj)
                              CMakeFiles/light_switch_client_nrf52840_xxAA_s140_6.0.0.dir/__/__/__/mesh/core/src/log.c.obj (SEGGER_RTT_vprintf)
../../../external/micro-ecc/libuECC_nrf52840_xxAA.a(uECC.c.obj)
                              CMakeFiles/light_switch_client_nrf52840_xxAA_s140_6.0.0.dir/__/__/__/mesh/prov/src/prov_utils.c.obj (uECC_secp256r1)
/usr/bin/../lib/gcc/arm-none-eabi/7.2.1/thumb/v7e-m/fpv4-sp/hard/libgcc.a(_aeabi_ldivmod.o)
                              CMakeFiles/light_switch_client_nrf52840_xxAA_s140_6.0.0.dir/__/__/common/src/rtt_input.c.obj (__aeabi_ldivmod)
/usr/bin/../lib/gcc/arm-none-eabi/7.2.1/thumb/v7e-m/fpv4-sp/hard/libgcc.a(_aeabi_uldivmod.o)
                              CMakeFiles/light_switch_client_nrf52840_xxAA_s140_6.0.0.dir/__/__/common/src/rtt_input.c.obj (__aeabi_uldivmod)
/usr/bin/../lib/gcc/arm-none-eabi/7.2.1/thumb/v7e-m/fpv4-sp/hard/libgcc.a(_udivmoddi4.o)
                              /usr/bin/../lib/gcc/arm-none-eabi/7.2.1/thumb/v7e-m/fpv4-sp/hard/libgcc.a(_aeabi_ldivmod.o) (__udivmoddi4)
/usr/bin/../lib/gcc/arm-none-eabi/7.2.1/thumb/v7e-m/fpv4-sp/hard/libgcc.a(_dvmd_tls.o)
                              /usr/bin/../lib/gcc/arm-none-eabi/7.2.1/thumb/v7e-m/fpv4-sp/hard/libgcc.a(_aeabi_ldivmod.o) (__aeabi_ldiv0)
/usr/bin/../lib/gcc/arm-none-eabi/7.2.1/../../../../arm-none-eabi/lib/thumb/v7e-m/fpv4-sp/hard/libg_nano.a(lib_a-exit.o)
                              /usr/bin/../lib/gcc/arm-none-eabi/7.2.1/../../../../arm-none-eabi/lib/thumb/v7e-m/fpv4-sp/hard/crt0.o (exit)
/usr/bin/../lib/gcc/arm-none-eabi/7.2.1/../../../../arm-none-eabi/lib/thumb/v7e-m/fpv4-sp/hard/libg_nano.a(lib_a-impure.o)
                              /usr/bin/../lib/gcc/arm-none-eabi/7.2.1/../../../../arm-none-eabi/lib/thumb/v7e-m/fpv4-sp/hard/libg_nano.a(lib_a-exit.o) (_global_impure_ptr)
/usr/bin/../lib/gcc/arm-none-eabi/7.2.1/../../../../arm-none-eabi/lib/thumb/v7e-m/fpv4-sp/hard/libg_nano.a(lib_a-init.o)
                              /usr/bin/../lib/gcc/arm-none-eabi/7.2.1/../../../../arm-none-eabi/lib/thumb/v7e-m/fpv4-sp/hard/crt0.o (__libc_init_array)
/usr/bin/../lib/gcc/arm-none-eabi/7.2.1/../../../../arm-none-eabi/lib/thumb/v7e-m/fpv4-sp/hard/libg_nano.a(lib_a-malloc.o)
                              CMakeFiles/light_switch_client_nrf52840_xxAA_s140_6.0.0.dir/__/__/__/mesh/core/src/transport.c.obj (malloc)
/usr/bin/../lib/gcc/arm-none-eabi/7.2.1/../../../../arm-none-eabi/lib/thumb/v7e-m/fpv4-sp/hard/libg_nano.a(lib_a-memcmp.o)
                              CMakeFiles/light_switch_client_nrf52840_xxAA_s140_6.0.0.dir/__/__/__/mesh/core/src/cache.c.obj (memcmp)
/usr/bin/../lib/gcc/arm-none-eabi/7.2.1/../../../../arm-none-eabi/lib/thumb/v7e-m/fpv4-sp/hard/libg_nano.a(lib_a-memcpy-stub.o)
                              CMakeFiles/light_switch_client_nrf52840_xxAA_s140_6.0.0.dir/__/__/__/mesh/core/src/nrf_mesh_configure.c.obj (memcpy)
/usr/bin/../lib/gcc/arm-none-eabi/7.2.1/../../../../arm-none-eabi/lib/thumb/v7e-m/fpv4-sp/hard/libg_nano.a(lib_a-memset.o)
                              /usr/bin/../lib/gcc/arm-none-eabi/7.2.1/../../../../arm-none-eabi/lib/thumb/v7e-m/fpv4-sp/hard/crt0.o (memset)
/usr/bin/../lib/gcc/arm-none-eabi/7.2.1/../../../../arm-none-eabi/lib/thumb/v7e-m/fpv4-sp/hard/libg_nano.a(lib_a-nano-freer.o)
                              /usr/bin/../lib/gcc/arm-none-eabi/7.2.1/../../../../arm-none-eabi/lib/thumb/v7e-m/fpv4-sp/hard/libg_nano.a(lib_a-malloc.o) (_free_r)
/usr/bin/../lib/gcc/arm-none-eabi/7.2.1/../../../../arm-none-eabi/lib/thumb/v7e-m/fpv4-sp/hard/libg_nano.a(lib_a-nano-mallocr.o)
                              /usr/bin/../lib/gcc/arm-none-eabi/7.2.1/../../../../arm-none-eabi/lib/thumb/v7e-m/fpv4-sp/hard/libg_nano.a(lib_a-malloc.o) (_malloc_r)
/usr/bin/../lib/gcc/arm-none-eabi/7.2.1/../../../../arm-none-eabi/lib/thumb/v7e-m/fpv4-sp/hard/libg_nano.a(lib_a-sbrkr.o)
                              /usr/bin/../lib/gcc/arm-none-eabi/7.2.1/../../../../arm-none-eabi/lib/thumb/v7e-m/fpv4-sp/hard/libg_nano.a(lib_a-nano-mallocr.o) (_sbrk_r)
/usr/bin/../lib/gcc/arm-none-eabi/7.2.1/../../../../arm-none-eabi/lib/thumb/v7e-m/fpv4-sp/hard/libg_nano.a(lib_a-strcpy.o)
                              ../../../external/rtt/librtt_nrf52840_xxAA.a(SEGGER_RTT.c.obj) (strcpy)
/usr/bin/../lib/gcc/arm-none-eabi/7.2.1/../../../../arm-none-eabi/lib/thumb/v7e-m/fpv4-sp/hard/libg_nano.a(lib_a-strlen.o)
                              CMakeFiles/light_switch_client_nrf52840_xxAA_s140_6.0.0.dir/__/__/__/mesh/core/src/uri.c.obj (strlen)
/usr/bin/../lib/gcc/arm-none-eabi/7.2.1/../../../../arm-none-eabi/lib/thumb/v7e-m/fpv4-sp/hard/libg_nano.a(lib_a-strrchr.o)
                              CMakeFiles/light_switch_client_nrf52840_xxAA_s140_6.0.0.dir/src/main.c.obj (strrchr)
/usr/bin/../lib/gcc/arm-none-eabi/7.2.1/../../../../arm-none-eabi/lib/thumb/v7e-m/fpv4-sp/hard/libg_nano.a(lib_a-mlock.o)
                              /usr/bin/../lib/gcc/arm-none-eabi/7.2.1/../../../../arm-none-eabi/lib/thumb/v7e-m/fpv4-sp/hard/libg_nano.a(lib_a-nano-freer.o) (__malloc_lock)
/usr/bin/../lib/gcc/arm-none-eabi/7.2.1/../../../../arm-none-eabi/lib/thumb/v7e-m/fpv4-sp/hard/libg_nano.a(lib_a-reent.o)
                              /usr/bin/../lib/gcc/arm-none-eabi/7.2.1/../../../../arm-none-eabi/lib/thumb/v7e-m/fpv4-sp/hard/libg_nano.a(lib_a-sbrkr.o) (errno)
/usr/bin/../lib/gcc/arm-none-eabi/7.2.1/../../../../arm-none-eabi/lib/thumb/v7e-m/fpv4-sp/hard/libg_nano.a(lib_a-strchr.o)
                              /usr/bin/../lib/gcc/arm-none-eabi/7.2.1/../../../../arm-none-eabi/lib/thumb/v7e-m/fpv4-sp/hard/libg_nano.a(lib_a-strrchr.o) (strchr)
/usr/bin/../lib/gcc/arm-none-eabi/7.2.1/../../../../arm-none-eabi/lib/thumb/v7e-m/fpv4-sp/hard/libnosys.a(sbrk.o)
                              /usr/bin/../lib/gcc/arm-none-eabi/7.2.1/../../../../arm-none-eabi/lib/thumb/v7e-m/fpv4-sp/hard/libg_nano.a(lib_a-sbrkr.o) (_sbrk)
/usr/bin/../lib/gcc/arm-none-eabi/7.2.1/../../../../arm-none-eabi/lib/thumb/v7e-m/fpv4-sp/hard/libnosys.a(_exit.o)
                              /usr/bin/../lib/gcc/arm-none-eabi/7.2.1/../../../../arm-none-eabi/lib/thumb/v7e-m/fpv4-sp/hard/libg_nano.a(lib_a-exit.o) (_exit)

Allocating common symbols
Common symbol       size              file

nrf_nvic_state      0xc               CMakeFiles/light_switch_client_nrf52840_xxAA_s140_6.0.0.dir/__/__/common/src/mesh_softdevice_init.c.obj
m_packet            0x24              CMakeFiles/light_switch_client_nrf52840_xxAA_s140_6.0.0.dir/__/__/__/mesh/core/src/core_tx.c.obj
errno               0x4               /usr/bin/../lib/gcc/arm-none-eabi/7.2.1/../../../../arm-none-eabi/lib/thumb/v7e-m/fpv4-sp/hard/libg_nano.a(lib_a-reent.o)
_SEGGER_RTT         0x78              ../../../external/rtt/librtt_nrf52840_xxAA.a(SEGGER_RTT.c.obj)

Discarded input sections

 .text          0x0000000000000000        0x0 /usr/bin/../lib/gcc/arm-none-eabi/7.2.1/thumb/v7e-m/fpv4-sp/hard/crti.o
 .data          0x0000000000000000        0x0 /usr/bin/../lib/gcc/arm-none-eabi/7.2.1/thumb/v7e-m/fpv4-sp/hard/crti.o
 .bss           0x0000000000000000        0x0 /usr/bin/../lib/gcc/arm-none-eabi/7.2.1/thumb/v7e-m/fpv4-sp/hard/crti.o
 .data          0x0000000000000000        0x4 /usr/bin/../lib/gcc/arm-none-eabi/7.2.1/thumb/v7e-m/fpv4-sp/hard/crtbegin.o
 .data          0x0000000000000000        0x0 /usr/bin/../lib/gcc/arm-none-eabi/7.2.1/../../../../arm-none-eabi/lib/thumb/v7e-m/fpv4-sp/hard/crt0.o
 .bss           0x0000000000000000        0x0 /usr/bin/../lib/gcc/arm-none-eabi/7.2.1/../../../../arm-none-eabi/lib/thumb/v7e-m/fpv4-sp/hard/crt0.o
 .ARM.extab     0x0000000000000000        0x0 /usr/bin/../lib/gcc/arm-none-eabi/7.2.1/../../../../arm-none-eabi/lib/thumb/v7e-m/fpv4-sp/hard/crt0.o
 .text          0x0000000000000000        0x0 CMakeFiles/light_switch_client_nrf52840_xxAA_s140_6.0.0.dir/src/main.c.obj
 .data          0x0000000000000000        0x0 CMakeFiles/light_switch_client_nrf52840_xxAA_s140_6.0.0.dir/src/main.c.obj
 .bss           0x0000000000000000        0x0 CMakeFiles/light_switch_client_nrf52840_xxAA_s140_6.0.0.dir/src/main.c.obj
 .text          0x0000000000000000        0x0 CMakeFiles/light_switch_client_nrf52840_xxAA_s140_6.0.0.dir/__/__/__/mesh/stack/src/mesh_stack.c.obj
 .data          0x0000000000000000        0x0 CMakeFiles/light_switch_client_nrf52840_xxAA_s140_6.0.0.dir/__/__/__/mesh/stack/src/mesh_stack.c.obj
 .bss           0x0000000000000000        0x0 CMakeFiles/light_switch_client_nrf52840_xxAA_s140_6.0.0.dir/__/__/__/mesh/stack/src/mesh_stack.c.obj
 .text.mesh_stack_is_device_provisioned
                0x0000000000000000       0x1c CMakeFiles/light_switch_client_nrf52840_xxAA_s140_6.0.0.dir/__/__/__/mesh/stack/src/mesh_stack.c.obj
 .text          0x0000000000000000        0x0 CMakeFiles/light_switch_client_nrf52840_xxAA_s140_6.0.0.dir/__/__/common/src/mesh_softdevice_init.c.obj
 .data          0x0000000000000000        0x0 CMakeFiles/light_switch_client_nrf52840_xxAA_s140_6.0.0.dir/__/__/common/src/mesh_softdevice_init.c.obj
 .bss           0x0000000000000000        0x0 CMakeFiles/light_switch_client_nrf52840_xxAA_s140_6.0.0.dir/__/__/common/src/mesh_softdevice_init.c.obj
 .text          0x0000000000000000        0x0 CMakeFiles/light_switch_client_nrf52840_xxAA_s140_6.0.0.dir/__/__/common/src/mesh_provisionee.c.obj
 .data          0x0000000000000000        0x0 CMakeFiles/light_switch_client_nrf52840_xxAA_s140_6.0.0.dir/__/__/common/src/mesh_provisionee.c.obj
 .bss           0x0000000000000000        0x0 CMakeFiles/light_switch_client_nrf52840_xxAA_s140_6.0.0.dir/__/__/common/src/mesh_provisionee.c.obj
 .text          0x0000000000000000        0x0 CMakeFiles/light_switch_client_nrf52840_xxAA_s140_6.0.0.dir/__/__/common/src/rtt_input.c.obj
 .data          0x0000000000000000        0x0 CMakeFiles/light_switch_client_nrf52840_xxAA_s140_6.0.0.dir/__/__/common/src/rtt_input.c.obj
 .bss           0x0000000000000000        0x0 CMakeFiles/light_switch_client_nrf52840_xxAA_s140_6.0.0.dir/__/__/common/src/rtt_input.c.obj
 .text.rtt_input_disable
                0x0000000000000000       0x28 CMakeFiles/light_switch_client_nrf52840_xxAA_s140_6.0.0.dir/__/__/common/src/rtt_input.c.obj
 .text          0x0000000000000000        0x0 CMakeFiles/light_switch_client_nrf52840_xxAA_s140_6.0.0.dir/__/__/common/src/simple_hal.c.obj
 .data          0x0000000000000000        0x0 CMakeFiles/light_switch_client_nrf52840_xxAA_s140_6.0.0.dir/__/__/common/src/simple_hal.c.obj
 .bss           0x0000000000000000        0x0 CMakeFiles/light_switch_client_nrf52840_xxAA_s140_6.0.0.dir/__/__/common/src/simple_hal.c.obj
 .text          0x0000000000000000        0x0 CMakeFiles/light_switch_client_nrf52840_xxAA_s140_6.0.0.dir/__/__/nrf_mesh_weak.c.obj
 .data          0x0000000000000000        0x0 CMakeFiles/light_switch_client_nrf52840_xxAA_s140_6.0.0.dir/__/__/nrf_mesh_weak.c.obj
 .bss           0x0000000000000000        0x0 CMakeFiles/light_switch_client_nrf52840_xxAA_s140_6.0.0.dir/__/__/nrf_mesh_weak.c.obj
 .text._weak_handler_ptr
                0x0000000000000000        0x4 CMakeFiles/light_switch_client_nrf52840_xxAA_s140_6.0.0.dir/__/__/nrf_mesh_weak.c.obj
 .text          0x0000000000000000        0x0 CMakeFiles/light_switch_client_nrf52840_xxAA_s140_6.0.0.dir/__/__/common/src/app_error_weak.c.obj
 .data          0x0000000000000000        0x0 CMakeFiles/light_switch_client_nrf52840_xxAA_s140_6.0.0.dir/__/__/common/src/app_error_weak.c.obj
 .bss           0x0000000000000000        0x0 CMakeFiles/light_switch_client_nrf52840_xxAA_s140_6.0.0.dir/__/__/common/src/app_error_weak.c.obj
 .text          0x0000000000000000        0x0 CMakeFiles/light_switch_client_nrf52840_xxAA_s140_6.0.0.dir/__/__/common/src/assertion_handler_weak.c.obj
 .data          0x0000000000000000        0x0 CMakeFiles/light_switch_client_nrf52840_xxAA_s140_6.0.0.dir/__/__/common/src/assertion_handler_weak.c.obj
 .bss           0x0000000000000000        0x0 CMakeFiles/light_switch_client_nrf52840_xxAA_s140_6.0.0.dir/__/__/common/src/assertion_handler_weak.c.obj
 .text          0x0000000000000000        0x0 CMakeFiles/light_switch_client_nrf52840_xxAA_s140_6.0.0.dir/__/__/__/mesh/core/src/internal_event.c.obj
 .data          0x0000000000000000        0x0 CMakeFiles/light_switch_client_nrf52840_xxAA_s140_6.0.0.dir/__/__/__/mesh/core/src/internal_event.c.obj
 .bss           0x0000000000000000        0x0 CMakeFiles/light_switch_client_nrf52840_xxAA_s140_6.0.0.dir/__/__/__/mesh/core/src/internal_event.c.obj
 .debug_info    0x0000000000000000      0x8eb CMakeFiles/light_switch_client_nrf52840_xxAA_s140_6.0.0.dir/__/__/__/mesh/core/src/internal_event.c.obj
 .debug_abbrev  0x0000000000000000      0x192 CMakeFiles/light_switch_client_nrf52840_xxAA_s140_6.0.0.dir/__/__/__/mesh/core/src/internal_event.c.obj
 .debug_aranges
                0x0000000000000000       0x18 CMakeFiles/light_switch_client_nrf52840_xxAA_s140_6.0.0.dir/__/__/__/mesh/core/src/internal_event.c.obj
 .debug_line    0x0000000000000000      0x1dc CMakeFiles/light_switch_client_nrf52840_xxAA_s140_6.0.0.dir/__/__/__/mesh/core/src/internal_event.c.obj
 .debug_str     0x0000000000000000      0x672 CMakeFiles/light_switch_client_nrf52840_xxAA_s140_6.0.0.dir/__/__/__/mesh/core/src/internal_event.c.obj
 .comment       0x0000000000000000       0x7f CMakeFiles/light_switch_client_nrf52840_xxAA_s140_6.0.0.dir/__/__/__/mesh/core/src/internal_event.c.obj
 .ARM.attributes
                0x0000000000000000       0x39 CMakeFiles/light_switch_client_nrf52840_xxAA_s140_6.0.0.dir/__/__/__/mesh/core/src/internal_event.c.obj
 .text          0x0000000000000000        0x0 CMakeFiles/light_switch_client_nrf52840_xxAA_s140_6.0.0.dir/__/__/__/mesh/core/src/nrf_mesh_configure.c.obj
 .data          0x0000000000000000        0x0 CMakeFiles/light_switch_client_nrf52840_xxAA_s140_6.0.0.dir/__/__/__/mesh/core/src/nrf_mesh_configure.c.obj
 .bss           0x0000000000000000        0x0 CMakeFiles/light_switch_client_nrf52840_xxAA_s140_6.0.0.dir/__/__/__/mesh/core/src/nrf_mesh_configure.c.obj
 .text          0x0000000000000000        0x0 CMakeFiles/light_switch_client_nrf52840_xxAA_s140_6.0.0.dir/__/__/__/mesh/core/src/aes.c.obj
 .data          0x0000000000000000        0x0 CMakeFiles/light_switch_client_nrf52840_xxAA_s140_6.0.0.dir/__/__/__/mesh/core/src/aes.c.obj
 .bss           0x0000000000000000        0x0 CMakeFiles/light_switch_client_nrf52840_xxAA_s140_6.0.0.dir/__/__/__/mesh/core/src/aes.c.obj
 .text          0x0000000000000000        0x0 CMakeFiles/light_switch_client_nrf52840_xxAA_s140_6.0.0.dir/__/__/__/mesh/core/src/msg_cache.c.obj
 .data          0x0000000000000000        0x0 CMakeFiles/light_switch_client_nrf52840_xxAA_s140_6.0.0.dir/__/__/__/mesh/core/src/msg_cache.c.obj
 .bss           0x0000000000000000        0x0 CMakeFiles/light_switch_client_nrf52840_xxAA_s140_6.0.0.dir/__/__/__/mesh/core/src/msg_cache.c.obj
 .text.msg_cache_clear
                0x0000000000000000       0x18 CMakeFiles/light_switch_client_nrf52840_xxAA_s140_6.0.0.dir/__/__/__/mesh/core/src/msg_cache.c.obj
 .text          0x0000000000000000        0x0 CMakeFiles/light_switch_client_nrf52840_xxAA_s140_6.0.0.dir/__/__/__/mesh/core/src/transport.c.obj
 .data          0x0000000000000000        0x0 CMakeFiles/light_switch_client_nrf52840_xxAA_s140_6.0.0.dir/__/__/__/mesh/core/src/transport.c.obj
 .bss           0x0000000000000000        0x0 CMakeFiles/light_switch_client_nrf52840_xxAA_s140_6.0.0.dir/__/__/__/mesh/core/src/transport.c.obj
 .text.transport_sar_mem_funcs_set
                0x0000000000000000       0x64 CMakeFiles/light_switch_client_nrf52840_xxAA_s140_6.0.0.dir/__/__/__/mesh/core/src/transport.c.obj
 .text.transport_sar_mem_funcs_reset
                0x0000000000000000       0x30 CMakeFiles/light_switch_client_nrf52840_xxAA_s140_6.0.0.dir/__/__/__/mesh/core/src/transport.c.obj
 .text          0x0000000000000000        0x0 CMakeFiles/light_switch_client_nrf52840_xxAA_s140_6.0.0.dir/__/__/__/mesh/core/src/event.c.obj
 .data          0x0000000000000000        0x0 CMakeFiles/light_switch_client_nrf52840_xxAA_s140_6.0.0.dir/__/__/__/mesh/core/src/event.c.obj
 .bss           0x0000000000000000        0x0 CMakeFiles/light_switch_client_nrf52840_xxAA_s140_6.0.0.dir/__/__/__/mesh/core/src/event.c.obj
 .text          0x0000000000000000        0x0 CMakeFiles/light_switch_client_nrf52840_xxAA_s140_6.0.0.dir/__/__/__/mesh/core/src/packet_buffer.c.obj
 .data          0x0000000000000000        0x0 CMakeFiles/light_switch_client_nrf52840_xxAA_s140_6.0.0.dir/__/__/__/mesh/core/src/packet_buffer.c.obj
 .bss           0x0000000000000000        0x0 CMakeFiles/light_switch_client_nrf52840_xxAA_s140_6.0.0.dir/__/__/__/mesh/core/src/packet_buffer.c.obj
 .text.packet_buffer_max_packet_len_get
                0x0000000000000000       0x24 CMakeFiles/light_switch_client_nrf52840_xxAA_s140_6.0.0.dir/__/__/__/mesh/core/src/packet_buffer.c.obj
 .text          0x0000000000000000        0x0 CMakeFiles/light_switch_client_nrf52840_xxAA_s140_6.0.0.dir/__/__/__/mesh/core/src/flash_manager_defrag.c.obj
 .data          0x0000000000000000        0x0 CMakeFiles/light_switch_client_nrf52840_xxAA_s140_6.0.0.dir/__/__/__/mesh/core/src/flash_manager_defrag.c.obj
 .bss           0x0000000000000000        0x0 CMakeFiles/light_switch_client_nrf52840_xxAA_s140_6.0.0.dir/__/__/__/mesh/core/src/flash_manager_defrag.c.obj
 .text.flash_manager_defragging
                0x0000000000000000       0x44 CMakeFiles/light_switch_client_nrf52840_xxAA_s140_6.0.0.dir/__/__/__/mesh/core/src/flash_manager_defrag.c.obj
 .text          0x0000000000000000        0x0 CMakeFiles/light_switch_client_nrf52840_xxAA_s140_6.0.0.dir/__/__/__/mesh/core/src/fifo.c.obj
 .data          0x0000000000000000        0x0 CMakeFiles/light_switch_client_nrf52840_xxAA_s140_6.0.0.dir/__/__/__/mesh/core/src/fifo.c.obj
 .bss           0x0000000000000000        0x0 CMakeFiles/light_switch_client_nrf52840_xxAA_s140_6.0.0.dir/__/__/__/mesh/core/src/fifo.c.obj
 .text.fifo_peek_at
                0x0000000000000000       0x58 CMakeFiles/light_switch_client_nrf52840_xxAA_s140_6.0.0.dir/__/__/__/mesh/core/src/fifo.c.obj
 .text.fifo_peek
                0x0000000000000000       0x54 CMakeFiles/light_switch_client_nrf52840_xxAA_s140_6.0.0.dir/__/__/__/mesh/core/src/fifo.c.obj
 .text.fifo_flush
                0x0000000000000000        0x8 CMakeFiles/light_switch_client_nrf52840_xxAA_s140_6.0.0.dir/__/__/__/mesh/core/src/fifo.c.obj
 .text.fifo_get_len
                0x0000000000000000        0x8 CMakeFiles/light_switch_client_nrf52840_xxAA_s140_6.0.0.dir/__/__/__/mesh/core/src/fifo.c.obj
 .text.fifo_is_full
                0x0000000000000000       0x14 CMakeFiles/light_switch_client_nrf52840_xxAA_s140_6.0.0.dir/__/__/__/mesh/core/src/fifo.c.obj
 .text.fifo_is_empty
                0x0000000000000000       0x10 CMakeFiles/light_switch_client_nrf52840_xxAA_s140_6.0.0.dir/__/__/__/mesh/core/src/fifo.c.obj
 .text          0x0000000000000000        0x0 CMakeFiles/light_switch_client_nrf52840_xxAA_s140_6.0.0.dir/__/__/__/mesh/core/src/nrf_flash.c.obj
 .data          0x0000000000000000        0x0 CMakeFiles/light_switch_client_nrf52840_xxAA_s140_6.0.0.dir/__/__/__/mesh/core/src/nrf_flash.c.obj
 .bss           0x0000000000000000        0x0 CMakeFiles/light_switch_client_nrf52840_xxAA_s140_6.0.0.dir/__/__/__/mesh/core/src/nrf_flash.c.obj
 .text          0x0000000000000000        0x0 CMakeFiles/light_switch_client_nrf52840_xxAA_s140_6.0.0.dir/__/__/__/mesh/core/src/packet_mgr.c.obj
 .data          0x0000000000000000        0x0 CMakeFiles/light_switch_client_nrf52840_xxAA_s140_6.0.0.dir/__/__/__/mesh/core/src/packet_mgr.c.obj
 .bss           0x0000000000000000        0x0 CMakeFiles/light_switch_client_nrf52840_xxAA_s140_6.0.0.dir/__/__/__/mesh/core/src/packet_mgr.c.obj
 .text.packet_mgr_alloc
                0x0000000000000000      0x1a4 CMakeFiles/light_switch_client_nrf52840_xxAA_s140_6.0.0.dir/__/__/__/mesh/core/src/packet_mgr.c.obj
 .text.packet_mgr_free
                0x0000000000000000       0x5c CMakeFiles/light_switch_client_nrf52840_xxAA_s140_6.0.0.dir/__/__/__/mesh/core/src/packet_mgr.c.obj
 .text.packet_mgr_get_free_space
                0x0000000000000000       0x1c CMakeFiles/light_switch_client_nrf52840_xxAA_s140_6.0.0.dir/__/__/__/mesh/core/src/packet_mgr.c.obj
 .text.packet_mgr_refcount_get
                0x0000000000000000        0x8 CMakeFiles/light_switch_client_nrf52840_xxAA_s140_6.0.0.dir/__/__/__/mesh/core/src/packet_mgr.c.obj
 .text.packet_mgr_size_get
                0x0000000000000000        0x8 CMakeFiles/light_switch_client_nrf52840_xxAA_s140_6.0.0.dir/__/__/__/mesh/core/src/packet_mgr.c.obj
 .text          0x0000000000000000        0x0 CMakeFiles/light_switch_client_nrf52840_xxAA_s140_6.0.0.dir/__/__/__/mesh/core/src/net_state.c.obj
 .data          0x0000000000000000        0x0 CMakeFiles/light_switch_client_nrf52840_xxAA_s140_6.0.0.dir/__/__/__/mesh/core/src/net_state.c.obj
 .bss           0x0000000000000000        0x0 CMakeFiles/light_switch_client_nrf52840_xxAA_s140_6.0.0.dir/__/__/__/mesh/core/src/net_state.c.obj
 .text.net_state_iv_update_start
                0x0000000000000000       0x94 CMakeFiles/light_switch_client_nrf52840_xxAA_s140_6.0.0.dir/__/__/__/mesh/core/src/net_state.c.obj
 .text.net_state_iv_update_test_mode_set
                0x0000000000000000        0xc CMakeFiles/light_switch_client_nrf52840_xxAA_s140_6.0.0.dir/__/__/__/mesh/core/src/net_state.c.obj
 .text.net_state_test_mode_transition_run
                0x0000000000000000      0x170 CMakeFiles/light_switch_client_nrf52840_xxAA_s140_6.0.0.dir/__/__/__/mesh/core/src/net_state.c.obj
 .text          0x0000000000000000        0x0 CMakeFiles/light_switch_client_nrf52840_xxAA_s140_6.0.0.dir/__/__/__/mesh/core/src/mesh_flash.c.obj
 .data          0x0000000000000000        0x0 CMakeFiles/light_switch_client_nrf52840_xxAA_s140_6.0.0.dir/__/__/__/mesh/core/src/mesh_flash.c.obj
 .bss           0x0000000000000000        0x0 CMakeFiles/light_switch_client_nrf52840_xxAA_s140_6.0.0.dir/__/__/__/mesh/core/src/mesh_flash.c.obj
 .text.mesh_flash_op_available_slots
                0x0000000000000000       0x2c CMakeFiles/light_switch_client_nrf52840_xxAA_s140_6.0.0.dir/__/__/__/mesh/core/src/mesh_flash.c.obj
 .text.mesh_flash_in_progress
                0x0000000000000000       0x34 CMakeFiles/light_switch_client_nrf52840_xxAA_s140_6.0.0.dir/__/__/__/mesh/core/src/mesh_flash.c.obj
 .text.mesh_flash_set_suspended
                0x0000000000000000      0x21c CMakeFiles/light_switch_client_nrf52840_xxAA_s140_6.0.0.dir/__/__/__/mesh/core/src/mesh_flash.c.obj
 .bss.suspend_count.10577
                0x0000000000000000        0x4 CMakeFiles/light_switch_client_nrf52840_xxAA_s140_6.0.0.dir/__/__/__/mesh/core/src/mesh_flash.c.obj
 .text          0x0000000000000000        0x0 CMakeFiles/light_switch_client_nrf52840_xxAA_s140_6.0.0.dir/__/__/__/mesh/core/src/nrf_mesh_utils.c.obj
 .data          0x0000000000000000        0x0 CMakeFiles/light_switch_client_nrf52840_xxAA_s140_6.0.0.dir/__/__/__/mesh/core/src/nrf_mesh_utils.c.obj
 .bss           0x0000000000000000        0x0 CMakeFiles/light_switch_client_nrf52840_xxAA_s140_6.0.0.dir/__/__/__/mesh/core/src/nrf_mesh_utils.c.obj
 .text.nrf_mesh_rand_get
                0x0000000000000000       0x10 CMakeFiles/light_switch_client_nrf52840_xxAA_s140_6.0.0.dir/__/__/__/mesh/core/src/nrf_mesh_utils.c.obj
 .text.nrf_mesh_gap_address_type_get
                0x0000000000000000       0x34 CMakeFiles/light_switch_client_nrf52840_xxAA_s140_6.0.0.dir/__/__/__/mesh/core/src/nrf_mesh_utils.c.obj
 .text          0x0000000000000000        0x0 CMakeFiles/light_switch_client_nrf52840_xxAA_s140_6.0.0.dir/__/__/__/mesh/core/src/nrf_mesh.c.obj
 .data          0x0000000000000000        0x0 CMakeFiles/light_switch_client_nrf52840_xxAA_s140_6.0.0.dir/__/__/__/mesh/core/src/nrf_mesh.c.obj
 .bss           0x0000000000000000        0x0 CMakeFiles/light_switch_client_nrf52840_xxAA_s140_6.0.0.dir/__/__/__/mesh/core/src/nrf_mesh.c.obj
 .text.nrf_mesh_disable
                0x0000000000000000       0x30 CMakeFiles/light_switch_client_nrf52840_xxAA_s140_6.0.0.dir/__/__/__/mesh/core/src/nrf_mesh.c.obj
 .text.nrf_mesh_process
                0x0000000000000000        0x4 CMakeFiles/light_switch_client_nrf52840_xxAA_s140_6.0.0.dir/__/__/__/mesh/core/src/nrf_mesh.c.obj
 .text.nrf_mesh_evt_handler_remove
                0x0000000000000000        0x4 CMakeFiles/light_switch_client_nrf52840_xxAA_s140_6.0.0.dir/__/__/__/mesh/core/src/nrf_mesh.c.obj
 .text.nrf_mesh_rx_cb_set
                0x0000000000000000        0xc CMakeFiles/light_switch_client_nrf52840_xxAA_s140_6.0.0.dir/__/__/__/mesh/core/src/nrf_mesh.c.obj
 .text.nrf_mesh_rx_cb_clear
                0x0000000000000000        0xc CMakeFiles/light_switch_client_nrf52840_xxAA_s140_6.0.0.dir/__/__/__/mesh/core/src/nrf_mesh.c.obj
 .text          0x0000000000000000        0x0 CMakeFiles/light_switch_client_nrf52840_xxAA_s140_6.0.0.dir/__/__/__/mesh/core/src/queue.c.obj
 .data          0x0000000000000000        0x0 CMakeFiles/light_switch_client_nrf52840_xxAA_s140_6.0.0.dir/__/__/__/mesh/core/src/queue.c.obj
 .bss           0x0000000000000000        0x0 CMakeFiles/light_switch_client_nrf52840_xxAA_s140_6.0.0.dir/__/__/__/mesh/core/src/queue.c.obj
 .text          0x0000000000000000        0x0 CMakeFiles/light_switch_client_nrf52840_xxAA_s140_6.0.0.dir/__/__/__/mesh/core/src/hal.c.obj
 .data          0x0000000000000000        0x0 CMakeFiles/light_switch_client_nrf52840_xxAA_s140_6.0.0.dir/__/__/__/mesh/core/src/hal.c.obj
 .bss           0x0000000000000000        0x0 CMakeFiles/light_switch_client_nrf52840_xxAA_s140_6.0.0.dir/__/__/__/mesh/core/src/hal.c.obj
 .text          0x0000000000000000        0x0 CMakeFiles/light_switch_client_nrf52840_xxAA_s140_6.0.0.dir/__/__/__/mesh/core/src/aes_cmac.c.obj
 .data          0x0000000000000000        0x0 CMakeFiles/light_switch_client_nrf52840_xxAA_s140_6.0.0.dir/__/__/__/mesh/core/src/aes_cmac.c.obj
 .bss           0x0000000000000000        0x0 CMakeFiles/light_switch_client_nrf52840_xxAA_s140_6.0.0.dir/__/__/__/mesh/core/src/aes_cmac.c.obj
 .text          0x0000000000000000        0x0 CMakeFiles/light_switch_client_nrf52840_xxAA_s140_6.0.0.dir/__/__/__/mesh/core/src/timer_scheduler.c.obj
 .data          0x0000000000000000        0x0 CMakeFiles/light_switch_client_nrf52840_xxAA_s140_6.0.0.dir/__/__/__/mesh/core/src/timer_scheduler.c.obj
 .bss           0x0000000000000000        0x0 CMakeFiles/light_switch_client_nrf52840_xxAA_s140_6.0.0.dir/__/__/__/mesh/core/src/timer_scheduler.c.obj
 .text          0x0000000000000000        0x0 CMakeFiles/light_switch_client_nrf52840_xxAA_s140_6.0.0.dir/__/__/__/mesh/core/src/timer.c.obj
 .data          0x0000000000000000        0x0 CMakeFiles/light_switch_client_nrf52840_xxAA_s140_6.0.0.dir/__/__/__/mesh/core/src/timer.c.obj
 .bss           0x0000000000000000        0x0 CMakeFiles/light_switch_client_nrf52840_xxAA_s140_6.0.0.dir/__/__/__/mesh/core/src/timer.c.obj
 .text.timer_order_cb_ppi
                0x0000000000000000       0xd8 CMakeFiles/light_switch_client_nrf52840_xxAA_s140_6.0.0.dir/__/__/__/mesh/core/src/timer.c.obj
 .text.timer_order_ppi
                0x0000000000000000       0xcc CMakeFiles/light_switch_client_nrf52840_xxAA_s140_6.0.0.dir/__/__/__/mesh/core/src/timer.c.obj
 .text.timer_abort
                0x0000000000000000       0x84 CMakeFiles/light_switch_client_nrf52840_xxAA_s140_6.0.0.dir/__/__/__/mesh/core/src/timer.c.obj
 .text          0x0000000000000000        0x0 CMakeFiles/light_switch_client_nrf52840_xxAA_s140_6.0.0.dir/__/__/__/mesh/core/src/ticker.c.obj
 .data          0x0000000000000000        0x0 CMakeFiles/light_switch_client_nrf52840_xxAA_s140_6.0.0.dir/__/__/__/mesh/core/src/ticker.c.obj
 .bss           0x0000000000000000        0x0 CMakeFiles/light_switch_client_nrf52840_xxAA_s140_6.0.0.dir/__/__/__/mesh/core/src/ticker.c.obj
 .text.ticker_get
                0x0000000000000000        0xc CMakeFiles/light_switch_client_nrf52840_xxAA_s140_6.0.0.dir/__/__/__/mesh/core/src/ticker.c.obj
 .text          0x0000000000000000        0x0 CMakeFiles/light_switch_client_nrf52840_xxAA_s140_6.0.0.dir/__/__/__/mesh/core/src/rand.c.obj
 .data          0x0000000000000000        0x0 CMakeFiles/light_switch_client_nrf52840_xxAA_s140_6.0.0.dir/__/__/__/mesh/core/src/rand.c.obj
 .bss           0x0000000000000000        0x0 CMakeFiles/light_switch_client_nrf52840_xxAA_s140_6.0.0.dir/__/__/__/mesh/core/src/rand.c.obj
 .text          0x0000000000000000        0x0 CMakeFiles/light_switch_client_nrf52840_xxAA_s140_6.0.0.dir/__/__/__/mesh/core/src/nrf_mesh_opt.c.obj
 .data          0x0000000000000000        0x0 CMakeFiles/light_switch_client_nrf52840_xxAA_s140_6.0.0.dir/__/__/__/mesh/core/src/nrf_mesh_opt.c.obj
 .bss           0x0000000000000000        0x0 CMakeFiles/light_switch_client_nrf52840_xxAA_s140_6.0.0.dir/__/__/__/mesh/core/src/nrf_mesh_opt.c.obj
 .text          0x0000000000000000        0x0 CMakeFiles/light_switch_client_nrf52840_xxAA_s140_6.0.0.dir/__/__/__/mesh/core/src/timeslot.c.obj
 .data          0x0000000000000000        0x0 CMakeFiles/light_switch_client_nrf52840_xxAA_s140_6.0.0.dir/__/__/__/mesh/core/src/timeslot.c.obj
 .bss           0x0000000000000000        0x0 CMakeFiles/light_switch_client_nrf52840_xxAA_s140_6.0.0.dir/__/__/__/mesh/core/src/timeslot.c.obj
 .text.timeslot_restart
                0x0000000000000000       0x30 CMakeFiles/light_switch_client_nrf52840_xxAA_s140_6.0.0.dir/__/__/__/mesh/core/src/timeslot.c.obj
 .text.timeslot_end_time_get
                0x0000000000000000       0x30 CMakeFiles/light_switch_client_nrf52840_xxAA_s140_6.0.0.dir/__/__/__/mesh/core/src/timeslot.c.obj
 .text.timeslot_is_in_ts
                0x0000000000000000        0xc CMakeFiles/light_switch_client_nrf52840_xxAA_s140_6.0.0.dir/__/__/__/mesh/core/src/timeslot.c.obj
 .text          0x0000000000000000        0x0 CMakeFiles/light_switch_client_nrf52840_xxAA_s140_6.0.0.dir/__/__/__/mesh/core/src/bearer_event.c.obj
 .data          0x0000000000000000        0x0 CMakeFiles/light_switch_client_nrf52840_xxAA_s140_6.0.0.dir/__/__/__/mesh/core/src/bearer_event.c.obj
 .bss           0x0000000000000000        0x0 CMakeFiles/light_switch_client_nrf52840_xxAA_s140_6.0.0.dir/__/__/__/mesh/core/src/bearer_event.c.obj
 .text.bearer_event_generic_post
                0x0000000000000000       0x50 CMakeFiles/light_switch_client_nrf52840_xxAA_s140_6.0.0.dir/__/__/__/mesh/core/src/bearer_event.c.obj
 .text.bearer_event_timer_sch_post
                0x0000000000000000       0x54 CMakeFiles/light_switch_client_nrf52840_xxAA_s140_6.0.0.dir/__/__/__/mesh/core/src/bearer_event.c.obj
 .text.bearer_event_in_correct_irq_priority
                0x0000000000000000       0x58 CMakeFiles/light_switch_client_nrf52840_xxAA_s140_6.0.0.dir/__/__/__/mesh/core/src/bearer_event.c.obj
 .text          0x0000000000000000        0x0 CMakeFiles/light_switch_client_nrf52840_xxAA_s140_6.0.0.dir/__/__/__/mesh/core/src/enc.c.obj
 .data          0x0000000000000000        0x0 CMakeFiles/light_switch_client_nrf52840_xxAA_s140_6.0.0.dir/__/__/__/mesh/core/src/enc.c.obj
 .bss           0x0000000000000000        0x0 CMakeFiles/light_switch_client_nrf52840_xxAA_s140_6.0.0.dir/__/__/__/mesh/core/src/enc.c.obj
 .text.enc_key_generate
                0x0000000000000000        0x8 CMakeFiles/light_switch_client_nrf52840_xxAA_s140_6.0.0.dir/__/__/__/mesh/core/src/enc.c.obj
 .text          0x0000000000000000        0x0 CMakeFiles/light_switch_client_nrf52840_xxAA_s140_6.0.0.dir/__/__/__/mesh/core/src/network.c.obj
 .data          0x0000000000000000        0x0 CMakeFiles/light_switch_client_nrf52840_xxAA_s140_6.0.0.dir/__/__/__/mesh/core/src/network.c.obj
 .bss           0x0000000000000000        0x0 CMakeFiles/light_switch_client_nrf52840_xxAA_s140_6.0.0.dir/__/__/__/mesh/core/src/network.c.obj
 .text.network_packet_discard
                0x0000000000000000       0x28 CMakeFiles/light_switch_client_nrf52840_xxAA_s140_6.0.0.dir/__/__/__/mesh/core/src/network.c.obj
 .text          0x0000000000000000        0x0 CMakeFiles/light_switch_client_nrf52840_xxAA_s140_6.0.0.dir/__/__/__/mesh/core/src/net_packet.c.obj
 .data          0x0000000000000000        0x0 CMakeFiles/light_switch_client_nrf52840_xxAA_s140_6.0.0.dir/__/__/__/mesh/core/src/net_packet.c.obj
 .bss           0x0000000000000000        0x0 CMakeFiles/light_switch_client_nrf52840_xxAA_s140_6.0.0.dir/__/__/__/mesh/core/src/net_packet.c.obj
 .text.net_packet_enc_start_get
                0x0000000000000000        0x4 CMakeFiles/light_switch_client_nrf52840_xxAA_s140_6.0.0.dir/__/__/__/mesh/core/src/net_packet.c.obj
 .text.net_packet_payload_get
                0x0000000000000000        0x4 CMakeFiles/light_switch_client_nrf52840_xxAA_s140_6.0.0.dir/__/__/__/mesh/core/src/net_packet.c.obj
 .text          0x0000000000000000        0x0 CMakeFiles/light_switch_client_nrf52840_xxAA_s140_6.0.0.dir/__/__/__/mesh/core/src/msqueue.c.obj
 .data          0x0000000000000000        0x0 CMakeFiles/light_switch_client_nrf52840_xxAA_s140_6.0.0.dir/__/__/__/mesh/core/src/msqueue.c.obj
 .bss           0x0000000000000000        0x0 CMakeFiles/light_switch_client_nrf52840_xxAA_s140_6.0.0.dir/__/__/__/mesh/core/src/msqueue.c.obj
 .text.msq_reset
                0x0000000000000000       0x24 CMakeFiles/light_switch_client_nrf52840_xxAA_s140_6.0.0.dir/__/__/__/mesh/core/src/msqueue.c.obj
 .text          0x0000000000000000        0x0 CMakeFiles/light_switch_client_nrf52840_xxAA_s140_6.0.0.dir/__/__/__/mesh/core/src/nrf_mesh_keygen.c.obj
 .data          0x0000000000000000        0x0 CMakeFiles/light_switch_client_nrf52840_xxAA_s140_6.0.0.dir/__/__/__/mesh/core/src/nrf_mesh_keygen.c.obj
 .bss           0x0000000000000000        0x0 CMakeFiles/light_switch_client_nrf52840_xxAA_s140_6.0.0.dir/__/__/__/mesh/core/src/nrf_mesh_keygen.c.obj
 .text.nrf_mesh_keygen_identitykey
                0x0000000000000000       0x4c CMakeFiles/light_switch_client_nrf52840_xxAA_s140_6.0.0.dir/__/__/__/mesh/core/src/nrf_mesh_keygen.c.obj
 .text          0x0000000000000000        0x0 CMakeFiles/light_switch_client_nrf52840_xxAA_s140_6.0.0.dir/__/__/__/mesh/core/src/cache.c.obj
 .data          0x0000000000000000        0x0 CMakeFiles/light_switch_client_nrf52840_xxAA_s140_6.0.0.dir/__/__/__/mesh/core/src/cache.c.obj
 .bss           0x0000000000000000        0x0 CMakeFiles/light_switch_client_nrf52840_xxAA_s140_6.0.0.dir/__/__/__/mesh/core/src/cache.c.obj
 .text.cache_init
                0x0000000000000000       0x40 CMakeFiles/light_switch_client_nrf52840_xxAA_s140_6.0.0.dir/__/__/__/mesh/core/src/cache.c.obj
 .text.cache_has_elem
                0x0000000000000000       0x54 CMakeFiles/light_switch_client_nrf52840_xxAA_s140_6.0.0.dir/__/__/__/mesh/core/src/cache.c.obj
 .text.cache_put
                0x0000000000000000       0x2c CMakeFiles/light_switch_client_nrf52840_xxAA_s140_6.0.0.dir/__/__/__/mesh/core/src/cache.c.obj
 .text.cache_erase_elem
                0x0000000000000000       0x6c CMakeFiles/light_switch_client_nrf52840_xxAA_s140_6.0.0.dir/__/__/__/mesh/core/src/cache.c.obj
 .debug_info    0x0000000000000000      0xbf9 CMakeFiles/light_switch_client_nrf52840_xxAA_s140_6.0.0.dir/__/__/__/mesh/core/src/cache.c.obj
 .debug_abbrev  0x0000000000000000      0x2e2 CMakeFiles/light_switch_client_nrf52840_xxAA_s140_6.0.0.dir/__/__/__/mesh/core/src/cache.c.obj
 .debug_loc     0x0000000000000000      0x3dc CMakeFiles/light_switch_client_nrf52840_xxAA_s140_6.0.0.dir/__/__/__/mesh/core/src/cache.c.obj
 .debug_aranges
                0x0000000000000000       0x38 CMakeFiles/light_switch_client_nrf52840_xxAA_s140_6.0.0.dir/__/__/__/mesh/core/src/cache.c.obj
 .debug_ranges  0x0000000000000000       0xb0 CMakeFiles/light_switch_client_nrf52840_xxAA_s140_6.0.0.dir/__/__/__/mesh/core/src/cache.c.obj
 .debug_line    0x0000000000000000      0x255 CMakeFiles/light_switch_client_nrf52840_xxAA_s140_6.0.0.dir/__/__/__/mesh/core/src/cache.c.obj
 .debug_str     0x0000000000000000      0x71f CMakeFiles/light_switch_client_nrf52840_xxAA_s140_6.0.0.dir/__/__/__/mesh/core/src/cache.c.obj
 .comment       0x0000000000000000       0x7f CMakeFiles/light_switch_client_nrf52840_xxAA_s140_6.0.0.dir/__/__/__/mesh/core/src/cache.c.obj
 .debug_frame   0x0000000000000000       0x90 CMakeFiles/light_switch_client_nrf52840_xxAA_s140_6.0.0.dir/__/__/__/mesh/core/src/cache.c.obj
 .ARM.attributes
                0x0000000000000000       0x39 CMakeFiles/light_switch_client_nrf52840_xxAA_s140_6.0.0.dir/__/__/__/mesh/core/src/cache.c.obj
 .text          0x0000000000000000        0x0 CMakeFiles/light_switch_client_nrf52840_xxAA_s140_6.0.0.dir/__/__/__/mesh/core/src/uri.c.obj
 .data          0x0000000000000000        0x0 CMakeFiles/light_switch_client_nrf52840_xxAA_s140_6.0.0.dir/__/__/__/mesh/core/src/uri.c.obj
 .bss           0x0000000000000000        0x0 CMakeFiles/light_switch_client_nrf52840_xxAA_s140_6.0.0.dir/__/__/__/mesh/core/src/uri.c.obj
 .text.uri_data_generate
                0x0000000000000000       0x88 CMakeFiles/light_switch_client_nrf52840_xxAA_s140_6.0.0.dir/__/__/__/mesh/core/src/uri.c.obj
 .text.uri_data_parse
                0x0000000000000000       0x84 CMakeFiles/light_switch_client_nrf52840_xxAA_s140_6.0.0.dir/__/__/__/mesh/core/src/uri.c.obj
 .text.uri_scheme_name_code_point
                0x0000000000000000       0x5c CMakeFiles/light_switch_client_nrf52840_xxAA_s140_6.0.0.dir/__/__/__/mesh/core/src/uri.c.obj
 .text.uri_scheme_name_string
                0x0000000000000000       0x14 CMakeFiles/light_switch_client_nrf52840_xxAA_s140_6.0.0.dir/__/__/__/mesh/core/src/uri.c.obj
 .rodata.m_code_point_strings
                0x0000000000000000      0x2ec CMakeFiles/light_switch_client_nrf52840_xxAA_s140_6.0.0.dir/__/__/__/mesh/core/src/uri.c.obj
 .rodata.str1.4
                0x0000000000000000      0x6ba CMakeFiles/light_switch_client_nrf52840_xxAA_s140_6.0.0.dir/__/__/__/mesh/core/src/uri.c.obj
 .debug_info    0x0000000000000000      0xd55 CMakeFiles/light_switch_client_nrf52840_xxAA_s140_6.0.0.dir/__/__/__/mesh/core/src/uri.c.obj
 .debug_abbrev  0x0000000000000000      0x331 CMakeFiles/light_switch_client_nrf52840_xxAA_s140_6.0.0.dir/__/__/__/mesh/core/src/uri.c.obj
 .debug_loc     0x0000000000000000      0x38d CMakeFiles/light_switch_client_nrf52840_xxAA_s140_6.0.0.dir/__/__/__/mesh/core/src/uri.c.obj
 .debug_aranges
                0x0000000000000000       0x38 CMakeFiles/light_switch_client_nrf52840_xxAA_s140_6.0.0.dir/__/__/__/mesh/core/src/uri.c.obj
 .debug_ranges  0x0000000000000000       0x58 CMakeFiles/light_switch_client_nrf52840_xxAA_s140_6.0.0.dir/__/__/__/mesh/core/src/uri.c.obj
 .debug_line    0x0000000000000000      0x322 CMakeFiles/light_switch_client_nrf52840_xxAA_s140_6.0.0.dir/__/__/__/mesh/core/src/uri.c.obj
 .debug_str     0x0000000000000000      0x74d CMakeFiles/light_switch_client_nrf52840_xxAA_s140_6.0.0.dir/__/__/__/mesh/core/src/uri.c.obj
 .comment       0x0000000000000000       0x7f CMakeFiles/light_switch_client_nrf52840_xxAA_s140_6.0.0.dir/__/__/__/mesh/core/src/uri.c.obj
 .debug_frame   0x0000000000000000       0x8c CMakeFiles/light_switch_client_nrf52840_xxAA_s140_6.0.0.dir/__/__/__/mesh/core/src/uri.c.obj
 .ARM.attributes
                0x0000000000000000       0x39 CMakeFiles/light_switch_client_nrf52840_xxAA_s140_6.0.0.dir/__/__/__/mesh/core/src/uri.c.obj
 .text          0x0000000000000000        0x0 CMakeFiles/light_switch_client_nrf52840_xxAA_s140_6.0.0.dir/__/__/__/mesh/core/src/list.c.obj
 .data          0x0000000000000000        0x0 CMakeFiles/light_switch_client_nrf52840_xxAA_s140_6.0.0.dir/__/__/__/mesh/core/src/list.c.obj
 .bss           0x0000000000000000        0x0 CMakeFiles/light_switch_client_nrf52840_xxAA_s140_6.0.0.dir/__/__/__/mesh/core/src/list.c.obj
 .text.list_size_get
                0x0000000000000000       0x14 CMakeFiles/light_switch_client_nrf52840_xxAA_s140_6.0.0.dir/__/__/__/mesh/core/src/list.c.obj
 .text.list_sorted_add
                0x0000000000000000       0x88 CMakeFiles/light_switch_client_nrf52840_xxAA_s140_6.0.0.dir/__/__/__/mesh/core/src/list.c.obj
 .text          0x0000000000000000        0x0 CMakeFiles/light_switch_client_nrf52840_xxAA_s140_6.0.0.dir/__/__/__/mesh/core/src/log.c.obj
 .data          0x0000000000000000        0x0 CMakeFiles/light_switch_client_nrf52840_xxAA_s140_6.0.0.dir/__/__/__/mesh/core/src/log.c.obj
 .bss           0x0000000000000000        0x0 CMakeFiles/light_switch_client_nrf52840_xxAA_s140_6.0.0.dir/__/__/__/mesh/core/src/log.c.obj
 .text.log_callback_logview
                0x0000000000000000       0x38 CMakeFiles/light_switch_client_nrf52840_xxAA_s140_6.0.0.dir/__/__/__/mesh/core/src/log.c.obj
 .text.log_set_callback
                0x0000000000000000        0xc CMakeFiles/light_switch_client_nrf52840_xxAA_s140_6.0.0.dir/__/__/__/mesh/core/src/log.c.obj
 .text.log_vprintf
                0x0000000000000000       0x1c CMakeFiles/light_switch_client_nrf52840_xxAA_s140_6.0.0.dir/__/__/__/mesh/core/src/log.c.obj
 .rodata.log_callback_logview.str1.4
                0x0000000000000000       0x12 CMakeFiles/light_switch_client_nrf52840_xxAA_s140_6.0.0.dir/__/__/__/mesh/core/src/log.c.obj
 .text          0x0000000000000000        0x0 CMakeFiles/light_switch_client_nrf52840_xxAA_s140_6.0.0.dir/__/__/__/mesh/core/src/flash_manager.c.obj
 .data          0x0000000000000000        0x0 CMakeFiles/light_switch_client_nrf52840_xxAA_s140_6.0.0.dir/__/__/__/mesh/core/src/flash_manager.c.obj
 .bss           0x0000000000000000        0x0 CMakeFiles/light_switch_client_nrf52840_xxAA_s140_6.0.0.dir/__/__/__/mesh/core/src/flash_manager.c.obj
 .text.flash_manager_entry_count_get
                0x0000000000000000       0xfc CMakeFiles/light_switch_client_nrf52840_xxAA_s140_6.0.0.dir/__/__/__/mesh/core/src/flash_manager.c.obj
 .text.flash_manager_entry_release
                0x0000000000000000       0x74 CMakeFiles/light_switch_client_nrf52840_xxAA_s140_6.0.0.dir/__/__/__/mesh/core/src/flash_manager.c.obj
 .text          0x0000000000000000        0x0 CMakeFiles/light_switch_client_nrf52840_xxAA_s140_6.0.0.dir/__/__/__/mesh/core/src/ccm_soft.c.obj
 .data          0x0000000000000000        0x0 CMakeFiles/light_switch_client_nrf52840_xxAA_s140_6.0.0.dir/__/__/__/mesh/core/src/ccm_soft.c.obj
 .bss           0x0000000000000000        0x0 CMakeFiles/light_switch_client_nrf52840_xxAA_s140_6.0.0.dir/__/__/__/mesh/core/src/ccm_soft.c.obj
 .text          0x0000000000000000        0x0 CMakeFiles/light_switch_client_nrf52840_xxAA_s140_6.0.0.dir/__/__/__/mesh/core/src/toolchain.c.obj
 .data          0x0000000000000000        0x0 CMakeFiles/light_switch_client_nrf52840_xxAA_s140_6.0.0.dir/__/__/__/mesh/core/src/toolchain.c.obj
 .bss           0x0000000000000000        0x0 CMakeFiles/light_switch_client_nrf52840_xxAA_s140_6.0.0.dir/__/__/__/mesh/core/src/toolchain.c.obj
 .debug_info    0x0000000000000000       0xac CMakeFiles/light_switch_client_nrf52840_xxAA_s140_6.0.0.dir/__/__/__/mesh/core/src/toolchain.c.obj
 .debug_abbrev  0x0000000000000000       0x5c CMakeFiles/light_switch_client_nrf52840_xxAA_s140_6.0.0.dir/__/__/__/mesh/core/src/toolchain.c.obj
 .debug_aranges
                0x0000000000000000       0x18 CMakeFiles/light_switch_client_nrf52840_xxAA_s140_6.0.0.dir/__/__/__/mesh/core/src/toolchain.c.obj
 .debug_line    0x0000000000000000      0x131 CMakeFiles/light_switch_client_nrf52840_xxAA_s140_6.0.0.dir/__/__/__/mesh/core/src/toolchain.c.obj
 .debug_str     0x0000000000000000      0x26a CMakeFiles/light_switch_client_nrf52840_xxAA_s140_6.0.0.dir/__/__/__/mesh/core/src/toolchain.c.obj
 .comment       0x0000000000000000       0x7f CMakeFiles/light_switch_client_nrf52840_xxAA_s140_6.0.0.dir/__/__/__/mesh/core/src/toolchain.c.obj
 .ARM.attributes
                0x0000000000000000       0x39 CMakeFiles/light_switch_client_nrf52840_xxAA_s140_6.0.0.dir/__/__/__/mesh/core/src/toolchain.c.obj
 .text          0x0000000000000000        0x0 CMakeFiles/light_switch_client_nrf52840_xxAA_s140_6.0.0.dir/__/__/__/mesh/core/src/replay_cache.c.obj
 .data          0x0000000000000000        0x0 CMakeFiles/light_switch_client_nrf52840_xxAA_s140_6.0.0.dir/__/__/__/mesh/core/src/replay_cache.c.obj
 .bss           0x0000000000000000        0x0 CMakeFiles/light_switch_client_nrf52840_xxAA_s140_6.0.0.dir/__/__/__/mesh/core/src/replay_cache.c.obj
 .text.replay_cache_on_iv_update
                0x0000000000000000       0x2c CMakeFiles/light_switch_client_nrf52840_xxAA_s140_6.0.0.dir/__/__/__/mesh/core/src/replay_cache.c.obj
 .text.replay_cache_clear
                0x0000000000000000       0x20 CMakeFiles/light_switch_client_nrf52840_xxAA_s140_6.0.0.dir/__/__/__/mesh/core/src/replay_cache.c.obj
 .text          0x0000000000000000        0x0 CMakeFiles/light_switch_client_nrf52840_xxAA_s140_6.0.0.dir/__/__/__/mesh/core/src/beacon.c.obj
 .data          0x0000000000000000        0x0 CMakeFiles/light_switch_client_nrf52840_xxAA_s140_6.0.0.dir/__/__/__/mesh/core/src/beacon.c.obj
 .bss           0x0000000000000000        0x0 CMakeFiles/light_switch_client_nrf52840_xxAA_s140_6.0.0.dir/__/__/__/mesh/core/src/beacon.c.obj
 .text          0x0000000000000000        0x0 CMakeFiles/light_switch_client_nrf52840_xxAA_s140_6.0.0.dir/__/__/__/mesh/core/src/flash_manager_internal.c.obj
 .data          0x0000000000000000        0x0 CMakeFiles/light_switch_client_nrf52840_xxAA_s140_6.0.0.dir/__/__/__/mesh/core/src/flash_manager_internal.c.obj
 .bss           0x0000000000000000        0x0 CMakeFiles/light_switch_client_nrf52840_xxAA_s140_6.0.0.dir/__/__/__/mesh/core/src/flash_manager_internal.c.obj
 .text          0x0000000000000000        0x0 CMakeFiles/light_switch_client_nrf52840_xxAA_s140_6.0.0.dir/__/__/__/mesh/core/src/core_tx.c.obj
 .data          0x0000000000000000        0x0 CMakeFiles/light_switch_client_nrf52840_xxAA_s140_6.0.0.dir/__/__/__/mesh/core/src/core_tx.c.obj
 .bss           0x0000000000000000        0x0 CMakeFiles/light_switch_client_nrf52840_xxAA_s140_6.0.0.dir/__/__/__/mesh/core/src/core_tx.c.obj
 .text.core_tx_bearer_type_get
                0x0000000000000000       0x2c CMakeFiles/light_switch_client_nrf52840_xxAA_s140_6.0.0.dir/__/__/__/mesh/core/src/core_tx.c.obj
 .text.core_tx_bearer_count_get
                0x0000000000000000        0xc CMakeFiles/light_switch_client_nrf52840_xxAA_s140_6.0.0.dir/__/__/__/mesh/core/src/core_tx.c.obj
 .text          0x0000000000000000        0x0 CMakeFiles/light_switch_client_nrf52840_xxAA_s140_6.0.0.dir/__/__/__/mesh/core/src/heartbeat.c.obj
 .data          0x0000000000000000        0x0 CMakeFiles/light_switch_client_nrf52840_xxAA_s140_6.0.0.dir/__/__/__/mesh/core/src/heartbeat.c.obj
 .bss           0x0000000000000000        0x0 CMakeFiles/light_switch_client_nrf52840_xxAA_s140_6.0.0.dir/__/__/__/mesh/core/src/heartbeat.c.obj
 .text          0x0000000000000000        0x0 CMakeFiles/light_switch_client_nrf52840_xxAA_s140_6.0.0.dir/__/__/__/mesh/core/src/net_beacon.c.obj
 .data          0x0000000000000000        0x0 CMakeFiles/light_switch_client_nrf52840_xxAA_s140_6.0.0.dir/__/__/__/mesh/core/src/net_beacon.c.obj
 .bss           0x0000000000000000        0x0 CMakeFiles/light_switch_client_nrf52840_xxAA_s140_6.0.0.dir/__/__/__/mesh/core/src/net_beacon.c.obj
 .text.net_beacon_build
                0x0000000000000000       0x68 CMakeFiles/light_switch_client_nrf52840_xxAA_s140_6.0.0.dir/__/__/__/mesh/core/src/net_beacon.c.obj
 .text          0x0000000000000000        0x0 CMakeFiles/light_switch_client_nrf52840_xxAA_s140_6.0.0.dir/__/__/__/mesh/core/src/fsm.c.obj
 .data          0x0000000000000000        0x0 CMakeFiles/light_switch_client_nrf52840_xxAA_s140_6.0.0.dir/__/__/__/mesh/core/src/fsm.c.obj
 .bss           0x0000000000000000        0x0 CMakeFiles/light_switch_client_nrf52840_xxAA_s140_6.0.0.dir/__/__/__/mesh/core/src/fsm.c.obj
 .text.fsm_event_post_try
                0x0000000000000000      0x24c CMakeFiles/light_switch_client_nrf52840_xxAA_s140_6.0.0.dir/__/__/__/mesh/core/src/fsm.c.obj
 .text.fsm_init
                0x0000000000000000      0x100 CMakeFiles/light_switch_client_nrf52840_xxAA_s140_6.0.0.dir/__/__/__/mesh/core/src/fsm.c.obj
 .text.fsm_event_post
                0x0000000000000000       0xbc CMakeFiles/light_switch_client_nrf52840_xxAA_s140_6.0.0.dir/__/__/__/mesh/core/src/fsm.c.obj
 .text.fsm_is_processing
                0x0000000000000000        0xc CMakeFiles/light_switch_client_nrf52840_xxAA_s140_6.0.0.dir/__/__/__/mesh/core/src/fsm.c.obj
 .rodata.fsm_event_post.str1.4
                0x0000000000000000        0xb CMakeFiles/light_switch_client_nrf52840_xxAA_s140_6.0.0.dir/__/__/__/mesh/core/src/fsm.c.obj
 .rodata.fsm_event_post_try.str1.4
                0x0000000000000000       0x7c CMakeFiles/light_switch_client_nrf52840_xxAA_s140_6.0.0.dir/__/__/__/mesh/core/src/fsm.c.obj
 .rodata.fsm_init.str1.4
                0x0000000000000000        0xa CMakeFiles/light_switch_client_nrf52840_xxAA_s140_6.0.0.dir/__/__/__/mesh/core/src/fsm.c.obj
 .debug_info    0x0000000000000000     0x13e3 CMakeFiles/light_switch_client_nrf52840_xxAA_s140_6.0.0.dir/__/__/__/mesh/core/src/fsm.c.obj
 .debug_abbrev  0x0000000000000000      0x35d CMakeFiles/light_switch_client_nrf52840_xxAA_s140_6.0.0.dir/__/__/__/mesh/core/src/fsm.c.obj
 .debug_loc     0x0000000000000000      0x4f3 CMakeFiles/light_switch_client_nrf52840_xxAA_s140_6.0.0.dir/__/__/__/mesh/core/src/fsm.c.obj
 .debug_aranges
                0x0000000000000000       0x38 CMakeFiles/light_switch_client_nrf52840_xxAA_s140_6.0.0.dir/__/__/__/mesh/core/src/fsm.c.obj
 .debug_ranges  0x0000000000000000       0xd8 CMakeFiles/light_switch_client_nrf52840_xxAA_s140_6.0.0.dir/__/__/__/mesh/core/src/fsm.c.obj
 .debug_line    0x0000000000000000      0x48d CMakeFiles/light_switch_client_nrf52840_xxAA_s140_6.0.0.dir/__/__/__/mesh/core/src/fsm.c.obj
 .debug_str     0x0000000000000000      0x9f4 CMakeFiles/light_switch_client_nrf52840_xxAA_s140_6.0.0.dir/__/__/__/mesh/core/src/fsm.c.obj
 .comment       0x0000000000000000       0x7f CMakeFiles/light_switch_client_nrf52840_xxAA_s140_6.0.0.dir/__/__/__/mesh/core/src/fsm.c.obj
 .debug_frame   0x0000000000000000       0xb0 CMakeFiles/light_switch_client_nrf52840_xxAA_s140_6.0.0.dir/__/__/__/mesh/core/src/fsm.c.obj
 .ARM.attributes
                0x0000000000000000       0x39 CMakeFiles/light_switch_client_nrf52840_xxAA_s140_6.0.0.dir/__/__/__/mesh/core/src/fsm.c.obj
 .text          0x0000000000000000        0x0 CMakeFiles/light_switch_client_nrf52840_xxAA_s140_6.0.0.dir/__/__/__/mesh/core/src/core_tx_adv.c.obj
 .data          0x0000000000000000        0x0 CMakeFiles/light_switch_client_nrf52840_xxAA_s140_6.0.0.dir/__/__/__/mesh/core/src/core_tx_adv.c.obj
 .bss           0x0000000000000000        0x0 CMakeFiles/light_switch_client_nrf52840_xxAA_s140_6.0.0.dir/__/__/__/mesh/core/src/core_tx_adv.c.obj
 .text.core_tx_adv_address_set
                0x0000000000000000       0x28 CMakeFiles/light_switch_client_nrf52840_xxAA_s140_6.0.0.dir/__/__/__/mesh/core/src/core_tx_adv.c.obj
 .text          0x0000000000000000        0x0 CMakeFiles/light_switch_client_nrf52840_xxAA_s140_6.0.0.dir/__/__/__/mesh/bearer/src/ad_listener.c.obj
 .data          0x0000000000000000        0x0 CMakeFiles/light_switch_client_nrf52840_xxAA_s140_6.0.0.dir/__/__/__/mesh/bearer/src/ad_listener.c.obj
 .bss           0x0000000000000000        0x0 CMakeFiles/light_switch_client_nrf52840_xxAA_s140_6.0.0.dir/__/__/__/mesh/bearer/src/ad_listener.c.obj
 .text.ad_listener_unsubscribe
                0x0000000000000000       0x78 CMakeFiles/light_switch_client_nrf52840_xxAA_s140_6.0.0.dir/__/__/__/mesh/bearer/src/ad_listener.c.obj
 .text          0x0000000000000000        0x0 CMakeFiles/light_switch_client_nrf52840_xxAA_s140_6.0.0.dir/__/__/__/mesh/bearer/src/ad_type_filter.c.obj
 .data          0x0000000000000000        0x0 CMakeFiles/light_switch_client_nrf52840_xxAA_s140_6.0.0.dir/__/__/__/mesh/bearer/src/ad_type_filter.c.obj
 .bss           0x0000000000000000        0x0 CMakeFiles/light_switch_client_nrf52840_xxAA_s140_6.0.0.dir/__/__/__/mesh/bearer/src/ad_type_filter.c.obj
 .text.bearer_adtype_remove
                0x0000000000000000       0x28 CMakeFiles/light_switch_client_nrf52840_xxAA_s140_6.0.0.dir/__/__/__/mesh/bearer/src/ad_type_filter.c.obj
 .text.bearer_adtype_clear
                0x0000000000000000       0x10 CMakeFiles/light_switch_client_nrf52840_xxAA_s140_6.0.0.dir/__/__/__/mesh/bearer/src/ad_type_filter.c.obj
 .text.bearer_invalid_length_amount_get
                0x0000000000000000        0xc CMakeFiles/light_switch_client_nrf52840_xxAA_s140_6.0.0.dir/__/__/__/mesh/bearer/src/ad_type_filter.c.obj
 .text.bearer_adtype_filtered_amount_get
                0x0000000000000000        0xc CMakeFiles/light_switch_client_nrf52840_xxAA_s140_6.0.0.dir/__/__/__/mesh/bearer/src/ad_type_filter.c.obj
 .text          0x0000000000000000        0x0 CMakeFiles/light_switch_client_nrf52840_xxAA_s140_6.0.0.dir/__/__/__/mesh/bearer/src/adv_packet_filter.c.obj
 .data          0x0000000000000000        0x0 CMakeFiles/light_switch_client_nrf52840_xxAA_s140_6.0.0.dir/__/__/__/mesh/bearer/src/adv_packet_filter.c.obj
 .bss           0x0000000000000000        0x0 CMakeFiles/light_switch_client_nrf52840_xxAA_s140_6.0.0.dir/__/__/__/mesh/bearer/src/adv_packet_filter.c.obj
 .text.adv_filter_handle
                0x0000000000000000       0x40 CMakeFiles/light_switch_client_nrf52840_xxAA_s140_6.0.0.dir/__/__/__/mesh/bearer/src/adv_packet_filter.c.obj
 .text.bearer_adv_packet_filtering_set
                0x0000000000000000       0x1c CMakeFiles/light_switch_client_nrf52840_xxAA_s140_6.0.0.dir/__/__/__/mesh/bearer/src/adv_packet_filter.c.obj
 .text.bearer_adv_packet_remove
                0x0000000000000000       0x18 CMakeFiles/light_switch_client_nrf52840_xxAA_s140_6.0.0.dir/__/__/__/mesh/bearer/src/adv_packet_filter.c.obj
 .text.bearer_adv_packet_add
                0x0000000000000000       0x14 CMakeFiles/light_switch_client_nrf52840_xxAA_s140_6.0.0.dir/__/__/__/mesh/bearer/src/adv_packet_filter.c.obj
 .text.bearer_adv_packet_clear
                0x0000000000000000        0xc CMakeFiles/light_switch_client_nrf52840_xxAA_s140_6.0.0.dir/__/__/__/mesh/bearer/src/adv_packet_filter.c.obj
 .text.bearer_adv_packet_filter_mode_set
                0x0000000000000000       0x18 CMakeFiles/light_switch_client_nrf52840_xxAA_s140_6.0.0.dir/__/__/__/mesh/bearer/src/adv_packet_filter.c.obj
 .text.bearer_adv_packet_filtered_amount_get
                0x0000000000000000        0xc CMakeFiles/light_switch_client_nrf52840_xxAA_s140_6.0.0.dir/__/__/__/mesh/bearer/src/adv_packet_filter.c.obj
 .bss.m_adv_packet_filter
                0x0000000000000000       0x14 CMakeFiles/light_switch_client_nrf52840_xxAA_s140_6.0.0.dir/__/__/__/mesh/bearer/src/adv_packet_filter.c.obj
 .debug_info    0x0000000000000000      0xd92 CMakeFiles/light_switch_client_nrf52840_xxAA_s140_6.0.0.dir/__/__/__/mesh/bearer/src/adv_packet_filter.c.obj
 .debug_abbrev  0x0000000000000000      0x2cb CMakeFiles/light_switch_client_nrf52840_xxAA_s140_6.0.0.dir/__/__/__/mesh/bearer/src/adv_packet_filter.c.obj
 .debug_loc     0x0000000000000000      0x1b2 CMakeFiles/light_switch_client_nrf52840_xxAA_s140_6.0.0.dir/__/__/__/mesh/bearer/src/adv_packet_filter.c.obj
 .debug_aranges
                0x0000000000000000       0x50 CMakeFiles/light_switch_client_nrf52840_xxAA_s140_6.0.0.dir/__/__/__/mesh/bearer/src/adv_packet_filter.c.obj
 .debug_ranges  0x0000000000000000       0x40 CMakeFiles/light_switch_client_nrf52840_xxAA_s140_6.0.0.dir/__/__/__/mesh/bearer/src/adv_packet_filter.c.obj
 .debug_line    0x0000000000000000      0x489 CMakeFiles/light_switch_client_nrf52840_xxAA_s140_6.0.0.dir/__/__/__/mesh/bearer/src/adv_packet_filter.c.obj
 .debug_str     0x0000000000000000      0xa98 CMakeFiles/light_switch_client_nrf52840_xxAA_s140_6.0.0.dir/__/__/__/mesh/bearer/src/adv_packet_filter.c.obj
 .comment       0x0000000000000000       0x7f CMakeFiles/light_switch_client_nrf52840_xxAA_s140_6.0.0.dir/__/__/__/mesh/bearer/src/adv_packet_filter.c.obj
 .debug_frame   0x0000000000000000       0x88 CMakeFiles/light_switch_client_nrf52840_xxAA_s140_6.0.0.dir/__/__/__/mesh/bearer/src/adv_packet_filter.c.obj
 .ARM.attributes
                0x0000000000000000       0x39 CMakeFiles/light_switch_client_nrf52840_xxAA_s140_6.0.0.dir/__/__/__/mesh/bearer/src/adv_packet_filter.c.obj
 .text          0x0000000000000000        0x0 CMakeFiles/light_switch_client_nrf52840_xxAA_s140_6.0.0.dir/__/__/__/mesh/bearer/src/advertiser.c.obj
 .data          0x0000000000000000        0x0 CMakeFiles/light_switch_client_nrf52840_xxAA_s140_6.0.0.dir/__/__/__/mesh/bearer/src/advertiser.c.obj
 .bss           0x0000000000000000        0x0 CMakeFiles/light_switch_client_nrf52840_xxAA_s140_6.0.0.dir/__/__/__/mesh/bearer/src/advertiser.c.obj
 .text.advertiser_disable
                0x0000000000000000        0xc CMakeFiles/light_switch_client_nrf52840_xxAA_s140_6.0.0.dir/__/__/__/mesh/bearer/src/advertiser.c.obj
 .text.advertiser_config_set
                0x0000000000000000      0x184 CMakeFiles/light_switch_client_nrf52840_xxAA_s140_6.0.0.dir/__/__/__/mesh/bearer/src/advertiser.c.obj
 .text.advertiser_channels_set
                0x0000000000000000       0x98 CMakeFiles/light_switch_client_nrf52840_xxAA_s140_6.0.0.dir/__/__/__/mesh/bearer/src/advertiser.c.obj
 .text.advertiser_address_set
                0x0000000000000000       0x74 CMakeFiles/light_switch_client_nrf52840_xxAA_s140_6.0.0.dir/__/__/__/mesh/bearer/src/advertiser.c.obj
 .text.advertiser_config_get
                0x0000000000000000       0x24 CMakeFiles/light_switch_client_nrf52840_xxAA_s140_6.0.0.dir/__/__/__/mesh/bearer/src/advertiser.c.obj
 .text.advertiser_address_default_get
                0x0000000000000000       0x5c CMakeFiles/light_switch_client_nrf52840_xxAA_s140_6.0.0.dir/__/__/__/mesh/bearer/src/advertiser.c.obj
 .text          0x0000000000000000        0x0 CMakeFiles/light_switch_client_nrf52840_xxAA_s140_6.0.0.dir/__/__/__/mesh/bearer/src/bearer_handler.c.obj
 .data          0x0000000000000000        0x0 CMakeFiles/light_switch_client_nrf52840_xxAA_s140_6.0.0.dir/__/__/__/mesh/bearer/src/bearer_handler.c.obj
 .bss           0x0000000000000000        0x0 CMakeFiles/light_switch_client_nrf52840_xxAA_s140_6.0.0.dir/__/__/__/mesh/bearer/src/bearer_handler.c.obj
 .text.bearer_handler_stop
                0x0000000000000000       0x20 CMakeFiles/light_switch_client_nrf52840_xxAA_s140_6.0.0.dir/__/__/__/mesh/bearer/src/bearer_handler.c.obj
 .text.bearer_handler_action_fire
                0x0000000000000000       0xa0 CMakeFiles/light_switch_client_nrf52840_xxAA_s140_6.0.0.dir/__/__/__/mesh/bearer/src/bearer_handler.c.obj
 .text          0x0000000000000000        0x0 CMakeFiles/light_switch_client_nrf52840_xxAA_s140_6.0.0.dir/__/__/__/mesh/bearer/src/broadcast.c.obj
 .data          0x0000000000000000        0x0 CMakeFiles/light_switch_client_nrf52840_xxAA_s140_6.0.0.dir/__/__/__/mesh/bearer/src/broadcast.c.obj
 .bss           0x0000000000000000        0x0 CMakeFiles/light_switch_client_nrf52840_xxAA_s140_6.0.0.dir/__/__/__/mesh/bearer/src/broadcast.c.obj
 .text          0x0000000000000000        0x0 CMakeFiles/light_switch_client_nrf52840_xxAA_s140_6.0.0.dir/__/__/__/mesh/bearer/src/filter_engine.c.obj
 .data          0x0000000000000000        0x0 CMakeFiles/light_switch_client_nrf52840_xxAA_s140_6.0.0.dir/__/__/__/mesh/bearer/src/filter_engine.c.obj
 .bss           0x0000000000000000        0x0 CMakeFiles/light_switch_client_nrf52840_xxAA_s140_6.0.0.dir/__/__/__/mesh/bearer/src/filter_engine.c.obj
 .text.fen_accepted_amount_get
                0x0000000000000000        0xc CMakeFiles/light_switch_client_nrf52840_xxAA_s140_6.0.0.dir/__/__/__/mesh/bearer/src/filter_engine.c.obj
 .text          0x0000000000000000        0x0 CMakeFiles/light_switch_client_nrf52840_xxAA_s140_6.0.0.dir/__/__/__/mesh/bearer/src/gap_address_filter.c.obj
 .data          0x0000000000000000        0x0 CMakeFiles/light_switch_client_nrf52840_xxAA_s140_6.0.0.dir/__/__/__/mesh/bearer/src/gap_address_filter.c.obj
 .bss           0x0000000000000000        0x0 CMakeFiles/light_switch_client_nrf52840_xxAA_s140_6.0.0.dir/__/__/__/mesh/bearer/src/gap_address_filter.c.obj
 .text.gap_address_filter_handle
                0x0000000000000000       0xb8 CMakeFiles/light_switch_client_nrf52840_xxAA_s140_6.0.0.dir/__/__/__/mesh/bearer/src/gap_address_filter.c.obj
 .text.bearer_filter_gap_addr_whitelist_set
                0x0000000000000000       0x48 CMakeFiles/light_switch_client_nrf52840_xxAA_s140_6.0.0.dir/__/__/__/mesh/bearer/src/gap_address_filter.c.obj
 .text.bearer_filter_gap_addr_blacklist_set
                0x0000000000000000       0x4c CMakeFiles/light_switch_client_nrf52840_xxAA_s140_6.0.0.dir/__/__/__/mesh/bearer/src/gap_address_filter.c.obj
 .text.bearer_filter_gap_addr_range_set
                0x0000000000000000       0x64 CMakeFiles/light_switch_client_nrf52840_xxAA_s140_6.0.0.dir/__/__/__/mesh/bearer/src/gap_address_filter.c.obj
 .text.bearer_filter_gap_addr_clear
                0x0000000000000000       0x24 CMakeFiles/light_switch_client_nrf52840_xxAA_s140_6.0.0.dir/__/__/__/mesh/bearer/src/gap_address_filter.c.obj
 .text.bearer_gap_addr_filtered_amount_get
                0x0000000000000000        0xc CMakeFiles/light_switch_client_nrf52840_xxAA_s140_6.0.0.dir/__/__/__/mesh/bearer/src/gap_address_filter.c.obj
 .bss.m_addr_filter
                0x0000000000000000       0x18 CMakeFiles/light_switch_client_nrf52840_xxAA_s140_6.0.0.dir/__/__/__/mesh/bearer/src/gap_address_filter.c.obj
 .debug_info    0x0000000000000000      0xf34 CMakeFiles/light_switch_client_nrf52840_xxAA_s140_6.0.0.dir/__/__/__/mesh/bearer/src/gap_address_filter.c.obj
 .debug_abbrev  0x0000000000000000      0x2f8 CMakeFiles/light_switch_client_nrf52840_xxAA_s140_6.0.0.dir/__/__/__/mesh/bearer/src/gap_address_filter.c.obj
 .debug_loc     0x0000000000000000      0x823 CMakeFiles/light_switch_client_nrf52840_xxAA_s140_6.0.0.dir/__/__/__/mesh/bearer/src/gap_address_filter.c.obj
 .debug_aranges
                0x0000000000000000       0x48 CMakeFiles/light_switch_client_nrf52840_xxAA_s140_6.0.0.dir/__/__/__/mesh/bearer/src/gap_address_filter.c.obj
 .debug_ranges  0x0000000000000000      0x100 CMakeFiles/light_switch_client_nrf52840_xxAA_s140_6.0.0.dir/__/__/__/mesh/bearer/src/gap_address_filter.c.obj
 .debug_line    0x0000000000000000      0x519 CMakeFiles/light_switch_client_nrf52840_xxAA_s140_6.0.0.dir/__/__/__/mesh/bearer/src/gap_address_filter.c.obj
 .debug_str     0x0000000000000000      0x9f2 CMakeFiles/light_switch_client_nrf52840_xxAA_s140_6.0.0.dir/__/__/__/mesh/bearer/src/gap_address_filter.c.obj
 .comment       0x0000000000000000       0x7f CMakeFiles/light_switch_client_nrf52840_xxAA_s140_6.0.0.dir/__/__/__/mesh/bearer/src/gap_address_filter.c.obj
 .debug_frame   0x0000000000000000       0xd4 CMakeFiles/light_switch_client_nrf52840_xxAA_s140_6.0.0.dir/__/__/__/mesh/bearer/src/gap_address_filter.c.obj
 .ARM.attributes
                0x0000000000000000       0x39 CMakeFiles/light_switch_client_nrf52840_xxAA_s140_6.0.0.dir/__/__/__/mesh/bearer/src/gap_address_filter.c.obj
 .text          0x0000000000000000        0x0 CMakeFiles/light_switch_client_nrf52840_xxAA_s140_6.0.0.dir/__/__/__/mesh/bearer/src/radio_config.c.obj
 .data          0x0000000000000000        0x0 CMakeFiles/light_switch_client_nrf52840_xxAA_s140_6.0.0.dir/__/__/__/mesh/bearer/src/radio_config.c.obj
 .bss           0x0000000000000000        0x0 CMakeFiles/light_switch_client_nrf52840_xxAA_s140_6.0.0.dir/__/__/__/mesh/bearer/src/radio_config.c.obj
 .text.radio_config_access_addr_get
                0x0000000000000000       0x58 CMakeFiles/light_switch_client_nrf52840_xxAA_s140_6.0.0.dir/__/__/__/mesh/bearer/src/radio_config.c.obj
 .text          0x0000000000000000        0x0 CMakeFiles/light_switch_client_nrf52840_xxAA_s140_6.0.0.dir/__/__/__/mesh/bearer/src/rssi_filter.c.obj
 .data          0x0000000000000000        0x0 CMakeFiles/light_switch_client_nrf52840_xxAA_s140_6.0.0.dir/__/__/__/mesh/bearer/src/rssi_filter.c.obj
 .bss           0x0000000000000000        0x0 CMakeFiles/light_switch_client_nrf52840_xxAA_s140_6.0.0.dir/__/__/__/mesh/bearer/src/rssi_filter.c.obj
 .text.rssi_filter_handle
                0x0000000000000000       0x20 CMakeFiles/light_switch_client_nrf52840_xxAA_s140_6.0.0.dir/__/__/__/mesh/bearer/src/rssi_filter.c.obj
 .text.bearer_rssi_filtering_set
                0x0000000000000000       0x38 CMakeFiles/light_switch_client_nrf52840_xxAA_s140_6.0.0.dir/__/__/__/mesh/bearer/src/rssi_filter.c.obj
 .text.bearer_rssi_filtered_amount_get
                0x0000000000000000        0xc CMakeFiles/light_switch_client_nrf52840_xxAA_s140_6.0.0.dir/__/__/__/mesh/bearer/src/rssi_filter.c.obj
 .bss.m_rssi_filter
                0x0000000000000000       0x18 CMakeFiles/light_switch_client_nrf52840_xxAA_s140_6.0.0.dir/__/__/__/mesh/bearer/src/rssi_filter.c.obj
 .debug_info    0x0000000000000000      0xc70 CMakeFiles/light_switch_client_nrf52840_xxAA_s140_6.0.0.dir/__/__/__/mesh/bearer/src/rssi_filter.c.obj
 .debug_abbrev  0x0000000000000000      0x290 CMakeFiles/light_switch_client_nrf52840_xxAA_s140_6.0.0.dir/__/__/__/mesh/bearer/src/rssi_filter.c.obj
 .debug_loc     0x0000000000000000       0xbe CMakeFiles/light_switch_client_nrf52840_xxAA_s140_6.0.0.dir/__/__/__/mesh/bearer/src/rssi_filter.c.obj
 .debug_aranges
                0x0000000000000000       0x30 CMakeFiles/light_switch_client_nrf52840_xxAA_s140_6.0.0.dir/__/__/__/mesh/bearer/src/rssi_filter.c.obj
 .debug_ranges  0x0000000000000000       0x20 CMakeFiles/light_switch_client_nrf52840_xxAA_s140_6.0.0.dir/__/__/__/mesh/bearer/src/rssi_filter.c.obj
 .debug_line    0x0000000000000000      0x3fb CMakeFiles/light_switch_client_nrf52840_xxAA_s140_6.0.0.dir/__/__/__/mesh/bearer/src/rssi_filter.c.obj
 .debug_str     0x0000000000000000      0x8ad CMakeFiles/light_switch_client_nrf52840_xxAA_s140_6.0.0.dir/__/__/__/mesh/bearer/src/rssi_filter.c.obj
 .comment       0x0000000000000000       0x7f CMakeFiles/light_switch_client_nrf52840_xxAA_s140_6.0.0.dir/__/__/__/mesh/bearer/src/rssi_filter.c.obj
 .debug_frame   0x0000000000000000       0x58 CMakeFiles/light_switch_client_nrf52840_xxAA_s140_6.0.0.dir/__/__/__/mesh/bearer/src/rssi_filter.c.obj
 .ARM.attributes
                0x0000000000000000       0x39 CMakeFiles/light_switch_client_nrf52840_xxAA_s140_6.0.0.dir/__/__/__/mesh/bearer/src/rssi_filter.c.obj
 .text          0x0000000000000000        0x0 CMakeFiles/light_switch_client_nrf52840_xxAA_s140_6.0.0.dir/__/__/__/mesh/bearer/src/scanner.c.obj
 .data          0x0000000000000000        0x0 CMakeFiles/light_switch_client_nrf52840_xxAA_s140_6.0.0.dir/__/__/__/mesh/bearer/src/scanner.c.obj
 .bss           0x0000000000000000        0x0 CMakeFiles/light_switch_client_nrf52840_xxAA_s140_6.0.0.dir/__/__/__/mesh/bearer/src/scanner.c.obj
 .text.scanner_rx_callback_set
                0x0000000000000000       0x20 CMakeFiles/light_switch_client_nrf52840_xxAA_s140_6.0.0.dir/__/__/__/mesh/bearer/src/scanner.c.obj
 .text.scanner_disable
                0x0000000000000000       0x50 CMakeFiles/light_switch_client_nrf52840_xxAA_s140_6.0.0.dir/__/__/__/mesh/bearer/src/scanner.c.obj
 .text.scanner_is_enabled
                0x0000000000000000       0x14 CMakeFiles/light_switch_client_nrf52840_xxAA_s140_6.0.0.dir/__/__/__/mesh/bearer/src/scanner.c.obj
 .text.scanner_stats_get
                0x0000000000000000        0x8 CMakeFiles/light_switch_client_nrf52840_xxAA_s140_6.0.0.dir/__/__/__/mesh/bearer/src/scanner.c.obj
 .text.scanner_config_radio_mode_set
                0x0000000000000000       0x10 CMakeFiles/light_switch_client_nrf52840_xxAA_s140_6.0.0.dir/__/__/__/mesh/bearer/src/scanner.c.obj
 .text.scanner_config_scan_time_set
                0x0000000000000000       0x88 CMakeFiles/light_switch_client_nrf52840_xxAA_s140_6.0.0.dir/__/__/__/mesh/bearer/src/scanner.c.obj
 .text.scanner_config_channels_set
                0x0000000000000000       0x50 CMakeFiles/light_switch_client_nrf52840_xxAA_s140_6.0.0.dir/__/__/__/mesh/bearer/src/scanner.c.obj
 .text.scanner_config_access_addresses_set
                0x0000000000000000       0x38 CMakeFiles/light_switch_client_nrf52840_xxAA_s140_6.0.0.dir/__/__/__/mesh/bearer/src/scanner.c.obj
 .text          0x0000000000000000        0x0 CMakeFiles/light_switch_client_nrf52840_xxAA_s140_6.0.0.dir/__/__/__/models/simple_on_off/src/simple_on_off_client.c.obj
 .data          0x0000000000000000        0x0 CMakeFiles/light_switch_client_nrf52840_xxAA_s140_6.0.0.dir/__/__/__/models/simple_on_off/src/simple_on_off_client.c.obj
 .bss           0x0000000000000000        0x0 CMakeFiles/light_switch_client_nrf52840_xxAA_s140_6.0.0.dir/__/__/__/models/simple_on_off/src/simple_on_off_client.c.obj
 .text.simple_on_off_client_get
                0x0000000000000000       0x60 CMakeFiles/light_switch_client_nrf52840_xxAA_s140_6.0.0.dir/__/__/__/models/simple_on_off/src/simple_on_off_client.c.obj
 .text.simple_on_off_client_pending_msg_cancel
                0x0000000000000000        0x8 CMakeFiles/light_switch_client_nrf52840_xxAA_s140_6.0.0.dir/__/__/__/models/simple_on_off/src/simple_on_off_client.c.obj
 .text          0x0000000000000000        0x0 CMakeFiles/light_switch_client_nrf52840_xxAA_s140_6.0.0.dir/__/__/__/models/config/src/composition_data.c.obj
 .data          0x0000000000000000        0x0 CMakeFiles/light_switch_client_nrf52840_xxAA_s140_6.0.0.dir/__/__/__/models/config/src/composition_data.c.obj
 .bss           0x0000000000000000        0x0 CMakeFiles/light_switch_client_nrf52840_xxAA_s140_6.0.0.dir/__/__/__/models/config/src/composition_data.c.obj
 .text          0x0000000000000000        0x0 CMakeFiles/light_switch_client_nrf52840_xxAA_s140_6.0.0.dir/__/__/__/models/config/src/config_server.c.obj
 .data          0x0000000000000000        0x0 CMakeFiles/light_switch_client_nrf52840_xxAA_s140_6.0.0.dir/__/__/__/models/config/src/config_server.c.obj
 .bss           0x0000000000000000        0x0 CMakeFiles/light_switch_client_nrf52840_xxAA_s140_6.0.0.dir/__/__/__/models/config/src/config_server.c.obj
 .text          0x0000000000000000        0x0 CMakeFiles/light_switch_client_nrf52840_xxAA_s140_6.0.0.dir/__/__/__/models/config/src/packed_index_list.c.obj
 .data          0x0000000000000000        0x0 CMakeFiles/light_switch_client_nrf52840_xxAA_s140_6.0.0.dir/__/__/__/models/config/src/packed_index_list.c.obj
 .bss           0x0000000000000000        0x0 CMakeFiles/light_switch_client_nrf52840_xxAA_s140_6.0.0.dir/__/__/__/models/config/src/packed_index_list.c.obj
 .text          0x0000000000000000        0x0 CMakeFiles/light_switch_client_nrf52840_xxAA_s140_6.0.0.dir/__/__/__/models/health/src/health_server.c.obj
 .data          0x0000000000000000        0x0 CMakeFiles/light_switch_client_nrf52840_xxAA_s140_6.0.0.dir/__/__/__/models/health/src/health_server.c.obj
 .bss           0x0000000000000000        0x0 CMakeFiles/light_switch_client_nrf52840_xxAA_s140_6.0.0.dir/__/__/__/models/health/src/health_server.c.obj
 .text.health_server_fault_register
                0x0000000000000000      0x23c CMakeFiles/light_switch_client_nrf52840_xxAA_s140_6.0.0.dir/__/__/__/models/health/src/health_server.c.obj
 .text.health_server_fault_clear
                0x0000000000000000      0x2d8 CMakeFiles/light_switch_client_nrf52840_xxAA_s140_6.0.0.dir/__/__/__/models/health/src/health_server.c.obj
 .text.health_server_fault_is_set
                0x0000000000000000       0x1c CMakeFiles/light_switch_client_nrf52840_xxAA_s140_6.0.0.dir/__/__/__/models/health/src/health_server.c.obj
 .text.health_server_fault_count_get
                0x0000000000000000      0x14c CMakeFiles/light_switch_client_nrf52840_xxAA_s140_6.0.0.dir/__/__/__/models/health/src/health_server.c.obj
 .text.health_server_attention_get
                0x0000000000000000        0x8 CMakeFiles/light_switch_client_nrf52840_xxAA_s140_6.0.0.dir/__/__/__/models/health/src/health_server.c.obj
 .text.health_server_attention_set
                0x0000000000000000       0x90 CMakeFiles/light_switch_client_nrf52840_xxAA_s140_6.0.0.dir/__/__/__/models/health/src/health_server.c.obj
 .text          0x0000000000000000        0x0 CMakeFiles/light_switch_client_nrf52840_xxAA_s140_6.0.0.dir/__/__/__/mesh/access/src/access_publish.c.obj
 .data          0x0000000000000000        0x0 CMakeFiles/light_switch_client_nrf52840_xxAA_s140_6.0.0.dir/__/__/__/mesh/access/src/access_publish.c.obj
 .bss           0x0000000000000000        0x0 CMakeFiles/light_switch_client_nrf52840_xxAA_s140_6.0.0.dir/__/__/__/mesh/access/src/access_publish.c.obj
 .text          0x0000000000000000        0x0 CMakeFiles/light_switch_client_nrf52840_xxAA_s140_6.0.0.dir/__/__/__/mesh/access/src/access.c.obj
 .data          0x0000000000000000        0x0 CMakeFiles/light_switch_client_nrf52840_xxAA_s140_6.0.0.dir/__/__/__/mesh/access/src/access.c.obj
 .bss           0x0000000000000000        0x0 CMakeFiles/light_switch_client_nrf52840_xxAA_s140_6.0.0.dir/__/__/__/mesh/access/src/access.c.obj
 .text.access_model_subscription_lists_share
                0x0000000000000000       0x68 CMakeFiles/light_switch_client_nrf52840_xxAA_s140_6.0.0.dir/__/__/__/mesh/access/src/access.c.obj
 .text.access_element_location_set
                0x0000000000000000       0x3c CMakeFiles/light_switch_client_nrf52840_xxAA_s140_6.0.0.dir/__/__/__/mesh/access/src/access.c.obj
 .text          0x0000000000000000        0x0 CMakeFiles/light_switch_client_nrf52840_xxAA_s140_6.0.0.dir/__/__/__/mesh/access/src/access_reliable.c.obj
 .data          0x0000000000000000        0x0 CMakeFiles/light_switch_client_nrf52840_xxAA_s140_6.0.0.dir/__/__/__/mesh/access/src/access_reliable.c.obj
 .bss           0x0000000000000000        0x0 CMakeFiles/light_switch_client_nrf52840_xxAA_s140_6.0.0.dir/__/__/__/mesh/access/src/access_reliable.c.obj
 .text          0x0000000000000000        0x0 CMakeFiles/light_switch_client_nrf52840_xxAA_s140_6.0.0.dir/__/__/__/mesh/access/src/device_state_manager.c.obj
 .data          0x0000000000000000        0x0 CMakeFiles/light_switch_client_nrf52840_xxAA_s140_6.0.0.dir/__/__/__/mesh/access/src/device_state_manager.c.obj
 .bss           0x0000000000000000        0x0 CMakeFiles/light_switch_client_nrf52840_xxAA_s140_6.0.0.dir/__/__/__/mesh/access/src/device_state_manager.c.obj
 .text.dsm_has_unflashed_data
                0x0000000000000000       0x58 CMakeFiles/light_switch_client_nrf52840_xxAA_s140_6.0.0.dir/__/__/__/mesh/access/src/device_state_manager.c.obj
 .text.dsm_address_subscription_count_get
                0x0000000000000000       0x74 CMakeFiles/light_switch_client_nrf52840_xxAA_s140_6.0.0.dir/__/__/__/mesh/access/src/device_state_manager.c.obj
 .text.dsm_address_get_all
                0x0000000000000000       0xd8 CMakeFiles/light_switch_client_nrf52840_xxAA_s140_6.0.0.dir/__/__/__/mesh/access/src/device_state_manager.c.obj
 .text.dsm_subnet_handle_to_netkey_index
                0x0000000000000000       0x24 CMakeFiles/light_switch_client_nrf52840_xxAA_s140_6.0.0.dir/__/__/__/mesh/access/src/device_state_manager.c.obj
 .text.dsm_devkey_delete
                0x0000000000000000       0x6c CMakeFiles/light_switch_client_nrf52840_xxAA_s140_6.0.0.dir/__/__/__/mesh/access/src/device_state_manager.c.obj
 .text.dsm_devkey_handle_get
                0x0000000000000000       0x3c CMakeFiles/light_switch_client_nrf52840_xxAA_s140_6.0.0.dir/__/__/__/mesh/access/src/device_state_manager.c.obj
 .text.dsm_beacon_info_get
                0x0000000000000000       0x24 CMakeFiles/light_switch_client_nrf52840_xxAA_s140_6.0.0.dir/__/__/__/mesh/access/src/device_state_manager.c.obj
 .text          0x0000000000000000        0x0 CMakeFiles/light_switch_client_nrf52840_xxAA_s140_6.0.0.dir/__/__/__/mesh/prov/src/prov_provisionee.c.obj
 .data          0x0000000000000000        0x0 CMakeFiles/light_switch_client_nrf52840_xxAA_s140_6.0.0.dir/__/__/__/mesh/prov/src/prov_provisionee.c.obj
 .bss           0x0000000000000000        0x0 CMakeFiles/light_switch_client_nrf52840_xxAA_s140_6.0.0.dir/__/__/__/mesh/prov/src/prov_provisionee.c.obj
 .text.prov_provisionee_shared_secret
                0x0000000000000000       0xa0 CMakeFiles/light_switch_client_nrf52840_xxAA_s140_6.0.0.dir/__/__/__/mesh/prov/src/prov_provisionee.c.obj
 .text          0x0000000000000000        0x0 CMakeFiles/light_switch_client_nrf52840_xxAA_s140_6.0.0.dir/__/__/__/mesh/prov/src/nrf_mesh_prov.c.obj
 .data          0x0000000000000000        0x0 CMakeFiles/light_switch_client_nrf52840_xxAA_s140_6.0.0.dir/__/__/__/mesh/prov/src/nrf_mesh_prov.c.obj
 .bss           0x0000000000000000        0x0 CMakeFiles/light_switch_client_nrf52840_xxAA_s140_6.0.0.dir/__/__/__/mesh/prov/src/nrf_mesh_prov.c.obj
 .text.nrf_mesh_prov_listen_stop
                0x0000000000000000       0x30 CMakeFiles/light_switch_client_nrf52840_xxAA_s140_6.0.0.dir/__/__/__/mesh/prov/src/nrf_mesh_prov.c.obj
 .text.nrf_mesh_prov_provision
                0x0000000000000000       0x68 CMakeFiles/light_switch_client_nrf52840_xxAA_s140_6.0.0.dir/__/__/__/mesh/prov/src/nrf_mesh_prov.c.obj
 .text.nrf_mesh_prov_oob_use
                0x0000000000000000       0x18 CMakeFiles/light_switch_client_nrf52840_xxAA_s140_6.0.0.dir/__/__/__/mesh/prov/src/nrf_mesh_prov.c.obj
 .text.nrf_mesh_prov_shared_secret_provide
                0x0000000000000000       0x10 CMakeFiles/light_switch_client_nrf52840_xxAA_s140_6.0.0.dir/__/__/__/mesh/prov/src/nrf_mesh_prov.c.obj
 .text.nrf_mesh_prov_pubkey_provide
                0x0000000000000000       0x10 CMakeFiles/light_switch_client_nrf52840_xxAA_s140_6.0.0.dir/__/__/__/mesh/prov/src/nrf_mesh_prov.c.obj
 .text.nrf_mesh_prov_scan_start
                0x0000000000000000       0x10 CMakeFiles/light_switch_client_nrf52840_xxAA_s140_6.0.0.dir/__/__/__/mesh/prov/src/nrf_mesh_prov.c.obj
 .text.nrf_mesh_prov_scan_stop
                0x0000000000000000        0x4 CMakeFiles/light_switch_client_nrf52840_xxAA_s140_6.0.0.dir/__/__/__/mesh/prov/src/nrf_mesh_prov.c.obj
 .text          0x0000000000000000        0x0 CMakeFiles/light_switch_client_nrf52840_xxAA_s140_6.0.0.dir/__/__/__/mesh/prov/src/provisioning.c.obj
 .data          0x0000000000000000        0x0 CMakeFiles/light_switch_client_nrf52840_xxAA_s140_6.0.0.dir/__/__/__/mesh/prov/src/provisioning.c.obj
 .bss           0x0000000000000000        0x0 CMakeFiles/light_switch_client_nrf52840_xxAA_s140_6.0.0.dir/__/__/__/mesh/prov/src/provisioning.c.obj
 .text.prov_tx_invite
                0x0000000000000000       0x38 CMakeFiles/light_switch_client_nrf52840_xxAA_s140_6.0.0.dir/__/__/__/mesh/prov/src/provisioning.c.obj
 .text.prov_tx_start
                0x0000000000000000       0x38 CMakeFiles/light_switch_client_nrf52840_xxAA_s140_6.0.0.dir/__/__/__/mesh/prov/src/provisioning.c.obj
 .text.prov_tx_data
                0x0000000000000000       0x34 CMakeFiles/light_switch_client_nrf52840_xxAA_s140_6.0.0.dir/__/__/__/mesh/prov/src/provisioning.c.obj
 .text.prov_tx  0x0000000000000000       0x3c CMakeFiles/light_switch_client_nrf52840_xxAA_s140_6.0.0.dir/__/__/__/mesh/prov/src/provisioning.c.obj
 .text          0x0000000000000000        0x0 CMakeFiles/light_switch_client_nrf52840_xxAA_s140_6.0.0.dir/__/__/__/mesh/prov/src/prov_beacon.c.obj
 .data          0x0000000000000000        0x0 CMakeFiles/light_switch_client_nrf52840_xxAA_s140_6.0.0.dir/__/__/__/mesh/prov/src/prov_beacon.c.obj
 .bss           0x0000000000000000        0x0 CMakeFiles/light_switch_client_nrf52840_xxAA_s140_6.0.0.dir/__/__/__/mesh/prov/src/prov_beacon.c.obj
 .text.prov_beacon_scan_start
                0x0000000000000000       0x1c CMakeFiles/light_switch_client_nrf52840_xxAA_s140_6.0.0.dir/__/__/__/mesh/prov/src/prov_beacon.c.obj
 .text.prov_beacon_scan_stop
                0x0000000000000000        0xc CMakeFiles/light_switch_client_nrf52840_xxAA_s140_6.0.0.dir/__/__/__/mesh/prov/src/prov_beacon.c.obj
 .text          0x0000000000000000        0x0 CMakeFiles/light_switch_client_nrf52840_xxAA_s140_6.0.0.dir/__/__/__/mesh/prov/src/prov_utils.c.obj
 .data          0x0000000000000000        0x0 CMakeFiles/light_switch_client_nrf52840_xxAA_s140_6.0.0.dir/__/__/__/mesh/prov/src/prov_utils.c.obj
 .bss           0x0000000000000000        0x0 CMakeFiles/light_switch_client_nrf52840_xxAA_s140_6.0.0.dir/__/__/__/mesh/prov/src/prov_utils.c.obj
 .text          0x0000000000000000        0x0 CMakeFiles/light_switch_client_nrf52840_xxAA_s140_6.0.0.dir/__/__/__/mesh/prov/src/prov_bearer_adv.c.obj
 .data          0x0000000000000000        0x0 CMakeFiles/light_switch_client_nrf52840_xxAA_s140_6.0.0.dir/__/__/__/mesh/prov/src/prov_bearer_adv.c.obj
 .bss           0x0000000000000000        0x0 CMakeFiles/light_switch_client_nrf52840_xxAA_s140_6.0.0.dir/__/__/__/mesh/prov/src/prov_bearer_adv.c.obj
 .text.calculate_3GPP_CRC
                0x0000000000000000       0x28 CMakeFiles/light_switch_client_nrf52840_xxAA_s140_6.0.0.dir/__/__/__/mesh/prov/src/prov_bearer_adv.c.obj
 .text          0x0000000000000000        0x0 CMakeFiles/light_switch_client_nrf52840_xxAA_s140_6.0.0.dir/home/mazzer/work/nordic/sdk/nRF5_SDK_15.0.0/modules/nrfx/mdk/system_nrf52840.c.obj
 .data          0x0000000000000000        0x0 CMakeFiles/light_switch_client_nrf52840_xxAA_s140_6.0.0.dir/home/mazzer/work/nordic/sdk/nRF5_SDK_15.0.0/modules/nrfx/mdk/system_nrf52840.c.obj
 .bss           0x0000000000000000        0x0 CMakeFiles/light_switch_client_nrf52840_xxAA_s140_6.0.0.dir/home/mazzer/work/nordic/sdk/nRF5_SDK_15.0.0/modules/nrfx/mdk/system_nrf52840.c.obj
 .text.SystemCoreClockUpdate
                0x0000000000000000       0x10 CMakeFiles/light_switch_client_nrf52840_xxAA_s140_6.0.0.dir/home/mazzer/work/nordic/sdk/nRF5_SDK_15.0.0/modules/nrfx/mdk/system_nrf52840.c.obj
 .data          0x0000000000000000        0x0 CMakeFiles/light_switch_client_nrf52840_xxAA_s140_6.0.0.dir/home/mazzer/work/nordic/sdk/nRF5_SDK_15.0.0/modules/nrfx/mdk/gcc_startup_nrf52840.S.obj
 .bss           0x0000000000000000        0x0 CMakeFiles/light_switch_client_nrf52840_xxAA_s140_6.0.0.dir/home/mazzer/work/nordic/sdk/nRF5_SDK_15.0.0/modules/nrfx/mdk/gcc_startup_nrf52840.S.obj
 .text          0x0000000000000000        0x0 CMakeFiles/light_switch_client_nrf52840_xxAA_s140_6.0.0.dir/home/mazzer/work/nordic/sdk/nRF5_SDK_15.0.0/components/libraries/util/app_error.c.obj
 .data          0x0000000000000000        0x0 CMakeFiles/light_switch_client_nrf52840_xxAA_s140_6.0.0.dir/home/mazzer/work/nordic/sdk/nRF5_SDK_15.0.0/components/libraries/util/app_error.c.obj
 .bss           0x0000000000000000        0x0 CMakeFiles/light_switch_client_nrf52840_xxAA_s140_6.0.0.dir/home/mazzer/work/nordic/sdk/nRF5_SDK_15.0.0/components/libraries/util/app_error.c.obj
 .text.app_error_save_and_stop
                0x0000000000000000       0x64 CMakeFiles/light_switch_client_nrf52840_xxAA_s140_6.0.0.dir/home/mazzer/work/nordic/sdk/nRF5_SDK_15.0.0/components/libraries/util/app_error.c.obj
 .bss.m_error_data.8293
                0x0000000000000000       0x20 CMakeFiles/light_switch_client_nrf52840_xxAA_s140_6.0.0.dir/home/mazzer/work/nordic/sdk/nRF5_SDK_15.0.0/components/libraries/util/app_error.c.obj
 .text          0x0000000000000000        0x0 CMakeFiles/light_switch_client_nrf52840_xxAA_s140_6.0.0.dir/home/mazzer/work/nordic/sdk/nRF5_SDK_15.0.0/components/libraries/util/app_error_handler_gcc.c.obj
 .data          0x0000000000000000        0x0 CMakeFiles/light_switch_client_nrf52840_xxAA_s140_6.0.0.dir/home/mazzer/work/nordic/sdk/nRF5_SDK_15.0.0/components/libraries/util/app_error_handler_gcc.c.obj
 .bss           0x0000000000000000        0x0 CMakeFiles/light_switch_client_nrf52840_xxAA_s140_6.0.0.dir/home/mazzer/work/nordic/sdk/nRF5_SDK_15.0.0/components/libraries/util/app_error_handler_gcc.c.obj
 .text          0x0000000000000000        0x0 ../../../external/rtt/librtt_nrf52840_xxAA.a(SEGGER_RTT.c.obj)
 .data          0x0000000000000000        0x0 ../../../external/rtt/librtt_nrf52840_xxAA.a(SEGGER_RTT.c.obj)
 .bss           0x0000000000000000        0x0 ../../../external/rtt/librtt_nrf52840_xxAA.a(SEGGER_RTT.c.obj)
 .text.SEGGER_RTT_ReadNoLock
                0x0000000000000000       0xfc ../../../external/rtt/librtt_nrf52840_xxAA.a(SEGGER_RTT.c.obj)
 .text.SEGGER_RTT_Read
                0x0000000000000000      0x118 ../../../external/rtt/librtt_nrf52840_xxAA.a(SEGGER_RTT.c.obj)
 .text.SEGGER_RTT_WriteSkipNoLock
                0x0000000000000000      0x1a8 ../../../external/rtt/librtt_nrf52840_xxAA.a(SEGGER_RTT.c.obj)
 .text.SEGGER_RTT_WriteNoLock
                0x0000000000000000      0x168 ../../../external/rtt/librtt_nrf52840_xxAA.a(SEGGER_RTT.c.obj)
 .text.SEGGER_RTT_WriteString
                0x0000000000000000      0x1f8 ../../../external/rtt/librtt_nrf52840_xxAA.a(SEGGER_RTT.c.obj)
 .text.SEGGER_RTT_WaitKey
                0x0000000000000000       0xfc ../../../external/rtt/librtt_nrf52840_xxAA.a(SEGGER_RTT.c.obj)
 .text.SEGGER_RTT_HasKey
                0x0000000000000000       0x6c ../../../external/rtt/librtt_nrf52840_xxAA.a(SEGGER_RTT.c.obj)
 .text.SEGGER_RTT_HasData
                0x0000000000000000       0x18 ../../../external/rtt/librtt_nrf52840_xxAA.a(SEGGER_RTT.c.obj)
 .text.SEGGER_RTT_AllocDownBuffer
                0x0000000000000000       0xb8 ../../../external/rtt/librtt_nrf52840_xxAA.a(SEGGER_RTT.c.obj)
 .text.SEGGER_RTT_AllocUpBuffer
                0x0000000000000000       0xd4 ../../../external/rtt/librtt_nrf52840_xxAA.a(SEGGER_RTT.c.obj)
 .text.SEGGER_RTT_ConfigUpBuffer
                0x0000000000000000       0xd0 ../../../external/rtt/librtt_nrf52840_xxAA.a(SEGGER_RTT.c.obj)
 .text.SEGGER_RTT_ConfigDownBuffer
                0x0000000000000000       0xb4 ../../../external/rtt/librtt_nrf52840_xxAA.a(SEGGER_RTT.c.obj)
 .text.SEGGER_RTT_SetNameUpBuffer
                0x0000000000000000       0x90 ../../../external/rtt/librtt_nrf52840_xxAA.a(SEGGER_RTT.c.obj)
 .text.SEGGER_RTT_SetNameDownBuffer
                0x0000000000000000       0x90 ../../../external/rtt/librtt_nrf52840_xxAA.a(SEGGER_RTT.c.obj)
 .text.SEGGER_RTT_Init
                0x0000000000000000       0x64 ../../../external/rtt/librtt_nrf52840_xxAA.a(SEGGER_RTT.c.obj)
 .text.SEGGER_RTT_SetTerminal
                0x0000000000000000      0x16c ../../../external/rtt/librtt_nrf52840_xxAA.a(SEGGER_RTT.c.obj)
 .text.SEGGER_RTT_TerminalOut
                0x0000000000000000      0x4d8 ../../../external/rtt/librtt_nrf52840_xxAA.a(SEGGER_RTT.c.obj)
 .bss._ActiveTerminal
                0x0000000000000000        0x1 ../../../external/rtt/librtt_nrf52840_xxAA.a(SEGGER_RTT.c.obj)
 .rodata._aTerminalId
                0x0000000000000000       0x10 ../../../external/rtt/librtt_nrf52840_xxAA.a(SEGGER_RTT.c.obj)
 .text          0x0000000000000000        0x0 ../../../external/rtt/librtt_nrf52840_xxAA.a(SEGGER_RTT_printf.c.obj)
 .data          0x0000000000000000        0x0 ../../../external/rtt/librtt_nrf52840_xxAA.a(SEGGER_RTT_printf.c.obj)
 .bss           0x0000000000000000        0x0 ../../../external/rtt/librtt_nrf52840_xxAA.a(SEGGER_RTT_printf.c.obj)
 .text          0x0000000000000000        0x0 ../../../external/micro-ecc/libuECC_nrf52840_xxAA.a(uECC.c.obj)
 .data          0x0000000000000000        0x0 ../../../external/micro-ecc/libuECC_nrf52840_xxAA.a(uECC.c.obj)
 .bss           0x0000000000000000        0x0 ../../../external/micro-ecc/libuECC_nrf52840_xxAA.a(uECC.c.obj)
 .text.HMAC_finish
                0x0000000000000000       0x70 ../../../external/micro-ecc/libuECC_nrf52840_xxAA.a(uECC.c.obj)
 .text.uECC_vli_mmod
                0x0000000000000000      0x418 ../../../external/micro-ecc/libuECC_nrf52840_xxAA.a(uECC.c.obj)
 .text.uECC_vli_modSub.isra.2
                0x0000000000000000       0x98 ../../../external/micro-ecc/libuECC_nrf52840_xxAA.a(uECC.c.obj)
 .text.bits2int
                0x0000000000000000      0x160 ../../../external/micro-ecc/libuECC_nrf52840_xxAA.a(uECC.c.obj)
 .text.uECC_sign_with_k
                0x0000000000000000      0x630 ../../../external/micro-ecc/libuECC_nrf52840_xxAA.a(uECC.c.obj)
 .text.uECC_set_rng
                0x0000000000000000        0xc ../../../external/micro-ecc/libuECC_nrf52840_xxAA.a(uECC.c.obj)
 .text.uECC_get_rng
                0x0000000000000000        0xc ../../../external/micro-ecc/libuECC_nrf52840_xxAA.a(uECC.c.obj)
 .text.uECC_curve_private_key_size
                0x0000000000000000       0x10 ../../../external/micro-ecc/libuECC_nrf52840_xxAA.a(uECC.c.obj)
 .text.uECC_curve_public_key_size
                0x0000000000000000        0x8 ../../../external/micro-ecc/libuECC_nrf52840_xxAA.a(uECC.c.obj)
 .text.uECC_valid_point
                0x0000000000000000      0x154 ../../../external/micro-ecc/libuECC_nrf52840_xxAA.a(uECC.c.obj)
 .text.uECC_compute_public_key
                0x0000000000000000      0x2e8 ../../../external/micro-ecc/libuECC_nrf52840_xxAA.a(uECC.c.obj)
 .text.uECC_sign
                0x0000000000000000       0x5c ../../../external/micro-ecc/libuECC_nrf52840_xxAA.a(uECC.c.obj)
 .text.uECC_sign_deterministic
                0x0000000000000000      0x414 ../../../external/micro-ecc/libuECC_nrf52840_xxAA.a(uECC.c.obj)
 .text.uECC_verify
                0x0000000000000000      0x960 ../../../external/micro-ecc/libuECC_nrf52840_xxAA.a(uECC.c.obj)
 .text          0x0000000000000000       0xa0 /usr/bin/../lib/gcc/arm-none-eabi/7.2.1/thumb/v7e-m/fpv4-sp/hard/libgcc.a(_aeabi_ldivmod.o)
 .data          0x0000000000000000        0x0 /usr/bin/../lib/gcc/arm-none-eabi/7.2.1/thumb/v7e-m/fpv4-sp/hard/libgcc.a(_aeabi_ldivmod.o)
 .bss           0x0000000000000000        0x0 /usr/bin/../lib/gcc/arm-none-eabi/7.2.1/thumb/v7e-m/fpv4-sp/hard/libgcc.a(_aeabi_ldivmod.o)
 .debug_frame   0x0000000000000000       0x44 /usr/bin/../lib/gcc/arm-none-eabi/7.2.1/thumb/v7e-m/fpv4-sp/hard/libgcc.a(_aeabi_ldivmod.o)
 .ARM.attributes
                0x0000000000000000       0x22 /usr/bin/../lib/gcc/arm-none-eabi/7.2.1/thumb/v7e-m/fpv4-sp/hard/libgcc.a(_aeabi_ldivmod.o)
 .data          0x0000000000000000        0x0 /usr/bin/../lib/gcc/arm-none-eabi/7.2.1/thumb/v7e-m/fpv4-sp/hard/libgcc.a(_aeabi_uldivmod.o)
 .bss           0x0000000000000000        0x0 /usr/bin/../lib/gcc/arm-none-eabi/7.2.1/thumb/v7e-m/fpv4-sp/hard/libgcc.a(_aeabi_uldivmod.o)
 .data          0x0000000000000000        0x0 /usr/bin/../lib/gcc/arm-none-eabi/7.2.1/thumb/v7e-m/fpv4-sp/hard/libgcc.a(_udivmoddi4.o)
 .bss           0x0000000000000000        0x0 /usr/bin/../lib/gcc/arm-none-eabi/7.2.1/thumb/v7e-m/fpv4-sp/hard/libgcc.a(_udivmoddi4.o)
 .ARM.extab     0x0000000000000000        0x0 /usr/bin/../lib/gcc/arm-none-eabi/7.2.1/thumb/v7e-m/fpv4-sp/hard/libgcc.a(_udivmoddi4.o)
 .data          0x0000000000000000        0x0 /usr/bin/../lib/gcc/arm-none-eabi/7.2.1/thumb/v7e-m/fpv4-sp/hard/libgcc.a(_dvmd_tls.o)
 .bss           0x0000000000000000        0x0 /usr/bin/../lib/gcc/arm-none-eabi/7.2.1/thumb/v7e-m/fpv4-sp/hard/libgcc.a(_dvmd_tls.o)
 .text          0x0000000000000000        0x0 /usr/bin/../lib/gcc/arm-none-eabi/7.2.1/../../../../arm-none-eabi/lib/thumb/v7e-m/fpv4-sp/hard/libg_nano.a(lib_a-exit.o)
 .data          0x0000000000000000        0x0 /usr/bin/../lib/gcc/arm-none-eabi/7.2.1/../../../../arm-none-eabi/lib/thumb/v7e-m/fpv4-sp/hard/libg_nano.a(lib_a-exit.o)
 .bss           0x0000000000000000        0x0 /usr/bin/../lib/gcc/arm-none-eabi/7.2.1/../../../../arm-none-eabi/lib/thumb/v7e-m/fpv4-sp/hard/libg_nano.a(lib_a-exit.o)
 .text          0x0000000000000000        0x0 /usr/bin/../lib/gcc/arm-none-eabi/7.2.1/../../../../arm-none-eabi/lib/thumb/v7e-m/fpv4-sp/hard/libg_nano.a(lib_a-impure.o)
 .data          0x0000000000000000        0x0 /usr/bin/../lib/gcc/arm-none-eabi/7.2.1/../../../../arm-none-eabi/lib/thumb/v7e-m/fpv4-sp/hard/libg_nano.a(lib_a-impure.o)
 .bss           0x0000000000000000        0x0 /usr/bin/../lib/gcc/arm-none-eabi/7.2.1/../../../../arm-none-eabi/lib/thumb/v7e-m/fpv4-sp/hard/libg_nano.a(lib_a-impure.o)
 .text          0x0000000000000000        0x0 /usr/bin/../lib/gcc/arm-none-eabi/7.2.1/../../../../arm-none-eabi/lib/thumb/v7e-m/fpv4-sp/hard/libg_nano.a(lib_a-init.o)
 .data          0x0000000000000000        0x0 /usr/bin/../lib/gcc/arm-none-eabi/7.2.1/../../../../arm-none-eabi/lib/thumb/v7e-m/fpv4-sp/hard/libg_nano.a(lib_a-init.o)
 .bss           0x0000000000000000        0x0 /usr/bin/../lib/gcc/arm-none-eabi/7.2.1/../../../../arm-none-eabi/lib/thumb/v7e-m/fpv4-sp/hard/libg_nano.a(lib_a-init.o)
 .text          0x0000000000000000        0x0 /usr/bin/../lib/gcc/arm-none-eabi/7.2.1/../../../../arm-none-eabi/lib/thumb/v7e-m/fpv4-sp/hard/libg_nano.a(lib_a-malloc.o)
 .data          0x0000000000000000        0x0 /usr/bin/../lib/gcc/arm-none-eabi/7.2.1/../../../../arm-none-eabi/lib/thumb/v7e-m/fpv4-sp/hard/libg_nano.a(lib_a-malloc.o)
 .bss           0x0000000000000000        0x0 /usr/bin/../lib/gcc/arm-none-eabi/7.2.1/../../../../arm-none-eabi/lib/thumb/v7e-m/fpv4-sp/hard/libg_nano.a(lib_a-malloc.o)
 .text          0x0000000000000000        0x0 /usr/bin/../lib/gcc/arm-none-eabi/7.2.1/../../../../arm-none-eabi/lib/thumb/v7e-m/fpv4-sp/hard/libg_nano.a(lib_a-memcmp.o)
 .data          0x0000000000000000        0x0 /usr/bin/../lib/gcc/arm-none-eabi/7.2.1/../../../../arm-none-eabi/lib/thumb/v7e-m/fpv4-sp/hard/libg_nano.a(lib_a-memcmp.o)
 .bss           0x0000000000000000        0x0 /usr/bin/../lib/gcc/arm-none-eabi/7.2.1/../../../../arm-none-eabi/lib/thumb/v7e-m/fpv4-sp/hard/libg_nano.a(lib_a-memcmp.o)
 .text          0x0000000000000000        0x0 /usr/bin/../lib/gcc/arm-none-eabi/7.2.1/../../../../arm-none-eabi/lib/thumb/v7e-m/fpv4-sp/hard/libg_nano.a(lib_a-memcpy-stub.o)
 .data          0x0000000000000000        0x0 /usr/bin/../lib/gcc/arm-none-eabi/7.2.1/../../../../arm-none-eabi/lib/thumb/v7e-m/fpv4-sp/hard/libg_nano.a(lib_a-memcpy-stub.o)
 .bss           0x0000000000000000        0x0 /usr/bin/../lib/gcc/arm-none-eabi/7.2.1/../../../../arm-none-eabi/lib/thumb/v7e-m/fpv4-sp/hard/libg_nano.a(lib_a-memcpy-stub.o)
 .text          0x0000000000000000        0x0 /usr/bin/../lib/gcc/arm-none-eabi/7.2.1/../../../../arm-none-eabi/lib/thumb/v7e-m/fpv4-sp/hard/libg_nano.a(lib_a-memset.o)
 .data          0x0000000000000000        0x0 /usr/bin/../lib/gcc/arm-none-eabi/7.2.1/../../../../arm-none-eabi/lib/thumb/v7e-m/fpv4-sp/hard/libg_nano.a(lib_a-memset.o)
 .bss           0x0000000000000000        0x0 /usr/bin/../lib/gcc/arm-none-eabi/7.2.1/../../../../arm-none-eabi/lib/thumb/v7e-m/fpv4-sp/hard/libg_nano.a(lib_a-memset.o)
 .text          0x0000000000000000        0x0 /usr/bin/../lib/gcc/arm-none-eabi/7.2.1/../../../../arm-none-eabi/lib/thumb/v7e-m/fpv4-sp/hard/libg_nano.a(lib_a-nano-freer.o)
 .data          0x0000000000000000        0x0 /usr/bin/../lib/gcc/arm-none-eabi/7.2.1/../../../../arm-none-eabi/lib/thumb/v7e-m/fpv4-sp/hard/libg_nano.a(lib_a-nano-freer.o)
 .bss           0x0000000000000000        0x0 /usr/bin/../lib/gcc/arm-none-eabi/7.2.1/../../../../arm-none-eabi/lib/thumb/v7e-m/fpv4-sp/hard/libg_nano.a(lib_a-nano-freer.o)
 .text          0x0000000000000000        0x0 /usr/bin/../lib/gcc/arm-none-eabi/7.2.1/../../../../arm-none-eabi/lib/thumb/v7e-m/fpv4-sp/hard/libg_nano.a(lib_a-nano-mallocr.o)
 .data          0x0000000000000000        0x0 /usr/bin/../lib/gcc/arm-none-eabi/7.2.1/../../../../arm-none-eabi/lib/thumb/v7e-m/fpv4-sp/hard/libg_nano.a(lib_a-nano-mallocr.o)
 .bss           0x0000000000000000        0x0 /usr/bin/../lib/gcc/arm-none-eabi/7.2.1/../../../../arm-none-eabi/lib/thumb/v7e-m/fpv4-sp/hard/libg_nano.a(lib_a-nano-mallocr.o)
 .text          0x0000000000000000        0x0 /usr/bin/../lib/gcc/arm-none-eabi/7.2.1/../../../../arm-none-eabi/lib/thumb/v7e-m/fpv4-sp/hard/libg_nano.a(lib_a-sbrkr.o)
 .data          0x0000000000000000        0x0 /usr/bin/../lib/gcc/arm-none-eabi/7.2.1/../../../../arm-none-eabi/lib/thumb/v7e-m/fpv4-sp/hard/libg_nano.a(lib_a-sbrkr.o)
 .bss           0x0000000000000000        0x0 /usr/bin/../lib/gcc/arm-none-eabi/7.2.1/../../../../arm-none-eabi/lib/thumb/v7e-m/fpv4-sp/hard/libg_nano.a(lib_a-sbrkr.o)
 .text          0x0000000000000000        0x0 /usr/bin/../lib/gcc/arm-none-eabi/7.2.1/../../../../arm-none-eabi/lib/thumb/v7e-m/fpv4-sp/hard/libg_nano.a(lib_a-strcpy.o)
 .data          0x0000000000000000        0x0 /usr/bin/../lib/gcc/arm-none-eabi/7.2.1/../../../../arm-none-eabi/lib/thumb/v7e-m/fpv4-sp/hard/libg_nano.a(lib_a-strcpy.o)
 .bss           0x0000000000000000        0x0 /usr/bin/../lib/gcc/arm-none-eabi/7.2.1/../../../../arm-none-eabi/lib/thumb/v7e-m/fpv4-sp/hard/libg_nano.a(lib_a-strcpy.o)
 .data          0x0000000000000000        0x0 /usr/bin/../lib/gcc/arm-none-eabi/7.2.1/../../../../arm-none-eabi/lib/thumb/v7e-m/fpv4-sp/hard/libg_nano.a(lib_a-strlen.o)
 .bss           0x0000000000000000        0x0 /usr/bin/../lib/gcc/arm-none-eabi/7.2.1/../../../../arm-none-eabi/lib/thumb/v7e-m/fpv4-sp/hard/libg_nano.a(lib_a-strlen.o)
 .text          0x0000000000000000        0x0 /usr/bin/../lib/gcc/arm-none-eabi/7.2.1/../../../../arm-none-eabi/lib/thumb/v7e-m/fpv4-sp/hard/libg_nano.a(lib_a-strrchr.o)
 .data          0x0000000000000000        0x0 /usr/bin/../lib/gcc/arm-none-eabi/7.2.1/../../../../arm-none-eabi/lib/thumb/v7e-m/fpv4-sp/hard/libg_nano.a(lib_a-strrchr.o)
 .bss           0x0000000000000000        0x0 /usr/bin/../lib/gcc/arm-none-eabi/7.2.1/../../../../arm-none-eabi/lib/thumb/v7e-m/fpv4-sp/hard/libg_nano.a(lib_a-strrchr.o)
 .text          0x0000000000000000        0x0 /usr/bin/../lib/gcc/arm-none-eabi/7.2.1/../../../../arm-none-eabi/lib/thumb/v7e-m/fpv4-sp/hard/libg_nano.a(lib_a-mlock.o)
 .data          0x0000000000000000        0x0 /usr/bin/../lib/gcc/arm-none-eabi/7.2.1/../../../../arm-none-eabi/lib/thumb/v7e-m/fpv4-sp/hard/libg_nano.a(lib_a-mlock.o)
 .bss           0x0000000000000000        0x0 /usr/bin/../lib/gcc/arm-none-eabi/7.2.1/../../../../arm-none-eabi/lib/thumb/v7e-m/fpv4-sp/hard/libg_nano.a(lib_a-mlock.o)
 .text          0x0000000000000000        0x0 /usr/bin/../lib/gcc/arm-none-eabi/7.2.1/../../../../arm-none-eabi/lib/thumb/v7e-m/fpv4-sp/hard/libg_nano.a(lib_a-reent.o)
 .data          0x0000000000000000        0x0 /usr/bin/../lib/gcc/arm-none-eabi/7.2.1/../../../../arm-none-eabi/lib/thumb/v7e-m/fpv4-sp/hard/libg_nano.a(lib_a-reent.o)
 .bss           0x0000000000000000        0x0 /usr/bin/../lib/gcc/arm-none-eabi/7.2.1/../../../../arm-none-eabi/lib/thumb/v7e-m/fpv4-sp/hard/libg_nano.a(lib_a-reent.o)
 .text.cleanup_glue
                0x0000000000000000       0x1a /usr/bin/../lib/gcc/arm-none-eabi/7.2.1/../../../../arm-none-eabi/lib/thumb/v7e-m/fpv4-sp/hard/libg_nano.a(lib_a-reent.o)
 .text._reclaim_reent
                0x0000000000000000       0xb8 /usr/bin/../lib/gcc/arm-none-eabi/7.2.1/../../../../arm-none-eabi/lib/thumb/v7e-m/fpv4-sp/hard/libg_nano.a(lib_a-reent.o)
 .text          0x0000000000000000        0x0 /usr/bin/../lib/gcc/arm-none-eabi/7.2.1/../../../../arm-none-eabi/lib/thumb/v7e-m/fpv4-sp/hard/libg_nano.a(lib_a-strchr.o)
 .data          0x0000000000000000        0x0 /usr/bin/../lib/gcc/arm-none-eabi/7.2.1/../../../../arm-none-eabi/lib/thumb/v7e-m/fpv4-sp/hard/libg_nano.a(lib_a-strchr.o)
 .bss           0x0000000000000000        0x0 /usr/bin/../lib/gcc/arm-none-eabi/7.2.1/../../../../arm-none-eabi/lib/thumb/v7e-m/fpv4-sp/hard/libg_nano.a(lib_a-strchr.o)
 .text          0x0000000000000000        0x0 /usr/bin/../lib/gcc/arm-none-eabi/7.2.1/thumb/v7e-m/fpv4-sp/hard/crtend.o
 .data          0x0000000000000000        0x0 /usr/bin/../lib/gcc/arm-none-eabi/7.2.1/thumb/v7e-m/fpv4-sp/hard/crtend.o
 .bss           0x0000000000000000        0x0 /usr/bin/../lib/gcc/arm-none-eabi/7.2.1/thumb/v7e-m/fpv4-sp/hard/crtend.o
 .text          0x0000000000000000        0x0 /usr/bin/../lib/gcc/arm-none-eabi/7.2.1/thumb/v7e-m/fpv4-sp/hard/crtn.o
 .data          0x0000000000000000        0x0 /usr/bin/../lib/gcc/arm-none-eabi/7.2.1/thumb/v7e-m/fpv4-sp/hard/crtn.o
 .bss           0x0000000000000000        0x0 /usr/bin/../lib/gcc/arm-none-eabi/7.2.1/thumb/v7e-m/fpv4-sp/hard/crtn.o
 .text          0x0000000000000000        0x0 /usr/bin/../lib/gcc/arm-none-eabi/7.2.1/../../../../arm-none-eabi/lib/thumb/v7e-m/fpv4-sp/hard/libnosys.a(sbrk.o)
 .data          0x0000000000000000        0x0 /usr/bin/../lib/gcc/arm-none-eabi/7.2.1/../../../../arm-none-eabi/lib/thumb/v7e-m/fpv4-sp/hard/libnosys.a(sbrk.o)
 .bss           0x0000000000000000        0x0 /usr/bin/../lib/gcc/arm-none-eabi/7.2.1/../../../../arm-none-eabi/lib/thumb/v7e-m/fpv4-sp/hard/libnosys.a(sbrk.o)
 .text          0x0000000000000000        0x0 /usr/bin/../lib/gcc/arm-none-eabi/7.2.1/../../../../arm-none-eabi/lib/thumb/v7e-m/fpv4-sp/hard/libnosys.a(_exit.o)
 .data          0x0000000000000000        0x0 /usr/bin/../lib/gcc/arm-none-eabi/7.2.1/../../../../arm-none-eabi/lib/thumb/v7e-m/fpv4-sp/hard/libnosys.a(_exit.o)
 .bss           0x0000000000000000        0x0 /usr/bin/../lib/gcc/arm-none-eabi/7.2.1/../../../../arm-none-eabi/lib/thumb/v7e-m/fpv4-sp/hard/libnosys.a(_exit.o)

Memory Configuration

Name             Origin             Length             Attributes
FLASH            0x0000000000026000 0x00000000000d1000 xr
RAM              0x00000000200032c8 0x000000000003ca38 xrw
*default*        0x0000000000000000 0xffffffffffffffff

Linker script and memory map


.text           0x0000000000026000    0x1dc98
 *(.isr_vector)
 .isr_vector    0x0000000000026000      0x200 CMakeFiles/light_switch_client_nrf52840_xxAA_s140_6.0.0.dir/home/mazzer/work/nordic/sdk/nRF5_SDK_15.0.0/modules/nrfx/mdk/gcc_startup_nrf52840.S.obj
                0x0000000000026000                __isr_vector
 *(.text*)
 .text          0x0000000000026200       0x40 /usr/bin/../lib/gcc/arm-none-eabi/7.2.1/thumb/v7e-m/fpv4-sp/hard/crtbegin.o
 .text          0x0000000000026240       0x74 /usr/bin/../lib/gcc/arm-none-eabi/7.2.1/../../../../arm-none-eabi/lib/thumb/v7e-m/fpv4-sp/hard/crt0.o
                0x0000000000026240                _mainCRTStartup
                0x0000000000026240                _start
 .text.sd_app_evt_wait
                0x00000000000262b4        0x4 CMakeFiles/light_switch_client_nrf52840_xxAA_s140_6.0.0.dir/src/main.c.obj
 .text.provisioning_complete_cb
                0x00000000000262b8       0xe4 CMakeFiles/light_switch_client_nrf52840_xxAA_s140_6.0.0.dir/src/main.c.obj
 .text.button_event_handler
                0x000000000002639c      0x1d0 CMakeFiles/light_switch_client_nrf52840_xxAA_s140_6.0.0.dir/src/main.c.obj
 .text.models_init_cb
                0x000000000002656c       0xbc CMakeFiles/light_switch_client_nrf52840_xxAA_s140_6.0.0.dir/src/main.c.obj
 .text.client_status_cb
                0x0000000000026628      0x128 CMakeFiles/light_switch_client_nrf52840_xxAA_s140_6.0.0.dir/src/main.c.obj
 .text.config_server_evt_cb
                0x0000000000026750       0x88 CMakeFiles/light_switch_client_nrf52840_xxAA_s140_6.0.0.dir/src/main.c.obj
 .text.client_publish_timeout_cb
                0x00000000000267d8       0x70 CMakeFiles/light_switch_client_nrf52840_xxAA_s140_6.0.0.dir/src/main.c.obj
 .text.rtt_input_handler
                0x0000000000026848      0x1d8 CMakeFiles/light_switch_client_nrf52840_xxAA_s140_6.0.0.dir/src/main.c.obj
 .text.startup.main
                0x0000000000026a20      0x3b8 CMakeFiles/light_switch_client_nrf52840_xxAA_s140_6.0.0.dir/src/main.c.obj
                0x0000000000026a20                main
 .text.mesh_evt_handler
                0x0000000000026dd8       0x10 CMakeFiles/light_switch_client_nrf52840_xxAA_s140_6.0.0.dir/__/__/__/mesh/stack/src/mesh_stack.c.obj
 .text.mesh_stack_init
                0x0000000000026de8       0x90 CMakeFiles/light_switch_client_nrf52840_xxAA_s140_6.0.0.dir/__/__/__/mesh/stack/src/mesh_stack.c.obj
                0x0000000000026de8                mesh_stack_init
 .text.mesh_stack_start
                0x0000000000026e78        0x4 CMakeFiles/light_switch_client_nrf52840_xxAA_s140_6.0.0.dir/__/__/__/mesh/stack/src/mesh_stack.c.obj
                0x0000000000026e78                mesh_stack_start
 .text.mesh_stack_provisioning_data_store
                0x0000000000026e7c       0x78 CMakeFiles/light_switch_client_nrf52840_xxAA_s140_6.0.0.dir/__/__/__/mesh/stack/src/mesh_stack.c.obj
                0x0000000000026e7c                mesh_stack_provisioning_data_store
 .text.mesh_stack_config_clear
                0x0000000000026ef4       0x14 CMakeFiles/light_switch_client_nrf52840_xxAA_s140_6.0.0.dir/__/__/__/mesh/stack/src/mesh_stack.c.obj
                0x0000000000026ef4                mesh_stack_config_clear
 .text.mesh_stack_device_reset
                0x0000000000026f08       0x20 CMakeFiles/light_switch_client_nrf52840_xxAA_s140_6.0.0.dir/__/__/__/mesh/stack/src/mesh_stack.c.obj
                0x0000000000026f08                mesh_stack_device_reset
 .text.sd_evt_get
                0x0000000000026f28        0x4 CMakeFiles/light_switch_client_nrf52840_xxAA_s140_6.0.0.dir/__/__/common/src/mesh_softdevice_init.c.obj
 .text.sd_softdevice_enable
                0x0000000000026f2c        0x4 CMakeFiles/light_switch_client_nrf52840_xxAA_s140_6.0.0.dir/__/__/common/src/mesh_softdevice_init.c.obj
 .text.sd_ble_enable
                0x0000000000026f30        0x4 CMakeFiles/light_switch_client_nrf52840_xxAA_s140_6.0.0.dir/__/__/common/src/mesh_softdevice_init.c.obj
 .text.SWI2_EGU2_IRQHandler
                0x0000000000026f34       0x1c CMakeFiles/light_switch_client_nrf52840_xxAA_s140_6.0.0.dir/__/__/common/src/mesh_softdevice_init.c.obj
                0x0000000000026f34                SWI2_EGU2_IRQHandler
 .text.mesh_softdevice_init
                0x0000000000026f50      0x1f8 CMakeFiles/light_switch_client_nrf52840_xxAA_s140_6.0.0.dir/__/__/common/src/mesh_softdevice_init.c.obj
                0x0000000000026f50                mesh_softdevice_init
 .text.prov_evt_handler
                0x0000000000027148       0x70 CMakeFiles/light_switch_client_nrf52840_xxAA_s140_6.0.0.dir/__/__/common/src/mesh_provisionee.c.obj
 .text.mesh_provisionee_prov_start
                0x00000000000271b8       0x88 CMakeFiles/light_switch_client_nrf52840_xxAA_s140_6.0.0.dir/__/__/common/src/mesh_provisionee.c.obj
                0x00000000000271b8                mesh_provisionee_prov_start
 .text.TIMER2_IRQHandler
                0x0000000000027240       0x3c CMakeFiles/light_switch_client_nrf52840_xxAA_s140_6.0.0.dir/__/__/common/src/rtt_input.c.obj
                0x0000000000027240                TIMER2_IRQHandler
 .text.rtt_input_enable
                0x000000000002727c       0x5c CMakeFiles/light_switch_client_nrf52840_xxAA_s140_6.0.0.dir/__/__/common/src/rtt_input.c.obj
                0x000000000002727c                rtt_input_enable
 .text.hal_led_pin_get
                0x00000000000272d8       0x18 CMakeFiles/light_switch_client_nrf52840_xxAA_s140_6.0.0.dir/__/__/common/src/simple_hal.c.obj
                0x00000000000272d8                hal_led_pin_get
 .text.hal_led_pin_set
                0x00000000000272f0       0x18 CMakeFiles/light_switch_client_nrf52840_xxAA_s140_6.0.0.dir/__/__/common/src/simple_hal.c.obj
                0x00000000000272f0                hal_led_pin_set
 .text.hal_led_mask_set
                0x0000000000027308       0x14 CMakeFiles/light_switch_client_nrf52840_xxAA_s140_6.0.0.dir/__/__/common/src/simple_hal.c.obj
                0x0000000000027308                hal_led_mask_set
 .text.hal_led_blink_ms
                0x000000000002731c       0x50 CMakeFiles/light_switch_client_nrf52840_xxAA_s140_6.0.0.dir/__/__/common/src/simple_hal.c.obj
                0x000000000002731c                hal_led_blink_ms
 .text.hal_leds_init
                0x000000000002736c       0x3c CMakeFiles/light_switch_client_nrf52840_xxAA_s140_6.0.0.dir/__/__/common/src/simple_hal.c.obj
                0x000000000002736c                hal_leds_init
 .text.hal_buttons_init
                0x00000000000273a8       0x54 CMakeFiles/light_switch_client_nrf52840_xxAA_s140_6.0.0.dir/__/__/common/src/simple_hal.c.obj
                0x00000000000273a8                hal_buttons_init
 .text.GPIOTE_IRQHandler
                0x00000000000273fc       0x70 CMakeFiles/light_switch_client_nrf52840_xxAA_s140_6.0.0.dir/__/__/common/src/simple_hal.c.obj
                0x00000000000273fc                GPIOTE_IRQHandler
 .text._weak_handler
                0x000000000002746c        0x4 CMakeFiles/light_switch_client_nrf52840_xxAA_s140_6.0.0.dir/__/__/nrf_mesh_weak.c.obj
                0x000000000002746c                nrf_mesh_dfu_init
                0x000000000002746c                nrf_mesh_dfu_jump_to_bootloader
                0x000000000002746c                nrf_mesh_dfu_rx
                0x000000000002746c                prov_provisioner_provision
                0x000000000002746c                nrf_mesh_dfu_bank_info_get
                0x000000000002746c                prov_provisioner_oob_pubkey
                0x000000000002746c                nrf_mesh_dfu_request
                0x000000000002746c                nrf_mesh_dfu_bank_flash
                0x000000000002746c                _weak_handler
                0x000000000002746c                nrf_mesh_dfu_relay
                0x000000000002746c                nrf_mesh_dfu_abort
                0x000000000002746c                mesh_flash_op_execute
                0x000000000002746c                prov_provisionee_init
                0x000000000002746c                nrf_mesh_dfu_state_get
                0x000000000002746c                prov_provisioner_shared_secret
                0x000000000002746c                prov_provisioner_auth_data
                0x000000000002746c                prov_provisioner_oob_use
 .text.app_error_fault_handler
                0x0000000000027470      0x238 CMakeFiles/light_switch_client_nrf52840_xxAA_s140_6.0.0.dir/__/__/common/src/app_error_weak.c.obj
                0x0000000000027470                app_error_fault_handler
 .text.mesh_assertion_handler
                0x00000000000276a8       0x24 CMakeFiles/light_switch_client_nrf52840_xxAA_s140_6.0.0.dir/__/__/common/src/assertion_handler_weak.c.obj
                0x00000000000276a8                mesh_assertion_handler
 .text.nrf_mesh_configure_device_uuid_set
                0x00000000000276cc       0x10 CMakeFiles/light_switch_client_nrf52840_xxAA_s140_6.0.0.dir/__/__/__/mesh/core/src/nrf_mesh_configure.c.obj
                0x00000000000276cc                nrf_mesh_configure_device_uuid_set
 .text.nrf_mesh_configure_device_uuid_reset
                0x00000000000276dc       0x2c CMakeFiles/light_switch_client_nrf52840_xxAA_s140_6.0.0.dir/__/__/__/mesh/core/src/nrf_mesh_configure.c.obj
                0x00000000000276dc                nrf_mesh_configure_device_uuid_reset
 .text.nrf_mesh_configure_device_uuid_get
                0x0000000000027708        0x8 CMakeFiles/light_switch_client_nrf52840_xxAA_s140_6.0.0.dir/__/__/__/mesh/core/src/nrf_mesh_configure.c.obj
                0x0000000000027708                nrf_mesh_configure_device_uuid_get
 .text.sd_ecb_block_encrypt
                0x0000000000027710        0x4 CMakeFiles/light_switch_client_nrf52840_xxAA_s140_6.0.0.dir/__/__/__/mesh/core/src/aes.c.obj
 .text.aes_encrypt
                0x0000000000027714       0x34 CMakeFiles/light_switch_client_nrf52840_xxAA_s140_6.0.0.dir/__/__/__/mesh/core/src/aes.c.obj
                0x0000000000027714                aes_encrypt
 .text.msg_cache_init
                0x0000000000027748       0x24 CMakeFiles/light_switch_client_nrf52840_xxAA_s140_6.0.0.dir/__/__/__/mesh/core/src/msg_cache.c.obj
                0x0000000000027748                msg_cache_init
 .text.msg_cache_entry_exists
                0x000000000002776c       0x40 CMakeFiles/light_switch_client_nrf52840_xxAA_s140_6.0.0.dir/__/__/__/mesh/core/src/msg_cache.c.obj
                0x000000000002776c                msg_cache_entry_exists
 .text.msg_cache_entry_add
                0x00000000000277ac       0x2c CMakeFiles/light_switch_client_nrf52840_xxAA_s140_6.0.0.dir/__/__/__/mesh/core/src/msg_cache.c.obj
                0x00000000000277ac                msg_cache_entry_add
 .text.tx_complete
                0x00000000000277d8       0x30 CMakeFiles/light_switch_client_nrf52840_xxAA_s140_6.0.0.dir/__/__/__/mesh/core/src/transport.c.obj
 .text.upper_trs_packet_encrypt
                0x0000000000027808       0xa8 CMakeFiles/light_switch_client_nrf52840_xxAA_s140_6.0.0.dir/__/__/__/mesh/core/src/transport.c.obj
 .text.trs_sar_packet_out
                0x00000000000278b0      0x19c CMakeFiles/light_switch_client_nrf52840_xxAA_s140_6.0.0.dir/__/__/__/mesh/core/src/transport.c.obj
 .text.upper_transport_access_packet_in
                0x0000000000027a4c      0x33c CMakeFiles/light_switch_client_nrf52840_xxAA_s140_6.0.0.dir/__/__/__/mesh/core/src/transport.c.obj
 .text.sar_ctx_cancel
                0x0000000000027d88      0x148 CMakeFiles/light_switch_client_nrf52840_xxAA_s140_6.0.0.dir/__/__/__/mesh/core/src/transport.c.obj
 .text.retry_timeout
                0x0000000000027ed0       0x98 CMakeFiles/light_switch_client_nrf52840_xxAA_s140_6.0.0.dir/__/__/__/mesh/core/src/transport.c.obj
 .text.upper_transport_packet_in
                0x0000000000027f68      0x2a4 CMakeFiles/light_switch_client_nrf52840_xxAA_s140_6.0.0.dir/__/__/__/mesh/core/src/transport.c.obj
 .text.upper_transport_tx.part.27
                0x000000000002820c      0x370 CMakeFiles/light_switch_client_nrf52840_xxAA_s140_6.0.0.dir/__/__/__/mesh/core/src/transport.c.obj
 .text.sar_ack_send.part.31
                0x000000000002857c       0xd4 CMakeFiles/light_switch_client_nrf52840_xxAA_s140_6.0.0.dir/__/__/__/mesh/core/src/transport.c.obj
 .text.transport_sar_process
                0x0000000000028650      0x274 CMakeFiles/light_switch_client_nrf52840_xxAA_s140_6.0.0.dir/__/__/__/mesh/core/src/transport.c.obj
 .text.abort_timeout
                0x00000000000288c4      0x138 CMakeFiles/light_switch_client_nrf52840_xxAA_s140_6.0.0.dir/__/__/__/mesh/core/src/transport.c.obj
 .text.ack_timeout
                0x00000000000289fc       0xf8 CMakeFiles/light_switch_client_nrf52840_xxAA_s140_6.0.0.dir/__/__/__/mesh/core/src/transport.c.obj
 .text.transport_init
                0x0000000000028af4       0xac CMakeFiles/light_switch_client_nrf52840_xxAA_s140_6.0.0.dir/__/__/__/mesh/core/src/transport.c.obj
                0x0000000000028af4                transport_init
 .text.transport_packet_in
                0x0000000000028ba0      0x778 CMakeFiles/light_switch_client_nrf52840_xxAA_s140_6.0.0.dir/__/__/__/mesh/core/src/transport.c.obj
                0x0000000000028ba0                transport_packet_in
 .text.transport_tx
                0x0000000000029318       0xec CMakeFiles/light_switch_client_nrf52840_xxAA_s140_6.0.0.dir/__/__/__/mesh/core/src/transport.c.obj
                0x0000000000029318                transport_tx
 .text.transport_control_tx
                0x0000000000029404       0xc4 CMakeFiles/light_switch_client_nrf52840_xxAA_s140_6.0.0.dir/__/__/__/mesh/core/src/transport.c.obj
                0x0000000000029404                transport_control_tx
 .text.transport_opt_set
                0x00000000000294c8       0xdc CMakeFiles/light_switch_client_nrf52840_xxAA_s140_6.0.0.dir/__/__/__/mesh/core/src/transport.c.obj
                0x00000000000294c8                transport_opt_set
 .text.transport_opt_get
                0x00000000000295a4       0x84 CMakeFiles/light_switch_client_nrf52840_xxAA_s140_6.0.0.dir/__/__/__/mesh/core/src/transport.c.obj
                0x00000000000295a4                transport_opt_get
 .text.transport_control_packet_consumer_add
                0x0000000000029628       0x68 CMakeFiles/light_switch_client_nrf52840_xxAA_s140_6.0.0.dir/__/__/__/mesh/core/src/transport.c.obj
                0x0000000000029628                transport_control_packet_consumer_add
 .text.event_handle
                0x0000000000029690       0x28 CMakeFiles/light_switch_client_nrf52840_xxAA_s140_6.0.0.dir/__/__/__/mesh/core/src/event.c.obj
                0x0000000000029690                event_handle
 .text.event_handler_add
                0x00000000000296b8       0x28 CMakeFiles/light_switch_client_nrf52840_xxAA_s140_6.0.0.dir/__/__/__/mesh/core/src/event.c.obj
                0x00000000000296b8                event_handler_add
 .text.event_handler_remove
                0x00000000000296e0       0x28 CMakeFiles/light_switch_client_nrf52840_xxAA_s140_6.0.0.dir/__/__/__/mesh/core/src/event.c.obj
                0x00000000000296e0                event_handler_remove
 .text.packet_buffer_init
                0x0000000000029708       0xb4 CMakeFiles/light_switch_client_nrf52840_xxAA_s140_6.0.0.dir/__/__/__/mesh/core/src/packet_buffer.c.obj
                0x0000000000029708                packet_buffer_init
 .text.packet_buffer_flush
                0x00000000000297bc       0x6c CMakeFiles/light_switch_client_nrf52840_xxAA_s140_6.0.0.dir/__/__/__/mesh/core/src/packet_buffer.c.obj
                0x00000000000297bc                packet_buffer_flush
 .text.packet_buffer_reserve
                0x0000000000029828       0xa4 CMakeFiles/light_switch_client_nrf52840_xxAA_s140_6.0.0.dir/__/__/__/mesh/core/src/packet_buffer.c.obj
                0x0000000000029828                packet_buffer_reserve
 .text.packet_buffer_commit
                0x00000000000298cc       0x7c CMakeFiles/light_switch_client_nrf52840_xxAA_s140_6.0.0.dir/__/__/__/mesh/core/src/packet_buffer.c.obj
                0x00000000000298cc                packet_buffer_commit
 .text.packet_buffer_pop
                0x0000000000029948       0x44 CMakeFiles/light_switch_client_nrf52840_xxAA_s140_6.0.0.dir/__/__/__/mesh/core/src/packet_buffer.c.obj
                0x0000000000029948                packet_buffer_pop
 .text.packet_buffer_can_pop
                0x000000000002998c       0x24 CMakeFiles/light_switch_client_nrf52840_xxAA_s140_6.0.0.dir/__/__/__/mesh/core/src/packet_buffer.c.obj
                0x000000000002998c                packet_buffer_can_pop
 .text.packet_buffer_packets_ready_to_pop
                0x00000000000299b0       0x5c CMakeFiles/light_switch_client_nrf52840_xxAA_s140_6.0.0.dir/__/__/__/mesh/core/src/packet_buffer.c.obj
                0x00000000000299b0                packet_buffer_packets_ready_to_pop
 .text.packet_buffer_free
                0x0000000000029a0c       0x8c CMakeFiles/light_switch_client_nrf52840_xxAA_s140_6.0.0.dir/__/__/__/mesh/core/src/packet_buffer.c.obj
                0x0000000000029a0c                packet_buffer_free
 .text.erase_source
                0x0000000000029a98       0x34 CMakeFiles/light_switch_client_nrf52840_xxAA_s140_6.0.0.dir/__/__/__/mesh/core/src/flash_manager_defrag.c.obj
 .text.erase_recovery_area
                0x0000000000029acc       0x34 CMakeFiles/light_switch_client_nrf52840_xxAA_s140_6.0.0.dir/__/__/__/mesh/core/src/flash_manager_defrag.c.obj
 .text.write_back
                0x0000000000029b00       0x44 CMakeFiles/light_switch_client_nrf52840_xxAA_s140_6.0.0.dir/__/__/__/mesh/core/src/flash_manager_defrag.c.obj
 .text.write_defrag_start_pointer
                0x0000000000029b44       0x38 CMakeFiles/light_switch_client_nrf52840_xxAA_s140_6.0.0.dir/__/__/__/mesh/core/src/flash_manager_defrag.c.obj
 .text.copy_metadata
                0x0000000000029b7c       0x58 CMakeFiles/light_switch_client_nrf52840_xxAA_s140_6.0.0.dir/__/__/__/mesh/core/src/flash_manager_defrag.c.obj
 .text.seal_storage_page
                0x0000000000029bd4       0x70 CMakeFiles/light_switch_client_nrf52840_xxAA_s140_6.0.0.dir/__/__/__/mesh/core/src/flash_manager_defrag.c.obj
 .text.post_process
                0x0000000000029c44       0x64 CMakeFiles/light_switch_client_nrf52840_xxAA_s140_6.0.0.dir/__/__/__/mesh/core/src/flash_manager_defrag.c.obj
 .text.check_for_invalid_entries
                0x0000000000029ca8       0x40 CMakeFiles/light_switch_client_nrf52840_xxAA_s140_6.0.0.dir/__/__/__/mesh/core/src/flash_manager_defrag.c.obj
 .text.execute_procedure_step
                0x0000000000029ce8       0x98 CMakeFiles/light_switch_client_nrf52840_xxAA_s140_6.0.0.dir/__/__/__/mesh/core/src/flash_manager_defrag.c.obj
 .text.on_flash_op_end
                0x0000000000029d80       0x48 CMakeFiles/light_switch_client_nrf52840_xxAA_s140_6.0.0.dir/__/__/__/mesh/core/src/flash_manager_defrag.c.obj
 .text.invalidate_duplicate_entries
                0x0000000000029dc8      0x150 CMakeFiles/light_switch_client_nrf52840_xxAA_s140_6.0.0.dir/__/__/__/mesh/core/src/flash_manager_defrag.c.obj
 .text.backup_entries
                0x0000000000029f18      0x1c8 CMakeFiles/light_switch_client_nrf52840_xxAA_s140_6.0.0.dir/__/__/__/mesh/core/src/flash_manager_defrag.c.obj
 .text.flash_manager_defrag_init
                0x000000000002a0e0       0x6c CMakeFiles/light_switch_client_nrf52840_xxAA_s140_6.0.0.dir/__/__/__/mesh/core/src/flash_manager_defrag.c.obj
                0x000000000002a0e0                flash_manager_defrag_init
 .text.flash_manager_defrag_is_running
                0x000000000002a14c       0x10 CMakeFiles/light_switch_client_nrf52840_xxAA_s140_6.0.0.dir/__/__/__/mesh/core/src/flash_manager_defrag.c.obj
                0x000000000002a14c                flash_manager_defrag_is_running
 .text.flash_manager_defrag
                0x000000000002a15c       0x48 CMakeFiles/light_switch_client_nrf52840_xxAA_s140_6.0.0.dir/__/__/__/mesh/core/src/flash_manager_defrag.c.obj
                0x000000000002a15c                flash_manager_defrag
 .text.flash_manager_defrag_recovery_page_get
                0x000000000002a1a4        0xc CMakeFiles/light_switch_client_nrf52840_xxAA_s140_6.0.0.dir/__/__/__/mesh/core/src/flash_manager_defrag.c.obj
                0x000000000002a1a4                flash_manager_defrag_recovery_page_get
 .text.fifo_init
                0x000000000002a1b0       0x38 CMakeFiles/light_switch_client_nrf52840_xxAA_s140_6.0.0.dir/__/__/__/mesh/core/src/fifo.c.obj
                0x000000000002a1b0                fifo_init
 .text.fifo_push
                0x000000000002a1e8       0x60 CMakeFiles/light_switch_client_nrf52840_xxAA_s140_6.0.0.dir/__/__/__/mesh/core/src/fifo.c.obj
                0x000000000002a1e8                fifo_push
 .text.fifo_pop
                0x000000000002a248       0x5c CMakeFiles/light_switch_client_nrf52840_xxAA_s140_6.0.0.dir/__/__/__/mesh/core/src/fifo.c.obj
                0x000000000002a248                fifo_pop
 .text.nrf_flash_erase
                0x000000000002a2a4       0x5c CMakeFiles/light_switch_client_nrf52840_xxAA_s140_6.0.0.dir/__/__/__/mesh/core/src/nrf_flash.c.obj
                0x000000000002a2a4                nrf_flash_erase
 .text.nrf_flash_write
                0x000000000002a300       0x70 CMakeFiles/light_switch_client_nrf52840_xxAA_s140_6.0.0.dir/__/__/__/mesh/core/src/nrf_flash.c.obj
                0x000000000002a300                nrf_flash_write
 .text.packet_mgr_init
                0x000000000002a370       0x48 CMakeFiles/light_switch_client_nrf52840_xxAA_s140_6.0.0.dir/__/__/__/mesh/core/src/packet_mgr.c.obj
                0x000000000002a370                packet_mgr_init
 .text.flash_store_iv_index
                0x000000000002a3b8       0x38 CMakeFiles/light_switch_client_nrf52840_xxAA_s140_6.0.0.dir/__/__/__/mesh/core/src/net_state.c.obj
 .text.flash_mem_available
                0x000000000002a3f0       0x1c CMakeFiles/light_switch_client_nrf52840_xxAA_s140_6.0.0.dir/__/__/__/mesh/core/src/net_state.c.obj
 .text.init_flash_storage
                0x000000000002a40c       0x44 CMakeFiles/light_switch_client_nrf52840_xxAA_s140_6.0.0.dir/__/__/__/mesh/core/src/net_state.c.obj
 .text.flash_write_complete
                0x000000000002a450       0x6c CMakeFiles/light_switch_client_nrf52840_xxAA_s140_6.0.0.dir/__/__/__/mesh/core/src/net_state.c.obj
 .text.seqnum_block_allocate
                0x000000000002a4bc       0x4c CMakeFiles/light_switch_client_nrf52840_xxAA_s140_6.0.0.dir/__/__/__/mesh/core/src/net_state.c.obj
 .text.net_state_reset
                0x000000000002a508       0x78 CMakeFiles/light_switch_client_nrf52840_xxAA_s140_6.0.0.dir/__/__/__/mesh/core/src/net_state.c.obj
                0x000000000002a508                net_state_reset
 .text.iv_update_trigger_if_pending
                0x000000000002a580      0x174 CMakeFiles/light_switch_client_nrf52840_xxAA_s140_6.0.0.dir/__/__/__/mesh/core/src/net_state.c.obj
 .text.iv_update_timer_handler
                0x000000000002a6f4       0x70 CMakeFiles/light_switch_client_nrf52840_xxAA_s140_6.0.0.dir/__/__/__/mesh/core/src/net_state.c.obj
 .text.mesh_evt_handler
                0x000000000002a764      0x104 CMakeFiles/light_switch_client_nrf52840_xxAA_s140_6.0.0.dir/__/__/__/mesh/core/src/net_state.c.obj
 .text.net_state_recover_from_flash
                0x000000000002a868      0x118 CMakeFiles/light_switch_client_nrf52840_xxAA_s140_6.0.0.dir/__/__/__/mesh/core/src/net_state.c.obj
                0x000000000002a868                net_state_recover_from_flash
 .text.net_state_flash_area_get
                0x000000000002a980        0xc CMakeFiles/light_switch_client_nrf52840_xxAA_s140_6.0.0.dir/__/__/__/mesh/core/src/net_state.c.obj
                0x000000000002a980                net_state_flash_area_get
 .text.net_state_init
                0x000000000002a98c       0x94 CMakeFiles/light_switch_client_nrf52840_xxAA_s140_6.0.0.dir/__/__/__/mesh/core/src/net_state.c.obj
                0x000000000002a98c                net_state_init
 .text.net_state_seqnum_alloc
                0x000000000002aa20       0xd0 CMakeFiles/light_switch_client_nrf52840_xxAA_s140_6.0.0.dir/__/__/__/mesh/core/src/net_state.c.obj
                0x000000000002aa20                net_state_seqnum_alloc
 .text.net_state_iv_index_lock
                0x000000000002aaf0      0x188 CMakeFiles/light_switch_client_nrf52840_xxAA_s140_6.0.0.dir/__/__/__/mesh/core/src/net_state.c.obj
                0x000000000002aaf0                net_state_iv_index_lock
 .text.net_state_key_refresh_phase_changed
                0x000000000002ac78       0x20 CMakeFiles/light_switch_client_nrf52840_xxAA_s140_6.0.0.dir/__/__/__/mesh/core/src/net_state.c.obj
                0x000000000002ac78                net_state_key_refresh_phase_changed
 .text.net_state_beacon_iv_index_get
                0x000000000002ac98        0xc CMakeFiles/light_switch_client_nrf52840_xxAA_s140_6.0.0.dir/__/__/__/mesh/core/src/net_state.c.obj
                0x000000000002ac98                net_state_beacon_iv_index_get
 .text.net_state_tx_iv_index_get
                0x000000000002aca4       0x14 CMakeFiles/light_switch_client_nrf52840_xxAA_s140_6.0.0.dir/__/__/__/mesh/core/src/net_state.c.obj
                0x000000000002aca4                net_state_tx_iv_index_get
 .text.net_state_rx_iv_index_get
                0x000000000002acb8       0x18 CMakeFiles/light_switch_client_nrf52840_xxAA_s140_6.0.0.dir/__/__/__/mesh/core/src/net_state.c.obj
                0x000000000002acb8                net_state_rx_iv_index_get
 .text.net_state_iv_update_get
                0x000000000002acd0        0xc CMakeFiles/light_switch_client_nrf52840_xxAA_s140_6.0.0.dir/__/__/__/mesh/core/src/net_state.c.obj
                0x000000000002acd0                net_state_iv_update_get
 .text.net_state_iv_index_set
                0x000000000002acdc       0x88 CMakeFiles/light_switch_client_nrf52840_xxAA_s140_6.0.0.dir/__/__/__/mesh/core/src/net_state.c.obj
                0x000000000002acdc                net_state_iv_index_set
 .text.send_end_events
                0x000000000002ad64       0x98 CMakeFiles/light_switch_client_nrf52840_xxAA_s140_6.0.0.dir/__/__/__/mesh/core/src/mesh_flash.c.obj
 .text.flash_op_start
                0x000000000002adfc      0x214 CMakeFiles/light_switch_client_nrf52840_xxAA_s140_6.0.0.dir/__/__/__/mesh/core/src/mesh_flash.c.obj
 .text.mesh_flash_init
                0x000000000002b010       0x78 CMakeFiles/light_switch_client_nrf52840_xxAA_s140_6.0.0.dir/__/__/__/mesh/core/src/mesh_flash.c.obj
                0x000000000002b010                mesh_flash_init
 .text.mesh_flash_user_callback_set
                0x000000000002b088       0x20 CMakeFiles/light_switch_client_nrf52840_xxAA_s140_6.0.0.dir/__/__/__/mesh/core/src/mesh_flash.c.obj
                0x000000000002b088                mesh_flash_user_callback_set
 .text.mesh_flash_op_push
                0x000000000002b0a8      0x198 CMakeFiles/light_switch_client_nrf52840_xxAA_s140_6.0.0.dir/__/__/__/mesh/core/src/mesh_flash.c.obj
                0x000000000002b0a8                mesh_flash_op_push
 .text.nrf_mesh_address_type_get
                0x000000000002b240       0x10 CMakeFiles/light_switch_client_nrf52840_xxAA_s140_6.0.0.dir/__/__/__/mesh/core/src/nrf_mesh_utils.c.obj
                0x000000000002b240                nrf_mesh_address_type_get
 .text.sd_softdevice_is_enabled
                0x000000000002b250        0x4 CMakeFiles/light_switch_client_nrf52840_xxAA_s140_6.0.0.dir/__/__/__/mesh/core/src/nrf_mesh.c.obj
 .text.nrf_mesh_listen
                0x000000000002b254      0x184 CMakeFiles/light_switch_client_nrf52840_xxAA_s140_6.0.0.dir/__/__/__/mesh/core/src/nrf_mesh.c.obj
 .text.flash_stable_cb
                0x000000000002b3d8       0x20 CMakeFiles/light_switch_client_nrf52840_xxAA_s140_6.0.0.dir/__/__/__/mesh/core/src/nrf_mesh.c.obj
 .text.scanner_packet_process_cb
                0x000000000002b3f8       0x88 CMakeFiles/light_switch_client_nrf52840_xxAA_s140_6.0.0.dir/__/__/__/mesh/core/src/nrf_mesh.c.obj
 .text.nrf_mesh_init
                0x000000000002b480       0xe4 CMakeFiles/light_switch_client_nrf52840_xxAA_s140_6.0.0.dir/__/__/__/mesh/core/src/nrf_mesh.c.obj
                0x000000000002b480                nrf_mesh_init
 .text.nrf_mesh_enable
                0x000000000002b564       0x48 CMakeFiles/light_switch_client_nrf52840_xxAA_s140_6.0.0.dir/__/__/__/mesh/core/src/nrf_mesh.c.obj
                0x000000000002b564                nrf_mesh_enable
 .text.nrf_mesh_packet_send
                0x000000000002b5ac       0x94 CMakeFiles/light_switch_client_nrf52840_xxAA_s140_6.0.0.dir/__/__/__/mesh/core/src/nrf_mesh.c.obj
                0x000000000002b5ac                nrf_mesh_packet_send
 .text.nrf_mesh_evt_handler_add
                0x000000000002b640        0x4 CMakeFiles/light_switch_client_nrf52840_xxAA_s140_6.0.0.dir/__/__/__/mesh/core/src/nrf_mesh.c.obj
                0x000000000002b640                nrf_mesh_evt_handler_add
 .text.nrf_mesh_on_sd_evt
                0x000000000002b644        0xc CMakeFiles/light_switch_client_nrf52840_xxAA_s140_6.0.0.dir/__/__/__/mesh/core/src/nrf_mesh.c.obj
                0x000000000002b644                nrf_mesh_on_sd_evt
 .text.nrf_mesh_subnet_added
                0x000000000002b650        0x4 CMakeFiles/light_switch_client_nrf52840_xxAA_s140_6.0.0.dir/__/__/__/mesh/core/src/nrf_mesh.c.obj
                0x000000000002b650                nrf_mesh_subnet_added
 .text.queue_init
                0x000000000002b654       0x1c CMakeFiles/light_switch_client_nrf52840_xxAA_s140_6.0.0.dir/__/__/__/mesh/core/src/queue.c.obj
                0x000000000002b654                queue_init
 .text.queue_push
                0x000000000002b670       0x3c CMakeFiles/light_switch_client_nrf52840_xxAA_s140_6.0.0.dir/__/__/__/mesh/core/src/queue.c.obj
                0x000000000002b670                queue_push
 .text.queue_pop
                0x000000000002b6ac       0x2c CMakeFiles/light_switch_client_nrf52840_xxAA_s140_6.0.0.dir/__/__/__/mesh/core/src/queue.c.obj
                0x000000000002b6ac                queue_pop
 .text.queue_peek
                0x000000000002b6d8       0x14 CMakeFiles/light_switch_client_nrf52840_xxAA_s140_6.0.0.dir/__/__/__/mesh/core/src/queue.c.obj
                0x000000000002b6d8                queue_peek
 .text.sd_power_reset_reason_clr
                0x000000000002b6ec        0x4 CMakeFiles/light_switch_client_nrf52840_xxAA_s140_6.0.0.dir/__/__/__/mesh/core/src/hal.c.obj
 .text.hal_device_reset
                0x000000000002b6f0       0x2c CMakeFiles/light_switch_client_nrf52840_xxAA_s140_6.0.0.dir/__/__/__/mesh/core/src/hal.c.obj
                0x000000000002b6f0                hal_device_reset
 .text.hal_lfclk_ppm_get
                0x000000000002b71c       0x14 CMakeFiles/light_switch_client_nrf52840_xxAA_s140_6.0.0.dir/__/__/__/mesh/core/src/hal.c.obj
                0x000000000002b71c                hal_lfclk_ppm_get
 .text.aes_cmac_subkey_generate
                0x000000000002b730      0x294 CMakeFiles/light_switch_client_nrf52840_xxAA_s140_6.0.0.dir/__/__/__/mesh/core/src/aes_cmac.c.obj
                0x000000000002b730                aes_cmac_subkey_generate
 .text.aes_cmac
                0x000000000002b9c4      0x4b8 CMakeFiles/light_switch_client_nrf52840_xxAA_s140_6.0.0.dir/__/__/__/mesh/core/src/aes_cmac.c.obj
                0x000000000002b9c4                aes_cmac
 .text.timer_cb
                0x000000000002be7c        0xc CMakeFiles/light_switch_client_nrf52840_xxAA_s140_6.0.0.dir/__/__/__/mesh/core/src/timer_scheduler.c.obj
 .text.add_evt.constprop.1
                0x000000000002be88       0x60 CMakeFiles/light_switch_client_nrf52840_xxAA_s140_6.0.0.dir/__/__/__/mesh/core/src/timer_scheduler.c.obj
 .text.flag_event_cb
                0x000000000002bee8      0x2f0 CMakeFiles/light_switch_client_nrf52840_xxAA_s140_6.0.0.dir/__/__/__/mesh/core/src/timer_scheduler.c.obj
 .text.timer_sch_init
                0x000000000002c1d8       0x24 CMakeFiles/light_switch_client_nrf52840_xxAA_s140_6.0.0.dir/__/__/__/mesh/core/src/timer_scheduler.c.obj
                0x000000000002c1d8                timer_sch_init
 .text.timer_sch_schedule
                0x000000000002c1fc       0x68 CMakeFiles/light_switch_client_nrf52840_xxAA_s140_6.0.0.dir/__/__/__/mesh/core/src/timer_scheduler.c.obj
                0x000000000002c1fc                timer_sch_schedule
 .text.timer_sch_abort
                0x000000000002c264       0x5c CMakeFiles/light_switch_client_nrf52840_xxAA_s140_6.0.0.dir/__/__/__/mesh/core/src/timer_scheduler.c.obj
                0x000000000002c264                timer_sch_abort
 .text.timer_sch_reschedule
                0x000000000002c2c0       0x90 CMakeFiles/light_switch_client_nrf52840_xxAA_s140_6.0.0.dir/__/__/__/mesh/core/src/timer_scheduler.c.obj
                0x000000000002c2c0                timer_sch_reschedule
 .text.timer_event_handler
                0x000000000002c350       0xd0 CMakeFiles/light_switch_client_nrf52840_xxAA_s140_6.0.0.dir/__/__/__/mesh/core/src/timer.c.obj
                0x000000000002c350                timer_event_handler
 .text.timer_order_cb
                0x000000000002c420       0x9c CMakeFiles/light_switch_client_nrf52840_xxAA_s140_6.0.0.dir/__/__/__/mesh/core/src/timer.c.obj
                0x000000000002c420                timer_order_cb
 .text.timer_now
                0x000000000002c4bc       0x58 CMakeFiles/light_switch_client_nrf52840_xxAA_s140_6.0.0.dir/__/__/__/mesh/core/src/timer.c.obj
                0x000000000002c4bc                timer_now
 .text.timer_on_ts_begin
                0x000000000002c514      0x100 CMakeFiles/light_switch_client_nrf52840_xxAA_s140_6.0.0.dir/__/__/__/mesh/core/src/timer.c.obj
                0x000000000002c514                timer_on_ts_begin
 .text.timer_on_ts_end
                0x000000000002c614       0x78 CMakeFiles/light_switch_client_nrf52840_xxAA_s140_6.0.0.dir/__/__/__/mesh/core/src/timer.c.obj
                0x000000000002c614                timer_on_ts_end
 .text.timer_cb
                0x000000000002c68c       0x10 CMakeFiles/light_switch_client_nrf52840_xxAA_s140_6.0.0.dir/__/__/__/mesh/core/src/ticker.c.obj
 .text.ticker_init
                0x000000000002c69c       0x3c CMakeFiles/light_switch_client_nrf52840_xxAA_s140_6.0.0.dir/__/__/__/mesh/core/src/ticker.c.obj
                0x000000000002c69c                ticker_init
 .text.sd_rand_application_bytes_available_get
                0x000000000002c6d8        0x4 CMakeFiles/light_switch_client_nrf52840_xxAA_s140_6.0.0.dir/__/__/__/mesh/core/src/rand.c.obj
 .text.sd_rand_application_vector_get
                0x000000000002c6dc        0x4 CMakeFiles/light_switch_client_nrf52840_xxAA_s140_6.0.0.dir/__/__/__/mesh/core/src/rand.c.obj
 .text.rand_prng_seed
                0x000000000002c6e0       0x78 CMakeFiles/light_switch_client_nrf52840_xxAA_s140_6.0.0.dir/__/__/__/mesh/core/src/rand.c.obj
                0x000000000002c6e0                rand_prng_seed
 .text.rand_prng_get
                0x000000000002c758       0x28 CMakeFiles/light_switch_client_nrf52840_xxAA_s140_6.0.0.dir/__/__/__/mesh/core/src/rand.c.obj
                0x000000000002c758                rand_prng_get
 .text.rand_hw_rng_get
                0x000000000002c780       0x60 CMakeFiles/light_switch_client_nrf52840_xxAA_s140_6.0.0.dir/__/__/__/mesh/core/src/rand.c.obj
                0x000000000002c780                rand_hw_rng_get
 .text.nrf_mesh_opt_set
                0x000000000002c7e0       0x28 CMakeFiles/light_switch_client_nrf52840_xxAA_s140_6.0.0.dir/__/__/__/mesh/core/src/nrf_mesh_opt.c.obj
                0x000000000002c7e0                nrf_mesh_opt_set
 .text.nrf_mesh_opt_get
                0x000000000002c808       0x28 CMakeFiles/light_switch_client_nrf52840_xxAA_s140_6.0.0.dir/__/__/__/mesh/core/src/nrf_mesh_opt.c.obj
                0x000000000002c808                nrf_mesh_opt_get
 .text.sd_radio_session_open
                0x000000000002c830        0x4 CMakeFiles/light_switch_client_nrf52840_xxAA_s140_6.0.0.dir/__/__/__/mesh/core/src/timeslot.c.obj
 .text.sd_radio_session_close
                0x000000000002c834        0x4 CMakeFiles/light_switch_client_nrf52840_xxAA_s140_6.0.0.dir/__/__/__/mesh/core/src/timeslot.c.obj
 .text.sd_radio_request
                0x000000000002c838        0x4 CMakeFiles/light_switch_client_nrf52840_xxAA_s140_6.0.0.dir/__/__/__/mesh/core/src/timeslot.c.obj
 .text.end_timer_handler
                0x000000000002c83c       0x2c CMakeFiles/light_switch_client_nrf52840_xxAA_s140_6.0.0.dir/__/__/__/mesh/core/src/timeslot.c.obj
 .text.radio_signal_callback
                0x000000000002c868      0x2b4 CMakeFiles/light_switch_client_nrf52840_xxAA_s140_6.0.0.dir/__/__/__/mesh/core/src/timeslot.c.obj
 .text.timeslot_sd_event_handler
                0x000000000002cb1c       0x44 CMakeFiles/light_switch_client_nrf52840_xxAA_s140_6.0.0.dir/__/__/__/mesh/core/src/timeslot.c.obj
                0x000000000002cb1c                timeslot_sd_event_handler
 .text.timeslot_init
                0x000000000002cb60       0x4c CMakeFiles/light_switch_client_nrf52840_xxAA_s140_6.0.0.dir/__/__/__/mesh/core/src/timeslot.c.obj
                0x000000000002cb60                timeslot_init
 .text.timeslot_start
                0x000000000002cbac       0x20 CMakeFiles/light_switch_client_nrf52840_xxAA_s140_6.0.0.dir/__/__/__/mesh/core/src/timeslot.c.obj
                0x000000000002cbac                timeslot_start
 .text.timeslot_stop
                0x000000000002cbcc       0x30 CMakeFiles/light_switch_client_nrf52840_xxAA_s140_6.0.0.dir/__/__/__/mesh/core/src/timeslot.c.obj
                0x000000000002cbcc                timeslot_stop
 .text.timeslot_state_lock
                0x000000000002cbfc       0x44 CMakeFiles/light_switch_client_nrf52840_xxAA_s140_6.0.0.dir/__/__/__/mesh/core/src/timeslot.c.obj
                0x000000000002cbfc                timeslot_state_lock
 .text.timeslot_end_is_pending
                0x000000000002cc40       0x24 CMakeFiles/light_switch_client_nrf52840_xxAA_s140_6.0.0.dir/__/__/__/mesh/core/src/timeslot.c.obj
                0x000000000002cc40                timeslot_end_is_pending
 .text.timeslot_start_time_get
                0x000000000002cc64        0xc CMakeFiles/light_switch_client_nrf52840_xxAA_s140_6.0.0.dir/__/__/__/mesh/core/src/timeslot.c.obj
                0x000000000002cc64                timeslot_start_time_get
 .text.timeslot_remaining_time_get
                0x000000000002cc70       0x40 CMakeFiles/light_switch_client_nrf52840_xxAA_s140_6.0.0.dir/__/__/__/mesh/core/src/timeslot.c.obj
                0x000000000002cc70                timeslot_remaining_time_get
 .text.timeslot_is_in_cb
                0x000000000002ccb0        0xc CMakeFiles/light_switch_client_nrf52840_xxAA_s140_6.0.0.dir/__/__/__/mesh/core/src/timeslot.c.obj
                0x000000000002ccb0                timeslot_is_in_cb
 .text.timeslot_trigger
                0x000000000002ccbc       0x24 CMakeFiles/light_switch_client_nrf52840_xxAA_s140_6.0.0.dir/__/__/__/mesh/core/src/timeslot.c.obj
                0x000000000002ccbc                timeslot_trigger
 .text.bearer_event_init
                0x000000000002cce0       0x4c CMakeFiles/light_switch_client_nrf52840_xxAA_s140_6.0.0.dir/__/__/__/mesh/core/src/bearer_event.c.obj
                0x000000000002cce0                bearer_event_init
 .text.bearer_event_timer_post
                0x000000000002cd2c       0x50 CMakeFiles/light_switch_client_nrf52840_xxAA_s140_6.0.0.dir/__/__/__/mesh/core/src/bearer_event.c.obj
                0x000000000002cd2c                bearer_event_timer_post
 .text.bearer_event_critical_section_begin
                0x000000000002cd7c       0x44 CMakeFiles/light_switch_client_nrf52840_xxAA_s140_6.0.0.dir/__/__/__/mesh/core/src/bearer_event.c.obj
                0x000000000002cd7c                bearer_event_critical_section_begin
 .text.bearer_event_critical_section_end
                0x000000000002cdc0       0x40 CMakeFiles/light_switch_client_nrf52840_xxAA_s140_6.0.0.dir/__/__/__/mesh/core/src/bearer_event.c.obj
                0x000000000002cdc0                bearer_event_critical_section_end
 .text.bearer_event_flag_add
                0x000000000002ce00       0x40 CMakeFiles/light_switch_client_nrf52840_xxAA_s140_6.0.0.dir/__/__/__/mesh/core/src/bearer_event.c.obj
                0x000000000002ce00                bearer_event_flag_add
 .text.bearer_event_flag_set
                0x000000000002ce40       0x5c CMakeFiles/light_switch_client_nrf52840_xxAA_s140_6.0.0.dir/__/__/__/mesh/core/src/bearer_event.c.obj
                0x000000000002ce40                bearer_event_flag_set
 .text.bearer_event_sequential_add
                0x000000000002ce9c       0x34 CMakeFiles/light_switch_client_nrf52840_xxAA_s140_6.0.0.dir/__/__/__/mesh/core/src/bearer_event.c.obj
                0x000000000002ce9c                bearer_event_sequential_add
 .text.bearer_event_sequential_post
                0x000000000002ced0       0x64 CMakeFiles/light_switch_client_nrf52840_xxAA_s140_6.0.0.dir/__/__/__/mesh/core/src/bearer_event.c.obj
                0x000000000002ced0                bearer_event_sequential_post
 .text.bearer_event_sequential_pending
                0x000000000002cf34       0x14 CMakeFiles/light_switch_client_nrf52840_xxAA_s140_6.0.0.dir/__/__/__/mesh/core/src/bearer_event.c.obj
                0x000000000002cf34                bearer_event_sequential_pending
 .text.bearer_event_handler
                0x000000000002cf48      0x16c CMakeFiles/light_switch_client_nrf52840_xxAA_s140_6.0.0.dir/__/__/__/mesh/core/src/bearer_event.c.obj
                0x000000000002cf48                bearer_event_handler
 .text.QDEC_IRQHandler
                0x000000000002d0b4        0x4 CMakeFiles/light_switch_client_nrf52840_xxAA_s140_6.0.0.dir/__/__/__/mesh/core/src/bearer_event.c.obj
                0x000000000002d0b4                QDEC_IRQHandler
 .text.enc_aes_encrypt
                0x000000000002d0b8        0x4 CMakeFiles/light_switch_client_nrf52840_xxAA_s140_6.0.0.dir/__/__/__/mesh/core/src/enc.c.obj
                0x000000000002d0b8                enc_aes_encrypt
 .text.enc_aes_cmac
                0x000000000002d0bc        0x4 CMakeFiles/light_switch_client_nrf52840_xxAA_s140_6.0.0.dir/__/__/__/mesh/core/src/enc.c.obj
                0x000000000002d0bc                enc_aes_cmac
 .text.enc_aes_ccm_encrypt
                0x000000000002d0c0        0x4 CMakeFiles/light_switch_client_nrf52840_xxAA_s140_6.0.0.dir/__/__/__/mesh/core/src/enc.c.obj
                0x000000000002d0c0                enc_aes_ccm_encrypt
 .text.enc_aes_ccm_decrypt
                0x000000000002d0c4        0x4 CMakeFiles/light_switch_client_nrf52840_xxAA_s140_6.0.0.dir/__/__/__/mesh/core/src/enc.c.obj
                0x000000000002d0c4                enc_aes_ccm_decrypt
 .text.enc_nonce_generate
                0x000000000002d0c8       0xc8 CMakeFiles/light_switch_client_nrf52840_xxAA_s140_6.0.0.dir/__/__/__/mesh/core/src/enc.c.obj
                0x000000000002d0c8                enc_nonce_generate
 .text.enc_s1   0x000000000002d190       0x30 CMakeFiles/light_switch_client_nrf52840_xxAA_s140_6.0.0.dir/__/__/__/mesh/core/src/enc.c.obj
                0x000000000002d190                enc_s1
 .text.enc_k1   0x000000000002d1c0       0x40 CMakeFiles/light_switch_client_nrf52840_xxAA_s140_6.0.0.dir/__/__/__/mesh/core/src/enc.c.obj
                0x000000000002d1c0                enc_k1
 .text.enc_k2   0x000000000002d200       0xe0 CMakeFiles/light_switch_client_nrf52840_xxAA_s140_6.0.0.dir/__/__/__/mesh/core/src/enc.c.obj
                0x000000000002d200                enc_k2
 .text.enc_k3   0x000000000002d2e0       0x68 CMakeFiles/light_switch_client_nrf52840_xxAA_s140_6.0.0.dir/__/__/__/mesh/core/src/enc.c.obj
                0x000000000002d2e0                enc_k3
 .text.enc_k4   0x000000000002d348       0x60 CMakeFiles/light_switch_client_nrf52840_xxAA_s140_6.0.0.dir/__/__/__/mesh/core/src/enc.c.obj
                0x000000000002d348                enc_k4
 .text.network_init
                0x000000000002d3a8       0x28 CMakeFiles/light_switch_client_nrf52840_xxAA_s140_6.0.0.dir/__/__/__/mesh/core/src/network.c.obj
                0x000000000002d3a8                network_init
 .text.network_opt_set
                0x000000000002d3d0       0x84 CMakeFiles/light_switch_client_nrf52840_xxAA_s140_6.0.0.dir/__/__/__/mesh/core/src/network.c.obj
                0x000000000002d3d0                network_opt_set
 .text.network_opt_get
                0x000000000002d454       0x5c CMakeFiles/light_switch_client_nrf52840_xxAA_s140_6.0.0.dir/__/__/__/mesh/core/src/network.c.obj
                0x000000000002d454                network_opt_get
 .text.network_packet_alloc
                0x000000000002d4b0       0xa0 CMakeFiles/light_switch_client_nrf52840_xxAA_s140_6.0.0.dir/__/__/__/mesh/core/src/network.c.obj
                0x000000000002d4b0                network_packet_alloc
 .text.network_packet_send
                0x000000000002d550       0x58 CMakeFiles/light_switch_client_nrf52840_xxAA_s140_6.0.0.dir/__/__/__/mesh/core/src/network.c.obj
                0x000000000002d550                network_packet_send
 .text.network_packet_in
                0x000000000002d5a8      0x1c8 CMakeFiles/light_switch_client_nrf52840_xxAA_s140_6.0.0.dir/__/__/__/mesh/core/src/network.c.obj
                0x000000000002d5a8                network_packet_in
 .text.net_packet_decrypt
                0x000000000002d770      0x2bc CMakeFiles/light_switch_client_nrf52840_xxAA_s140_6.0.0.dir/__/__/__/mesh/core/src/net_packet.c.obj
                0x000000000002d770                net_packet_decrypt
 .text.net_packet_encrypt
                0x000000000002da2c      0x100 CMakeFiles/light_switch_client_nrf52840_xxAA_s140_6.0.0.dir/__/__/__/mesh/core/src/net_packet.c.obj
                0x000000000002da2c                net_packet_encrypt
 .text.net_packet_header_set
                0x000000000002db2c       0xc0 CMakeFiles/light_switch_client_nrf52840_xxAA_s140_6.0.0.dir/__/__/__/mesh/core/src/net_packet.c.obj
                0x000000000002db2c                net_packet_header_set
 .text.net_packet_payload_len_get
                0x000000000002dbec       0x14 CMakeFiles/light_switch_client_nrf52840_xxAA_s140_6.0.0.dir/__/__/__/mesh/core/src/net_packet.c.obj
                0x000000000002dbec                net_packet_payload_len_get
 .text.net_packet_from_payload
                0x000000000002dc00        0x4 CMakeFiles/light_switch_client_nrf52840_xxAA_s140_6.0.0.dir/__/__/__/mesh/core/src/net_packet.c.obj
                0x000000000002dc00                net_packet_from_payload
 .text.net_packet_obfuscation_start_get
                0x000000000002dc04        0x4 CMakeFiles/light_switch_client_nrf52840_xxAA_s140_6.0.0.dir/__/__/__/mesh/core/src/net_packet.c.obj
                0x000000000002dc04                net_packet_obfuscation_start_get
 .text.msq_init
                0x000000000002dc08       0x6c CMakeFiles/light_switch_client_nrf52840_xxAA_s140_6.0.0.dir/__/__/__/mesh/core/src/msqueue.c.obj
                0x000000000002dc08                msq_init
 .text.msq_get  0x000000000002dc74       0x54 CMakeFiles/light_switch_client_nrf52840_xxAA_s140_6.0.0.dir/__/__/__/mesh/core/src/msqueue.c.obj
                0x000000000002dc74                msq_get
 .text.msq_move
                0x000000000002dcc8       0x4c CMakeFiles/light_switch_client_nrf52840_xxAA_s140_6.0.0.dir/__/__/__/mesh/core/src/msqueue.c.obj
                0x000000000002dcc8                msq_move
 .text.msq_available
                0x000000000002dd14       0x44 CMakeFiles/light_switch_client_nrf52840_xxAA_s140_6.0.0.dir/__/__/__/mesh/core/src/msqueue.c.obj
                0x000000000002dd14                msq_available
 .text.nrf_mesh_keygen_aid
                0x000000000002dd58       0x18 CMakeFiles/light_switch_client_nrf52840_xxAA_s140_6.0.0.dir/__/__/__/mesh/core/src/nrf_mesh_keygen.c.obj
                0x000000000002dd58                nrf_mesh_keygen_aid
 .text.nrf_mesh_keygen_network_secmat
                0x000000000002dd70       0x24 CMakeFiles/light_switch_client_nrf52840_xxAA_s140_6.0.0.dir/__/__/__/mesh/core/src/nrf_mesh_keygen.c.obj
                0x000000000002dd70                nrf_mesh_keygen_network_secmat
 .text.nrf_mesh_keygen_beacon_secmat
                0x000000000002dd94       0x50 CMakeFiles/light_switch_client_nrf52840_xxAA_s140_6.0.0.dir/__/__/__/mesh/core/src/nrf_mesh_keygen.c.obj
                0x000000000002dd94                nrf_mesh_keygen_beacon_secmat
 .text.nrf_mesh_keygen_virtual_address
                0x000000000002dde4       0x50 CMakeFiles/light_switch_client_nrf52840_xxAA_s140_6.0.0.dir/__/__/__/mesh/core/src/nrf_mesh_keygen.c.obj
                0x000000000002dde4                nrf_mesh_keygen_virtual_address
 .text.list_add
                0x000000000002de34       0x64 CMakeFiles/light_switch_client_nrf52840_xxAA_s140_6.0.0.dir/__/__/__/mesh/core/src/list.c.obj
                0x000000000002de34                list_add
 .text.list_remove
                0x000000000002de98       0x44 CMakeFiles/light_switch_client_nrf52840_xxAA_s140_6.0.0.dir/__/__/__/mesh/core/src/list.c.obj
                0x000000000002de98                list_remove
 .text.list_compare_add
                0x000000000002dedc       0x80 CMakeFiles/light_switch_client_nrf52840_xxAA_s140_6.0.0.dir/__/__/__/mesh/core/src/list.c.obj
                0x000000000002dedc                list_compare_add
 .text.log_callback_rtt
                0x000000000002df5c       0x2c CMakeFiles/light_switch_client_nrf52840_xxAA_s140_6.0.0.dir/__/__/__/mesh/core/src/log.c.obj
                0x000000000002df5c                log_callback_rtt
 .text.log_init
                0x000000000002df88       0x20 CMakeFiles/light_switch_client_nrf52840_xxAA_s140_6.0.0.dir/__/__/__/mesh/core/src/log.c.obj
                0x000000000002df88                log_init
 .text.log_printf
                0x000000000002dfa8       0x20 CMakeFiles/light_switch_client_nrf52840_xxAA_s140_6.0.0.dir/__/__/__/mesh/core/src/log.c.obj
                0x000000000002dfa8                log_printf
 .text.process_action_queue
                0x000000000002dfc8      0x794 CMakeFiles/light_switch_client_nrf52840_xxAA_s140_6.0.0.dir/__/__/__/mesh/core/src/flash_manager.c.obj
 .text.flash_op_ended_callback
                0x000000000002e75c       0x24 CMakeFiles/light_switch_client_nrf52840_xxAA_s140_6.0.0.dir/__/__/__/mesh/core/src/flash_manager.c.obj
 .text.flash_manager_init
                0x000000000002e780       0x68 CMakeFiles/light_switch_client_nrf52840_xxAA_s140_6.0.0.dir/__/__/__/mesh/core/src/flash_manager.c.obj
                0x000000000002e780                flash_manager_init
 .text.flash_manager_remove
                0x000000000002e7e8       0x6c CMakeFiles/light_switch_client_nrf52840_xxAA_s140_6.0.0.dir/__/__/__/mesh/core/src/flash_manager.c.obj
                0x000000000002e7e8                flash_manager_remove
 .text.flash_manager_entry_get
                0x000000000002e854       0x48 CMakeFiles/light_switch_client_nrf52840_xxAA_s140_6.0.0.dir/__/__/__/mesh/core/src/flash_manager.c.obj
                0x000000000002e854                flash_manager_entry_get
 .text.flash_manager_entry_next_get
                0x000000000002e89c      0x144 CMakeFiles/light_switch_client_nrf52840_xxAA_s140_6.0.0.dir/__/__/__/mesh/core/src/flash_manager.c.obj
                0x000000000002e89c                flash_manager_entry_next_get
 .text.flash_manager_entry_alloc
                0x000000000002e9e0       0x80 CMakeFiles/light_switch_client_nrf52840_xxAA_s140_6.0.0.dir/__/__/__/mesh/core/src/flash_manager.c.obj
                0x000000000002e9e0                flash_manager_entry_alloc
 .text.flash_manager_entry_commit
                0x000000000002ea60       0x58 CMakeFiles/light_switch_client_nrf52840_xxAA_s140_6.0.0.dir/__/__/__/mesh/core/src/flash_manager.c.obj
                0x000000000002ea60                flash_manager_entry_commit
 .text.flash_manager_entry_invalidate
                0x000000000002eab8       0x98 CMakeFiles/light_switch_client_nrf52840_xxAA_s140_6.0.0.dir/__/__/__/mesh/core/src/flash_manager.c.obj
                0x000000000002eab8                flash_manager_entry_invalidate
 .text.flash_manager_add
                0x000000000002eb50      0x3f4 CMakeFiles/light_switch_client_nrf52840_xxAA_s140_6.0.0.dir/__/__/__/mesh/core/src/flash_manager.c.obj
                0x000000000002eb50                flash_manager_add
 .text.flash_manager_mem_listener_register
                0x000000000002ef44       0x38 CMakeFiles/light_switch_client_nrf52840_xxAA_s140_6.0.0.dir/__/__/__/mesh/core/src/flash_manager.c.obj
                0x000000000002ef44                flash_manager_mem_listener_register
 .text.flash_manager_is_stable
                0x000000000002ef7c       0x20 CMakeFiles/light_switch_client_nrf52840_xxAA_s140_6.0.0.dir/__/__/__/mesh/core/src/flash_manager.c.obj
                0x000000000002ef7c                flash_manager_is_stable
 .text.flash_manager_on_defrag_end
                0x000000000002ef9c       0x58 CMakeFiles/light_switch_client_nrf52840_xxAA_s140_6.0.0.dir/__/__/__/mesh/core/src/flash_manager.c.obj
                0x000000000002ef9c                flash_manager_on_defrag_end
 .text.flash_manager_recovery_page_get
                0x000000000002eff4        0x4 CMakeFiles/light_switch_client_nrf52840_xxAA_s140_6.0.0.dir/__/__/__/mesh/core/src/flash_manager.c.obj
                0x000000000002eff4                flash_manager_recovery_page_get
 .text.flash_manager_action_queue_empty_cb_set
                0x000000000002eff8       0x20 CMakeFiles/light_switch_client_nrf52840_xxAA_s140_6.0.0.dir/__/__/__/mesh/core/src/flash_manager.c.obj
                0x000000000002eff8                flash_manager_action_queue_empty_cb_set
 .text.ccm_soft_crypt.constprop.0
                0x000000000002f018      0x274 CMakeFiles/light_switch_client_nrf52840_xxAA_s140_6.0.0.dir/__/__/__/mesh/core/src/ccm_soft.c.obj
 .text.ccm_soft_authenticate
                0x000000000002f28c      0x308 CMakeFiles/light_switch_client_nrf52840_xxAA_s140_6.0.0.dir/__/__/__/mesh/core/src/ccm_soft.c.obj
 .text.ccm_soft_encrypt
                0x000000000002f594       0x7c CMakeFiles/light_switch_client_nrf52840_xxAA_s140_6.0.0.dir/__/__/__/mesh/core/src/ccm_soft.c.obj
                0x000000000002f594                ccm_soft_encrypt
 .text.ccm_soft_decrypt
                0x000000000002f610      0x114 CMakeFiles/light_switch_client_nrf52840_xxAA_s140_6.0.0.dir/__/__/__/mesh/core/src/ccm_soft.c.obj
                0x000000000002f610                ccm_soft_decrypt
 .text.replay_cache_init
                0x000000000002f724       0x20 CMakeFiles/light_switch_client_nrf52840_xxAA_s140_6.0.0.dir/__/__/__/mesh/core/src/replay_cache.c.obj
                0x000000000002f724                replay_cache_init
 .text.replay_cache_add
                0x000000000002f744       0x60 CMakeFiles/light_switch_client_nrf52840_xxAA_s140_6.0.0.dir/__/__/__/mesh/core/src/replay_cache.c.obj
                0x000000000002f744                replay_cache_add
 .text.replay_cache_has_elem
                0x000000000002f7a4       0x40 CMakeFiles/light_switch_client_nrf52840_xxAA_s140_6.0.0.dir/__/__/__/mesh/core/src/replay_cache.c.obj
                0x000000000002f7a4                replay_cache_has_elem
 .text.beacon_create
                0x000000000002f7e4       0x50 CMakeFiles/light_switch_client_nrf52840_xxAA_s140_6.0.0.dir/__/__/__/mesh/core/src/beacon.c.obj
                0x000000000002f7e4                beacon_create
 .text.beacon_packet_in
                0x000000000002f834      0x178 CMakeFiles/light_switch_client_nrf52840_xxAA_s140_6.0.0.dir/__/__/__/mesh/core/src/beacon.c.obj
                0x000000000002f834                beacon_packet_in
 .text.entry_get
                0x000000000002f9ac       0x7c CMakeFiles/light_switch_client_nrf52840_xxAA_s140_6.0.0.dir/__/__/__/mesh/core/src/flash_manager_internal.c.obj
                0x000000000002f9ac                entry_get
 .text.core_tx_complete_cb_set
                0x000000000002fa28        0xc CMakeFiles/light_switch_client_nrf52840_xxAA_s140_6.0.0.dir/__/__/__/mesh/core/src/core_tx.c.obj
                0x000000000002fa28                core_tx_complete_cb_set
 .text.core_tx_packet_alloc
                0x000000000002fa34       0xc0 CMakeFiles/light_switch_client_nrf52840_xxAA_s140_6.0.0.dir/__/__/__/mesh/core/src/core_tx.c.obj
                0x000000000002fa34                core_tx_packet_alloc
 .text.core_tx_packet_send
                0x000000000002faf4       0x5c CMakeFiles/light_switch_client_nrf52840_xxAA_s140_6.0.0.dir/__/__/__/mesh/core/src/core_tx.c.obj
                0x000000000002faf4                core_tx_packet_send
 .text.core_tx_packet_discard
                0x000000000002fb50       0x54 CMakeFiles/light_switch_client_nrf52840_xxAA_s140_6.0.0.dir/__/__/__/mesh/core/src/core_tx.c.obj
                0x000000000002fb50                core_tx_packet_discard
 .text.core_tx_complete
                0x000000000002fba4       0x38 CMakeFiles/light_switch_client_nrf52840_xxAA_s140_6.0.0.dir/__/__/__/mesh/core/src/core_tx.c.obj
                0x000000000002fba4                core_tx_complete
 .text.core_tx_bearer_add
                0x000000000002fbdc       0x90 CMakeFiles/light_switch_client_nrf52840_xxAA_s140_6.0.0.dir/__/__/__/mesh/core/src/core_tx.c.obj
                0x000000000002fbdc                core_tx_bearer_add
 .text.heartbeat_subscription_timer_cb
                0x000000000002fc6c       0x1c CMakeFiles/light_switch_client_nrf52840_xxAA_s140_6.0.0.dir/__/__/__/mesh/core/src/heartbeat.c.obj
 .text.heartbeat_opcode_handle
                0x000000000002fc88       0x8c CMakeFiles/light_switch_client_nrf52840_xxAA_s140_6.0.0.dir/__/__/__/mesh/core/src/heartbeat.c.obj
 .text.heartbeat_send
                0x000000000002fd14       0xbc CMakeFiles/light_switch_client_nrf52840_xxAA_s140_6.0.0.dir/__/__/__/mesh/core/src/heartbeat.c.obj
 .text.heartbeat_core_evt_cb
                0x000000000002fdd0       0x94 CMakeFiles/light_switch_client_nrf52840_xxAA_s140_6.0.0.dir/__/__/__/mesh/core/src/heartbeat.c.obj
 .text.heartbeat_publication_timer_cb
                0x000000000002fe64       0xb0 CMakeFiles/light_switch_client_nrf52840_xxAA_s140_6.0.0.dir/__/__/__/mesh/core/src/heartbeat.c.obj
 .text.heartbeat_on_feature_change_trigger
                0x000000000002ff14       0x48 CMakeFiles/light_switch_client_nrf52840_xxAA_s140_6.0.0.dir/__/__/__/mesh/core/src/heartbeat.c.obj
                0x000000000002ff14                heartbeat_on_feature_change_trigger
 .text.heartbeat_init
                0x000000000002ff5c       0x7c CMakeFiles/light_switch_client_nrf52840_xxAA_s140_6.0.0.dir/__/__/__/mesh/core/src/heartbeat.c.obj
                0x000000000002ff5c                heartbeat_init
 .text.heartbeat_subscription_set
                0x000000000002ffd8       0xa4 CMakeFiles/light_switch_client_nrf52840_xxAA_s140_6.0.0.dir/__/__/__/mesh/core/src/heartbeat.c.obj
                0x000000000002ffd8                heartbeat_subscription_set
 .text.heartbeat_subscription_get
                0x000000000003007c        0x8 CMakeFiles/light_switch_client_nrf52840_xxAA_s140_6.0.0.dir/__/__/__/mesh/core/src/heartbeat.c.obj
                0x000000000003007c                heartbeat_subscription_get
 .text.heartbeat_config_server_cb_set
                0x0000000000030084       0x30 CMakeFiles/light_switch_client_nrf52840_xxAA_s140_6.0.0.dir/__/__/__/mesh/core/src/heartbeat.c.obj
                0x0000000000030084                heartbeat_config_server_cb_set
 .text.heartbeat_publication_state_updated
                0x00000000000300b4       0x78 CMakeFiles/light_switch_client_nrf52840_xxAA_s140_6.0.0.dir/__/__/__/mesh/core/src/heartbeat.c.obj
                0x00000000000300b4                heartbeat_publication_state_updated
 .text.beacon_tx
                0x000000000003012c      0x194 CMakeFiles/light_switch_client_nrf52840_xxAA_s140_6.0.0.dir/__/__/__/mesh/core/src/net_beacon.c.obj
 .text.tx_complete_cb
                0x00000000000302c0       0x10 CMakeFiles/light_switch_client_nrf52840_xxAA_s140_6.0.0.dir/__/__/__/mesh/core/src/net_beacon.c.obj
 .text.beacon_tx_timeout
                0x00000000000302d0        0x4 CMakeFiles/light_switch_client_nrf52840_xxAA_s140_6.0.0.dir/__/__/__/mesh/core/src/net_beacon.c.obj
 .text.net_beacon_init
                0x00000000000302d4       0x94 CMakeFiles/light_switch_client_nrf52840_xxAA_s140_6.0.0.dir/__/__/__/mesh/core/src/net_beacon.c.obj
                0x00000000000302d4                net_beacon_init
 .text.net_beacon_state_set
                0x0000000000030368       0x3c CMakeFiles/light_switch_client_nrf52840_xxAA_s140_6.0.0.dir/__/__/__/mesh/core/src/net_beacon.c.obj
                0x0000000000030368                net_beacon_state_set
 .text.net_beacon_state_get
                0x00000000000303a4        0xc CMakeFiles/light_switch_client_nrf52840_xxAA_s140_6.0.0.dir/__/__/__/mesh/core/src/net_beacon.c.obj
                0x00000000000303a4                net_beacon_state_get
 .text.net_beacon_packet_in
                0x00000000000303b0      0x134 CMakeFiles/light_switch_client_nrf52840_xxAA_s140_6.0.0.dir/__/__/__/mesh/core/src/net_beacon.c.obj
                0x00000000000303b0                net_beacon_packet_in
 .text.packet_discard
                0x00000000000304e4       0x40 CMakeFiles/light_switch_client_nrf52840_xxAA_s140_6.0.0.dir/__/__/__/mesh/core/src/core_tx_adv.c.obj
 .text.packet_send
                0x0000000000030524       0x58 CMakeFiles/light_switch_client_nrf52840_xxAA_s140_6.0.0.dir/__/__/__/mesh/core/src/core_tx_adv.c.obj
 .text.packet_alloc
                0x000000000003057c       0x5c CMakeFiles/light_switch_client_nrf52840_xxAA_s140_6.0.0.dir/__/__/__/mesh/core/src/core_tx_adv.c.obj
 .text.adv_tx_complete_callback
                0x00000000000305d8       0x28 CMakeFiles/light_switch_client_nrf52840_xxAA_s140_6.0.0.dir/__/__/__/mesh/core/src/core_tx_adv.c.obj
 .text.core_tx_adv_init
                0x0000000000030600       0x60 CMakeFiles/light_switch_client_nrf52840_xxAA_s140_6.0.0.dir/__/__/__/mesh/core/src/core_tx_adv.c.obj
                0x0000000000030600                core_tx_adv_init
 .text.core_tx_adv_count_set
                0x0000000000030660       0x2c CMakeFiles/light_switch_client_nrf52840_xxAA_s140_6.0.0.dir/__/__/__/mesh/core/src/core_tx_adv.c.obj
                0x0000000000030660                core_tx_adv_count_set
 .text.core_tx_adv_count_get
                0x000000000003068c       0x20 CMakeFiles/light_switch_client_nrf52840_xxAA_s140_6.0.0.dir/__/__/__/mesh/core/src/core_tx_adv.c.obj
                0x000000000003068c                core_tx_adv_count_get
 .text.core_tx_adv_interval_set
                0x00000000000306ac       0x28 CMakeFiles/light_switch_client_nrf52840_xxAA_s140_6.0.0.dir/__/__/__/mesh/core/src/core_tx_adv.c.obj
                0x00000000000306ac                core_tx_adv_interval_set
 .text.core_tx_adv_interval_get
                0x00000000000306d4       0x2c CMakeFiles/light_switch_client_nrf52840_xxAA_s140_6.0.0.dir/__/__/__/mesh/core/src/core_tx_adv.c.obj
                0x00000000000306d4                core_tx_adv_interval_get
 .text.ad_listener_subscribe
                0x0000000000030700       0x60 CMakeFiles/light_switch_client_nrf52840_xxAA_s140_6.0.0.dir/__/__/__/mesh/bearer/src/ad_listener.c.obj
                0x0000000000030700                ad_listener_subscribe
 .text.ad_listener_process
                0x0000000000030760       0x84 CMakeFiles/light_switch_client_nrf52840_xxAA_s140_6.0.0.dir/__/__/__/mesh/bearer/src/ad_listener.c.obj
                0x0000000000030760                ad_listener_process
 .text.adtype_filter_handle
                0x00000000000307e4       0x94 CMakeFiles/light_switch_client_nrf52840_xxAA_s140_6.0.0.dir/__/__/__/mesh/bearer/src/ad_type_filter.c.obj
 .text.bearer_adtype_filtering_set
                0x0000000000030878       0x1c CMakeFiles/light_switch_client_nrf52840_xxAA_s140_6.0.0.dir/__/__/__/mesh/bearer/src/ad_type_filter.c.obj
                0x0000000000030878                bearer_adtype_filtering_set
 .text.bearer_adtype_add
                0x0000000000030894       0x24 CMakeFiles/light_switch_client_nrf52840_xxAA_s140_6.0.0.dir/__/__/__/mesh/bearer/src/ad_type_filter.c.obj
                0x0000000000030894                bearer_adtype_add
 .text.bearer_adtype_mode_set
                0x00000000000308b8       0x18 CMakeFiles/light_switch_client_nrf52840_xxAA_s140_6.0.0.dir/__/__/__/mesh/bearer/src/ad_type_filter.c.obj
                0x00000000000308b8                bearer_adtype_mode_set
 .text.tx_complete_event_callback
                0x00000000000308d0       0x34 CMakeFiles/light_switch_client_nrf52840_xxAA_s140_6.0.0.dir/__/__/__/mesh/bearer/src/advertiser.c.obj
 .text.broadcast_complete_cb
                0x0000000000030904       0x48 CMakeFiles/light_switch_client_nrf52840_xxAA_s140_6.0.0.dir/__/__/__/mesh/bearer/src/advertiser.c.obj
 .text.timeout_event
                0x000000000003094c      0x12c CMakeFiles/light_switch_client_nrf52840_xxAA_s140_6.0.0.dir/__/__/__/mesh/bearer/src/advertiser.c.obj
 .text.advertiser_init
                0x0000000000030a78        0xc CMakeFiles/light_switch_client_nrf52840_xxAA_s140_6.0.0.dir/__/__/__/mesh/bearer/src/advertiser.c.obj
                0x0000000000030a78                advertiser_init
 .text.advertiser_instance_init
                0x0000000000030a84      0x100 CMakeFiles/light_switch_client_nrf52840_xxAA_s140_6.0.0.dir/__/__/__/mesh/bearer/src/advertiser.c.obj
                0x0000000000030a84                advertiser_instance_init
 .text.advertiser_enable
                0x0000000000030b84       0x44 CMakeFiles/light_switch_client_nrf52840_xxAA_s140_6.0.0.dir/__/__/__/mesh/bearer/src/advertiser.c.obj
                0x0000000000030b84                advertiser_enable
 .text.advertiser_packet_alloc
                0x0000000000030bc8       0x80 CMakeFiles/light_switch_client_nrf52840_xxAA_s140_6.0.0.dir/__/__/__/mesh/bearer/src/advertiser.c.obj
                0x0000000000030bc8                advertiser_packet_alloc
 .text.advertiser_packet_send
                0x0000000000030c48       0x84 CMakeFiles/light_switch_client_nrf52840_xxAA_s140_6.0.0.dir/__/__/__/mesh/bearer/src/advertiser.c.obj
                0x0000000000030c48                advertiser_packet_send
 .text.advertiser_packet_discard
                0x0000000000030ccc       0x2c CMakeFiles/light_switch_client_nrf52840_xxAA_s140_6.0.0.dir/__/__/__/mesh/bearer/src/advertiser.c.obj
                0x0000000000030ccc                advertiser_packet_discard
 .text.advertiser_interval_set
                0x0000000000030cf8       0x6c CMakeFiles/light_switch_client_nrf52840_xxAA_s140_6.0.0.dir/__/__/__/mesh/bearer/src/advertiser.c.obj
                0x0000000000030cf8                advertiser_interval_set
 .text.advertiser_flush
                0x0000000000030d64       0x20 CMakeFiles/light_switch_client_nrf52840_xxAA_s140_6.0.0.dir/__/__/__/mesh/bearer/src/advertiser.c.obj
                0x0000000000030d64                advertiser_flush
 .text.action_switch.part.2
                0x0000000000030d84       0xb4 CMakeFiles/light_switch_client_nrf52840_xxAA_s140_6.0.0.dir/__/__/__/mesh/bearer/src/bearer_handler.c.obj
 .text.bearer_handler_init
                0x0000000000030e38       0x2c CMakeFiles/light_switch_client_nrf52840_xxAA_s140_6.0.0.dir/__/__/__/mesh/bearer/src/bearer_handler.c.obj
                0x0000000000030e38                bearer_handler_init
 .text.bearer_handler_start
                0x0000000000030e64       0x1c CMakeFiles/light_switch_client_nrf52840_xxAA_s140_6.0.0.dir/__/__/__/mesh/bearer/src/bearer_handler.c.obj
                0x0000000000030e64                bearer_handler_start
 .text.bearer_handler_action_enqueue
                0x0000000000030e80       0x88 CMakeFiles/light_switch_client_nrf52840_xxAA_s140_6.0.0.dir/__/__/__/mesh/bearer/src/bearer_handler.c.obj
                0x0000000000030e80                bearer_handler_action_enqueue
 .text.bearer_handler_action_end
                0x0000000000030f08       0x68 CMakeFiles/light_switch_client_nrf52840_xxAA_s140_6.0.0.dir/__/__/__/mesh/bearer/src/bearer_handler.c.obj
                0x0000000000030f08                bearer_handler_action_end
 .text.bearer_handler_radio_irq_handler
                0x0000000000030f70       0x58 CMakeFiles/light_switch_client_nrf52840_xxAA_s140_6.0.0.dir/__/__/__/mesh/bearer/src/bearer_handler.c.obj
                0x0000000000030f70                bearer_handler_radio_irq_handler
 .text.bearer_handler_timer_irq_handler
                0x0000000000030fc8       0x34 CMakeFiles/light_switch_client_nrf52840_xxAA_s140_6.0.0.dir/__/__/__/mesh/bearer/src/bearer_handler.c.obj
                0x0000000000030fc8                bearer_handler_timer_irq_handler
 .text.bearer_handler_on_ts_begin
                0x0000000000030ffc       0x3c CMakeFiles/light_switch_client_nrf52840_xxAA_s140_6.0.0.dir/__/__/__/mesh/bearer/src/bearer_handler.c.obj
                0x0000000000030ffc                bearer_handler_on_ts_begin
 .text.bearer_handler_on_ts_end
                0x0000000000031038       0x38 CMakeFiles/light_switch_client_nrf52840_xxAA_s140_6.0.0.dir/__/__/__/mesh/bearer/src/bearer_handler.c.obj
                0x0000000000031038                bearer_handler_on_ts_end
 .text.radio_irq_handler
                0x0000000000031070       0x98 CMakeFiles/light_switch_client_nrf52840_xxAA_s140_6.0.0.dir/__/__/__/mesh/bearer/src/broadcast.c.obj
 .text.broadcast_start
                0x0000000000031108       0x8c CMakeFiles/light_switch_client_nrf52840_xxAA_s140_6.0.0.dir/__/__/__/mesh/bearer/src/broadcast.c.obj
 .text.broadcast_send
                0x0000000000031194       0x74 CMakeFiles/light_switch_client_nrf52840_xxAA_s140_6.0.0.dir/__/__/__/mesh/bearer/src/broadcast.c.obj
                0x0000000000031194                broadcast_send
 .text.fen_filter_start
                0x0000000000031208       0x38 CMakeFiles/light_switch_client_nrf52840_xxAA_s140_6.0.0.dir/__/__/__/mesh/bearer/src/filter_engine.c.obj
                0x0000000000031208                fen_filter_start
 .text.fen_filter_stop
                0x0000000000031240       0x2c CMakeFiles/light_switch_client_nrf52840_xxAA_s140_6.0.0.dir/__/__/__/mesh/bearer/src/filter_engine.c.obj
                0x0000000000031240                fen_filter_stop
 .text.fen_filters_apply
                0x000000000003126c       0x34 CMakeFiles/light_switch_client_nrf52840_xxAA_s140_6.0.0.dir/__/__/__/mesh/bearer/src/filter_engine.c.obj
                0x000000000003126c                fen_filters_apply
 .text.radio_config_reset
                0x00000000000312a0       0x38 CMakeFiles/light_switch_client_nrf52840_xxAA_s140_6.0.0.dir/__/__/__/mesh/bearer/src/radio_config.c.obj
                0x00000000000312a0                radio_config_reset
 .text.radio_config_channel_set
                0x00000000000312d8       0x28 CMakeFiles/light_switch_client_nrf52840_xxAA_s140_6.0.0.dir/__/__/__/mesh/bearer/src/radio_config.c.obj
                0x00000000000312d8                radio_config_channel_set
 .text.radio_config_config
                0x0000000000031300       0x94 CMakeFiles/light_switch_client_nrf52840_xxAA_s140_6.0.0.dir/__/__/__/mesh/bearer/src/radio_config.c.obj
                0x0000000000031300                radio_config_config
 .text.radio_config_access_addr_set
                0x0000000000031394       0x58 CMakeFiles/light_switch_client_nrf52840_xxAA_s140_6.0.0.dir/__/__/__/mesh/bearer/src/radio_config.c.obj
                0x0000000000031394                radio_config_access_addr_set
 .text.scan_window_end
                0x00000000000313ec       0x28 CMakeFiles/light_switch_client_nrf52840_xxAA_s140_6.0.0.dir/__/__/__/mesh/bearer/src/scanner.c.obj
 .text.scan_window_start
                0x0000000000031414       0x38 CMakeFiles/light_switch_client_nrf52840_xxAA_s140_6.0.0.dir/__/__/__/mesh/bearer/src/scanner.c.obj
 .text.radio_start
                0x000000000003144c      0x1a8 CMakeFiles/light_switch_client_nrf52840_xxAA_s140_6.0.0.dir/__/__/__/mesh/bearer/src/scanner.c.obj
 .text.scanner_radio_start
                0x00000000000315f4      0x14c CMakeFiles/light_switch_client_nrf52840_xxAA_s140_6.0.0.dir/__/__/__/mesh/bearer/src/scanner.c.obj
                0x00000000000315f4                scanner_radio_start
 .text.scanner_radio_stop
                0x0000000000031740       0x34 CMakeFiles/light_switch_client_nrf52840_xxAA_s140_6.0.0.dir/__/__/__/mesh/bearer/src/scanner.c.obj
                0x0000000000031740                scanner_radio_stop
 .text.scanner_radio_irq_handler
                0x0000000000031774      0x200 CMakeFiles/light_switch_client_nrf52840_xxAA_s140_6.0.0.dir/__/__/__/mesh/bearer/src/scanner.c.obj
                0x0000000000031774                scanner_radio_irq_handler
 .text.scanner_enable
                0x0000000000031974       0x50 CMakeFiles/light_switch_client_nrf52840_xxAA_s140_6.0.0.dir/__/__/__/mesh/bearer/src/scanner.c.obj
                0x0000000000031974                scanner_enable
 .text.scanner_rx
                0x00000000000319c4       0x8c CMakeFiles/light_switch_client_nrf52840_xxAA_s140_6.0.0.dir/__/__/__/mesh/bearer/src/scanner.c.obj
                0x00000000000319c4                scanner_rx
 .text.scanner_packet_release
                0x0000000000031a50       0x40 CMakeFiles/light_switch_client_nrf52840_xxAA_s140_6.0.0.dir/__/__/__/mesh/bearer/src/scanner.c.obj
                0x0000000000031a50                scanner_packet_release
 .text.scanner_rx_pending
                0x0000000000031a90        0xc CMakeFiles/light_switch_client_nrf52840_xxAA_s140_6.0.0.dir/__/__/__/mesh/bearer/src/scanner.c.obj
                0x0000000000031a90                scanner_rx_pending
 .text.scanner_config_reset
                0x0000000000031a9c       0xa4 CMakeFiles/light_switch_client_nrf52840_xxAA_s140_6.0.0.dir/__/__/__/mesh/bearer/src/scanner.c.obj
                0x0000000000031a9c                scanner_config_reset
 .text.scanner_init
                0x0000000000031b40       0x54 CMakeFiles/light_switch_client_nrf52840_xxAA_s140_6.0.0.dir/__/__/__/mesh/bearer/src/scanner.c.obj
                0x0000000000031b40                scanner_init
 .text.handle_publish_timeout
                0x0000000000031b94        0x8 CMakeFiles/light_switch_client_nrf52840_xxAA_s140_6.0.0.dir/__/__/__/models/simple_on_off/src/simple_on_off_client.c.obj
 .text.reliable_status_cb
                0x0000000000031b9c       0x7c CMakeFiles/light_switch_client_nrf52840_xxAA_s140_6.0.0.dir/__/__/__/models/simple_on_off/src/simple_on_off_client.c.obj
 .text.handle_status_cb
                0x0000000000031c18       0x58 CMakeFiles/light_switch_client_nrf52840_xxAA_s140_6.0.0.dir/__/__/__/models/simple_on_off/src/simple_on_off_client.c.obj
 .text.simple_on_off_client_init
                0x0000000000031c70       0x40 CMakeFiles/light_switch_client_nrf52840_xxAA_s140_6.0.0.dir/__/__/__/models/simple_on_off/src/simple_on_off_client.c.obj
                0x0000000000031c70                simple_on_off_client_init
 .text.simple_on_off_client_set
                0x0000000000031cb0       0x74 CMakeFiles/light_switch_client_nrf52840_xxAA_s140_6.0.0.dir/__/__/__/models/simple_on_off/src/simple_on_off_client.c.obj
                0x0000000000031cb0                simple_on_off_client_set
 .text.simple_on_off_client_set_unreliable
                0x0000000000031d24       0x5c CMakeFiles/light_switch_client_nrf52840_xxAA_s140_6.0.0.dir/__/__/__/models/simple_on_off/src/simple_on_off_client.c.obj
                0x0000000000031d24                simple_on_off_client_set_unreliable
 .text.config_composition_data_get
                0x0000000000031d80      0x1dc CMakeFiles/light_switch_client_nrf52840_xxAA_s140_6.0.0.dir/__/__/__/models/config/src/composition_data.c.obj
                0x0000000000031d80                config_composition_data_get
 .text.config_server_heartbeat_publication_count_decrement
                0x0000000000031f5c       0x1c CMakeFiles/light_switch_client_nrf52840_xxAA_s140_6.0.0.dir/__/__/__/models/config/src/config_server.c.obj
 .text.config_server_heartbeat_publication_params_get
                0x0000000000031f78       0x38 CMakeFiles/light_switch_client_nrf52840_xxAA_s140_6.0.0.dir/__/__/__/models/config/src/config_server.c.obj
 .text.handle_config_network_transmit_set
                0x0000000000031fb0      0x118 CMakeFiles/light_switch_client_nrf52840_xxAA_s140_6.0.0.dir/__/__/__/models/config/src/config_server.c.obj
 .text.handle_node_reset
                0x00000000000320c8       0x30 CMakeFiles/light_switch_client_nrf52840_xxAA_s140_6.0.0.dir/__/__/__/models/config/src/config_server.c.obj
 .text.handle_config_relay_set
                0x00000000000320f8      0x1a8 CMakeFiles/light_switch_client_nrf52840_xxAA_s140_6.0.0.dir/__/__/__/models/config/src/config_server.c.obj
 .text.handle_netkey_get
                0x00000000000322a0       0x70 CMakeFiles/light_switch_client_nrf52840_xxAA_s140_6.0.0.dir/__/__/__/models/config/src/config_server.c.obj
 .text.handle_model_app_bind_unbind
                0x0000000000032310      0x234 CMakeFiles/light_switch_client_nrf52840_xxAA_s140_6.0.0.dir/__/__/__/models/config/src/config_server.c.obj
 .text.status_error_sub_send
                0x0000000000032544      0x180 CMakeFiles/light_switch_client_nrf52840_xxAA_s140_6.0.0.dir/__/__/__/models/config/src/config_server.c.obj
 .text.send_publication_status
                0x00000000000326c4      0x1a8 CMakeFiles/light_switch_client_nrf52840_xxAA_s140_6.0.0.dir/__/__/__/models/config/src/config_server.c.obj
 .text.handle_config_key_refresh_phase_set
                0x000000000003286c       0xf0 CMakeFiles/light_switch_client_nrf52840_xxAA_s140_6.0.0.dir/__/__/__/models/config/src/config_server.c.obj
 .text.handle_config_default_ttl_set
                0x000000000003295c       0x70 CMakeFiles/light_switch_client_nrf52840_xxAA_s140_6.0.0.dir/__/__/__/models/config/src/config_server.c.obj
 .text.handle_heartbeat_publication_set
                0x00000000000329cc      0x168 CMakeFiles/light_switch_client_nrf52840_xxAA_s140_6.0.0.dir/__/__/__/models/config/src/config_server.c.obj
 .text.mesh_event_cb
                0x0000000000032b34       0x70 CMakeFiles/light_switch_client_nrf52840_xxAA_s140_6.0.0.dir/__/__/__/models/config/src/config_server.c.obj
 .text.handle_node_identity_set
                0x0000000000032ba4       0x48 CMakeFiles/light_switch_client_nrf52840_xxAA_s140_6.0.0.dir/__/__/__/models/config/src/config_server.c.obj
 .text.handle_node_identity_get
                0x0000000000032bec       0x44 CMakeFiles/light_switch_client_nrf52840_xxAA_s140_6.0.0.dir/__/__/__/models/config/src/config_server.c.obj
 .text.handle_config_gatt_proxy_set
                0x0000000000032c30       0x40 CMakeFiles/light_switch_client_nrf52840_xxAA_s140_6.0.0.dir/__/__/__/models/config/src/config_server.c.obj
 .text.handle_config_friend_set
                0x0000000000032c70       0x40 CMakeFiles/light_switch_client_nrf52840_xxAA_s140_6.0.0.dir/__/__/__/models/config/src/config_server.c.obj
 .text.status_error_pub_send
                0x0000000000032cb0       0xc8 CMakeFiles/light_switch_client_nrf52840_xxAA_s140_6.0.0.dir/__/__/__/models/config/src/config_server.c.obj
 .text.handle_config_key_refresh_phase_get
                0x0000000000032d78       0x70 CMakeFiles/light_switch_client_nrf52840_xxAA_s140_6.0.0.dir/__/__/__/models/config/src/config_server.c.obj
 .text.handle_config_default_ttl_get
                0x0000000000032de8       0x48 CMakeFiles/light_switch_client_nrf52840_xxAA_s140_6.0.0.dir/__/__/__/models/config/src/config_server.c.obj
 .text.handle_config_beacon_set
                0x0000000000032e30       0x80 CMakeFiles/light_switch_client_nrf52840_xxAA_s140_6.0.0.dir/__/__/__/models/config/src/config_server.c.obj
 .text.handle_composition_data_get
                0x0000000000032eb0       0x64 CMakeFiles/light_switch_client_nrf52840_xxAA_s140_6.0.0.dir/__/__/__/models/config/src/config_server.c.obj
 .text.handle_appkey_update
                0x0000000000032f14      0x108 CMakeFiles/light_switch_client_nrf52840_xxAA_s140_6.0.0.dir/__/__/__/models/config/src/config_server.c.obj
 .text.handle_model_app_get
                0x000000000003301c      0x22c CMakeFiles/light_switch_client_nrf52840_xxAA_s140_6.0.0.dir/__/__/__/models/config/src/config_server.c.obj
 .text.handle_appkey_get
                0x0000000000033248      0x104 CMakeFiles/light_switch_client_nrf52840_xxAA_s140_6.0.0.dir/__/__/__/models/config/src/config_server.c.obj
 .text.handle_heartbeat_subscription_get
                0x000000000003334c       0xdc CMakeFiles/light_switch_client_nrf52840_xxAA_s140_6.0.0.dir/__/__/__/models/config/src/config_server.c.obj
 .text.handle_config_friend_get
                0x0000000000033428       0x38 CMakeFiles/light_switch_client_nrf52840_xxAA_s140_6.0.0.dir/__/__/__/models/config/src/config_server.c.obj
 .text.handle_config_gatt_proxy_get
                0x0000000000033460       0x38 CMakeFiles/light_switch_client_nrf52840_xxAA_s140_6.0.0.dir/__/__/__/models/config/src/config_server.c.obj
 .text.handle_heartbeat_subscription_set
                0x0000000000033498      0x114 CMakeFiles/light_switch_client_nrf52840_xxAA_s140_6.0.0.dir/__/__/__/models/config/src/config_server.c.obj
 .text.handle_heartbeat_publication_get
                0x00000000000335ac       0xcc CMakeFiles/light_switch_client_nrf52840_xxAA_s140_6.0.0.dir/__/__/__/models/config/src/config_server.c.obj
 .text.handle_config_beacon_get
                0x0000000000033678       0x40 CMakeFiles/light_switch_client_nrf52840_xxAA_s140_6.0.0.dir/__/__/__/models/config/src/config_server.c.obj
 .text.handle_appkey_delete
                0x00000000000336b8      0x11c CMakeFiles/light_switch_client_nrf52840_xxAA_s140_6.0.0.dir/__/__/__/models/config/src/config_server.c.obj
 .text.handle_appkey_add
                0x00000000000337d4      0x124 CMakeFiles/light_switch_client_nrf52840_xxAA_s140_6.0.0.dir/__/__/__/models/config/src/config_server.c.obj
 .text.handle_config_vendor_model_subscription_get
                0x00000000000338f8      0x18c CMakeFiles/light_switch_client_nrf52840_xxAA_s140_6.0.0.dir/__/__/__/models/config/src/config_server.c.obj
 .text.handle_netkey_add_update
                0x0000000000033a84       0xec CMakeFiles/light_switch_client_nrf52840_xxAA_s140_6.0.0.dir/__/__/__/models/config/src/config_server.c.obj
 .text.handle_netkey_delete
                0x0000000000033b70      0x118 CMakeFiles/light_switch_client_nrf52840_xxAA_s140_6.0.0.dir/__/__/__/models/config/src/config_server.c.obj
 .text.handle_config_network_transmit_get
                0x0000000000033c88       0x94 CMakeFiles/light_switch_client_nrf52840_xxAA_s140_6.0.0.dir/__/__/__/models/config/src/config_server.c.obj
 .text.handle_config_model_publication_get
                0x0000000000033d1c      0x150 CMakeFiles/light_switch_client_nrf52840_xxAA_s140_6.0.0.dir/__/__/__/models/config/src/config_server.c.obj
 .text.handle_config_relay_get
                0x0000000000033e6c       0xcc CMakeFiles/light_switch_client_nrf52840_xxAA_s140_6.0.0.dir/__/__/__/models/config/src/config_server.c.obj
 .text.handle_config_model_publication_set
                0x0000000000033f38      0x3d4 CMakeFiles/light_switch_client_nrf52840_xxAA_s140_6.0.0.dir/__/__/__/models/config/src/config_server.c.obj
 .text.handle_config_model_subscription_delete_all
                0x000000000003430c      0x2fc CMakeFiles/light_switch_client_nrf52840_xxAA_s140_6.0.0.dir/__/__/__/models/config/src/config_server.c.obj
 .text.handle_config_model_subscription_virtual_address_delete
                0x0000000000034608      0x2f0 CMakeFiles/light_switch_client_nrf52840_xxAA_s140_6.0.0.dir/__/__/__/models/config/src/config_server.c.obj
 .text.handle_config_model_subscription_virtual_address_add
                0x00000000000348f8      0x2cc CMakeFiles/light_switch_client_nrf52840_xxAA_s140_6.0.0.dir/__/__/__/models/config/src/config_server.c.obj
 .text.handle_config_model_subscription_delete
                0x0000000000034bc4      0x2e4 CMakeFiles/light_switch_client_nrf52840_xxAA_s140_6.0.0.dir/__/__/__/models/config/src/config_server.c.obj
 .text.handle_config_model_subscription_add
                0x0000000000034ea8      0x2e4 CMakeFiles/light_switch_client_nrf52840_xxAA_s140_6.0.0.dir/__/__/__/models/config/src/config_server.c.obj
 .text.handle_config_model_subscription_virtual_address_overwrite
                0x000000000003518c      0x374 CMakeFiles/light_switch_client_nrf52840_xxAA_s140_6.0.0.dir/__/__/__/models/config/src/config_server.c.obj
 .text.handle_config_model_subscription_overwrite
                0x0000000000035500      0x370 CMakeFiles/light_switch_client_nrf52840_xxAA_s140_6.0.0.dir/__/__/__/models/config/src/config_server.c.obj
 .text.handle_config_sig_model_subscription_get
                0x0000000000035870      0x2a4 CMakeFiles/light_switch_client_nrf52840_xxAA_s140_6.0.0.dir/__/__/__/models/config/src/config_server.c.obj
 .text.config_server_init
                0x0000000000035b14       0x70 CMakeFiles/light_switch_client_nrf52840_xxAA_s140_6.0.0.dir/__/__/__/models/config/src/config_server.c.obj
                0x0000000000035b14                config_server_init
 .text.config_server_bind
                0x0000000000035b84       0x10 CMakeFiles/light_switch_client_nrf52840_xxAA_s140_6.0.0.dir/__/__/__/models/config/src/config_server.c.obj
                0x0000000000035b84                config_server_bind
 .text.packed_index_list_create
                0x0000000000035b94       0x3c CMakeFiles/light_switch_client_nrf52840_xxAA_s140_6.0.0.dir/__/__/__/models/config/src/packed_index_list.c.obj
                0x0000000000035b94                packed_index_list_create
 .text.attention_timer_handler
                0x0000000000035bd0       0x6c CMakeFiles/light_switch_client_nrf52840_xxAA_s140_6.0.0.dir/__/__/__/models/health/src/health_server.c.obj
 .text.handle_attention_get
                0x0000000000035c3c       0x40 CMakeFiles/light_switch_client_nrf52840_xxAA_s140_6.0.0.dir/__/__/__/models/health/src/health_server.c.obj
 .text.handle_period_get
                0x0000000000035c7c       0x3c CMakeFiles/light_switch_client_nrf52840_xxAA_s140_6.0.0.dir/__/__/__/models/health/src/health_server.c.obj
 .text.handle_attention_set
                0x0000000000035cb8       0xdc CMakeFiles/light_switch_client_nrf52840_xxAA_s140_6.0.0.dir/__/__/__/models/health/src/health_server.c.obj
 .text.handle_period_set
                0x0000000000035d94       0x54 CMakeFiles/light_switch_client_nrf52840_xxAA_s140_6.0.0.dir/__/__/__/models/health/src/health_server.c.obj
 .text.send_fault_status
                0x0000000000035de8      0x3b4 CMakeFiles/light_switch_client_nrf52840_xxAA_s140_6.0.0.dir/__/__/__/models/health/src/health_server.c.obj
 .text.health_publish_timeout_handler
                0x000000000003619c        0xc CMakeFiles/light_switch_client_nrf52840_xxAA_s140_6.0.0.dir/__/__/__/models/health/src/health_server.c.obj
 .text.handle_fault_test
                0x00000000000361a8       0x8c CMakeFiles/light_switch_client_nrf52840_xxAA_s140_6.0.0.dir/__/__/__/models/health/src/health_server.c.obj
 .text.handle_fault_clear
                0x0000000000036234       0x54 CMakeFiles/light_switch_client_nrf52840_xxAA_s140_6.0.0.dir/__/__/__/models/health/src/health_server.c.obj
 .text.handle_fault_get
                0x0000000000036288       0x40 CMakeFiles/light_switch_client_nrf52840_xxAA_s140_6.0.0.dir/__/__/__/models/health/src/health_server.c.obj
 .text.health_server_init
                0x00000000000362c8       0x68 CMakeFiles/light_switch_client_nrf52840_xxAA_s140_6.0.0.dir/__/__/__/models/health/src/health_server.c.obj
                0x00000000000362c8                health_server_init
 .text.schedule_publication_timer
                0x0000000000036330      0x2d0 CMakeFiles/light_switch_client_nrf52840_xxAA_s140_6.0.0.dir/__/__/__/mesh/access/src/access_publish.c.obj
 .text.publish_timer_tick
                0x0000000000036600      0x140 CMakeFiles/light_switch_client_nrf52840_xxAA_s140_6.0.0.dir/__/__/__/mesh/access/src/access_publish.c.obj
 .text.access_publish_init
                0x0000000000036740       0x38 CMakeFiles/light_switch_client_nrf52840_xxAA_s140_6.0.0.dir/__/__/__/mesh/access/src/access_publish.c.obj
                0x0000000000036740                access_publish_init
 .text.access_publish_period_set
                0x0000000000036778      0x118 CMakeFiles/light_switch_client_nrf52840_xxAA_s140_6.0.0.dir/__/__/__/mesh/access/src/access_publish.c.obj
                0x0000000000036778                access_publish_period_set
 .text.access_publish_period_get
                0x0000000000036890       0x2c CMakeFiles/light_switch_client_nrf52840_xxAA_s140_6.0.0.dir/__/__/__/mesh/access/src/access_publish.c.obj
                0x0000000000036890                access_publish_period_get
 .text.flash_manager_mem_available
                0x00000000000368bc        0x4 CMakeFiles/light_switch_client_nrf52840_xxAA_s140_6.0.0.dir/__/__/__/mesh/access/src/access.c.obj
 .text.flash_invalidate_complete
                0x00000000000368c0        0x8 CMakeFiles/light_switch_client_nrf52840_xxAA_s140_6.0.0.dir/__/__/__/mesh/access/src/access.c.obj
 .text.access_flash_config_clear
                0x00000000000368c8       0x28 CMakeFiles/light_switch_client_nrf52840_xxAA_s140_6.0.0.dir/__/__/__/mesh/access/src/access.c.obj
 .text.access_flash_config_store
                0x00000000000368f0      0x43c CMakeFiles/light_switch_client_nrf52840_xxAA_s140_6.0.0.dir/__/__/__/mesh/access/src/access.c.obj
                0x00000000000368f0                access_flash_config_store
 .text.handle_incoming
                0x0000000000036d2c      0x198 CMakeFiles/light_switch_client_nrf52840_xxAA_s140_6.0.0.dir/__/__/__/mesh/access/src/access.c.obj
 .text.mesh_evt_cb
                0x0000000000036ec4      0x158 CMakeFiles/light_switch_client_nrf52840_xxAA_s140_6.0.0.dir/__/__/__/mesh/access/src/access.c.obj
 .text.add_flash_manager
                0x000000000003701c       0x58 CMakeFiles/light_switch_client_nrf52840_xxAA_s140_6.0.0.dir/__/__/__/mesh/access/src/access.c.obj
 .text.flash_write_complete
                0x0000000000037074       0x4c CMakeFiles/light_switch_client_nrf52840_xxAA_s140_6.0.0.dir/__/__/__/mesh/access/src/access.c.obj
 .text.flash_remove_complete
                0x00000000000370c0      0x158 CMakeFiles/light_switch_client_nrf52840_xxAA_s140_6.0.0.dir/__/__/__/mesh/access/src/access.c.obj
 .text.access_flash_config_load
                0x0000000000037218      0x2d0 CMakeFiles/light_switch_client_nrf52840_xxAA_s140_6.0.0.dir/__/__/__/mesh/access/src/access.c.obj
                0x0000000000037218                access_flash_config_load
 .text.access_clear
                0x00000000000374e8       0x88 CMakeFiles/light_switch_client_nrf52840_xxAA_s140_6.0.0.dir/__/__/__/mesh/access/src/access.c.obj
                0x00000000000374e8                access_clear
 .text.access_init
                0x0000000000037570       0xd0 CMakeFiles/light_switch_client_nrf52840_xxAA_s140_6.0.0.dir/__/__/__/mesh/access/src/access.c.obj
                0x0000000000037570                access_init
 .text.access_model_add
                0x0000000000037640      0x2ec CMakeFiles/light_switch_client_nrf52840_xxAA_s140_6.0.0.dir/__/__/__/mesh/access/src/access.c.obj
                0x0000000000037640                access_model_add
 .text.access_model_publish
                0x000000000003792c      0x3c8 CMakeFiles/light_switch_client_nrf52840_xxAA_s140_6.0.0.dir/__/__/__/mesh/access/src/access.c.obj
                0x000000000003792c                access_model_publish
 .text.access_model_reply
                0x0000000000037cf4      0x3e4 CMakeFiles/light_switch_client_nrf52840_xxAA_s140_6.0.0.dir/__/__/__/mesh/access/src/access.c.obj
                0x0000000000037cf4                access_model_reply
 .text.access_model_publish_address_set
                0x00000000000380d8       0x3c CMakeFiles/light_switch_client_nrf52840_xxAA_s140_6.0.0.dir/__/__/__/mesh/access/src/access.c.obj
                0x00000000000380d8                access_model_publish_address_set
 .text.access_model_publish_address_get
                0x0000000000038114       0x2c CMakeFiles/light_switch_client_nrf52840_xxAA_s140_6.0.0.dir/__/__/__/mesh/access/src/access.c.obj
                0x0000000000038114                access_model_publish_address_get
 .text.access_model_publish_retransmit_set
                0x0000000000038140       0x58 CMakeFiles/light_switch_client_nrf52840_xxAA_s140_6.0.0.dir/__/__/__/mesh/access/src/access.c.obj
                0x0000000000038140                access_model_publish_retransmit_set
 .text.access_model_publish_retransmit_get
                0x0000000000038198       0x2c CMakeFiles/light_switch_client_nrf52840_xxAA_s140_6.0.0.dir/__/__/__/mesh/access/src/access.c.obj
                0x0000000000038198                access_model_publish_retransmit_get
 .text.access_model_publish_period_set
                0x00000000000381c4       0x78 CMakeFiles/light_switch_client_nrf52840_xxAA_s140_6.0.0.dir/__/__/__/mesh/access/src/access.c.obj
                0x00000000000381c4                access_model_publish_period_set
 .text.access_model_publish_period_get
                0x000000000003823c       0x40 CMakeFiles/light_switch_client_nrf52840_xxAA_s140_6.0.0.dir/__/__/__/mesh/access/src/access.c.obj
                0x000000000003823c                access_model_publish_period_get
 .text.access_model_subscription_list_alloc
                0x000000000003827c       0x84 CMakeFiles/light_switch_client_nrf52840_xxAA_s140_6.0.0.dir/__/__/__/mesh/access/src/access.c.obj
                0x000000000003827c                access_model_subscription_list_alloc
 .text.access_model_subscription_add
                0x0000000000038300       0x64 CMakeFiles/light_switch_client_nrf52840_xxAA_s140_6.0.0.dir/__/__/__/mesh/access/src/access.c.obj
                0x0000000000038300                access_model_subscription_add
 .text.access_model_subscription_remove
                0x0000000000038364       0x60 CMakeFiles/light_switch_client_nrf52840_xxAA_s140_6.0.0.dir/__/__/__/mesh/access/src/access.c.obj
                0x0000000000038364                access_model_subscription_remove
 .text.access_model_subscriptions_get
                0x00000000000383c4      0x1d8 CMakeFiles/light_switch_client_nrf52840_xxAA_s140_6.0.0.dir/__/__/__/mesh/access/src/access.c.obj
                0x00000000000383c4                access_model_subscriptions_get
 .text.access_model_application_bind
                0x000000000003859c       0x5c CMakeFiles/light_switch_client_nrf52840_xxAA_s140_6.0.0.dir/__/__/__/mesh/access/src/access.c.obj
                0x000000000003859c                access_model_application_bind
 .text.access_model_application_unbind
                0x00000000000385f8       0x58 CMakeFiles/light_switch_client_nrf52840_xxAA_s140_6.0.0.dir/__/__/__/mesh/access/src/access.c.obj
                0x00000000000385f8                access_model_application_unbind
 .text.access_model_applications_get
                0x0000000000038650       0x54 CMakeFiles/light_switch_client_nrf52840_xxAA_s140_6.0.0.dir/__/__/__/mesh/access/src/access.c.obj
                0x0000000000038650                access_model_applications_get
 .text.access_model_publish_application_set
                0x00000000000386a4       0x3c CMakeFiles/light_switch_client_nrf52840_xxAA_s140_6.0.0.dir/__/__/__/mesh/access/src/access.c.obj
                0x00000000000386a4                access_model_publish_application_set
 .text.access_model_publish_application_get
                0x00000000000386e0       0x2c CMakeFiles/light_switch_client_nrf52840_xxAA_s140_6.0.0.dir/__/__/__/mesh/access/src/access.c.obj
                0x00000000000386e0                access_model_publish_application_get
 .text.access_default_ttl_set
                0x000000000003870c       0x1c CMakeFiles/light_switch_client_nrf52840_xxAA_s140_6.0.0.dir/__/__/__/mesh/access/src/access.c.obj
                0x000000000003870c                access_default_ttl_set
 .text.access_default_ttl_get
                0x0000000000038728        0xc CMakeFiles/light_switch_client_nrf52840_xxAA_s140_6.0.0.dir/__/__/__/mesh/access/src/access.c.obj
                0x0000000000038728                access_default_ttl_get
 .text.access_model_publish_ttl_set
                0x0000000000038734       0x40 CMakeFiles/light_switch_client_nrf52840_xxAA_s140_6.0.0.dir/__/__/__/mesh/access/src/access.c.obj
                0x0000000000038734                access_model_publish_ttl_set
 .text.access_model_publish_ttl_get
                0x0000000000038774       0x2c CMakeFiles/light_switch_client_nrf52840_xxAA_s140_6.0.0.dir/__/__/__/mesh/access/src/access.c.obj
                0x0000000000038774                access_model_publish_ttl_get
 .text.access_element_location_get
                0x00000000000387a0       0x24 CMakeFiles/light_switch_client_nrf52840_xxAA_s140_6.0.0.dir/__/__/__/mesh/access/src/access.c.obj
                0x00000000000387a0                access_element_location_get
 .text.access_element_sig_model_count_get
                0x00000000000387c4       0x24 CMakeFiles/light_switch_client_nrf52840_xxAA_s140_6.0.0.dir/__/__/__/mesh/access/src/access.c.obj
                0x00000000000387c4                access_element_sig_model_count_get
 .text.access_element_vendor_model_count_get
                0x00000000000387e8       0x24 CMakeFiles/light_switch_client_nrf52840_xxAA_s140_6.0.0.dir/__/__/__/mesh/access/src/access.c.obj
                0x00000000000387e8                access_element_vendor_model_count_get
 .text.access_model_id_get
                0x000000000003880c       0x40 CMakeFiles/light_switch_client_nrf52840_xxAA_s140_6.0.0.dir/__/__/__/mesh/access/src/access.c.obj
                0x000000000003880c                access_model_id_get
 .text.access_handle_get
                0x000000000003884c       0xd8 CMakeFiles/light_switch_client_nrf52840_xxAA_s140_6.0.0.dir/__/__/__/mesh/access/src/access.c.obj
                0x000000000003884c                access_handle_get
 .text.access_element_models_get
                0x0000000000038924       0xf8 CMakeFiles/light_switch_client_nrf52840_xxAA_s140_6.0.0.dir/__/__/__/mesh/access/src/access.c.obj
                0x0000000000038924                access_element_models_get
 .text.access_model_p_args_get
                0x0000000000038a1c       0x2c CMakeFiles/light_switch_client_nrf52840_xxAA_s140_6.0.0.dir/__/__/__/mesh/access/src/access.c.obj
                0x0000000000038a1c                access_model_p_args_get
 .text.access_model_publication_stop
                0x0000000000038a48       0x5c CMakeFiles/light_switch_client_nrf52840_xxAA_s140_6.0.0.dir/__/__/__/mesh/access/src/access.c.obj
                0x0000000000038a48                access_model_publication_stop
 .text.access_model_publication_by_appkey_stop
                0x0000000000038aa4      0x1b8 CMakeFiles/light_switch_client_nrf52840_xxAA_s140_6.0.0.dir/__/__/__/mesh/access/src/access.c.obj
                0x0000000000038aa4                access_model_publication_by_appkey_stop
 .text.remove_and_reschedule
                0x0000000000038c5c      0x12c CMakeFiles/light_switch_client_nrf52840_xxAA_s140_6.0.0.dir/__/__/__/mesh/access/src/access_reliable.c.obj
 .text.reliable_timer_cb
                0x0000000000038d88      0x128 CMakeFiles/light_switch_client_nrf52840_xxAA_s140_6.0.0.dir/__/__/__/mesh/access/src/access_reliable.c.obj
 .text.access_reliable_message_rx_cb
                0x0000000000038eb0       0xb4 CMakeFiles/light_switch_client_nrf52840_xxAA_s140_6.0.0.dir/__/__/__/mesh/access/src/access_reliable.c.obj
                0x0000000000038eb0                access_reliable_message_rx_cb
 .text.access_reliable_init
                0x0000000000038f64       0x20 CMakeFiles/light_switch_client_nrf52840_xxAA_s140_6.0.0.dir/__/__/__/mesh/access/src/access_reliable.c.obj
                0x0000000000038f64                access_reliable_init
 .text.access_reliable_cancel_all
                0x0000000000038f84      0x1b4 CMakeFiles/light_switch_client_nrf52840_xxAA_s140_6.0.0.dir/__/__/__/mesh/access/src/access_reliable.c.obj
                0x0000000000038f84                access_reliable_cancel_all
 .text.access_model_reliable_cancel
                0x0000000000039138       0xbc CMakeFiles/light_switch_client_nrf52840_xxAA_s140_6.0.0.dir/__/__/__/mesh/access/src/access_reliable.c.obj
                0x0000000000039138                access_model_reliable_cancel
 .text.access_model_reliable_publish
                0x00000000000391f4      0x2c4 CMakeFiles/light_switch_client_nrf52840_xxAA_s140_6.0.0.dir/__/__/__/mesh/access/src/access_reliable.c.obj
                0x00000000000391f4                access_model_reliable_publish
 .text.addr_nonvirtual_to_dsm_entry
                0x00000000000394b8       0x48 CMakeFiles/light_switch_client_nrf52840_xxAA_s140_6.0.0.dir/__/__/__/mesh/access/src/device_state_manager.c.obj
 .text.addr_nonvirtual_to_flash_entry
                0x0000000000039500       0x10 CMakeFiles/light_switch_client_nrf52840_xxAA_s140_6.0.0.dir/__/__/__/mesh/access/src/device_state_manager.c.obj
 .text.devkey_to_flash_entry
                0x0000000000039510       0x28 CMakeFiles/light_switch_client_nrf52840_xxAA_s140_6.0.0.dir/__/__/__/mesh/access/src/device_state_manager.c.obj
 .text.addr_virtual_to_flash_entry
                0x0000000000039538       0x18 CMakeFiles/light_switch_client_nrf52840_xxAA_s140_6.0.0.dir/__/__/__/mesh/access/src/device_state_manager.c.obj
 .text.addr_unicast_to_dsm_entry
                0x0000000000039550        0xc CMakeFiles/light_switch_client_nrf52840_xxAA_s140_6.0.0.dir/__/__/__/mesh/access/src/device_state_manager.c.obj
 .text.addr_unicast_to_flash_entry
                0x000000000003955c       0x10 CMakeFiles/light_switch_client_nrf52840_xxAA_s140_6.0.0.dir/__/__/__/mesh/access/src/device_state_manager.c.obj
 .text.flash_mem_listener_callback
                0x000000000003956c       0x1c CMakeFiles/light_switch_client_nrf52840_xxAA_s140_6.0.0.dir/__/__/__/mesh/access/src/device_state_manager.c.obj
 .text.appkey_to_flash_entry
                0x0000000000039588       0x54 CMakeFiles/light_switch_client_nrf52840_xxAA_s140_6.0.0.dir/__/__/__/mesh/access/src/device_state_manager.c.obj
 .text.subnet_to_flash_entry
                0x00000000000395dc       0x60 CMakeFiles/light_switch_client_nrf52840_xxAA_s140_6.0.0.dir/__/__/__/mesh/access/src/device_state_manager.c.obj
 .text.reset_flash_area
                0x000000000003963c       0x28 CMakeFiles/light_switch_client_nrf52840_xxAA_s140_6.0.0.dir/__/__/__/mesh/access/src/device_state_manager.c.obj
 .text.build_flash_area
                0x0000000000039664       0x90 CMakeFiles/light_switch_client_nrf52840_xxAA_s140_6.0.0.dir/__/__/__/mesh/access/src/device_state_manager.c.obj
 .text.flash_invalidate_complete
                0x00000000000396f4       0x54 CMakeFiles/light_switch_client_nrf52840_xxAA_s140_6.0.0.dir/__/__/__/mesh/access/src/device_state_manager.c.obj
 .text.flash_write_complete
                0x0000000000039748       0x50 CMakeFiles/light_switch_client_nrf52840_xxAA_s140_6.0.0.dir/__/__/__/mesh/access/src/device_state_manager.c.obj
 .text.devkey_to_dsm_entry
                0x0000000000039798       0x70 CMakeFiles/light_switch_client_nrf52840_xxAA_s140_6.0.0.dir/__/__/__/mesh/access/src/device_state_manager.c.obj
 .text.addr_virtual_to_dsm_entry
                0x0000000000039808       0x60 CMakeFiles/light_switch_client_nrf52840_xxAA_s140_6.0.0.dir/__/__/__/mesh/access/src/device_state_manager.c.obj
 .text.appkey_to_dsm_entry
                0x0000000000039868       0xf4 CMakeFiles/light_switch_client_nrf52840_xxAA_s140_6.0.0.dir/__/__/__/mesh/access/src/device_state_manager.c.obj
 .text.address_delete_if_unused
                0x000000000003995c       0xd8 CMakeFiles/light_switch_client_nrf52840_xxAA_s140_6.0.0.dir/__/__/__/mesh/access/src/device_state_manager.c.obj
 .text.subnet_to_dsm_entry
                0x0000000000039a34      0x11c CMakeFiles/light_switch_client_nrf52840_xxAA_s140_6.0.0.dir/__/__/__/mesh/access/src/device_state_manager.c.obj
 .text.flash_remove_complete
                0x0000000000039b50       0x90 CMakeFiles/light_switch_client_nrf52840_xxAA_s140_6.0.0.dir/__/__/__/mesh/access/src/device_state_manager.c.obj
 .text.flash_update_all
                0x0000000000039be0      0x184 CMakeFiles/light_switch_client_nrf52840_xxAA_s140_6.0.0.dir/__/__/__/mesh/access/src/device_state_manager.c.obj
 .text.dsm_flash_config_load
                0x0000000000039d64      0x1f8 CMakeFiles/light_switch_client_nrf52840_xxAA_s140_6.0.0.dir/__/__/__/mesh/access/src/device_state_manager.c.obj
                0x0000000000039d64                dsm_flash_config_load
 .text.dsm_flash_area_get
                0x0000000000039f5c        0xc CMakeFiles/light_switch_client_nrf52840_xxAA_s140_6.0.0.dir/__/__/__/mesh/access/src/device_state_manager.c.obj
                0x0000000000039f5c                dsm_flash_area_get
 .text.dsm_clear
                0x0000000000039f68       0xd8 CMakeFiles/light_switch_client_nrf52840_xxAA_s140_6.0.0.dir/__/__/__/mesh/access/src/device_state_manager.c.obj
                0x0000000000039f68                dsm_clear
 .text.dsm_init
                0x000000000003a040       0xb8 CMakeFiles/light_switch_client_nrf52840_xxAA_s140_6.0.0.dir/__/__/__/mesh/access/src/device_state_manager.c.obj
                0x000000000003a040                dsm_init
 .text.dsm_local_unicast_addresses_set
                0x000000000003a0f8       0xbc CMakeFiles/light_switch_client_nrf52840_xxAA_s140_6.0.0.dir/__/__/__/mesh/access/src/device_state_manager.c.obj
                0x000000000003a0f8                dsm_local_unicast_addresses_set
 .text.dsm_local_unicast_addresses_get
                0x000000000003a1b4       0x20 CMakeFiles/light_switch_client_nrf52840_xxAA_s140_6.0.0.dir/__/__/__/mesh/access/src/device_state_manager.c.obj
                0x000000000003a1b4                dsm_local_unicast_addresses_get
 .text.dsm_address_publish_add
                0x000000000003a1d4      0x19c CMakeFiles/light_switch_client_nrf52840_xxAA_s140_6.0.0.dir/__/__/__/mesh/access/src/device_state_manager.c.obj
                0x000000000003a1d4                dsm_address_publish_add
 .text.dsm_address_publish_add_handle
                0x000000000003a370       0x4c CMakeFiles/light_switch_client_nrf52840_xxAA_s140_6.0.0.dir/__/__/__/mesh/access/src/device_state_manager.c.obj
                0x000000000003a370                dsm_address_publish_add_handle
 .text.dsm_address_publish_virtual_add
                0x000000000003a3bc       0xc4 CMakeFiles/light_switch_client_nrf52840_xxAA_s140_6.0.0.dir/__/__/__/mesh/access/src/device_state_manager.c.obj
                0x000000000003a3bc                dsm_address_publish_virtual_add
 .text.dsm_address_publish_remove
                0x000000000003a480       0xe4 CMakeFiles/light_switch_client_nrf52840_xxAA_s140_6.0.0.dir/__/__/__/mesh/access/src/device_state_manager.c.obj
                0x000000000003a480                dsm_address_publish_remove
 .text.dsm_address_subscription_add
                0x000000000003a564      0x1c8 CMakeFiles/light_switch_client_nrf52840_xxAA_s140_6.0.0.dir/__/__/__/mesh/access/src/device_state_manager.c.obj
                0x000000000003a564                dsm_address_subscription_add
 .text.dsm_address_subscription_virtual_add
                0x000000000003a72c       0xc4 CMakeFiles/light_switch_client_nrf52840_xxAA_s140_6.0.0.dir/__/__/__/mesh/access/src/device_state_manager.c.obj
                0x000000000003a72c                dsm_address_subscription_virtual_add
 .text.dsm_address_subscription_add_handle
                0x000000000003a7f0       0x4c CMakeFiles/light_switch_client_nrf52840_xxAA_s140_6.0.0.dir/__/__/__/mesh/access/src/device_state_manager.c.obj
                0x000000000003a7f0                dsm_address_subscription_add_handle
 .text.dsm_address_subscription_get
                0x000000000003a83c       0x50 CMakeFiles/light_switch_client_nrf52840_xxAA_s140_6.0.0.dir/__/__/__/mesh/access/src/device_state_manager.c.obj
                0x000000000003a83c                dsm_address_subscription_get
 .text.dsm_address_subscription_remove
                0x000000000003a88c       0x84 CMakeFiles/light_switch_client_nrf52840_xxAA_s140_6.0.0.dir/__/__/__/mesh/access/src/device_state_manager.c.obj
                0x000000000003a88c                dsm_address_subscription_remove
 .text.dsm_address_get
                0x000000000003a910       0x68 CMakeFiles/light_switch_client_nrf52840_xxAA_s140_6.0.0.dir/__/__/__/mesh/access/src/device_state_manager.c.obj
                0x000000000003a910                dsm_address_get
 .text.dsm_address_handle_get
                0x000000000003a978      0x150 CMakeFiles/light_switch_client_nrf52840_xxAA_s140_6.0.0.dir/__/__/__/mesh/access/src/device_state_manager.c.obj
                0x000000000003a978                dsm_address_handle_get
 .text.dsm_net_key_index_to_subnet_handle
                0x000000000003aac8       0x28 CMakeFiles/light_switch_client_nrf52840_xxAA_s140_6.0.0.dir/__/__/__/mesh/access/src/device_state_manager.c.obj
                0x000000000003aac8                dsm_net_key_index_to_subnet_handle
 .text.dsm_subnet_handle_get
                0x000000000003aaf0       0x3c CMakeFiles/light_switch_client_nrf52840_xxAA_s140_6.0.0.dir/__/__/__/mesh/access/src/device_state_manager.c.obj
                0x000000000003aaf0                dsm_subnet_handle_get
 .text.dsm_appkey_index_to_appkey_handle
                0x000000000003ab2c       0x28 CMakeFiles/light_switch_client_nrf52840_xxAA_s140_6.0.0.dir/__/__/__/mesh/access/src/device_state_manager.c.obj
                0x000000000003ab2c                dsm_appkey_index_to_appkey_handle
 .text.dsm_appkey_handle_get
                0x000000000003ab54       0x2c CMakeFiles/light_switch_client_nrf52840_xxAA_s140_6.0.0.dir/__/__/__/mesh/access/src/device_state_manager.c.obj
                0x000000000003ab54                dsm_appkey_handle_get
 .text.dsm_appkey_handle_to_appkey_index
                0x000000000003ab80       0x24 CMakeFiles/light_switch_client_nrf52840_xxAA_s140_6.0.0.dir/__/__/__/mesh/access/src/device_state_manager.c.obj
                0x000000000003ab80                dsm_appkey_handle_to_appkey_index
 .text.dsm_appkey_handle_to_subnet_handle
                0x000000000003aba4       0x78 CMakeFiles/light_switch_client_nrf52840_xxAA_s140_6.0.0.dir/__/__/__/mesh/access/src/device_state_manager.c.obj
                0x000000000003aba4                dsm_appkey_handle_to_subnet_handle
 .text.dsm_subnet_add
                0x000000000003ac1c      0x15c CMakeFiles/light_switch_client_nrf52840_xxAA_s140_6.0.0.dir/__/__/__/mesh/access/src/device_state_manager.c.obj
                0x000000000003ac1c                dsm_subnet_add
 .text.dsm_subnet_kr_phase_get
                0x000000000003ad78       0x20 CMakeFiles/light_switch_client_nrf52840_xxAA_s140_6.0.0.dir/__/__/__/mesh/access/src/device_state_manager.c.obj
                0x000000000003ad78                dsm_subnet_kr_phase_get
 .text.dsm_subnet_update
                0x000000000003ad98       0xe4 CMakeFiles/light_switch_client_nrf52840_xxAA_s140_6.0.0.dir/__/__/__/mesh/access/src/device_state_manager.c.obj
                0x000000000003ad98                dsm_subnet_update
 .text.dsm_subnet_update_swap_keys
                0x000000000003ae7c       0x94 CMakeFiles/light_switch_client_nrf52840_xxAA_s140_6.0.0.dir/__/__/__/mesh/access/src/device_state_manager.c.obj
                0x000000000003ae7c                dsm_subnet_update_swap_keys
 .text.dsm_subnet_update_commit
                0x000000000003af10      0x138 CMakeFiles/light_switch_client_nrf52840_xxAA_s140_6.0.0.dir/__/__/__/mesh/access/src/device_state_manager.c.obj
                0x000000000003af10                dsm_subnet_update_commit
 .text.mesh_evt_handler
                0x000000000003b048       0xc4 CMakeFiles/light_switch_client_nrf52840_xxAA_s140_6.0.0.dir/__/__/__/mesh/access/src/device_state_manager.c.obj
 .text.dsm_subnet_delete
                0x000000000003b10c       0xe8 CMakeFiles/light_switch_client_nrf52840_xxAA_s140_6.0.0.dir/__/__/__/mesh/access/src/device_state_manager.c.obj
                0x000000000003b10c                dsm_subnet_delete
 .text.dsm_subnet_get_all
                0x000000000003b1f4       0x40 CMakeFiles/light_switch_client_nrf52840_xxAA_s140_6.0.0.dir/__/__/__/mesh/access/src/device_state_manager.c.obj
                0x000000000003b1f4                dsm_subnet_get_all
 .text.dsm_devkey_add
                0x000000000003b234       0xf8 CMakeFiles/light_switch_client_nrf52840_xxAA_s140_6.0.0.dir/__/__/__/mesh/access/src/device_state_manager.c.obj
                0x000000000003b234                dsm_devkey_add
 .text.dsm_appkey_add
                0x000000000003b32c      0x134 CMakeFiles/light_switch_client_nrf52840_xxAA_s140_6.0.0.dir/__/__/__/mesh/access/src/device_state_manager.c.obj
                0x000000000003b32c                dsm_appkey_add
 .text.dsm_appkey_update
                0x000000000003b460       0xd8 CMakeFiles/light_switch_client_nrf52840_xxAA_s140_6.0.0.dir/__/__/__/mesh/access/src/device_state_manager.c.obj
                0x000000000003b460                dsm_appkey_update
 .text.dsm_appkey_delete
                0x000000000003b538       0x60 CMakeFiles/light_switch_client_nrf52840_xxAA_s140_6.0.0.dir/__/__/__/mesh/access/src/device_state_manager.c.obj
                0x000000000003b538                dsm_appkey_delete
 .text.dsm_appkey_get_all
                0x000000000003b598       0x58 CMakeFiles/light_switch_client_nrf52840_xxAA_s140_6.0.0.dir/__/__/__/mesh/access/src/device_state_manager.c.obj
                0x000000000003b598                dsm_appkey_get_all
 .text.dsm_tx_secmat_get
                0x000000000003b5f0       0xa4 CMakeFiles/light_switch_client_nrf52840_xxAA_s140_6.0.0.dir/__/__/__/mesh/access/src/device_state_manager.c.obj
                0x000000000003b5f0                dsm_tx_secmat_get
 .text.dsm_net_secmat_from_keyindex_get
                0x000000000003b694       0x30 CMakeFiles/light_switch_client_nrf52840_xxAA_s140_6.0.0.dir/__/__/__/mesh/access/src/device_state_manager.c.obj
                0x000000000003b694                dsm_net_secmat_from_keyindex_get
 .text.nrf_mesh_net_secmat_next_get
                0x000000000003b6c4       0x80 CMakeFiles/light_switch_client_nrf52840_xxAA_s140_6.0.0.dir/__/__/__/mesh/access/src/device_state_manager.c.obj
                0x000000000003b6c4                nrf_mesh_net_secmat_next_get
 .text.nrf_mesh_app_secmat_next_get
                0x000000000003b744       0x80 CMakeFiles/light_switch_client_nrf52840_xxAA_s140_6.0.0.dir/__/__/__/mesh/access/src/device_state_manager.c.obj
                0x000000000003b744                nrf_mesh_app_secmat_next_get
 .text.nrf_mesh_devkey_secmat_get
                0x000000000003b7c4       0x30 CMakeFiles/light_switch_client_nrf52840_xxAA_s140_6.0.0.dir/__/__/__/mesh/access/src/device_state_manager.c.obj
                0x000000000003b7c4                nrf_mesh_devkey_secmat_get
 .text.nrf_mesh_beacon_info_next_get
                0x000000000003b7f4       0xb0 CMakeFiles/light_switch_client_nrf52840_xxAA_s140_6.0.0.dir/__/__/__/mesh/access/src/device_state_manager.c.obj
                0x000000000003b7f4                nrf_mesh_beacon_info_next_get
 .text.nrf_mesh_rx_address_get
                0x000000000003b8a4      0x178 CMakeFiles/light_switch_client_nrf52840_xxAA_s140_6.0.0.dir/__/__/__/mesh/access/src/device_state_manager.c.obj
                0x000000000003b8a4                nrf_mesh_rx_address_get
 .text.nrf_mesh_unicast_address_get
                0x000000000003ba1c       0x24 CMakeFiles/light_switch_client_nrf52840_xxAA_s140_6.0.0.dir/__/__/__/mesh/access/src/device_state_manager.c.obj
                0x000000000003ba1c                nrf_mesh_unicast_address_get
 .text.prov_provisionee_cb_link_established
                0x000000000003ba40       0x40 CMakeFiles/light_switch_client_nrf52840_xxAA_s140_6.0.0.dir/__/__/__/mesh/prov/src/prov_provisionee.c.obj
 .text.prov_provisionee_cb_link_closed
                0x000000000003ba80       0x50 CMakeFiles/light_switch_client_nrf52840_xxAA_s140_6.0.0.dir/__/__/__/mesh/prov/src/prov_provisionee.c.obj
 .text.request_authentication
                0x000000000003bad0       0x90 CMakeFiles/light_switch_client_nrf52840_xxAA_s140_6.0.0.dir/__/__/__/mesh/prov/src/prov_provisionee.c.obj
 .text.send_failed
                0x000000000003bb60       0x38 CMakeFiles/light_switch_client_nrf52840_xxAA_s140_6.0.0.dir/__/__/__/mesh/prov/src/prov_provisionee.c.obj
 .text.prov_provisionee_cb_ack_received
                0x000000000003bb98      0x174 CMakeFiles/light_switch_client_nrf52840_xxAA_s140_6.0.0.dir/__/__/__/mesh/prov/src/prov_provisionee.c.obj
 .text.prov_provisionee_pkt_in
                0x000000000003bd0c      0x428 CMakeFiles/light_switch_client_nrf52840_xxAA_s140_6.0.0.dir/__/__/__/mesh/prov/src/prov_provisionee.c.obj
 .text.prov_provisionee_listen
                0x000000000003c134       0x34 CMakeFiles/light_switch_client_nrf52840_xxAA_s140_6.0.0.dir/__/__/__/mesh/prov/src/prov_provisionee.c.obj
                0x000000000003c134                prov_provisionee_listen
 .text.prov_provisionee_auth_data
                0x000000000003c168      0x100 CMakeFiles/light_switch_client_nrf52840_xxAA_s140_6.0.0.dir/__/__/__/mesh/prov/src/prov_provisionee.c.obj
                0x000000000003c168                prov_provisionee_auth_data
 .text.bearer_compare_callback
                0x000000000003c268       0x10 CMakeFiles/light_switch_client_nrf52840_xxAA_s140_6.0.0.dir/__/__/__/mesh/prov/src/nrf_mesh_prov.c.obj
 .text.nrf_mesh_prov_init
                0x000000000003c278       0x3c CMakeFiles/light_switch_client_nrf52840_xxAA_s140_6.0.0.dir/__/__/__/mesh/prov/src/nrf_mesh_prov.c.obj
                0x000000000003c278                nrf_mesh_prov_init
 .text.nrf_mesh_prov_bearer_add
                0x000000000003c2b4       0x2c CMakeFiles/light_switch_client_nrf52840_xxAA_s140_6.0.0.dir/__/__/__/mesh/prov/src/nrf_mesh_prov.c.obj
                0x000000000003c2b4                nrf_mesh_prov_bearer_add
 .text.nrf_mesh_prov_generate_keys
                0x000000000003c2e0        0x4 CMakeFiles/light_switch_client_nrf52840_xxAA_s140_6.0.0.dir/__/__/__/mesh/prov/src/nrf_mesh_prov.c.obj
                0x000000000003c2e0                nrf_mesh_prov_generate_keys
 .text.nrf_mesh_prov_listen
                0x000000000003c2e4       0xf0 CMakeFiles/light_switch_client_nrf52840_xxAA_s140_6.0.0.dir/__/__/__/mesh/prov/src/nrf_mesh_prov.c.obj
                0x000000000003c2e4                nrf_mesh_prov_listen
 .text.nrf_mesh_prov_auth_data_provide
                0x000000000003c3d4       0x10 CMakeFiles/light_switch_client_nrf52840_xxAA_s140_6.0.0.dir/__/__/__/mesh/prov/src/nrf_mesh_prov.c.obj
                0x000000000003c3d4                nrf_mesh_prov_auth_data_provide
 .text.prov_packet_length_valid
                0x000000000003c3e4       0x20 CMakeFiles/light_switch_client_nrf52840_xxAA_s140_6.0.0.dir/__/__/__/mesh/prov/src/provisioning.c.obj
                0x000000000003c3e4                prov_packet_length_valid
 .text.prov_tx_capabilities
                0x000000000003c404       0x38 CMakeFiles/light_switch_client_nrf52840_xxAA_s140_6.0.0.dir/__/__/__/mesh/prov/src/provisioning.c.obj
                0x000000000003c404                prov_tx_capabilities
 .text.prov_tx_public_key
                0x000000000003c43c       0x30 CMakeFiles/light_switch_client_nrf52840_xxAA_s140_6.0.0.dir/__/__/__/mesh/prov/src/provisioning.c.obj
                0x000000000003c43c                prov_tx_public_key
 .text.prov_tx_input_complete
                0x000000000003c46c       0x28 CMakeFiles/light_switch_client_nrf52840_xxAA_s140_6.0.0.dir/__/__/__/mesh/prov/src/provisioning.c.obj
                0x000000000003c46c                prov_tx_input_complete
 .text.prov_tx_confirmation
                0x000000000003c494       0x30 CMakeFiles/light_switch_client_nrf52840_xxAA_s140_6.0.0.dir/__/__/__/mesh/prov/src/provisioning.c.obj
                0x000000000003c494                prov_tx_confirmation
 .text.prov_tx_random
                0x000000000003c4c4       0x30 CMakeFiles/light_switch_client_nrf52840_xxAA_s140_6.0.0.dir/__/__/__/mesh/prov/src/provisioning.c.obj
                0x000000000003c4c4                prov_tx_random
 .text.prov_tx_complete
                0x000000000003c4f4       0x28 CMakeFiles/light_switch_client_nrf52840_xxAA_s140_6.0.0.dir/__/__/__/mesh/prov/src/provisioning.c.obj
                0x000000000003c4f4                prov_tx_complete
 .text.prov_tx_failed
                0x000000000003c51c       0x2c CMakeFiles/light_switch_client_nrf52840_xxAA_s140_6.0.0.dir/__/__/__/mesh/prov/src/provisioning.c.obj
                0x000000000003c51c                prov_tx_failed
 .text.prov_beacon_unprov_build
                0x000000000003c548       0x54 CMakeFiles/light_switch_client_nrf52840_xxAA_s140_6.0.0.dir/__/__/__/mesh/prov/src/prov_beacon.c.obj
                0x000000000003c548                prov_beacon_unprov_build
 .text.prov_beacon_unprov_packet_in
                0x000000000003c59c       0xd0 CMakeFiles/light_switch_client_nrf52840_xxAA_s140_6.0.0.dir/__/__/__/mesh/prov/src/prov_beacon.c.obj
                0x000000000003c59c                prov_beacon_unprov_packet_in
 .text.prov_utils_opt_set
                0x000000000003c66c       0x24 CMakeFiles/light_switch_client_nrf52840_xxAA_s140_6.0.0.dir/__/__/__/mesh/prov/src/prov_utils.c.obj
                0x000000000003c66c                prov_utils_opt_set
 .text.prov_utils_opt_get
                0x000000000003c690       0x1c CMakeFiles/light_switch_client_nrf52840_xxAA_s140_6.0.0.dir/__/__/__/mesh/prov/src/prov_utils.c.obj
                0x000000000003c690                prov_utils_opt_get
 .text.prov_utils_use_ecdh_offloading
                0x000000000003c6ac        0xc CMakeFiles/light_switch_client_nrf52840_xxAA_s140_6.0.0.dir/__/__/__/mesh/prov/src/prov_utils.c.obj
                0x000000000003c6ac                prov_utils_use_ecdh_offloading
 .text.prov_utils_authentication_values_derive
                0x000000000003c6b8       0xac CMakeFiles/light_switch_client_nrf52840_xxAA_s140_6.0.0.dir/__/__/__/mesh/prov/src/prov_utils.c.obj
                0x000000000003c6b8                prov_utils_authentication_values_derive
 .text.prov_utils_keys_generate
                0x000000000003c764       0x20 CMakeFiles/light_switch_client_nrf52840_xxAA_s140_6.0.0.dir/__/__/__/mesh/prov/src/prov_utils.c.obj
                0x000000000003c764                prov_utils_keys_generate
 .text.prov_utils_derive_keys
                0x000000000003c784       0xb4 CMakeFiles/light_switch_client_nrf52840_xxAA_s140_6.0.0.dir/__/__/__/mesh/prov/src/prov_utils.c.obj
                0x000000000003c784                prov_utils_derive_keys
 .text.prov_utils_calculate_shared_secret
                0x000000000003c838       0x34 CMakeFiles/light_switch_client_nrf52840_xxAA_s140_6.0.0.dir/__/__/__/mesh/prov/src/prov_utils.c.obj
                0x000000000003c838                prov_utils_calculate_shared_secret
 .text.prov_utils_generate_oob_data
                0x000000000003c86c      0x1b8 CMakeFiles/light_switch_client_nrf52840_xxAA_s140_6.0.0.dir/__/__/__/mesh/prov/src/prov_utils.c.obj
                0x000000000003c86c                prov_utils_generate_oob_data
 .text.prov_utils_confirmation_check
                0x000000000003ca24       0x5c CMakeFiles/light_switch_client_nrf52840_xxAA_s140_6.0.0.dir/__/__/__/mesh/prov/src/prov_utils.c.obj
                0x000000000003ca24                prov_utils_confirmation_check
 .text.link_timeout_cb
                0x000000000003ca80       0x10 CMakeFiles/light_switch_client_nrf52840_xxAA_s140_6.0.0.dir/__/__/__/mesh/prov/src/prov_bearer_adv.c.obj
 .text.prov_bearer_adv_listen_stop
                0x000000000003ca90       0x98 CMakeFiles/light_switch_client_nrf52840_xxAA_s140_6.0.0.dir/__/__/__/mesh/prov/src/prov_bearer_adv.c.obj
 .text.tx_complete_cb
                0x000000000003cb28       0x20 CMakeFiles/light_switch_client_nrf52840_xxAA_s140_6.0.0.dir/__/__/__/mesh/prov/src/prov_bearer_adv.c.obj
 .text.prov_bearer_adv_listen
                0x000000000003cb48      0x15c CMakeFiles/light_switch_client_nrf52840_xxAA_s140_6.0.0.dir/__/__/__/mesh/prov/src/prov_bearer_adv.c.obj
 .text.close_link
                0x000000000003cca4       0xd8 CMakeFiles/light_switch_client_nrf52840_xxAA_s140_6.0.0.dir/__/__/__/mesh/prov/src/prov_bearer_adv.c.obj
 .text.send_link_ack
                0x000000000003cd7c       0x70 CMakeFiles/light_switch_client_nrf52840_xxAA_s140_6.0.0.dir/__/__/__/mesh/prov/src/prov_bearer_adv.c.obj
 .text.send_transaction_ack
                0x000000000003cdec       0x68 CMakeFiles/light_switch_client_nrf52840_xxAA_s140_6.0.0.dir/__/__/__/mesh/prov/src/prov_bearer_adv.c.obj
 .text.prov_buffer_rx
                0x000000000003ce54       0xa0 CMakeFiles/light_switch_client_nrf52840_xxAA_s140_6.0.0.dir/__/__/__/mesh/prov/src/prov_bearer_adv.c.obj
 .text.prov_bearer_adv_link_open
                0x000000000003cef4      0x1b8 CMakeFiles/light_switch_client_nrf52840_xxAA_s140_6.0.0.dir/__/__/__/mesh/prov/src/prov_bearer_adv.c.obj
 .text.prov_bearer_adv_link_close
                0x000000000003d0ac       0xcc CMakeFiles/light_switch_client_nrf52840_xxAA_s140_6.0.0.dir/__/__/__/mesh/prov/src/prov_bearer_adv.c.obj
 .text.prov_buffer_tx
                0x000000000003d178      0x1e4 CMakeFiles/light_switch_client_nrf52840_xxAA_s140_6.0.0.dir/__/__/__/mesh/prov/src/prov_bearer_adv.c.obj
 .text.tx_retry_cb
                0x000000000003d35c      0x130 CMakeFiles/light_switch_client_nrf52840_xxAA_s140_6.0.0.dir/__/__/__/mesh/prov/src/prov_bearer_adv.c.obj
 .text.prov_bearer_adv_tx
                0x000000000003d48c       0xe8 CMakeFiles/light_switch_client_nrf52840_xxAA_s140_6.0.0.dir/__/__/__/mesh/prov/src/prov_bearer_adv.c.obj
 .text.async_process
                0x000000000003d574      0x118 CMakeFiles/light_switch_client_nrf52840_xxAA_s140_6.0.0.dir/__/__/__/mesh/prov/src/prov_bearer_adv.c.obj
 .text.nrf_mesh_prov_bearer_adv_interface_get
                0x000000000003d68c       0x40 CMakeFiles/light_switch_client_nrf52840_xxAA_s140_6.0.0.dir/__/__/__/mesh/prov/src/prov_bearer_adv.c.obj
                0x000000000003d68c                nrf_mesh_prov_bearer_adv_interface_get
 .text.prov_bearer_adv_packet_in
                0x000000000003d6cc      0x914 CMakeFiles/light_switch_client_nrf52840_xxAA_s140_6.0.0.dir/__/__/__/mesh/prov/src/prov_bearer_adv.c.obj
                0x000000000003d6cc                prov_bearer_adv_packet_in
 .text.SystemInit
                0x000000000003dfe0      0x1c4 CMakeFiles/light_switch_client_nrf52840_xxAA_s140_6.0.0.dir/home/mazzer/work/nordic/sdk/nRF5_SDK_15.0.0/modules/nrfx/mdk/system_nrf52840.c.obj
                0x000000000003dfe0                SystemInit
 .text          0x000000000003e1a4       0x3c CMakeFiles/light_switch_client_nrf52840_xxAA_s140_6.0.0.dir/home/mazzer/work/nordic/sdk/nRF5_SDK_15.0.0/modules/nrfx/mdk/gcc_startup_nrf52840.S.obj
                0x000000000003e1a4                Reset_Handler
                0x000000000003e1cc                NMI_Handler
                0x000000000003e1ce                HardFault_Handler
                0x000000000003e1d0                MemoryManagement_Handler
                0x000000000003e1d2                BusFault_Handler
                0x000000000003e1d4                UsageFault_Handler
                0x000000000003e1d6                SVC_Handler
                0x000000000003e1d8                DebugMon_Handler
                0x000000000003e1da                PendSV_Handler
                0x000000000003e1dc                SysTick_Handler
                0x000000000003e1de                RTC0_IRQHandler
                0x000000000003e1de                SWI0_EGU0_IRQHandler
                0x000000000003e1de                PWM1_IRQHandler
                0x000000000003e1de                POWER_CLOCK_IRQHandler
                0x000000000003e1de                RADIO_IRQHandler
                0x000000000003e1de                PDM_IRQHandler
                0x000000000003e1de                TEMP_IRQHandler
                0x000000000003e1de                TIMER3_IRQHandler
                0x000000000003e1de                PWM3_IRQHandler
                0x000000000003e1de                FPU_IRQHandler
                0x000000000003e1de                USBD_IRQHandler
                0x000000000003e1de                SPIM0_SPIS0_TWIM0_TWIS0_SPI0_TWI0_IRQHandler
                0x000000000003e1de                UARTE0_UART0_IRQHandler
                0x000000000003e1de                TIMER4_IRQHandler
                0x000000000003e1de                CRYPTOCELL_IRQHandler
                0x000000000003e1de                I2S_IRQHandler
                0x000000000003e1de                SWI4_EGU4_IRQHandler
                0x000000000003e1de                TIMER0_IRQHandler
                0x000000000003e1de                UARTE1_IRQHandler
                0x000000000003e1de                TIMER1_IRQHandler
                0x000000000003e1de                SPIM3_IRQHandler
                0x000000000003e1de                PWM2_IRQHandler
                0x000000000003e1de                ECB_IRQHandler
                0x000000000003e1de                SPIM1_SPIS1_TWIM1_TWIS1_SPI1_TWI1_IRQHandler
                0x000000000003e1de                Default_Handler
                0x000000000003e1de                SAADC_IRQHandler
                0x000000000003e1de                CCM_AAR_IRQHandler
                0x000000000003e1de                WDT_IRQHandler
                0x000000000003e1de                SWI5_EGU5_IRQHandler
                0x000000000003e1de                RNG_IRQHandler
                0x000000000003e1de                RTC2_IRQHandler
                0x000000000003e1de                PWM0_IRQHandler
                0x000000000003e1de                SWI3_EGU3_IRQHandler
                0x000000000003e1de                RTC1_IRQHandler
                0x000000000003e1de                SWI1_EGU1_IRQHandler
                0x000000000003e1de                SPIM2_SPIS2_SPI2_IRQHandler
                0x000000000003e1de                NFCT_IRQHandler
                0x000000000003e1de                MWU_IRQHandler
                0x000000000003e1de                QSPI_IRQHandler
                0x000000000003e1de                COMP_LPCOMP_IRQHandler
 .text.app_error_handler_bare
                0x000000000003e1e0       0x20 CMakeFiles/light_switch_client_nrf52840_xxAA_s140_6.0.0.dir/home/mazzer/work/nordic/sdk/nRF5_SDK_15.0.0/components/libraries/util/app_error.c.obj
                0x000000000003e1e0                app_error_handler_bare
 .text.app_error_handler
                0x000000000003e200       0x1c CMakeFiles/light_switch_client_nrf52840_xxAA_s140_6.0.0.dir/home/mazzer/work/nordic/sdk/nRF5_SDK_15.0.0/components/libraries/util/app_error_handler_gcc.c.obj
                0x000000000003e200                app_error_handler
 .text.SEGGER_RTT_Write
                0x000000000003e21c      0x1f4 ../../../external/rtt/librtt_nrf52840_xxAA.a(SEGGER_RTT.c.obj)
                0x000000000003e21c                SEGGER_RTT_Write
 .text.SEGGER_RTT_GetKey
                0x000000000003e410       0xf8 ../../../external/rtt/librtt_nrf52840_xxAA.a(SEGGER_RTT.c.obj)
                0x000000000003e410                SEGGER_RTT_GetKey
 .text._PrintUnsigned
                0x000000000003e508      0x17c ../../../external/rtt/librtt_nrf52840_xxAA.a(SEGGER_RTT_printf.c.obj)
 .text.SEGGER_RTT_vprintf
                0x000000000003e684      0x524 ../../../external/rtt/librtt_nrf52840_xxAA.a(SEGGER_RTT_printf.c.obj)
                0x000000000003e684                SEGGER_RTT_vprintf
 .text.SEGGER_RTT_printf
                0x000000000003eba8       0x20 ../../../external/rtt/librtt_nrf52840_xxAA.a(SEGGER_RTT_printf.c.obj)
                0x000000000003eba8                SEGGER_RTT_printf
 .text.default_RNG
                0x000000000003ebc8        0xc ../../../external/micro-ecc/libuECC_nrf52840_xxAA.a(uECC.c.obj)
 .text.uECC_generate_random_int
                0x000000000003ebd4      0x17c ../../../external/micro-ecc/libuECC_nrf52840_xxAA.a(uECC.c.obj)
 .text.apply_z  0x000000000003ed50      0x1a8 ../../../external/micro-ecc/libuECC_nrf52840_xxAA.a(uECC.c.obj)
 .text.uECC_vli_modAdd
                0x000000000003eef8       0xd8 ../../../external/micro-ecc/libuECC_nrf52840_xxAA.a(uECC.c.obj)
 .text.x_side_default
                0x000000000003efd0      0x26c ../../../external/micro-ecc/libuECC_nrf52840_xxAA.a(uECC.c.obj)
 .text.vli_mmod_fast_secp256r1
                0x000000000003f23c      0x514 ../../../external/micro-ecc/libuECC_nrf52840_xxAA.a(uECC.c.obj)
 .text.XYcZ_add
                0x000000000003f750      0x6e0 ../../../external/micro-ecc/libuECC_nrf52840_xxAA.a(uECC.c.obj)
 .text.XYcZ_addC
                0x000000000003fe30      0xabc ../../../external/micro-ecc/libuECC_nrf52840_xxAA.a(uECC.c.obj)
 .text.uECC_vli_modInv.part.4
                0x00000000000408ec      0x71c ../../../external/micro-ecc/libuECC_nrf52840_xxAA.a(uECC.c.obj)
 .text.EccPoint_mult
                0x0000000000041008      0x4a4 ../../../external/micro-ecc/libuECC_nrf52840_xxAA.a(uECC.c.obj)
 .text.double_jacobian_default
                0x00000000000414ac      0x814 ../../../external/micro-ecc/libuECC_nrf52840_xxAA.a(uECC.c.obj)
 .text.uECC_secp256r1
                0x0000000000041cc0        0x8 ../../../external/micro-ecc/libuECC_nrf52840_xxAA.a(uECC.c.obj)
                0x0000000000041cc0                uECC_secp256r1
 .text.uECC_make_key
                0x0000000000041cc8      0x240 ../../../external/micro-ecc/libuECC_nrf52840_xxAA.a(uECC.c.obj)
                0x0000000000041cc8                uECC_make_key
 .text.uECC_shared_secret
                0x0000000000041f08      0x314 ../../../external/micro-ecc/libuECC_nrf52840_xxAA.a(uECC.c.obj)
                0x0000000000041f08                uECC_shared_secret
 .text.uECC_valid_public_key
                0x000000000004221c      0x230 ../../../external/micro-ecc/libuECC_nrf52840_xxAA.a(uECC.c.obj)
                0x000000000004221c                uECC_valid_public_key
 .text          0x000000000004244c       0x30 /usr/bin/../lib/gcc/arm-none-eabi/7.2.1/thumb/v7e-m/fpv4-sp/hard/libgcc.a(_aeabi_uldivmod.o)
                0x000000000004244c                __aeabi_uldivmod
 .text          0x000000000004247c      0x2cc /usr/bin/../lib/gcc/arm-none-eabi/7.2.1/thumb/v7e-m/fpv4-sp/hard/libgcc.a(_udivmoddi4.o)
                0x000000000004247c                __udivmoddi4
 .text          0x0000000000042748        0x4 /usr/bin/../lib/gcc/arm-none-eabi/7.2.1/thumb/v7e-m/fpv4-sp/hard/libgcc.a(_dvmd_tls.o)
                0x0000000000042748                __aeabi_ldiv0
                0x0000000000042748                __aeabi_idiv0
 .text.exit     0x000000000004274c       0x28 /usr/bin/../lib/gcc/arm-none-eabi/7.2.1/../../../../arm-none-eabi/lib/thumb/v7e-m/fpv4-sp/hard/libg_nano.a(lib_a-exit.o)
                0x000000000004274c                exit
 .text.__libc_init_array
                0x0000000000042774       0x48 /usr/bin/../lib/gcc/arm-none-eabi/7.2.1/../../../../arm-none-eabi/lib/thumb/v7e-m/fpv4-sp/hard/libg_nano.a(lib_a-init.o)
                0x0000000000042774                __libc_init_array
 .text.malloc   0x00000000000427bc       0x10 /usr/bin/../lib/gcc/arm-none-eabi/7.2.1/../../../../arm-none-eabi/lib/thumb/v7e-m/fpv4-sp/hard/libg_nano.a(lib_a-malloc.o)
                0x00000000000427bc                malloc
 .text.free     0x00000000000427cc       0x10 /usr/bin/../lib/gcc/arm-none-eabi/7.2.1/../../../../arm-none-eabi/lib/thumb/v7e-m/fpv4-sp/hard/libg_nano.a(lib_a-malloc.o)
                0x00000000000427cc                free
 .text.memcmp   0x00000000000427dc       0x1e /usr/bin/../lib/gcc/arm-none-eabi/7.2.1/../../../../arm-none-eabi/lib/thumb/v7e-m/fpv4-sp/hard/libg_nano.a(lib_a-memcmp.o)
                0x00000000000427dc                memcmp
 .text.memcpy   0x00000000000427fa       0x16 /usr/bin/../lib/gcc/arm-none-eabi/7.2.1/../../../../arm-none-eabi/lib/thumb/v7e-m/fpv4-sp/hard/libg_nano.a(lib_a-memcpy-stub.o)
                0x00000000000427fa                memcpy
 .text.memset   0x0000000000042810       0x10 /usr/bin/../lib/gcc/arm-none-eabi/7.2.1/../../../../arm-none-eabi/lib/thumb/v7e-m/fpv4-sp/hard/libg_nano.a(lib_a-memset.o)
                0x0000000000042810                memset
 .text._free_r  0x0000000000042820       0x9c /usr/bin/../lib/gcc/arm-none-eabi/7.2.1/../../../../arm-none-eabi/lib/thumb/v7e-m/fpv4-sp/hard/libg_nano.a(lib_a-nano-freer.o)
                0x0000000000042820                _free_r
 .text._malloc_r
                0x00000000000428bc       0xb4 /usr/bin/../lib/gcc/arm-none-eabi/7.2.1/../../../../arm-none-eabi/lib/thumb/v7e-m/fpv4-sp/hard/libg_nano.a(lib_a-nano-mallocr.o)
                0x00000000000428bc                _malloc_r
 .text._sbrk_r  0x0000000000042970       0x20 /usr/bin/../lib/gcc/arm-none-eabi/7.2.1/../../../../arm-none-eabi/lib/thumb/v7e-m/fpv4-sp/hard/libg_nano.a(lib_a-sbrkr.o)
                0x0000000000042970                _sbrk_r
 .text.strcpy   0x0000000000042990       0x10 /usr/bin/../lib/gcc/arm-none-eabi/7.2.1/../../../../arm-none-eabi/lib/thumb/v7e-m/fpv4-sp/hard/libg_nano.a(lib_a-strcpy.o)
                0x0000000000042990                strcpy
 .text          0x00000000000429a0       0x10 /usr/bin/../lib/gcc/arm-none-eabi/7.2.1/../../../../arm-none-eabi/lib/thumb/v7e-m/fpv4-sp/hard/libg_nano.a(lib_a-strlen.o)
                0x00000000000429a0                strlen
 .text.strrchr  0x00000000000429b0       0x28 /usr/bin/../lib/gcc/arm-none-eabi/7.2.1/../../../../arm-none-eabi/lib/thumb/v7e-m/fpv4-sp/hard/libg_nano.a(lib_a-strrchr.o)
                0x00000000000429b0                strrchr
 .text.__malloc_lock
                0x00000000000429d8        0x2 /usr/bin/../lib/gcc/arm-none-eabi/7.2.1/../../../../arm-none-eabi/lib/thumb/v7e-m/fpv4-sp/hard/libg_nano.a(lib_a-mlock.o)
                0x00000000000429d8                __malloc_lock
 .text.__malloc_unlock
                0x00000000000429da        0x2 /usr/bin/../lib/gcc/arm-none-eabi/7.2.1/../../../../arm-none-eabi/lib/thumb/v7e-m/fpv4-sp/hard/libg_nano.a(lib_a-mlock.o)
                0x00000000000429da                __malloc_unlock
 .text.strchr   0x00000000000429dc       0x1a /usr/bin/../lib/gcc/arm-none-eabi/7.2.1/../../../../arm-none-eabi/lib/thumb/v7e-m/fpv4-sp/hard/libg_nano.a(lib_a-strchr.o)
                0x00000000000429dc                strchr
 *fill*         0x00000000000429f6        0x2 
 .text._sbrk    0x00000000000429f8       0x1c /usr/bin/../lib/gcc/arm-none-eabi/7.2.1/../../../../arm-none-eabi/lib/thumb/v7e-m/fpv4-sp/hard/libnosys.a(sbrk.o)
                0x00000000000429f8                _sbrk
 .text._exit    0x0000000000042a14        0x4 /usr/bin/../lib/gcc/arm-none-eabi/7.2.1/../../../../arm-none-eabi/lib/thumb/v7e-m/fpv4-sp/hard/libnosys.a(_exit.o)
                0x0000000000042a14                _exit
 *(.init)
 .init          0x0000000000042a18        0x4 /usr/bin/../lib/gcc/arm-none-eabi/7.2.1/thumb/v7e-m/fpv4-sp/hard/crti.o
                0x0000000000042a18                _init
 .init          0x0000000000042a1c        0x8 /usr/bin/../lib/gcc/arm-none-eabi/7.2.1/thumb/v7e-m/fpv4-sp/hard/crtn.o
 *(.fini)
 .fini          0x0000000000042a24        0x4 /usr/bin/../lib/gcc/arm-none-eabi/7.2.1/thumb/v7e-m/fpv4-sp/hard/crti.o
                0x0000000000042a24                _fini
 .fini          0x0000000000042a28        0x8 /usr/bin/../lib/gcc/arm-none-eabi/7.2.1/thumb/v7e-m/fpv4-sp/hard/crtn.o
 *crtbegin.o(.ctors)
 *crtbegin?.o(.ctors)
 *(EXCLUDE_FILE(*crtend.o *crtend?.o) .ctors)
 *(SORT_BY_NAME(.ctors.*))
 *(.ctors)
 *crtbegin.o(.dtors)
 *crtbegin?.o(.dtors)
 *(EXCLUDE_FILE(*crtend.o *crtend?.o) .dtors)
 *(SORT_BY_NAME(.dtors.*))
 *(.dtors)
 *(.rodata*)
 .rodata.button_event_handler.str1.4
                0x0000000000042a30       0x56 CMakeFiles/light_switch_client_nrf52840_xxAA_s140_6.0.0.dir/src/main.c.obj
 *fill*         0x0000000000042a86        0x2 
 .rodata.client_publish_timeout_cb.str1.4
                0x0000000000042a88       0x1c CMakeFiles/light_switch_client_nrf52840_xxAA_s140_6.0.0.dir/src/main.c.obj
 .rodata.client_status_cb.str1.4
                0x0000000000042aa4       0x2d CMakeFiles/light_switch_client_nrf52840_xxAA_s140_6.0.0.dir/src/main.c.obj
 *fill*         0x0000000000042ad1        0x3 
 .rodata.config_server_evt_cb.str1.4
                0x0000000000042ad4       0x19 CMakeFiles/light_switch_client_nrf52840_xxAA_s140_6.0.0.dir/src/main.c.obj
 *fill*         0x0000000000042aed        0x3 
 .rodata.m_client_node_uuid
                0x0000000000042af0       0x10 CMakeFiles/light_switch_client_nrf52840_xxAA_s140_6.0.0.dir/src/main.c.obj
 .rodata.main.str1.4
                0x0000000000042b00       0x48 CMakeFiles/light_switch_client_nrf52840_xxAA_s140_6.0.0.dir/src/main.c.obj
 .rodata.models_init_cb.str1.4
                0x0000000000042b48       0x20 CMakeFiles/light_switch_client_nrf52840_xxAA_s140_6.0.0.dir/src/main.c.obj
 .rodata.provisioning_complete_cb.str1.4
                0x0000000000042b68       0x97 CMakeFiles/light_switch_client_nrf52840_xxAA_s140_6.0.0.dir/src/main.c.obj
 *fill*         0x0000000000042bff        0x1 
 .rodata.static_auth_data.12539
                0x0000000000042c00       0x10 CMakeFiles/light_switch_client_nrf52840_xxAA_s140_6.0.0.dir/src/main.c.obj
 .rodata.mesh_softdevice_init.str1.4
                0x0000000000042c10       0xe1 CMakeFiles/light_switch_client_nrf52840_xxAA_s140_6.0.0.dir/__/__/common/src/mesh_softdevice_init.c.obj
 *fill*         0x0000000000042cf1        0x3 
 .rodata        0x0000000000042cf4        0xb CMakeFiles/light_switch_client_nrf52840_xxAA_s140_6.0.0.dir/__/__/common/src/mesh_provisionee.c.obj
 *fill*         0x0000000000042cff        0x1 
 .rodata.delay_bytecode.8881
                0x0000000000042d00        0x6 CMakeFiles/light_switch_client_nrf52840_xxAA_s140_6.0.0.dir/__/__/common/src/simple_hal.c.obj
 *fill*         0x0000000000042d06        0x2 
 .rodata.m_buttons_list
                0x0000000000042d08        0x4 CMakeFiles/light_switch_client_nrf52840_xxAA_s140_6.0.0.dir/__/__/common/src/simple_hal.c.obj
 .rodata.app_error_fault_handler.str1.4
                0x0000000000042d0c       0xfd CMakeFiles/light_switch_client_nrf52840_xxAA_s140_6.0.0.dir/__/__/common/src/app_error_weak.c.obj
 .rodata.mesh_assertion_handler.str1.4
                0x0000000000042e09       0xfd CMakeFiles/light_switch_client_nrf52840_xxAA_s140_6.0.0.dir/__/__/common/src/assertion_handler_weak.c.obj
                                          0x1 (size before relaxing)
 *fill*         0x0000000000042e09        0x3 
 .rodata.sar_ctx_cancel.str1.4
                0x0000000000042e0c       0x23 CMakeFiles/light_switch_client_nrf52840_xxAA_s140_6.0.0.dir/__/__/__/mesh/core/src/transport.c.obj
 *fill*         0x0000000000042e2f        0x1 
 .rodata.transport_packet_in.str1.4
                0x0000000000042e30       0x24 CMakeFiles/light_switch_client_nrf52840_xxAA_s140_6.0.0.dir/__/__/__/mesh/core/src/transport.c.obj
 .rodata.upper_transport_access_packet_in.str1.4
                0x0000000000042e54       0x91 CMakeFiles/light_switch_client_nrf52840_xxAA_s140_6.0.0.dir/__/__/__/mesh/core/src/transport.c.obj
 *fill*         0x0000000000042ee5        0x3 
 .rodata.upper_transport_packet_in.str1.4
                0x0000000000042ee8       0x2e CMakeFiles/light_switch_client_nrf52840_xxAA_s140_6.0.0.dir/__/__/__/mesh/core/src/transport.c.obj
 *fill*         0x0000000000042f16        0x2 
 .rodata.upper_transport_tx.part.27.str1.4
                0x0000000000042f18        0xe CMakeFiles/light_switch_client_nrf52840_xxAA_s140_6.0.0.dir/__/__/__/mesh/core/src/transport.c.obj
                                         0x18 (size before relaxing)
 *fill*         0x0000000000042f26        0x2 
 .rodata.m_procedure_steps
                0x0000000000042f28       0x28 CMakeFiles/light_switch_client_nrf52840_xxAA_s140_6.0.0.dir/__/__/__/mesh/core/src/flash_manager_defrag.c.obj
 .rodata.m_all_operations
                0x0000000000042f50       0x10 CMakeFiles/light_switch_client_nrf52840_xxAA_s140_6.0.0.dir/__/__/__/mesh/core/src/mesh_flash.c.obj
 .rodata.types_lookup.9513
                0x0000000000042f60        0x4 CMakeFiles/light_switch_client_nrf52840_xxAA_s140_6.0.0.dir/__/__/__/mesh/core/src/nrf_mesh_utils.c.obj
 .rodata.__func__.11985
                0x0000000000042f64       0x15 CMakeFiles/light_switch_client_nrf52840_xxAA_s140_6.0.0.dir/__/__/__/mesh/core/src/nrf_mesh.c.obj
 *fill*         0x0000000000042f79        0x3 
 .rodata.nrf_mesh_listen.str1.4
                0x0000000000042f7c       0xab CMakeFiles/light_switch_client_nrf52840_xxAA_s140_6.0.0.dir/__/__/__/mesh/core/src/nrf_mesh.c.obj
 .rodata.nrf_mesh_packet_send.str1.4
                0x0000000000043027       0xab CMakeFiles/light_switch_client_nrf52840_xxAA_s140_6.0.0.dir/__/__/__/mesh/core/src/nrf_mesh.c.obj
                                          0x4 (size before relaxing)
 *fill*         0x0000000000043027        0x1 
 .rodata.CSWTCH.7
                0x0000000000043028       0x20 CMakeFiles/light_switch_client_nrf52840_xxAA_s140_6.0.0.dir/__/__/__/mesh/core/src/hal.c.obj
 .rodata        0x0000000000043048       0x18 CMakeFiles/light_switch_client_nrf52840_xxAA_s140_6.0.0.dir/__/__/__/mesh/core/src/enc.c.obj
 .rodata.network_packet_in.str1.4
                0x0000000000043060       0x81 CMakeFiles/light_switch_client_nrf52840_xxAA_s140_6.0.0.dir/__/__/__/mesh/core/src/network.c.obj
 *fill*         0x00000000000430e1        0x3 
 .rodata.net_packet_decrypt.str1.4
                0x00000000000430e4       0x6b CMakeFiles/light_switch_client_nrf52840_xxAA_s140_6.0.0.dir/__/__/__/mesh/core/src/net_packet.c.obj
                                         0x74 (size before relaxing)
 *fill*         0x000000000004314f        0x1 
 .rodata        0x0000000000043150        0x7 CMakeFiles/light_switch_client_nrf52840_xxAA_s140_6.0.0.dir/__/__/__/mesh/core/src/nrf_mesh_keygen.c.obj
 *fill*         0x0000000000043157        0x1 
 .rodata.log_callback_rtt.str1.4
                0x0000000000043158       0x15 CMakeFiles/light_switch_client_nrf52840_xxAA_s140_6.0.0.dir/__/__/__/mesh/core/src/log.c.obj
 *fill*         0x000000000004316d        0x3 
 .rodata.str1.4
                0x0000000000043170       0x11 CMakeFiles/light_switch_client_nrf52840_xxAA_s140_6.0.0.dir/__/__/__/mesh/core/src/log.c.obj
 *fill*         0x0000000000043181        0x3 
 .rodata.INVALID_HEADER
                0x0000000000043184        0x4 CMakeFiles/light_switch_client_nrf52840_xxAA_s140_6.0.0.dir/__/__/__/mesh/core/src/flash_manager.c.obj
                0x0000000000043184                INVALID_HEADER
 .rodata.PADDING_HEADER
                0x0000000000043188        0x4 CMakeFiles/light_switch_client_nrf52840_xxAA_s140_6.0.0.dir/__/__/__/mesh/core/src/flash_manager.c.obj
                0x0000000000043188                PADDING_HEADER
 .rodata.SEAL_HEADER
                0x000000000004318c        0x4 CMakeFiles/light_switch_client_nrf52840_xxAA_s140_6.0.0.dir/__/__/__/mesh/core/src/flash_manager.c.obj
                0x000000000004318c                SEAL_HEADER
 .rodata.beacon_packet_in.str1.4
                0x0000000000043190       0x8d CMakeFiles/light_switch_client_nrf52840_xxAA_s140_6.0.0.dir/__/__/__/mesh/core/src/beacon.c.obj
                                         0x98 (size before relaxing)
 *fill*         0x000000000004321d        0x3 
 .rodata.cp_handler
                0x0000000000043220        0x8 CMakeFiles/light_switch_client_nrf52840_xxAA_s140_6.0.0.dir/__/__/__/mesh/core/src/heartbeat.c.obj
 .rodata.beacon_tx.str1.4
                0x0000000000043228       0x6f CMakeFiles/light_switch_client_nrf52840_xxAA_s140_6.0.0.dir/__/__/__/mesh/core/src/net_beacon.c.obj
 *fill*         0x0000000000043297        0x1 
 .rodata.net_beacon_init.str1.4
                0x0000000000043298        0x5 CMakeFiles/light_switch_client_nrf52840_xxAA_s140_6.0.0.dir/__/__/__/mesh/core/src/net_beacon.c.obj
 *fill*         0x000000000004329d        0x3 
 .rodata.m_interface
                0x00000000000432a0        0xc CMakeFiles/light_switch_client_nrf52840_xxAA_s140_6.0.0.dir/__/__/__/mesh/core/src/core_tx_adv.c.obj
 .rodata.radio_mode_to_us_per_byte.9906
                0x00000000000432ac        0x6 CMakeFiles/light_switch_client_nrf52840_xxAA_s140_6.0.0.dir/__/__/__/mesh/bearer/src/broadcast.c.obj
 *fill*         0x00000000000432b2        0x2 
 .rodata.channel_rf_offsets.9124
                0x00000000000432b4       0x28 CMakeFiles/light_switch_client_nrf52840_xxAA_s140_6.0.0.dir/__/__/__/mesh/bearer/src/radio_config.c.obj
 .rodata.m_opcode_handlers
                0x00000000000432dc        0x8 CMakeFiles/light_switch_client_nrf52840_xxAA_s140_6.0.0.dir/__/__/__/models/simple_on_off/src/simple_on_off_client.c.obj
 .rodata        0x00000000000432e4        0x8 CMakeFiles/light_switch_client_nrf52840_xxAA_s140_6.0.0.dir/__/__/__/models/config/src/config_server.c.obj
 .rodata.CSWTCH.178
                0x00000000000432ec       0x10 CMakeFiles/light_switch_client_nrf52840_xxAA_s140_6.0.0.dir/__/__/__/models/config/src/config_server.c.obj
 .rodata.opcode_handlers
                0x00000000000432fc      0x170 CMakeFiles/light_switch_client_nrf52840_xxAA_s140_6.0.0.dir/__/__/__/models/config/src/config_server.c.obj
 .rodata.m_opcode_handlers
                0x000000000004346c       0x58 CMakeFiles/light_switch_client_nrf52840_xxAA_s140_6.0.0.dir/__/__/__/models/health/src/health_server.c.obj
 .rodata.multiply_de_bruijn_bit_position.9758
                0x00000000000434c4       0x20 CMakeFiles/light_switch_client_nrf52840_xxAA_s140_6.0.0.dir/__/__/__/models/health/src/health_server.c.obj
 .rodata.access_model_publish.str1.4
                0x00000000000434e4       0x1c CMakeFiles/light_switch_client_nrf52840_xxAA_s140_6.0.0.dir/__/__/__/mesh/access/src/access.c.obj
                                         0x24 (size before relaxing)
 .rodata.mesh_evt_cb.str1.4
                0x0000000000043500       0x67 CMakeFiles/light_switch_client_nrf52840_xxAA_s140_6.0.0.dir/__/__/__/mesh/access/src/access.c.obj
 *fill*         0x0000000000043567        0x1 
 .rodata.multiply_de_bruijn_bit_position.9714
                0x0000000000043568       0x20 CMakeFiles/light_switch_client_nrf52840_xxAA_s140_6.0.0.dir/__/__/__/mesh/access/src/access.c.obj
 .rodata.m_flash_groups
                0x0000000000043588       0xa8 CMakeFiles/light_switch_client_nrf52840_xxAA_s140_6.0.0.dir/__/__/__/mesh/access/src/device_state_manager.c.obj
 .rodata.multiply_de_bruijn_bit_position.9820
                0x0000000000043630       0x20 CMakeFiles/light_switch_client_nrf52840_xxAA_s140_6.0.0.dir/__/__/__/mesh/access/src/device_state_manager.c.obj
 .rodata.m_prov_callbacks
                0x0000000000043650       0x10 CMakeFiles/light_switch_client_nrf52840_xxAA_s140_6.0.0.dir/__/__/__/mesh/prov/src/prov_provisionee.c.obj
 .rodata.prov_provisionee_cb_ack_received.str1.4
                0x0000000000043660       0x8b CMakeFiles/light_switch_client_nrf52840_xxAA_s140_6.0.0.dir/__/__/__/mesh/prov/src/prov_provisionee.c.obj
 *fill*         0x00000000000436eb        0x1 
 .rodata.multiply_de_bruijn_bit_position.9767
                0x00000000000436ec       0x20 CMakeFiles/light_switch_client_nrf52840_xxAA_s140_6.0.0.dir/__/__/__/mesh/prov/src/nrf_mesh_prov.c.obj
 .rodata.pdu_sizes.11728
                0x000000000004370c        0xa CMakeFiles/light_switch_client_nrf52840_xxAA_s140_6.0.0.dir/__/__/__/mesh/prov/src/provisioning.c.obj
 *fill*         0x0000000000043716        0x2 
 .rodata.alphanumeric.11833
                0x0000000000043718       0x25 CMakeFiles/light_switch_client_nrf52840_xxAA_s140_6.0.0.dir/__/__/__/mesh/prov/src/prov_utils.c.obj
 *fill*         0x000000000004373d        0x3 
 .rodata.numeric_max.11827
                0x0000000000043740       0x24 CMakeFiles/light_switch_client_nrf52840_xxAA_s140_6.0.0.dir/__/__/__/mesh/prov/src/prov_utils.c.obj
 .rodata.prov_utils_authentication_values_derive.str1.4
                0x0000000000043764        0x5 CMakeFiles/light_switch_client_nrf52840_xxAA_s140_6.0.0.dir/__/__/__/mesh/prov/src/prov_utils.c.obj
 *fill*         0x0000000000043769        0x3 
 .rodata.prov_utils_derive_keys.str1.4
                0x000000000004376c       0x15 CMakeFiles/light_switch_client_nrf52840_xxAA_s140_6.0.0.dir/__/__/__/mesh/prov/src/prov_utils.c.obj
 *fill*         0x0000000000043781        0x3 
 .rodata.crctable.11462
                0x0000000000043784      0x100 CMakeFiles/light_switch_client_nrf52840_xxAA_s140_6.0.0.dir/__/__/__/mesh/prov/src/prov_bearer_adv.c.obj
 .rodata.interface.11692
                0x0000000000043884       0x14 CMakeFiles/light_switch_client_nrf52840_xxAA_s140_6.0.0.dir/__/__/__/mesh/prov/src/prov_bearer_adv.c.obj
 .rodata.prov_bearer_adv_listen.str1.4
                0x0000000000043898       0x88 CMakeFiles/light_switch_client_nrf52840_xxAA_s140_6.0.0.dir/__/__/__/mesh/prov/src/prov_bearer_adv.c.obj
 .rodata.prov_bearer_adv_packet_in.str1.4
                0x0000000000043920      0x283 CMakeFiles/light_switch_client_nrf52840_xxAA_s140_6.0.0.dir/__/__/__/mesh/prov/src/prov_bearer_adv.c.obj
 *fill*         0x0000000000043ba3        0x1 
 .rodata.tx_retry_cb.str1.4
                0x0000000000043ba4       0x14 CMakeFiles/light_switch_client_nrf52840_xxAA_s140_6.0.0.dir/__/__/__/mesh/prov/src/prov_bearer_adv.c.obj
 .rodata.SEGGER_RTT_ReadNoLock.str1.4
                0x0000000000043bb8       0x18 ../../../external/rtt/librtt_nrf52840_xxAA.a(SEGGER_RTT.c.obj)
                                         0x17 (size before relaxing)
 .rodata._aV2C.5639
                0x0000000000043bd0       0x10 ../../../external/rtt/librtt_nrf52840_xxAA.a(SEGGER_RTT_printf.c.obj)
 .rodata.curve_secp256r1
                0x0000000000043be0       0xb0 ../../../external/micro-ecc/libuECC_nrf52840_xxAA.a(uECC.c.obj)
 .rodata._global_impure_ptr
                0x0000000000043c90        0x4 /usr/bin/../lib/gcc/arm-none-eabi/7.2.1/../../../../arm-none-eabi/lib/thumb/v7e-m/fpv4-sp/hard/libg_nano.a(lib_a-impure.o)
                0x0000000000043c90                _global_impure_ptr
 *(.eh_frame*)
 .eh_frame      0x0000000000043c94        0x0 /usr/bin/../lib/gcc/arm-none-eabi/7.2.1/thumb/v7e-m/fpv4-sp/hard/crtbegin.o
 .eh_frame      0x0000000000043c94        0x4 /usr/bin/../lib/gcc/arm-none-eabi/7.2.1/thumb/v7e-m/fpv4-sp/hard/crtend.o

.glue_7         0x0000000000043c98        0x0
 .glue_7        0x0000000000043c98        0x0 linker stubs

.glue_7t        0x0000000000043c98        0x0
 .glue_7t       0x0000000000043c98        0x0 linker stubs

.vfp11_veneer   0x0000000000043c98        0x0
 .vfp11_veneer  0x0000000000043c98        0x0 linker stubs

.v4_bx          0x0000000000043c98        0x0
 .v4_bx         0x0000000000043c98        0x0 linker stubs

.iplt           0x0000000000043c98        0x0
 .iplt          0x0000000000043c98        0x0 /usr/bin/../lib/gcc/arm-none-eabi/7.2.1/thumb/v7e-m/fpv4-sp/hard/crtbegin.o

.pwr_mgmt_data  0x0000000000043c98        0x0
                [!provide]                        PROVIDE (__start_pwr_mgmt_data, .)
 *(SORT_BY_NAME(.pwr_mgmt_data*))
                [!provide]                        PROVIDE (__stop_pwr_mgmt_data, .)

.log_const_data
                0x0000000000043c98        0x0
                [!provide]                        PROVIDE (__start_log_const_data, .)
 *(.log_const_data)
                [!provide]                        PROVIDE (__stop_log_const_data, .)

.cli_command    0x0000000000043c98        0x0
                [!provide]                        PROVIDE (__start_cli_command, .)
 *(.cli_command)
                [!provide]                        PROVIDE (__stop_cli_command, .)

.sdh_stack_observers
                0x0000000000043c98        0x0
                [!provide]                        PROVIDE (__start_sdh_stack_observers, .)
 *(SORT_BY_NAME(.sdh_stack_observers*))
                [!provide]                        PROVIDE (__stop_sdh_stack_observers, .)

.sdh_req_observers
                0x0000000000043c98        0x0
                [!provide]                        PROVIDE (__start_sdh_req_observers, .)
 *(SORT_BY_NAME(.sdh_req_observers*))
                [!provide]                        PROVIDE (__stop_sdh_req_observers, .)

.sdh_state_observers
                0x0000000000043c98        0x0
                [!provide]                        PROVIDE (__start_sdh_state_observers, .)
 *(SORT_BY_NAME(.sdh_state_observers*))
                [!provide]                        PROVIDE (__stop_sdh_state_observers, .)

.sdh_ant_observers
                0x0000000000043c98        0x0
                [!provide]                        PROVIDE (__start_sdh_ant_observers, .)
 *(SORT_BY_NAME(.sdh_ant_observers*))
                [!provide]                        PROVIDE (__stop_sdh_ant_observers, .)

.sdh_ble_observers
                0x0000000000043c98        0x0
                [!provide]                        PROVIDE (__start_sdh_ble_observers, .)
 *(SORT_BY_NAME(.sdh_ble_observers*))
                [!provide]                        PROVIDE (__stop_sdh_ble_observers, .)

.sdh_soc_observers
                0x0000000000043c98        0x0
                [!provide]                        PROVIDE (__start_sdh_soc_observers, .)
 *(SORT_BY_NAME(.sdh_soc_observers*))
                [!provide]                        PROVIDE (__stop_sdh_soc_observers, .)

.ARM.extab
 *(.ARM.extab* .gnu.linkonce.armextab.*)
                0x0000000000043c98                __exidx_start = .

.ARM.exidx      0x0000000000043c98        0x8
 *(.ARM.exidx* .gnu.linkonce.armexidx.*)
 .ARM.exidx     0x0000000000043c98        0x8 /usr/bin/../lib/gcc/arm-none-eabi/7.2.1/../../../../arm-none-eabi/lib/thumb/v7e-m/fpv4-sp/hard/crt0.o
 .ARM.exidx     0x0000000000043ca0        0x0 /usr/bin/../lib/gcc/arm-none-eabi/7.2.1/thumb/v7e-m/fpv4-sp/hard/libgcc.a(_udivmoddi4.o)
                                          0x8 (size before relaxing)
                0x0000000000043ca0                __exidx_end = .
                0x0000000000043ca0                __etext = .

.rel.dyn        0x0000000000043ca0        0x0
 .rel.iplt      0x0000000000043ca0        0x0 /usr/bin/../lib/gcc/arm-none-eabi/7.2.1/thumb/v7e-m/fpv4-sp/hard/crtbegin.o

.data           0x00000000200032c8      0x140 load address 0x0000000000043ca0
                0x00000000200032c8                __data_start__ = .
 *(vtable)
 *(.data*)
 .data.s_evt_handler.11509
                0x00000000200032c8        0x8 CMakeFiles/light_switch_client_nrf52840_xxAA_s140_6.0.0.dir/__/__/__/mesh/stack/src/mesh_stack.c.obj
 .data.wait.9426
                0x00000000200032d0        0x1 CMakeFiles/light_switch_client_nrf52840_xxAA_s140_6.0.0.dir/__/__/common/src/app_error_weak.c.obj
 *fill*         0x00000000200032d1        0x3 
 .data.mem_listener.10264
                0x00000000200032d4       0x10 CMakeFiles/light_switch_client_nrf52840_xxAA_s140_6.0.0.dir/__/__/__/mesh/core/src/net_state.c.obj
 .data.mem_listener.10269
                0x00000000200032e4       0x10 CMakeFiles/light_switch_client_nrf52840_xxAA_s140_6.0.0.dir/__/__/__/mesh/core/src/net_state.c.obj
 .data.mem_listener.10283
                0x00000000200032f4       0x10 CMakeFiles/light_switch_client_nrf52840_xxAA_s140_6.0.0.dir/__/__/__/mesh/core/src/net_state.c.obj
 .data.mem_listener.10300
                0x0000000020003304       0x10 CMakeFiles/light_switch_client_nrf52840_xxAA_s140_6.0.0.dir/__/__/__/mesh/core/src/net_state.c.obj
 .data.m_nrf_mesh_listener
                0x0000000020003314        0xc CMakeFiles/light_switch_client_nrf52840_xxAA_s140_6.0.0.dir/__/__/__/mesh/core/src/nrf_mesh.c.obj
 .data.g_log_dbg_lvl
                0x0000000020003320        0x4 CMakeFiles/light_switch_client_nrf52840_xxAA_s140_6.0.0.dir/__/__/__/mesh/core/src/log.c.obj
                0x0000000020003320                g_log_dbg_lvl
 .data.g_log_dbg_msk
                0x0000000020003324        0x4 CMakeFiles/light_switch_client_nrf52840_xxAA_s140_6.0.0.dir/__/__/__/mesh/core/src/log.c.obj
                0x0000000020003324                g_log_dbg_msk
 .data.g_log_hex_digits
                0x0000000020003328        0x4 CMakeFiles/light_switch_client_nrf52840_xxAA_s140_6.0.0.dir/__/__/__/mesh/core/src/log.c.obj
                0x0000000020003328                g_log_hex_digits
 .data.m_log_callback
                0x000000002000332c        0x4 CMakeFiles/light_switch_client_nrf52840_xxAA_s140_6.0.0.dir/__/__/__/mesh/core/src/log.c.obj
                0x000000002000332c                m_log_callback
 .data.m_config_server_handle
                0x0000000020003330        0x2 CMakeFiles/light_switch_client_nrf52840_xxAA_s140_6.0.0.dir/__/__/__/models/config/src/config_server.c.obj
 *fill*         0x0000000020003332        0x2 
 .data.m_mesh_evt_handler
                0x0000000020003334        0x8 CMakeFiles/light_switch_client_nrf52840_xxAA_s140_6.0.0.dir/__/__/__/models/config/src/config_server.c.obj
 .data.flash_add_mem_available_struct.10838
                0x000000002000333c       0x10 CMakeFiles/light_switch_client_nrf52840_xxAA_s140_6.0.0.dir/__/__/__/mesh/access/src/access.c.obj
 .data.flash_clear_mem_available_struct.10927
                0x000000002000334c       0x10 CMakeFiles/light_switch_client_nrf52840_xxAA_s140_6.0.0.dir/__/__/__/mesh/access/src/access.c.obj
 .data.flash_store_mem_available_struct.10951
                0x000000002000335c       0x10 CMakeFiles/light_switch_client_nrf52840_xxAA_s140_6.0.0.dir/__/__/__/mesh/access/src/access.c.obj
 .data.m_default_ttl
                0x000000002000336c        0x1 CMakeFiles/light_switch_client_nrf52840_xxAA_s140_6.0.0.dir/__/__/__/mesh/access/src/access.c.obj
 *fill*         0x000000002000336d        0x3 
 .data.mem_listener.11127
                0x0000000020003370       0x10 CMakeFiles/light_switch_client_nrf52840_xxAA_s140_6.0.0.dir/__/__/__/mesh/access/src/device_state_manager.c.obj
 .data.mem_listener.11153
                0x0000000020003380       0x10 CMakeFiles/light_switch_client_nrf52840_xxAA_s140_6.0.0.dir/__/__/__/mesh/access/src/device_state_manager.c.obj
 .data.m_async_process_flag
                0x0000000020003390        0x4 CMakeFiles/light_switch_client_nrf52840_xxAA_s140_6.0.0.dir/__/__/__/mesh/prov/src/prov_bearer_adv.c.obj
 .data.SystemCoreClock
                0x0000000020003394        0x4 CMakeFiles/light_switch_client_nrf52840_xxAA_s140_6.0.0.dir/home/mazzer/work/nordic/sdk/nRF5_SDK_15.0.0/modules/nrfx/mdk/system_nrf52840.c.obj
                0x0000000020003394                SystemCoreClock
 .data.g_rng_function
                0x0000000020003398        0x4 ../../../external/micro-ecc/libuECC_nrf52840_xxAA.a(uECC.c.obj)
 .data._impure_ptr
                0x000000002000339c        0x4 /usr/bin/../lib/gcc/arm-none-eabi/7.2.1/../../../../arm-none-eabi/lib/thumb/v7e-m/fpv4-sp/hard/libg_nano.a(lib_a-impure.o)
                0x000000002000339c                _impure_ptr
 .data.impure_data
                0x00000000200033a0       0x60 /usr/bin/../lib/gcc/arm-none-eabi/7.2.1/../../../../arm-none-eabi/lib/thumb/v7e-m/fpv4-sp/hard/libg_nano.a(lib_a-impure.o)
                0x0000000020003400                . = ALIGN (0x4)
                0x0000000020003400                PROVIDE (__preinit_array_start, .)
 *(.preinit_array)
                0x0000000020003400                PROVIDE (__preinit_array_end, .)
                0x0000000020003400                . = ALIGN (0x4)
                0x0000000020003400                PROVIDE (__init_array_start, .)
 *(SORT_BY_NAME(.init_array.*))
 *(.init_array)
 .init_array    0x0000000020003400        0x4 /usr/bin/../lib/gcc/arm-none-eabi/7.2.1/thumb/v7e-m/fpv4-sp/hard/crtbegin.o
                0x0000000020003404                PROVIDE (__init_array_end, .)
                0x0000000020003404                . = ALIGN (0x4)
                [!provide]                        PROVIDE (__fini_array_start, .)
 *(SORT_BY_NAME(.fini_array.*))
 *(.fini_array)
 .fini_array    0x0000000020003404        0x4 /usr/bin/../lib/gcc/arm-none-eabi/7.2.1/thumb/v7e-m/fpv4-sp/hard/crtbegin.o
                [!provide]                        PROVIDE (__fini_array_end, .)
 *(.jcr*)
                0x0000000020003408                . = ALIGN (0x4)
                0x0000000020003408                __data_end__ = .
LOAD /usr/bin/../lib/gcc/arm-none-eabi/7.2.1/thumb/v7e-m/fpv4-sp/hard/crti.o
LOAD /usr/bin/../lib/gcc/arm-none-eabi/7.2.1/thumb/v7e-m/fpv4-sp/hard/crtbegin.o
LOAD /usr/bin/../lib/gcc/arm-none-eabi/7.2.1/../../../../arm-none-eabi/lib/thumb/v7e-m/fpv4-sp/hard/crt0.o
LOAD CMakeFiles/light_switch_client_nrf52840_xxAA_s140_6.0.0.dir/src/main.c.obj
LOAD CMakeFiles/light_switch_client_nrf52840_xxAA_s140_6.0.0.dir/__/__/__/mesh/stack/src/mesh_stack.c.obj
LOAD CMakeFiles/light_switch_client_nrf52840_xxAA_s140_6.0.0.dir/__/__/common/src/mesh_softdevice_init.c.obj
LOAD CMakeFiles/light_switch_client_nrf52840_xxAA_s140_6.0.0.dir/__/__/common/src/mesh_provisionee.c.obj
LOAD CMakeFiles/light_switch_client_nrf52840_xxAA_s140_6.0.0.dir/__/__/common/src/rtt_input.c.obj
LOAD CMakeFiles/light_switch_client_nrf52840_xxAA_s140_6.0.0.dir/__/__/common/src/simple_hal.c.obj
LOAD CMakeFiles/light_switch_client_nrf52840_xxAA_s140_6.0.0.dir/__/__/nrf_mesh_weak.c.obj
LOAD CMakeFiles/light_switch_client_nrf52840_xxAA_s140_6.0.0.dir/__/__/common/src/app_error_weak.c.obj
LOAD CMakeFiles/light_switch_client_nrf52840_xxAA_s140_6.0.0.dir/__/__/common/src/assertion_handler_weak.c.obj
LOAD CMakeFiles/light_switch_client_nrf52840_xxAA_s140_6.0.0.dir/__/__/__/mesh/core/src/internal_event.c.obj
LOAD CMakeFiles/light_switch_client_nrf52840_xxAA_s140_6.0.0.dir/__/__/__/mesh/core/src/nrf_mesh_configure.c.obj
LOAD CMakeFiles/light_switch_client_nrf52840_xxAA_s140_6.0.0.dir/__/__/__/mesh/core/src/aes.c.obj
LOAD CMakeFiles/light_switch_client_nrf52840_xxAA_s140_6.0.0.dir/__/__/__/mesh/core/src/msg_cache.c.obj
LOAD CMakeFiles/light_switch_client_nrf52840_xxAA_s140_6.0.0.dir/__/__/__/mesh/core/src/transport.c.obj
LOAD CMakeFiles/light_switch_client_nrf52840_xxAA_s140_6.0.0.dir/__/__/__/mesh/core/src/event.c.obj
LOAD CMakeFiles/light_switch_client_nrf52840_xxAA_s140_6.0.0.dir/__/__/__/mesh/core/src/packet_buffer.c.obj
LOAD CMakeFiles/light_switch_client_nrf52840_xxAA_s140_6.0.0.dir/__/__/__/mesh/core/src/flash_manager_defrag.c.obj
LOAD CMakeFiles/light_switch_client_nrf52840_xxAA_s140_6.0.0.dir/__/__/__/mesh/core/src/fifo.c.obj
LOAD CMakeFiles/light_switch_client_nrf52840_xxAA_s140_6.0.0.dir/__/__/__/mesh/core/src/nrf_flash.c.obj
LOAD CMakeFiles/light_switch_client_nrf52840_xxAA_s140_6.0.0.dir/__/__/__/mesh/core/src/packet_mgr.c.obj
LOAD CMakeFiles/light_switch_client_nrf52840_xxAA_s140_6.0.0.dir/__/__/__/mesh/core/src/net_state.c.obj
LOAD CMakeFiles/light_switch_client_nrf52840_xxAA_s140_6.0.0.dir/__/__/__/mesh/core/src/mesh_flash.c.obj
LOAD CMakeFiles/light_switch_client_nrf52840_xxAA_s140_6.0.0.dir/__/__/__/mesh/core/src/nrf_mesh_utils.c.obj
LOAD CMakeFiles/light_switch_client_nrf52840_xxAA_s140_6.0.0.dir/__/__/__/mesh/core/src/nrf_mesh.c.obj
LOAD CMakeFiles/light_switch_client_nrf52840_xxAA_s140_6.0.0.dir/__/__/__/mesh/core/src/queue.c.obj
LOAD CMakeFiles/light_switch_client_nrf52840_xxAA_s140_6.0.0.dir/__/__/__/mesh/core/src/hal.c.obj
LOAD CMakeFiles/light_switch_client_nrf52840_xxAA_s140_6.0.0.dir/__/__/__/mesh/core/src/aes_cmac.c.obj
LOAD CMakeFiles/light_switch_client_nrf52840_xxAA_s140_6.0.0.dir/__/__/__/mesh/core/src/timer_scheduler.c.obj
LOAD CMakeFiles/light_switch_client_nrf52840_xxAA_s140_6.0.0.dir/__/__/__/mesh/core/src/timer.c.obj
LOAD CMakeFiles/light_switch_client_nrf52840_xxAA_s140_6.0.0.dir/__/__/__/mesh/core/src/ticker.c.obj
LOAD CMakeFiles/light_switch_client_nrf52840_xxAA_s140_6.0.0.dir/__/__/__/mesh/core/src/rand.c.obj
LOAD CMakeFiles/light_switch_client_nrf52840_xxAA_s140_6.0.0.dir/__/__/__/mesh/core/src/nrf_mesh_opt.c.obj
LOAD CMakeFiles/light_switch_client_nrf52840_xxAA_s140_6.0.0.dir/__/__/__/mesh/core/src/timeslot.c.obj
LOAD CMakeFiles/light_switch_client_nrf52840_xxAA_s140_6.0.0.dir/__/__/__/mesh/core/src/bearer_event.c.obj
LOAD CMakeFiles/light_switch_client_nrf52840_xxAA_s140_6.0.0.dir/__/__/__/mesh/core/src/enc.c.obj
LOAD CMakeFiles/light_switch_client_nrf52840_xxAA_s140_6.0.0.dir/__/__/__/mesh/core/src/network.c.obj
LOAD CMakeFiles/light_switch_client_nrf52840_xxAA_s140_6.0.0.dir/__/__/__/mesh/core/src/net_packet.c.obj
LOAD CMakeFiles/light_switch_client_nrf52840_xxAA_s140_6.0.0.dir/__/__/__/mesh/core/src/msqueue.c.obj
LOAD CMakeFiles/light_switch_client_nrf52840_xxAA_s140_6.0.0.dir/__/__/__/mesh/core/src/nrf_mesh_keygen.c.obj
LOAD CMakeFiles/light_switch_client_nrf52840_xxAA_s140_6.0.0.dir/__/__/__/mesh/core/src/cache.c.obj
LOAD CMakeFiles/light_switch_client_nrf52840_xxAA_s140_6.0.0.dir/__/__/__/mesh/core/src/uri.c.obj
LOAD CMakeFiles/light_switch_client_nrf52840_xxAA_s140_6.0.0.dir/__/__/__/mesh/core/src/list.c.obj
LOAD CMakeFiles/light_switch_client_nrf52840_xxAA_s140_6.0.0.dir/__/__/__/mesh/core/src/log.c.obj
LOAD CMakeFiles/light_switch_client_nrf52840_xxAA_s140_6.0.0.dir/__/__/__/mesh/core/src/flash_manager.c.obj
LOAD CMakeFiles/light_switch_client_nrf52840_xxAA_s140_6.0.0.dir/__/__/__/mesh/core/src/ccm_soft.c.obj
LOAD CMakeFiles/light_switch_client_nrf52840_xxAA_s140_6.0.0.dir/__/__/__/mesh/core/src/toolchain.c.obj
LOAD CMakeFiles/light_switch_client_nrf52840_xxAA_s140_6.0.0.dir/__/__/__/mesh/core/src/replay_cache.c.obj
LOAD CMakeFiles/light_switch_client_nrf52840_xxAA_s140_6.0.0.dir/__/__/__/mesh/core/src/beacon.c.obj
LOAD CMakeFiles/light_switch_client_nrf52840_xxAA_s140_6.0.0.dir/__/__/__/mesh/core/src/flash_manager_internal.c.obj
LOAD CMakeFiles/light_switch_client_nrf52840_xxAA_s140_6.0.0.dir/__/__/__/mesh/core/src/core_tx.c.obj
LOAD CMakeFiles/light_switch_client_nrf52840_xxAA_s140_6.0.0.dir/__/__/__/mesh/core/src/heartbeat.c.obj
LOAD CMakeFiles/light_switch_client_nrf52840_xxAA_s140_6.0.0.dir/__/__/__/mesh/core/src/net_beacon.c.obj
LOAD CMakeFiles/light_switch_client_nrf52840_xxAA_s140_6.0.0.dir/__/__/__/mesh/core/src/fsm.c.obj
LOAD CMakeFiles/light_switch_client_nrf52840_xxAA_s140_6.0.0.dir/__/__/__/mesh/core/src/core_tx_adv.c.obj
LOAD CMakeFiles/light_switch_client_nrf52840_xxAA_s140_6.0.0.dir/__/__/__/mesh/bearer/src/ad_listener.c.obj
LOAD CMakeFiles/light_switch_client_nrf52840_xxAA_s140_6.0.0.dir/__/__/__/mesh/bearer/src/ad_type_filter.c.obj
LOAD CMakeFiles/light_switch_client_nrf52840_xxAA_s140_6.0.0.dir/__/__/__/mesh/bearer/src/adv_packet_filter.c.obj
LOAD CMakeFiles/light_switch_client_nrf52840_xxAA_s140_6.0.0.dir/__/__/__/mesh/bearer/src/advertiser.c.obj
LOAD CMakeFiles/light_switch_client_nrf52840_xxAA_s140_6.0.0.dir/__/__/__/mesh/bearer/src/bearer_handler.c.obj
LOAD CMakeFiles/light_switch_client_nrf52840_xxAA_s140_6.0.0.dir/__/__/__/mesh/bearer/src/broadcast.c.obj
LOAD CMakeFiles/light_switch_client_nrf52840_xxAA_s140_6.0.0.dir/__/__/__/mesh/bearer/src/filter_engine.c.obj
LOAD CMakeFiles/light_switch_client_nrf52840_xxAA_s140_6.0.0.dir/__/__/__/mesh/bearer/src/gap_address_filter.c.obj
LOAD CMakeFiles/light_switch_client_nrf52840_xxAA_s140_6.0.0.dir/__/__/__/mesh/bearer/src/radio_config.c.obj
LOAD CMakeFiles/light_switch_client_nrf52840_xxAA_s140_6.0.0.dir/__/__/__/mesh/bearer/src/rssi_filter.c.obj
LOAD CMakeFiles/light_switch_client_nrf52840_xxAA_s140_6.0.0.dir/__/__/__/mesh/bearer/src/scanner.c.obj
LOAD CMakeFiles/light_switch_client_nrf52840_xxAA_s140_6.0.0.dir/__/__/__/models/simple_on_off/src/simple_on_off_client.c.obj
LOAD CMakeFiles/light_switch_client_nrf52840_xxAA_s140_6.0.0.dir/__/__/__/models/config/src/composition_data.c.obj
LOAD CMakeFiles/light_switch_client_nrf52840_xxAA_s140_6.0.0.dir/__/__/__/models/config/src/config_server.c.obj
LOAD CMakeFiles/light_switch_client_nrf52840_xxAA_s140_6.0.0.dir/__/__/__/models/config/src/packed_index_list.c.obj
LOAD CMakeFiles/light_switch_client_nrf52840_xxAA_s140_6.0.0.dir/__/__/__/models/health/src/health_server.c.obj
LOAD CMakeFiles/light_switch_client_nrf52840_xxAA_s140_6.0.0.dir/__/__/__/mesh/access/src/access_publish.c.obj
LOAD CMakeFiles/light_switch_client_nrf52840_xxAA_s140_6.0.0.dir/__/__/__/mesh/access/src/access.c.obj
LOAD CMakeFiles/light_switch_client_nrf52840_xxAA_s140_6.0.0.dir/__/__/__/mesh/access/src/access_reliable.c.obj
LOAD CMakeFiles/light_switch_client_nrf52840_xxAA_s140_6.0.0.dir/__/__/__/mesh/access/src/device_state_manager.c.obj
LOAD CMakeFiles/light_switch_client_nrf52840_xxAA_s140_6.0.0.dir/__/__/__/mesh/prov/src/prov_provisionee.c.obj
LOAD CMakeFiles/light_switch_client_nrf52840_xxAA_s140_6.0.0.dir/__/__/__/mesh/prov/src/nrf_mesh_prov.c.obj
LOAD CMakeFiles/light_switch_client_nrf52840_xxAA_s140_6.0.0.dir/__/__/__/mesh/prov/src/provisioning.c.obj
LOAD CMakeFiles/light_switch_client_nrf52840_xxAA_s140_6.0.0.dir/__/__/__/mesh/prov/src/prov_beacon.c.obj
LOAD CMakeFiles/light_switch_client_nrf52840_xxAA_s140_6.0.0.dir/__/__/__/mesh/prov/src/prov_utils.c.obj
LOAD CMakeFiles/light_switch_client_nrf52840_xxAA_s140_6.0.0.dir/__/__/__/mesh/prov/src/prov_bearer_adv.c.obj
LOAD CMakeFiles/light_switch_client_nrf52840_xxAA_s140_6.0.0.dir/home/mazzer/work/nordic/sdk/nRF5_SDK_15.0.0/modules/nrfx/mdk/system_nrf52840.c.obj
LOAD CMakeFiles/light_switch_client_nrf52840_xxAA_s140_6.0.0.dir/home/mazzer/work/nordic/sdk/nRF5_SDK_15.0.0/modules/nrfx/mdk/gcc_startup_nrf52840.S.obj
LOAD CMakeFiles/light_switch_client_nrf52840_xxAA_s140_6.0.0.dir/home/mazzer/work/nordic/sdk/nRF5_SDK_15.0.0/components/libraries/util/app_error.c.obj
LOAD CMakeFiles/light_switch_client_nrf52840_xxAA_s140_6.0.0.dir/home/mazzer/work/nordic/sdk/nRF5_SDK_15.0.0/components/libraries/util/app_error_handler_gcc.c.obj
LOAD ../../../external/rtt/librtt_nrf52840_xxAA.a
LOAD ../../../external/micro-ecc/libuECC_nrf52840_xxAA.a
START GROUP
LOAD /usr/bin/../lib/gcc/arm-none-eabi/7.2.1/thumb/v7e-m/fpv4-sp/hard/libgcc.a
LOAD /usr/bin/../lib/gcc/arm-none-eabi/7.2.1/../../../../arm-none-eabi/lib/thumb/v7e-m/fpv4-sp/hard/libg_nano.a
LOAD /usr/bin/../lib/gcc/arm-none-eabi/7.2.1/../../../../arm-none-eabi/lib/thumb/v7e-m/fpv4-sp/hard/libc_nano.a
END GROUP
START GROUP
LOAD /usr/bin/../lib/gcc/arm-none-eabi/7.2.1/thumb/v7e-m/fpv4-sp/hard/libgcc.a
LOAD /usr/bin/../lib/gcc/arm-none-eabi/7.2.1/../../../../arm-none-eabi/lib/thumb/v7e-m/fpv4-sp/hard/libc_nano.a
END GROUP
LOAD /usr/bin/../lib/gcc/arm-none-eabi/7.2.1/thumb/v7e-m/fpv4-sp/hard/crtend.o
LOAD /usr/bin/../lib/gcc/arm-none-eabi/7.2.1/thumb/v7e-m/fpv4-sp/hard/crtn.o
START GROUP
LOAD /usr/bin/../lib/gcc/arm-none-eabi/7.2.1/thumb/v7e-m/fpv4-sp/hard/libgcc.a
LOAD /usr/bin/../lib/gcc/arm-none-eabi/7.2.1/../../../../arm-none-eabi/lib/thumb/v7e-m/fpv4-sp/hard/libc.a
LOAD /usr/bin/../lib/gcc/arm-none-eabi/7.2.1/../../../../arm-none-eabi/lib/thumb/v7e-m/fpv4-sp/hard/libnosys.a
END GROUP

.igot.plt       0x0000000020003408        0x0 load address 0x0000000000043de0
 .igot.plt      0x0000000020003408        0x0 /usr/bin/../lib/gcc/arm-none-eabi/7.2.1/thumb/v7e-m/fpv4-sp/hard/crtbegin.o
                0x0000000020003408                . = ALIGN (0x4)

.svc_data       0x0000000020003408        0x0
                [!provide]                        PROVIDE (__start_svc_data, .)
 *(.svc_data)
                [!provide]                        PROVIDE (__stop_svc_data, .)

.fs_data        0x0000000020003408        0x0
                [!provide]                        PROVIDE (__start_fs_data, .)
 *(.fs_data)
                [!provide]                        PROVIDE (__stop_fs_data, .)

.log_dynamic_data
                0x0000000020003408        0x0
                [!provide]                        PROVIDE (__start_log_dynamic_data, .)
 *(.log_dynamic_data)
                [!provide]                        PROVIDE (__stop_log_dynamic_data, .)

.cli_sorted_cmd_ptrs
                0x0000000020003408        0x0
                [!provide]                        PROVIDE (__start_cli_sorted_cmd_ptrs, .)
 *(.cli_sorted_cmd_ptrs)
                [!provide]                        PROVIDE (__stop_cli_sorted_cmd_ptrs, .)

.bss            0x0000000020003408     0x30f0 load address 0x0000000000043de0
                0x0000000020003408                . = ALIGN (0x4)
                0x0000000020003408                __bss_start__ = .
 *(.bss*)
 .bss           0x0000000020003408       0x1c /usr/bin/../lib/gcc/arm-none-eabi/7.2.1/thumb/v7e-m/fpv4-sp/hard/crtbegin.o
 .bss.m_clients
                0x0000000020003424       0x40 CMakeFiles/light_switch_client_nrf52840_xxAA_s140_6.0.0.dir/src/main.c.obj
 .bss.m_device_provisioned
                0x0000000020003464        0x1 CMakeFiles/light_switch_client_nrf52840_xxAA_s140_6.0.0.dir/src/main.c.obj
 *fill*         0x0000000020003465        0x3 
 .bss.m_health_server
                0x0000000020003468       0x5c CMakeFiles/light_switch_client_nrf52840_xxAA_s140_6.0.0.dir/__/__/__/mesh/stack/src/mesh_stack.c.obj
 .bss.m_init_params
                0x00000000200034c4       0x24 CMakeFiles/light_switch_client_nrf52840_xxAA_s140_6.0.0.dir/__/__/__/mesh/stack/src/mesh_stack.c.obj
 .bss.m_device_provisioned
                0x00000000200034e8        0x1 CMakeFiles/light_switch_client_nrf52840_xxAA_s140_6.0.0.dir/__/__/common/src/mesh_provisionee.c.obj
 *fill*         0x00000000200034e9        0x3 
 .bss.m_params  0x00000000200034ec        0xc CMakeFiles/light_switch_client_nrf52840_xxAA_s140_6.0.0.dir/__/__/common/src/mesh_provisionee.c.obj
 .bss.m_private_key
                0x00000000200034f8       0x20 CMakeFiles/light_switch_client_nrf52840_xxAA_s140_6.0.0.dir/__/__/common/src/mesh_provisionee.c.obj
 .bss.m_prov_bearer_adv
                0x0000000020003518      0x1c4 CMakeFiles/light_switch_client_nrf52840_xxAA_s140_6.0.0.dir/__/__/common/src/mesh_provisionee.c.obj
 .bss.m_prov_ctx
                0x00000000200036dc      0x134 CMakeFiles/light_switch_client_nrf52840_xxAA_s140_6.0.0.dir/__/__/common/src/mesh_provisionee.c.obj
 .bss.m_public_key
                0x0000000020003810       0x40 CMakeFiles/light_switch_client_nrf52840_xxAA_s140_6.0.0.dir/__/__/common/src/mesh_provisionee.c.obj
 .bss.m_rtt_input_handler
                0x0000000020003850        0x4 CMakeFiles/light_switch_client_nrf52840_xxAA_s140_6.0.0.dir/__/__/common/src/rtt_input.c.obj
 .bss.m_button_handler_cb
                0x0000000020003854        0x4 CMakeFiles/light_switch_client_nrf52840_xxAA_s140_6.0.0.dir/__/__/common/src/simple_hal.c.obj
 .bss.m_last_button_press
                0x0000000020003858        0x4 CMakeFiles/light_switch_client_nrf52840_xxAA_s140_6.0.0.dir/__/__/common/src/simple_hal.c.obj
 .bss.m_uuid    0x000000002000385c       0x10 CMakeFiles/light_switch_client_nrf52840_xxAA_s140_6.0.0.dir/__/__/__/mesh/core/src/nrf_mesh_configure.c.obj
 .bss.m_msg_cache
                0x000000002000386c      0x100 CMakeFiles/light_switch_client_nrf52840_xxAA_s140_6.0.0.dir/__/__/__/mesh/core/src/msg_cache.c.obj
 .bss.m_msg_cache_head
                0x000000002000396c        0x4 CMakeFiles/light_switch_client_nrf52840_xxAA_s140_6.0.0.dir/__/__/__/mesh/core/src/msg_cache.c.obj
 .bss.m_control_packet_consumer_count
                0x0000000020003970        0x4 CMakeFiles/light_switch_client_nrf52840_xxAA_s140_6.0.0.dir/__/__/__/mesh/core/src/transport.c.obj
 .bss.m_control_packet_consumers
                0x0000000020003974        0x8 CMakeFiles/light_switch_client_nrf52840_xxAA_s140_6.0.0.dir/__/__/__/mesh/core/src/transport.c.obj
 .bss.m_sar_alloc
                0x000000002000397c        0x4 CMakeFiles/light_switch_client_nrf52840_xxAA_s140_6.0.0.dir/__/__/__/mesh/core/src/transport.c.obj
 .bss.m_sar_process_flag
                0x0000000020003980        0x4 CMakeFiles/light_switch_client_nrf52840_xxAA_s140_6.0.0.dir/__/__/__/mesh/core/src/transport.c.obj
 .bss.m_sar_release
                0x0000000020003984        0x4 CMakeFiles/light_switch_client_nrf52840_xxAA_s140_6.0.0.dir/__/__/__/mesh/core/src/transport.c.obj
 .bss.m_sar_session_cache
                0x0000000020003988       0x40 CMakeFiles/light_switch_client_nrf52840_xxAA_s140_6.0.0.dir/__/__/__/mesh/core/src/transport.c.obj
 .bss.m_sar_session_cache_head
                0x00000000200039c8        0x4 CMakeFiles/light_switch_client_nrf52840_xxAA_s140_6.0.0.dir/__/__/__/mesh/core/src/transport.c.obj
 .bss.m_trs_config
                0x00000000200039cc       0x18 CMakeFiles/light_switch_client_nrf52840_xxAA_s140_6.0.0.dir/__/__/__/mesh/core/src/transport.c.obj
 .bss.m_trs_sar_sessions
                0x00000000200039e4      0x1b0 CMakeFiles/light_switch_client_nrf52840_xxAA_s140_6.0.0.dir/__/__/__/mesh/core/src/transport.c.obj
 .bss.mp_evt_handlers_head
                0x0000000020003b94        0x4 CMakeFiles/light_switch_client_nrf52840_xxAA_s140_6.0.0.dir/__/__/__/mesh/core/src/event.c.obj
 .bss.m_defrag  0x0000000020003b98       0x1c CMakeFiles/light_switch_client_nrf52840_xxAA_s140_6.0.0.dir/__/__/__/mesh/core/src/flash_manager_defrag.c.obj
 .bss.m_token   0x0000000020003bb4        0x2 CMakeFiles/light_switch_client_nrf52840_xxAA_s140_6.0.0.dir/__/__/__/mesh/core/src/flash_manager_defrag.c.obj
 *fill*         0x0000000020003bb6        0x2 
 .bss.mp_recovery_area
                0x0000000020003bb8        0x4 CMakeFiles/light_switch_client_nrf52840_xxAA_s140_6.0.0.dir/__/__/__/mesh/core/src/flash_manager_defrag.c.obj
 .bss.p_null_ptr.10695
                0x0000000020003bbc        0x4 CMakeFiles/light_switch_client_nrf52840_xxAA_s140_6.0.0.dir/__/__/__/mesh/core/src/flash_manager_defrag.c.obj
 .bss.m_pool    0x0000000020003bc0     0x1000 CMakeFiles/light_switch_client_nrf52840_xxAA_s140_6.0.0.dir/__/__/__/mesh/core/src/packet_mgr.c.obj
 .bss.mp_free_head
                0x0000000020004bc0        0x4 CMakeFiles/light_switch_client_nrf52840_xxAA_s140_6.0.0.dir/__/__/__/mesh/core/src/packet_mgr.c.obj
 .bss.iv_state_set.10350
                0x0000000020004bc4        0x1 CMakeFiles/light_switch_client_nrf52840_xxAA_s140_6.0.0.dir/__/__/__/mesh/core/src/net_state.c.obj
 *fill*         0x0000000020004bc5        0x3 
 .bss.lock_count.10326
                0x0000000020004bc8        0x4 CMakeFiles/light_switch_client_nrf52840_xxAA_s140_6.0.0.dir/__/__/__/mesh/core/src/net_state.c.obj
 .bss.m_flash_manager
                0x0000000020004bcc       0x24 CMakeFiles/light_switch_client_nrf52840_xxAA_s140_6.0.0.dir/__/__/__/mesh/core/src/net_state.c.obj
 .bss.m_iv_update_timer
                0x0000000020004bf0       0x18 CMakeFiles/light_switch_client_nrf52840_xxAA_s140_6.0.0.dir/__/__/__/mesh/core/src/net_state.c.obj
 .bss.m_mesh_evt_handler
                0x0000000020004c08        0x8 CMakeFiles/light_switch_client_nrf52840_xxAA_s140_6.0.0.dir/__/__/__/mesh/core/src/net_state.c.obj
 .bss.m_net_state
                0x0000000020004c10       0x14 CMakeFiles/light_switch_client_nrf52840_xxAA_s140_6.0.0.dir/__/__/__/mesh/core/src/net_state.c.obj
 .bss.m_seqnum_allocation_in_progress
                0x0000000020004c24        0x1 CMakeFiles/light_switch_client_nrf52840_xxAA_s140_6.0.0.dir/__/__/__/mesh/core/src/net_state.c.obj
 .bss.m_test_mode
                0x0000000020004c25        0x1 CMakeFiles/light_switch_client_nrf52840_xxAA_s140_6.0.0.dir/__/__/__/mesh/core/src/net_state.c.obj
 *fill*         0x0000000020004c26        0x2 
 .bss.m_event_flag
                0x0000000020004c28        0x4 CMakeFiles/light_switch_client_nrf52840_xxAA_s140_6.0.0.dir/__/__/__/mesh/core/src/mesh_flash.c.obj
 .bss.m_suspended
                0x0000000020004c2c        0x1 CMakeFiles/light_switch_client_nrf52840_xxAA_s140_6.0.0.dir/__/__/__/mesh/core/src/mesh_flash.c.obj
 *fill*         0x0000000020004c2d        0x3 
 .bss.m_users   0x0000000020004c30      0x228 CMakeFiles/light_switch_client_nrf52840_xxAA_s140_6.0.0.dir/__/__/__/mesh/core/src/mesh_flash.c.obj
 .bss.m_is_enabled
                0x0000000020004e58        0x1 CMakeFiles/light_switch_client_nrf52840_xxAA_s140_6.0.0.dir/__/__/__/mesh/core/src/nrf_mesh.c.obj
 .bss.m_is_initialized
                0x0000000020004e59        0x1 CMakeFiles/light_switch_client_nrf52840_xxAA_s140_6.0.0.dir/__/__/__/mesh/core/src/nrf_mesh.c.obj
 *fill*         0x0000000020004e5a        0x2 
 .bss.m_rx_cb   0x0000000020004e5c        0x4 CMakeFiles/light_switch_client_nrf52840_xxAA_s140_6.0.0.dir/__/__/__/mesh/core/src/nrf_mesh.c.obj
 .bss.m_128buf  0x0000000020004e60       0x10 CMakeFiles/light_switch_client_nrf52840_xxAA_s140_6.0.0.dir/__/__/__/mesh/core/src/aes_cmac.c.obj
 .bss.m_subkey1
                0x0000000020004e70       0x10 CMakeFiles/light_switch_client_nrf52840_xxAA_s140_6.0.0.dir/__/__/__/mesh/core/src/aes_cmac.c.obj
 .bss.m_subkey2
                0x0000000020004e80       0x10 CMakeFiles/light_switch_client_nrf52840_xxAA_s140_6.0.0.dir/__/__/__/mesh/core/src/aes_cmac.c.obj
 .bss.m_event_flag
                0x0000000020004e90        0x4 CMakeFiles/light_switch_client_nrf52840_xxAA_s140_6.0.0.dir/__/__/__/mesh/core/src/timer_scheduler.c.obj
 .bss.m_scheduler
                0x0000000020004e94       0x10 CMakeFiles/light_switch_client_nrf52840_xxAA_s140_6.0.0.dir/__/__/__/mesh/core/src/timer_scheduler.c.obj
 .bss.m_attributes
                0x0000000020004ea4        0x3 CMakeFiles/light_switch_client_nrf52840_xxAA_s140_6.0.0.dir/__/__/__/mesh/core/src/timer.c.obj
 *fill*         0x0000000020004ea7        0x1 
 .bss.m_callbacks
                0x0000000020004ea8        0xc CMakeFiles/light_switch_client_nrf52840_xxAA_s140_6.0.0.dir/__/__/__/mesh/core/src/timer.c.obj
 .bss.m_is_in_ts
                0x0000000020004eb4        0x1 CMakeFiles/light_switch_client_nrf52840_xxAA_s140_6.0.0.dir/__/__/__/mesh/core/src/timer.c.obj
 *fill*         0x0000000020004eb5        0x3 
 .bss.m_reference_time
                0x0000000020004eb8        0x4 CMakeFiles/light_switch_client_nrf52840_xxAA_s140_6.0.0.dir/__/__/__/mesh/core/src/timer.c.obj
 .bss.m_timeouts
                0x0000000020004ebc        0xc CMakeFiles/light_switch_client_nrf52840_xxAA_s140_6.0.0.dir/__/__/__/mesh/core/src/timer.c.obj
 .bss.m_timer_mut
                0x0000000020004ec8        0x4 CMakeFiles/light_switch_client_nrf52840_xxAA_s140_6.0.0.dir/__/__/__/mesh/core/src/timer.c.obj
 .bss.m_ts_end_time
                0x0000000020004ecc        0x4 CMakeFiles/light_switch_client_nrf52840_xxAA_s140_6.0.0.dir/__/__/__/mesh/core/src/timer.c.obj
 .bss.mp_ppi_tasks
                0x0000000020004ed0        0xc CMakeFiles/light_switch_client_nrf52840_xxAA_s140_6.0.0.dir/__/__/__/mesh/core/src/timer.c.obj
 .bss.m_current_time
                0x0000000020004edc        0x4 CMakeFiles/light_switch_client_nrf52840_xxAA_s140_6.0.0.dir/__/__/__/mesh/core/src/ticker.c.obj
 .bss.m_timer   0x0000000020004ee0       0x18 CMakeFiles/light_switch_client_nrf52840_xxAA_s140_6.0.0.dir/__/__/__/mesh/core/src/ticker.c.obj
 .bss.m_current_timeslot
                0x0000000020004ef8       0x1c CMakeFiles/light_switch_client_nrf52840_xxAA_s140_6.0.0.dir/__/__/__/mesh/core/src/timeslot.c.obj
 .bss.m_lfclk_ppm
                0x0000000020004f14        0x4 CMakeFiles/light_switch_client_nrf52840_xxAA_s140_6.0.0.dir/__/__/__/mesh/core/src/timeslot.c.obj
 .bss.m_radio_request_earliest
                0x0000000020004f18       0x10 CMakeFiles/light_switch_client_nrf52840_xxAA_s140_6.0.0.dir/__/__/__/mesh/core/src/timeslot.c.obj
 .bss.m_state_lock
                0x0000000020004f28        0x1 CMakeFiles/light_switch_client_nrf52840_xxAA_s140_6.0.0.dir/__/__/__/mesh/core/src/timeslot.c.obj
 .bss.m_timeslot_forced_command
                0x0000000020004f29        0x1 CMakeFiles/light_switch_client_nrf52840_xxAA_s140_6.0.0.dir/__/__/__/mesh/core/src/timeslot.c.obj
 *fill*         0x0000000020004f2a        0x6 
 .bss.s_last_rtc_value.9753
                0x0000000020004f30        0x8 CMakeFiles/light_switch_client_nrf52840_xxAA_s140_6.0.0.dir/__/__/__/mesh/core/src/timeslot.c.obj
 .bss.m_bearer_event_fifo
                0x0000000020004f38       0x14 CMakeFiles/light_switch_client_nrf52840_xxAA_s140_6.0.0.dir/__/__/__/mesh/core/src/bearer_event.c.obj
 .bss.m_bearer_event_fifo_buffer
                0x0000000020004f4c      0x100 CMakeFiles/light_switch_client_nrf52840_xxAA_s140_6.0.0.dir/__/__/__/mesh/core/src/bearer_event.c.obj
 .bss.m_critical
                0x000000002000504c        0x4 CMakeFiles/light_switch_client_nrf52840_xxAA_s140_6.0.0.dir/__/__/__/mesh/core/src/bearer_event.c.obj
 .bss.m_flag_count
                0x0000000020005050        0x4 CMakeFiles/light_switch_client_nrf52840_xxAA_s140_6.0.0.dir/__/__/__/mesh/core/src/bearer_event.c.obj
 .bss.m_flag_event_callbacks
                0x0000000020005054       0x20 CMakeFiles/light_switch_client_nrf52840_xxAA_s140_6.0.0.dir/__/__/__/mesh/core/src/bearer_event.c.obj
 .bss.m_flags   0x0000000020005074        0x4 CMakeFiles/light_switch_client_nrf52840_xxAA_s140_6.0.0.dir/__/__/__/mesh/core/src/bearer_event.c.obj
 .bss.m_irq_priority
                0x0000000020005078        0x1 CMakeFiles/light_switch_client_nrf52840_xxAA_s140_6.0.0.dir/__/__/__/mesh/core/src/bearer_event.c.obj
 *fill*         0x0000000020005079        0x3 
 .bss.m_sequential_event_queue
                0x000000002000507c        0x8 CMakeFiles/light_switch_client_nrf52840_xxAA_s140_6.0.0.dir/__/__/__/mesh/core/src/bearer_event.c.obj
 .bss.s_recursion_guard.9884
                0x0000000020005084        0x1 CMakeFiles/light_switch_client_nrf52840_xxAA_s140_6.0.0.dir/__/__/__/mesh/core/src/bearer_event.c.obj
 *fill*         0x0000000020005085        0x3 
 .bss.m_relay_check_cb
                0x0000000020005088        0x4 CMakeFiles/light_switch_client_nrf52840_xxAA_s140_6.0.0.dir/__/__/__/mesh/core/src/network.c.obj
 .bss.m_relay_enable
                0x000000002000508c        0x1 CMakeFiles/light_switch_client_nrf52840_xxAA_s140_6.0.0.dir/__/__/__/mesh/core/src/network.c.obj
 *fill*         0x000000002000508d        0x3 
 .bss.m_action_queue
                0x0000000020005090        0xc CMakeFiles/light_switch_client_nrf52840_xxAA_s140_6.0.0.dir/__/__/__/mesh/core/src/flash_manager.c.obj
 .bss.m_action_queue_buffer
                0x000000002000509c      0x104 CMakeFiles/light_switch_client_nrf52840_xxAA_s140_6.0.0.dir/__/__/__/mesh/core/src/flash_manager.c.obj
 .bss.m_action_state
                0x00000000200051a0        0x1 CMakeFiles/light_switch_client_nrf52840_xxAA_s140_6.0.0.dir/__/__/__/mesh/core/src/flash_manager.c.obj
 *fill*         0x00000000200051a1        0x3 
 .bss.m_memory_listener_queue
                0x00000000200051a4        0x8 CMakeFiles/light_switch_client_nrf52840_xxAA_s140_6.0.0.dir/__/__/__/mesh/core/src/flash_manager.c.obj
 .bss.m_processing_flag
                0x00000000200051ac        0x4 CMakeFiles/light_switch_client_nrf52840_xxAA_s140_6.0.0.dir/__/__/__/mesh/core/src/flash_manager.c.obj
 .bss.m_queue_empty_cb
                0x00000000200051b0        0x4 CMakeFiles/light_switch_client_nrf52840_xxAA_s140_6.0.0.dir/__/__/__/mesh/core/src/flash_manager.c.obj
 .bss.m_state   0x00000000200051b4        0x1 CMakeFiles/light_switch_client_nrf52840_xxAA_s140_6.0.0.dir/__/__/__/mesh/core/src/flash_manager.c.obj
 *fill*         0x00000000200051b5        0x1 
 .bss.m_token   0x00000000200051b6        0x2 CMakeFiles/light_switch_client_nrf52840_xxAA_s140_6.0.0.dir/__/__/__/mesh/core/src/flash_manager.c.obj
 .bss.p_current.11639
                0x00000000200051b8        0x4 CMakeFiles/light_switch_client_nrf52840_xxAA_s140_6.0.0.dir/__/__/__/mesh/core/src/flash_manager.c.obj
 .bss.result.11640
                0x00000000200051bc        0x1 CMakeFiles/light_switch_client_nrf52840_xxAA_s140_6.0.0.dir/__/__/__/mesh/core/src/flash_manager.c.obj
 .bss.m_cache_index
                0x00000000200051bd        0x1 CMakeFiles/light_switch_client_nrf52840_xxAA_s140_6.0.0.dir/__/__/__/mesh/core/src/replay_cache.c.obj
 *fill*         0x00000000200051be        0x2 
 .bss.m_replay_cache
                0x00000000200051c0      0x200 CMakeFiles/light_switch_client_nrf52840_xxAA_s140_6.0.0.dir/__/__/__/mesh/core/src/replay_cache.c.obj
 .bss.m_bearer_count
                0x00000000200053c0        0x1 CMakeFiles/light_switch_client_nrf52840_xxAA_s140_6.0.0.dir/__/__/__/mesh/core/src/core_tx.c.obj
 *fill*         0x00000000200053c1        0x3 
 .bss.m_tx_complete_callback
                0x00000000200053c4        0x4 CMakeFiles/light_switch_client_nrf52840_xxAA_s140_6.0.0.dir/__/__/__/mesh/core/src/core_tx.c.obj
 .bss.mp_bearers
                0x00000000200053c8        0x4 CMakeFiles/light_switch_client_nrf52840_xxAA_s140_6.0.0.dir/__/__/__/mesh/core/src/core_tx.c.obj
 .bss.m_hb_core_evt_handler
                0x00000000200053cc        0x8 CMakeFiles/light_switch_client_nrf52840_xxAA_s140_6.0.0.dir/__/__/__/mesh/core/src/heartbeat.c.obj
 .bss.m_hb_pending_feat_msg
                0x00000000200053d4        0x1 CMakeFiles/light_switch_client_nrf52840_xxAA_s140_6.0.0.dir/__/__/__/mesh/core/src/heartbeat.c.obj
 .bss.m_hb_pending_pub_msg
                0x00000000200053d5        0x1 CMakeFiles/light_switch_client_nrf52840_xxAA_s140_6.0.0.dir/__/__/__/mesh/core/src/heartbeat.c.obj
 .bss.m_heartbeat_init_done
                0x00000000200053d6        0x1 CMakeFiles/light_switch_client_nrf52840_xxAA_s140_6.0.0.dir/__/__/__/mesh/core/src/heartbeat.c.obj
 *fill*         0x00000000200053d7        0x1 
 .bss.m_heartbeat_subscription
                0x00000000200053d8       0x10 CMakeFiles/light_switch_client_nrf52840_xxAA_s140_6.0.0.dir/__/__/__/mesh/core/src/heartbeat.c.obj
 .bss.m_publication_count_decrement_cb
                0x00000000200053e8        0x4 CMakeFiles/light_switch_client_nrf52840_xxAA_s140_6.0.0.dir/__/__/__/mesh/core/src/heartbeat.c.obj
 .bss.m_publication_get_cb
                0x00000000200053ec        0x4 CMakeFiles/light_switch_client_nrf52840_xxAA_s140_6.0.0.dir/__/__/__/mesh/core/src/heartbeat.c.obj
 .bss.m_publication_timer
                0x00000000200053f0       0x1c CMakeFiles/light_switch_client_nrf52840_xxAA_s140_6.0.0.dir/__/__/__/mesh/core/src/heartbeat.c.obj
 .bss.m_subscription_timer
                0x000000002000540c       0x18 CMakeFiles/light_switch_client_nrf52840_xxAA_s140_6.0.0.dir/__/__/__/mesh/core/src/heartbeat.c.obj
 .bss.m_adv     0x0000000020005424       0x98 CMakeFiles/light_switch_client_nrf52840_xxAA_s140_6.0.0.dir/__/__/__/mesh/core/src/net_beacon.c.obj
 .bss.m_adv_buf
                0x00000000200054bc       0x34 CMakeFiles/light_switch_client_nrf52840_xxAA_s140_6.0.0.dir/__/__/__/mesh/core/src/net_beacon.c.obj
 .bss.m_beacon_salt
                0x00000000200054f0       0x10 CMakeFiles/light_switch_client_nrf52840_xxAA_s140_6.0.0.dir/__/__/__/mesh/core/src/net_beacon.c.obj
 .bss.m_enabled
                0x0000000020005500        0x1 CMakeFiles/light_switch_client_nrf52840_xxAA_s140_6.0.0.dir/__/__/__/mesh/core/src/net_beacon.c.obj
 *fill*         0x0000000020005501        0x3 
 .bss.m_tx_timer
                0x0000000020005504       0x18 CMakeFiles/light_switch_client_nrf52840_xxAA_s140_6.0.0.dir/__/__/__/mesh/core/src/net_beacon.c.obj
 .bss.mp_beacon_info
                0x000000002000551c        0x4 CMakeFiles/light_switch_client_nrf52840_xxAA_s140_6.0.0.dir/__/__/__/mesh/core/src/net_beacon.c.obj
 .bss.m_bearer  0x0000000020005520        0xc CMakeFiles/light_switch_client_nrf52840_xxAA_s140_6.0.0.dir/__/__/__/mesh/core/src/core_tx_adv.c.obj
 .bss.m_bearer_roles
                0x000000002000552c      0x138 CMakeFiles/light_switch_client_nrf52840_xxAA_s140_6.0.0.dir/__/__/__/mesh/core/src/core_tx_adv.c.obj
 .bss.m_current_alloc
                0x0000000020005664        0x8 CMakeFiles/light_switch_client_nrf52840_xxAA_s140_6.0.0.dir/__/__/__/mesh/core/src/core_tx_adv.c.obj
 .bss.m_originator_adv_packet_buffer
                0x000000002000566c      0x100 CMakeFiles/light_switch_client_nrf52840_xxAA_s140_6.0.0.dir/__/__/__/mesh/core/src/core_tx_adv.c.obj
 .bss.m_relay_adv_packet_buffer
                0x000000002000576c       0x80 CMakeFiles/light_switch_client_nrf52840_xxAA_s140_6.0.0.dir/__/__/__/mesh/core/src/core_tx_adv.c.obj
 .bss.m_subscribers
                0x00000000200057ec        0x4 CMakeFiles/light_switch_client_nrf52840_xxAA_s140_6.0.0.dir/__/__/__/mesh/bearer/src/ad_listener.c.obj
 .bss.m_adtype_filter
                0x00000000200057f0       0x38 CMakeFiles/light_switch_client_nrf52840_xxAA_s140_6.0.0.dir/__/__/__/mesh/bearer/src/ad_type_filter.c.obj
 .bss.m_adv_prng
                0x0000000020005828       0x10 CMakeFiles/light_switch_client_nrf52840_xxAA_s140_6.0.0.dir/__/__/__/mesh/bearer/src/advertiser.c.obj
 .bss.m_action_queue
                0x0000000020005838        0x8 CMakeFiles/light_switch_client_nrf52840_xxAA_s140_6.0.0.dir/__/__/__/mesh/bearer/src/bearer_handler.c.obj
 .bss.m_end_time
                0x0000000020005840        0x4 CMakeFiles/light_switch_client_nrf52840_xxAA_s140_6.0.0.dir/__/__/__/mesh/bearer/src/bearer_handler.c.obj
 .bss.m_scanner_is_active
                0x0000000020005844        0x1 CMakeFiles/light_switch_client_nrf52840_xxAA_s140_6.0.0.dir/__/__/__/mesh/bearer/src/bearer_handler.c.obj
 .bss.m_stopped
                0x0000000020005845        0x1 CMakeFiles/light_switch_client_nrf52840_xxAA_s140_6.0.0.dir/__/__/__/mesh/bearer/src/bearer_handler.c.obj
 *fill*         0x0000000020005846        0x2 
 .bss.mp_action
                0x0000000020005848        0x4 CMakeFiles/light_switch_client_nrf52840_xxAA_s140_6.0.0.dir/__/__/__/mesh/bearer/src/bearer_handler.c.obj
 .bss.m_next_channel_index
                0x000000002000584c        0x1 CMakeFiles/light_switch_client_nrf52840_xxAA_s140_6.0.0.dir/__/__/__/mesh/bearer/src/broadcast.c.obj
 *fill*         0x000000002000584d        0x3 
 .bss.m_accepted_amount
                0x0000000020005850        0x4 CMakeFiles/light_switch_client_nrf52840_xxAA_s140_6.0.0.dir/__/__/__/mesh/bearer/src/filter_engine.c.obj
 .bss.m_filter_list_head
                0x0000000020005854        0x4 CMakeFiles/light_switch_client_nrf52840_xxAA_s140_6.0.0.dir/__/__/__/mesh/bearer/src/filter_engine.c.obj
 .bss.m_scanner
                0x0000000020005858      0x290 CMakeFiles/light_switch_client_nrf52840_xxAA_s140_6.0.0.dir/__/__/__/mesh/bearer/src/scanner.c.obj
 .bss.m_tid     0x0000000020005ae8        0x1 CMakeFiles/light_switch_client_nrf52840_xxAA_s140_6.0.0.dir/__/__/__/models/simple_on_off/src/simple_on_off_client.c.obj
 *fill*         0x0000000020005ae9        0x3 
 .bss.m_evt_cb  0x0000000020005aec        0x4 CMakeFiles/light_switch_client_nrf52840_xxAA_s140_6.0.0.dir/__/__/__/models/config/src/config_server.c.obj
 .bss.m_heartbeat_publication
                0x0000000020005af0       0x14 CMakeFiles/light_switch_client_nrf52840_xxAA_s140_6.0.0.dir/__/__/__/models/config/src/config_server.c.obj
 .bss.m_node_reset_pending
                0x0000000020005b04        0x1 CMakeFiles/light_switch_client_nrf52840_xxAA_s140_6.0.0.dir/__/__/__/models/config/src/config_server.c.obj
 *fill*         0x0000000020005b05        0x3 
 .bss.m_attention_timer
                0x0000000020005b08       0x18 CMakeFiles/light_switch_client_nrf52840_xxAA_s140_6.0.0.dir/__/__/__/models/health/src/health_server.c.obj
 .bss.mp_attention_list
                0x0000000020005b20        0x4 CMakeFiles/light_switch_client_nrf52840_xxAA_s140_6.0.0.dir/__/__/__/models/health/src/health_server.c.obj
 .bss.m_publish_timer
                0x0000000020005b24       0x18 CMakeFiles/light_switch_client_nrf52840_xxAA_s140_6.0.0.dir/__/__/__/mesh/access/src/access_publish.c.obj
 .bss.m_publish_timer_counter
                0x0000000020005b3c        0x4 CMakeFiles/light_switch_client_nrf52840_xxAA_s140_6.0.0.dir/__/__/__/mesh/access/src/access_publish.c.obj
 .bss.m_publish_timer_running
                0x0000000020005b40        0x1 CMakeFiles/light_switch_client_nrf52840_xxAA_s140_6.0.0.dir/__/__/__/mesh/access/src/access_publish.c.obj
 .bss.m_timer_resolution
                0x0000000020005b41        0x1 CMakeFiles/light_switch_client_nrf52840_xxAA_s140_6.0.0.dir/__/__/__/mesh/access/src/access_publish.c.obj
 *fill*         0x0000000020005b42        0x2 
 .bss.mp_publication_list
                0x0000000020005b44        0x4 CMakeFiles/light_switch_client_nrf52840_xxAA_s140_6.0.0.dir/__/__/__/mesh/access/src/access_publish.c.obj
 .bss.m_element_pool
                0x0000000020005b48       0x1e CMakeFiles/light_switch_client_nrf52840_xxAA_s140_6.0.0.dir/__/__/__/mesh/access/src/access.c.obj
 *fill*         0x0000000020005b66        0x2 
 .bss.m_evt_handler
                0x0000000020005b68        0x8 CMakeFiles/light_switch_client_nrf52840_xxAA_s140_6.0.0.dir/__/__/__/mesh/access/src/access.c.obj
 .bss.m_flash_manager
                0x0000000020005b70       0x24 CMakeFiles/light_switch_client_nrf52840_xxAA_s140_6.0.0.dir/__/__/__/mesh/access/src/access.c.obj
 .bss.m_flash_not_ready
                0x0000000020005b94        0x1 CMakeFiles/light_switch_client_nrf52840_xxAA_s140_6.0.0.dir/__/__/__/mesh/access/src/access.c.obj
 .bss.m_metadata_stored
                0x0000000020005b95        0x1 CMakeFiles/light_switch_client_nrf52840_xxAA_s140_6.0.0.dir/__/__/__/mesh/access/src/access.c.obj
 *fill*         0x0000000020005b96        0x2 
 .bss.m_model_pool
                0x0000000020005b98      0x138 CMakeFiles/light_switch_client_nrf52840_xxAA_s140_6.0.0.dir/__/__/__/mesh/access/src/access.c.obj
 .bss.m_subscription_list_pool
                0x0000000020005cd0       0x30 CMakeFiles/light_switch_client_nrf52840_xxAA_s140_6.0.0.dir/__/__/__/mesh/access/src/access.c.obj
 .bss.m_reliable
                0x0000000020005d00      0x124 CMakeFiles/light_switch_client_nrf52840_xxAA_s140_6.0.0.dir/__/__/__/mesh/access/src/access_reliable.c.obj
 .bss.m_addr_nonvirtual_allocated
                0x0000000020005e24        0x4 CMakeFiles/light_switch_client_nrf52840_xxAA_s140_6.0.0.dir/__/__/__/mesh/access/src/device_state_manager.c.obj
 .bss.m_addr_nonvirtual_needs_flashing
                0x0000000020005e28        0x4 CMakeFiles/light_switch_client_nrf52840_xxAA_s140_6.0.0.dir/__/__/__/mesh/access/src/device_state_manager.c.obj
 .bss.m_addr_unicast_allocated
                0x0000000020005e2c        0x4 CMakeFiles/light_switch_client_nrf52840_xxAA_s140_6.0.0.dir/__/__/__/mesh/access/src/device_state_manager.c.obj
 .bss.m_addr_unicast_needs_flashing
                0x0000000020005e30        0x4 CMakeFiles/light_switch_client_nrf52840_xxAA_s140_6.0.0.dir/__/__/__/mesh/access/src/device_state_manager.c.obj
 .bss.m_addr_virtual_allocated
                0x0000000020005e34        0x4 CMakeFiles/light_switch_client_nrf52840_xxAA_s140_6.0.0.dir/__/__/__/mesh/access/src/device_state_manager.c.obj
 .bss.m_addr_virtual_needs_flashing
                0x0000000020005e38        0x4 CMakeFiles/light_switch_client_nrf52840_xxAA_s140_6.0.0.dir/__/__/__/mesh/access/src/device_state_manager.c.obj
 .bss.m_addresses
                0x0000000020005e3c       0x1c CMakeFiles/light_switch_client_nrf52840_xxAA_s140_6.0.0.dir/__/__/__/mesh/access/src/device_state_manager.c.obj
 .bss.m_appkey_allocated
                0x0000000020005e58        0x4 CMakeFiles/light_switch_client_nrf52840_xxAA_s140_6.0.0.dir/__/__/__/mesh/access/src/device_state_manager.c.obj
 .bss.m_appkey_needs_flashing
                0x0000000020005e5c        0x4 CMakeFiles/light_switch_client_nrf52840_xxAA_s140_6.0.0.dir/__/__/__/mesh/access/src/device_state_manager.c.obj
 .bss.m_appkeys
                0x0000000020005e60       0x2a CMakeFiles/light_switch_client_nrf52840_xxAA_s140_6.0.0.dir/__/__/__/mesh/access/src/device_state_manager.c.obj
 *fill*         0x0000000020005e8a        0x2 
 .bss.m_devkey_allocated
                0x0000000020005e8c        0x4 CMakeFiles/light_switch_client_nrf52840_xxAA_s140_6.0.0.dir/__/__/__/mesh/access/src/device_state_manager.c.obj
 .bss.m_devkey_needs_flashing
                0x0000000020005e90        0x4 CMakeFiles/light_switch_client_nrf52840_xxAA_s140_6.0.0.dir/__/__/__/mesh/access/src/device_state_manager.c.obj
 .bss.m_devkeys
                0x0000000020005e94       0x16 CMakeFiles/light_switch_client_nrf52840_xxAA_s140_6.0.0.dir/__/__/__/mesh/access/src/device_state_manager.c.obj
 .bss.m_flash_is_available
                0x0000000020005eaa        0x1 CMakeFiles/light_switch_client_nrf52840_xxAA_s140_6.0.0.dir/__/__/__/mesh/access/src/device_state_manager.c.obj
 *fill*         0x0000000020005eab        0x1 
 .bss.m_flash_manager
                0x0000000020005eac       0x24 CMakeFiles/light_switch_client_nrf52840_xxAA_s140_6.0.0.dir/__/__/__/mesh/access/src/device_state_manager.c.obj
 .bss.m_flash_mem_listener_update_all
                0x0000000020005ed0       0x10 CMakeFiles/light_switch_client_nrf52840_xxAA_s140_6.0.0.dir/__/__/__/mesh/access/src/device_state_manager.c.obj
 .bss.m_has_primary_subnet
                0x0000000020005ee0        0x1 CMakeFiles/light_switch_client_nrf52840_xxAA_s140_6.0.0.dir/__/__/__/mesh/access/src/device_state_manager.c.obj
 *fill*         0x0000000020005ee1        0x3 
 .bss.m_local_unicast_addr
                0x0000000020005ee4        0x4 CMakeFiles/light_switch_client_nrf52840_xxAA_s140_6.0.0.dir/__/__/__/mesh/access/src/device_state_manager.c.obj
 .bss.m_mesh_evt_handler
                0x0000000020005ee8        0x8 CMakeFiles/light_switch_client_nrf52840_xxAA_s140_6.0.0.dir/__/__/__/mesh/access/src/device_state_manager.c.obj
 .bss.m_subnet_allocated
                0x0000000020005ef0        0x4 CMakeFiles/light_switch_client_nrf52840_xxAA_s140_6.0.0.dir/__/__/__/mesh/access/src/device_state_manager.c.obj
 .bss.m_subnet_needs_flashing
                0x0000000020005ef4        0x4 CMakeFiles/light_switch_client_nrf52840_xxAA_s140_6.0.0.dir/__/__/__/mesh/access/src/device_state_manager.c.obj
 .bss.m_subnets
                0x0000000020005ef8       0xa8 CMakeFiles/light_switch_client_nrf52840_xxAA_s140_6.0.0.dir/__/__/__/mesh/access/src/device_state_manager.c.obj
 .bss.m_virtual_addresses
                0x0000000020005fa0       0x14 CMakeFiles/light_switch_client_nrf52840_xxAA_s140_6.0.0.dir/__/__/__/mesh/access/src/device_state_manager.c.obj
 .bss.m_event_handler
                0x0000000020005fb4        0x4 CMakeFiles/light_switch_client_nrf52840_xxAA_s140_6.0.0.dir/__/__/__/mesh/prov/src/prov_beacon.c.obj
 .bss.m_offload_ecdh
                0x0000000020005fb8        0x1 CMakeFiles/light_switch_client_nrf52840_xxAA_s140_6.0.0.dir/__/__/__/mesh/prov/src/prov_utils.c.obj
 *fill*         0x0000000020005fb9        0x3 
 .bss.mp_bearer_head
                0x0000000020005fbc        0x4 CMakeFiles/light_switch_client_nrf52840_xxAA_s140_6.0.0.dir/__/__/__/mesh/prov/src/prov_bearer_adv.c.obj
 .bss._acDownBuffer
                0x0000000020005fc0       0x80 ../../../external/rtt/librtt_nrf52840_xxAA.a(SEGGER_RTT.c.obj)
 .bss._acUpBuffer
                0x0000000020006040      0x400 ../../../external/rtt/librtt_nrf52840_xxAA.a(SEGGER_RTT.c.obj)
 .bss.__malloc_free_list
                0x0000000020006440        0x4 /usr/bin/../lib/gcc/arm-none-eabi/7.2.1/../../../../arm-none-eabi/lib/thumb/v7e-m/fpv4-sp/hard/libg_nano.a(lib_a-nano-mallocr.o)
                0x0000000020006440                __malloc_free_list
 .bss.__malloc_sbrk_start
                0x0000000020006444        0x4 /usr/bin/../lib/gcc/arm-none-eabi/7.2.1/../../../../arm-none-eabi/lib/thumb/v7e-m/fpv4-sp/hard/libg_nano.a(lib_a-nano-mallocr.o)
                0x0000000020006444                __malloc_sbrk_start
 .bss.heap_end.5377
                0x0000000020006448        0x4 /usr/bin/../lib/gcc/arm-none-eabi/7.2.1/../../../../arm-none-eabi/lib/thumb/v7e-m/fpv4-sp/hard/libnosys.a(sbrk.o)
 *(COMMON)
 COMMON         0x000000002000644c        0xc CMakeFiles/light_switch_client_nrf52840_xxAA_s140_6.0.0.dir/__/__/common/src/mesh_softdevice_init.c.obj
                0x000000002000644c                nrf_nvic_state
 COMMON         0x0000000020006458       0x24 CMakeFiles/light_switch_client_nrf52840_xxAA_s140_6.0.0.dir/__/__/__/mesh/core/src/core_tx.c.obj
                0x0000000020006458                m_packet
 COMMON         0x000000002000647c       0x78 ../../../external/rtt/librtt_nrf52840_xxAA.a(SEGGER_RTT.c.obj)
                0x000000002000647c                _SEGGER_RTT
 COMMON         0x00000000200064f4        0x4 /usr/bin/../lib/gcc/arm-none-eabi/7.2.1/../../../../arm-none-eabi/lib/thumb/v7e-m/fpv4-sp/hard/libg_nano.a(lib_a-reent.o)
                0x00000000200064f4                errno
                0x00000000200064f8                . = ALIGN (0x4)
                0x00000000200064f8                __bss_end__ = .

.heap           0x00000000200064f8     0x2000
                0x00000000200064f8                __HeapBase = .
                0x00000000200064f8                __end__ = .
                0x00000000200064f8                PROVIDE (end, .)
 *(.heap*)
 .heap          0x00000000200064f8     0x2000 CMakeFiles/light_switch_client_nrf52840_xxAA_s140_6.0.0.dir/home/mazzer/work/nordic/sdk/nRF5_SDK_15.0.0/modules/nrfx/mdk/gcc_startup_nrf52840.S.obj
                0x00000000200084f8                __HeapLimit = .

.stack_dummy    0x00000000200064f8     0x2000
 *(.stack*)
 .stack         0x00000000200064f8     0x2000 CMakeFiles/light_switch_client_nrf52840_xxAA_s140_6.0.0.dir/home/mazzer/work/nordic/sdk/nRF5_SDK_15.0.0/modules/nrfx/mdk/gcc_startup_nrf52840.S.obj
                0x000000002003fd00                __StackTop = (ORIGIN (RAM) + LENGTH (RAM))
                0x000000002003dd00                __StackLimit = (__StackTop - SIZEOF (.stack_dummy))
                0x000000002003fd00                PROVIDE (__stack, __StackTop)
                0x0000000000000001                ASSERT ((__StackLimit >= __HeapLimit), region RAM overflowed with stack)
                0x0000000000000140                DataInitFlashUsed = (__bss_start__ - __data_start__)
                0x000000000001dca0                CodeFlashUsed = (__etext - ORIGIN (FLASH))
                0x000000000001dde0                TotalFlashUsed = (CodeFlashUsed + DataInitFlashUsed)
                0x0000000000000001                ASSERT ((TotalFlashUsed <= LENGTH (FLASH)), region FLASH overflowed with .data and user data)
OUTPUT(light_switch_client_nrf52840_xxAA_s140_6.0.0.elf elf32-littlearm)

.ARM.attributes
                0x0000000000000000       0x30
 .ARM.attributes
                0x0000000000000000       0x22 /usr/bin/../lib/gcc/arm-none-eabi/7.2.1/thumb/v7e-m/fpv4-sp/hard/crti.o
 .ARM.attributes
                0x0000000000000022       0x34 /usr/bin/../lib/gcc/arm-none-eabi/7.2.1/thumb/v7e-m/fpv4-sp/hard/crtbegin.o
 .ARM.attributes
                0x0000000000000056       0x20 /usr/bin/../lib/gcc/arm-none-eabi/7.2.1/../../../../arm-none-eabi/lib/thumb/v7e-m/fpv4-sp/hard/crt0.o
 .ARM.attributes
                0x0000000000000076       0x39 CMakeFiles/light_switch_client_nrf52840_xxAA_s140_6.0.0.dir/src/main.c.obj
 .ARM.attributes
                0x00000000000000af       0x39 CMakeFiles/light_switch_client_nrf52840_xxAA_s140_6.0.0.dir/__/__/__/mesh/stack/src/mesh_stack.c.obj
 .ARM.attributes
                0x00000000000000e8       0x39 CMakeFiles/light_switch_client_nrf52840_xxAA_s140_6.0.0.dir/__/__/common/src/mesh_softdevice_init.c.obj
 .ARM.attributes
                0x0000000000000121       0x39 CMakeFiles/light_switch_client_nrf52840_xxAA_s140_6.0.0.dir/__/__/common/src/mesh_provisionee.c.obj
 .ARM.attributes
                0x000000000000015a       0x39 CMakeFiles/light_switch_client_nrf52840_xxAA_s140_6.0.0.dir/__/__/common/src/rtt_input.c.obj
 .ARM.attributes
                0x0000000000000193       0x39 CMakeFiles/light_switch_client_nrf52840_xxAA_s140_6.0.0.dir/__/__/common/src/simple_hal.c.obj
 .ARM.attributes
                0x00000000000001cc       0x39 CMakeFiles/light_switch_client_nrf52840_xxAA_s140_6.0.0.dir/__/__/nrf_mesh_weak.c.obj
 .ARM.attributes
                0x0000000000000205       0x39 CMakeFiles/light_switch_client_nrf52840_xxAA_s140_6.0.0.dir/__/__/common/src/app_error_weak.c.obj
 .ARM.attributes
                0x000000000000023e       0x39 CMakeFiles/light_switch_client_nrf52840_xxAA_s140_6.0.0.dir/__/__/common/src/assertion_handler_weak.c.obj
 .ARM.attributes
                0x0000000000000277       0x39 CMakeFiles/light_switch_client_nrf52840_xxAA_s140_6.0.0.dir/__/__/__/mesh/core/src/nrf_mesh_configure.c.obj
 .ARM.attributes
                0x00000000000002b0       0x39 CMakeFiles/light_switch_client_nrf52840_xxAA_s140_6.0.0.dir/__/__/__/mesh/core/src/aes.c.obj
 .ARM.attributes
                0x00000000000002e9       0x39 CMakeFiles/light_switch_client_nrf52840_xxAA_s140_6.0.0.dir/__/__/__/mesh/core/src/msg_cache.c.obj
 .ARM.attributes
                0x0000000000000322       0x39 CMakeFiles/light_switch_client_nrf52840_xxAA_s140_6.0.0.dir/__/__/__/mesh/core/src/transport.c.obj
 .ARM.attributes
                0x000000000000035b       0x39 CMakeFiles/light_switch_client_nrf52840_xxAA_s140_6.0.0.dir/__/__/__/mesh/core/src/event.c.obj
 .ARM.attributes
                0x0000000000000394       0x39 CMakeFiles/light_switch_client_nrf52840_xxAA_s140_6.0.0.dir/__/__/__/mesh/core/src/packet_buffer.c.obj
 .ARM.attributes
                0x00000000000003cd       0x39 CMakeFiles/light_switch_client_nrf52840_xxAA_s140_6.0.0.dir/__/__/__/mesh/core/src/flash_manager_defrag.c.obj
 .ARM.attributes
                0x0000000000000406       0x39 CMakeFiles/light_switch_client_nrf52840_xxAA_s140_6.0.0.dir/__/__/__/mesh/core/src/fifo.c.obj
 .ARM.attributes
                0x000000000000043f       0x39 CMakeFiles/light_switch_client_nrf52840_xxAA_s140_6.0.0.dir/__/__/__/mesh/core/src/nrf_flash.c.obj
 .ARM.attributes
                0x0000000000000478       0x39 CMakeFiles/light_switch_client_nrf52840_xxAA_s140_6.0.0.dir/__/__/__/mesh/core/src/packet_mgr.c.obj
 .ARM.attributes
                0x00000000000004b1       0x39 CMakeFiles/light_switch_client_nrf52840_xxAA_s140_6.0.0.dir/__/__/__/mesh/core/src/net_state.c.obj
 .ARM.attributes
                0x00000000000004ea       0x39 CMakeFiles/light_switch_client_nrf52840_xxAA_s140_6.0.0.dir/__/__/__/mesh/core/src/mesh_flash.c.obj
 .ARM.attributes
                0x0000000000000523       0x39 CMakeFiles/light_switch_client_nrf52840_xxAA_s140_6.0.0.dir/__/__/__/mesh/core/src/nrf_mesh_utils.c.obj
 .ARM.attributes
                0x000000000000055c       0x39 CMakeFiles/light_switch_client_nrf52840_xxAA_s140_6.0.0.dir/__/__/__/mesh/core/src/nrf_mesh.c.obj
 .ARM.attributes
                0x0000000000000595       0x39 CMakeFiles/light_switch_client_nrf52840_xxAA_s140_6.0.0.dir/__/__/__/mesh/core/src/queue.c.obj
 .ARM.attributes
                0x00000000000005ce       0x39 CMakeFiles/light_switch_client_nrf52840_xxAA_s140_6.0.0.dir/__/__/__/mesh/core/src/hal.c.obj
 .ARM.attributes
                0x0000000000000607       0x39 CMakeFiles/light_switch_client_nrf52840_xxAA_s140_6.0.0.dir/__/__/__/mesh/core/src/aes_cmac.c.obj
 .ARM.attributes
                0x0000000000000640       0x39 CMakeFiles/light_switch_client_nrf52840_xxAA_s140_6.0.0.dir/__/__/__/mesh/core/src/timer_scheduler.c.obj
 .ARM.attributes
                0x0000000000000679       0x39 CMakeFiles/light_switch_client_nrf52840_xxAA_s140_6.0.0.dir/__/__/__/mesh/core/src/timer.c.obj
 .ARM.attributes
                0x00000000000006b2       0x39 CMakeFiles/light_switch_client_nrf52840_xxAA_s140_6.0.0.dir/__/__/__/mesh/core/src/ticker.c.obj
 .ARM.attributes
                0x00000000000006eb       0x39 CMakeFiles/light_switch_client_nrf52840_xxAA_s140_6.0.0.dir/__/__/__/mesh/core/src/rand.c.obj
 .ARM.attributes
                0x0000000000000724       0x39 CMakeFiles/light_switch_client_nrf52840_xxAA_s140_6.0.0.dir/__/__/__/mesh/core/src/nrf_mesh_opt.c.obj
 .ARM.attributes
                0x000000000000075d       0x39 CMakeFiles/light_switch_client_nrf52840_xxAA_s140_6.0.0.dir/__/__/__/mesh/core/src/timeslot.c.obj
 .ARM.attributes
                0x0000000000000796       0x39 CMakeFiles/light_switch_client_nrf52840_xxAA_s140_6.0.0.dir/__/__/__/mesh/core/src/bearer_event.c.obj
 .ARM.attributes
                0x00000000000007cf       0x39 CMakeFiles/light_switch_client_nrf52840_xxAA_s140_6.0.0.dir/__/__/__/mesh/core/src/enc.c.obj
 .ARM.attributes
                0x0000000000000808       0x39 CMakeFiles/light_switch_client_nrf52840_xxAA_s140_6.0.0.dir/__/__/__/mesh/core/src/network.c.obj
 .ARM.attributes
                0x0000000000000841       0x39 CMakeFiles/light_switch_client_nrf52840_xxAA_s140_6.0.0.dir/__/__/__/mesh/core/src/net_packet.c.obj
 .ARM.attributes
                0x000000000000087a       0x39 CMakeFiles/light_switch_client_nrf52840_xxAA_s140_6.0.0.dir/__/__/__/mesh/core/src/msqueue.c.obj
 .ARM.attributes
                0x00000000000008b3       0x39 CMakeFiles/light_switch_client_nrf52840_xxAA_s140_6.0.0.dir/__/__/__/mesh/core/src/nrf_mesh_keygen.c.obj
 .ARM.attributes
                0x00000000000008ec       0x39 CMakeFiles/light_switch_client_nrf52840_xxAA_s140_6.0.0.dir/__/__/__/mesh/core/src/list.c.obj
 .ARM.attributes
                0x0000000000000925       0x39 CMakeFiles/light_switch_client_nrf52840_xxAA_s140_6.0.0.dir/__/__/__/mesh/core/src/log.c.obj
 .ARM.attributes
                0x000000000000095e       0x39 CMakeFiles/light_switch_client_nrf52840_xxAA_s140_6.0.0.dir/__/__/__/mesh/core/src/flash_manager.c.obj
 .ARM.attributes
                0x0000000000000997       0x39 CMakeFiles/light_switch_client_nrf52840_xxAA_s140_6.0.0.dir/__/__/__/mesh/core/src/ccm_soft.c.obj
 .ARM.attributes
                0x00000000000009d0       0x39 CMakeFiles/light_switch_client_nrf52840_xxAA_s140_6.0.0.dir/__/__/__/mesh/core/src/replay_cache.c.obj
 .ARM.attributes
                0x0000000000000a09       0x39 CMakeFiles/light_switch_client_nrf52840_xxAA_s140_6.0.0.dir/__/__/__/mesh/core/src/beacon.c.obj
 .ARM.attributes
                0x0000000000000a42       0x39 CMakeFiles/light_switch_client_nrf52840_xxAA_s140_6.0.0.dir/__/__/__/mesh/core/src/flash_manager_internal.c.obj
 .ARM.attributes
                0x0000000000000a7b       0x39 CMakeFiles/light_switch_client_nrf52840_xxAA_s140_6.0.0.dir/__/__/__/mesh/core/src/core_tx.c.obj
 .ARM.attributes
                0x0000000000000ab4       0x39 CMakeFiles/light_switch_client_nrf52840_xxAA_s140_6.0.0.dir/__/__/__/mesh/core/src/heartbeat.c.obj
 .ARM.attributes
                0x0000000000000aed       0x39 CMakeFiles/light_switch_client_nrf52840_xxAA_s140_6.0.0.dir/__/__/__/mesh/core/src/net_beacon.c.obj
 .ARM.attributes
                0x0000000000000b26       0x39 CMakeFiles/light_switch_client_nrf52840_xxAA_s140_6.0.0.dir/__/__/__/mesh/core/src/core_tx_adv.c.obj
 .ARM.attributes
                0x0000000000000b5f       0x39 CMakeFiles/light_switch_client_nrf52840_xxAA_s140_6.0.0.dir/__/__/__/mesh/bearer/src/ad_listener.c.obj
 .ARM.attributes
                0x0000000000000b98       0x39 CMakeFiles/light_switch_client_nrf52840_xxAA_s140_6.0.0.dir/__/__/__/mesh/bearer/src/ad_type_filter.c.obj
 .ARM.attributes
                0x0000000000000bd1       0x39 CMakeFiles/light_switch_client_nrf52840_xxAA_s140_6.0.0.dir/__/__/__/mesh/bearer/src/advertiser.c.obj
 .ARM.attributes
                0x0000000000000c0a       0x39 CMakeFiles/light_switch_client_nrf52840_xxAA_s140_6.0.0.dir/__/__/__/mesh/bearer/src/bearer_handler.c.obj
 .ARM.attributes
                0x0000000000000c43       0x39 CMakeFiles/light_switch_client_nrf52840_xxAA_s140_6.0.0.dir/__/__/__/mesh/bearer/src/broadcast.c.obj
 .ARM.attributes
                0x0000000000000c7c       0x39 CMakeFiles/light_switch_client_nrf52840_xxAA_s140_6.0.0.dir/__/__/__/mesh/bearer/src/filter_engine.c.obj
 .ARM.attributes
                0x0000000000000cb5       0x39 CMakeFiles/light_switch_client_nrf52840_xxAA_s140_6.0.0.dir/__/__/__/mesh/bearer/src/radio_config.c.obj
 .ARM.attributes
                0x0000000000000cee       0x39 CMakeFiles/light_switch_client_nrf52840_xxAA_s140_6.0.0.dir/__/__/__/mesh/bearer/src/scanner.c.obj
 .ARM.attributes
                0x0000000000000d27       0x39 CMakeFiles/light_switch_client_nrf52840_xxAA_s140_6.0.0.dir/__/__/__/models/simple_on_off/src/simple_on_off_client.c.obj
 .ARM.attributes
                0x0000000000000d60       0x39 CMakeFiles/light_switch_client_nrf52840_xxAA_s140_6.0.0.dir/__/__/__/models/config/src/composition_data.c.obj
 .ARM.attributes
                0x0000000000000d99       0x39 CMakeFiles/light_switch_client_nrf52840_xxAA_s140_6.0.0.dir/__/__/__/models/config/src/config_server.c.obj
 .ARM.attributes
                0x0000000000000dd2       0x39 CMakeFiles/light_switch_client_nrf52840_xxAA_s140_6.0.0.dir/__/__/__/models/config/src/packed_index_list.c.obj
 .ARM.attributes
                0x0000000000000e0b       0x39 CMakeFiles/light_switch_client_nrf52840_xxAA_s140_6.0.0.dir/__/__/__/models/health/src/health_server.c.obj
 .ARM.attributes
                0x0000000000000e44       0x39 CMakeFiles/light_switch_client_nrf52840_xxAA_s140_6.0.0.dir/__/__/__/mesh/access/src/access_publish.c.obj
 .ARM.attributes
                0x0000000000000e7d       0x39 CMakeFiles/light_switch_client_nrf52840_xxAA_s140_6.0.0.dir/__/__/__/mesh/access/src/access.c.obj
 .ARM.attributes
                0x0000000000000eb6       0x39 CMakeFiles/light_switch_client_nrf52840_xxAA_s140_6.0.0.dir/__/__/__/mesh/access/src/access_reliable.c.obj
 .ARM.attributes
                0x0000000000000eef       0x39 CMakeFiles/light_switch_client_nrf52840_xxAA_s140_6.0.0.dir/__/__/__/mesh/access/src/device_state_manager.c.obj
 .ARM.attributes
                0x0000000000000f28       0x39 CMakeFiles/light_switch_client_nrf52840_xxAA_s140_6.0.0.dir/__/__/__/mesh/prov/src/prov_provisionee.c.obj
 .ARM.attributes
                0x0000000000000f61       0x39 CMakeFiles/light_switch_client_nrf52840_xxAA_s140_6.0.0.dir/__/__/__/mesh/prov/src/nrf_mesh_prov.c.obj
 .ARM.attributes
                0x0000000000000f9a       0x39 CMakeFiles/light_switch_client_nrf52840_xxAA_s140_6.0.0.dir/__/__/__/mesh/prov/src/provisioning.c.obj
 .ARM.attributes
                0x0000000000000fd3       0x39 CMakeFiles/light_switch_client_nrf52840_xxAA_s140_6.0.0.dir/__/__/__/mesh/prov/src/prov_beacon.c.obj
 .ARM.attributes
                0x000000000000100c       0x39 CMakeFiles/light_switch_client_nrf52840_xxAA_s140_6.0.0.dir/__/__/__/mesh/prov/src/prov_utils.c.obj
 .ARM.attributes
                0x0000000000001045       0x39 CMakeFiles/light_switch_client_nrf52840_xxAA_s140_6.0.0.dir/__/__/__/mesh/prov/src/prov_bearer_adv.c.obj
 .ARM.attributes
                0x000000000000107e       0x39 CMakeFiles/light_switch_client_nrf52840_xxAA_s140_6.0.0.dir/home/mazzer/work/nordic/sdk/nRF5_SDK_15.0.0/modules/nrfx/mdk/system_nrf52840.c.obj
 .ARM.attributes
                0x00000000000010b7       0x20 CMakeFiles/light_switch_client_nrf52840_xxAA_s140_6.0.0.dir/home/mazzer/work/nordic/sdk/nRF5_SDK_15.0.0/modules/nrfx/mdk/gcc_startup_nrf52840.S.obj
 .ARM.attributes
                0x00000000000010d7       0x39 CMakeFiles/light_switch_client_nrf52840_xxAA_s140_6.0.0.dir/home/mazzer/work/nordic/sdk/nRF5_SDK_15.0.0/components/libraries/util/app_error.c.obj
 .ARM.attributes
                0x0000000000001110       0x39 CMakeFiles/light_switch_client_nrf52840_xxAA_s140_6.0.0.dir/home/mazzer/work/nordic/sdk/nRF5_SDK_15.0.0/components/libraries/util/app_error_handler_gcc.c.obj
 .ARM.attributes
                0x0000000000001149       0x39 ../../../external/rtt/librtt_nrf52840_xxAA.a(SEGGER_RTT.c.obj)
 .ARM.attributes
                0x0000000000001182       0x39 ../../../external/rtt/librtt_nrf52840_xxAA.a(SEGGER_RTT_printf.c.obj)
 .ARM.attributes
                0x00000000000011bb       0x39 ../../../external/micro-ecc/libuECC_nrf52840_xxAA.a(uECC.c.obj)
 .ARM.attributes
                0x00000000000011f4       0x22 /usr/bin/../lib/gcc/arm-none-eabi/7.2.1/thumb/v7e-m/fpv4-sp/hard/libgcc.a(_aeabi_uldivmod.o)
 .ARM.attributes
                0x0000000000001216       0x34 /usr/bin/../lib/gcc/arm-none-eabi/7.2.1/thumb/v7e-m/fpv4-sp/hard/libgcc.a(_udivmoddi4.o)
 .ARM.attributes
                0x000000000000124a       0x22 /usr/bin/../lib/gcc/arm-none-eabi/7.2.1/thumb/v7e-m/fpv4-sp/hard/libgcc.a(_dvmd_tls.o)
 .ARM.attributes
                0x000000000000126c       0x34 /usr/bin/../lib/gcc/arm-none-eabi/7.2.1/../../../../arm-none-eabi/lib/thumb/v7e-m/fpv4-sp/hard/libg_nano.a(lib_a-exit.o)
 .ARM.attributes
                0x00000000000012a0       0x34 /usr/bin/../lib/gcc/arm-none-eabi/7.2.1/../../../../arm-none-eabi/lib/thumb/v7e-m/fpv4-sp/hard/libg_nano.a(lib_a-impure.o)
 .ARM.attributes
                0x00000000000012d4       0x34 /usr/bin/../lib/gcc/arm-none-eabi/7.2.1/../../../../arm-none-eabi/lib/thumb/v7e-m/fpv4-sp/hard/libg_nano.a(lib_a-init.o)
 .ARM.attributes
                0x0000000000001308       0x34 /usr/bin/../lib/gcc/arm-none-eabi/7.2.1/../../../../arm-none-eabi/lib/thumb/v7e-m/fpv4-sp/hard/libg_nano.a(lib_a-malloc.o)
 .ARM.attributes
                0x000000000000133c       0x34 /usr/bin/../lib/gcc/arm-none-eabi/7.2.1/../../../../arm-none-eabi/lib/thumb/v7e-m/fpv4-sp/hard/libg_nano.a(lib_a-memcmp.o)
 .ARM.attributes
                0x0000000000001370       0x34 /usr/bin/../lib/gcc/arm-none-eabi/7.2.1/../../../../arm-none-eabi/lib/thumb/v7e-m/fpv4-sp/hard/libg_nano.a(lib_a-memcpy-stub.o)
 .ARM.attributes
                0x00000000000013a4       0x34 /usr/bin/../lib/gcc/arm-none-eabi/7.2.1/../../../../arm-none-eabi/lib/thumb/v7e-m/fpv4-sp/hard/libg_nano.a(lib_a-memset.o)
 .ARM.attributes
                0x00000000000013d8       0x34 /usr/bin/../lib/gcc/arm-none-eabi/7.2.1/../../../../arm-none-eabi/lib/thumb/v7e-m/fpv4-sp/hard/libg_nano.a(lib_a-nano-freer.o)
 .ARM.attributes
                0x000000000000140c       0x34 /usr/bin/../lib/gcc/arm-none-eabi/7.2.1/../../../../arm-none-eabi/lib/thumb/v7e-m/fpv4-sp/hard/libg_nano.a(lib_a-nano-mallocr.o)
 .ARM.attributes
                0x0000000000001440       0x34 /usr/bin/../lib/gcc/arm-none-eabi/7.2.1/../../../../arm-none-eabi/lib/thumb/v7e-m/fpv4-sp/hard/libg_nano.a(lib_a-sbrkr.o)
 .ARM.attributes
                0x0000000000001474       0x34 /usr/bin/../lib/gcc/arm-none-eabi/7.2.1/../../../../arm-none-eabi/lib/thumb/v7e-m/fpv4-sp/hard/libg_nano.a(lib_a-strcpy.o)
 .ARM.attributes
                0x00000000000014a8       0x1b /usr/bin/../lib/gcc/arm-none-eabi/7.2.1/../../../../arm-none-eabi/lib/thumb/v7e-m/fpv4-sp/hard/libg_nano.a(lib_a-strlen.o)
 .ARM.attributes
                0x00000000000014c3       0x34 /usr/bin/../lib/gcc/arm-none-eabi/7.2.1/../../../../arm-none-eabi/lib/thumb/v7e-m/fpv4-sp/hard/libg_nano.a(lib_a-strrchr.o)
 .ARM.attributes
                0x00000000000014f7       0x34 /usr/bin/../lib/gcc/arm-none-eabi/7.2.1/../../../../arm-none-eabi/lib/thumb/v7e-m/fpv4-sp/hard/libg_nano.a(lib_a-mlock.o)
 .ARM.attributes
                0x000000000000152b       0x34 /usr/bin/../lib/gcc/arm-none-eabi/7.2.1/../../../../arm-none-eabi/lib/thumb/v7e-m/fpv4-sp/hard/libg_nano.a(lib_a-reent.o)
 .ARM.attributes
                0x000000000000155f       0x34 /usr/bin/../lib/gcc/arm-none-eabi/7.2.1/../../../../arm-none-eabi/lib/thumb/v7e-m/fpv4-sp/hard/libg_nano.a(lib_a-strchr.o)
 .ARM.attributes
                0x0000000000001593       0x34 /usr/bin/../lib/gcc/arm-none-eabi/7.2.1/thumb/v7e-m/fpv4-sp/hard/crtend.o
 .ARM.attributes
                0x00000000000015c7       0x22 /usr/bin/../lib/gcc/arm-none-eabi/7.2.1/thumb/v7e-m/fpv4-sp/hard/crtn.o
 .ARM.attributes
                0x00000000000015e9       0x34 /usr/bin/../lib/gcc/arm-none-eabi/7.2.1/../../../../arm-none-eabi/lib/thumb/v7e-m/fpv4-sp/hard/libnosys.a(sbrk.o)
 .ARM.attributes
                0x000000000000161d       0x34 /usr/bin/../lib/gcc/arm-none-eabi/7.2.1/../../../../arm-none-eabi/lib/thumb/v7e-m/fpv4-sp/hard/libnosys.a(_exit.o)

.comment        0x0000000000000000       0x7e
 .comment       0x0000000000000000       0x7e CMakeFiles/light_switch_client_nrf52840_xxAA_s140_6.0.0.dir/src/main.c.obj
                                         0x7f (size before relaxing)
 .comment       0x000000000000007e       0x7f CMakeFiles/light_switch_client_nrf52840_xxAA_s140_6.0.0.dir/__/__/__/mesh/stack/src/mesh_stack.c.obj
 .comment       0x000000000000007e       0x7f CMakeFiles/light_switch_client_nrf52840_xxAA_s140_6.0.0.dir/__/__/common/src/mesh_softdevice_init.c.obj
 .comment       0x000000000000007e       0x7f CMakeFiles/light_switch_client_nrf52840_xxAA_s140_6.0.0.dir/__/__/common/src/mesh_provisionee.c.obj
 .comment       0x000000000000007e       0x7f CMakeFiles/light_switch_client_nrf52840_xxAA_s140_6.0.0.dir/__/__/common/src/rtt_input.c.obj
 .comment       0x000000000000007e       0x7f CMakeFiles/light_switch_client_nrf52840_xxAA_s140_6.0.0.dir/__/__/common/src/simple_hal.c.obj
 .comment       0x000000000000007e       0x7f CMakeFiles/light_switch_client_nrf52840_xxAA_s140_6.0.0.dir/__/__/nrf_mesh_weak.c.obj
 .comment       0x000000000000007e       0x7f CMakeFiles/light_switch_client_nrf52840_xxAA_s140_6.0.0.dir/__/__/common/src/app_error_weak.c.obj
 .comment       0x000000000000007e       0x7f CMakeFiles/light_switch_client_nrf52840_xxAA_s140_6.0.0.dir/__/__/common/src/assertion_handler_weak.c.obj
 .comment       0x000000000000007e       0x7f CMakeFiles/light_switch_client_nrf52840_xxAA_s140_6.0.0.dir/__/__/__/mesh/core/src/nrf_mesh_configure.c.obj
 .comment       0x000000000000007e       0x7f CMakeFiles/light_switch_client_nrf52840_xxAA_s140_6.0.0.dir/__/__/__/mesh/core/src/aes.c.obj
 .comment       0x000000000000007e       0x7f CMakeFiles/light_switch_client_nrf52840_xxAA_s140_6.0.0.dir/__/__/__/mesh/core/src/msg_cache.c.obj
 .comment       0x000000000000007e       0x7f CMakeFiles/light_switch_client_nrf52840_xxAA_s140_6.0.0.dir/__/__/__/mesh/core/src/transport.c.obj
 .comment       0x000000000000007e       0x7f CMakeFiles/light_switch_client_nrf52840_xxAA_s140_6.0.0.dir/__/__/__/mesh/core/src/event.c.obj
 .comment       0x000000000000007e       0x7f CMakeFiles/light_switch_client_nrf52840_xxAA_s140_6.0.0.dir/__/__/__/mesh/core/src/packet_buffer.c.obj
 .comment       0x000000000000007e       0x7f CMakeFiles/light_switch_client_nrf52840_xxAA_s140_6.0.0.dir/__/__/__/mesh/core/src/flash_manager_defrag.c.obj
 .comment       0x000000000000007e       0x7f CMakeFiles/light_switch_client_nrf52840_xxAA_s140_6.0.0.dir/__/__/__/mesh/core/src/fifo.c.obj
 .comment       0x000000000000007e       0x7f CMakeFiles/light_switch_client_nrf52840_xxAA_s140_6.0.0.dir/__/__/__/mesh/core/src/nrf_flash.c.obj
 .comment       0x000000000000007e       0x7f CMakeFiles/light_switch_client_nrf52840_xxAA_s140_6.0.0.dir/__/__/__/mesh/core/src/packet_mgr.c.obj
 .comment       0x000000000000007e       0x7f CMakeFiles/light_switch_client_nrf52840_xxAA_s140_6.0.0.dir/__/__/__/mesh/core/src/net_state.c.obj
 .comment       0x000000000000007e       0x7f CMakeFiles/light_switch_client_nrf52840_xxAA_s140_6.0.0.dir/__/__/__/mesh/core/src/mesh_flash.c.obj
 .comment       0x000000000000007e       0x7f CMakeFiles/light_switch_client_nrf52840_xxAA_s140_6.0.0.dir/__/__/__/mesh/core/src/nrf_mesh_utils.c.obj
 .comment       0x000000000000007e       0x7f CMakeFiles/light_switch_client_nrf52840_xxAA_s140_6.0.0.dir/__/__/__/mesh/core/src/nrf_mesh.c.obj
 .comment       0x000000000000007e       0x7f CMakeFiles/light_switch_client_nrf52840_xxAA_s140_6.0.0.dir/__/__/__/mesh/core/src/queue.c.obj
 .comment       0x000000000000007e       0x7f CMakeFiles/light_switch_client_nrf52840_xxAA_s140_6.0.0.dir/__/__/__/mesh/core/src/hal.c.obj
 .comment       0x000000000000007e       0x7f CMakeFiles/light_switch_client_nrf52840_xxAA_s140_6.0.0.dir/__/__/__/mesh/core/src/aes_cmac.c.obj
 .comment       0x000000000000007e       0x7f CMakeFiles/light_switch_client_nrf52840_xxAA_s140_6.0.0.dir/__/__/__/mesh/core/src/timer_scheduler.c.obj
 .comment       0x000000000000007e       0x7f CMakeFiles/light_switch_client_nrf52840_xxAA_s140_6.0.0.dir/__/__/__/mesh/core/src/timer.c.obj
 .comment       0x000000000000007e       0x7f CMakeFiles/light_switch_client_nrf52840_xxAA_s140_6.0.0.dir/__/__/__/mesh/core/src/ticker.c.obj
 .comment       0x000000000000007e       0x7f CMakeFiles/light_switch_client_nrf52840_xxAA_s140_6.0.0.dir/__/__/__/mesh/core/src/rand.c.obj
 .comment       0x000000000000007e       0x7f CMakeFiles/light_switch_client_nrf52840_xxAA_s140_6.0.0.dir/__/__/__/mesh/core/src/nrf_mesh_opt.c.obj
 .comment       0x000000000000007e       0x7f CMakeFiles/light_switch_client_nrf52840_xxAA_s140_6.0.0.dir/__/__/__/mesh/core/src/timeslot.c.obj
 .comment       0x000000000000007e       0x7f CMakeFiles/light_switch_client_nrf52840_xxAA_s140_6.0.0.dir/__/__/__/mesh/core/src/bearer_event.c.obj
 .comment       0x000000000000007e       0x7f CMakeFiles/light_switch_client_nrf52840_xxAA_s140_6.0.0.dir/__/__/__/mesh/core/src/enc.c.obj
 .comment       0x000000000000007e       0x7f CMakeFiles/light_switch_client_nrf52840_xxAA_s140_6.0.0.dir/__/__/__/mesh/core/src/network.c.obj
 .comment       0x000000000000007e       0x7f CMakeFiles/light_switch_client_nrf52840_xxAA_s140_6.0.0.dir/__/__/__/mesh/core/src/net_packet.c.obj
 .comment       0x000000000000007e       0x7f CMakeFiles/light_switch_client_nrf52840_xxAA_s140_6.0.0.dir/__/__/__/mesh/core/src/msqueue.c.obj
 .comment       0x000000000000007e       0x7f CMakeFiles/light_switch_client_nrf52840_xxAA_s140_6.0.0.dir/__/__/__/mesh/core/src/nrf_mesh_keygen.c.obj
 .comment       0x000000000000007e       0x7f CMakeFiles/light_switch_client_nrf52840_xxAA_s140_6.0.0.dir/__/__/__/mesh/core/src/list.c.obj
 .comment       0x000000000000007e       0x7f CMakeFiles/light_switch_client_nrf52840_xxAA_s140_6.0.0.dir/__/__/__/mesh/core/src/log.c.obj
 .comment       0x000000000000007e       0x7f CMakeFiles/light_switch_client_nrf52840_xxAA_s140_6.0.0.dir/__/__/__/mesh/core/src/flash_manager.c.obj
 .comment       0x000000000000007e       0x7f CMakeFiles/light_switch_client_nrf52840_xxAA_s140_6.0.0.dir/__/__/__/mesh/core/src/ccm_soft.c.obj
 .comment       0x000000000000007e       0x7f CMakeFiles/light_switch_client_nrf52840_xxAA_s140_6.0.0.dir/__/__/__/mesh/core/src/replay_cache.c.obj
 .comment       0x000000000000007e       0x7f CMakeFiles/light_switch_client_nrf52840_xxAA_s140_6.0.0.dir/__/__/__/mesh/core/src/beacon.c.obj
 .comment       0x000000000000007e       0x7f CMakeFiles/light_switch_client_nrf52840_xxAA_s140_6.0.0.dir/__/__/__/mesh/core/src/flash_manager_internal.c.obj
 .comment       0x000000000000007e       0x7f CMakeFiles/light_switch_client_nrf52840_xxAA_s140_6.0.0.dir/__/__/__/mesh/core/src/core_tx.c.obj
 .comment       0x000000000000007e       0x7f CMakeFiles/light_switch_client_nrf52840_xxAA_s140_6.0.0.dir/__/__/__/mesh/core/src/heartbeat.c.obj
 .comment       0x000000000000007e       0x7f CMakeFiles/light_switch_client_nrf52840_xxAA_s140_6.0.0.dir/__/__/__/mesh/core/src/net_beacon.c.obj
 .comment       0x000000000000007e       0x7f CMakeFiles/light_switch_client_nrf52840_xxAA_s140_6.0.0.dir/__/__/__/mesh/core/src/core_tx_adv.c.obj
 .comment       0x000000000000007e       0x7f CMakeFiles/light_switch_client_nrf52840_xxAA_s140_6.0.0.dir/__/__/__/mesh/bearer/src/ad_listener.c.obj
 .comment       0x000000000000007e       0x7f CMakeFiles/light_switch_client_nrf52840_xxAA_s140_6.0.0.dir/__/__/__/mesh/bearer/src/ad_type_filter.c.obj
 .comment       0x000000000000007e       0x7f CMakeFiles/light_switch_client_nrf52840_xxAA_s140_6.0.0.dir/__/__/__/mesh/bearer/src/advertiser.c.obj
 .comment       0x000000000000007e       0x7f CMakeFiles/light_switch_client_nrf52840_xxAA_s140_6.0.0.dir/__/__/__/mesh/bearer/src/bearer_handler.c.obj
 .comment       0x000000000000007e       0x7f CMakeFiles/light_switch_client_nrf52840_xxAA_s140_6.0.0.dir/__/__/__/mesh/bearer/src/broadcast.c.obj
 .comment       0x000000000000007e       0x7f CMakeFiles/light_switch_client_nrf52840_xxAA_s140_6.0.0.dir/__/__/__/mesh/bearer/src/filter_engine.c.obj
 .comment       0x000000000000007e       0x7f CMakeFiles/light_switch_client_nrf52840_xxAA_s140_6.0.0.dir/__/__/__/mesh/bearer/src/radio_config.c.obj
 .comment       0x000000000000007e       0x7f CMakeFiles/light_switch_client_nrf52840_xxAA_s140_6.0.0.dir/__/__/__/mesh/bearer/src/scanner.c.obj
 .comment       0x000000000000007e       0x7f CMakeFiles/light_switch_client_nrf52840_xxAA_s140_6.0.0.dir/__/__/__/models/simple_on_off/src/simple_on_off_client.c.obj
 .comment       0x000000000000007e       0x7f CMakeFiles/light_switch_client_nrf52840_xxAA_s140_6.0.0.dir/__/__/__/models/config/src/composition_data.c.obj
 .comment       0x000000000000007e       0x7f CMakeFiles/light_switch_client_nrf52840_xxAA_s140_6.0.0.dir/__/__/__/models/config/src/config_server.c.obj
 .comment       0x000000000000007e       0x7f CMakeFiles/light_switch_client_nrf52840_xxAA_s140_6.0.0.dir/__/__/__/models/config/src/packed_index_list.c.obj
 .comment       0x000000000000007e       0x7f CMakeFiles/light_switch_client_nrf52840_xxAA_s140_6.0.0.dir/__/__/__/models/health/src/health_server.c.obj
 .comment       0x000000000000007e       0x7f CMakeFiles/light_switch_client_nrf52840_xxAA_s140_6.0.0.dir/__/__/__/mesh/access/src/access_publish.c.obj
 .comment       0x000000000000007e       0x7f CMakeFiles/light_switch_client_nrf52840_xxAA_s140_6.0.0.dir/__/__/__/mesh/access/src/access.c.obj
 .comment       0x000000000000007e       0x7f CMakeFiles/light_switch_client_nrf52840_xxAA_s140_6.0.0.dir/__/__/__/mesh/access/src/access_reliable.c.obj
 .comment       0x000000000000007e       0x7f CMakeFiles/light_switch_client_nrf52840_xxAA_s140_6.0.0.dir/__/__/__/mesh/access/src/device_state_manager.c.obj
 .comment       0x000000000000007e       0x7f CMakeFiles/light_switch_client_nrf52840_xxAA_s140_6.0.0.dir/__/__/__/mesh/prov/src/prov_provisionee.c.obj
 .comment       0x000000000000007e       0x7f CMakeFiles/light_switch_client_nrf52840_xxAA_s140_6.0.0.dir/__/__/__/mesh/prov/src/nrf_mesh_prov.c.obj
 .comment       0x000000000000007e       0x7f CMakeFiles/light_switch_client_nrf52840_xxAA_s140_6.0.0.dir/__/__/__/mesh/prov/src/provisioning.c.obj
 .comment       0x000000000000007e       0x7f CMakeFiles/light_switch_client_nrf52840_xxAA_s140_6.0.0.dir/__/__/__/mesh/prov/src/prov_beacon.c.obj
 .comment       0x000000000000007e       0x7f CMakeFiles/light_switch_client_nrf52840_xxAA_s140_6.0.0.dir/__/__/__/mesh/prov/src/prov_utils.c.obj
 .comment       0x000000000000007e       0x7f CMakeFiles/light_switch_client_nrf52840_xxAA_s140_6.0.0.dir/__/__/__/mesh/prov/src/prov_bearer_adv.c.obj
 .comment       0x000000000000007e       0x7f CMakeFiles/light_switch_client_nrf52840_xxAA_s140_6.0.0.dir/home/mazzer/work/nordic/sdk/nRF5_SDK_15.0.0/modules/nrfx/mdk/system_nrf52840.c.obj
 .comment       0x000000000000007e       0x7f CMakeFiles/light_switch_client_nrf52840_xxAA_s140_6.0.0.dir/home/mazzer/work/nordic/sdk/nRF5_SDK_15.0.0/components/libraries/util/app_error.c.obj
 .comment       0x000000000000007e       0x7f CMakeFiles/light_switch_client_nrf52840_xxAA_s140_6.0.0.dir/home/mazzer/work/nordic/sdk/nRF5_SDK_15.0.0/components/libraries/util/app_error_handler_gcc.c.obj
 .comment       0x000000000000007e       0x7f ../../../external/rtt/librtt_nrf52840_xxAA.a(SEGGER_RTT.c.obj)
 .comment       0x000000000000007e       0x7f ../../../external/rtt/librtt_nrf52840_xxAA.a(SEGGER_RTT_printf.c.obj)
 .comment       0x000000000000007e       0x7f ../../../external/micro-ecc/libuECC_nrf52840_xxAA.a(uECC.c.obj)

.debug_info     0x0000000000000000    0x93f28
 .debug_info    0x0000000000000000     0x31dd CMakeFiles/light_switch_client_nrf52840_xxAA_s140_6.0.0.dir/src/main.c.obj
 .debug_info    0x00000000000031dd     0x2346 CMakeFiles/light_switch_client_nrf52840_xxAA_s140_6.0.0.dir/__/__/__/mesh/stack/src/mesh_stack.c.obj
 .debug_info    0x0000000000005523     0x17ec CMakeFiles/light_switch_client_nrf52840_xxAA_s140_6.0.0.dir/__/__/common/src/mesh_softdevice_init.c.obj
 .debug_info    0x0000000000006d0f     0x218f CMakeFiles/light_switch_client_nrf52840_xxAA_s140_6.0.0.dir/__/__/common/src/mesh_provisionee.c.obj
 .debug_info    0x0000000000008e9e     0x118d CMakeFiles/light_switch_client_nrf52840_xxAA_s140_6.0.0.dir/__/__/common/src/rtt_input.c.obj
 .debug_info    0x000000000000a02b     0x1596 CMakeFiles/light_switch_client_nrf52840_xxAA_s140_6.0.0.dir/__/__/common/src/simple_hal.c.obj
 .debug_info    0x000000000000b5c1      0x91d CMakeFiles/light_switch_client_nrf52840_xxAA_s140_6.0.0.dir/__/__/nrf_mesh_weak.c.obj
 .debug_info    0x000000000000bede     0x1170 CMakeFiles/light_switch_client_nrf52840_xxAA_s140_6.0.0.dir/__/__/common/src/app_error_weak.c.obj
 .debug_info    0x000000000000d04e      0x994 CMakeFiles/light_switch_client_nrf52840_xxAA_s140_6.0.0.dir/__/__/common/src/assertion_handler_weak.c.obj
 .debug_info    0x000000000000d9e2      0xdf8 CMakeFiles/light_switch_client_nrf52840_xxAA_s140_6.0.0.dir/__/__/__/mesh/core/src/nrf_mesh_configure.c.obj
 .debug_info    0x000000000000e7da      0xbea CMakeFiles/light_switch_client_nrf52840_xxAA_s140_6.0.0.dir/__/__/__/mesh/core/src/aes.c.obj
 .debug_info    0x000000000000f3c4      0xa51 CMakeFiles/light_switch_client_nrf52840_xxAA_s140_6.0.0.dir/__/__/__/mesh/core/src/msg_cache.c.obj
 .debug_info    0x000000000000fe15     0x6184 CMakeFiles/light_switch_client_nrf52840_xxAA_s140_6.0.0.dir/__/__/__/mesh/core/src/transport.c.obj
 .debug_info    0x0000000000015f99     0x1763 CMakeFiles/light_switch_client_nrf52840_xxAA_s140_6.0.0.dir/__/__/__/mesh/core/src/event.c.obj
 .debug_info    0x00000000000176fc     0x1aa3 CMakeFiles/light_switch_client_nrf52840_xxAA_s140_6.0.0.dir/__/__/__/mesh/core/src/packet_buffer.c.obj
 .debug_info    0x000000000001919f     0x24b1 CMakeFiles/light_switch_client_nrf52840_xxAA_s140_6.0.0.dir/__/__/__/mesh/core/src/flash_manager_defrag.c.obj
 .debug_info    0x000000000001b650      0xd9a CMakeFiles/light_switch_client_nrf52840_xxAA_s140_6.0.0.dir/__/__/__/mesh/core/src/fifo.c.obj
 .debug_info    0x000000000001c3ea      0xb70 CMakeFiles/light_switch_client_nrf52840_xxAA_s140_6.0.0.dir/__/__/__/mesh/core/src/nrf_flash.c.obj
 .debug_info    0x000000000001cf5a     0x118f CMakeFiles/light_switch_client_nrf52840_xxAA_s140_6.0.0.dir/__/__/__/mesh/core/src/packet_mgr.c.obj
 .debug_info    0x000000000001e0e9     0x3735 CMakeFiles/light_switch_client_nrf52840_xxAA_s140_6.0.0.dir/__/__/__/mesh/core/src/net_state.c.obj
 .debug_info    0x000000000002181e     0x1be8 CMakeFiles/light_switch_client_nrf52840_xxAA_s140_6.0.0.dir/__/__/__/mesh/core/src/mesh_flash.c.obj
 .debug_info    0x0000000000023406      0xa72 CMakeFiles/light_switch_client_nrf52840_xxAA_s140_6.0.0.dir/__/__/__/mesh/core/src/nrf_mesh_utils.c.obj
 .debug_info    0x0000000000023e78     0x2678 CMakeFiles/light_switch_client_nrf52840_xxAA_s140_6.0.0.dir/__/__/__/mesh/core/src/nrf_mesh.c.obj
 .debug_info    0x00000000000264f0      0xb10 CMakeFiles/light_switch_client_nrf52840_xxAA_s140_6.0.0.dir/__/__/__/mesh/core/src/queue.c.obj
 .debug_info    0x0000000000027000      0x514 CMakeFiles/light_switch_client_nrf52840_xxAA_s140_6.0.0.dir/__/__/__/mesh/core/src/hal.c.obj
 .debug_info    0x0000000000027514      0xe8f CMakeFiles/light_switch_client_nrf52840_xxAA_s140_6.0.0.dir/__/__/__/mesh/core/src/aes_cmac.c.obj
 .debug_info    0x00000000000283a3     0x13bd CMakeFiles/light_switch_client_nrf52840_xxAA_s140_6.0.0.dir/__/__/__/mesh/core/src/timer_scheduler.c.obj
 .debug_info    0x0000000000029760      0xe1e CMakeFiles/light_switch_client_nrf52840_xxAA_s140_6.0.0.dir/__/__/__/mesh/core/src/timer.c.obj
 .debug_info    0x000000000002a57e      0x20c CMakeFiles/light_switch_client_nrf52840_xxAA_s140_6.0.0.dir/__/__/__/mesh/core/src/ticker.c.obj
 .debug_info    0x000000000002a78a      0x4d4 CMakeFiles/light_switch_client_nrf52840_xxAA_s140_6.0.0.dir/__/__/__/mesh/core/src/rand.c.obj
 .debug_info    0x000000000002ac5e      0xaef CMakeFiles/light_switch_client_nrf52840_xxAA_s140_6.0.0.dir/__/__/__/mesh/core/src/nrf_mesh_opt.c.obj
 .debug_info    0x000000000002b74d     0x1c1b CMakeFiles/light_switch_client_nrf52840_xxAA_s140_6.0.0.dir/__/__/__/mesh/core/src/timeslot.c.obj
 .debug_info    0x000000000002d368     0x1c9f CMakeFiles/light_switch_client_nrf52840_xxAA_s140_6.0.0.dir/__/__/__/mesh/core/src/bearer_event.c.obj
 .debug_info    0x000000000002f007     0x181f CMakeFiles/light_switch_client_nrf52840_xxAA_s140_6.0.0.dir/__/__/__/mesh/core/src/enc.c.obj
 .debug_info    0x0000000000030826     0x1cc0 CMakeFiles/light_switch_client_nrf52840_xxAA_s140_6.0.0.dir/__/__/__/mesh/core/src/network.c.obj
 .debug_info    0x00000000000324e6     0x1de3 CMakeFiles/light_switch_client_nrf52840_xxAA_s140_6.0.0.dir/__/__/__/mesh/core/src/net_packet.c.obj
 .debug_info    0x00000000000342c9      0xe51 CMakeFiles/light_switch_client_nrf52840_xxAA_s140_6.0.0.dir/__/__/__/mesh/core/src/msqueue.c.obj
 .debug_info    0x000000000003511a      0x4c0 CMakeFiles/light_switch_client_nrf52840_xxAA_s140_6.0.0.dir/__/__/__/mesh/core/src/nrf_mesh_keygen.c.obj
 .debug_info    0x00000000000355da      0x573 CMakeFiles/light_switch_client_nrf52840_xxAA_s140_6.0.0.dir/__/__/__/mesh/core/src/list.c.obj
 .debug_info    0x0000000000035b4d      0xe8b CMakeFiles/light_switch_client_nrf52840_xxAA_s140_6.0.0.dir/__/__/__/mesh/core/src/log.c.obj
 .debug_info    0x00000000000369d8     0x3cc6 CMakeFiles/light_switch_client_nrf52840_xxAA_s140_6.0.0.dir/__/__/__/mesh/core/src/flash_manager.c.obj
 .debug_info    0x000000000003a69e     0x120f CMakeFiles/light_switch_client_nrf52840_xxAA_s140_6.0.0.dir/__/__/__/mesh/core/src/ccm_soft.c.obj
 .debug_info    0x000000000003b8ad      0xa87 CMakeFiles/light_switch_client_nrf52840_xxAA_s140_6.0.0.dir/__/__/__/mesh/core/src/replay_cache.c.obj
 .debug_info    0x000000000003c334     0x17c2 CMakeFiles/light_switch_client_nrf52840_xxAA_s140_6.0.0.dir/__/__/__/mesh/core/src/beacon.c.obj
 .debug_info    0x000000000003daf6      0xb98 CMakeFiles/light_switch_client_nrf52840_xxAA_s140_6.0.0.dir/__/__/__/mesh/core/src/flash_manager_internal.c.obj
 .debug_info    0x000000000003e68e     0x1264 CMakeFiles/light_switch_client_nrf52840_xxAA_s140_6.0.0.dir/__/__/__/mesh/core/src/core_tx.c.obj
 .debug_info    0x000000000003f8f2     0x24e7 CMakeFiles/light_switch_client_nrf52840_xxAA_s140_6.0.0.dir/__/__/__/mesh/core/src/heartbeat.c.obj
 .debug_info    0x0000000000041dd9     0x2a3c CMakeFiles/light_switch_client_nrf52840_xxAA_s140_6.0.0.dir/__/__/__/mesh/core/src/net_beacon.c.obj
 .debug_info    0x0000000000044815     0x197e CMakeFiles/light_switch_client_nrf52840_xxAA_s140_6.0.0.dir/__/__/__/mesh/core/src/core_tx_adv.c.obj
 .debug_info    0x0000000000046193     0x116a CMakeFiles/light_switch_client_nrf52840_xxAA_s140_6.0.0.dir/__/__/__/mesh/bearer/src/ad_listener.c.obj
 .debug_info    0x00000000000472fd      0xfc4 CMakeFiles/light_switch_client_nrf52840_xxAA_s140_6.0.0.dir/__/__/__/mesh/bearer/src/ad_type_filter.c.obj
 .debug_info    0x00000000000482c1     0x2af6 CMakeFiles/light_switch_client_nrf52840_xxAA_s140_6.0.0.dir/__/__/__/mesh/bearer/src/advertiser.c.obj
 .debug_info    0x000000000004adb7     0x1bad CMakeFiles/light_switch_client_nrf52840_xxAA_s140_6.0.0.dir/__/__/__/mesh/bearer/src/bearer_handler.c.obj
 .debug_info    0x000000000004c964     0x1af7 CMakeFiles/light_switch_client_nrf52840_xxAA_s140_6.0.0.dir/__/__/__/mesh/bearer/src/broadcast.c.obj
 .debug_info    0x000000000004e45b      0xd3e CMakeFiles/light_switch_client_nrf52840_xxAA_s140_6.0.0.dir/__/__/__/mesh/bearer/src/filter_engine.c.obj
 .debug_info    0x000000000004f199      0xa28 CMakeFiles/light_switch_client_nrf52840_xxAA_s140_6.0.0.dir/__/__/__/mesh/bearer/src/radio_config.c.obj
 .debug_info    0x000000000004fbc1     0x2df8 CMakeFiles/light_switch_client_nrf52840_xxAA_s140_6.0.0.dir/__/__/__/mesh/bearer/src/scanner.c.obj
 .debug_info    0x00000000000529b9     0x168b CMakeFiles/light_switch_client_nrf52840_xxAA_s140_6.0.0.dir/__/__/__/models/simple_on_off/src/simple_on_off_client.c.obj
 .debug_info    0x0000000000054044      0xee4 CMakeFiles/light_switch_client_nrf52840_xxAA_s140_6.0.0.dir/__/__/__/models/config/src/composition_data.c.obj
 .debug_info    0x0000000000054f28     0xc3c7 CMakeFiles/light_switch_client_nrf52840_xxAA_s140_6.0.0.dir/__/__/__/models/config/src/config_server.c.obj
 .debug_info    0x00000000000612ef      0x126 CMakeFiles/light_switch_client_nrf52840_xxAA_s140_6.0.0.dir/__/__/__/models/config/src/packed_index_list.c.obj
 .debug_info    0x0000000000061415     0x2e65 CMakeFiles/light_switch_client_nrf52840_xxAA_s140_6.0.0.dir/__/__/__/models/health/src/health_server.c.obj
 .debug_info    0x000000000006427a     0x12cf CMakeFiles/light_switch_client_nrf52840_xxAA_s140_6.0.0.dir/__/__/__/mesh/access/src/access_publish.c.obj
 .debug_info    0x0000000000065549     0x58be CMakeFiles/light_switch_client_nrf52840_xxAA_s140_6.0.0.dir/__/__/__/mesh/access/src/access.c.obj
 .debug_info    0x000000000006ae07     0x1b90 CMakeFiles/light_switch_client_nrf52840_xxAA_s140_6.0.0.dir/__/__/__/mesh/access/src/access_reliable.c.obj
 .debug_info    0x000000000006c997     0x8b40 CMakeFiles/light_switch_client_nrf52840_xxAA_s140_6.0.0.dir/__/__/__/mesh/access/src/device_state_manager.c.obj
 .debug_info    0x00000000000754d7     0x2c7b CMakeFiles/light_switch_client_nrf52840_xxAA_s140_6.0.0.dir/__/__/__/mesh/prov/src/prov_provisionee.c.obj
 .debug_info    0x0000000000078152     0x1fa2 CMakeFiles/light_switch_client_nrf52840_xxAA_s140_6.0.0.dir/__/__/__/mesh/prov/src/nrf_mesh_prov.c.obj
 .debug_info    0x000000000007a0f4     0x18dc CMakeFiles/light_switch_client_nrf52840_xxAA_s140_6.0.0.dir/__/__/__/mesh/prov/src/provisioning.c.obj
 .debug_info    0x000000000007b9d0     0x1a93 CMakeFiles/light_switch_client_nrf52840_xxAA_s140_6.0.0.dir/__/__/__/mesh/prov/src/prov_beacon.c.obj
 .debug_info    0x000000000007d463     0x2108 CMakeFiles/light_switch_client_nrf52840_xxAA_s140_6.0.0.dir/__/__/__/mesh/prov/src/prov_utils.c.obj
 .debug_info    0x000000000007f56b     0x4a03 CMakeFiles/light_switch_client_nrf52840_xxAA_s140_6.0.0.dir/__/__/__/mesh/prov/src/prov_bearer_adv.c.obj
 .debug_info    0x0000000000083f6e     0x137d CMakeFiles/light_switch_client_nrf52840_xxAA_s140_6.0.0.dir/home/mazzer/work/nordic/sdk/nRF5_SDK_15.0.0/modules/nrfx/mdk/system_nrf52840.c.obj
 .debug_info    0x00000000000852eb       0x26 CMakeFiles/light_switch_client_nrf52840_xxAA_s140_6.0.0.dir/home/mazzer/work/nordic/sdk/nRF5_SDK_15.0.0/modules/nrfx/mdk/gcc_startup_nrf52840.S.obj
 .debug_info    0x0000000000085311      0xae7 CMakeFiles/light_switch_client_nrf52840_xxAA_s140_6.0.0.dir/home/mazzer/work/nordic/sdk/nRF5_SDK_15.0.0/components/libraries/util/app_error.c.obj
 .debug_info    0x0000000000085df8      0x96d CMakeFiles/light_switch_client_nrf52840_xxAA_s140_6.0.0.dir/home/mazzer/work/nordic/sdk/nRF5_SDK_15.0.0/components/libraries/util/app_error_handler_gcc.c.obj
 .debug_info    0x0000000000086765     0x2b01 ../../../external/rtt/librtt_nrf52840_xxAA.a(SEGGER_RTT.c.obj)
 .debug_info    0x0000000000089266     0x11e1 ../../../external/rtt/librtt_nrf52840_xxAA.a(SEGGER_RTT_printf.c.obj)
 .debug_info    0x000000000008a447     0x9ae1 ../../../external/micro-ecc/libuECC_nrf52840_xxAA.a(uECC.c.obj)

.debug_abbrev   0x0000000000000000    0x1138d
 .debug_abbrev  0x0000000000000000      0x553 CMakeFiles/light_switch_client_nrf52840_xxAA_s140_6.0.0.dir/src/main.c.obj
 .debug_abbrev  0x0000000000000553      0x3b3 CMakeFiles/light_switch_client_nrf52840_xxAA_s140_6.0.0.dir/__/__/__/mesh/stack/src/mesh_stack.c.obj
 .debug_abbrev  0x0000000000000906      0x408 CMakeFiles/light_switch_client_nrf52840_xxAA_s140_6.0.0.dir/__/__/common/src/mesh_softdevice_init.c.obj
 .debug_abbrev  0x0000000000000d0e      0x393 CMakeFiles/light_switch_client_nrf52840_xxAA_s140_6.0.0.dir/__/__/common/src/mesh_provisionee.c.obj
 .debug_abbrev  0x00000000000010a1      0x2ba CMakeFiles/light_switch_client_nrf52840_xxAA_s140_6.0.0.dir/__/__/common/src/rtt_input.c.obj
 .debug_abbrev  0x000000000000135b      0x372 CMakeFiles/light_switch_client_nrf52840_xxAA_s140_6.0.0.dir/__/__/common/src/simple_hal.c.obj
 .debug_abbrev  0x00000000000016cd      0x1ae CMakeFiles/light_switch_client_nrf52840_xxAA_s140_6.0.0.dir/__/__/nrf_mesh_weak.c.obj
 .debug_abbrev  0x000000000000187b      0x2d5 CMakeFiles/light_switch_client_nrf52840_xxAA_s140_6.0.0.dir/__/__/common/src/app_error_weak.c.obj
 .debug_abbrev  0x0000000000001b50      0x1f6 CMakeFiles/light_switch_client_nrf52840_xxAA_s140_6.0.0.dir/__/__/common/src/assertion_handler_weak.c.obj
 .debug_abbrev  0x0000000000001d46      0x254 CMakeFiles/light_switch_client_nrf52840_xxAA_s140_6.0.0.dir/__/__/__/mesh/core/src/nrf_mesh_configure.c.obj
 .debug_abbrev  0x0000000000001f9a      0x266 CMakeFiles/light_switch_client_nrf52840_xxAA_s140_6.0.0.dir/__/__/__/mesh/core/src/aes.c.obj
 .debug_abbrev  0x0000000000002200      0x24e CMakeFiles/light_switch_client_nrf52840_xxAA_s140_6.0.0.dir/__/__/__/mesh/core/src/msg_cache.c.obj
 .debug_abbrev  0x000000000000244e      0x5f7 CMakeFiles/light_switch_client_nrf52840_xxAA_s140_6.0.0.dir/__/__/__/mesh/core/src/transport.c.obj
 .debug_abbrev  0x0000000000002a45      0x2d2 CMakeFiles/light_switch_client_nrf52840_xxAA_s140_6.0.0.dir/__/__/__/mesh/core/src/event.c.obj
 .debug_abbrev  0x0000000000002d17      0x455 CMakeFiles/light_switch_client_nrf52840_xxAA_s140_6.0.0.dir/__/__/__/mesh/core/src/packet_buffer.c.obj
 .debug_abbrev  0x000000000000316c      0x526 CMakeFiles/light_switch_client_nrf52840_xxAA_s140_6.0.0.dir/__/__/__/mesh/core/src/flash_manager_defrag.c.obj
 .debug_abbrev  0x0000000000003692      0x2fc CMakeFiles/light_switch_client_nrf52840_xxAA_s140_6.0.0.dir/__/__/__/mesh/core/src/fifo.c.obj
 .debug_abbrev  0x000000000000398e      0x22d CMakeFiles/light_switch_client_nrf52840_xxAA_s140_6.0.0.dir/__/__/__/mesh/core/src/nrf_flash.c.obj
 .debug_abbrev  0x0000000000003bbb      0x3bf CMakeFiles/light_switch_client_nrf52840_xxAA_s140_6.0.0.dir/__/__/__/mesh/core/src/packet_mgr.c.obj
 .debug_abbrev  0x0000000000003f7a      0x5a6 CMakeFiles/light_switch_client_nrf52840_xxAA_s140_6.0.0.dir/__/__/__/mesh/core/src/net_state.c.obj
 .debug_abbrev  0x0000000000004520      0x467 CMakeFiles/light_switch_client_nrf52840_xxAA_s140_6.0.0.dir/__/__/__/mesh/core/src/mesh_flash.c.obj
 .debug_abbrev  0x0000000000004987      0x244 CMakeFiles/light_switch_client_nrf52840_xxAA_s140_6.0.0.dir/__/__/__/mesh/core/src/nrf_mesh_utils.c.obj
 .debug_abbrev  0x0000000000004bcb      0x47a CMakeFiles/light_switch_client_nrf52840_xxAA_s140_6.0.0.dir/__/__/__/mesh/core/src/nrf_mesh.c.obj
 .debug_abbrev  0x0000000000005045      0x247 CMakeFiles/light_switch_client_nrf52840_xxAA_s140_6.0.0.dir/__/__/__/mesh/core/src/queue.c.obj
 .debug_abbrev  0x000000000000528c      0x1d1 CMakeFiles/light_switch_client_nrf52840_xxAA_s140_6.0.0.dir/__/__/__/mesh/core/src/hal.c.obj
 .debug_abbrev  0x000000000000545d      0x2e3 CMakeFiles/light_switch_client_nrf52840_xxAA_s140_6.0.0.dir/__/__/__/mesh/core/src/aes_cmac.c.obj
 .debug_abbrev  0x0000000000005740      0x3f7 CMakeFiles/light_switch_client_nrf52840_xxAA_s140_6.0.0.dir/__/__/__/mesh/core/src/timer_scheduler.c.obj
 .debug_abbrev  0x0000000000005b37      0x378 CMakeFiles/light_switch_client_nrf52840_xxAA_s140_6.0.0.dir/__/__/__/mesh/core/src/timer.c.obj
 .debug_abbrev  0x0000000000005eaf      0x154 CMakeFiles/light_switch_client_nrf52840_xxAA_s140_6.0.0.dir/__/__/__/mesh/core/src/ticker.c.obj
 .debug_abbrev  0x0000000000006003      0x22e CMakeFiles/light_switch_client_nrf52840_xxAA_s140_6.0.0.dir/__/__/__/mesh/core/src/rand.c.obj
 .debug_abbrev  0x0000000000006231      0x24c CMakeFiles/light_switch_client_nrf52840_xxAA_s140_6.0.0.dir/__/__/__/mesh/core/src/nrf_mesh_opt.c.obj
 .debug_abbrev  0x000000000000647d      0x4e5 CMakeFiles/light_switch_client_nrf52840_xxAA_s140_6.0.0.dir/__/__/__/mesh/core/src/timeslot.c.obj
 .debug_abbrev  0x0000000000006962      0x4f9 CMakeFiles/light_switch_client_nrf52840_xxAA_s140_6.0.0.dir/__/__/__/mesh/core/src/bearer_event.c.obj
 .debug_abbrev  0x0000000000006e5b      0x39b CMakeFiles/light_switch_client_nrf52840_xxAA_s140_6.0.0.dir/__/__/__/mesh/core/src/enc.c.obj
 .debug_abbrev  0x00000000000071f6      0x4e2 CMakeFiles/light_switch_client_nrf52840_xxAA_s140_6.0.0.dir/__/__/__/mesh/core/src/network.c.obj
 .debug_abbrev  0x00000000000076d8      0x4a1 CMakeFiles/light_switch_client_nrf52840_xxAA_s140_6.0.0.dir/__/__/__/mesh/core/src/net_packet.c.obj
 .debug_abbrev  0x0000000000007b79      0x2e9 CMakeFiles/light_switch_client_nrf52840_xxAA_s140_6.0.0.dir/__/__/__/mesh/core/src/msqueue.c.obj
 .debug_abbrev  0x0000000000007e62      0x156 CMakeFiles/light_switch_client_nrf52840_xxAA_s140_6.0.0.dir/__/__/__/mesh/core/src/nrf_mesh_keygen.c.obj
 .debug_abbrev  0x0000000000007fb8      0x1ec CMakeFiles/light_switch_client_nrf52840_xxAA_s140_6.0.0.dir/__/__/__/mesh/core/src/list.c.obj
 .debug_abbrev  0x00000000000081a4      0x2b4 CMakeFiles/light_switch_client_nrf52840_xxAA_s140_6.0.0.dir/__/__/__/mesh/core/src/log.c.obj
 .debug_abbrev  0x0000000000008458      0x538 CMakeFiles/light_switch_client_nrf52840_xxAA_s140_6.0.0.dir/__/__/__/mesh/core/src/flash_manager.c.obj
 .debug_abbrev  0x0000000000008990      0x2f5 CMakeFiles/light_switch_client_nrf52840_xxAA_s140_6.0.0.dir/__/__/__/mesh/core/src/ccm_soft.c.obj
 .debug_abbrev  0x0000000000008c85      0x29b CMakeFiles/light_switch_client_nrf52840_xxAA_s140_6.0.0.dir/__/__/__/mesh/core/src/replay_cache.c.obj
 .debug_abbrev  0x0000000000008f20      0x310 CMakeFiles/light_switch_client_nrf52840_xxAA_s140_6.0.0.dir/__/__/__/mesh/core/src/beacon.c.obj
 .debug_abbrev  0x0000000000009230      0x2a4 CMakeFiles/light_switch_client_nrf52840_xxAA_s140_6.0.0.dir/__/__/__/mesh/core/src/flash_manager_internal.c.obj
 .debug_abbrev  0x00000000000094d4      0x2fc CMakeFiles/light_switch_client_nrf52840_xxAA_s140_6.0.0.dir/__/__/__/mesh/core/src/core_tx.c.obj
 .debug_abbrev  0x00000000000097d0      0x4e3 CMakeFiles/light_switch_client_nrf52840_xxAA_s140_6.0.0.dir/__/__/__/mesh/core/src/heartbeat.c.obj
 .debug_abbrev  0x0000000000009cb3      0x512 CMakeFiles/light_switch_client_nrf52840_xxAA_s140_6.0.0.dir/__/__/__/mesh/core/src/net_beacon.c.obj
 .debug_abbrev  0x000000000000a1c5      0x330 CMakeFiles/light_switch_client_nrf52840_xxAA_s140_6.0.0.dir/__/__/__/mesh/core/src/core_tx_adv.c.obj
 .debug_abbrev  0x000000000000a4f5      0x340 CMakeFiles/light_switch_client_nrf52840_xxAA_s140_6.0.0.dir/__/__/__/mesh/bearer/src/ad_listener.c.obj
 .debug_abbrev  0x000000000000a835      0x375 CMakeFiles/light_switch_client_nrf52840_xxAA_s140_6.0.0.dir/__/__/__/mesh/bearer/src/ad_type_filter.c.obj
 .debug_abbrev  0x000000000000abaa      0x56a CMakeFiles/light_switch_client_nrf52840_xxAA_s140_6.0.0.dir/__/__/__/mesh/bearer/src/advertiser.c.obj
 .debug_abbrev  0x000000000000b114      0x3fa CMakeFiles/light_switch_client_nrf52840_xxAA_s140_6.0.0.dir/__/__/__/mesh/bearer/src/bearer_handler.c.obj
 .debug_abbrev  0x000000000000b50e      0x3eb CMakeFiles/light_switch_client_nrf52840_xxAA_s140_6.0.0.dir/__/__/__/mesh/bearer/src/broadcast.c.obj
 .debug_abbrev  0x000000000000b8f9      0x2af CMakeFiles/light_switch_client_nrf52840_xxAA_s140_6.0.0.dir/__/__/__/mesh/bearer/src/filter_engine.c.obj
 .debug_abbrev  0x000000000000bba8      0x1e4 CMakeFiles/light_switch_client_nrf52840_xxAA_s140_6.0.0.dir/__/__/__/mesh/bearer/src/radio_config.c.obj
 .debug_abbrev  0x000000000000bd8c      0x59f CMakeFiles/light_switch_client_nrf52840_xxAA_s140_6.0.0.dir/__/__/__/mesh/bearer/src/scanner.c.obj
 .debug_abbrev  0x000000000000c32b      0x3c9 CMakeFiles/light_switch_client_nrf52840_xxAA_s140_6.0.0.dir/__/__/__/models/simple_on_off/src/simple_on_off_client.c.obj
 .debug_abbrev  0x000000000000c6f4      0x305 CMakeFiles/light_switch_client_nrf52840_xxAA_s140_6.0.0.dir/__/__/__/models/config/src/composition_data.c.obj
 .debug_abbrev  0x000000000000c9f9      0x56c CMakeFiles/light_switch_client_nrf52840_xxAA_s140_6.0.0.dir/__/__/__/models/config/src/config_server.c.obj
 .debug_abbrev  0x000000000000cf65       0x95 CMakeFiles/light_switch_client_nrf52840_xxAA_s140_6.0.0.dir/__/__/__/models/config/src/packed_index_list.c.obj
 .debug_abbrev  0x000000000000cffa      0x505 CMakeFiles/light_switch_client_nrf52840_xxAA_s140_6.0.0.dir/__/__/__/models/health/src/health_server.c.obj
 .debug_abbrev  0x000000000000d4ff      0x423 CMakeFiles/light_switch_client_nrf52840_xxAA_s140_6.0.0.dir/__/__/__/mesh/access/src/access_publish.c.obj
 .debug_abbrev  0x000000000000d922      0x67c CMakeFiles/light_switch_client_nrf52840_xxAA_s140_6.0.0.dir/__/__/__/mesh/access/src/access.c.obj
 .debug_abbrev  0x000000000000df9e      0x455 CMakeFiles/light_switch_client_nrf52840_xxAA_s140_6.0.0.dir/__/__/__/mesh/access/src/access_reliable.c.obj
 .debug_abbrev  0x000000000000e3f3      0x5a8 CMakeFiles/light_switch_client_nrf52840_xxAA_s140_6.0.0.dir/__/__/__/mesh/access/src/device_state_manager.c.obj
 .debug_abbrev  0x000000000000e99b      0x47e CMakeFiles/light_switch_client_nrf52840_xxAA_s140_6.0.0.dir/__/__/__/mesh/prov/src/prov_provisionee.c.obj
 .debug_abbrev  0x000000000000ee19      0x450 CMakeFiles/light_switch_client_nrf52840_xxAA_s140_6.0.0.dir/__/__/__/mesh/prov/src/nrf_mesh_prov.c.obj
 .debug_abbrev  0x000000000000f269      0x2e6 CMakeFiles/light_switch_client_nrf52840_xxAA_s140_6.0.0.dir/__/__/__/mesh/prov/src/provisioning.c.obj
 .debug_abbrev  0x000000000000f54f      0x2fc CMakeFiles/light_switch_client_nrf52840_xxAA_s140_6.0.0.dir/__/__/__/mesh/prov/src/prov_beacon.c.obj
 .debug_abbrev  0x000000000000f84b      0x3f3 CMakeFiles/light_switch_client_nrf52840_xxAA_s140_6.0.0.dir/__/__/__/mesh/prov/src/prov_utils.c.obj
 .debug_abbrev  0x000000000000fc3e      0x55d CMakeFiles/light_switch_client_nrf52840_xxAA_s140_6.0.0.dir/__/__/__/mesh/prov/src/prov_bearer_adv.c.obj
 .debug_abbrev  0x000000000001019b      0x1e8 CMakeFiles/light_switch_client_nrf52840_xxAA_s140_6.0.0.dir/home/mazzer/work/nordic/sdk/nRF5_SDK_15.0.0/modules/nrfx/mdk/system_nrf52840.c.obj
 .debug_abbrev  0x0000000000010383       0x14 CMakeFiles/light_switch_client_nrf52840_xxAA_s140_6.0.0.dir/home/mazzer/work/nordic/sdk/nRF5_SDK_15.0.0/modules/nrfx/mdk/gcc_startup_nrf52840.S.obj
 .debug_abbrev  0x0000000000010397      0x232 CMakeFiles/light_switch_client_nrf52840_xxAA_s140_6.0.0.dir/home/mazzer/work/nordic/sdk/nRF5_SDK_15.0.0/components/libraries/util/app_error.c.obj
 .debug_abbrev  0x00000000000105c9      0x1bd CMakeFiles/light_switch_client_nrf52840_xxAA_s140_6.0.0.dir/home/mazzer/work/nordic/sdk/nRF5_SDK_15.0.0/components/libraries/util/app_error_handler_gcc.c.obj
 .debug_abbrev  0x0000000000010786      0x3d2 ../../../external/rtt/librtt_nrf52840_xxAA.a(SEGGER_RTT.c.obj)
 .debug_abbrev  0x0000000000010b58      0x353 ../../../external/rtt/librtt_nrf52840_xxAA.a(SEGGER_RTT_printf.c.obj)
 .debug_abbrev  0x0000000000010eab      0x4e2 ../../../external/micro-ecc/libuECC_nrf52840_xxAA.a(uECC.c.obj)

.debug_loc      0x0000000000000000    0x473a8
 .debug_loc     0x0000000000000000      0x87a CMakeFiles/light_switch_client_nrf52840_xxAA_s140_6.0.0.dir/src/main.c.obj
 .debug_loc     0x000000000000087a      0x1a3 CMakeFiles/light_switch_client_nrf52840_xxAA_s140_6.0.0.dir/__/__/__/mesh/stack/src/mesh_stack.c.obj
 .debug_loc     0x0000000000000a1d      0x1bb CMakeFiles/light_switch_client_nrf52840_xxAA_s140_6.0.0.dir/__/__/common/src/mesh_softdevice_init.c.obj
 .debug_loc     0x0000000000000bd8      0x16b CMakeFiles/light_switch_client_nrf52840_xxAA_s140_6.0.0.dir/__/__/common/src/mesh_provisionee.c.obj
 .debug_loc     0x0000000000000d43       0xbf CMakeFiles/light_switch_client_nrf52840_xxAA_s140_6.0.0.dir/__/__/common/src/rtt_input.c.obj
 .debug_loc     0x0000000000000e02      0x29c CMakeFiles/light_switch_client_nrf52840_xxAA_s140_6.0.0.dir/__/__/common/src/simple_hal.c.obj
 .debug_loc     0x000000000000109e      0x1c6 CMakeFiles/light_switch_client_nrf52840_xxAA_s140_6.0.0.dir/__/__/common/src/app_error_weak.c.obj
 .debug_loc     0x0000000000001264       0x2c CMakeFiles/light_switch_client_nrf52840_xxAA_s140_6.0.0.dir/__/__/common/src/assertion_handler_weak.c.obj
 .debug_loc     0x0000000000001290       0x2c CMakeFiles/light_switch_client_nrf52840_xxAA_s140_6.0.0.dir/__/__/__/mesh/core/src/nrf_mesh_configure.c.obj
 .debug_loc     0x00000000000012bc       0x89 CMakeFiles/light_switch_client_nrf52840_xxAA_s140_6.0.0.dir/__/__/__/mesh/core/src/aes.c.obj
 .debug_loc     0x0000000000001345       0xab CMakeFiles/light_switch_client_nrf52840_xxAA_s140_6.0.0.dir/__/__/__/mesh/core/src/msg_cache.c.obj
 .debug_loc     0x00000000000013f0     0x41e3 CMakeFiles/light_switch_client_nrf52840_xxAA_s140_6.0.0.dir/__/__/__/mesh/core/src/transport.c.obj
 .debug_loc     0x00000000000055d3      0x169 CMakeFiles/light_switch_client_nrf52840_xxAA_s140_6.0.0.dir/__/__/__/mesh/core/src/event.c.obj
 .debug_loc     0x000000000000573c      0xcfb CMakeFiles/light_switch_client_nrf52840_xxAA_s140_6.0.0.dir/__/__/__/mesh/core/src/packet_buffer.c.obj
 .debug_loc     0x0000000000006437      0xbd0 CMakeFiles/light_switch_client_nrf52840_xxAA_s140_6.0.0.dir/__/__/__/mesh/core/src/flash_manager_defrag.c.obj
 .debug_loc     0x0000000000007007      0x86b CMakeFiles/light_switch_client_nrf52840_xxAA_s140_6.0.0.dir/__/__/__/mesh/core/src/fifo.c.obj
 .debug_loc     0x0000000000007872      0x194 CMakeFiles/light_switch_client_nrf52840_xxAA_s140_6.0.0.dir/__/__/__/mesh/core/src/nrf_flash.c.obj
 .debug_loc     0x0000000000007a06      0x788 CMakeFiles/light_switch_client_nrf52840_xxAA_s140_6.0.0.dir/__/__/__/mesh/core/src/packet_mgr.c.obj
 .debug_loc     0x000000000000818e      0xfdf CMakeFiles/light_switch_client_nrf52840_xxAA_s140_6.0.0.dir/__/__/__/mesh/core/src/net_state.c.obj
 .debug_loc     0x000000000000916d      0xfd3 CMakeFiles/light_switch_client_nrf52840_xxAA_s140_6.0.0.dir/__/__/__/mesh/core/src/mesh_flash.c.obj
 .debug_loc     0x000000000000a140      0x185 CMakeFiles/light_switch_client_nrf52840_xxAA_s140_6.0.0.dir/__/__/__/mesh/core/src/nrf_mesh_utils.c.obj
 .debug_loc     0x000000000000a2c5      0x6be CMakeFiles/light_switch_client_nrf52840_xxAA_s140_6.0.0.dir/__/__/__/mesh/core/src/nrf_mesh.c.obj
 .debug_loc     0x000000000000a983      0x186 CMakeFiles/light_switch_client_nrf52840_xxAA_s140_6.0.0.dir/__/__/__/mesh/core/src/queue.c.obj
 .debug_loc     0x000000000000ab09       0x63 CMakeFiles/light_switch_client_nrf52840_xxAA_s140_6.0.0.dir/__/__/__/mesh/core/src/hal.c.obj
 .debug_loc     0x000000000000ab6c      0xb75 CMakeFiles/light_switch_client_nrf52840_xxAA_s140_6.0.0.dir/__/__/__/mesh/core/src/aes_cmac.c.obj
 .debug_loc     0x000000000000b6e1      0x5b7 CMakeFiles/light_switch_client_nrf52840_xxAA_s140_6.0.0.dir/__/__/__/mesh/core/src/timer_scheduler.c.obj
 .debug_loc     0x000000000000bc98      0x608 CMakeFiles/light_switch_client_nrf52840_xxAA_s140_6.0.0.dir/__/__/__/mesh/core/src/timer.c.obj
 .debug_loc     0x000000000000c2a0      0x1c5 CMakeFiles/light_switch_client_nrf52840_xxAA_s140_6.0.0.dir/__/__/__/mesh/core/src/rand.c.obj
 .debug_loc     0x000000000000c465      0x194 CMakeFiles/light_switch_client_nrf52840_xxAA_s140_6.0.0.dir/__/__/__/mesh/core/src/nrf_mesh_opt.c.obj
 .debug_loc     0x000000000000c5f9      0x4f1 CMakeFiles/light_switch_client_nrf52840_xxAA_s140_6.0.0.dir/__/__/__/mesh/core/src/timeslot.c.obj
 .debug_loc     0x000000000000caea      0x86e CMakeFiles/light_switch_client_nrf52840_xxAA_s140_6.0.0.dir/__/__/__/mesh/core/src/bearer_event.c.obj
 .debug_loc     0x000000000000d358      0xb0d CMakeFiles/light_switch_client_nrf52840_xxAA_s140_6.0.0.dir/__/__/__/mesh/core/src/enc.c.obj
 .debug_loc     0x000000000000de65      0x864 CMakeFiles/light_switch_client_nrf52840_xxAA_s140_6.0.0.dir/__/__/__/mesh/core/src/network.c.obj
 .debug_loc     0x000000000000e6c9      0x978 CMakeFiles/light_switch_client_nrf52840_xxAA_s140_6.0.0.dir/__/__/__/mesh/core/src/net_packet.c.obj
 .debug_loc     0x000000000000f041      0x438 CMakeFiles/light_switch_client_nrf52840_xxAA_s140_6.0.0.dir/__/__/__/mesh/core/src/msqueue.c.obj
 .debug_loc     0x000000000000f479      0x210 CMakeFiles/light_switch_client_nrf52840_xxAA_s140_6.0.0.dir/__/__/__/mesh/core/src/nrf_mesh_keygen.c.obj
 .debug_loc     0x000000000000f689      0x565 CMakeFiles/light_switch_client_nrf52840_xxAA_s140_6.0.0.dir/__/__/__/mesh/core/src/list.c.obj
 .debug_loc     0x000000000000fbee      0x3dd CMakeFiles/light_switch_client_nrf52840_xxAA_s140_6.0.0.dir/__/__/__/mesh/core/src/log.c.obj
 .debug_loc     0x000000000000ffcb     0x21f7 CMakeFiles/light_switch_client_nrf52840_xxAA_s140_6.0.0.dir/__/__/__/mesh/core/src/flash_manager.c.obj
 .debug_loc     0x00000000000121c2      0xb6e CMakeFiles/light_switch_client_nrf52840_xxAA_s140_6.0.0.dir/__/__/__/mesh/core/src/ccm_soft.c.obj
 .debug_loc     0x0000000000012d30      0x16c CMakeFiles/light_switch_client_nrf52840_xxAA_s140_6.0.0.dir/__/__/__/mesh/core/src/replay_cache.c.obj
 .debug_loc     0x0000000000012e9c      0x416 CMakeFiles/light_switch_client_nrf52840_xxAA_s140_6.0.0.dir/__/__/__/mesh/core/src/beacon.c.obj
 .debug_loc     0x00000000000132b2      0x12d CMakeFiles/light_switch_client_nrf52840_xxAA_s140_6.0.0.dir/__/__/__/mesh/core/src/flash_manager_internal.c.obj
 .debug_loc     0x00000000000133df      0x4d1 CMakeFiles/light_switch_client_nrf52840_xxAA_s140_6.0.0.dir/__/__/__/mesh/core/src/core_tx.c.obj
 .debug_loc     0x00000000000138b0      0x6c5 CMakeFiles/light_switch_client_nrf52840_xxAA_s140_6.0.0.dir/__/__/__/mesh/core/src/heartbeat.c.obj
 .debug_loc     0x0000000000013f75      0x6e9 CMakeFiles/light_switch_client_nrf52840_xxAA_s140_6.0.0.dir/__/__/__/mesh/core/src/net_beacon.c.obj
 .debug_loc     0x000000000001465e      0x3d3 CMakeFiles/light_switch_client_nrf52840_xxAA_s140_6.0.0.dir/__/__/__/mesh/core/src/core_tx_adv.c.obj
 .debug_loc     0x0000000000014a31      0x45f CMakeFiles/light_switch_client_nrf52840_xxAA_s140_6.0.0.dir/__/__/__/mesh/bearer/src/ad_listener.c.obj
 .debug_loc     0x0000000000014e90      0x321 CMakeFiles/light_switch_client_nrf52840_xxAA_s140_6.0.0.dir/__/__/__/mesh/bearer/src/ad_type_filter.c.obj
 .debug_loc     0x00000000000151b1     0x12af CMakeFiles/light_switch_client_nrf52840_xxAA_s140_6.0.0.dir/__/__/__/mesh/bearer/src/advertiser.c.obj
 .debug_loc     0x0000000000016460      0x394 CMakeFiles/light_switch_client_nrf52840_xxAA_s140_6.0.0.dir/__/__/__/mesh/bearer/src/bearer_handler.c.obj
 .debug_loc     0x00000000000167f4      0x30e CMakeFiles/light_switch_client_nrf52840_xxAA_s140_6.0.0.dir/__/__/__/mesh/bearer/src/broadcast.c.obj
 .debug_loc     0x0000000000016b02      0x179 CMakeFiles/light_switch_client_nrf52840_xxAA_s140_6.0.0.dir/__/__/__/mesh/bearer/src/filter_engine.c.obj
 .debug_loc     0x0000000000016c7b      0x239 CMakeFiles/light_switch_client_nrf52840_xxAA_s140_6.0.0.dir/__/__/__/mesh/bearer/src/radio_config.c.obj
 .debug_loc     0x0000000000016eb4      0x899 CMakeFiles/light_switch_client_nrf52840_xxAA_s140_6.0.0.dir/__/__/__/mesh/bearer/src/scanner.c.obj
 .debug_loc     0x000000000001774d      0x805 CMakeFiles/light_switch_client_nrf52840_xxAA_s140_6.0.0.dir/__/__/__/models/simple_on_off/src/simple_on_off_client.c.obj
 .debug_loc     0x0000000000017f52      0x29f CMakeFiles/light_switch_client_nrf52840_xxAA_s140_6.0.0.dir/__/__/__/models/config/src/composition_data.c.obj
 .debug_loc     0x00000000000181f1     0xa6d1 CMakeFiles/light_switch_client_nrf52840_xxAA_s140_6.0.0.dir/__/__/__/models/config/src/config_server.c.obj
 .debug_loc     0x00000000000228c2       0xa8 CMakeFiles/light_switch_client_nrf52840_xxAA_s140_6.0.0.dir/__/__/__/models/config/src/packed_index_list.c.obj
 .debug_loc     0x000000000002296a     0x3724 CMakeFiles/light_switch_client_nrf52840_xxAA_s140_6.0.0.dir/__/__/__/models/health/src/health_server.c.obj
 .debug_loc     0x000000000002608e      0x939 CMakeFiles/light_switch_client_nrf52840_xxAA_s140_6.0.0.dir/__/__/__/mesh/access/src/access_publish.c.obj
 .debug_loc     0x00000000000269c7     0x403f CMakeFiles/light_switch_client_nrf52840_xxAA_s140_6.0.0.dir/__/__/__/mesh/access/src/access.c.obj
 .debug_loc     0x000000000002aa06      0xead CMakeFiles/light_switch_client_nrf52840_xxAA_s140_6.0.0.dir/__/__/__/mesh/access/src/access_reliable.c.obj
 .debug_loc     0x000000000002b8b3     0x6bb6 CMakeFiles/light_switch_client_nrf52840_xxAA_s140_6.0.0.dir/__/__/__/mesh/access/src/device_state_manager.c.obj
 .debug_loc     0x0000000000032469      0xaad CMakeFiles/light_switch_client_nrf52840_xxAA_s140_6.0.0.dir/__/__/__/mesh/prov/src/prov_provisionee.c.obj
 .debug_loc     0x0000000000032f16      0xaf3 CMakeFiles/light_switch_client_nrf52840_xxAA_s140_6.0.0.dir/__/__/__/mesh/prov/src/nrf_mesh_prov.c.obj
 .debug_loc     0x0000000000033a09      0xc0a CMakeFiles/light_switch_client_nrf52840_xxAA_s140_6.0.0.dir/__/__/__/mesh/prov/src/provisioning.c.obj
 .debug_loc     0x0000000000034613      0x255 CMakeFiles/light_switch_client_nrf52840_xxAA_s140_6.0.0.dir/__/__/__/mesh/prov/src/prov_beacon.c.obj
 .debug_loc     0x0000000000034868      0x492 CMakeFiles/light_switch_client_nrf52840_xxAA_s140_6.0.0.dir/__/__/__/mesh/prov/src/prov_utils.c.obj
 .debug_loc     0x0000000000034cfa     0x2722 CMakeFiles/light_switch_client_nrf52840_xxAA_s140_6.0.0.dir/__/__/__/mesh/prov/src/prov_bearer_adv.c.obj
 .debug_loc     0x000000000003741c       0xca CMakeFiles/light_switch_client_nrf52840_xxAA_s140_6.0.0.dir/home/mazzer/work/nordic/sdk/nRF5_SDK_15.0.0/components/libraries/util/app_error.c.obj
 .debug_loc     0x00000000000374e6       0x63 CMakeFiles/light_switch_client_nrf52840_xxAA_s140_6.0.0.dir/home/mazzer/work/nordic/sdk/nRF5_SDK_15.0.0/components/libraries/util/app_error_handler_gcc.c.obj
 .debug_loc     0x0000000000037549     0x3e95 ../../../external/rtt/librtt_nrf52840_xxAA.a(SEGGER_RTT.c.obj)
 .debug_loc     0x000000000003b3de      0xec5 ../../../external/rtt/librtt_nrf52840_xxAA.a(SEGGER_RTT_printf.c.obj)
 .debug_loc     0x000000000003c2a3     0xb105 ../../../external/micro-ecc/libuECC_nrf52840_xxAA.a(uECC.c.obj)

.debug_aranges  0x0000000000000000     0x1e70
 .debug_aranges
                0x0000000000000000       0x60 CMakeFiles/light_switch_client_nrf52840_xxAA_s140_6.0.0.dir/src/main.c.obj
 .debug_aranges
                0x0000000000000060       0x50 CMakeFiles/light_switch_client_nrf52840_xxAA_s140_6.0.0.dir/__/__/__/mesh/stack/src/mesh_stack.c.obj
 .debug_aranges
                0x00000000000000b0       0x40 CMakeFiles/light_switch_client_nrf52840_xxAA_s140_6.0.0.dir/__/__/common/src/mesh_softdevice_init.c.obj
 .debug_aranges
                0x00000000000000f0       0x28 CMakeFiles/light_switch_client_nrf52840_xxAA_s140_6.0.0.dir/__/__/common/src/mesh_provisionee.c.obj
 .debug_aranges
                0x0000000000000118       0x30 CMakeFiles/light_switch_client_nrf52840_xxAA_s140_6.0.0.dir/__/__/common/src/rtt_input.c.obj
 .debug_aranges
                0x0000000000000148       0x50 CMakeFiles/light_switch_client_nrf52840_xxAA_s140_6.0.0.dir/__/__/common/src/simple_hal.c.obj
 .debug_aranges
                0x0000000000000198       0x28 CMakeFiles/light_switch_client_nrf52840_xxAA_s140_6.0.0.dir/__/__/nrf_mesh_weak.c.obj
 .debug_aranges
                0x00000000000001c0       0x20 CMakeFiles/light_switch_client_nrf52840_xxAA_s140_6.0.0.dir/__/__/common/src/app_error_weak.c.obj
 .debug_aranges
                0x00000000000001e0       0x20 CMakeFiles/light_switch_client_nrf52840_xxAA_s140_6.0.0.dir/__/__/common/src/assertion_handler_weak.c.obj
 .debug_aranges
                0x0000000000000200       0x30 CMakeFiles/light_switch_client_nrf52840_xxAA_s140_6.0.0.dir/__/__/__/mesh/core/src/nrf_mesh_configure.c.obj
 .debug_aranges
                0x0000000000000230       0x28 CMakeFiles/light_switch_client_nrf52840_xxAA_s140_6.0.0.dir/__/__/__/mesh/core/src/aes.c.obj
 .debug_aranges
                0x0000000000000258       0x38 CMakeFiles/light_switch_client_nrf52840_xxAA_s140_6.0.0.dir/__/__/__/mesh/core/src/msg_cache.c.obj
 .debug_aranges
                0x0000000000000290       0xc0 CMakeFiles/light_switch_client_nrf52840_xxAA_s140_6.0.0.dir/__/__/__/mesh/core/src/transport.c.obj
 .debug_aranges
                0x0000000000000350       0x30 CMakeFiles/light_switch_client_nrf52840_xxAA_s140_6.0.0.dir/__/__/__/mesh/core/src/event.c.obj
 .debug_aranges
                0x0000000000000380       0x60 CMakeFiles/light_switch_client_nrf52840_xxAA_s140_6.0.0.dir/__/__/__/mesh/core/src/packet_buffer.c.obj
 .debug_aranges
                0x00000000000003e0       0xa0 CMakeFiles/light_switch_client_nrf52840_xxAA_s140_6.0.0.dir/__/__/__/mesh/core/src/flash_manager_defrag.c.obj
 .debug_aranges
                0x0000000000000480       0x60 CMakeFiles/light_switch_client_nrf52840_xxAA_s140_6.0.0.dir/__/__/__/mesh/core/src/fifo.c.obj
 .debug_aranges
                0x00000000000004e0       0x28 CMakeFiles/light_switch_client_nrf52840_xxAA_s140_6.0.0.dir/__/__/__/mesh/core/src/nrf_flash.c.obj
 .debug_aranges
                0x0000000000000508       0x48 CMakeFiles/light_switch_client_nrf52840_xxAA_s140_6.0.0.dir/__/__/__/mesh/core/src/packet_mgr.c.obj
 .debug_aranges
                0x0000000000000550       0xd0 CMakeFiles/light_switch_client_nrf52840_xxAA_s140_6.0.0.dir/__/__/__/mesh/core/src/net_state.c.obj
 .debug_aranges
                0x0000000000000620       0x58 CMakeFiles/light_switch_client_nrf52840_xxAA_s140_6.0.0.dir/__/__/__/mesh/core/src/mesh_flash.c.obj
 .debug_aranges
                0x0000000000000678       0x30 CMakeFiles/light_switch_client_nrf52840_xxAA_s140_6.0.0.dir/__/__/__/mesh/core/src/nrf_mesh_utils.c.obj
 .debug_aranges
                0x00000000000006a8       0x90 CMakeFiles/light_switch_client_nrf52840_xxAA_s140_6.0.0.dir/__/__/__/mesh/core/src/nrf_mesh.c.obj
 .debug_aranges
                0x0000000000000738       0x38 CMakeFiles/light_switch_client_nrf52840_xxAA_s140_6.0.0.dir/__/__/__/mesh/core/src/queue.c.obj
 .debug_aranges
                0x0000000000000770       0x30 CMakeFiles/light_switch_client_nrf52840_xxAA_s140_6.0.0.dir/__/__/__/mesh/core/src/hal.c.obj
 .debug_aranges
                0x00000000000007a0       0x28 CMakeFiles/light_switch_client_nrf52840_xxAA_s140_6.0.0.dir/__/__/__/mesh/core/src/aes_cmac.c.obj
 .debug_aranges
                0x00000000000007c8       0x50 CMakeFiles/light_switch_client_nrf52840_xxAA_s140_6.0.0.dir/__/__/__/mesh/core/src/timer_scheduler.c.obj
 .debug_aranges
                0x0000000000000818       0x58 CMakeFiles/light_switch_client_nrf52840_xxAA_s140_6.0.0.dir/__/__/__/mesh/core/src/timer.c.obj
 .debug_aranges
                0x0000000000000870       0x30 CMakeFiles/light_switch_client_nrf52840_xxAA_s140_6.0.0.dir/__/__/__/mesh/core/src/ticker.c.obj
 .debug_aranges
                0x00000000000008a0       0x40 CMakeFiles/light_switch_client_nrf52840_xxAA_s140_6.0.0.dir/__/__/__/mesh/core/src/rand.c.obj
 .debug_aranges
                0x00000000000008e0       0x28 CMakeFiles/light_switch_client_nrf52840_xxAA_s140_6.0.0.dir/__/__/__/mesh/core/src/nrf_mesh_opt.c.obj
 .debug_aranges
                0x0000000000000908       0xa8 CMakeFiles/light_switch_client_nrf52840_xxAA_s140_6.0.0.dir/__/__/__/mesh/core/src/timeslot.c.obj
 .debug_aranges
                0x00000000000009b0       0x88 CMakeFiles/light_switch_client_nrf52840_xxAA_s140_6.0.0.dir/__/__/__/mesh/core/src/bearer_event.c.obj
 .debug_aranges
                0x0000000000000a38       0x70 CMakeFiles/light_switch_client_nrf52840_xxAA_s140_6.0.0.dir/__/__/__/mesh/core/src/enc.c.obj
 .debug_aranges
                0x0000000000000aa8       0x50 CMakeFiles/light_switch_client_nrf52840_xxAA_s140_6.0.0.dir/__/__/__/mesh/core/src/network.c.obj
 .debug_aranges
                0x0000000000000af8       0x58 CMakeFiles/light_switch_client_nrf52840_xxAA_s140_6.0.0.dir/__/__/__/mesh/core/src/net_packet.c.obj
 .debug_aranges
                0x0000000000000b50       0x40 CMakeFiles/light_switch_client_nrf52840_xxAA_s140_6.0.0.dir/__/__/__/mesh/core/src/msqueue.c.obj
 .debug_aranges
                0x0000000000000b90       0x40 CMakeFiles/light_switch_client_nrf52840_xxAA_s140_6.0.0.dir/__/__/__/mesh/core/src/nrf_mesh_keygen.c.obj
 .debug_aranges
                0x0000000000000bd0       0x40 CMakeFiles/light_switch_client_nrf52840_xxAA_s140_6.0.0.dir/__/__/__/mesh/core/src/list.c.obj
 .debug_aranges
                0x0000000000000c10       0x48 CMakeFiles/light_switch_client_nrf52840_xxAA_s140_6.0.0.dir/__/__/__/mesh/core/src/log.c.obj
 .debug_aranges
                0x0000000000000c58       0xa0 CMakeFiles/light_switch_client_nrf52840_xxAA_s140_6.0.0.dir/__/__/__/mesh/core/src/flash_manager.c.obj
 .debug_aranges
                0x0000000000000cf8       0x38 CMakeFiles/light_switch_client_nrf52840_xxAA_s140_6.0.0.dir/__/__/__/mesh/core/src/ccm_soft.c.obj
 .debug_aranges
                0x0000000000000d30       0x38 CMakeFiles/light_switch_client_nrf52840_xxAA_s140_6.0.0.dir/__/__/__/mesh/core/src/replay_cache.c.obj
 .debug_aranges
                0x0000000000000d68       0x28 CMakeFiles/light_switch_client_nrf52840_xxAA_s140_6.0.0.dir/__/__/__/mesh/core/src/beacon.c.obj
 .debug_aranges
                0x0000000000000d90       0x20 CMakeFiles/light_switch_client_nrf52840_xxAA_s140_6.0.0.dir/__/__/__/mesh/core/src/flash_manager_internal.c.obj
 .debug_aranges
                0x0000000000000db0       0x58 CMakeFiles/light_switch_client_nrf52840_xxAA_s140_6.0.0.dir/__/__/__/mesh/core/src/core_tx.c.obj
 .debug_aranges
                0x0000000000000e08       0x70 CMakeFiles/light_switch_client_nrf52840_xxAA_s140_6.0.0.dir/__/__/__/mesh/core/src/heartbeat.c.obj
 .debug_aranges
                0x0000000000000e78       0x58 CMakeFiles/light_switch_client_nrf52840_xxAA_s140_6.0.0.dir/__/__/__/mesh/core/src/net_beacon.c.obj
 .debug_aranges
                0x0000000000000ed0       0x68 CMakeFiles/light_switch_client_nrf52840_xxAA_s140_6.0.0.dir/__/__/__/mesh/core/src/core_tx_adv.c.obj
 .debug_aranges
                0x0000000000000f38       0x30 CMakeFiles/light_switch_client_nrf52840_xxAA_s140_6.0.0.dir/__/__/__/mesh/bearer/src/ad_listener.c.obj
 .debug_aranges
                0x0000000000000f68       0x58 CMakeFiles/light_switch_client_nrf52840_xxAA_s140_6.0.0.dir/__/__/__/mesh/bearer/src/ad_type_filter.c.obj
 .debug_aranges
                0x0000000000000fc0       0xa0 CMakeFiles/light_switch_client_nrf52840_xxAA_s140_6.0.0.dir/__/__/__/mesh/bearer/src/advertiser.c.obj
 .debug_aranges
                0x0000000000001060       0x70 CMakeFiles/light_switch_client_nrf52840_xxAA_s140_6.0.0.dir/__/__/__/mesh/bearer/src/bearer_handler.c.obj
 .debug_aranges
                0x00000000000010d0       0x30 CMakeFiles/light_switch_client_nrf52840_xxAA_s140_6.0.0.dir/__/__/__/mesh/bearer/src/broadcast.c.obj
 .debug_aranges
                0x0000000000001100       0x38 CMakeFiles/light_switch_client_nrf52840_xxAA_s140_6.0.0.dir/__/__/__/mesh/bearer/src/filter_engine.c.obj
 .debug_aranges
                0x0000000000001138       0x40 CMakeFiles/light_switch_client_nrf52840_xxAA_s140_6.0.0.dir/__/__/__/mesh/bearer/src/radio_config.c.obj
 .debug_aranges
                0x0000000000001178       0xb8 CMakeFiles/light_switch_client_nrf52840_xxAA_s140_6.0.0.dir/__/__/__/mesh/bearer/src/scanner.c.obj
 .debug_aranges
                0x0000000000001230       0x58 CMakeFiles/light_switch_client_nrf52840_xxAA_s140_6.0.0.dir/__/__/__/models/simple_on_off/src/simple_on_off_client.c.obj
 .debug_aranges
                0x0000000000001288       0x20 CMakeFiles/light_switch_client_nrf52840_xxAA_s140_6.0.0.dir/__/__/__/models/config/src/composition_data.c.obj
 .debug_aranges
                0x00000000000012a8      0x1a8 CMakeFiles/light_switch_client_nrf52840_xxAA_s140_6.0.0.dir/__/__/__/models/config/src/config_server.c.obj
 .debug_aranges
                0x0000000000001450       0x20 CMakeFiles/light_switch_client_nrf52840_xxAA_s140_6.0.0.dir/__/__/__/models/config/src/packed_index_list.c.obj
 .debug_aranges
                0x0000000000001470       0xa0 CMakeFiles/light_switch_client_nrf52840_xxAA_s140_6.0.0.dir/__/__/__/models/health/src/health_server.c.obj
 .debug_aranges
                0x0000000000001510       0x40 CMakeFiles/light_switch_client_nrf52840_xxAA_s140_6.0.0.dir/__/__/__/mesh/access/src/access_publish.c.obj
 .debug_aranges
                0x0000000000001550      0x180 CMakeFiles/light_switch_client_nrf52840_xxAA_s140_6.0.0.dir/__/__/__/mesh/access/src/access.c.obj
 .debug_aranges
                0x00000000000016d0       0x50 CMakeFiles/light_switch_client_nrf52840_xxAA_s140_6.0.0.dir/__/__/__/mesh/access/src/access_reliable.c.obj
 .debug_aranges
                0x0000000000001720      0x250 CMakeFiles/light_switch_client_nrf52840_xxAA_s140_6.0.0.dir/__/__/__/mesh/access/src/device_state_manager.c.obj
 .debug_aranges
                0x0000000000001970       0x60 CMakeFiles/light_switch_client_nrf52840_xxAA_s140_6.0.0.dir/__/__/__/mesh/prov/src/prov_provisionee.c.obj
 .debug_aranges
                0x00000000000019d0       0x80 CMakeFiles/light_switch_client_nrf52840_xxAA_s140_6.0.0.dir/__/__/__/mesh/prov/src/nrf_mesh_prov.c.obj
 .debug_aranges
                0x0000000000001a50       0x78 CMakeFiles/light_switch_client_nrf52840_xxAA_s140_6.0.0.dir/__/__/__/mesh/prov/src/provisioning.c.obj
 .debug_aranges
                0x0000000000001ac8       0x38 CMakeFiles/light_switch_client_nrf52840_xxAA_s140_6.0.0.dir/__/__/__/mesh/prov/src/prov_beacon.c.obj
 .debug_aranges
                0x0000000000001b00       0x60 CMakeFiles/light_switch_client_nrf52840_xxAA_s140_6.0.0.dir/__/__/__/mesh/prov/src/prov_utils.c.obj
 .debug_aranges
                0x0000000000001b60       0xa0 CMakeFiles/light_switch_client_nrf52840_xxAA_s140_6.0.0.dir/__/__/__/mesh/prov/src/prov_bearer_adv.c.obj
 .debug_aranges
                0x0000000000001c00       0x28 CMakeFiles/light_switch_client_nrf52840_xxAA_s140_6.0.0.dir/home/mazzer/work/nordic/sdk/nRF5_SDK_15.0.0/modules/nrfx/mdk/system_nrf52840.c.obj
 .debug_aranges
                0x0000000000001c28       0x20 CMakeFiles/light_switch_client_nrf52840_xxAA_s140_6.0.0.dir/home/mazzer/work/nordic/sdk/nRF5_SDK_15.0.0/modules/nrfx/mdk/gcc_startup_nrf52840.S.obj
 .debug_aranges
                0x0000000000001c48       0x28 CMakeFiles/light_switch_client_nrf52840_xxAA_s140_6.0.0.dir/home/mazzer/work/nordic/sdk/nRF5_SDK_15.0.0/components/libraries/util/app_error.c.obj
 .debug_aranges
                0x0000000000001c70       0x20 CMakeFiles/light_switch_client_nrf52840_xxAA_s140_6.0.0.dir/home/mazzer/work/nordic/sdk/nRF5_SDK_15.0.0/components/libraries/util/app_error_handler_gcc.c.obj
 .debug_aranges
                0x0000000000001c90       0xb0 ../../../external/rtt/librtt_nrf52840_xxAA.a(SEGGER_RTT.c.obj)
 .debug_aranges
                0x0000000000001d40       0x30 ../../../external/rtt/librtt_nrf52840_xxAA.a(SEGGER_RTT_printf.c.obj)
 .debug_aranges
                0x0000000000001d70      0x100 ../../../external/micro-ecc/libuECC_nrf52840_xxAA.a(uECC.c.obj)

.debug_ranges   0x0000000000000000     0xd0d8
 .debug_ranges  0x0000000000000000      0x448 CMakeFiles/light_switch_client_nrf52840_xxAA_s140_6.0.0.dir/src/main.c.obj
 .debug_ranges  0x0000000000000448       0x88 CMakeFiles/light_switch_client_nrf52840_xxAA_s140_6.0.0.dir/__/__/__/mesh/stack/src/mesh_stack.c.obj
 .debug_ranges  0x00000000000004d0       0xe8 CMakeFiles/light_switch_client_nrf52840_xxAA_s140_6.0.0.dir/__/__/common/src/mesh_softdevice_init.c.obj
 .debug_ranges  0x00000000000005b8       0x90 CMakeFiles/light_switch_client_nrf52840_xxAA_s140_6.0.0.dir/__/__/common/src/mesh_provisionee.c.obj
 .debug_ranges  0x0000000000000648       0x78 CMakeFiles/light_switch_client_nrf52840_xxAA_s140_6.0.0.dir/__/__/common/src/rtt_input.c.obj
 .debug_ranges  0x00000000000006c0       0xc0 CMakeFiles/light_switch_client_nrf52840_xxAA_s140_6.0.0.dir/__/__/common/src/simple_hal.c.obj
 .debug_ranges  0x0000000000000780       0x18 CMakeFiles/light_switch_client_nrf52840_xxAA_s140_6.0.0.dir/__/__/nrf_mesh_weak.c.obj
 .debug_ranges  0x0000000000000798       0xc8 CMakeFiles/light_switch_client_nrf52840_xxAA_s140_6.0.0.dir/__/__/common/src/app_error_weak.c.obj
 .debug_ranges  0x0000000000000860       0x10 CMakeFiles/light_switch_client_nrf52840_xxAA_s140_6.0.0.dir/__/__/common/src/assertion_handler_weak.c.obj
 .debug_ranges  0x0000000000000870       0x20 CMakeFiles/light_switch_client_nrf52840_xxAA_s140_6.0.0.dir/__/__/__/mesh/core/src/nrf_mesh_configure.c.obj
 .debug_ranges  0x0000000000000890       0x18 CMakeFiles/light_switch_client_nrf52840_xxAA_s140_6.0.0.dir/__/__/__/mesh/core/src/aes.c.obj
 .debug_ranges  0x00000000000008a8       0x40 CMakeFiles/light_switch_client_nrf52840_xxAA_s140_6.0.0.dir/__/__/__/mesh/core/src/msg_cache.c.obj
 .debug_ranges  0x00000000000008e8      0xf08 CMakeFiles/light_switch_client_nrf52840_xxAA_s140_6.0.0.dir/__/__/__/mesh/core/src/transport.c.obj
 .debug_ranges  0x00000000000017f0       0x20 CMakeFiles/light_switch_client_nrf52840_xxAA_s140_6.0.0.dir/__/__/__/mesh/core/src/event.c.obj
 .debug_ranges  0x0000000000001810      0x118 CMakeFiles/light_switch_client_nrf52840_xxAA_s140_6.0.0.dir/__/__/__/mesh/core/src/packet_buffer.c.obj
 .debug_ranges  0x0000000000001928      0x4c8 CMakeFiles/light_switch_client_nrf52840_xxAA_s140_6.0.0.dir/__/__/__/mesh/core/src/flash_manager_defrag.c.obj
 .debug_ranges  0x0000000000001df0       0xc0 CMakeFiles/light_switch_client_nrf52840_xxAA_s140_6.0.0.dir/__/__/__/mesh/core/src/fifo.c.obj
 .debug_ranges  0x0000000000001eb0       0x30 CMakeFiles/light_switch_client_nrf52840_xxAA_s140_6.0.0.dir/__/__/__/mesh/core/src/nrf_flash.c.obj
 .debug_ranges  0x0000000000001ee0       0xe8 CMakeFiles/light_switch_client_nrf52840_xxAA_s140_6.0.0.dir/__/__/__/mesh/core/src/packet_mgr.c.obj
 .debug_ranges  0x0000000000001fc8      0x868 CMakeFiles/light_switch_client_nrf52840_xxAA_s140_6.0.0.dir/__/__/__/mesh/core/src/net_state.c.obj
 .debug_ranges  0x0000000000002830      0x300 CMakeFiles/light_switch_client_nrf52840_xxAA_s140_6.0.0.dir/__/__/__/mesh/core/src/mesh_flash.c.obj
 .debug_ranges  0x0000000000002b30       0x20 CMakeFiles/light_switch_client_nrf52840_xxAA_s140_6.0.0.dir/__/__/__/mesh/core/src/nrf_mesh_utils.c.obj
 .debug_ranges  0x0000000000002b50      0x150 CMakeFiles/light_switch_client_nrf52840_xxAA_s140_6.0.0.dir/__/__/__/mesh/core/src/nrf_mesh.c.obj
 .debug_ranges  0x0000000000002ca0       0x28 CMakeFiles/light_switch_client_nrf52840_xxAA_s140_6.0.0.dir/__/__/__/mesh/core/src/queue.c.obj
 .debug_ranges  0x0000000000002cc8       0x20 CMakeFiles/light_switch_client_nrf52840_xxAA_s140_6.0.0.dir/__/__/__/mesh/core/src/hal.c.obj
 .debug_ranges  0x0000000000002ce8      0x150 CMakeFiles/light_switch_client_nrf52840_xxAA_s140_6.0.0.dir/__/__/__/mesh/core/src/aes_cmac.c.obj
 .debug_ranges  0x0000000000002e38      0x288 CMakeFiles/light_switch_client_nrf52840_xxAA_s140_6.0.0.dir/__/__/__/mesh/core/src/timer_scheduler.c.obj
 .debug_ranges  0x00000000000030c0      0x178 CMakeFiles/light_switch_client_nrf52840_xxAA_s140_6.0.0.dir/__/__/__/mesh/core/src/timer.c.obj
 .debug_ranges  0x0000000000003238       0x20 CMakeFiles/light_switch_client_nrf52840_xxAA_s140_6.0.0.dir/__/__/__/mesh/core/src/ticker.c.obj
 .debug_ranges  0x0000000000003258       0x48 CMakeFiles/light_switch_client_nrf52840_xxAA_s140_6.0.0.dir/__/__/__/mesh/core/src/rand.c.obj
 .debug_ranges  0x00000000000032a0       0x18 CMakeFiles/light_switch_client_nrf52840_xxAA_s140_6.0.0.dir/__/__/__/mesh/core/src/nrf_mesh_opt.c.obj
 .debug_ranges  0x00000000000032b8      0x250 CMakeFiles/light_switch_client_nrf52840_xxAA_s140_6.0.0.dir/__/__/__/mesh/core/src/timeslot.c.obj
 .debug_ranges  0x0000000000003508      0x288 CMakeFiles/light_switch_client_nrf52840_xxAA_s140_6.0.0.dir/__/__/__/mesh/core/src/bearer_event.c.obj
 .debug_ranges  0x0000000000003790      0x1b8 CMakeFiles/light_switch_client_nrf52840_xxAA_s140_6.0.0.dir/__/__/__/mesh/core/src/enc.c.obj
 .debug_ranges  0x0000000000003948      0x1b8 CMakeFiles/light_switch_client_nrf52840_xxAA_s140_6.0.0.dir/__/__/__/mesh/core/src/network.c.obj
 .debug_ranges  0x0000000000003b00      0x208 CMakeFiles/light_switch_client_nrf52840_xxAA_s140_6.0.0.dir/__/__/__/mesh/core/src/net_packet.c.obj
 .debug_ranges  0x0000000000003d08       0x78 CMakeFiles/light_switch_client_nrf52840_xxAA_s140_6.0.0.dir/__/__/__/mesh/core/src/msqueue.c.obj
 .debug_ranges  0x0000000000003d80       0x30 CMakeFiles/light_switch_client_nrf52840_xxAA_s140_6.0.0.dir/__/__/__/mesh/core/src/nrf_mesh_keygen.c.obj
 .debug_ranges  0x0000000000003db0       0xf0 CMakeFiles/light_switch_client_nrf52840_xxAA_s140_6.0.0.dir/__/__/__/mesh/core/src/list.c.obj
 .debug_ranges  0x0000000000003ea0       0x58 CMakeFiles/light_switch_client_nrf52840_xxAA_s140_6.0.0.dir/__/__/__/mesh/core/src/log.c.obj
 .debug_ranges  0x0000000000003ef8      0xc18 CMakeFiles/light_switch_client_nrf52840_xxAA_s140_6.0.0.dir/__/__/__/mesh/core/src/flash_manager.c.obj
 .debug_ranges  0x0000000000004b10       0xf8 CMakeFiles/light_switch_client_nrf52840_xxAA_s140_6.0.0.dir/__/__/__/mesh/core/src/ccm_soft.c.obj
 .debug_ranges  0x0000000000004c08       0x48 CMakeFiles/light_switch_client_nrf52840_xxAA_s140_6.0.0.dir/__/__/__/mesh/core/src/replay_cache.c.obj
 .debug_ranges  0x0000000000004c50       0x90 CMakeFiles/light_switch_client_nrf52840_xxAA_s140_6.0.0.dir/__/__/__/mesh/core/src/beacon.c.obj
 .debug_ranges  0x0000000000004ce0       0x30 CMakeFiles/light_switch_client_nrf52840_xxAA_s140_6.0.0.dir/__/__/__/mesh/core/src/flash_manager_internal.c.obj
 .debug_ranges  0x0000000000004d10       0xc0 CMakeFiles/light_switch_client_nrf52840_xxAA_s140_6.0.0.dir/__/__/__/mesh/core/src/core_tx.c.obj
 .debug_ranges  0x0000000000004dd0      0x120 CMakeFiles/light_switch_client_nrf52840_xxAA_s140_6.0.0.dir/__/__/__/mesh/core/src/heartbeat.c.obj
 .debug_ranges  0x0000000000004ef0      0x1b8 CMakeFiles/light_switch_client_nrf52840_xxAA_s140_6.0.0.dir/__/__/__/mesh/core/src/net_beacon.c.obj
 .debug_ranges  0x00000000000050a8       0x58 CMakeFiles/light_switch_client_nrf52840_xxAA_s140_6.0.0.dir/__/__/__/mesh/core/src/core_tx_adv.c.obj
 .debug_ranges  0x0000000000005100      0x118 CMakeFiles/light_switch_client_nrf52840_xxAA_s140_6.0.0.dir/__/__/__/mesh/bearer/src/ad_listener.c.obj
 .debug_ranges  0x0000000000005218       0xc8 CMakeFiles/light_switch_client_nrf52840_xxAA_s140_6.0.0.dir/__/__/__/mesh/bearer/src/ad_type_filter.c.obj
 .debug_ranges  0x00000000000052e0      0x478 CMakeFiles/light_switch_client_nrf52840_xxAA_s140_6.0.0.dir/__/__/__/mesh/bearer/src/advertiser.c.obj
 .debug_ranges  0x0000000000005758      0x188 CMakeFiles/light_switch_client_nrf52840_xxAA_s140_6.0.0.dir/__/__/__/mesh/bearer/src/bearer_handler.c.obj
 .debug_ranges  0x00000000000058e0       0xa0 CMakeFiles/light_switch_client_nrf52840_xxAA_s140_6.0.0.dir/__/__/__/mesh/bearer/src/broadcast.c.obj
 .debug_ranges  0x0000000000005980       0x28 CMakeFiles/light_switch_client_nrf52840_xxAA_s140_6.0.0.dir/__/__/__/mesh/bearer/src/filter_engine.c.obj
 .debug_ranges  0x00000000000059a8       0x48 CMakeFiles/light_switch_client_nrf52840_xxAA_s140_6.0.0.dir/__/__/__/mesh/bearer/src/radio_config.c.obj
 .debug_ranges  0x00000000000059f0      0x400 CMakeFiles/light_switch_client_nrf52840_xxAA_s140_6.0.0.dir/__/__/__/mesh/bearer/src/scanner.c.obj
 .debug_ranges  0x0000000000005df0       0xc0 CMakeFiles/light_switch_client_nrf52840_xxAA_s140_6.0.0.dir/__/__/__/models/simple_on_off/src/simple_on_off_client.c.obj
 .debug_ranges  0x0000000000005eb0       0x90 CMakeFiles/light_switch_client_nrf52840_xxAA_s140_6.0.0.dir/__/__/__/models/config/src/composition_data.c.obj
 .debug_ranges  0x0000000000005f40     0x1640 CMakeFiles/light_switch_client_nrf52840_xxAA_s140_6.0.0.dir/__/__/__/models/config/src/config_server.c.obj
 .debug_ranges  0x0000000000007580       0x10 CMakeFiles/light_switch_client_nrf52840_xxAA_s140_6.0.0.dir/__/__/__/models/config/src/packed_index_list.c.obj
 .debug_ranges  0x0000000000007590      0x6c8 CMakeFiles/light_switch_client_nrf52840_xxAA_s140_6.0.0.dir/__/__/__/models/health/src/health_server.c.obj
 .debug_ranges  0x0000000000007c58      0x318 CMakeFiles/light_switch_client_nrf52840_xxAA_s140_6.0.0.dir/__/__/__/mesh/access/src/access_publish.c.obj
 .debug_ranges  0x0000000000007f70      0xd98 CMakeFiles/light_switch_client_nrf52840_xxAA_s140_6.0.0.dir/__/__/__/mesh/access/src/access.c.obj
 .debug_ranges  0x0000000000008d08      0x280 CMakeFiles/light_switch_client_nrf52840_xxAA_s140_6.0.0.dir/__/__/__/mesh/access/src/access_reliable.c.obj
 .debug_ranges  0x0000000000008f88     0x17d0 CMakeFiles/light_switch_client_nrf52840_xxAA_s140_6.0.0.dir/__/__/__/mesh/access/src/device_state_manager.c.obj
 .debug_ranges  0x000000000000a758      0x1b0 CMakeFiles/light_switch_client_nrf52840_xxAA_s140_6.0.0.dir/__/__/__/mesh/prov/src/prov_provisionee.c.obj
 .debug_ranges  0x000000000000a908      0x140 CMakeFiles/light_switch_client_nrf52840_xxAA_s140_6.0.0.dir/__/__/__/mesh/prov/src/nrf_mesh_prov.c.obj
 .debug_ranges  0x000000000000aa48      0x170 CMakeFiles/light_switch_client_nrf52840_xxAA_s140_6.0.0.dir/__/__/__/mesh/prov/src/provisioning.c.obj
 .debug_ranges  0x000000000000abb8       0x40 CMakeFiles/light_switch_client_nrf52840_xxAA_s140_6.0.0.dir/__/__/__/mesh/prov/src/prov_beacon.c.obj
 .debug_ranges  0x000000000000abf8       0x88 CMakeFiles/light_switch_client_nrf52840_xxAA_s140_6.0.0.dir/__/__/__/mesh/prov/src/prov_utils.c.obj
 .debug_ranges  0x000000000000ac80      0x9c8 CMakeFiles/light_switch_client_nrf52840_xxAA_s140_6.0.0.dir/__/__/__/mesh/prov/src/prov_bearer_adv.c.obj
 .debug_ranges  0x000000000000b648       0x40 CMakeFiles/light_switch_client_nrf52840_xxAA_s140_6.0.0.dir/home/mazzer/work/nordic/sdk/nRF5_SDK_15.0.0/modules/nrfx/mdk/system_nrf52840.c.obj
 .debug_ranges  0x000000000000b688       0x18 CMakeFiles/light_switch_client_nrf52840_xxAA_s140_6.0.0.dir/home/mazzer/work/nordic/sdk/nRF5_SDK_15.0.0/components/libraries/util/app_error.c.obj
 .debug_ranges  0x000000000000b6a0       0x10 CMakeFiles/light_switch_client_nrf52840_xxAA_s140_6.0.0.dir/home/mazzer/work/nordic/sdk/nRF5_SDK_15.0.0/components/libraries/util/app_error_handler_gcc.c.obj
 .debug_ranges  0x000000000000b6b0      0x5d8 ../../../external/rtt/librtt_nrf52840_xxAA.a(SEGGER_RTT.c.obj)
 .debug_ranges  0x000000000000bc88      0x1b8 ../../../external/rtt/librtt_nrf52840_xxAA.a(SEGGER_RTT_printf.c.obj)
 .debug_ranges  0x000000000000be40     0x1298 ../../../external/micro-ecc/libuECC_nrf52840_xxAA.a(uECC.c.obj)

.debug_line     0x0000000000000000    0x203f5
 .debug_line    0x0000000000000000      0xbc5 CMakeFiles/light_switch_client_nrf52840_xxAA_s140_6.0.0.dir/src/main.c.obj
 .debug_line    0x0000000000000bc5      0x6ac CMakeFiles/light_switch_client_nrf52840_xxAA_s140_6.0.0.dir/__/__/__/mesh/stack/src/mesh_stack.c.obj
 .debug_line    0x0000000000001271      0x4a2 CMakeFiles/light_switch_client_nrf52840_xxAA_s140_6.0.0.dir/__/__/common/src/mesh_softdevice_init.c.obj
 .debug_line    0x0000000000001713      0x702 CMakeFiles/light_switch_client_nrf52840_xxAA_s140_6.0.0.dir/__/__/common/src/mesh_provisionee.c.obj
 .debug_line    0x0000000000001e15      0x37f CMakeFiles/light_switch_client_nrf52840_xxAA_s140_6.0.0.dir/__/__/common/src/rtt_input.c.obj
 .debug_line    0x0000000000002194      0x578 CMakeFiles/light_switch_client_nrf52840_xxAA_s140_6.0.0.dir/__/__/common/src/simple_hal.c.obj
 .debug_line    0x000000000000270c      0x252 CMakeFiles/light_switch_client_nrf52840_xxAA_s140_6.0.0.dir/__/__/nrf_mesh_weak.c.obj
 .debug_line    0x000000000000295e      0x4ec CMakeFiles/light_switch_client_nrf52840_xxAA_s140_6.0.0.dir/__/__/common/src/app_error_weak.c.obj
 .debug_line    0x0000000000002e4a      0x275 CMakeFiles/light_switch_client_nrf52840_xxAA_s140_6.0.0.dir/__/__/common/src/assertion_handler_weak.c.obj
 .debug_line    0x00000000000030bf      0x250 CMakeFiles/light_switch_client_nrf52840_xxAA_s140_6.0.0.dir/__/__/__/mesh/core/src/nrf_mesh_configure.c.obj
 .debug_line    0x000000000000330f      0x285 CMakeFiles/light_switch_client_nrf52840_xxAA_s140_6.0.0.dir/__/__/__/mesh/core/src/aes.c.obj
 .debug_line    0x0000000000003594      0x2c2 CMakeFiles/light_switch_client_nrf52840_xxAA_s140_6.0.0.dir/__/__/__/mesh/core/src/msg_cache.c.obj
 .debug_line    0x0000000000003856     0x125e CMakeFiles/light_switch_client_nrf52840_xxAA_s140_6.0.0.dir/__/__/__/mesh/core/src/transport.c.obj
 .debug_line    0x0000000000004ab4      0x3e2 CMakeFiles/light_switch_client_nrf52840_xxAA_s140_6.0.0.dir/__/__/__/mesh/core/src/event.c.obj
 .debug_line    0x0000000000004e96      0x560 CMakeFiles/light_switch_client_nrf52840_xxAA_s140_6.0.0.dir/__/__/__/mesh/core/src/packet_buffer.c.obj
 .debug_line    0x00000000000053f6      0x8c0 CMakeFiles/light_switch_client_nrf52840_xxAA_s140_6.0.0.dir/__/__/__/mesh/core/src/flash_manager_defrag.c.obj
 .debug_line    0x0000000000005cb6      0x46b CMakeFiles/light_switch_client_nrf52840_xxAA_s140_6.0.0.dir/__/__/__/mesh/core/src/fifo.c.obj
 .debug_line    0x0000000000006121      0x280 CMakeFiles/light_switch_client_nrf52840_xxAA_s140_6.0.0.dir/__/__/__/mesh/core/src/nrf_flash.c.obj
 .debug_line    0x00000000000063a1      0x4cf CMakeFiles/light_switch_client_nrf52840_xxAA_s140_6.0.0.dir/__/__/__/mesh/core/src/packet_mgr.c.obj
 .debug_line    0x0000000000006870      0xae3 CMakeFiles/light_switch_client_nrf52840_xxAA_s140_6.0.0.dir/__/__/__/mesh/core/src/net_state.c.obj
 .debug_line    0x0000000000007353      0x67d CMakeFiles/light_switch_client_nrf52840_xxAA_s140_6.0.0.dir/__/__/__/mesh/core/src/mesh_flash.c.obj
 .debug_line    0x00000000000079d0      0x2fb CMakeFiles/light_switch_client_nrf52840_xxAA_s140_6.0.0.dir/__/__/__/mesh/core/src/nrf_mesh_utils.c.obj
 .debug_line    0x0000000000007ccb      0x935 CMakeFiles/light_switch_client_nrf52840_xxAA_s140_6.0.0.dir/__/__/__/mesh/core/src/nrf_mesh.c.obj
 .debug_line    0x0000000000008600      0x33a CMakeFiles/light_switch_client_nrf52840_xxAA_s140_6.0.0.dir/__/__/__/mesh/core/src/queue.c.obj
 .debug_line    0x000000000000893a      0x24e CMakeFiles/light_switch_client_nrf52840_xxAA_s140_6.0.0.dir/__/__/__/mesh/core/src/hal.c.obj
 .debug_line    0x0000000000008b88      0x468 CMakeFiles/light_switch_client_nrf52840_xxAA_s140_6.0.0.dir/__/__/__/mesh/core/src/aes_cmac.c.obj
 .debug_line    0x0000000000008ff0      0x506 CMakeFiles/light_switch_client_nrf52840_xxAA_s140_6.0.0.dir/__/__/__/mesh/core/src/timer_scheduler.c.obj
 .debug_line    0x00000000000094f6      0x55d CMakeFiles/light_switch_client_nrf52840_xxAA_s140_6.0.0.dir/__/__/__/mesh/core/src/timer.c.obj
 .debug_line    0x0000000000009a53      0x17f CMakeFiles/light_switch_client_nrf52840_xxAA_s140_6.0.0.dir/__/__/__/mesh/core/src/ticker.c.obj
 .debug_line    0x0000000000009bd2      0x344 CMakeFiles/light_switch_client_nrf52840_xxAA_s140_6.0.0.dir/__/__/__/mesh/core/src/rand.c.obj
 .debug_line    0x0000000000009f16      0x339 CMakeFiles/light_switch_client_nrf52840_xxAA_s140_6.0.0.dir/__/__/__/mesh/core/src/nrf_mesh_opt.c.obj
 .debug_line    0x000000000000a24f      0x714 CMakeFiles/light_switch_client_nrf52840_xxAA_s140_6.0.0.dir/__/__/__/mesh/core/src/timeslot.c.obj
 .debug_line    0x000000000000a963      0x6a1 CMakeFiles/light_switch_client_nrf52840_xxAA_s140_6.0.0.dir/__/__/__/mesh/core/src/bearer_event.c.obj
 .debug_line    0x000000000000b004      0x524 CMakeFiles/light_switch_client_nrf52840_xxAA_s140_6.0.0.dir/__/__/__/mesh/core/src/enc.c.obj
 .debug_line    0x000000000000b528      0x633 CMakeFiles/light_switch_client_nrf52840_xxAA_s140_6.0.0.dir/__/__/__/mesh/core/src/network.c.obj
 .debug_line    0x000000000000bb5b      0x625 CMakeFiles/light_switch_client_nrf52840_xxAA_s140_6.0.0.dir/__/__/__/mesh/core/src/net_packet.c.obj
 .debug_line    0x000000000000c180      0x38d CMakeFiles/light_switch_client_nrf52840_xxAA_s140_6.0.0.dir/__/__/__/mesh/core/src/msqueue.c.obj
 .debug_line    0x000000000000c50d      0x2f5 CMakeFiles/light_switch_client_nrf52840_xxAA_s140_6.0.0.dir/__/__/__/mesh/core/src/nrf_mesh_keygen.c.obj
 .debug_line    0x000000000000c802      0x3e9 CMakeFiles/light_switch_client_nrf52840_xxAA_s140_6.0.0.dir/__/__/__/mesh/core/src/list.c.obj
 .debug_line    0x000000000000cbeb      0x334 CMakeFiles/light_switch_client_nrf52840_xxAA_s140_6.0.0.dir/__/__/__/mesh/core/src/log.c.obj
 .debug_line    0x000000000000cf1f      0xc3d CMakeFiles/light_switch_client_nrf52840_xxAA_s140_6.0.0.dir/__/__/__/mesh/core/src/flash_manager.c.obj
 .debug_line    0x000000000000db5c      0x4ac CMakeFiles/light_switch_client_nrf52840_xxAA_s140_6.0.0.dir/__/__/__/mesh/core/src/ccm_soft.c.obj
 .debug_line    0x000000000000e008      0x1dc CMakeFiles/light_switch_client_nrf52840_xxAA_s140_6.0.0.dir/__/__/__/mesh/core/src/replay_cache.c.obj
 .debug_line    0x000000000000e1e4      0x5cb CMakeFiles/light_switch_client_nrf52840_xxAA_s140_6.0.0.dir/__/__/__/mesh/core/src/beacon.c.obj
 .debug_line    0x000000000000e7af      0x31e CMakeFiles/light_switch_client_nrf52840_xxAA_s140_6.0.0.dir/__/__/__/mesh/core/src/flash_manager_internal.c.obj
 .debug_line    0x000000000000eacd      0x431 CMakeFiles/light_switch_client_nrf52840_xxAA_s140_6.0.0.dir/__/__/__/mesh/core/src/core_tx.c.obj
 .debug_line    0x000000000000eefe      0x6bb CMakeFiles/light_switch_client_nrf52840_xxAA_s140_6.0.0.dir/__/__/__/mesh/core/src/heartbeat.c.obj
 .debug_line    0x000000000000f5b9      0x75c CMakeFiles/light_switch_client_nrf52840_xxAA_s140_6.0.0.dir/__/__/__/mesh/core/src/net_beacon.c.obj
 .debug_line    0x000000000000fd15      0x5cf CMakeFiles/light_switch_client_nrf52840_xxAA_s140_6.0.0.dir/__/__/__/mesh/core/src/core_tx_adv.c.obj
 .debug_line    0x00000000000102e4      0x43e CMakeFiles/light_switch_client_nrf52840_xxAA_s140_6.0.0.dir/__/__/__/mesh/bearer/src/ad_listener.c.obj
 .debug_line    0x0000000000010722      0x512 CMakeFiles/light_switch_client_nrf52840_xxAA_s140_6.0.0.dir/__/__/__/mesh/bearer/src/ad_type_filter.c.obj
 .debug_line    0x0000000000010c34      0x8d3 CMakeFiles/light_switch_client_nrf52840_xxAA_s140_6.0.0.dir/__/__/__/mesh/bearer/src/advertiser.c.obj
 .debug_line    0x0000000000011507      0x61d CMakeFiles/light_switch_client_nrf52840_xxAA_s140_6.0.0.dir/__/__/__/mesh/bearer/src/bearer_handler.c.obj
 .debug_line    0x0000000000011b24      0x435 CMakeFiles/light_switch_client_nrf52840_xxAA_s140_6.0.0.dir/__/__/__/mesh/bearer/src/broadcast.c.obj
 .debug_line    0x0000000000011f59      0x453 CMakeFiles/light_switch_client_nrf52840_xxAA_s140_6.0.0.dir/__/__/__/mesh/bearer/src/filter_engine.c.obj
 .debug_line    0x00000000000123ac      0x34c CMakeFiles/light_switch_client_nrf52840_xxAA_s140_6.0.0.dir/__/__/__/mesh/bearer/src/radio_config.c.obj
 .debug_line    0x00000000000126f8      0x8f5 CMakeFiles/light_switch_client_nrf52840_xxAA_s140_6.0.0.dir/__/__/__/mesh/bearer/src/scanner.c.obj
 .debug_line    0x0000000000012fed      0x5de CMakeFiles/light_switch_client_nrf52840_xxAA_s140_6.0.0.dir/__/__/__/models/simple_on_off/src/simple_on_off_client.c.obj
 .debug_line    0x00000000000135cb      0x3d4 CMakeFiles/light_switch_client_nrf52840_xxAA_s140_6.0.0.dir/__/__/__/models/config/src/composition_data.c.obj
 .debug_line    0x000000000001399f     0x222e CMakeFiles/light_switch_client_nrf52840_xxAA_s140_6.0.0.dir/__/__/__/models/config/src/config_server.c.obj
 .debug_line    0x0000000000015bcd      0x10a CMakeFiles/light_switch_client_nrf52840_xxAA_s140_6.0.0.dir/__/__/__/models/config/src/packed_index_list.c.obj
 .debug_line    0x0000000000015cd7      0xb59 CMakeFiles/light_switch_client_nrf52840_xxAA_s140_6.0.0.dir/__/__/__/models/health/src/health_server.c.obj
 .debug_line    0x0000000000016830      0x5cb CMakeFiles/light_switch_client_nrf52840_xxAA_s140_6.0.0.dir/__/__/__/mesh/access/src/access_publish.c.obj
 .debug_line    0x0000000000016dfb     0x14c0 CMakeFiles/light_switch_client_nrf52840_xxAA_s140_6.0.0.dir/__/__/__/mesh/access/src/access.c.obj
 .debug_line    0x00000000000182bb      0x6af CMakeFiles/light_switch_client_nrf52840_xxAA_s140_6.0.0.dir/__/__/__/mesh/access/src/access_reliable.c.obj
 .debug_line    0x000000000001896a     0x1efd CMakeFiles/light_switch_client_nrf52840_xxAA_s140_6.0.0.dir/__/__/__/mesh/access/src/device_state_manager.c.obj
 .debug_line    0x000000000001a867      0x809 CMakeFiles/light_switch_client_nrf52840_xxAA_s140_6.0.0.dir/__/__/__/mesh/prov/src/prov_provisionee.c.obj
 .debug_line    0x000000000001b070      0x68a CMakeFiles/light_switch_client_nrf52840_xxAA_s140_6.0.0.dir/__/__/__/mesh/prov/src/nrf_mesh_prov.c.obj
 .debug_line    0x000000000001b6fa      0x517 CMakeFiles/light_switch_client_nrf52840_xxAA_s140_6.0.0.dir/__/__/__/mesh/prov/src/provisioning.c.obj
 .debug_line    0x000000000001bc11      0x5c7 CMakeFiles/light_switch_client_nrf52840_xxAA_s140_6.0.0.dir/__/__/__/mesh/prov/src/prov_beacon.c.obj
 .debug_line    0x000000000001c1d8      0x597 CMakeFiles/light_switch_client_nrf52840_xxAA_s140_6.0.0.dir/__/__/__/mesh/prov/src/prov_utils.c.obj
 .debug_line    0x000000000001c76f      0xf1f CMakeFiles/light_switch_client_nrf52840_xxAA_s140_6.0.0.dir/__/__/__/mesh/prov/src/prov_bearer_adv.c.obj
 .debug_line    0x000000000001d68e      0x22d CMakeFiles/light_switch_client_nrf52840_xxAA_s140_6.0.0.dir/home/mazzer/work/nordic/sdk/nRF5_SDK_15.0.0/modules/nrfx/mdk/system_nrf52840.c.obj
 .debug_line    0x000000000001d8bb       0xa4 CMakeFiles/light_switch_client_nrf52840_xxAA_s140_6.0.0.dir/home/mazzer/work/nordic/sdk/nRF5_SDK_15.0.0/modules/nrfx/mdk/gcc_startup_nrf52840.S.obj
 .debug_line    0x000000000001d95f      0x274 CMakeFiles/light_switch_client_nrf52840_xxAA_s140_6.0.0.dir/home/mazzer/work/nordic/sdk/nRF5_SDK_15.0.0/components/libraries/util/app_error.c.obj
 .debug_line    0x000000000001dbd3      0x217 CMakeFiles/light_switch_client_nrf52840_xxAA_s140_6.0.0.dir/home/mazzer/work/nordic/sdk/nRF5_SDK_15.0.0/components/libraries/util/app_error_handler_gcc.c.obj
 .debug_line    0x000000000001ddea      0xaaf ../../../external/rtt/librtt_nrf52840_xxAA.a(SEGGER_RTT.c.obj)
 .debug_line    0x000000000001e899      0x401 ../../../external/rtt/librtt_nrf52840_xxAA.a(SEGGER_RTT_printf.c.obj)
 .debug_line    0x000000000001ec9a     0x175b ../../../external/micro-ecc/libuECC_nrf52840_xxAA.a(uECC.c.obj)

.debug_str      0x0000000000000000    0x1459c
 .debug_str     0x0000000000000000     0x2127 CMakeFiles/light_switch_client_nrf52840_xxAA_s140_6.0.0.dir/src/main.c.obj
                                       0x24f0 (size before relaxing)
 .debug_str     0x0000000000002127     0x112f CMakeFiles/light_switch_client_nrf52840_xxAA_s140_6.0.0.dir/__/__/__/mesh/stack/src/mesh_stack.c.obj
                                       0x279e (size before relaxing)
 .debug_str     0x0000000000003256      0x34e CMakeFiles/light_switch_client_nrf52840_xxAA_s140_6.0.0.dir/__/__/common/src/mesh_softdevice_init.c.obj
                                       0x12c2 (size before relaxing)
 .debug_str     0x00000000000035a4     0x185d CMakeFiles/light_switch_client_nrf52840_xxAA_s140_6.0.0.dir/__/__/common/src/mesh_provisionee.c.obj
                                       0x24b1 (size before relaxing)
 .debug_str     0x0000000000004e01      0x1c4 CMakeFiles/light_switch_client_nrf52840_xxAA_s140_6.0.0.dir/__/__/common/src/rtt_input.c.obj
                                        0xc1e (size before relaxing)
 .debug_str     0x0000000000004fc5      0x20c CMakeFiles/light_switch_client_nrf52840_xxAA_s140_6.0.0.dir/__/__/common/src/simple_hal.c.obj
                                        0xda0 (size before relaxing)
 .debug_str     0x00000000000051d1       0x73 CMakeFiles/light_switch_client_nrf52840_xxAA_s140_6.0.0.dir/__/__/nrf_mesh_weak.c.obj
                                        0x68c (size before relaxing)
 .debug_str     0x0000000000005244       0xd7 CMakeFiles/light_switch_client_nrf52840_xxAA_s140_6.0.0.dir/__/__/common/src/app_error_weak.c.obj
                                        0x8cd (size before relaxing)
 .debug_str     0x000000000000531b       0x67 CMakeFiles/light_switch_client_nrf52840_xxAA_s140_6.0.0.dir/__/__/common/src/assertion_handler_weak.c.obj
                                        0x6e2 (size before relaxing)
 .debug_str     0x0000000000005382      0x1d2 CMakeFiles/light_switch_client_nrf52840_xxAA_s140_6.0.0.dir/__/__/__/mesh/core/src/nrf_mesh_configure.c.obj
                                        0x85d (size before relaxing)
 .debug_str     0x0000000000005554       0xf8 CMakeFiles/light_switch_client_nrf52840_xxAA_s140_6.0.0.dir/__/__/__/mesh/core/src/aes.c.obj
                                        0xb8a (size before relaxing)
 .debug_str     0x000000000000564c       0xf2 CMakeFiles/light_switch_client_nrf52840_xxAA_s140_6.0.0.dir/__/__/__/mesh/core/src/msg_cache.c.obj
                                        0x729 (size before relaxing)
 .debug_str     0x000000000000573e     0x16b0 CMakeFiles/light_switch_client_nrf52840_xxAA_s140_6.0.0.dir/__/__/__/mesh/core/src/transport.c.obj
                                       0x3187 (size before relaxing)
 .debug_str     0x0000000000006dee       0xb9 CMakeFiles/light_switch_client_nrf52840_xxAA_s140_6.0.0.dir/__/__/__/mesh/core/src/event.c.obj
                                       0x1723 (size before relaxing)
 .debug_str     0x0000000000006ea7      0x344 CMakeFiles/light_switch_client_nrf52840_xxAA_s140_6.0.0.dir/__/__/__/mesh/core/src/packet_buffer.c.obj
                                        0xb8b (size before relaxing)
 .debug_str     0x00000000000071eb      0x94b CMakeFiles/light_switch_client_nrf52840_xxAA_s140_6.0.0.dir/__/__/__/mesh/core/src/flash_manager_defrag.c.obj
                                       0x11fd (size before relaxing)
 .debug_str     0x0000000000007b36       0xdc CMakeFiles/light_switch_client_nrf52840_xxAA_s140_6.0.0.dir/__/__/__/mesh/core/src/fifo.c.obj
                                        0x74b (size before relaxing)
 .debug_str     0x0000000000007c12      0x110 CMakeFiles/light_switch_client_nrf52840_xxAA_s140_6.0.0.dir/__/__/__/mesh/core/src/nrf_flash.c.obj
                                        0x764 (size before relaxing)
 .debug_str     0x0000000000007d22      0x2be CMakeFiles/light_switch_client_nrf52840_xxAA_s140_6.0.0.dir/__/__/__/mesh/core/src/packet_mgr.c.obj
                                        0xa15 (size before relaxing)
 .debug_str     0x0000000000007fe0      0x5bc CMakeFiles/light_switch_client_nrf52840_xxAA_s140_6.0.0.dir/__/__/__/mesh/core/src/net_state.c.obj
                                       0x21c9 (size before relaxing)
 .debug_str     0x000000000000859c      0x3be CMakeFiles/light_switch_client_nrf52840_xxAA_s140_6.0.0.dir/__/__/__/mesh/core/src/mesh_flash.c.obj
                                        0xd4c (size before relaxing)
 .debug_str     0x000000000000895a       0xd2 CMakeFiles/light_switch_client_nrf52840_xxAA_s140_6.0.0.dir/__/__/__/mesh/core/src/nrf_mesh_utils.c.obj
                                        0x7c1 (size before relaxing)
 .debug_str     0x0000000000008a2c      0x633 CMakeFiles/light_switch_client_nrf52840_xxAA_s140_6.0.0.dir/__/__/__/mesh/core/src/nrf_mesh.c.obj
                                       0x21a7 (size before relaxing)
 .debug_str     0x000000000000905f       0x92 CMakeFiles/light_switch_client_nrf52840_xxAA_s140_6.0.0.dir/__/__/__/mesh/core/src/queue.c.obj
                                        0x6f3 (size before relaxing)
 .debug_str     0x00000000000090f1       0xbd CMakeFiles/light_switch_client_nrf52840_xxAA_s140_6.0.0.dir/__/__/__/mesh/core/src/hal.c.obj
                                        0x81b (size before relaxing)
 .debug_str     0x00000000000091ae      0x107 CMakeFiles/light_switch_client_nrf52840_xxAA_s140_6.0.0.dir/__/__/__/mesh/core/src/aes_cmac.c.obj
                                        0x785 (size before relaxing)
 .debug_str     0x00000000000092b5      0x17d CMakeFiles/light_switch_client_nrf52840_xxAA_s140_6.0.0.dir/__/__/__/mesh/core/src/timer_scheduler.c.obj
                                        0x9a4 (size before relaxing)
 .debug_str     0x0000000000009432      0x212 CMakeFiles/light_switch_client_nrf52840_xxAA_s140_6.0.0.dir/__/__/__/mesh/core/src/timer.c.obj
                                        0x91e (size before relaxing)
 .debug_str     0x0000000000009644       0x79 CMakeFiles/light_switch_client_nrf52840_xxAA_s140_6.0.0.dir/__/__/__/mesh/core/src/ticker.c.obj
                                        0x3c5 (size before relaxing)
 .debug_str     0x00000000000096bd       0xe3 CMakeFiles/light_switch_client_nrf52840_xxAA_s140_6.0.0.dir/__/__/__/mesh/core/src/rand.c.obj
                                        0x7de (size before relaxing)
 .debug_str     0x00000000000097a0       0xbf CMakeFiles/light_switch_client_nrf52840_xxAA_s140_6.0.0.dir/__/__/__/mesh/core/src/nrf_mesh_opt.c.obj
                                        0x960 (size before relaxing)
 .debug_str     0x000000000000985f      0x941 CMakeFiles/light_switch_client_nrf52840_xxAA_s140_6.0.0.dir/__/__/__/mesh/core/src/timeslot.c.obj
                                       0x198f (size before relaxing)
 .debug_str     0x000000000000a1a0      0x2fd CMakeFiles/light_switch_client_nrf52840_xxAA_s140_6.0.0.dir/__/__/__/mesh/core/src/bearer_event.c.obj
                                        0xf6e (size before relaxing)
 .debug_str     0x000000000000a49d      0x1a5 CMakeFiles/light_switch_client_nrf52840_xxAA_s140_6.0.0.dir/__/__/__/mesh/core/src/enc.c.obj
                                        0xa58 (size before relaxing)
 .debug_str     0x000000000000a642      0x330 CMakeFiles/light_switch_client_nrf52840_xxAA_s140_6.0.0.dir/__/__/__/mesh/core/src/network.c.obj
                                       0x1358 (size before relaxing)
 .debug_str     0x000000000000a972      0x346 CMakeFiles/light_switch_client_nrf52840_xxAA_s140_6.0.0.dir/__/__/__/mesh/core/src/net_packet.c.obj
                                        0xef6 (size before relaxing)
 .debug_str     0x000000000000acb8       0x8a CMakeFiles/light_switch_client_nrf52840_xxAA_s140_6.0.0.dir/__/__/__/mesh/core/src/msqueue.c.obj
                                        0x72f (size before relaxing)
 .debug_str     0x000000000000ad42       0xff CMakeFiles/light_switch_client_nrf52840_xxAA_s140_6.0.0.dir/__/__/__/mesh/core/src/nrf_mesh_keygen.c.obj
                                        0x407 (size before relaxing)
 .debug_str     0x000000000000ae41       0xb4 CMakeFiles/light_switch_client_nrf52840_xxAA_s140_6.0.0.dir/__/__/__/mesh/core/src/list.c.obj
                                        0x32e (size before relaxing)
 .debug_str     0x000000000000aef5      0x12e CMakeFiles/light_switch_client_nrf52840_xxAA_s140_6.0.0.dir/__/__/__/mesh/core/src/log.c.obj
                                        0x840 (size before relaxing)
 .debug_str     0x000000000000b023      0x562 CMakeFiles/light_switch_client_nrf52840_xxAA_s140_6.0.0.dir/__/__/__/mesh/core/src/flash_manager.c.obj
                                       0x15e8 (size before relaxing)
 .debug_str     0x000000000000b585       0xbc CMakeFiles/light_switch_client_nrf52840_xxAA_s140_6.0.0.dir/__/__/__/mesh/core/src/ccm_soft.c.obj
                                        0x7cd (size before relaxing)
 .debug_str     0x000000000000b641       0xc9 CMakeFiles/light_switch_client_nrf52840_xxAA_s140_6.0.0.dir/__/__/__/mesh/core/src/replay_cache.c.obj
                                        0x6fd (size before relaxing)
 .debug_str     0x000000000000b70a      0x10b CMakeFiles/light_switch_client_nrf52840_xxAA_s140_6.0.0.dir/__/__/__/mesh/core/src/beacon.c.obj
                                       0x1173 (size before relaxing)
 .debug_str     0x000000000000b815       0x6f CMakeFiles/light_switch_client_nrf52840_xxAA_s140_6.0.0.dir/__/__/__/mesh/core/src/flash_manager_internal.c.obj
                                        0x814 (size before relaxing)
 .debug_str     0x000000000000b884      0x2f5 CMakeFiles/light_switch_client_nrf52840_xxAA_s140_6.0.0.dir/__/__/__/mesh/core/src/core_tx.c.obj
                                        0xc5f (size before relaxing)
 .debug_str     0x000000000000bb79      0x44f CMakeFiles/light_switch_client_nrf52840_xxAA_s140_6.0.0.dir/__/__/__/mesh/core/src/heartbeat.c.obj
                                       0x22b0 (size before relaxing)
 .debug_str     0x000000000000bfc8      0x293 CMakeFiles/light_switch_client_nrf52840_xxAA_s140_6.0.0.dir/__/__/__/mesh/core/src/net_beacon.c.obj
                                       0x2110 (size before relaxing)
 .debug_str     0x000000000000c25b      0x13e CMakeFiles/light_switch_client_nrf52840_xxAA_s140_6.0.0.dir/__/__/__/mesh/core/src/core_tx_adv.c.obj
                                       0x1349 (size before relaxing)
 .debug_str     0x000000000000c399      0x1c4 CMakeFiles/light_switch_client_nrf52840_xxAA_s140_6.0.0.dir/__/__/__/mesh/bearer/src/ad_listener.c.obj
                                        0xc52 (size before relaxing)
 .debug_str     0x000000000000c55d      0x199 CMakeFiles/light_switch_client_nrf52840_xxAA_s140_6.0.0.dir/__/__/__/mesh/bearer/src/ad_type_filter.c.obj
                                        0xa0f (size before relaxing)
 .debug_str     0x000000000000c6f6      0x358 CMakeFiles/light_switch_client_nrf52840_xxAA_s140_6.0.0.dir/__/__/__/mesh/bearer/src/advertiser.c.obj
                                       0x15d1 (size before relaxing)
 .debug_str     0x000000000000ca4e      0x493 CMakeFiles/light_switch_client_nrf52840_xxAA_s140_6.0.0.dir/__/__/__/mesh/bearer/src/bearer_handler.c.obj
                                       0x1160 (size before relaxing)
 .debug_str     0x000000000000cee1      0x1e3 CMakeFiles/light_switch_client_nrf52840_xxAA_s140_6.0.0.dir/__/__/__/mesh/bearer/src/broadcast.c.obj
                                       0x10d2 (size before relaxing)
 .debug_str     0x000000000000d0c4       0xa9 CMakeFiles/light_switch_client_nrf52840_xxAA_s140_6.0.0.dir/__/__/__/mesh/bearer/src/filter_engine.c.obj
                                        0x87c (size before relaxing)
 .debug_str     0x000000000000d16d       0xb0 CMakeFiles/light_switch_client_nrf52840_xxAA_s140_6.0.0.dir/__/__/__/mesh/bearer/src/radio_config.c.obj
                                        0x920 (size before relaxing)
 .debug_str     0x000000000000d21d      0x494 CMakeFiles/light_switch_client_nrf52840_xxAA_s140_6.0.0.dir/__/__/__/mesh/bearer/src/scanner.c.obj
                                       0x1aa9 (size before relaxing)
 .debug_str     0x000000000000d6b1      0x46f CMakeFiles/light_switch_client_nrf52840_xxAA_s140_6.0.0.dir/__/__/__/models/simple_on_off/src/simple_on_off_client.c.obj
                                       0x115a (size before relaxing)
 .debug_str     0x000000000000db20      0x262 CMakeFiles/light_switch_client_nrf52840_xxAA_s140_6.0.0.dir/__/__/__/models/config/src/composition_data.c.obj
                                        0x94d (size before relaxing)
 .debug_str     0x000000000000dd82     0x2675 CMakeFiles/light_switch_client_nrf52840_xxAA_s140_6.0.0.dir/__/__/__/models/config/src/config_server.c.obj
                                       0x5075 (size before relaxing)
 .debug_str     0x00000000000103f7       0xa0 CMakeFiles/light_switch_client_nrf52840_xxAA_s140_6.0.0.dir/__/__/__/models/config/src/packed_index_list.c.obj
                                        0x2c6 (size before relaxing)
 .debug_str     0x0000000000010497      0x641 CMakeFiles/light_switch_client_nrf52840_xxAA_s140_6.0.0.dir/__/__/__/models/health/src/health_server.c.obj
                                       0x170f (size before relaxing)
 .debug_str     0x0000000000010ad8      0x29b CMakeFiles/light_switch_client_nrf52840_xxAA_s140_6.0.0.dir/__/__/__/mesh/access/src/access_publish.c.obj
                                        0xc3c (size before relaxing)
 .debug_str     0x0000000000010d73      0x83a CMakeFiles/light_switch_client_nrf52840_xxAA_s140_6.0.0.dir/__/__/__/mesh/access/src/access.c.obj
                                       0x2fe6 (size before relaxing)
 .debug_str     0x00000000000115ad      0x156 CMakeFiles/light_switch_client_nrf52840_xxAA_s140_6.0.0.dir/__/__/__/mesh/access/src/access_reliable.c.obj
                                       0x1076 (size before relaxing)
 .debug_str     0x0000000000011703      0xd12 CMakeFiles/light_switch_client_nrf52840_xxAA_s140_6.0.0.dir/__/__/__/mesh/access/src/device_state_manager.c.obj
                                       0x30e9 (size before relaxing)
 .debug_str     0x0000000000012415      0x60f CMakeFiles/light_switch_client_nrf52840_xxAA_s140_6.0.0.dir/__/__/__/mesh/prov/src/prov_provisionee.c.obj
                                       0x2258 (size before relaxing)
 .debug_str     0x0000000000012a24      0x27e CMakeFiles/light_switch_client_nrf52840_xxAA_s140_6.0.0.dir/__/__/__/mesh/prov/src/nrf_mesh_prov.c.obj
                                       0x1e4a (size before relaxing)
 .debug_str     0x0000000000012ca2      0x124 CMakeFiles/light_switch_client_nrf52840_xxAA_s140_6.0.0.dir/__/__/__/mesh/prov/src/provisioning.c.obj
                                        0xf9b (size before relaxing)
 .debug_str     0x0000000000012dc6       0xe8 CMakeFiles/light_switch_client_nrf52840_xxAA_s140_6.0.0.dir/__/__/__/mesh/prov/src/prov_beacon.c.obj
                                       0x19cc (size before relaxing)
 .debug_str     0x0000000000012eae      0x1fa CMakeFiles/light_switch_client_nrf52840_xxAA_s140_6.0.0.dir/__/__/__/mesh/prov/src/prov_utils.c.obj
                                       0x1f99 (size before relaxing)
 .debug_str     0x00000000000130a8      0x44e CMakeFiles/light_switch_client_nrf52840_xxAA_s140_6.0.0.dir/__/__/__/mesh/prov/src/prov_bearer_adv.c.obj
                                       0x1c30 (size before relaxing)
 .debug_str     0x00000000000134f6      0x3cb CMakeFiles/light_switch_client_nrf52840_xxAA_s140_6.0.0.dir/home/mazzer/work/nordic/sdk/nRF5_SDK_15.0.0/modules/nrfx/mdk/system_nrf52840.c.obj
                                        0x971 (size before relaxing)
 .debug_str     0x00000000000138c1       0x64 CMakeFiles/light_switch_client_nrf52840_xxAA_s140_6.0.0.dir/home/mazzer/work/nordic/sdk/nRF5_SDK_15.0.0/modules/nrfx/mdk/gcc_startup_nrf52840.S.obj
                                         0xbd (size before relaxing)
 .debug_str     0x0000000000013925       0xac CMakeFiles/light_switch_client_nrf52840_xxAA_s140_6.0.0.dir/home/mazzer/work/nordic/sdk/nRF5_SDK_15.0.0/components/libraries/util/app_error.c.obj
                                        0x76d (size before relaxing)
 .debug_str     0x00000000000139d1       0x5f CMakeFiles/light_switch_client_nrf52840_xxAA_s140_6.0.0.dir/home/mazzer/work/nordic/sdk/nRF5_SDK_15.0.0/components/libraries/util/app_error_handler_gcc.c.obj
                                        0x6d2 (size before relaxing)
 .debug_str     0x0000000000013a30      0x33f ../../../external/rtt/librtt_nrf52840_xxAA.a(SEGGER_RTT.c.obj)
                                        0x982 (size before relaxing)
 .debug_str     0x0000000000013d6f      0x116 ../../../external/rtt/librtt_nrf52840_xxAA.a(SEGGER_RTT_printf.c.obj)
                                        0x7f2 (size before relaxing)
 .debug_str     0x0000000000013e85      0x717 ../../../external/micro-ecc/libuECC_nrf52840_xxAA.a(uECC.c.obj)
                                        0x8df (size before relaxing)

.debug_frame    0x0000000000000000     0x6b68
 .debug_frame   0x0000000000000000      0x180 CMakeFiles/light_switch_client_nrf52840_xxAA_s140_6.0.0.dir/src/main.c.obj
 .debug_frame   0x0000000000000180       0xdc CMakeFiles/light_switch_client_nrf52840_xxAA_s140_6.0.0.dir/__/__/__/mesh/stack/src/mesh_stack.c.obj
 .debug_frame   0x000000000000025c       0x88 CMakeFiles/light_switch_client_nrf52840_xxAA_s140_6.0.0.dir/__/__/common/src/mesh_softdevice_init.c.obj
 .debug_frame   0x00000000000002e4       0x64 CMakeFiles/light_switch_client_nrf52840_xxAA_s140_6.0.0.dir/__/__/common/src/mesh_provisionee.c.obj
 .debug_frame   0x0000000000000348       0x60 CMakeFiles/light_switch_client_nrf52840_xxAA_s140_6.0.0.dir/__/__/common/src/rtt_input.c.obj
 .debug_frame   0x00000000000003a8       0xbc CMakeFiles/light_switch_client_nrf52840_xxAA_s140_6.0.0.dir/__/__/common/src/simple_hal.c.obj
 .debug_frame   0x0000000000000464       0x30 CMakeFiles/light_switch_client_nrf52840_xxAA_s140_6.0.0.dir/__/__/nrf_mesh_weak.c.obj
 .debug_frame   0x0000000000000494       0x34 CMakeFiles/light_switch_client_nrf52840_xxAA_s140_6.0.0.dir/__/__/common/src/app_error_weak.c.obj
 .debug_frame   0x00000000000004c8       0x2c CMakeFiles/light_switch_client_nrf52840_xxAA_s140_6.0.0.dir/__/__/common/src/assertion_handler_weak.c.obj
 .debug_frame   0x00000000000004f4       0x4c CMakeFiles/light_switch_client_nrf52840_xxAA_s140_6.0.0.dir/__/__/__/mesh/core/src/nrf_mesh_configure.c.obj
 .debug_frame   0x0000000000000540       0x40 CMakeFiles/light_switch_client_nrf52840_xxAA_s140_6.0.0.dir/__/__/__/mesh/core/src/aes.c.obj
 .debug_frame   0x0000000000000580       0x7c CMakeFiles/light_switch_client_nrf52840_xxAA_s140_6.0.0.dir/__/__/__/mesh/core/src/msg_cache.c.obj
 .debug_frame   0x00000000000005fc      0x3fc CMakeFiles/light_switch_client_nrf52840_xxAA_s140_6.0.0.dir/__/__/__/mesh/core/src/transport.c.obj
 .debug_frame   0x00000000000009f8       0x74 CMakeFiles/light_switch_client_nrf52840_xxAA_s140_6.0.0.dir/__/__/__/mesh/core/src/event.c.obj
 .debug_frame   0x0000000000000a6c      0x10c CMakeFiles/light_switch_client_nrf52840_xxAA_s140_6.0.0.dir/__/__/__/mesh/core/src/packet_buffer.c.obj
 .debug_frame   0x0000000000000b78      0x268 CMakeFiles/light_switch_client_nrf52840_xxAA_s140_6.0.0.dir/__/__/__/mesh/core/src/flash_manager_defrag.c.obj
 .debug_frame   0x0000000000000de0       0xd8 CMakeFiles/light_switch_client_nrf52840_xxAA_s140_6.0.0.dir/__/__/__/mesh/core/src/fifo.c.obj
 .debug_frame   0x0000000000000eb8       0x3c CMakeFiles/light_switch_client_nrf52840_xxAA_s140_6.0.0.dir/__/__/__/mesh/core/src/nrf_flash.c.obj
 .debug_frame   0x0000000000000ef4       0xac CMakeFiles/light_switch_client_nrf52840_xxAA_s140_6.0.0.dir/__/__/__/mesh/core/src/packet_mgr.c.obj
 .debug_frame   0x0000000000000fa0      0x31c CMakeFiles/light_switch_client_nrf52840_xxAA_s140_6.0.0.dir/__/__/__/mesh/core/src/net_state.c.obj
 .debug_frame   0x00000000000012bc      0x130 CMakeFiles/light_switch_client_nrf52840_xxAA_s140_6.0.0.dir/__/__/__/mesh/core/src/mesh_flash.c.obj
 .debug_frame   0x00000000000013ec       0x60 CMakeFiles/light_switch_client_nrf52840_xxAA_s140_6.0.0.dir/__/__/__/mesh/core/src/nrf_mesh_utils.c.obj
 .debug_frame   0x000000000000144c      0x200 CMakeFiles/light_switch_client_nrf52840_xxAA_s140_6.0.0.dir/__/__/__/mesh/core/src/nrf_mesh.c.obj
 .debug_frame   0x000000000000164c       0x74 CMakeFiles/light_switch_client_nrf52840_xxAA_s140_6.0.0.dir/__/__/__/mesh/core/src/queue.c.obj
 .debug_frame   0x00000000000016c0       0x48 CMakeFiles/light_switch_client_nrf52840_xxAA_s140_6.0.0.dir/__/__/__/mesh/core/src/hal.c.obj
 .debug_frame   0x0000000000001708       0x60 CMakeFiles/light_switch_client_nrf52840_xxAA_s140_6.0.0.dir/__/__/__/mesh/core/src/aes_cmac.c.obj
 .debug_frame   0x0000000000001768       0xe4 CMakeFiles/light_switch_client_nrf52840_xxAA_s140_6.0.0.dir/__/__/__/mesh/core/src/timer_scheduler.c.obj
 .debug_frame   0x000000000000184c      0x158 CMakeFiles/light_switch_client_nrf52840_xxAA_s140_6.0.0.dir/__/__/__/mesh/core/src/timer.c.obj
 .debug_frame   0x00000000000019a4       0x4c CMakeFiles/light_switch_client_nrf52840_xxAA_s140_6.0.0.dir/__/__/__/mesh/core/src/ticker.c.obj
 .debug_frame   0x00000000000019f0       0x9c CMakeFiles/light_switch_client_nrf52840_xxAA_s140_6.0.0.dir/__/__/__/mesh/core/src/rand.c.obj
 .debug_frame   0x0000000000001a8c       0x30 CMakeFiles/light_switch_client_nrf52840_xxAA_s140_6.0.0.dir/__/__/__/mesh/core/src/nrf_mesh_opt.c.obj
 .debug_frame   0x0000000000001abc      0x190 CMakeFiles/light_switch_client_nrf52840_xxAA_s140_6.0.0.dir/__/__/__/mesh/core/src/timeslot.c.obj
 .debug_frame   0x0000000000001c4c      0x1ac CMakeFiles/light_switch_client_nrf52840_xxAA_s140_6.0.0.dir/__/__/__/mesh/core/src/bearer_event.c.obj
 .debug_frame   0x0000000000001df8      0x158 CMakeFiles/light_switch_client_nrf52840_xxAA_s140_6.0.0.dir/__/__/__/mesh/core/src/enc.c.obj
 .debug_frame   0x0000000000001f50      0x10c CMakeFiles/light_switch_client_nrf52840_xxAA_s140_6.0.0.dir/__/__/__/mesh/core/src/network.c.obj
 .debug_frame   0x000000000000205c       0xec CMakeFiles/light_switch_client_nrf52840_xxAA_s140_6.0.0.dir/__/__/__/mesh/core/src/net_packet.c.obj
 .debug_frame   0x0000000000002148       0x94 CMakeFiles/light_switch_client_nrf52840_xxAA_s140_6.0.0.dir/__/__/__/mesh/core/src/msqueue.c.obj
 .debug_frame   0x00000000000021dc       0xc8 CMakeFiles/light_switch_client_nrf52840_xxAA_s140_6.0.0.dir/__/__/__/mesh/core/src/nrf_mesh_keygen.c.obj
 .debug_frame   0x00000000000022a4       0x98 CMakeFiles/light_switch_client_nrf52840_xxAA_s140_6.0.0.dir/__/__/__/mesh/core/src/list.c.obj
 .debug_frame   0x000000000000233c       0xc0 CMakeFiles/light_switch_client_nrf52840_xxAA_s140_6.0.0.dir/__/__/__/mesh/core/src/log.c.obj
 .debug_frame   0x00000000000023fc      0x258 CMakeFiles/light_switch_client_nrf52840_xxAA_s140_6.0.0.dir/__/__/__/mesh/core/src/flash_manager.c.obj
 .debug_frame   0x0000000000002654       0xcc CMakeFiles/light_switch_client_nrf52840_xxAA_s140_6.0.0.dir/__/__/__/mesh/core/src/ccm_soft.c.obj
 .debug_frame   0x0000000000002720       0xb8 CMakeFiles/light_switch_client_nrf52840_xxAA_s140_6.0.0.dir/__/__/__/mesh/core/src/replay_cache.c.obj
 .debug_frame   0x00000000000027d8       0x7c CMakeFiles/light_switch_client_nrf52840_xxAA_s140_6.0.0.dir/__/__/__/mesh/core/src/beacon.c.obj
 .debug_frame   0x0000000000002854       0x34 CMakeFiles/light_switch_client_nrf52840_xxAA_s140_6.0.0.dir/__/__/__/mesh/core/src/flash_manager_internal.c.obj
 .debug_frame   0x0000000000002888       0xf8 CMakeFiles/light_switch_client_nrf52840_xxAA_s140_6.0.0.dir/__/__/__/mesh/core/src/core_tx.c.obj
 .debug_frame   0x0000000000002980      0x184 CMakeFiles/light_switch_client_nrf52840_xxAA_s140_6.0.0.dir/__/__/__/mesh/core/src/heartbeat.c.obj
 .debug_frame   0x0000000000002b04      0x114 CMakeFiles/light_switch_client_nrf52840_xxAA_s140_6.0.0.dir/__/__/__/mesh/core/src/net_beacon.c.obj
 .debug_frame   0x0000000000002c18      0x138 CMakeFiles/light_switch_client_nrf52840_xxAA_s140_6.0.0.dir/__/__/__/mesh/core/src/core_tx_adv.c.obj
 .debug_frame   0x0000000000002d50       0x94 CMakeFiles/light_switch_client_nrf52840_xxAA_s140_6.0.0.dir/__/__/__/mesh/bearer/src/ad_listener.c.obj
 .debug_frame   0x0000000000002de4       0xc0 CMakeFiles/light_switch_client_nrf52840_xxAA_s140_6.0.0.dir/__/__/__/mesh/bearer/src/ad_type_filter.c.obj
 .debug_frame   0x0000000000002ea4      0x278 CMakeFiles/light_switch_client_nrf52840_xxAA_s140_6.0.0.dir/__/__/__/mesh/bearer/src/advertiser.c.obj
 .debug_frame   0x000000000000311c      0x170 CMakeFiles/light_switch_client_nrf52840_xxAA_s140_6.0.0.dir/__/__/__/mesh/bearer/src/bearer_handler.c.obj
 .debug_frame   0x000000000000328c       0x74 CMakeFiles/light_switch_client_nrf52840_xxAA_s140_6.0.0.dir/__/__/__/mesh/bearer/src/broadcast.c.obj
 .debug_frame   0x0000000000003300       0x88 CMakeFiles/light_switch_client_nrf52840_xxAA_s140_6.0.0.dir/__/__/__/mesh/bearer/src/filter_engine.c.obj
 .debug_frame   0x0000000000003388       0x98 CMakeFiles/light_switch_client_nrf52840_xxAA_s140_6.0.0.dir/__/__/__/mesh/bearer/src/radio_config.c.obj
 .debug_frame   0x0000000000003420      0x244 CMakeFiles/light_switch_client_nrf52840_xxAA_s140_6.0.0.dir/__/__/__/mesh/bearer/src/scanner.c.obj
 .debug_frame   0x0000000000003664      0x130 CMakeFiles/light_switch_client_nrf52840_xxAA_s140_6.0.0.dir/__/__/__/models/simple_on_off/src/simple_on_off_client.c.obj
 .debug_frame   0x0000000000003794       0x40 CMakeFiles/light_switch_client_nrf52840_xxAA_s140_6.0.0.dir/__/__/__/models/config/src/composition_data.c.obj
 .debug_frame   0x00000000000037d4      0x830 CMakeFiles/light_switch_client_nrf52840_xxAA_s140_6.0.0.dir/__/__/__/models/config/src/config_server.c.obj
 .debug_frame   0x0000000000004004       0x30 CMakeFiles/light_switch_client_nrf52840_xxAA_s140_6.0.0.dir/__/__/__/models/config/src/packed_index_list.c.obj
 .debug_frame   0x0000000000004034      0x27c CMakeFiles/light_switch_client_nrf52840_xxAA_s140_6.0.0.dir/__/__/__/models/health/src/health_server.c.obj
 .debug_frame   0x00000000000042b0       0xf4 CMakeFiles/light_switch_client_nrf52840_xxAA_s140_6.0.0.dir/__/__/__/mesh/access/src/access_publish.c.obj
 .debug_frame   0x00000000000043a4      0x674 CMakeFiles/light_switch_client_nrf52840_xxAA_s140_6.0.0.dir/__/__/__/mesh/access/src/access.c.obj
 .debug_frame   0x0000000000004a18      0x14c CMakeFiles/light_switch_client_nrf52840_xxAA_s140_6.0.0.dir/__/__/__/mesh/access/src/access_reliable.c.obj
 .debug_frame   0x0000000000004b64      0xa5c CMakeFiles/light_switch_client_nrf52840_xxAA_s140_6.0.0.dir/__/__/__/mesh/access/src/device_state_manager.c.obj
 .debug_frame   0x00000000000055c0      0x198 CMakeFiles/light_switch_client_nrf52840_xxAA_s140_6.0.0.dir/__/__/__/mesh/prov/src/prov_provisionee.c.obj
 .debug_frame   0x0000000000005758      0x1c8 CMakeFiles/light_switch_client_nrf52840_xxAA_s140_6.0.0.dir/__/__/__/mesh/prov/src/nrf_mesh_prov.c.obj
 .debug_frame   0x0000000000005920      0x1a0 CMakeFiles/light_switch_client_nrf52840_xxAA_s140_6.0.0.dir/__/__/__/mesh/prov/src/provisioning.c.obj
 .debug_frame   0x0000000000005ac0       0x88 CMakeFiles/light_switch_client_nrf52840_xxAA_s140_6.0.0.dir/__/__/__/mesh/prov/src/prov_beacon.c.obj
 .debug_frame   0x0000000000005b48      0x11c CMakeFiles/light_switch_client_nrf52840_xxAA_s140_6.0.0.dir/__/__/__/mesh/prov/src/prov_utils.c.obj
 .debug_frame   0x0000000000005c64      0x2d8 CMakeFiles/light_switch_client_nrf52840_xxAA_s140_6.0.0.dir/__/__/__/mesh/prov/src/prov_bearer_adv.c.obj
 .debug_frame   0x0000000000005f3c       0x40 CMakeFiles/light_switch_client_nrf52840_xxAA_s140_6.0.0.dir/home/mazzer/work/nordic/sdk/nRF5_SDK_15.0.0/modules/nrfx/mdk/system_nrf52840.c.obj
 .debug_frame   0x0000000000005f7c       0x54 CMakeFiles/light_switch_client_nrf52840_xxAA_s140_6.0.0.dir/home/mazzer/work/nordic/sdk/nRF5_SDK_15.0.0/components/libraries/util/app_error.c.obj
 .debug_frame   0x0000000000005fd0       0x20 CMakeFiles/light_switch_client_nrf52840_xxAA_s140_6.0.0.dir/home/mazzer/work/nordic/sdk/nRF5_SDK_15.0.0/components/libraries/util/app_error_handler_gcc.c.obj
 .debug_frame   0x0000000000005ff0      0x2e4 ../../../external/rtt/librtt_nrf52840_xxAA.a(SEGGER_RTT.c.obj)
 .debug_frame   0x00000000000062d4       0xa0 ../../../external/rtt/librtt_nrf52840_xxAA.a(SEGGER_RTT_printf.c.obj)
 .debug_frame   0x0000000000006374      0x4c8 ../../../external/micro-ecc/libuECC_nrf52840_xxAA.a(uECC.c.obj)
 .debug_frame   0x000000000000683c       0x2c /usr/bin/../lib/gcc/arm-none-eabi/7.2.1/thumb/v7e-m/fpv4-sp/hard/libgcc.a(_aeabi_uldivmod.o)
 .debug_frame   0x0000000000006868       0x34 /usr/bin/../lib/gcc/arm-none-eabi/7.2.1/thumb/v7e-m/fpv4-sp/hard/libgcc.a(_udivmoddi4.o)
 .debug_frame   0x000000000000689c       0x28 /usr/bin/../lib/gcc/arm-none-eabi/7.2.1/../../../../arm-none-eabi/lib/thumb/v7e-m/fpv4-sp/hard/libg_nano.a(lib_a-exit.o)
 .debug_frame   0x00000000000068c4       0x2c /usr/bin/../lib/gcc/arm-none-eabi/7.2.1/../../../../arm-none-eabi/lib/thumb/v7e-m/fpv4-sp/hard/libg_nano.a(lib_a-init.o)
 .debug_frame   0x00000000000068f0       0x30 /usr/bin/../lib/gcc/arm-none-eabi/7.2.1/../../../../arm-none-eabi/lib/thumb/v7e-m/fpv4-sp/hard/libg_nano.a(lib_a-malloc.o)
 .debug_frame   0x0000000000006920       0x2c /usr/bin/../lib/gcc/arm-none-eabi/7.2.1/../../../../arm-none-eabi/lib/thumb/v7e-m/fpv4-sp/hard/libg_nano.a(lib_a-memcmp.o)
 .debug_frame   0x000000000000694c       0x28 /usr/bin/../lib/gcc/arm-none-eabi/7.2.1/../../../../arm-none-eabi/lib/thumb/v7e-m/fpv4-sp/hard/libg_nano.a(lib_a-memcpy-stub.o)
 .debug_frame   0x0000000000006974       0x20 /usr/bin/../lib/gcc/arm-none-eabi/7.2.1/../../../../arm-none-eabi/lib/thumb/v7e-m/fpv4-sp/hard/libg_nano.a(lib_a-memset.o)
 .debug_frame   0x0000000000006994       0x38 /usr/bin/../lib/gcc/arm-none-eabi/7.2.1/../../../../arm-none-eabi/lib/thumb/v7e-m/fpv4-sp/hard/libg_nano.a(lib_a-nano-freer.o)
 .debug_frame   0x00000000000069cc       0x2c /usr/bin/../lib/gcc/arm-none-eabi/7.2.1/../../../../arm-none-eabi/lib/thumb/v7e-m/fpv4-sp/hard/libg_nano.a(lib_a-nano-mallocr.o)
 .debug_frame   0x00000000000069f8       0x2c /usr/bin/../lib/gcc/arm-none-eabi/7.2.1/../../../../arm-none-eabi/lib/thumb/v7e-m/fpv4-sp/hard/libg_nano.a(lib_a-sbrkr.o)
 .debug_frame   0x0000000000006a24       0x20 /usr/bin/../lib/gcc/arm-none-eabi/7.2.1/../../../../arm-none-eabi/lib/thumb/v7e-m/fpv4-sp/hard/libg_nano.a(lib_a-strcpy.o)
 .debug_frame   0x0000000000006a44       0x38 /usr/bin/../lib/gcc/arm-none-eabi/7.2.1/../../../../arm-none-eabi/lib/thumb/v7e-m/fpv4-sp/hard/libg_nano.a(lib_a-strrchr.o)
 .debug_frame   0x0000000000006a7c       0x30 /usr/bin/../lib/gcc/arm-none-eabi/7.2.1/../../../../arm-none-eabi/lib/thumb/v7e-m/fpv4-sp/hard/libg_nano.a(lib_a-mlock.o)
 .debug_frame   0x0000000000006aac       0x5c /usr/bin/../lib/gcc/arm-none-eabi/7.2.1/../../../../arm-none-eabi/lib/thumb/v7e-m/fpv4-sp/hard/libg_nano.a(lib_a-reent.o)
 .debug_frame   0x0000000000006b08       0x20 /usr/bin/../lib/gcc/arm-none-eabi/7.2.1/../../../../arm-none-eabi/lib/thumb/v7e-m/fpv4-sp/hard/libg_nano.a(lib_a-strchr.o)
 .debug_frame   0x0000000000006b28       0x20 /usr/bin/../lib/gcc/arm-none-eabi/7.2.1/../../../../arm-none-eabi/lib/thumb/v7e-m/fpv4-sp/hard/libnosys.a(sbrk.o)
 .debug_frame   0x0000000000006b48       0x20 /usr/bin/../lib/gcc/arm-none-eabi/7.2.1/../../../../arm-none-eabi/lib/thumb/v7e-m/fpv4-sp/hard/libnosys.a(_exit.o)
