Archive member included to satisfy reference by file (symbol)

../../../external/rtt/librtt_nrf52832_xxAA.a(SEGGER_RTT.c.obj)
                              CMakeFiles/pb_remote_server_nrf52832_xxAA_s132_6.0.0.dir/__/__/__/mesh/core/src/log.c.obj (SEGGER_RTT_Write)
../../../external/rtt/librtt_nrf52832_xxAA.a(SEGGER_RTT_printf.c.obj)
                              CMakeFiles/pb_remote_server_nrf52832_xxAA_s132_6.0.0.dir/__/__/__/mesh/core/src/log.c.obj (SEGGER_RTT_vprintf)
../../../external/micro-ecc/libuECC_nrf52832_xxAA.a(uECC.c.obj)
                              CMakeFiles/pb_remote_server_nrf52832_xxAA_s132_6.0.0.dir/__/__/__/mesh/prov/src/prov_utils.c.obj (uECC_secp256r1)
/usr/bin/../lib/gcc/arm-none-eabi/7.2.1/../../../../arm-none-eabi/lib/thumb/v7e-m/fpv4-sp/hard/libg_nano.a(lib_a-exit.o)
                              /usr/bin/../lib/gcc/arm-none-eabi/7.2.1/../../../../arm-none-eabi/lib/thumb/v7e-m/fpv4-sp/hard/crt0.o (exit)
/usr/bin/../lib/gcc/arm-none-eabi/7.2.1/../../../../arm-none-eabi/lib/thumb/v7e-m/fpv4-sp/hard/libg_nano.a(lib_a-impure.o)
                              /usr/bin/../lib/gcc/arm-none-eabi/7.2.1/../../../../arm-none-eabi/lib/thumb/v7e-m/fpv4-sp/hard/libg_nano.a(lib_a-exit.o) (_global_impure_ptr)
/usr/bin/../lib/gcc/arm-none-eabi/7.2.1/../../../../arm-none-eabi/lib/thumb/v7e-m/fpv4-sp/hard/libg_nano.a(lib_a-init.o)
                              /usr/bin/../lib/gcc/arm-none-eabi/7.2.1/../../../../arm-none-eabi/lib/thumb/v7e-m/fpv4-sp/hard/crt0.o (__libc_init_array)
/usr/bin/../lib/gcc/arm-none-eabi/7.2.1/../../../../arm-none-eabi/lib/thumb/v7e-m/fpv4-sp/hard/libg_nano.a(lib_a-malloc.o)
                              CMakeFiles/pb_remote_server_nrf52832_xxAA_s132_6.0.0.dir/__/__/__/mesh/core/src/transport.c.obj (malloc)
/usr/bin/../lib/gcc/arm-none-eabi/7.2.1/../../../../arm-none-eabi/lib/thumb/v7e-m/fpv4-sp/hard/libg_nano.a(lib_a-memcmp.o)
                              CMakeFiles/pb_remote_server_nrf52832_xxAA_s132_6.0.0.dir/__/__/__/mesh/core/src/cache.c.obj (memcmp)
/usr/bin/../lib/gcc/arm-none-eabi/7.2.1/../../../../arm-none-eabi/lib/thumb/v7e-m/fpv4-sp/hard/libg_nano.a(lib_a-memcpy-stub.o)
                              CMakeFiles/pb_remote_server_nrf52832_xxAA_s132_6.0.0.dir/__/__/__/mesh/core/src/nrf_mesh_configure.c.obj (memcpy)
/usr/bin/../lib/gcc/arm-none-eabi/7.2.1/../../../../arm-none-eabi/lib/thumb/v7e-m/fpv4-sp/hard/libg_nano.a(lib_a-memset.o)
                              /usr/bin/../lib/gcc/arm-none-eabi/7.2.1/../../../../arm-none-eabi/lib/thumb/v7e-m/fpv4-sp/hard/crt0.o (memset)
/usr/bin/../lib/gcc/arm-none-eabi/7.2.1/../../../../arm-none-eabi/lib/thumb/v7e-m/fpv4-sp/hard/libg_nano.a(lib_a-nano-freer.o)
                              /usr/bin/../lib/gcc/arm-none-eabi/7.2.1/../../../../arm-none-eabi/lib/thumb/v7e-m/fpv4-sp/hard/libg_nano.a(lib_a-malloc.o) (_free_r)
/usr/bin/../lib/gcc/arm-none-eabi/7.2.1/../../../../arm-none-eabi/lib/thumb/v7e-m/fpv4-sp/hard/libg_nano.a(lib_a-nano-mallocr.o)
                              /usr/bin/../lib/gcc/arm-none-eabi/7.2.1/../../../../arm-none-eabi/lib/thumb/v7e-m/fpv4-sp/hard/libg_nano.a(lib_a-malloc.o) (_malloc_r)
/usr/bin/../lib/gcc/arm-none-eabi/7.2.1/../../../../arm-none-eabi/lib/thumb/v7e-m/fpv4-sp/hard/libg_nano.a(lib_a-sbrkr.o)
                              /usr/bin/../lib/gcc/arm-none-eabi/7.2.1/../../../../arm-none-eabi/lib/thumb/v7e-m/fpv4-sp/hard/libg_nano.a(lib_a-nano-mallocr.o) (_sbrk_r)
/usr/bin/../lib/gcc/arm-none-eabi/7.2.1/../../../../arm-none-eabi/lib/thumb/v7e-m/fpv4-sp/hard/libg_nano.a(lib_a-strcpy.o)
                              ../../../external/rtt/librtt_nrf52832_xxAA.a(SEGGER_RTT.c.obj) (strcpy)
/usr/bin/../lib/gcc/arm-none-eabi/7.2.1/../../../../arm-none-eabi/lib/thumb/v7e-m/fpv4-sp/hard/libg_nano.a(lib_a-strlen.o)
                              CMakeFiles/pb_remote_server_nrf52832_xxAA_s132_6.0.0.dir/__/__/__/mesh/core/src/uri.c.obj (strlen)
/usr/bin/../lib/gcc/arm-none-eabi/7.2.1/../../../../arm-none-eabi/lib/thumb/v7e-m/fpv4-sp/hard/libg_nano.a(lib_a-strrchr.o)
                              CMakeFiles/pb_remote_server_nrf52832_xxAA_s132_6.0.0.dir/src/main.c.obj (strrchr)
/usr/bin/../lib/gcc/arm-none-eabi/7.2.1/../../../../arm-none-eabi/lib/thumb/v7e-m/fpv4-sp/hard/libg_nano.a(lib_a-mlock.o)
                              /usr/bin/../lib/gcc/arm-none-eabi/7.2.1/../../../../arm-none-eabi/lib/thumb/v7e-m/fpv4-sp/hard/libg_nano.a(lib_a-nano-freer.o) (__malloc_lock)
/usr/bin/../lib/gcc/arm-none-eabi/7.2.1/../../../../arm-none-eabi/lib/thumb/v7e-m/fpv4-sp/hard/libg_nano.a(lib_a-reent.o)
                              /usr/bin/../lib/gcc/arm-none-eabi/7.2.1/../../../../arm-none-eabi/lib/thumb/v7e-m/fpv4-sp/hard/libg_nano.a(lib_a-sbrkr.o) (errno)
/usr/bin/../lib/gcc/arm-none-eabi/7.2.1/../../../../arm-none-eabi/lib/thumb/v7e-m/fpv4-sp/hard/libg_nano.a(lib_a-strchr.o)
                              /usr/bin/../lib/gcc/arm-none-eabi/7.2.1/../../../../arm-none-eabi/lib/thumb/v7e-m/fpv4-sp/hard/libg_nano.a(lib_a-strrchr.o) (strchr)
/usr/bin/../lib/gcc/arm-none-eabi/7.2.1/../../../../arm-none-eabi/lib/thumb/v7e-m/fpv4-sp/hard/libnosys.a(sbrk.o)
                              /usr/bin/../lib/gcc/arm-none-eabi/7.2.1/../../../../arm-none-eabi/lib/thumb/v7e-m/fpv4-sp/hard/libg_nano.a(lib_a-sbrkr.o) (_sbrk)
/usr/bin/../lib/gcc/arm-none-eabi/7.2.1/../../../../arm-none-eabi/lib/thumb/v7e-m/fpv4-sp/hard/libnosys.a(_exit.o)
                              /usr/bin/../lib/gcc/arm-none-eabi/7.2.1/../../../../arm-none-eabi/lib/thumb/v7e-m/fpv4-sp/hard/libg_nano.a(lib_a-exit.o) (_exit)

Allocating common symbols
Common symbol       size              file

nrf_nvic_state      0xc               CMakeFiles/pb_remote_server_nrf52832_xxAA_s132_6.0.0.dir/__/__/common/src/mesh_softdevice_init.c.obj
m_packet            0x24              CMakeFiles/pb_remote_server_nrf52832_xxAA_s132_6.0.0.dir/__/__/__/mesh/core/src/core_tx.c.obj
errno               0x4               /usr/bin/../lib/gcc/arm-none-eabi/7.2.1/../../../../arm-none-eabi/lib/thumb/v7e-m/fpv4-sp/hard/libg_nano.a(lib_a-reent.o)
_SEGGER_RTT         0x78              ../../../external/rtt/librtt_nrf52832_xxAA.a(SEGGER_RTT.c.obj)

Discarded input sections

 .text          0x0000000000000000        0x0 /usr/bin/../lib/gcc/arm-none-eabi/7.2.1/thumb/v7e-m/fpv4-sp/hard/crti.o
 .data          0x0000000000000000        0x0 /usr/bin/../lib/gcc/arm-none-eabi/7.2.1/thumb/v7e-m/fpv4-sp/hard/crti.o
 .bss           0x0000000000000000        0x0 /usr/bin/../lib/gcc/arm-none-eabi/7.2.1/thumb/v7e-m/fpv4-sp/hard/crti.o
 .data          0x0000000000000000        0x4 /usr/bin/../lib/gcc/arm-none-eabi/7.2.1/thumb/v7e-m/fpv4-sp/hard/crtbegin.o
 .data          0x0000000000000000        0x0 /usr/bin/../lib/gcc/arm-none-eabi/7.2.1/../../../../arm-none-eabi/lib/thumb/v7e-m/fpv4-sp/hard/crt0.o
 .bss           0x0000000000000000        0x0 /usr/bin/../lib/gcc/arm-none-eabi/7.2.1/../../../../arm-none-eabi/lib/thumb/v7e-m/fpv4-sp/hard/crt0.o
 .ARM.extab     0x0000000000000000        0x0 /usr/bin/../lib/gcc/arm-none-eabi/7.2.1/../../../../arm-none-eabi/lib/thumb/v7e-m/fpv4-sp/hard/crt0.o
 .text          0x0000000000000000        0x0 CMakeFiles/pb_remote_server_nrf52832_xxAA_s132_6.0.0.dir/src/main.c.obj
 .data          0x0000000000000000        0x0 CMakeFiles/pb_remote_server_nrf52832_xxAA_s132_6.0.0.dir/src/main.c.obj
 .bss           0x0000000000000000        0x0 CMakeFiles/pb_remote_server_nrf52832_xxAA_s132_6.0.0.dir/src/main.c.obj
 .text          0x0000000000000000        0x0 CMakeFiles/pb_remote_server_nrf52832_xxAA_s132_6.0.0.dir/__/__/__/mesh/stack/src/mesh_stack.c.obj
 .data          0x0000000000000000        0x0 CMakeFiles/pb_remote_server_nrf52832_xxAA_s132_6.0.0.dir/__/__/__/mesh/stack/src/mesh_stack.c.obj
 .bss           0x0000000000000000        0x0 CMakeFiles/pb_remote_server_nrf52832_xxAA_s132_6.0.0.dir/__/__/__/mesh/stack/src/mesh_stack.c.obj
 .text.mesh_evt_handler
                0x0000000000000000       0x10 CMakeFiles/pb_remote_server_nrf52832_xxAA_s132_6.0.0.dir/__/__/__/mesh/stack/src/mesh_stack.c.obj
 .text.mesh_stack_is_device_provisioned
                0x0000000000000000       0x1c CMakeFiles/pb_remote_server_nrf52832_xxAA_s132_6.0.0.dir/__/__/__/mesh/stack/src/mesh_stack.c.obj
 .text.mesh_stack_device_reset
                0x0000000000000000       0x20 CMakeFiles/pb_remote_server_nrf52832_xxAA_s132_6.0.0.dir/__/__/__/mesh/stack/src/mesh_stack.c.obj
 .data.s_evt_handler.11216
                0x0000000000000000        0x8 CMakeFiles/pb_remote_server_nrf52832_xxAA_s132_6.0.0.dir/__/__/__/mesh/stack/src/mesh_stack.c.obj
 .text          0x0000000000000000        0x0 CMakeFiles/pb_remote_server_nrf52832_xxAA_s132_6.0.0.dir/__/__/common/src/mesh_softdevice_init.c.obj
 .data          0x0000000000000000        0x0 CMakeFiles/pb_remote_server_nrf52832_xxAA_s132_6.0.0.dir/__/__/common/src/mesh_softdevice_init.c.obj
 .bss           0x0000000000000000        0x0 CMakeFiles/pb_remote_server_nrf52832_xxAA_s132_6.0.0.dir/__/__/common/src/mesh_softdevice_init.c.obj
 .text          0x0000000000000000        0x0 CMakeFiles/pb_remote_server_nrf52832_xxAA_s132_6.0.0.dir/__/__/common/src/mesh_provisionee.c.obj
 .data          0x0000000000000000        0x0 CMakeFiles/pb_remote_server_nrf52832_xxAA_s132_6.0.0.dir/__/__/common/src/mesh_provisionee.c.obj
 .bss           0x0000000000000000        0x0 CMakeFiles/pb_remote_server_nrf52832_xxAA_s132_6.0.0.dir/__/__/common/src/mesh_provisionee.c.obj
 .text          0x0000000000000000        0x0 CMakeFiles/pb_remote_server_nrf52832_xxAA_s132_6.0.0.dir/__/__/common/src/simple_hal.c.obj
 .data          0x0000000000000000        0x0 CMakeFiles/pb_remote_server_nrf52832_xxAA_s132_6.0.0.dir/__/__/common/src/simple_hal.c.obj
 .bss           0x0000000000000000        0x0 CMakeFiles/pb_remote_server_nrf52832_xxAA_s132_6.0.0.dir/__/__/common/src/simple_hal.c.obj
 .text.hal_led_pin_get
                0x0000000000000000       0x18 CMakeFiles/pb_remote_server_nrf52832_xxAA_s132_6.0.0.dir/__/__/common/src/simple_hal.c.obj
 .text.hal_led_pin_set
                0x0000000000000000       0x18 CMakeFiles/pb_remote_server_nrf52832_xxAA_s132_6.0.0.dir/__/__/common/src/simple_hal.c.obj
 .text.hal_buttons_init
                0x0000000000000000       0x54 CMakeFiles/pb_remote_server_nrf52832_xxAA_s132_6.0.0.dir/__/__/common/src/simple_hal.c.obj
 .text          0x0000000000000000        0x0 CMakeFiles/pb_remote_server_nrf52832_xxAA_s132_6.0.0.dir/__/__/nrf_mesh_weak.c.obj
 .data          0x0000000000000000        0x0 CMakeFiles/pb_remote_server_nrf52832_xxAA_s132_6.0.0.dir/__/__/nrf_mesh_weak.c.obj
 .bss           0x0000000000000000        0x0 CMakeFiles/pb_remote_server_nrf52832_xxAA_s132_6.0.0.dir/__/__/nrf_mesh_weak.c.obj
 .text._weak_handler_ptr
                0x0000000000000000        0x4 CMakeFiles/pb_remote_server_nrf52832_xxAA_s132_6.0.0.dir/__/__/nrf_mesh_weak.c.obj
 .text          0x0000000000000000        0x0 CMakeFiles/pb_remote_server_nrf52832_xxAA_s132_6.0.0.dir/__/__/common/src/app_error_weak.c.obj
 .data          0x0000000000000000        0x0 CMakeFiles/pb_remote_server_nrf52832_xxAA_s132_6.0.0.dir/__/__/common/src/app_error_weak.c.obj
 .bss           0x0000000000000000        0x0 CMakeFiles/pb_remote_server_nrf52832_xxAA_s132_6.0.0.dir/__/__/common/src/app_error_weak.c.obj
 .text          0x0000000000000000        0x0 CMakeFiles/pb_remote_server_nrf52832_xxAA_s132_6.0.0.dir/__/__/common/src/assertion_handler_weak.c.obj
 .data          0x0000000000000000        0x0 CMakeFiles/pb_remote_server_nrf52832_xxAA_s132_6.0.0.dir/__/__/common/src/assertion_handler_weak.c.obj
 .bss           0x0000000000000000        0x0 CMakeFiles/pb_remote_server_nrf52832_xxAA_s132_6.0.0.dir/__/__/common/src/assertion_handler_weak.c.obj
 .text          0x0000000000000000        0x0 CMakeFiles/pb_remote_server_nrf52832_xxAA_s132_6.0.0.dir/__/__/__/mesh/core/src/internal_event.c.obj
 .data          0x0000000000000000        0x0 CMakeFiles/pb_remote_server_nrf52832_xxAA_s132_6.0.0.dir/__/__/__/mesh/core/src/internal_event.c.obj
 .bss           0x0000000000000000        0x0 CMakeFiles/pb_remote_server_nrf52832_xxAA_s132_6.0.0.dir/__/__/__/mesh/core/src/internal_event.c.obj
 .debug_info    0x0000000000000000      0x8eb CMakeFiles/pb_remote_server_nrf52832_xxAA_s132_6.0.0.dir/__/__/__/mesh/core/src/internal_event.c.obj
 .debug_abbrev  0x0000000000000000      0x192 CMakeFiles/pb_remote_server_nrf52832_xxAA_s132_6.0.0.dir/__/__/__/mesh/core/src/internal_event.c.obj
 .debug_aranges
                0x0000000000000000       0x18 CMakeFiles/pb_remote_server_nrf52832_xxAA_s132_6.0.0.dir/__/__/__/mesh/core/src/internal_event.c.obj
 .debug_line    0x0000000000000000      0x1d9 CMakeFiles/pb_remote_server_nrf52832_xxAA_s132_6.0.0.dir/__/__/__/mesh/core/src/internal_event.c.obj
 .debug_str     0x0000000000000000      0x66f CMakeFiles/pb_remote_server_nrf52832_xxAA_s132_6.0.0.dir/__/__/__/mesh/core/src/internal_event.c.obj
 .comment       0x0000000000000000       0x7f CMakeFiles/pb_remote_server_nrf52832_xxAA_s132_6.0.0.dir/__/__/__/mesh/core/src/internal_event.c.obj
 .ARM.attributes
                0x0000000000000000       0x39 CMakeFiles/pb_remote_server_nrf52832_xxAA_s132_6.0.0.dir/__/__/__/mesh/core/src/internal_event.c.obj
 .text          0x0000000000000000        0x0 CMakeFiles/pb_remote_server_nrf52832_xxAA_s132_6.0.0.dir/__/__/__/mesh/core/src/nrf_mesh_configure.c.obj
 .data          0x0000000000000000        0x0 CMakeFiles/pb_remote_server_nrf52832_xxAA_s132_6.0.0.dir/__/__/__/mesh/core/src/nrf_mesh_configure.c.obj
 .bss           0x0000000000000000        0x0 CMakeFiles/pb_remote_server_nrf52832_xxAA_s132_6.0.0.dir/__/__/__/mesh/core/src/nrf_mesh_configure.c.obj
 .text          0x0000000000000000        0x0 CMakeFiles/pb_remote_server_nrf52832_xxAA_s132_6.0.0.dir/__/__/__/mesh/core/src/aes.c.obj
 .data          0x0000000000000000        0x0 CMakeFiles/pb_remote_server_nrf52832_xxAA_s132_6.0.0.dir/__/__/__/mesh/core/src/aes.c.obj
 .bss           0x0000000000000000        0x0 CMakeFiles/pb_remote_server_nrf52832_xxAA_s132_6.0.0.dir/__/__/__/mesh/core/src/aes.c.obj
 .text          0x0000000000000000        0x0 CMakeFiles/pb_remote_server_nrf52832_xxAA_s132_6.0.0.dir/__/__/__/mesh/core/src/msg_cache.c.obj
 .data          0x0000000000000000        0x0 CMakeFiles/pb_remote_server_nrf52832_xxAA_s132_6.0.0.dir/__/__/__/mesh/core/src/msg_cache.c.obj
 .bss           0x0000000000000000        0x0 CMakeFiles/pb_remote_server_nrf52832_xxAA_s132_6.0.0.dir/__/__/__/mesh/core/src/msg_cache.c.obj
 .text.msg_cache_clear
                0x0000000000000000       0x18 CMakeFiles/pb_remote_server_nrf52832_xxAA_s132_6.0.0.dir/__/__/__/mesh/core/src/msg_cache.c.obj
 .text          0x0000000000000000        0x0 CMakeFiles/pb_remote_server_nrf52832_xxAA_s132_6.0.0.dir/__/__/__/mesh/core/src/transport.c.obj
 .data          0x0000000000000000        0x0 CMakeFiles/pb_remote_server_nrf52832_xxAA_s132_6.0.0.dir/__/__/__/mesh/core/src/transport.c.obj
 .bss           0x0000000000000000        0x0 CMakeFiles/pb_remote_server_nrf52832_xxAA_s132_6.0.0.dir/__/__/__/mesh/core/src/transport.c.obj
 .text.transport_sar_mem_funcs_set
                0x0000000000000000       0x64 CMakeFiles/pb_remote_server_nrf52832_xxAA_s132_6.0.0.dir/__/__/__/mesh/core/src/transport.c.obj
 .text.transport_sar_mem_funcs_reset
                0x0000000000000000       0x30 CMakeFiles/pb_remote_server_nrf52832_xxAA_s132_6.0.0.dir/__/__/__/mesh/core/src/transport.c.obj
 .text          0x0000000000000000        0x0 CMakeFiles/pb_remote_server_nrf52832_xxAA_s132_6.0.0.dir/__/__/__/mesh/core/src/event.c.obj
 .data          0x0000000000000000        0x0 CMakeFiles/pb_remote_server_nrf52832_xxAA_s132_6.0.0.dir/__/__/__/mesh/core/src/event.c.obj
 .bss           0x0000000000000000        0x0 CMakeFiles/pb_remote_server_nrf52832_xxAA_s132_6.0.0.dir/__/__/__/mesh/core/src/event.c.obj
 .text          0x0000000000000000        0x0 CMakeFiles/pb_remote_server_nrf52832_xxAA_s132_6.0.0.dir/__/__/__/mesh/core/src/packet_buffer.c.obj
 .data          0x0000000000000000        0x0 CMakeFiles/pb_remote_server_nrf52832_xxAA_s132_6.0.0.dir/__/__/__/mesh/core/src/packet_buffer.c.obj
 .bss           0x0000000000000000        0x0 CMakeFiles/pb_remote_server_nrf52832_xxAA_s132_6.0.0.dir/__/__/__/mesh/core/src/packet_buffer.c.obj
 .text.packet_buffer_max_packet_len_get
                0x0000000000000000       0x24 CMakeFiles/pb_remote_server_nrf52832_xxAA_s132_6.0.0.dir/__/__/__/mesh/core/src/packet_buffer.c.obj
 .text          0x0000000000000000        0x0 CMakeFiles/pb_remote_server_nrf52832_xxAA_s132_6.0.0.dir/__/__/__/mesh/core/src/flash_manager_defrag.c.obj
 .data          0x0000000000000000        0x0 CMakeFiles/pb_remote_server_nrf52832_xxAA_s132_6.0.0.dir/__/__/__/mesh/core/src/flash_manager_defrag.c.obj
 .bss           0x0000000000000000        0x0 CMakeFiles/pb_remote_server_nrf52832_xxAA_s132_6.0.0.dir/__/__/__/mesh/core/src/flash_manager_defrag.c.obj
 .text.flash_manager_defragging
                0x0000000000000000       0x44 CMakeFiles/pb_remote_server_nrf52832_xxAA_s132_6.0.0.dir/__/__/__/mesh/core/src/flash_manager_defrag.c.obj
 .text          0x0000000000000000        0x0 CMakeFiles/pb_remote_server_nrf52832_xxAA_s132_6.0.0.dir/__/__/__/mesh/core/src/fifo.c.obj
 .data          0x0000000000000000        0x0 CMakeFiles/pb_remote_server_nrf52832_xxAA_s132_6.0.0.dir/__/__/__/mesh/core/src/fifo.c.obj
 .bss           0x0000000000000000        0x0 CMakeFiles/pb_remote_server_nrf52832_xxAA_s132_6.0.0.dir/__/__/__/mesh/core/src/fifo.c.obj
 .text.fifo_peek_at
                0x0000000000000000       0x58 CMakeFiles/pb_remote_server_nrf52832_xxAA_s132_6.0.0.dir/__/__/__/mesh/core/src/fifo.c.obj
 .text.fifo_peek
                0x0000000000000000       0x54 CMakeFiles/pb_remote_server_nrf52832_xxAA_s132_6.0.0.dir/__/__/__/mesh/core/src/fifo.c.obj
 .text.fifo_is_full
                0x0000000000000000       0x14 CMakeFiles/pb_remote_server_nrf52832_xxAA_s132_6.0.0.dir/__/__/__/mesh/core/src/fifo.c.obj
 .text.fifo_is_empty
                0x0000000000000000       0x10 CMakeFiles/pb_remote_server_nrf52832_xxAA_s132_6.0.0.dir/__/__/__/mesh/core/src/fifo.c.obj
 .text          0x0000000000000000        0x0 CMakeFiles/pb_remote_server_nrf52832_xxAA_s132_6.0.0.dir/__/__/__/mesh/core/src/nrf_flash.c.obj
 .data          0x0000000000000000        0x0 CMakeFiles/pb_remote_server_nrf52832_xxAA_s132_6.0.0.dir/__/__/__/mesh/core/src/nrf_flash.c.obj
 .bss           0x0000000000000000        0x0 CMakeFiles/pb_remote_server_nrf52832_xxAA_s132_6.0.0.dir/__/__/__/mesh/core/src/nrf_flash.c.obj
 .text          0x0000000000000000        0x0 CMakeFiles/pb_remote_server_nrf52832_xxAA_s132_6.0.0.dir/__/__/__/mesh/core/src/packet_mgr.c.obj
 .data          0x0000000000000000        0x0 CMakeFiles/pb_remote_server_nrf52832_xxAA_s132_6.0.0.dir/__/__/__/mesh/core/src/packet_mgr.c.obj
 .bss           0x0000000000000000        0x0 CMakeFiles/pb_remote_server_nrf52832_xxAA_s132_6.0.0.dir/__/__/__/mesh/core/src/packet_mgr.c.obj
 .text.packet_mgr_alloc
                0x0000000000000000      0x1a4 CMakeFiles/pb_remote_server_nrf52832_xxAA_s132_6.0.0.dir/__/__/__/mesh/core/src/packet_mgr.c.obj
 .text.packet_mgr_free
                0x0000000000000000       0x5c CMakeFiles/pb_remote_server_nrf52832_xxAA_s132_6.0.0.dir/__/__/__/mesh/core/src/packet_mgr.c.obj
 .text.packet_mgr_get_free_space
                0x0000000000000000       0x1c CMakeFiles/pb_remote_server_nrf52832_xxAA_s132_6.0.0.dir/__/__/__/mesh/core/src/packet_mgr.c.obj
 .text.packet_mgr_refcount_get
                0x0000000000000000        0x8 CMakeFiles/pb_remote_server_nrf52832_xxAA_s132_6.0.0.dir/__/__/__/mesh/core/src/packet_mgr.c.obj
 .text.packet_mgr_size_get
                0x0000000000000000        0x8 CMakeFiles/pb_remote_server_nrf52832_xxAA_s132_6.0.0.dir/__/__/__/mesh/core/src/packet_mgr.c.obj
 .text          0x0000000000000000        0x0 CMakeFiles/pb_remote_server_nrf52832_xxAA_s132_6.0.0.dir/__/__/__/mesh/core/src/net_state.c.obj
 .data          0x0000000000000000        0x0 CMakeFiles/pb_remote_server_nrf52832_xxAA_s132_6.0.0.dir/__/__/__/mesh/core/src/net_state.c.obj
 .bss           0x0000000000000000        0x0 CMakeFiles/pb_remote_server_nrf52832_xxAA_s132_6.0.0.dir/__/__/__/mesh/core/src/net_state.c.obj
 .text.net_state_iv_update_start
                0x0000000000000000       0x94 CMakeFiles/pb_remote_server_nrf52832_xxAA_s132_6.0.0.dir/__/__/__/mesh/core/src/net_state.c.obj
 .text.net_state_iv_update_test_mode_set
                0x0000000000000000        0xc CMakeFiles/pb_remote_server_nrf52832_xxAA_s132_6.0.0.dir/__/__/__/mesh/core/src/net_state.c.obj
 .text.net_state_test_mode_transition_run
                0x0000000000000000      0x170 CMakeFiles/pb_remote_server_nrf52832_xxAA_s132_6.0.0.dir/__/__/__/mesh/core/src/net_state.c.obj
 .text          0x0000000000000000        0x0 CMakeFiles/pb_remote_server_nrf52832_xxAA_s132_6.0.0.dir/__/__/__/mesh/core/src/mesh_flash.c.obj
 .data          0x0000000000000000        0x0 CMakeFiles/pb_remote_server_nrf52832_xxAA_s132_6.0.0.dir/__/__/__/mesh/core/src/mesh_flash.c.obj
 .bss           0x0000000000000000        0x0 CMakeFiles/pb_remote_server_nrf52832_xxAA_s132_6.0.0.dir/__/__/__/mesh/core/src/mesh_flash.c.obj
 .text.mesh_flash_op_available_slots
                0x0000000000000000       0x2c CMakeFiles/pb_remote_server_nrf52832_xxAA_s132_6.0.0.dir/__/__/__/mesh/core/src/mesh_flash.c.obj
 .text.mesh_flash_in_progress
                0x0000000000000000       0x34 CMakeFiles/pb_remote_server_nrf52832_xxAA_s132_6.0.0.dir/__/__/__/mesh/core/src/mesh_flash.c.obj
 .text.mesh_flash_set_suspended
                0x0000000000000000      0x21c CMakeFiles/pb_remote_server_nrf52832_xxAA_s132_6.0.0.dir/__/__/__/mesh/core/src/mesh_flash.c.obj
 .bss.suspend_count.10284
                0x0000000000000000        0x4 CMakeFiles/pb_remote_server_nrf52832_xxAA_s132_6.0.0.dir/__/__/__/mesh/core/src/mesh_flash.c.obj
 .text          0x0000000000000000        0x0 CMakeFiles/pb_remote_server_nrf52832_xxAA_s132_6.0.0.dir/__/__/__/mesh/core/src/nrf_mesh_utils.c.obj
 .data          0x0000000000000000        0x0 CMakeFiles/pb_remote_server_nrf52832_xxAA_s132_6.0.0.dir/__/__/__/mesh/core/src/nrf_mesh_utils.c.obj
 .bss           0x0000000000000000        0x0 CMakeFiles/pb_remote_server_nrf52832_xxAA_s132_6.0.0.dir/__/__/__/mesh/core/src/nrf_mesh_utils.c.obj
 .text.nrf_mesh_rand_get
                0x0000000000000000       0x10 CMakeFiles/pb_remote_server_nrf52832_xxAA_s132_6.0.0.dir/__/__/__/mesh/core/src/nrf_mesh_utils.c.obj
 .text.nrf_mesh_gap_address_type_get
                0x0000000000000000       0x34 CMakeFiles/pb_remote_server_nrf52832_xxAA_s132_6.0.0.dir/__/__/__/mesh/core/src/nrf_mesh_utils.c.obj
 .text          0x0000000000000000        0x0 CMakeFiles/pb_remote_server_nrf52832_xxAA_s132_6.0.0.dir/__/__/__/mesh/core/src/nrf_mesh.c.obj
 .data          0x0000000000000000        0x0 CMakeFiles/pb_remote_server_nrf52832_xxAA_s132_6.0.0.dir/__/__/__/mesh/core/src/nrf_mesh.c.obj
 .bss           0x0000000000000000        0x0 CMakeFiles/pb_remote_server_nrf52832_xxAA_s132_6.0.0.dir/__/__/__/mesh/core/src/nrf_mesh.c.obj
 .text.nrf_mesh_disable
                0x0000000000000000       0x30 CMakeFiles/pb_remote_server_nrf52832_xxAA_s132_6.0.0.dir/__/__/__/mesh/core/src/nrf_mesh.c.obj
 .text.nrf_mesh_process
                0x0000000000000000        0x4 CMakeFiles/pb_remote_server_nrf52832_xxAA_s132_6.0.0.dir/__/__/__/mesh/core/src/nrf_mesh.c.obj
 .text.nrf_mesh_evt_handler_remove
                0x0000000000000000        0x4 CMakeFiles/pb_remote_server_nrf52832_xxAA_s132_6.0.0.dir/__/__/__/mesh/core/src/nrf_mesh.c.obj
 .text.nrf_mesh_rx_cb_set
                0x0000000000000000        0xc CMakeFiles/pb_remote_server_nrf52832_xxAA_s132_6.0.0.dir/__/__/__/mesh/core/src/nrf_mesh.c.obj
 .text.nrf_mesh_rx_cb_clear
                0x0000000000000000        0xc CMakeFiles/pb_remote_server_nrf52832_xxAA_s132_6.0.0.dir/__/__/__/mesh/core/src/nrf_mesh.c.obj
 .text          0x0000000000000000        0x0 CMakeFiles/pb_remote_server_nrf52832_xxAA_s132_6.0.0.dir/__/__/__/mesh/core/src/queue.c.obj
 .data          0x0000000000000000        0x0 CMakeFiles/pb_remote_server_nrf52832_xxAA_s132_6.0.0.dir/__/__/__/mesh/core/src/queue.c.obj
 .bss           0x0000000000000000        0x0 CMakeFiles/pb_remote_server_nrf52832_xxAA_s132_6.0.0.dir/__/__/__/mesh/core/src/queue.c.obj
 .text          0x0000000000000000        0x0 CMakeFiles/pb_remote_server_nrf52832_xxAA_s132_6.0.0.dir/__/__/__/mesh/core/src/hal.c.obj
 .data          0x0000000000000000        0x0 CMakeFiles/pb_remote_server_nrf52832_xxAA_s132_6.0.0.dir/__/__/__/mesh/core/src/hal.c.obj
 .bss           0x0000000000000000        0x0 CMakeFiles/pb_remote_server_nrf52832_xxAA_s132_6.0.0.dir/__/__/__/mesh/core/src/hal.c.obj
 .text.sd_power_reset_reason_clr
                0x0000000000000000        0x4 CMakeFiles/pb_remote_server_nrf52832_xxAA_s132_6.0.0.dir/__/__/__/mesh/core/src/hal.c.obj
 .text.sd_power_gpregret_set
                0x0000000000000000        0x4 CMakeFiles/pb_remote_server_nrf52832_xxAA_s132_6.0.0.dir/__/__/__/mesh/core/src/hal.c.obj
 .text.hal_device_reset
                0x0000000000000000       0x38 CMakeFiles/pb_remote_server_nrf52832_xxAA_s132_6.0.0.dir/__/__/__/mesh/core/src/hal.c.obj
 .text          0x0000000000000000        0x0 CMakeFiles/pb_remote_server_nrf52832_xxAA_s132_6.0.0.dir/__/__/__/mesh/core/src/aes_cmac.c.obj
 .data          0x0000000000000000        0x0 CMakeFiles/pb_remote_server_nrf52832_xxAA_s132_6.0.0.dir/__/__/__/mesh/core/src/aes_cmac.c.obj
 .bss           0x0000000000000000        0x0 CMakeFiles/pb_remote_server_nrf52832_xxAA_s132_6.0.0.dir/__/__/__/mesh/core/src/aes_cmac.c.obj
 .text          0x0000000000000000        0x0 CMakeFiles/pb_remote_server_nrf52832_xxAA_s132_6.0.0.dir/__/__/__/mesh/core/src/timer_scheduler.c.obj
 .data          0x0000000000000000        0x0 CMakeFiles/pb_remote_server_nrf52832_xxAA_s132_6.0.0.dir/__/__/__/mesh/core/src/timer_scheduler.c.obj
 .bss           0x0000000000000000        0x0 CMakeFiles/pb_remote_server_nrf52832_xxAA_s132_6.0.0.dir/__/__/__/mesh/core/src/timer_scheduler.c.obj
 .text          0x0000000000000000        0x0 CMakeFiles/pb_remote_server_nrf52832_xxAA_s132_6.0.0.dir/__/__/__/mesh/core/src/timer.c.obj
 .data          0x0000000000000000        0x0 CMakeFiles/pb_remote_server_nrf52832_xxAA_s132_6.0.0.dir/__/__/__/mesh/core/src/timer.c.obj
 .bss           0x0000000000000000        0x0 CMakeFiles/pb_remote_server_nrf52832_xxAA_s132_6.0.0.dir/__/__/__/mesh/core/src/timer.c.obj
 .text.timer_order_cb_ppi
                0x0000000000000000       0xd8 CMakeFiles/pb_remote_server_nrf52832_xxAA_s132_6.0.0.dir/__/__/__/mesh/core/src/timer.c.obj
 .text.timer_order_ppi
                0x0000000000000000       0xcc CMakeFiles/pb_remote_server_nrf52832_xxAA_s132_6.0.0.dir/__/__/__/mesh/core/src/timer.c.obj
 .text.timer_abort
                0x0000000000000000       0x84 CMakeFiles/pb_remote_server_nrf52832_xxAA_s132_6.0.0.dir/__/__/__/mesh/core/src/timer.c.obj
 .text          0x0000000000000000        0x0 CMakeFiles/pb_remote_server_nrf52832_xxAA_s132_6.0.0.dir/__/__/__/mesh/core/src/ticker.c.obj
 .data          0x0000000000000000        0x0 CMakeFiles/pb_remote_server_nrf52832_xxAA_s132_6.0.0.dir/__/__/__/mesh/core/src/ticker.c.obj
 .bss           0x0000000000000000        0x0 CMakeFiles/pb_remote_server_nrf52832_xxAA_s132_6.0.0.dir/__/__/__/mesh/core/src/ticker.c.obj
 .text.ticker_get
                0x0000000000000000        0xc CMakeFiles/pb_remote_server_nrf52832_xxAA_s132_6.0.0.dir/__/__/__/mesh/core/src/ticker.c.obj
 .text          0x0000000000000000        0x0 CMakeFiles/pb_remote_server_nrf52832_xxAA_s132_6.0.0.dir/__/__/__/mesh/core/src/rand.c.obj
 .data          0x0000000000000000        0x0 CMakeFiles/pb_remote_server_nrf52832_xxAA_s132_6.0.0.dir/__/__/__/mesh/core/src/rand.c.obj
 .bss           0x0000000000000000        0x0 CMakeFiles/pb_remote_server_nrf52832_xxAA_s132_6.0.0.dir/__/__/__/mesh/core/src/rand.c.obj
 .text          0x0000000000000000        0x0 CMakeFiles/pb_remote_server_nrf52832_xxAA_s132_6.0.0.dir/__/__/__/mesh/core/src/nrf_mesh_opt.c.obj
 .data          0x0000000000000000        0x0 CMakeFiles/pb_remote_server_nrf52832_xxAA_s132_6.0.0.dir/__/__/__/mesh/core/src/nrf_mesh_opt.c.obj
 .bss           0x0000000000000000        0x0 CMakeFiles/pb_remote_server_nrf52832_xxAA_s132_6.0.0.dir/__/__/__/mesh/core/src/nrf_mesh_opt.c.obj
 .text          0x0000000000000000        0x0 CMakeFiles/pb_remote_server_nrf52832_xxAA_s132_6.0.0.dir/__/__/__/mesh/core/src/timeslot.c.obj
 .data          0x0000000000000000        0x0 CMakeFiles/pb_remote_server_nrf52832_xxAA_s132_6.0.0.dir/__/__/__/mesh/core/src/timeslot.c.obj
 .bss           0x0000000000000000        0x0 CMakeFiles/pb_remote_server_nrf52832_xxAA_s132_6.0.0.dir/__/__/__/mesh/core/src/timeslot.c.obj
 .text.timeslot_restart
                0x0000000000000000       0x30 CMakeFiles/pb_remote_server_nrf52832_xxAA_s132_6.0.0.dir/__/__/__/mesh/core/src/timeslot.c.obj
 .text.timeslot_end_time_get
                0x0000000000000000       0x30 CMakeFiles/pb_remote_server_nrf52832_xxAA_s132_6.0.0.dir/__/__/__/mesh/core/src/timeslot.c.obj
 .text.timeslot_is_in_ts
                0x0000000000000000        0xc CMakeFiles/pb_remote_server_nrf52832_xxAA_s132_6.0.0.dir/__/__/__/mesh/core/src/timeslot.c.obj
 .text          0x0000000000000000        0x0 CMakeFiles/pb_remote_server_nrf52832_xxAA_s132_6.0.0.dir/__/__/__/mesh/core/src/bearer_event.c.obj
 .data          0x0000000000000000        0x0 CMakeFiles/pb_remote_server_nrf52832_xxAA_s132_6.0.0.dir/__/__/__/mesh/core/src/bearer_event.c.obj
 .bss           0x0000000000000000        0x0 CMakeFiles/pb_remote_server_nrf52832_xxAA_s132_6.0.0.dir/__/__/__/mesh/core/src/bearer_event.c.obj
 .text.bearer_event_generic_post
                0x0000000000000000       0x50 CMakeFiles/pb_remote_server_nrf52832_xxAA_s132_6.0.0.dir/__/__/__/mesh/core/src/bearer_event.c.obj
 .text.bearer_event_timer_sch_post
                0x0000000000000000       0x54 CMakeFiles/pb_remote_server_nrf52832_xxAA_s132_6.0.0.dir/__/__/__/mesh/core/src/bearer_event.c.obj
 .text.bearer_event_in_correct_irq_priority
                0x0000000000000000       0x58 CMakeFiles/pb_remote_server_nrf52832_xxAA_s132_6.0.0.dir/__/__/__/mesh/core/src/bearer_event.c.obj
 .text          0x0000000000000000        0x0 CMakeFiles/pb_remote_server_nrf52832_xxAA_s132_6.0.0.dir/__/__/__/mesh/core/src/enc.c.obj
 .data          0x0000000000000000        0x0 CMakeFiles/pb_remote_server_nrf52832_xxAA_s132_6.0.0.dir/__/__/__/mesh/core/src/enc.c.obj
 .bss           0x0000000000000000        0x0 CMakeFiles/pb_remote_server_nrf52832_xxAA_s132_6.0.0.dir/__/__/__/mesh/core/src/enc.c.obj
 .text.enc_key_generate
                0x0000000000000000        0x8 CMakeFiles/pb_remote_server_nrf52832_xxAA_s132_6.0.0.dir/__/__/__/mesh/core/src/enc.c.obj
 .text          0x0000000000000000        0x0 CMakeFiles/pb_remote_server_nrf52832_xxAA_s132_6.0.0.dir/__/__/__/mesh/core/src/network.c.obj
 .data          0x0000000000000000        0x0 CMakeFiles/pb_remote_server_nrf52832_xxAA_s132_6.0.0.dir/__/__/__/mesh/core/src/network.c.obj
 .bss           0x0000000000000000        0x0 CMakeFiles/pb_remote_server_nrf52832_xxAA_s132_6.0.0.dir/__/__/__/mesh/core/src/network.c.obj
 .text.network_packet_discard
                0x0000000000000000       0x28 CMakeFiles/pb_remote_server_nrf52832_xxAA_s132_6.0.0.dir/__/__/__/mesh/core/src/network.c.obj
 .text          0x0000000000000000        0x0 CMakeFiles/pb_remote_server_nrf52832_xxAA_s132_6.0.0.dir/__/__/__/mesh/core/src/net_packet.c.obj
 .data          0x0000000000000000        0x0 CMakeFiles/pb_remote_server_nrf52832_xxAA_s132_6.0.0.dir/__/__/__/mesh/core/src/net_packet.c.obj
 .bss           0x0000000000000000        0x0 CMakeFiles/pb_remote_server_nrf52832_xxAA_s132_6.0.0.dir/__/__/__/mesh/core/src/net_packet.c.obj
 .text.net_packet_enc_start_get
                0x0000000000000000        0x4 CMakeFiles/pb_remote_server_nrf52832_xxAA_s132_6.0.0.dir/__/__/__/mesh/core/src/net_packet.c.obj
 .text.net_packet_payload_get
                0x0000000000000000        0x4 CMakeFiles/pb_remote_server_nrf52832_xxAA_s132_6.0.0.dir/__/__/__/mesh/core/src/net_packet.c.obj
 .text          0x0000000000000000        0x0 CMakeFiles/pb_remote_server_nrf52832_xxAA_s132_6.0.0.dir/__/__/__/mesh/core/src/msqueue.c.obj
 .data          0x0000000000000000        0x0 CMakeFiles/pb_remote_server_nrf52832_xxAA_s132_6.0.0.dir/__/__/__/mesh/core/src/msqueue.c.obj
 .bss           0x0000000000000000        0x0 CMakeFiles/pb_remote_server_nrf52832_xxAA_s132_6.0.0.dir/__/__/__/mesh/core/src/msqueue.c.obj
 .text.msq_reset
                0x0000000000000000       0x24 CMakeFiles/pb_remote_server_nrf52832_xxAA_s132_6.0.0.dir/__/__/__/mesh/core/src/msqueue.c.obj
 .text          0x0000000000000000        0x0 CMakeFiles/pb_remote_server_nrf52832_xxAA_s132_6.0.0.dir/__/__/__/mesh/core/src/nrf_mesh_keygen.c.obj
 .data          0x0000000000000000        0x0 CMakeFiles/pb_remote_server_nrf52832_xxAA_s132_6.0.0.dir/__/__/__/mesh/core/src/nrf_mesh_keygen.c.obj
 .bss           0x0000000000000000        0x0 CMakeFiles/pb_remote_server_nrf52832_xxAA_s132_6.0.0.dir/__/__/__/mesh/core/src/nrf_mesh_keygen.c.obj
 .text.nrf_mesh_keygen_identitykey
                0x0000000000000000       0x4c CMakeFiles/pb_remote_server_nrf52832_xxAA_s132_6.0.0.dir/__/__/__/mesh/core/src/nrf_mesh_keygen.c.obj
 .text          0x0000000000000000        0x0 CMakeFiles/pb_remote_server_nrf52832_xxAA_s132_6.0.0.dir/__/__/__/mesh/core/src/cache.c.obj
 .data          0x0000000000000000        0x0 CMakeFiles/pb_remote_server_nrf52832_xxAA_s132_6.0.0.dir/__/__/__/mesh/core/src/cache.c.obj
 .bss           0x0000000000000000        0x0 CMakeFiles/pb_remote_server_nrf52832_xxAA_s132_6.0.0.dir/__/__/__/mesh/core/src/cache.c.obj
 .text.cache_init
                0x0000000000000000       0x40 CMakeFiles/pb_remote_server_nrf52832_xxAA_s132_6.0.0.dir/__/__/__/mesh/core/src/cache.c.obj
 .text.cache_has_elem
                0x0000000000000000       0x54 CMakeFiles/pb_remote_server_nrf52832_xxAA_s132_6.0.0.dir/__/__/__/mesh/core/src/cache.c.obj
 .text.cache_put
                0x0000000000000000       0x2c CMakeFiles/pb_remote_server_nrf52832_xxAA_s132_6.0.0.dir/__/__/__/mesh/core/src/cache.c.obj
 .text.cache_erase_elem
                0x0000000000000000       0x6c CMakeFiles/pb_remote_server_nrf52832_xxAA_s132_6.0.0.dir/__/__/__/mesh/core/src/cache.c.obj
 .debug_info    0x0000000000000000      0xbf9 CMakeFiles/pb_remote_server_nrf52832_xxAA_s132_6.0.0.dir/__/__/__/mesh/core/src/cache.c.obj
 .debug_abbrev  0x0000000000000000      0x2e2 CMakeFiles/pb_remote_server_nrf52832_xxAA_s132_6.0.0.dir/__/__/__/mesh/core/src/cache.c.obj
 .debug_loc     0x0000000000000000      0x3dc CMakeFiles/pb_remote_server_nrf52832_xxAA_s132_6.0.0.dir/__/__/__/mesh/core/src/cache.c.obj
 .debug_aranges
                0x0000000000000000       0x38 CMakeFiles/pb_remote_server_nrf52832_xxAA_s132_6.0.0.dir/__/__/__/mesh/core/src/cache.c.obj
 .debug_ranges  0x0000000000000000       0xb0 CMakeFiles/pb_remote_server_nrf52832_xxAA_s132_6.0.0.dir/__/__/__/mesh/core/src/cache.c.obj
 .debug_line    0x0000000000000000      0x255 CMakeFiles/pb_remote_server_nrf52832_xxAA_s132_6.0.0.dir/__/__/__/mesh/core/src/cache.c.obj
 .debug_str     0x0000000000000000      0x71c CMakeFiles/pb_remote_server_nrf52832_xxAA_s132_6.0.0.dir/__/__/__/mesh/core/src/cache.c.obj
 .comment       0x0000000000000000       0x7f CMakeFiles/pb_remote_server_nrf52832_xxAA_s132_6.0.0.dir/__/__/__/mesh/core/src/cache.c.obj
 .debug_frame   0x0000000000000000       0x90 CMakeFiles/pb_remote_server_nrf52832_xxAA_s132_6.0.0.dir/__/__/__/mesh/core/src/cache.c.obj
 .ARM.attributes
                0x0000000000000000       0x39 CMakeFiles/pb_remote_server_nrf52832_xxAA_s132_6.0.0.dir/__/__/__/mesh/core/src/cache.c.obj
 .text          0x0000000000000000        0x0 CMakeFiles/pb_remote_server_nrf52832_xxAA_s132_6.0.0.dir/__/__/__/mesh/core/src/uri.c.obj
 .data          0x0000000000000000        0x0 CMakeFiles/pb_remote_server_nrf52832_xxAA_s132_6.0.0.dir/__/__/__/mesh/core/src/uri.c.obj
 .bss           0x0000000000000000        0x0 CMakeFiles/pb_remote_server_nrf52832_xxAA_s132_6.0.0.dir/__/__/__/mesh/core/src/uri.c.obj
 .text.uri_data_generate
                0x0000000000000000       0x88 CMakeFiles/pb_remote_server_nrf52832_xxAA_s132_6.0.0.dir/__/__/__/mesh/core/src/uri.c.obj
 .text.uri_data_parse
                0x0000000000000000       0x84 CMakeFiles/pb_remote_server_nrf52832_xxAA_s132_6.0.0.dir/__/__/__/mesh/core/src/uri.c.obj
 .text.uri_scheme_name_code_point
                0x0000000000000000       0x5c CMakeFiles/pb_remote_server_nrf52832_xxAA_s132_6.0.0.dir/__/__/__/mesh/core/src/uri.c.obj
 .text.uri_scheme_name_string
                0x0000000000000000       0x14 CMakeFiles/pb_remote_server_nrf52832_xxAA_s132_6.0.0.dir/__/__/__/mesh/core/src/uri.c.obj
 .rodata.m_code_point_strings
                0x0000000000000000      0x2ec CMakeFiles/pb_remote_server_nrf52832_xxAA_s132_6.0.0.dir/__/__/__/mesh/core/src/uri.c.obj
 .rodata.str1.4
                0x0000000000000000      0x6ba CMakeFiles/pb_remote_server_nrf52832_xxAA_s132_6.0.0.dir/__/__/__/mesh/core/src/uri.c.obj
 .debug_info    0x0000000000000000      0xd55 CMakeFiles/pb_remote_server_nrf52832_xxAA_s132_6.0.0.dir/__/__/__/mesh/core/src/uri.c.obj
 .debug_abbrev  0x0000000000000000      0x331 CMakeFiles/pb_remote_server_nrf52832_xxAA_s132_6.0.0.dir/__/__/__/mesh/core/src/uri.c.obj
 .debug_loc     0x0000000000000000      0x38d CMakeFiles/pb_remote_server_nrf52832_xxAA_s132_6.0.0.dir/__/__/__/mesh/core/src/uri.c.obj
 .debug_aranges
                0x0000000000000000       0x38 CMakeFiles/pb_remote_server_nrf52832_xxAA_s132_6.0.0.dir/__/__/__/mesh/core/src/uri.c.obj
 .debug_ranges  0x0000000000000000       0x58 CMakeFiles/pb_remote_server_nrf52832_xxAA_s132_6.0.0.dir/__/__/__/mesh/core/src/uri.c.obj
 .debug_line    0x0000000000000000      0x31f CMakeFiles/pb_remote_server_nrf52832_xxAA_s132_6.0.0.dir/__/__/__/mesh/core/src/uri.c.obj
 .debug_str     0x0000000000000000      0x74a CMakeFiles/pb_remote_server_nrf52832_xxAA_s132_6.0.0.dir/__/__/__/mesh/core/src/uri.c.obj
 .comment       0x0000000000000000       0x7f CMakeFiles/pb_remote_server_nrf52832_xxAA_s132_6.0.0.dir/__/__/__/mesh/core/src/uri.c.obj
 .debug_frame   0x0000000000000000       0x8c CMakeFiles/pb_remote_server_nrf52832_xxAA_s132_6.0.0.dir/__/__/__/mesh/core/src/uri.c.obj
 .ARM.attributes
                0x0000000000000000       0x39 CMakeFiles/pb_remote_server_nrf52832_xxAA_s132_6.0.0.dir/__/__/__/mesh/core/src/uri.c.obj
 .text          0x0000000000000000        0x0 CMakeFiles/pb_remote_server_nrf52832_xxAA_s132_6.0.0.dir/__/__/__/mesh/core/src/list.c.obj
 .data          0x0000000000000000        0x0 CMakeFiles/pb_remote_server_nrf52832_xxAA_s132_6.0.0.dir/__/__/__/mesh/core/src/list.c.obj
 .bss           0x0000000000000000        0x0 CMakeFiles/pb_remote_server_nrf52832_xxAA_s132_6.0.0.dir/__/__/__/mesh/core/src/list.c.obj
 .text.list_size_get
                0x0000000000000000       0x14 CMakeFiles/pb_remote_server_nrf52832_xxAA_s132_6.0.0.dir/__/__/__/mesh/core/src/list.c.obj
 .text.list_sorted_add
                0x0000000000000000       0x88 CMakeFiles/pb_remote_server_nrf52832_xxAA_s132_6.0.0.dir/__/__/__/mesh/core/src/list.c.obj
 .text          0x0000000000000000        0x0 CMakeFiles/pb_remote_server_nrf52832_xxAA_s132_6.0.0.dir/__/__/__/mesh/core/src/log.c.obj
 .data          0x0000000000000000        0x0 CMakeFiles/pb_remote_server_nrf52832_xxAA_s132_6.0.0.dir/__/__/__/mesh/core/src/log.c.obj
 .bss           0x0000000000000000        0x0 CMakeFiles/pb_remote_server_nrf52832_xxAA_s132_6.0.0.dir/__/__/__/mesh/core/src/log.c.obj
 .text.log_callback_logview
                0x0000000000000000       0x38 CMakeFiles/pb_remote_server_nrf52832_xxAA_s132_6.0.0.dir/__/__/__/mesh/core/src/log.c.obj
 .text.log_set_callback
                0x0000000000000000        0xc CMakeFiles/pb_remote_server_nrf52832_xxAA_s132_6.0.0.dir/__/__/__/mesh/core/src/log.c.obj
 .text.log_vprintf
                0x0000000000000000       0x1c CMakeFiles/pb_remote_server_nrf52832_xxAA_s132_6.0.0.dir/__/__/__/mesh/core/src/log.c.obj
 .rodata.log_callback_logview.str1.4
                0x0000000000000000       0x12 CMakeFiles/pb_remote_server_nrf52832_xxAA_s132_6.0.0.dir/__/__/__/mesh/core/src/log.c.obj
 .text          0x0000000000000000        0x0 CMakeFiles/pb_remote_server_nrf52832_xxAA_s132_6.0.0.dir/__/__/__/mesh/core/src/flash_manager.c.obj
 .data          0x0000000000000000        0x0 CMakeFiles/pb_remote_server_nrf52832_xxAA_s132_6.0.0.dir/__/__/__/mesh/core/src/flash_manager.c.obj
 .bss           0x0000000000000000        0x0 CMakeFiles/pb_remote_server_nrf52832_xxAA_s132_6.0.0.dir/__/__/__/mesh/core/src/flash_manager.c.obj
 .text.flash_manager_entry_count_get
                0x0000000000000000       0xfc CMakeFiles/pb_remote_server_nrf52832_xxAA_s132_6.0.0.dir/__/__/__/mesh/core/src/flash_manager.c.obj
 .text.flash_manager_entry_release
                0x0000000000000000       0x74 CMakeFiles/pb_remote_server_nrf52832_xxAA_s132_6.0.0.dir/__/__/__/mesh/core/src/flash_manager.c.obj
 .text          0x0000000000000000        0x0 CMakeFiles/pb_remote_server_nrf52832_xxAA_s132_6.0.0.dir/__/__/__/mesh/core/src/ccm_soft.c.obj
 .data          0x0000000000000000        0x0 CMakeFiles/pb_remote_server_nrf52832_xxAA_s132_6.0.0.dir/__/__/__/mesh/core/src/ccm_soft.c.obj
 .bss           0x0000000000000000        0x0 CMakeFiles/pb_remote_server_nrf52832_xxAA_s132_6.0.0.dir/__/__/__/mesh/core/src/ccm_soft.c.obj
 .text          0x0000000000000000        0x0 CMakeFiles/pb_remote_server_nrf52832_xxAA_s132_6.0.0.dir/__/__/__/mesh/core/src/toolchain.c.obj
 .data          0x0000000000000000        0x0 CMakeFiles/pb_remote_server_nrf52832_xxAA_s132_6.0.0.dir/__/__/__/mesh/core/src/toolchain.c.obj
 .bss           0x0000000000000000        0x0 CMakeFiles/pb_remote_server_nrf52832_xxAA_s132_6.0.0.dir/__/__/__/mesh/core/src/toolchain.c.obj
 .debug_info    0x0000000000000000       0xac CMakeFiles/pb_remote_server_nrf52832_xxAA_s132_6.0.0.dir/__/__/__/mesh/core/src/toolchain.c.obj
 .debug_abbrev  0x0000000000000000       0x5c CMakeFiles/pb_remote_server_nrf52832_xxAA_s132_6.0.0.dir/__/__/__/mesh/core/src/toolchain.c.obj
 .debug_aranges
                0x0000000000000000       0x18 CMakeFiles/pb_remote_server_nrf52832_xxAA_s132_6.0.0.dir/__/__/__/mesh/core/src/toolchain.c.obj
 .debug_line    0x0000000000000000      0x12e CMakeFiles/pb_remote_server_nrf52832_xxAA_s132_6.0.0.dir/__/__/__/mesh/core/src/toolchain.c.obj
 .debug_str     0x0000000000000000      0x267 CMakeFiles/pb_remote_server_nrf52832_xxAA_s132_6.0.0.dir/__/__/__/mesh/core/src/toolchain.c.obj
 .comment       0x0000000000000000       0x7f CMakeFiles/pb_remote_server_nrf52832_xxAA_s132_6.0.0.dir/__/__/__/mesh/core/src/toolchain.c.obj
 .ARM.attributes
                0x0000000000000000       0x39 CMakeFiles/pb_remote_server_nrf52832_xxAA_s132_6.0.0.dir/__/__/__/mesh/core/src/toolchain.c.obj
 .text          0x0000000000000000        0x0 CMakeFiles/pb_remote_server_nrf52832_xxAA_s132_6.0.0.dir/__/__/__/mesh/core/src/replay_cache.c.obj
 .data          0x0000000000000000        0x0 CMakeFiles/pb_remote_server_nrf52832_xxAA_s132_6.0.0.dir/__/__/__/mesh/core/src/replay_cache.c.obj
 .bss           0x0000000000000000        0x0 CMakeFiles/pb_remote_server_nrf52832_xxAA_s132_6.0.0.dir/__/__/__/mesh/core/src/replay_cache.c.obj
 .text.replay_cache_on_iv_update
                0x0000000000000000       0x2c CMakeFiles/pb_remote_server_nrf52832_xxAA_s132_6.0.0.dir/__/__/__/mesh/core/src/replay_cache.c.obj
 .text.replay_cache_clear
                0x0000000000000000       0x20 CMakeFiles/pb_remote_server_nrf52832_xxAA_s132_6.0.0.dir/__/__/__/mesh/core/src/replay_cache.c.obj
 .text          0x0000000000000000        0x0 CMakeFiles/pb_remote_server_nrf52832_xxAA_s132_6.0.0.dir/__/__/__/mesh/core/src/beacon.c.obj
 .data          0x0000000000000000        0x0 CMakeFiles/pb_remote_server_nrf52832_xxAA_s132_6.0.0.dir/__/__/__/mesh/core/src/beacon.c.obj
 .bss           0x0000000000000000        0x0 CMakeFiles/pb_remote_server_nrf52832_xxAA_s132_6.0.0.dir/__/__/__/mesh/core/src/beacon.c.obj
 .text          0x0000000000000000        0x0 CMakeFiles/pb_remote_server_nrf52832_xxAA_s132_6.0.0.dir/__/__/__/mesh/core/src/flash_manager_internal.c.obj
 .data          0x0000000000000000        0x0 CMakeFiles/pb_remote_server_nrf52832_xxAA_s132_6.0.0.dir/__/__/__/mesh/core/src/flash_manager_internal.c.obj
 .bss           0x0000000000000000        0x0 CMakeFiles/pb_remote_server_nrf52832_xxAA_s132_6.0.0.dir/__/__/__/mesh/core/src/flash_manager_internal.c.obj
 .text          0x0000000000000000        0x0 CMakeFiles/pb_remote_server_nrf52832_xxAA_s132_6.0.0.dir/__/__/__/mesh/core/src/core_tx.c.obj
 .data          0x0000000000000000        0x0 CMakeFiles/pb_remote_server_nrf52832_xxAA_s132_6.0.0.dir/__/__/__/mesh/core/src/core_tx.c.obj
 .bss           0x0000000000000000        0x0 CMakeFiles/pb_remote_server_nrf52832_xxAA_s132_6.0.0.dir/__/__/__/mesh/core/src/core_tx.c.obj
 .text.core_tx_bearer_type_get
                0x0000000000000000       0x2c CMakeFiles/pb_remote_server_nrf52832_xxAA_s132_6.0.0.dir/__/__/__/mesh/core/src/core_tx.c.obj
 .text.core_tx_bearer_count_get
                0x0000000000000000        0xc CMakeFiles/pb_remote_server_nrf52832_xxAA_s132_6.0.0.dir/__/__/__/mesh/core/src/core_tx.c.obj
 .text          0x0000000000000000        0x0 CMakeFiles/pb_remote_server_nrf52832_xxAA_s132_6.0.0.dir/__/__/__/mesh/core/src/heartbeat.c.obj
 .data          0x0000000000000000        0x0 CMakeFiles/pb_remote_server_nrf52832_xxAA_s132_6.0.0.dir/__/__/__/mesh/core/src/heartbeat.c.obj
 .bss           0x0000000000000000        0x0 CMakeFiles/pb_remote_server_nrf52832_xxAA_s132_6.0.0.dir/__/__/__/mesh/core/src/heartbeat.c.obj
 .text          0x0000000000000000        0x0 CMakeFiles/pb_remote_server_nrf52832_xxAA_s132_6.0.0.dir/__/__/__/mesh/core/src/net_beacon.c.obj
 .data          0x0000000000000000        0x0 CMakeFiles/pb_remote_server_nrf52832_xxAA_s132_6.0.0.dir/__/__/__/mesh/core/src/net_beacon.c.obj
 .bss           0x0000000000000000        0x0 CMakeFiles/pb_remote_server_nrf52832_xxAA_s132_6.0.0.dir/__/__/__/mesh/core/src/net_beacon.c.obj
 .text.net_beacon_build
                0x0000000000000000       0x68 CMakeFiles/pb_remote_server_nrf52832_xxAA_s132_6.0.0.dir/__/__/__/mesh/core/src/net_beacon.c.obj
 .text          0x0000000000000000        0x0 CMakeFiles/pb_remote_server_nrf52832_xxAA_s132_6.0.0.dir/__/__/__/mesh/core/src/fsm.c.obj
 .data          0x0000000000000000        0x0 CMakeFiles/pb_remote_server_nrf52832_xxAA_s132_6.0.0.dir/__/__/__/mesh/core/src/fsm.c.obj
 .bss           0x0000000000000000        0x0 CMakeFiles/pb_remote_server_nrf52832_xxAA_s132_6.0.0.dir/__/__/__/mesh/core/src/fsm.c.obj
 .text.fsm_event_post_try
                0x0000000000000000      0x24c CMakeFiles/pb_remote_server_nrf52832_xxAA_s132_6.0.0.dir/__/__/__/mesh/core/src/fsm.c.obj
 .text.fsm_init
                0x0000000000000000      0x100 CMakeFiles/pb_remote_server_nrf52832_xxAA_s132_6.0.0.dir/__/__/__/mesh/core/src/fsm.c.obj
 .text.fsm_event_post
                0x0000000000000000       0xbc CMakeFiles/pb_remote_server_nrf52832_xxAA_s132_6.0.0.dir/__/__/__/mesh/core/src/fsm.c.obj
 .text.fsm_is_processing
                0x0000000000000000        0xc CMakeFiles/pb_remote_server_nrf52832_xxAA_s132_6.0.0.dir/__/__/__/mesh/core/src/fsm.c.obj
 .rodata.fsm_event_post.str1.4
                0x0000000000000000        0xb CMakeFiles/pb_remote_server_nrf52832_xxAA_s132_6.0.0.dir/__/__/__/mesh/core/src/fsm.c.obj
 .rodata.fsm_event_post_try.str1.4
                0x0000000000000000       0x7c CMakeFiles/pb_remote_server_nrf52832_xxAA_s132_6.0.0.dir/__/__/__/mesh/core/src/fsm.c.obj
 .rodata.fsm_init.str1.4
                0x0000000000000000        0xa CMakeFiles/pb_remote_server_nrf52832_xxAA_s132_6.0.0.dir/__/__/__/mesh/core/src/fsm.c.obj
 .debug_info    0x0000000000000000     0x13e3 CMakeFiles/pb_remote_server_nrf52832_xxAA_s132_6.0.0.dir/__/__/__/mesh/core/src/fsm.c.obj
 .debug_abbrev  0x0000000000000000      0x35d CMakeFiles/pb_remote_server_nrf52832_xxAA_s132_6.0.0.dir/__/__/__/mesh/core/src/fsm.c.obj
 .debug_loc     0x0000000000000000      0x4f3 CMakeFiles/pb_remote_server_nrf52832_xxAA_s132_6.0.0.dir/__/__/__/mesh/core/src/fsm.c.obj
 .debug_aranges
                0x0000000000000000       0x38 CMakeFiles/pb_remote_server_nrf52832_xxAA_s132_6.0.0.dir/__/__/__/mesh/core/src/fsm.c.obj
 .debug_ranges  0x0000000000000000       0xd8 CMakeFiles/pb_remote_server_nrf52832_xxAA_s132_6.0.0.dir/__/__/__/mesh/core/src/fsm.c.obj
 .debug_line    0x0000000000000000      0x487 CMakeFiles/pb_remote_server_nrf52832_xxAA_s132_6.0.0.dir/__/__/__/mesh/core/src/fsm.c.obj
 .debug_str     0x0000000000000000      0x9f1 CMakeFiles/pb_remote_server_nrf52832_xxAA_s132_6.0.0.dir/__/__/__/mesh/core/src/fsm.c.obj
 .comment       0x0000000000000000       0x7f CMakeFiles/pb_remote_server_nrf52832_xxAA_s132_6.0.0.dir/__/__/__/mesh/core/src/fsm.c.obj
 .debug_frame   0x0000000000000000       0xb0 CMakeFiles/pb_remote_server_nrf52832_xxAA_s132_6.0.0.dir/__/__/__/mesh/core/src/fsm.c.obj
 .ARM.attributes
                0x0000000000000000       0x39 CMakeFiles/pb_remote_server_nrf52832_xxAA_s132_6.0.0.dir/__/__/__/mesh/core/src/fsm.c.obj
 .text          0x0000000000000000        0x0 CMakeFiles/pb_remote_server_nrf52832_xxAA_s132_6.0.0.dir/__/__/__/mesh/core/src/core_tx_adv.c.obj
 .data          0x0000000000000000        0x0 CMakeFiles/pb_remote_server_nrf52832_xxAA_s132_6.0.0.dir/__/__/__/mesh/core/src/core_tx_adv.c.obj
 .bss           0x0000000000000000        0x0 CMakeFiles/pb_remote_server_nrf52832_xxAA_s132_6.0.0.dir/__/__/__/mesh/core/src/core_tx_adv.c.obj
 .text.core_tx_adv_address_set
                0x0000000000000000       0x28 CMakeFiles/pb_remote_server_nrf52832_xxAA_s132_6.0.0.dir/__/__/__/mesh/core/src/core_tx_adv.c.obj
 .text          0x0000000000000000        0x0 CMakeFiles/pb_remote_server_nrf52832_xxAA_s132_6.0.0.dir/__/__/__/mesh/bearer/src/ad_listener.c.obj
 .data          0x0000000000000000        0x0 CMakeFiles/pb_remote_server_nrf52832_xxAA_s132_6.0.0.dir/__/__/__/mesh/bearer/src/ad_listener.c.obj
 .bss           0x0000000000000000        0x0 CMakeFiles/pb_remote_server_nrf52832_xxAA_s132_6.0.0.dir/__/__/__/mesh/bearer/src/ad_listener.c.obj
 .text.ad_listener_unsubscribe
                0x0000000000000000       0x78 CMakeFiles/pb_remote_server_nrf52832_xxAA_s132_6.0.0.dir/__/__/__/mesh/bearer/src/ad_listener.c.obj
 .text          0x0000000000000000        0x0 CMakeFiles/pb_remote_server_nrf52832_xxAA_s132_6.0.0.dir/__/__/__/mesh/bearer/src/ad_type_filter.c.obj
 .data          0x0000000000000000        0x0 CMakeFiles/pb_remote_server_nrf52832_xxAA_s132_6.0.0.dir/__/__/__/mesh/bearer/src/ad_type_filter.c.obj
 .bss           0x0000000000000000        0x0 CMakeFiles/pb_remote_server_nrf52832_xxAA_s132_6.0.0.dir/__/__/__/mesh/bearer/src/ad_type_filter.c.obj
 .text.bearer_adtype_remove
                0x0000000000000000       0x28 CMakeFiles/pb_remote_server_nrf52832_xxAA_s132_6.0.0.dir/__/__/__/mesh/bearer/src/ad_type_filter.c.obj
 .text.bearer_adtype_clear
                0x0000000000000000       0x10 CMakeFiles/pb_remote_server_nrf52832_xxAA_s132_6.0.0.dir/__/__/__/mesh/bearer/src/ad_type_filter.c.obj
 .text.bearer_invalid_length_amount_get
                0x0000000000000000        0xc CMakeFiles/pb_remote_server_nrf52832_xxAA_s132_6.0.0.dir/__/__/__/mesh/bearer/src/ad_type_filter.c.obj
 .text.bearer_adtype_filtered_amount_get
                0x0000000000000000        0xc CMakeFiles/pb_remote_server_nrf52832_xxAA_s132_6.0.0.dir/__/__/__/mesh/bearer/src/ad_type_filter.c.obj
 .text          0x0000000000000000        0x0 CMakeFiles/pb_remote_server_nrf52832_xxAA_s132_6.0.0.dir/__/__/__/mesh/bearer/src/adv_packet_filter.c.obj
 .data          0x0000000000000000        0x0 CMakeFiles/pb_remote_server_nrf52832_xxAA_s132_6.0.0.dir/__/__/__/mesh/bearer/src/adv_packet_filter.c.obj
 .bss           0x0000000000000000        0x0 CMakeFiles/pb_remote_server_nrf52832_xxAA_s132_6.0.0.dir/__/__/__/mesh/bearer/src/adv_packet_filter.c.obj
 .text.adv_filter_handle
                0x0000000000000000       0x40 CMakeFiles/pb_remote_server_nrf52832_xxAA_s132_6.0.0.dir/__/__/__/mesh/bearer/src/adv_packet_filter.c.obj
 .text.bearer_adv_packet_filtering_set
                0x0000000000000000       0x1c CMakeFiles/pb_remote_server_nrf52832_xxAA_s132_6.0.0.dir/__/__/__/mesh/bearer/src/adv_packet_filter.c.obj
 .text.bearer_adv_packet_remove
                0x0000000000000000       0x18 CMakeFiles/pb_remote_server_nrf52832_xxAA_s132_6.0.0.dir/__/__/__/mesh/bearer/src/adv_packet_filter.c.obj
 .text.bearer_adv_packet_add
                0x0000000000000000       0x14 CMakeFiles/pb_remote_server_nrf52832_xxAA_s132_6.0.0.dir/__/__/__/mesh/bearer/src/adv_packet_filter.c.obj
 .text.bearer_adv_packet_clear
                0x0000000000000000        0xc CMakeFiles/pb_remote_server_nrf52832_xxAA_s132_6.0.0.dir/__/__/__/mesh/bearer/src/adv_packet_filter.c.obj
 .text.bearer_adv_packet_filter_mode_set
                0x0000000000000000       0x18 CMakeFiles/pb_remote_server_nrf52832_xxAA_s132_6.0.0.dir/__/__/__/mesh/bearer/src/adv_packet_filter.c.obj
 .text.bearer_adv_packet_filtered_amount_get
                0x0000000000000000        0xc CMakeFiles/pb_remote_server_nrf52832_xxAA_s132_6.0.0.dir/__/__/__/mesh/bearer/src/adv_packet_filter.c.obj
 .bss.m_adv_packet_filter
                0x0000000000000000       0x14 CMakeFiles/pb_remote_server_nrf52832_xxAA_s132_6.0.0.dir/__/__/__/mesh/bearer/src/adv_packet_filter.c.obj
 .debug_info    0x0000000000000000      0xd92 CMakeFiles/pb_remote_server_nrf52832_xxAA_s132_6.0.0.dir/__/__/__/mesh/bearer/src/adv_packet_filter.c.obj
 .debug_abbrev  0x0000000000000000      0x2cb CMakeFiles/pb_remote_server_nrf52832_xxAA_s132_6.0.0.dir/__/__/__/mesh/bearer/src/adv_packet_filter.c.obj
 .debug_loc     0x0000000000000000      0x1b2 CMakeFiles/pb_remote_server_nrf52832_xxAA_s132_6.0.0.dir/__/__/__/mesh/bearer/src/adv_packet_filter.c.obj
 .debug_aranges
                0x0000000000000000       0x50 CMakeFiles/pb_remote_server_nrf52832_xxAA_s132_6.0.0.dir/__/__/__/mesh/bearer/src/adv_packet_filter.c.obj
 .debug_ranges  0x0000000000000000       0x40 CMakeFiles/pb_remote_server_nrf52832_xxAA_s132_6.0.0.dir/__/__/__/mesh/bearer/src/adv_packet_filter.c.obj
 .debug_line    0x0000000000000000      0x486 CMakeFiles/pb_remote_server_nrf52832_xxAA_s132_6.0.0.dir/__/__/__/mesh/bearer/src/adv_packet_filter.c.obj
 .debug_str     0x0000000000000000      0xa95 CMakeFiles/pb_remote_server_nrf52832_xxAA_s132_6.0.0.dir/__/__/__/mesh/bearer/src/adv_packet_filter.c.obj
 .comment       0x0000000000000000       0x7f CMakeFiles/pb_remote_server_nrf52832_xxAA_s132_6.0.0.dir/__/__/__/mesh/bearer/src/adv_packet_filter.c.obj
 .debug_frame   0x0000000000000000       0x88 CMakeFiles/pb_remote_server_nrf52832_xxAA_s132_6.0.0.dir/__/__/__/mesh/bearer/src/adv_packet_filter.c.obj
 .ARM.attributes
                0x0000000000000000       0x39 CMakeFiles/pb_remote_server_nrf52832_xxAA_s132_6.0.0.dir/__/__/__/mesh/bearer/src/adv_packet_filter.c.obj
 .text          0x0000000000000000        0x0 CMakeFiles/pb_remote_server_nrf52832_xxAA_s132_6.0.0.dir/__/__/__/mesh/bearer/src/advertiser.c.obj
 .data          0x0000000000000000        0x0 CMakeFiles/pb_remote_server_nrf52832_xxAA_s132_6.0.0.dir/__/__/__/mesh/bearer/src/advertiser.c.obj
 .bss           0x0000000000000000        0x0 CMakeFiles/pb_remote_server_nrf52832_xxAA_s132_6.0.0.dir/__/__/__/mesh/bearer/src/advertiser.c.obj
 .text.advertiser_disable
                0x0000000000000000        0xc CMakeFiles/pb_remote_server_nrf52832_xxAA_s132_6.0.0.dir/__/__/__/mesh/bearer/src/advertiser.c.obj
 .text.advertiser_config_set
                0x0000000000000000      0x184 CMakeFiles/pb_remote_server_nrf52832_xxAA_s132_6.0.0.dir/__/__/__/mesh/bearer/src/advertiser.c.obj
 .text.advertiser_channels_set
                0x0000000000000000       0x98 CMakeFiles/pb_remote_server_nrf52832_xxAA_s132_6.0.0.dir/__/__/__/mesh/bearer/src/advertiser.c.obj
 .text.advertiser_address_set
                0x0000000000000000       0x74 CMakeFiles/pb_remote_server_nrf52832_xxAA_s132_6.0.0.dir/__/__/__/mesh/bearer/src/advertiser.c.obj
 .text.advertiser_config_get
                0x0000000000000000       0x24 CMakeFiles/pb_remote_server_nrf52832_xxAA_s132_6.0.0.dir/__/__/__/mesh/bearer/src/advertiser.c.obj
 .text.advertiser_address_default_get
                0x0000000000000000       0x5c CMakeFiles/pb_remote_server_nrf52832_xxAA_s132_6.0.0.dir/__/__/__/mesh/bearer/src/advertiser.c.obj
 .text          0x0000000000000000        0x0 CMakeFiles/pb_remote_server_nrf52832_xxAA_s132_6.0.0.dir/__/__/__/mesh/bearer/src/bearer_handler.c.obj
 .data          0x0000000000000000        0x0 CMakeFiles/pb_remote_server_nrf52832_xxAA_s132_6.0.0.dir/__/__/__/mesh/bearer/src/bearer_handler.c.obj
 .bss           0x0000000000000000        0x0 CMakeFiles/pb_remote_server_nrf52832_xxAA_s132_6.0.0.dir/__/__/__/mesh/bearer/src/bearer_handler.c.obj
 .text.bearer_handler_stop
                0x0000000000000000       0x20 CMakeFiles/pb_remote_server_nrf52832_xxAA_s132_6.0.0.dir/__/__/__/mesh/bearer/src/bearer_handler.c.obj
 .text.bearer_handler_action_fire
                0x0000000000000000       0xa0 CMakeFiles/pb_remote_server_nrf52832_xxAA_s132_6.0.0.dir/__/__/__/mesh/bearer/src/bearer_handler.c.obj
 .text          0x0000000000000000        0x0 CMakeFiles/pb_remote_server_nrf52832_xxAA_s132_6.0.0.dir/__/__/__/mesh/bearer/src/broadcast.c.obj
 .data          0x0000000000000000        0x0 CMakeFiles/pb_remote_server_nrf52832_xxAA_s132_6.0.0.dir/__/__/__/mesh/bearer/src/broadcast.c.obj
 .bss           0x0000000000000000        0x0 CMakeFiles/pb_remote_server_nrf52832_xxAA_s132_6.0.0.dir/__/__/__/mesh/bearer/src/broadcast.c.obj
 .text          0x0000000000000000        0x0 CMakeFiles/pb_remote_server_nrf52832_xxAA_s132_6.0.0.dir/__/__/__/mesh/bearer/src/filter_engine.c.obj
 .data          0x0000000000000000        0x0 CMakeFiles/pb_remote_server_nrf52832_xxAA_s132_6.0.0.dir/__/__/__/mesh/bearer/src/filter_engine.c.obj
 .bss           0x0000000000000000        0x0 CMakeFiles/pb_remote_server_nrf52832_xxAA_s132_6.0.0.dir/__/__/__/mesh/bearer/src/filter_engine.c.obj
 .text.fen_accepted_amount_get
                0x0000000000000000        0xc CMakeFiles/pb_remote_server_nrf52832_xxAA_s132_6.0.0.dir/__/__/__/mesh/bearer/src/filter_engine.c.obj
 .text          0x0000000000000000        0x0 CMakeFiles/pb_remote_server_nrf52832_xxAA_s132_6.0.0.dir/__/__/__/mesh/bearer/src/gap_address_filter.c.obj
 .data          0x0000000000000000        0x0 CMakeFiles/pb_remote_server_nrf52832_xxAA_s132_6.0.0.dir/__/__/__/mesh/bearer/src/gap_address_filter.c.obj
 .bss           0x0000000000000000        0x0 CMakeFiles/pb_remote_server_nrf52832_xxAA_s132_6.0.0.dir/__/__/__/mesh/bearer/src/gap_address_filter.c.obj
 .text.gap_address_filter_handle
                0x0000000000000000       0xb8 CMakeFiles/pb_remote_server_nrf52832_xxAA_s132_6.0.0.dir/__/__/__/mesh/bearer/src/gap_address_filter.c.obj
 .text.bearer_filter_gap_addr_whitelist_set
                0x0000000000000000       0x48 CMakeFiles/pb_remote_server_nrf52832_xxAA_s132_6.0.0.dir/__/__/__/mesh/bearer/src/gap_address_filter.c.obj
 .text.bearer_filter_gap_addr_blacklist_set
                0x0000000000000000       0x4c CMakeFiles/pb_remote_server_nrf52832_xxAA_s132_6.0.0.dir/__/__/__/mesh/bearer/src/gap_address_filter.c.obj
 .text.bearer_filter_gap_addr_range_set
                0x0000000000000000       0x64 CMakeFiles/pb_remote_server_nrf52832_xxAA_s132_6.0.0.dir/__/__/__/mesh/bearer/src/gap_address_filter.c.obj
 .text.bearer_filter_gap_addr_clear
                0x0000000000000000       0x24 CMakeFiles/pb_remote_server_nrf52832_xxAA_s132_6.0.0.dir/__/__/__/mesh/bearer/src/gap_address_filter.c.obj
 .text.bearer_gap_addr_filtered_amount_get
                0x0000000000000000        0xc CMakeFiles/pb_remote_server_nrf52832_xxAA_s132_6.0.0.dir/__/__/__/mesh/bearer/src/gap_address_filter.c.obj
 .bss.m_addr_filter
                0x0000000000000000       0x18 CMakeFiles/pb_remote_server_nrf52832_xxAA_s132_6.0.0.dir/__/__/__/mesh/bearer/src/gap_address_filter.c.obj
 .debug_info    0x0000000000000000      0xf34 CMakeFiles/pb_remote_server_nrf52832_xxAA_s132_6.0.0.dir/__/__/__/mesh/bearer/src/gap_address_filter.c.obj
 .debug_abbrev  0x0000000000000000      0x2f8 CMakeFiles/pb_remote_server_nrf52832_xxAA_s132_6.0.0.dir/__/__/__/mesh/bearer/src/gap_address_filter.c.obj
 .debug_loc     0x0000000000000000      0x823 CMakeFiles/pb_remote_server_nrf52832_xxAA_s132_6.0.0.dir/__/__/__/mesh/bearer/src/gap_address_filter.c.obj
 .debug_aranges
                0x0000000000000000       0x48 CMakeFiles/pb_remote_server_nrf52832_xxAA_s132_6.0.0.dir/__/__/__/mesh/bearer/src/gap_address_filter.c.obj
 .debug_ranges  0x0000000000000000      0x100 CMakeFiles/pb_remote_server_nrf52832_xxAA_s132_6.0.0.dir/__/__/__/mesh/bearer/src/gap_address_filter.c.obj
 .debug_line    0x0000000000000000      0x516 CMakeFiles/pb_remote_server_nrf52832_xxAA_s132_6.0.0.dir/__/__/__/mesh/bearer/src/gap_address_filter.c.obj
 .debug_str     0x0000000000000000      0x9ef CMakeFiles/pb_remote_server_nrf52832_xxAA_s132_6.0.0.dir/__/__/__/mesh/bearer/src/gap_address_filter.c.obj
 .comment       0x0000000000000000       0x7f CMakeFiles/pb_remote_server_nrf52832_xxAA_s132_6.0.0.dir/__/__/__/mesh/bearer/src/gap_address_filter.c.obj
 .debug_frame   0x0000000000000000       0xd4 CMakeFiles/pb_remote_server_nrf52832_xxAA_s132_6.0.0.dir/__/__/__/mesh/bearer/src/gap_address_filter.c.obj
 .ARM.attributes
                0x0000000000000000       0x39 CMakeFiles/pb_remote_server_nrf52832_xxAA_s132_6.0.0.dir/__/__/__/mesh/bearer/src/gap_address_filter.c.obj
 .text          0x0000000000000000        0x0 CMakeFiles/pb_remote_server_nrf52832_xxAA_s132_6.0.0.dir/__/__/__/mesh/bearer/src/radio_config.c.obj
 .data          0x0000000000000000        0x0 CMakeFiles/pb_remote_server_nrf52832_xxAA_s132_6.0.0.dir/__/__/__/mesh/bearer/src/radio_config.c.obj
 .bss           0x0000000000000000        0x0 CMakeFiles/pb_remote_server_nrf52832_xxAA_s132_6.0.0.dir/__/__/__/mesh/bearer/src/radio_config.c.obj
 .text.radio_config_access_addr_get
                0x0000000000000000       0x58 CMakeFiles/pb_remote_server_nrf52832_xxAA_s132_6.0.0.dir/__/__/__/mesh/bearer/src/radio_config.c.obj
 .text          0x0000000000000000        0x0 CMakeFiles/pb_remote_server_nrf52832_xxAA_s132_6.0.0.dir/__/__/__/mesh/bearer/src/rssi_filter.c.obj
 .data          0x0000000000000000        0x0 CMakeFiles/pb_remote_server_nrf52832_xxAA_s132_6.0.0.dir/__/__/__/mesh/bearer/src/rssi_filter.c.obj
 .bss           0x0000000000000000        0x0 CMakeFiles/pb_remote_server_nrf52832_xxAA_s132_6.0.0.dir/__/__/__/mesh/bearer/src/rssi_filter.c.obj
 .text.rssi_filter_handle
                0x0000000000000000       0x20 CMakeFiles/pb_remote_server_nrf52832_xxAA_s132_6.0.0.dir/__/__/__/mesh/bearer/src/rssi_filter.c.obj
 .text.bearer_rssi_filtering_set
                0x0000000000000000       0x38 CMakeFiles/pb_remote_server_nrf52832_xxAA_s132_6.0.0.dir/__/__/__/mesh/bearer/src/rssi_filter.c.obj
 .text.bearer_rssi_filtered_amount_get
                0x0000000000000000        0xc CMakeFiles/pb_remote_server_nrf52832_xxAA_s132_6.0.0.dir/__/__/__/mesh/bearer/src/rssi_filter.c.obj
 .bss.m_rssi_filter
                0x0000000000000000       0x18 CMakeFiles/pb_remote_server_nrf52832_xxAA_s132_6.0.0.dir/__/__/__/mesh/bearer/src/rssi_filter.c.obj
 .debug_info    0x0000000000000000      0xc70 CMakeFiles/pb_remote_server_nrf52832_xxAA_s132_6.0.0.dir/__/__/__/mesh/bearer/src/rssi_filter.c.obj
 .debug_abbrev  0x0000000000000000      0x290 CMakeFiles/pb_remote_server_nrf52832_xxAA_s132_6.0.0.dir/__/__/__/mesh/bearer/src/rssi_filter.c.obj
 .debug_loc     0x0000000000000000       0xbe CMakeFiles/pb_remote_server_nrf52832_xxAA_s132_6.0.0.dir/__/__/__/mesh/bearer/src/rssi_filter.c.obj
 .debug_aranges
                0x0000000000000000       0x30 CMakeFiles/pb_remote_server_nrf52832_xxAA_s132_6.0.0.dir/__/__/__/mesh/bearer/src/rssi_filter.c.obj
 .debug_ranges  0x0000000000000000       0x20 CMakeFiles/pb_remote_server_nrf52832_xxAA_s132_6.0.0.dir/__/__/__/mesh/bearer/src/rssi_filter.c.obj
 .debug_line    0x0000000000000000      0x3f8 CMakeFiles/pb_remote_server_nrf52832_xxAA_s132_6.0.0.dir/__/__/__/mesh/bearer/src/rssi_filter.c.obj
 .debug_str     0x0000000000000000      0x8aa CMakeFiles/pb_remote_server_nrf52832_xxAA_s132_6.0.0.dir/__/__/__/mesh/bearer/src/rssi_filter.c.obj
 .comment       0x0000000000000000       0x7f CMakeFiles/pb_remote_server_nrf52832_xxAA_s132_6.0.0.dir/__/__/__/mesh/bearer/src/rssi_filter.c.obj
 .debug_frame   0x0000000000000000       0x58 CMakeFiles/pb_remote_server_nrf52832_xxAA_s132_6.0.0.dir/__/__/__/mesh/bearer/src/rssi_filter.c.obj
 .ARM.attributes
                0x0000000000000000       0x39 CMakeFiles/pb_remote_server_nrf52832_xxAA_s132_6.0.0.dir/__/__/__/mesh/bearer/src/rssi_filter.c.obj
 .text          0x0000000000000000        0x0 CMakeFiles/pb_remote_server_nrf52832_xxAA_s132_6.0.0.dir/__/__/__/mesh/bearer/src/scanner.c.obj
 .data          0x0000000000000000        0x0 CMakeFiles/pb_remote_server_nrf52832_xxAA_s132_6.0.0.dir/__/__/__/mesh/bearer/src/scanner.c.obj
 .bss           0x0000000000000000        0x0 CMakeFiles/pb_remote_server_nrf52832_xxAA_s132_6.0.0.dir/__/__/__/mesh/bearer/src/scanner.c.obj
 .text.scanner_rx_callback_set
                0x0000000000000000       0x20 CMakeFiles/pb_remote_server_nrf52832_xxAA_s132_6.0.0.dir/__/__/__/mesh/bearer/src/scanner.c.obj
 .text.scanner_disable
                0x0000000000000000       0x50 CMakeFiles/pb_remote_server_nrf52832_xxAA_s132_6.0.0.dir/__/__/__/mesh/bearer/src/scanner.c.obj
 .text.scanner_is_enabled
                0x0000000000000000       0x14 CMakeFiles/pb_remote_server_nrf52832_xxAA_s132_6.0.0.dir/__/__/__/mesh/bearer/src/scanner.c.obj
 .text.scanner_stats_get
                0x0000000000000000        0x8 CMakeFiles/pb_remote_server_nrf52832_xxAA_s132_6.0.0.dir/__/__/__/mesh/bearer/src/scanner.c.obj
 .text.scanner_config_radio_mode_set
                0x0000000000000000       0x10 CMakeFiles/pb_remote_server_nrf52832_xxAA_s132_6.0.0.dir/__/__/__/mesh/bearer/src/scanner.c.obj
 .text.scanner_config_scan_time_set
                0x0000000000000000       0x88 CMakeFiles/pb_remote_server_nrf52832_xxAA_s132_6.0.0.dir/__/__/__/mesh/bearer/src/scanner.c.obj
 .text.scanner_config_channels_set
                0x0000000000000000       0x50 CMakeFiles/pb_remote_server_nrf52832_xxAA_s132_6.0.0.dir/__/__/__/mesh/bearer/src/scanner.c.obj
 .text.scanner_config_access_addresses_set
                0x0000000000000000       0x38 CMakeFiles/pb_remote_server_nrf52832_xxAA_s132_6.0.0.dir/__/__/__/mesh/bearer/src/scanner.c.obj
 .text          0x0000000000000000        0x0 CMakeFiles/pb_remote_server_nrf52832_xxAA_s132_6.0.0.dir/__/__/__/mesh/prov/src/prov_provisionee.c.obj
 .data          0x0000000000000000        0x0 CMakeFiles/pb_remote_server_nrf52832_xxAA_s132_6.0.0.dir/__/__/__/mesh/prov/src/prov_provisionee.c.obj
 .bss           0x0000000000000000        0x0 CMakeFiles/pb_remote_server_nrf52832_xxAA_s132_6.0.0.dir/__/__/__/mesh/prov/src/prov_provisionee.c.obj
 .text.prov_provisionee_shared_secret
                0x0000000000000000       0xa0 CMakeFiles/pb_remote_server_nrf52832_xxAA_s132_6.0.0.dir/__/__/__/mesh/prov/src/prov_provisionee.c.obj
 .text          0x0000000000000000        0x0 CMakeFiles/pb_remote_server_nrf52832_xxAA_s132_6.0.0.dir/__/__/__/mesh/prov/src/nrf_mesh_prov.c.obj
 .data          0x0000000000000000        0x0 CMakeFiles/pb_remote_server_nrf52832_xxAA_s132_6.0.0.dir/__/__/__/mesh/prov/src/nrf_mesh_prov.c.obj
 .bss           0x0000000000000000        0x0 CMakeFiles/pb_remote_server_nrf52832_xxAA_s132_6.0.0.dir/__/__/__/mesh/prov/src/nrf_mesh_prov.c.obj
 .text.nrf_mesh_prov_listen_stop
                0x0000000000000000       0x30 CMakeFiles/pb_remote_server_nrf52832_xxAA_s132_6.0.0.dir/__/__/__/mesh/prov/src/nrf_mesh_prov.c.obj
 .text.nrf_mesh_prov_provision
                0x0000000000000000       0x68 CMakeFiles/pb_remote_server_nrf52832_xxAA_s132_6.0.0.dir/__/__/__/mesh/prov/src/nrf_mesh_prov.c.obj
 .text.nrf_mesh_prov_oob_use
                0x0000000000000000       0x18 CMakeFiles/pb_remote_server_nrf52832_xxAA_s132_6.0.0.dir/__/__/__/mesh/prov/src/nrf_mesh_prov.c.obj
 .text.nrf_mesh_prov_shared_secret_provide
                0x0000000000000000       0x10 CMakeFiles/pb_remote_server_nrf52832_xxAA_s132_6.0.0.dir/__/__/__/mesh/prov/src/nrf_mesh_prov.c.obj
 .text.nrf_mesh_prov_pubkey_provide
                0x0000000000000000       0x10 CMakeFiles/pb_remote_server_nrf52832_xxAA_s132_6.0.0.dir/__/__/__/mesh/prov/src/nrf_mesh_prov.c.obj
 .text          0x0000000000000000        0x0 CMakeFiles/pb_remote_server_nrf52832_xxAA_s132_6.0.0.dir/__/__/__/mesh/prov/src/provisioning.c.obj
 .data          0x0000000000000000        0x0 CMakeFiles/pb_remote_server_nrf52832_xxAA_s132_6.0.0.dir/__/__/__/mesh/prov/src/provisioning.c.obj
 .bss           0x0000000000000000        0x0 CMakeFiles/pb_remote_server_nrf52832_xxAA_s132_6.0.0.dir/__/__/__/mesh/prov/src/provisioning.c.obj
 .text.prov_tx_invite
                0x0000000000000000       0x38 CMakeFiles/pb_remote_server_nrf52832_xxAA_s132_6.0.0.dir/__/__/__/mesh/prov/src/provisioning.c.obj
 .text.prov_tx_start
                0x0000000000000000       0x38 CMakeFiles/pb_remote_server_nrf52832_xxAA_s132_6.0.0.dir/__/__/__/mesh/prov/src/provisioning.c.obj
 .text.prov_tx_data
                0x0000000000000000       0x34 CMakeFiles/pb_remote_server_nrf52832_xxAA_s132_6.0.0.dir/__/__/__/mesh/prov/src/provisioning.c.obj
 .text.prov_tx  0x0000000000000000       0x3c CMakeFiles/pb_remote_server_nrf52832_xxAA_s132_6.0.0.dir/__/__/__/mesh/prov/src/provisioning.c.obj
 .text          0x0000000000000000        0x0 CMakeFiles/pb_remote_server_nrf52832_xxAA_s132_6.0.0.dir/__/__/__/mesh/prov/src/prov_beacon.c.obj
 .data          0x0000000000000000        0x0 CMakeFiles/pb_remote_server_nrf52832_xxAA_s132_6.0.0.dir/__/__/__/mesh/prov/src/prov_beacon.c.obj
 .bss           0x0000000000000000        0x0 CMakeFiles/pb_remote_server_nrf52832_xxAA_s132_6.0.0.dir/__/__/__/mesh/prov/src/prov_beacon.c.obj
 .text          0x0000000000000000        0x0 CMakeFiles/pb_remote_server_nrf52832_xxAA_s132_6.0.0.dir/__/__/__/mesh/prov/src/prov_utils.c.obj
 .data          0x0000000000000000        0x0 CMakeFiles/pb_remote_server_nrf52832_xxAA_s132_6.0.0.dir/__/__/__/mesh/prov/src/prov_utils.c.obj
 .bss           0x0000000000000000        0x0 CMakeFiles/pb_remote_server_nrf52832_xxAA_s132_6.0.0.dir/__/__/__/mesh/prov/src/prov_utils.c.obj
 .text          0x0000000000000000        0x0 CMakeFiles/pb_remote_server_nrf52832_xxAA_s132_6.0.0.dir/__/__/__/mesh/prov/src/prov_bearer_adv.c.obj
 .data          0x0000000000000000        0x0 CMakeFiles/pb_remote_server_nrf52832_xxAA_s132_6.0.0.dir/__/__/__/mesh/prov/src/prov_bearer_adv.c.obj
 .bss           0x0000000000000000        0x0 CMakeFiles/pb_remote_server_nrf52832_xxAA_s132_6.0.0.dir/__/__/__/mesh/prov/src/prov_bearer_adv.c.obj
 .text.calculate_3GPP_CRC
                0x0000000000000000       0x28 CMakeFiles/pb_remote_server_nrf52832_xxAA_s132_6.0.0.dir/__/__/__/mesh/prov/src/prov_bearer_adv.c.obj
 .text          0x0000000000000000        0x0 CMakeFiles/pb_remote_server_nrf52832_xxAA_s132_6.0.0.dir/__/__/__/models/pb_remote/src/pb_remote_server.c.obj
 .data          0x0000000000000000        0x0 CMakeFiles/pb_remote_server_nrf52832_xxAA_s132_6.0.0.dir/__/__/__/models/pb_remote/src/pb_remote_server.c.obj
 .bss           0x0000000000000000        0x0 CMakeFiles/pb_remote_server_nrf52832_xxAA_s132_6.0.0.dir/__/__/__/models/pb_remote/src/pb_remote_server.c.obj
 .text.pb_remote_server_disable
                0x0000000000000000        0xc CMakeFiles/pb_remote_server_nrf52832_xxAA_s132_6.0.0.dir/__/__/__/models/pb_remote/src/pb_remote_server.c.obj
 .text.pb_remote_server_return_to_scan_set
                0x0000000000000000       0x10 CMakeFiles/pb_remote_server_nrf52832_xxAA_s132_6.0.0.dir/__/__/__/models/pb_remote/src/pb_remote_server.c.obj
 .text          0x0000000000000000        0x0 CMakeFiles/pb_remote_server_nrf52832_xxAA_s132_6.0.0.dir/__/__/__/mesh/access/src/access_publish.c.obj
 .data          0x0000000000000000        0x0 CMakeFiles/pb_remote_server_nrf52832_xxAA_s132_6.0.0.dir/__/__/__/mesh/access/src/access_publish.c.obj
 .bss           0x0000000000000000        0x0 CMakeFiles/pb_remote_server_nrf52832_xxAA_s132_6.0.0.dir/__/__/__/mesh/access/src/access_publish.c.obj
 .text          0x0000000000000000        0x0 CMakeFiles/pb_remote_server_nrf52832_xxAA_s132_6.0.0.dir/__/__/__/mesh/access/src/access.c.obj
 .data          0x0000000000000000        0x0 CMakeFiles/pb_remote_server_nrf52832_xxAA_s132_6.0.0.dir/__/__/__/mesh/access/src/access.c.obj
 .bss           0x0000000000000000        0x0 CMakeFiles/pb_remote_server_nrf52832_xxAA_s132_6.0.0.dir/__/__/__/mesh/access/src/access.c.obj
 .text.access_model_subscription_list_alloc
                0x0000000000000000       0x64 CMakeFiles/pb_remote_server_nrf52832_xxAA_s132_6.0.0.dir/__/__/__/mesh/access/src/access.c.obj
 .text.access_model_subscription_lists_share
                0x0000000000000000       0x68 CMakeFiles/pb_remote_server_nrf52832_xxAA_s132_6.0.0.dir/__/__/__/mesh/access/src/access.c.obj
 .text.access_element_location_set
                0x0000000000000000       0x20 CMakeFiles/pb_remote_server_nrf52832_xxAA_s132_6.0.0.dir/__/__/__/mesh/access/src/access.c.obj
 .text          0x0000000000000000        0x0 CMakeFiles/pb_remote_server_nrf52832_xxAA_s132_6.0.0.dir/__/__/__/mesh/access/src/access_reliable.c.obj
 .data          0x0000000000000000        0x0 CMakeFiles/pb_remote_server_nrf52832_xxAA_s132_6.0.0.dir/__/__/__/mesh/access/src/access_reliable.c.obj
 .bss           0x0000000000000000        0x0 CMakeFiles/pb_remote_server_nrf52832_xxAA_s132_6.0.0.dir/__/__/__/mesh/access/src/access_reliable.c.obj
 .text          0x0000000000000000        0x0 CMakeFiles/pb_remote_server_nrf52832_xxAA_s132_6.0.0.dir/__/__/__/mesh/access/src/device_state_manager.c.obj
 .data          0x0000000000000000        0x0 CMakeFiles/pb_remote_server_nrf52832_xxAA_s132_6.0.0.dir/__/__/__/mesh/access/src/device_state_manager.c.obj
 .bss           0x0000000000000000        0x0 CMakeFiles/pb_remote_server_nrf52832_xxAA_s132_6.0.0.dir/__/__/__/mesh/access/src/device_state_manager.c.obj
 .text.dsm_has_unflashed_data
                0x0000000000000000       0x58 CMakeFiles/pb_remote_server_nrf52832_xxAA_s132_6.0.0.dir/__/__/__/mesh/access/src/device_state_manager.c.obj
 .text.dsm_address_subscription_count_get
                0x0000000000000000       0x74 CMakeFiles/pb_remote_server_nrf52832_xxAA_s132_6.0.0.dir/__/__/__/mesh/access/src/device_state_manager.c.obj
 .text.dsm_address_get_all
                0x0000000000000000       0x94 CMakeFiles/pb_remote_server_nrf52832_xxAA_s132_6.0.0.dir/__/__/__/mesh/access/src/device_state_manager.c.obj
 .text.dsm_subnet_handle_to_netkey_index
                0x0000000000000000       0x24 CMakeFiles/pb_remote_server_nrf52832_xxAA_s132_6.0.0.dir/__/__/__/mesh/access/src/device_state_manager.c.obj
 .text.dsm_devkey_delete
                0x0000000000000000       0x6c CMakeFiles/pb_remote_server_nrf52832_xxAA_s132_6.0.0.dir/__/__/__/mesh/access/src/device_state_manager.c.obj
 .text.dsm_devkey_handle_get
                0x0000000000000000       0x3c CMakeFiles/pb_remote_server_nrf52832_xxAA_s132_6.0.0.dir/__/__/__/mesh/access/src/device_state_manager.c.obj
 .text.dsm_beacon_info_get
                0x0000000000000000       0x24 CMakeFiles/pb_remote_server_nrf52832_xxAA_s132_6.0.0.dir/__/__/__/mesh/access/src/device_state_manager.c.obj
 .text          0x0000000000000000        0x0 CMakeFiles/pb_remote_server_nrf52832_xxAA_s132_6.0.0.dir/__/__/__/models/config/src/composition_data.c.obj
 .data          0x0000000000000000        0x0 CMakeFiles/pb_remote_server_nrf52832_xxAA_s132_6.0.0.dir/__/__/__/models/config/src/composition_data.c.obj
 .bss           0x0000000000000000        0x0 CMakeFiles/pb_remote_server_nrf52832_xxAA_s132_6.0.0.dir/__/__/__/models/config/src/composition_data.c.obj
 .text          0x0000000000000000        0x0 CMakeFiles/pb_remote_server_nrf52832_xxAA_s132_6.0.0.dir/__/__/__/models/config/src/config_server.c.obj
 .data          0x0000000000000000        0x0 CMakeFiles/pb_remote_server_nrf52832_xxAA_s132_6.0.0.dir/__/__/__/models/config/src/config_server.c.obj
 .bss           0x0000000000000000        0x0 CMakeFiles/pb_remote_server_nrf52832_xxAA_s132_6.0.0.dir/__/__/__/models/config/src/config_server.c.obj
 .text          0x0000000000000000        0x0 CMakeFiles/pb_remote_server_nrf52832_xxAA_s132_6.0.0.dir/__/__/__/models/config/src/packed_index_list.c.obj
 .data          0x0000000000000000        0x0 CMakeFiles/pb_remote_server_nrf52832_xxAA_s132_6.0.0.dir/__/__/__/models/config/src/packed_index_list.c.obj
 .bss           0x0000000000000000        0x0 CMakeFiles/pb_remote_server_nrf52832_xxAA_s132_6.0.0.dir/__/__/__/models/config/src/packed_index_list.c.obj
 .text          0x0000000000000000        0x0 CMakeFiles/pb_remote_server_nrf52832_xxAA_s132_6.0.0.dir/__/__/__/models/health/src/health_server.c.obj
 .data          0x0000000000000000        0x0 CMakeFiles/pb_remote_server_nrf52832_xxAA_s132_6.0.0.dir/__/__/__/models/health/src/health_server.c.obj
 .bss           0x0000000000000000        0x0 CMakeFiles/pb_remote_server_nrf52832_xxAA_s132_6.0.0.dir/__/__/__/models/health/src/health_server.c.obj
 .text.health_server_fault_register
                0x0000000000000000      0x23c CMakeFiles/pb_remote_server_nrf52832_xxAA_s132_6.0.0.dir/__/__/__/models/health/src/health_server.c.obj
 .text.health_server_fault_clear
                0x0000000000000000      0x2d8 CMakeFiles/pb_remote_server_nrf52832_xxAA_s132_6.0.0.dir/__/__/__/models/health/src/health_server.c.obj
 .text.health_server_fault_is_set
                0x0000000000000000       0x1c CMakeFiles/pb_remote_server_nrf52832_xxAA_s132_6.0.0.dir/__/__/__/models/health/src/health_server.c.obj
 .text.health_server_fault_count_get
                0x0000000000000000      0x14c CMakeFiles/pb_remote_server_nrf52832_xxAA_s132_6.0.0.dir/__/__/__/models/health/src/health_server.c.obj
 .text.health_server_attention_get
                0x0000000000000000        0x8 CMakeFiles/pb_remote_server_nrf52832_xxAA_s132_6.0.0.dir/__/__/__/models/health/src/health_server.c.obj
 .text.health_server_attention_set
                0x0000000000000000       0x90 CMakeFiles/pb_remote_server_nrf52832_xxAA_s132_6.0.0.dir/__/__/__/models/health/src/health_server.c.obj
 .text          0x0000000000000000        0x0 CMakeFiles/pb_remote_server_nrf52832_xxAA_s132_6.0.0.dir/home/mazzer/work/nordic/sdk/nRF5_SDK_15.0.0/modules/nrfx/mdk/system_nrf52.c.obj
 .data          0x0000000000000000        0x0 CMakeFiles/pb_remote_server_nrf52832_xxAA_s132_6.0.0.dir/home/mazzer/work/nordic/sdk/nRF5_SDK_15.0.0/modules/nrfx/mdk/system_nrf52.c.obj
 .bss           0x0000000000000000        0x0 CMakeFiles/pb_remote_server_nrf52832_xxAA_s132_6.0.0.dir/home/mazzer/work/nordic/sdk/nRF5_SDK_15.0.0/modules/nrfx/mdk/system_nrf52.c.obj
 .text.SystemCoreClockUpdate
                0x0000000000000000       0x10 CMakeFiles/pb_remote_server_nrf52832_xxAA_s132_6.0.0.dir/home/mazzer/work/nordic/sdk/nRF5_SDK_15.0.0/modules/nrfx/mdk/system_nrf52.c.obj
 .data          0x0000000000000000        0x0 CMakeFiles/pb_remote_server_nrf52832_xxAA_s132_6.0.0.dir/home/mazzer/work/nordic/sdk/nRF5_SDK_15.0.0/modules/nrfx/mdk/gcc_startup_nrf52.S.obj
 .bss           0x0000000000000000        0x0 CMakeFiles/pb_remote_server_nrf52832_xxAA_s132_6.0.0.dir/home/mazzer/work/nordic/sdk/nRF5_SDK_15.0.0/modules/nrfx/mdk/gcc_startup_nrf52.S.obj
 .text          0x0000000000000000        0x0 CMakeFiles/pb_remote_server_nrf52832_xxAA_s132_6.0.0.dir/home/mazzer/work/nordic/sdk/nRF5_SDK_15.0.0/components/libraries/util/app_error.c.obj
 .data          0x0000000000000000        0x0 CMakeFiles/pb_remote_server_nrf52832_xxAA_s132_6.0.0.dir/home/mazzer/work/nordic/sdk/nRF5_SDK_15.0.0/components/libraries/util/app_error.c.obj
 .bss           0x0000000000000000        0x0 CMakeFiles/pb_remote_server_nrf52832_xxAA_s132_6.0.0.dir/home/mazzer/work/nordic/sdk/nRF5_SDK_15.0.0/components/libraries/util/app_error.c.obj
 .text.app_error_save_and_stop
                0x0000000000000000       0x64 CMakeFiles/pb_remote_server_nrf52832_xxAA_s132_6.0.0.dir/home/mazzer/work/nordic/sdk/nRF5_SDK_15.0.0/components/libraries/util/app_error.c.obj
 .bss.m_error_data.8037
                0x0000000000000000       0x20 CMakeFiles/pb_remote_server_nrf52832_xxAA_s132_6.0.0.dir/home/mazzer/work/nordic/sdk/nRF5_SDK_15.0.0/components/libraries/util/app_error.c.obj
 .text          0x0000000000000000        0x0 CMakeFiles/pb_remote_server_nrf52832_xxAA_s132_6.0.0.dir/home/mazzer/work/nordic/sdk/nRF5_SDK_15.0.0/components/libraries/util/app_error_handler_gcc.c.obj
 .data          0x0000000000000000        0x0 CMakeFiles/pb_remote_server_nrf52832_xxAA_s132_6.0.0.dir/home/mazzer/work/nordic/sdk/nRF5_SDK_15.0.0/components/libraries/util/app_error_handler_gcc.c.obj
 .bss           0x0000000000000000        0x0 CMakeFiles/pb_remote_server_nrf52832_xxAA_s132_6.0.0.dir/home/mazzer/work/nordic/sdk/nRF5_SDK_15.0.0/components/libraries/util/app_error_handler_gcc.c.obj
 .text          0x0000000000000000        0x0 ../../../external/rtt/librtt_nrf52832_xxAA.a(SEGGER_RTT.c.obj)
 .data          0x0000000000000000        0x0 ../../../external/rtt/librtt_nrf52832_xxAA.a(SEGGER_RTT.c.obj)
 .bss           0x0000000000000000        0x0 ../../../external/rtt/librtt_nrf52832_xxAA.a(SEGGER_RTT.c.obj)
 .text.SEGGER_RTT_ReadNoLock
                0x0000000000000000       0xfc ../../../external/rtt/librtt_nrf52832_xxAA.a(SEGGER_RTT.c.obj)
 .text.SEGGER_RTT_Read
                0x0000000000000000      0x118 ../../../external/rtt/librtt_nrf52832_xxAA.a(SEGGER_RTT.c.obj)
 .text.SEGGER_RTT_WriteSkipNoLock
                0x0000000000000000      0x1a8 ../../../external/rtt/librtt_nrf52832_xxAA.a(SEGGER_RTT.c.obj)
 .text.SEGGER_RTT_WriteNoLock
                0x0000000000000000      0x168 ../../../external/rtt/librtt_nrf52832_xxAA.a(SEGGER_RTT.c.obj)
 .text.SEGGER_RTT_WriteString
                0x0000000000000000      0x1f8 ../../../external/rtt/librtt_nrf52832_xxAA.a(SEGGER_RTT.c.obj)
 .text.SEGGER_RTT_GetKey
                0x0000000000000000       0xf8 ../../../external/rtt/librtt_nrf52832_xxAA.a(SEGGER_RTT.c.obj)
 .text.SEGGER_RTT_WaitKey
                0x0000000000000000       0xfc ../../../external/rtt/librtt_nrf52832_xxAA.a(SEGGER_RTT.c.obj)
 .text.SEGGER_RTT_HasKey
                0x0000000000000000       0x6c ../../../external/rtt/librtt_nrf52832_xxAA.a(SEGGER_RTT.c.obj)
 .text.SEGGER_RTT_HasData
                0x0000000000000000       0x18 ../../../external/rtt/librtt_nrf52832_xxAA.a(SEGGER_RTT.c.obj)
 .text.SEGGER_RTT_AllocDownBuffer
                0x0000000000000000       0xb8 ../../../external/rtt/librtt_nrf52832_xxAA.a(SEGGER_RTT.c.obj)
 .text.SEGGER_RTT_AllocUpBuffer
                0x0000000000000000       0xd4 ../../../external/rtt/librtt_nrf52832_xxAA.a(SEGGER_RTT.c.obj)
 .text.SEGGER_RTT_ConfigUpBuffer
                0x0000000000000000       0xd0 ../../../external/rtt/librtt_nrf52832_xxAA.a(SEGGER_RTT.c.obj)
 .text.SEGGER_RTT_ConfigDownBuffer
                0x0000000000000000       0xb4 ../../../external/rtt/librtt_nrf52832_xxAA.a(SEGGER_RTT.c.obj)
 .text.SEGGER_RTT_SetNameUpBuffer
                0x0000000000000000       0x90 ../../../external/rtt/librtt_nrf52832_xxAA.a(SEGGER_RTT.c.obj)
 .text.SEGGER_RTT_SetNameDownBuffer
                0x0000000000000000       0x90 ../../../external/rtt/librtt_nrf52832_xxAA.a(SEGGER_RTT.c.obj)
 .text.SEGGER_RTT_Init
                0x0000000000000000       0x64 ../../../external/rtt/librtt_nrf52832_xxAA.a(SEGGER_RTT.c.obj)
 .text.SEGGER_RTT_SetTerminal
                0x0000000000000000      0x16c ../../../external/rtt/librtt_nrf52832_xxAA.a(SEGGER_RTT.c.obj)
 .text.SEGGER_RTT_TerminalOut
                0x0000000000000000      0x4d8 ../../../external/rtt/librtt_nrf52832_xxAA.a(SEGGER_RTT.c.obj)
 .bss._ActiveTerminal
                0x0000000000000000        0x1 ../../../external/rtt/librtt_nrf52832_xxAA.a(SEGGER_RTT.c.obj)
 .rodata._aTerminalId
                0x0000000000000000       0x10 ../../../external/rtt/librtt_nrf52832_xxAA.a(SEGGER_RTT.c.obj)
 .text          0x0000000000000000        0x0 ../../../external/rtt/librtt_nrf52832_xxAA.a(SEGGER_RTT_printf.c.obj)
 .data          0x0000000000000000        0x0 ../../../external/rtt/librtt_nrf52832_xxAA.a(SEGGER_RTT_printf.c.obj)
 .bss           0x0000000000000000        0x0 ../../../external/rtt/librtt_nrf52832_xxAA.a(SEGGER_RTT_printf.c.obj)
 .text          0x0000000000000000        0x0 ../../../external/micro-ecc/libuECC_nrf52832_xxAA.a(uECC.c.obj)
 .data          0x0000000000000000        0x0 ../../../external/micro-ecc/libuECC_nrf52832_xxAA.a(uECC.c.obj)
 .bss           0x0000000000000000        0x0 ../../../external/micro-ecc/libuECC_nrf52832_xxAA.a(uECC.c.obj)
 .text.HMAC_finish
                0x0000000000000000       0x70 ../../../external/micro-ecc/libuECC_nrf52832_xxAA.a(uECC.c.obj)
 .text.uECC_vli_mmod
                0x0000000000000000      0x418 ../../../external/micro-ecc/libuECC_nrf52832_xxAA.a(uECC.c.obj)
 .text.uECC_vli_modSub.isra.2
                0x0000000000000000       0x98 ../../../external/micro-ecc/libuECC_nrf52832_xxAA.a(uECC.c.obj)
 .text.bits2int
                0x0000000000000000      0x160 ../../../external/micro-ecc/libuECC_nrf52832_xxAA.a(uECC.c.obj)
 .text.uECC_sign_with_k
                0x0000000000000000      0x630 ../../../external/micro-ecc/libuECC_nrf52832_xxAA.a(uECC.c.obj)
 .text.uECC_set_rng
                0x0000000000000000        0xc ../../../external/micro-ecc/libuECC_nrf52832_xxAA.a(uECC.c.obj)
 .text.uECC_get_rng
                0x0000000000000000        0xc ../../../external/micro-ecc/libuECC_nrf52832_xxAA.a(uECC.c.obj)
 .text.uECC_curve_private_key_size
                0x0000000000000000       0x10 ../../../external/micro-ecc/libuECC_nrf52832_xxAA.a(uECC.c.obj)
 .text.uECC_curve_public_key_size
                0x0000000000000000        0x8 ../../../external/micro-ecc/libuECC_nrf52832_xxAA.a(uECC.c.obj)
 .text.uECC_valid_point
                0x0000000000000000      0x154 ../../../external/micro-ecc/libuECC_nrf52832_xxAA.a(uECC.c.obj)
 .text.uECC_compute_public_key
                0x0000000000000000      0x2e8 ../../../external/micro-ecc/libuECC_nrf52832_xxAA.a(uECC.c.obj)
 .text.uECC_sign
                0x0000000000000000       0x5c ../../../external/micro-ecc/libuECC_nrf52832_xxAA.a(uECC.c.obj)
 .text.uECC_sign_deterministic
                0x0000000000000000      0x414 ../../../external/micro-ecc/libuECC_nrf52832_xxAA.a(uECC.c.obj)
 .text.uECC_verify
                0x0000000000000000      0x960 ../../../external/micro-ecc/libuECC_nrf52832_xxAA.a(uECC.c.obj)
 .text          0x0000000000000000        0x0 /usr/bin/../lib/gcc/arm-none-eabi/7.2.1/../../../../arm-none-eabi/lib/thumb/v7e-m/fpv4-sp/hard/libg_nano.a(lib_a-exit.o)
 .data          0x0000000000000000        0x0 /usr/bin/../lib/gcc/arm-none-eabi/7.2.1/../../../../arm-none-eabi/lib/thumb/v7e-m/fpv4-sp/hard/libg_nano.a(lib_a-exit.o)
 .bss           0x0000000000000000        0x0 /usr/bin/../lib/gcc/arm-none-eabi/7.2.1/../../../../arm-none-eabi/lib/thumb/v7e-m/fpv4-sp/hard/libg_nano.a(lib_a-exit.o)
 .text          0x0000000000000000        0x0 /usr/bin/../lib/gcc/arm-none-eabi/7.2.1/../../../../arm-none-eabi/lib/thumb/v7e-m/fpv4-sp/hard/libg_nano.a(lib_a-impure.o)
 .data          0x0000000000000000        0x0 /usr/bin/../lib/gcc/arm-none-eabi/7.2.1/../../../../arm-none-eabi/lib/thumb/v7e-m/fpv4-sp/hard/libg_nano.a(lib_a-impure.o)
 .bss           0x0000000000000000        0x0 /usr/bin/../lib/gcc/arm-none-eabi/7.2.1/../../../../arm-none-eabi/lib/thumb/v7e-m/fpv4-sp/hard/libg_nano.a(lib_a-impure.o)
 .text          0x0000000000000000        0x0 /usr/bin/../lib/gcc/arm-none-eabi/7.2.1/../../../../arm-none-eabi/lib/thumb/v7e-m/fpv4-sp/hard/libg_nano.a(lib_a-init.o)
 .data          0x0000000000000000        0x0 /usr/bin/../lib/gcc/arm-none-eabi/7.2.1/../../../../arm-none-eabi/lib/thumb/v7e-m/fpv4-sp/hard/libg_nano.a(lib_a-init.o)
 .bss           0x0000000000000000        0x0 /usr/bin/../lib/gcc/arm-none-eabi/7.2.1/../../../../arm-none-eabi/lib/thumb/v7e-m/fpv4-sp/hard/libg_nano.a(lib_a-init.o)
 .text          0x0000000000000000        0x0 /usr/bin/../lib/gcc/arm-none-eabi/7.2.1/../../../../arm-none-eabi/lib/thumb/v7e-m/fpv4-sp/hard/libg_nano.a(lib_a-malloc.o)
 .data          0x0000000000000000        0x0 /usr/bin/../lib/gcc/arm-none-eabi/7.2.1/../../../../arm-none-eabi/lib/thumb/v7e-m/fpv4-sp/hard/libg_nano.a(lib_a-malloc.o)
 .bss           0x0000000000000000        0x0 /usr/bin/../lib/gcc/arm-none-eabi/7.2.1/../../../../arm-none-eabi/lib/thumb/v7e-m/fpv4-sp/hard/libg_nano.a(lib_a-malloc.o)
 .text          0x0000000000000000        0x0 /usr/bin/../lib/gcc/arm-none-eabi/7.2.1/../../../../arm-none-eabi/lib/thumb/v7e-m/fpv4-sp/hard/libg_nano.a(lib_a-memcmp.o)
 .data          0x0000000000000000        0x0 /usr/bin/../lib/gcc/arm-none-eabi/7.2.1/../../../../arm-none-eabi/lib/thumb/v7e-m/fpv4-sp/hard/libg_nano.a(lib_a-memcmp.o)
 .bss           0x0000000000000000        0x0 /usr/bin/../lib/gcc/arm-none-eabi/7.2.1/../../../../arm-none-eabi/lib/thumb/v7e-m/fpv4-sp/hard/libg_nano.a(lib_a-memcmp.o)
 .text          0x0000000000000000        0x0 /usr/bin/../lib/gcc/arm-none-eabi/7.2.1/../../../../arm-none-eabi/lib/thumb/v7e-m/fpv4-sp/hard/libg_nano.a(lib_a-memcpy-stub.o)
 .data          0x0000000000000000        0x0 /usr/bin/../lib/gcc/arm-none-eabi/7.2.1/../../../../arm-none-eabi/lib/thumb/v7e-m/fpv4-sp/hard/libg_nano.a(lib_a-memcpy-stub.o)
 .bss           0x0000000000000000        0x0 /usr/bin/../lib/gcc/arm-none-eabi/7.2.1/../../../../arm-none-eabi/lib/thumb/v7e-m/fpv4-sp/hard/libg_nano.a(lib_a-memcpy-stub.o)
 .text          0x0000000000000000        0x0 /usr/bin/../lib/gcc/arm-none-eabi/7.2.1/../../../../arm-none-eabi/lib/thumb/v7e-m/fpv4-sp/hard/libg_nano.a(lib_a-memset.o)
 .data          0x0000000000000000        0x0 /usr/bin/../lib/gcc/arm-none-eabi/7.2.1/../../../../arm-none-eabi/lib/thumb/v7e-m/fpv4-sp/hard/libg_nano.a(lib_a-memset.o)
 .bss           0x0000000000000000        0x0 /usr/bin/../lib/gcc/arm-none-eabi/7.2.1/../../../../arm-none-eabi/lib/thumb/v7e-m/fpv4-sp/hard/libg_nano.a(lib_a-memset.o)
 .text          0x0000000000000000        0x0 /usr/bin/../lib/gcc/arm-none-eabi/7.2.1/../../../../arm-none-eabi/lib/thumb/v7e-m/fpv4-sp/hard/libg_nano.a(lib_a-nano-freer.o)
 .data          0x0000000000000000        0x0 /usr/bin/../lib/gcc/arm-none-eabi/7.2.1/../../../../arm-none-eabi/lib/thumb/v7e-m/fpv4-sp/hard/libg_nano.a(lib_a-nano-freer.o)
 .bss           0x0000000000000000        0x0 /usr/bin/../lib/gcc/arm-none-eabi/7.2.1/../../../../arm-none-eabi/lib/thumb/v7e-m/fpv4-sp/hard/libg_nano.a(lib_a-nano-freer.o)
 .text          0x0000000000000000        0x0 /usr/bin/../lib/gcc/arm-none-eabi/7.2.1/../../../../arm-none-eabi/lib/thumb/v7e-m/fpv4-sp/hard/libg_nano.a(lib_a-nano-mallocr.o)
 .data          0x0000000000000000        0x0 /usr/bin/../lib/gcc/arm-none-eabi/7.2.1/../../../../arm-none-eabi/lib/thumb/v7e-m/fpv4-sp/hard/libg_nano.a(lib_a-nano-mallocr.o)
 .bss           0x0000000000000000        0x0 /usr/bin/../lib/gcc/arm-none-eabi/7.2.1/../../../../arm-none-eabi/lib/thumb/v7e-m/fpv4-sp/hard/libg_nano.a(lib_a-nano-mallocr.o)
 .text          0x0000000000000000        0x0 /usr/bin/../lib/gcc/arm-none-eabi/7.2.1/../../../../arm-none-eabi/lib/thumb/v7e-m/fpv4-sp/hard/libg_nano.a(lib_a-sbrkr.o)
 .data          0x0000000000000000        0x0 /usr/bin/../lib/gcc/arm-none-eabi/7.2.1/../../../../arm-none-eabi/lib/thumb/v7e-m/fpv4-sp/hard/libg_nano.a(lib_a-sbrkr.o)
 .bss           0x0000000000000000        0x0 /usr/bin/../lib/gcc/arm-none-eabi/7.2.1/../../../../arm-none-eabi/lib/thumb/v7e-m/fpv4-sp/hard/libg_nano.a(lib_a-sbrkr.o)
 .text          0x0000000000000000        0x0 /usr/bin/../lib/gcc/arm-none-eabi/7.2.1/../../../../arm-none-eabi/lib/thumb/v7e-m/fpv4-sp/hard/libg_nano.a(lib_a-strcpy.o)
 .data          0x0000000000000000        0x0 /usr/bin/../lib/gcc/arm-none-eabi/7.2.1/../../../../arm-none-eabi/lib/thumb/v7e-m/fpv4-sp/hard/libg_nano.a(lib_a-strcpy.o)
 .bss           0x0000000000000000        0x0 /usr/bin/../lib/gcc/arm-none-eabi/7.2.1/../../../../arm-none-eabi/lib/thumb/v7e-m/fpv4-sp/hard/libg_nano.a(lib_a-strcpy.o)
 .data          0x0000000000000000        0x0 /usr/bin/../lib/gcc/arm-none-eabi/7.2.1/../../../../arm-none-eabi/lib/thumb/v7e-m/fpv4-sp/hard/libg_nano.a(lib_a-strlen.o)
 .bss           0x0000000000000000        0x0 /usr/bin/../lib/gcc/arm-none-eabi/7.2.1/../../../../arm-none-eabi/lib/thumb/v7e-m/fpv4-sp/hard/libg_nano.a(lib_a-strlen.o)
 .text          0x0000000000000000        0x0 /usr/bin/../lib/gcc/arm-none-eabi/7.2.1/../../../../arm-none-eabi/lib/thumb/v7e-m/fpv4-sp/hard/libg_nano.a(lib_a-strrchr.o)
 .data          0x0000000000000000        0x0 /usr/bin/../lib/gcc/arm-none-eabi/7.2.1/../../../../arm-none-eabi/lib/thumb/v7e-m/fpv4-sp/hard/libg_nano.a(lib_a-strrchr.o)
 .bss           0x0000000000000000        0x0 /usr/bin/../lib/gcc/arm-none-eabi/7.2.1/../../../../arm-none-eabi/lib/thumb/v7e-m/fpv4-sp/hard/libg_nano.a(lib_a-strrchr.o)
 .text          0x0000000000000000        0x0 /usr/bin/../lib/gcc/arm-none-eabi/7.2.1/../../../../arm-none-eabi/lib/thumb/v7e-m/fpv4-sp/hard/libg_nano.a(lib_a-mlock.o)
 .data          0x0000000000000000        0x0 /usr/bin/../lib/gcc/arm-none-eabi/7.2.1/../../../../arm-none-eabi/lib/thumb/v7e-m/fpv4-sp/hard/libg_nano.a(lib_a-mlock.o)
 .bss           0x0000000000000000        0x0 /usr/bin/../lib/gcc/arm-none-eabi/7.2.1/../../../../arm-none-eabi/lib/thumb/v7e-m/fpv4-sp/hard/libg_nano.a(lib_a-mlock.o)
 .text          0x0000000000000000        0x0 /usr/bin/../lib/gcc/arm-none-eabi/7.2.1/../../../../arm-none-eabi/lib/thumb/v7e-m/fpv4-sp/hard/libg_nano.a(lib_a-reent.o)
 .data          0x0000000000000000        0x0 /usr/bin/../lib/gcc/arm-none-eabi/7.2.1/../../../../arm-none-eabi/lib/thumb/v7e-m/fpv4-sp/hard/libg_nano.a(lib_a-reent.o)
 .bss           0x0000000000000000        0x0 /usr/bin/../lib/gcc/arm-none-eabi/7.2.1/../../../../arm-none-eabi/lib/thumb/v7e-m/fpv4-sp/hard/libg_nano.a(lib_a-reent.o)
 .text.cleanup_glue
                0x0000000000000000       0x1a /usr/bin/../lib/gcc/arm-none-eabi/7.2.1/../../../../arm-none-eabi/lib/thumb/v7e-m/fpv4-sp/hard/libg_nano.a(lib_a-reent.o)
 .text._reclaim_reent
                0x0000000000000000       0xb8 /usr/bin/../lib/gcc/arm-none-eabi/7.2.1/../../../../arm-none-eabi/lib/thumb/v7e-m/fpv4-sp/hard/libg_nano.a(lib_a-reent.o)
 .text          0x0000000000000000        0x0 /usr/bin/../lib/gcc/arm-none-eabi/7.2.1/../../../../arm-none-eabi/lib/thumb/v7e-m/fpv4-sp/hard/libg_nano.a(lib_a-strchr.o)
 .data          0x0000000000000000        0x0 /usr/bin/../lib/gcc/arm-none-eabi/7.2.1/../../../../arm-none-eabi/lib/thumb/v7e-m/fpv4-sp/hard/libg_nano.a(lib_a-strchr.o)
 .bss           0x0000000000000000        0x0 /usr/bin/../lib/gcc/arm-none-eabi/7.2.1/../../../../arm-none-eabi/lib/thumb/v7e-m/fpv4-sp/hard/libg_nano.a(lib_a-strchr.o)
 .text          0x0000000000000000        0x0 /usr/bin/../lib/gcc/arm-none-eabi/7.2.1/thumb/v7e-m/fpv4-sp/hard/crtend.o
 .data          0x0000000000000000        0x0 /usr/bin/../lib/gcc/arm-none-eabi/7.2.1/thumb/v7e-m/fpv4-sp/hard/crtend.o
 .bss           0x0000000000000000        0x0 /usr/bin/../lib/gcc/arm-none-eabi/7.2.1/thumb/v7e-m/fpv4-sp/hard/crtend.o
 .text          0x0000000000000000        0x0 /usr/bin/../lib/gcc/arm-none-eabi/7.2.1/thumb/v7e-m/fpv4-sp/hard/crtn.o
 .data          0x0000000000000000        0x0 /usr/bin/../lib/gcc/arm-none-eabi/7.2.1/thumb/v7e-m/fpv4-sp/hard/crtn.o
 .bss           0x0000000000000000        0x0 /usr/bin/../lib/gcc/arm-none-eabi/7.2.1/thumb/v7e-m/fpv4-sp/hard/crtn.o
 .text          0x0000000000000000        0x0 /usr/bin/../lib/gcc/arm-none-eabi/7.2.1/../../../../arm-none-eabi/lib/thumb/v7e-m/fpv4-sp/hard/libnosys.a(sbrk.o)
 .data          0x0000000000000000        0x0 /usr/bin/../lib/gcc/arm-none-eabi/7.2.1/../../../../arm-none-eabi/lib/thumb/v7e-m/fpv4-sp/hard/libnosys.a(sbrk.o)
 .bss           0x0000000000000000        0x0 /usr/bin/../lib/gcc/arm-none-eabi/7.2.1/../../../../arm-none-eabi/lib/thumb/v7e-m/fpv4-sp/hard/libnosys.a(sbrk.o)
 .text          0x0000000000000000        0x0 /usr/bin/../lib/gcc/arm-none-eabi/7.2.1/../../../../arm-none-eabi/lib/thumb/v7e-m/fpv4-sp/hard/libnosys.a(_exit.o)
 .data          0x0000000000000000        0x0 /usr/bin/../lib/gcc/arm-none-eabi/7.2.1/../../../../arm-none-eabi/lib/thumb/v7e-m/fpv4-sp/hard/libnosys.a(_exit.o)
 .bss           0x0000000000000000        0x0 /usr/bin/../lib/gcc/arm-none-eabi/7.2.1/../../../../arm-none-eabi/lib/thumb/v7e-m/fpv4-sp/hard/libnosys.a(_exit.o)

Memory Configuration

Name             Origin             Length             Attributes
FLASH            0x0000000000026000 0x0000000000051000 xr
RAM              0x00000000200032c8 0x000000000000ca38 xrw
*default*        0x0000000000000000 0xffffffffffffffff

Linker script and memory map


.text           0x0000000000026000    0x1e3ac
 *(.isr_vector)
 .isr_vector    0x0000000000026000      0x200 CMakeFiles/pb_remote_server_nrf52832_xxAA_s132_6.0.0.dir/home/mazzer/work/nordic/sdk/nRF5_SDK_15.0.0/modules/nrfx/mdk/gcc_startup_nrf52.S.obj
                0x0000000000026000                __isr_vector
 *(.text*)
 .text          0x0000000000026200       0x40 /usr/bin/../lib/gcc/arm-none-eabi/7.2.1/thumb/v7e-m/fpv4-sp/hard/crtbegin.o
 .text          0x0000000000026240       0x74 /usr/bin/../lib/gcc/arm-none-eabi/7.2.1/../../../../arm-none-eabi/lib/thumb/v7e-m/fpv4-sp/hard/crt0.o
                0x0000000000026240                _mainCRTStartup
                0x0000000000026240                _start
 .text.sd_app_evt_wait
                0x00000000000262b4        0x4 CMakeFiles/pb_remote_server_nrf52832_xxAA_s132_6.0.0.dir/src/main.c.obj
 .text.provisioning_complete_cb
                0x00000000000262b8      0x178 CMakeFiles/pb_remote_server_nrf52832_xxAA_s132_6.0.0.dir/src/main.c.obj
 .text.models_init_cb
                0x0000000000026430       0x8c CMakeFiles/pb_remote_server_nrf52832_xxAA_s132_6.0.0.dir/src/main.c.obj
 .text.startup.main
                0x00000000000264bc      0x190 CMakeFiles/pb_remote_server_nrf52832_xxAA_s132_6.0.0.dir/src/main.c.obj
                0x00000000000264bc                main
 .text.mesh_stack_init
                0x000000000002664c       0x94 CMakeFiles/pb_remote_server_nrf52832_xxAA_s132_6.0.0.dir/__/__/__/mesh/stack/src/mesh_stack.c.obj
                0x000000000002664c                mesh_stack_init
 .text.mesh_stack_start
                0x00000000000266e0        0x4 CMakeFiles/pb_remote_server_nrf52832_xxAA_s132_6.0.0.dir/__/__/__/mesh/stack/src/mesh_stack.c.obj
                0x00000000000266e0                mesh_stack_start
 .text.mesh_stack_provisioning_data_store
                0x00000000000266e4       0x78 CMakeFiles/pb_remote_server_nrf52832_xxAA_s132_6.0.0.dir/__/__/__/mesh/stack/src/mesh_stack.c.obj
                0x00000000000266e4                mesh_stack_provisioning_data_store
 .text.mesh_stack_config_clear
                0x000000000002675c       0x14 CMakeFiles/pb_remote_server_nrf52832_xxAA_s132_6.0.0.dir/__/__/__/mesh/stack/src/mesh_stack.c.obj
                0x000000000002675c                mesh_stack_config_clear
 .text.sd_evt_get
                0x0000000000026770        0x4 CMakeFiles/pb_remote_server_nrf52832_xxAA_s132_6.0.0.dir/__/__/common/src/mesh_softdevice_init.c.obj
 .text.sd_softdevice_enable
                0x0000000000026774        0x4 CMakeFiles/pb_remote_server_nrf52832_xxAA_s132_6.0.0.dir/__/__/common/src/mesh_softdevice_init.c.obj
 .text.sd_ble_enable
                0x0000000000026778        0x4 CMakeFiles/pb_remote_server_nrf52832_xxAA_s132_6.0.0.dir/__/__/common/src/mesh_softdevice_init.c.obj
 .text.SWI2_EGU2_IRQHandler
                0x000000000002677c       0x1c CMakeFiles/pb_remote_server_nrf52832_xxAA_s132_6.0.0.dir/__/__/common/src/mesh_softdevice_init.c.obj
                0x000000000002677c                SWI2_EGU2_IRQHandler
 .text.mesh_softdevice_init
                0x0000000000026798      0x1f8 CMakeFiles/pb_remote_server_nrf52832_xxAA_s132_6.0.0.dir/__/__/common/src/mesh_softdevice_init.c.obj
                0x0000000000026798                mesh_softdevice_init
 .text.prov_evt_handler
                0x0000000000026990       0x70 CMakeFiles/pb_remote_server_nrf52832_xxAA_s132_6.0.0.dir/__/__/common/src/mesh_provisionee.c.obj
 .text.mesh_provisionee_prov_start
                0x0000000000026a00       0x88 CMakeFiles/pb_remote_server_nrf52832_xxAA_s132_6.0.0.dir/__/__/common/src/mesh_provisionee.c.obj
                0x0000000000026a00                mesh_provisionee_prov_start
 .text.hal_led_mask_set
                0x0000000000026a88       0x14 CMakeFiles/pb_remote_server_nrf52832_xxAA_s132_6.0.0.dir/__/__/common/src/simple_hal.c.obj
                0x0000000000026a88                hal_led_mask_set
 .text.hal_led_blink_ms
                0x0000000000026a9c       0x50 CMakeFiles/pb_remote_server_nrf52832_xxAA_s132_6.0.0.dir/__/__/common/src/simple_hal.c.obj
                0x0000000000026a9c                hal_led_blink_ms
 .text.hal_leds_init
                0x0000000000026aec       0x3c CMakeFiles/pb_remote_server_nrf52832_xxAA_s132_6.0.0.dir/__/__/common/src/simple_hal.c.obj
                0x0000000000026aec                hal_leds_init
 .text.GPIOTE_IRQHandler
                0x0000000000026b28       0x70 CMakeFiles/pb_remote_server_nrf52832_xxAA_s132_6.0.0.dir/__/__/common/src/simple_hal.c.obj
                0x0000000000026b28                GPIOTE_IRQHandler
 .text._weak_handler
                0x0000000000026b98        0x4 CMakeFiles/pb_remote_server_nrf52832_xxAA_s132_6.0.0.dir/__/__/nrf_mesh_weak.c.obj
                0x0000000000026b98                nrf_mesh_dfu_init
                0x0000000000026b98                nrf_mesh_dfu_jump_to_bootloader
                0x0000000000026b98                nrf_mesh_dfu_rx
                0x0000000000026b98                prov_provisioner_provision
                0x0000000000026b98                nrf_mesh_dfu_bank_info_get
                0x0000000000026b98                prov_provisioner_oob_pubkey
                0x0000000000026b98                nrf_mesh_dfu_request
                0x0000000000026b98                nrf_mesh_dfu_bank_flash
                0x0000000000026b98                _weak_handler
                0x0000000000026b98                nrf_mesh_dfu_relay
                0x0000000000026b98                nrf_mesh_dfu_abort
                0x0000000000026b98                mesh_flash_op_execute
                0x0000000000026b98                prov_provisionee_init
                0x0000000000026b98                nrf_mesh_dfu_state_get
                0x0000000000026b98                prov_provisioner_shared_secret
                0x0000000000026b98                prov_provisioner_auth_data
                0x0000000000026b98                prov_provisioner_oob_use
 .text.app_error_fault_handler
                0x0000000000026b9c      0x238 CMakeFiles/pb_remote_server_nrf52832_xxAA_s132_6.0.0.dir/__/__/common/src/app_error_weak.c.obj
                0x0000000000026b9c                app_error_fault_handler
 .text.mesh_assertion_handler
                0x0000000000026dd4       0x24 CMakeFiles/pb_remote_server_nrf52832_xxAA_s132_6.0.0.dir/__/__/common/src/assertion_handler_weak.c.obj
                0x0000000000026dd4                mesh_assertion_handler
 .text.nrf_mesh_configure_device_uuid_set
                0x0000000000026df8       0x10 CMakeFiles/pb_remote_server_nrf52832_xxAA_s132_6.0.0.dir/__/__/__/mesh/core/src/nrf_mesh_configure.c.obj
                0x0000000000026df8                nrf_mesh_configure_device_uuid_set
 .text.nrf_mesh_configure_device_uuid_reset
                0x0000000000026e08       0x2c CMakeFiles/pb_remote_server_nrf52832_xxAA_s132_6.0.0.dir/__/__/__/mesh/core/src/nrf_mesh_configure.c.obj
                0x0000000000026e08                nrf_mesh_configure_device_uuid_reset
 .text.nrf_mesh_configure_device_uuid_get
                0x0000000000026e34        0x8 CMakeFiles/pb_remote_server_nrf52832_xxAA_s132_6.0.0.dir/__/__/__/mesh/core/src/nrf_mesh_configure.c.obj
                0x0000000000026e34                nrf_mesh_configure_device_uuid_get
 .text.sd_ecb_block_encrypt
                0x0000000000026e3c        0x4 CMakeFiles/pb_remote_server_nrf52832_xxAA_s132_6.0.0.dir/__/__/__/mesh/core/src/aes.c.obj
 .text.aes_encrypt
                0x0000000000026e40       0x34 CMakeFiles/pb_remote_server_nrf52832_xxAA_s132_6.0.0.dir/__/__/__/mesh/core/src/aes.c.obj
                0x0000000000026e40                aes_encrypt
 .text.msg_cache_init
                0x0000000000026e74       0x24 CMakeFiles/pb_remote_server_nrf52832_xxAA_s132_6.0.0.dir/__/__/__/mesh/core/src/msg_cache.c.obj
                0x0000000000026e74                msg_cache_init
 .text.msg_cache_entry_exists
                0x0000000000026e98       0x40 CMakeFiles/pb_remote_server_nrf52832_xxAA_s132_6.0.0.dir/__/__/__/mesh/core/src/msg_cache.c.obj
                0x0000000000026e98                msg_cache_entry_exists
 .text.msg_cache_entry_add
                0x0000000000026ed8       0x2c CMakeFiles/pb_remote_server_nrf52832_xxAA_s132_6.0.0.dir/__/__/__/mesh/core/src/msg_cache.c.obj
                0x0000000000026ed8                msg_cache_entry_add
 .text.tx_complete
                0x0000000000026f04       0x30 CMakeFiles/pb_remote_server_nrf52832_xxAA_s132_6.0.0.dir/__/__/__/mesh/core/src/transport.c.obj
 .text.upper_trs_packet_encrypt
                0x0000000000026f34       0xa8 CMakeFiles/pb_remote_server_nrf52832_xxAA_s132_6.0.0.dir/__/__/__/mesh/core/src/transport.c.obj
 .text.trs_sar_packet_out
                0x0000000000026fdc      0x19c CMakeFiles/pb_remote_server_nrf52832_xxAA_s132_6.0.0.dir/__/__/__/mesh/core/src/transport.c.obj
 .text.upper_transport_access_packet_in
                0x0000000000027178      0x33c CMakeFiles/pb_remote_server_nrf52832_xxAA_s132_6.0.0.dir/__/__/__/mesh/core/src/transport.c.obj
 .text.sar_ctx_cancel
                0x00000000000274b4      0x148 CMakeFiles/pb_remote_server_nrf52832_xxAA_s132_6.0.0.dir/__/__/__/mesh/core/src/transport.c.obj
 .text.retry_timeout
                0x00000000000275fc       0x98 CMakeFiles/pb_remote_server_nrf52832_xxAA_s132_6.0.0.dir/__/__/__/mesh/core/src/transport.c.obj
 .text.upper_transport_packet_in
                0x0000000000027694      0x2a4 CMakeFiles/pb_remote_server_nrf52832_xxAA_s132_6.0.0.dir/__/__/__/mesh/core/src/transport.c.obj
 .text.upper_transport_tx.part.27
                0x0000000000027938      0x370 CMakeFiles/pb_remote_server_nrf52832_xxAA_s132_6.0.0.dir/__/__/__/mesh/core/src/transport.c.obj
 .text.sar_ack_send.part.31
                0x0000000000027ca8       0xd4 CMakeFiles/pb_remote_server_nrf52832_xxAA_s132_6.0.0.dir/__/__/__/mesh/core/src/transport.c.obj
 .text.transport_sar_process
                0x0000000000027d7c      0x274 CMakeFiles/pb_remote_server_nrf52832_xxAA_s132_6.0.0.dir/__/__/__/mesh/core/src/transport.c.obj
 .text.abort_timeout
                0x0000000000027ff0      0x138 CMakeFiles/pb_remote_server_nrf52832_xxAA_s132_6.0.0.dir/__/__/__/mesh/core/src/transport.c.obj
 .text.ack_timeout
                0x0000000000028128       0xf8 CMakeFiles/pb_remote_server_nrf52832_xxAA_s132_6.0.0.dir/__/__/__/mesh/core/src/transport.c.obj
 .text.transport_init
                0x0000000000028220       0xac CMakeFiles/pb_remote_server_nrf52832_xxAA_s132_6.0.0.dir/__/__/__/mesh/core/src/transport.c.obj
                0x0000000000028220                transport_init
 .text.transport_packet_in
                0x00000000000282cc      0x778 CMakeFiles/pb_remote_server_nrf52832_xxAA_s132_6.0.0.dir/__/__/__/mesh/core/src/transport.c.obj
                0x00000000000282cc                transport_packet_in
 .text.transport_tx
                0x0000000000028a44       0xec CMakeFiles/pb_remote_server_nrf52832_xxAA_s132_6.0.0.dir/__/__/__/mesh/core/src/transport.c.obj
                0x0000000000028a44                transport_tx
 .text.transport_control_tx
                0x0000000000028b30       0xc4 CMakeFiles/pb_remote_server_nrf52832_xxAA_s132_6.0.0.dir/__/__/__/mesh/core/src/transport.c.obj
                0x0000000000028b30                transport_control_tx
 .text.transport_opt_set
                0x0000000000028bf4       0xdc CMakeFiles/pb_remote_server_nrf52832_xxAA_s132_6.0.0.dir/__/__/__/mesh/core/src/transport.c.obj
                0x0000000000028bf4                transport_opt_set
 .text.transport_opt_get
                0x0000000000028cd0       0x84 CMakeFiles/pb_remote_server_nrf52832_xxAA_s132_6.0.0.dir/__/__/__/mesh/core/src/transport.c.obj
                0x0000000000028cd0                transport_opt_get
 .text.transport_control_packet_consumer_add
                0x0000000000028d54       0x68 CMakeFiles/pb_remote_server_nrf52832_xxAA_s132_6.0.0.dir/__/__/__/mesh/core/src/transport.c.obj
                0x0000000000028d54                transport_control_packet_consumer_add
 .text.event_handle
                0x0000000000028dbc       0x28 CMakeFiles/pb_remote_server_nrf52832_xxAA_s132_6.0.0.dir/__/__/__/mesh/core/src/event.c.obj
                0x0000000000028dbc                event_handle
 .text.event_handler_add
                0x0000000000028de4       0x28 CMakeFiles/pb_remote_server_nrf52832_xxAA_s132_6.0.0.dir/__/__/__/mesh/core/src/event.c.obj
                0x0000000000028de4                event_handler_add
 .text.event_handler_remove
                0x0000000000028e0c       0x28 CMakeFiles/pb_remote_server_nrf52832_xxAA_s132_6.0.0.dir/__/__/__/mesh/core/src/event.c.obj
                0x0000000000028e0c                event_handler_remove
 .text.packet_buffer_init
                0x0000000000028e34       0xb4 CMakeFiles/pb_remote_server_nrf52832_xxAA_s132_6.0.0.dir/__/__/__/mesh/core/src/packet_buffer.c.obj
                0x0000000000028e34                packet_buffer_init
 .text.packet_buffer_flush
                0x0000000000028ee8       0x6c CMakeFiles/pb_remote_server_nrf52832_xxAA_s132_6.0.0.dir/__/__/__/mesh/core/src/packet_buffer.c.obj
                0x0000000000028ee8                packet_buffer_flush
 .text.packet_buffer_reserve
                0x0000000000028f54       0xa4 CMakeFiles/pb_remote_server_nrf52832_xxAA_s132_6.0.0.dir/__/__/__/mesh/core/src/packet_buffer.c.obj
                0x0000000000028f54                packet_buffer_reserve
 .text.packet_buffer_commit
                0x0000000000028ff8       0x7c CMakeFiles/pb_remote_server_nrf52832_xxAA_s132_6.0.0.dir/__/__/__/mesh/core/src/packet_buffer.c.obj
                0x0000000000028ff8                packet_buffer_commit
 .text.packet_buffer_pop
                0x0000000000029074       0x44 CMakeFiles/pb_remote_server_nrf52832_xxAA_s132_6.0.0.dir/__/__/__/mesh/core/src/packet_buffer.c.obj
                0x0000000000029074                packet_buffer_pop
 .text.packet_buffer_can_pop
                0x00000000000290b8       0x24 CMakeFiles/pb_remote_server_nrf52832_xxAA_s132_6.0.0.dir/__/__/__/mesh/core/src/packet_buffer.c.obj
                0x00000000000290b8                packet_buffer_can_pop
 .text.packet_buffer_packets_ready_to_pop
                0x00000000000290dc       0x5c CMakeFiles/pb_remote_server_nrf52832_xxAA_s132_6.0.0.dir/__/__/__/mesh/core/src/packet_buffer.c.obj
                0x00000000000290dc                packet_buffer_packets_ready_to_pop
 .text.packet_buffer_free
                0x0000000000029138       0x8c CMakeFiles/pb_remote_server_nrf52832_xxAA_s132_6.0.0.dir/__/__/__/mesh/core/src/packet_buffer.c.obj
                0x0000000000029138                packet_buffer_free
 .text.erase_source
                0x00000000000291c4       0x34 CMakeFiles/pb_remote_server_nrf52832_xxAA_s132_6.0.0.dir/__/__/__/mesh/core/src/flash_manager_defrag.c.obj
 .text.erase_recovery_area
                0x00000000000291f8       0x34 CMakeFiles/pb_remote_server_nrf52832_xxAA_s132_6.0.0.dir/__/__/__/mesh/core/src/flash_manager_defrag.c.obj
 .text.write_back
                0x000000000002922c       0x44 CMakeFiles/pb_remote_server_nrf52832_xxAA_s132_6.0.0.dir/__/__/__/mesh/core/src/flash_manager_defrag.c.obj
 .text.write_defrag_start_pointer
                0x0000000000029270       0x38 CMakeFiles/pb_remote_server_nrf52832_xxAA_s132_6.0.0.dir/__/__/__/mesh/core/src/flash_manager_defrag.c.obj
 .text.copy_metadata
                0x00000000000292a8       0x58 CMakeFiles/pb_remote_server_nrf52832_xxAA_s132_6.0.0.dir/__/__/__/mesh/core/src/flash_manager_defrag.c.obj
 .text.seal_storage_page
                0x0000000000029300       0x70 CMakeFiles/pb_remote_server_nrf52832_xxAA_s132_6.0.0.dir/__/__/__/mesh/core/src/flash_manager_defrag.c.obj
 .text.post_process
                0x0000000000029370       0x64 CMakeFiles/pb_remote_server_nrf52832_xxAA_s132_6.0.0.dir/__/__/__/mesh/core/src/flash_manager_defrag.c.obj
 .text.check_for_invalid_entries
                0x00000000000293d4       0x40 CMakeFiles/pb_remote_server_nrf52832_xxAA_s132_6.0.0.dir/__/__/__/mesh/core/src/flash_manager_defrag.c.obj
 .text.execute_procedure_step
                0x0000000000029414       0x98 CMakeFiles/pb_remote_server_nrf52832_xxAA_s132_6.0.0.dir/__/__/__/mesh/core/src/flash_manager_defrag.c.obj
 .text.on_flash_op_end
                0x00000000000294ac       0x48 CMakeFiles/pb_remote_server_nrf52832_xxAA_s132_6.0.0.dir/__/__/__/mesh/core/src/flash_manager_defrag.c.obj
 .text.invalidate_duplicate_entries
                0x00000000000294f4      0x150 CMakeFiles/pb_remote_server_nrf52832_xxAA_s132_6.0.0.dir/__/__/__/mesh/core/src/flash_manager_defrag.c.obj
 .text.backup_entries
                0x0000000000029644      0x1c8 CMakeFiles/pb_remote_server_nrf52832_xxAA_s132_6.0.0.dir/__/__/__/mesh/core/src/flash_manager_defrag.c.obj
 .text.flash_manager_defrag_init
                0x000000000002980c       0x6c CMakeFiles/pb_remote_server_nrf52832_xxAA_s132_6.0.0.dir/__/__/__/mesh/core/src/flash_manager_defrag.c.obj
                0x000000000002980c                flash_manager_defrag_init
 .text.flash_manager_defrag_is_running
                0x0000000000029878       0x10 CMakeFiles/pb_remote_server_nrf52832_xxAA_s132_6.0.0.dir/__/__/__/mesh/core/src/flash_manager_defrag.c.obj
                0x0000000000029878                flash_manager_defrag_is_running
 .text.flash_manager_defrag
                0x0000000000029888       0x48 CMakeFiles/pb_remote_server_nrf52832_xxAA_s132_6.0.0.dir/__/__/__/mesh/core/src/flash_manager_defrag.c.obj
                0x0000000000029888                flash_manager_defrag
 .text.flash_manager_defrag_recovery_page_get
                0x00000000000298d0        0xc CMakeFiles/pb_remote_server_nrf52832_xxAA_s132_6.0.0.dir/__/__/__/mesh/core/src/flash_manager_defrag.c.obj
                0x00000000000298d0                flash_manager_defrag_recovery_page_get
 .text.fifo_init
                0x00000000000298dc       0x38 CMakeFiles/pb_remote_server_nrf52832_xxAA_s132_6.0.0.dir/__/__/__/mesh/core/src/fifo.c.obj
                0x00000000000298dc                fifo_init
 .text.fifo_push
                0x0000000000029914       0x60 CMakeFiles/pb_remote_server_nrf52832_xxAA_s132_6.0.0.dir/__/__/__/mesh/core/src/fifo.c.obj
                0x0000000000029914                fifo_push
 .text.fifo_pop
                0x0000000000029974       0x5c CMakeFiles/pb_remote_server_nrf52832_xxAA_s132_6.0.0.dir/__/__/__/mesh/core/src/fifo.c.obj
                0x0000000000029974                fifo_pop
 .text.fifo_flush
                0x00000000000299d0        0x8 CMakeFiles/pb_remote_server_nrf52832_xxAA_s132_6.0.0.dir/__/__/__/mesh/core/src/fifo.c.obj
                0x00000000000299d0                fifo_flush
 .text.fifo_get_len
                0x00000000000299d8        0x8 CMakeFiles/pb_remote_server_nrf52832_xxAA_s132_6.0.0.dir/__/__/__/mesh/core/src/fifo.c.obj
                0x00000000000299d8                fifo_get_len
 .text.nrf_flash_erase
                0x00000000000299e0       0x5c CMakeFiles/pb_remote_server_nrf52832_xxAA_s132_6.0.0.dir/__/__/__/mesh/core/src/nrf_flash.c.obj
                0x00000000000299e0                nrf_flash_erase
 .text.nrf_flash_write
                0x0000000000029a3c       0x70 CMakeFiles/pb_remote_server_nrf52832_xxAA_s132_6.0.0.dir/__/__/__/mesh/core/src/nrf_flash.c.obj
                0x0000000000029a3c                nrf_flash_write
 .text.packet_mgr_init
                0x0000000000029aac       0x48 CMakeFiles/pb_remote_server_nrf52832_xxAA_s132_6.0.0.dir/__/__/__/mesh/core/src/packet_mgr.c.obj
                0x0000000000029aac                packet_mgr_init
 .text.flash_store_iv_index
                0x0000000000029af4       0x38 CMakeFiles/pb_remote_server_nrf52832_xxAA_s132_6.0.0.dir/__/__/__/mesh/core/src/net_state.c.obj
 .text.flash_mem_available
                0x0000000000029b2c       0x1c CMakeFiles/pb_remote_server_nrf52832_xxAA_s132_6.0.0.dir/__/__/__/mesh/core/src/net_state.c.obj
 .text.init_flash_storage
                0x0000000000029b48       0x44 CMakeFiles/pb_remote_server_nrf52832_xxAA_s132_6.0.0.dir/__/__/__/mesh/core/src/net_state.c.obj
 .text.flash_write_complete
                0x0000000000029b8c       0x6c CMakeFiles/pb_remote_server_nrf52832_xxAA_s132_6.0.0.dir/__/__/__/mesh/core/src/net_state.c.obj
 .text.seqnum_block_allocate
                0x0000000000029bf8       0x4c CMakeFiles/pb_remote_server_nrf52832_xxAA_s132_6.0.0.dir/__/__/__/mesh/core/src/net_state.c.obj
 .text.net_state_reset
                0x0000000000029c44       0x78 CMakeFiles/pb_remote_server_nrf52832_xxAA_s132_6.0.0.dir/__/__/__/mesh/core/src/net_state.c.obj
                0x0000000000029c44                net_state_reset
 .text.iv_update_trigger_if_pending
                0x0000000000029cbc      0x174 CMakeFiles/pb_remote_server_nrf52832_xxAA_s132_6.0.0.dir/__/__/__/mesh/core/src/net_state.c.obj
 .text.iv_update_timer_handler
                0x0000000000029e30       0x70 CMakeFiles/pb_remote_server_nrf52832_xxAA_s132_6.0.0.dir/__/__/__/mesh/core/src/net_state.c.obj
 .text.mesh_evt_handler
                0x0000000000029ea0      0x104 CMakeFiles/pb_remote_server_nrf52832_xxAA_s132_6.0.0.dir/__/__/__/mesh/core/src/net_state.c.obj
 .text.net_state_recover_from_flash
                0x0000000000029fa4      0x118 CMakeFiles/pb_remote_server_nrf52832_xxAA_s132_6.0.0.dir/__/__/__/mesh/core/src/net_state.c.obj
                0x0000000000029fa4                net_state_recover_from_flash
 .text.net_state_flash_area_get
                0x000000000002a0bc        0xc CMakeFiles/pb_remote_server_nrf52832_xxAA_s132_6.0.0.dir/__/__/__/mesh/core/src/net_state.c.obj
                0x000000000002a0bc                net_state_flash_area_get
 .text.net_state_init
                0x000000000002a0c8       0x94 CMakeFiles/pb_remote_server_nrf52832_xxAA_s132_6.0.0.dir/__/__/__/mesh/core/src/net_state.c.obj
                0x000000000002a0c8                net_state_init
 .text.net_state_seqnum_alloc
                0x000000000002a15c       0xd0 CMakeFiles/pb_remote_server_nrf52832_xxAA_s132_6.0.0.dir/__/__/__/mesh/core/src/net_state.c.obj
                0x000000000002a15c                net_state_seqnum_alloc
 .text.net_state_iv_index_lock
                0x000000000002a22c      0x188 CMakeFiles/pb_remote_server_nrf52832_xxAA_s132_6.0.0.dir/__/__/__/mesh/core/src/net_state.c.obj
                0x000000000002a22c                net_state_iv_index_lock
 .text.net_state_key_refresh_phase_changed
                0x000000000002a3b4       0x20 CMakeFiles/pb_remote_server_nrf52832_xxAA_s132_6.0.0.dir/__/__/__/mesh/core/src/net_state.c.obj
                0x000000000002a3b4                net_state_key_refresh_phase_changed
 .text.net_state_beacon_iv_index_get
                0x000000000002a3d4        0xc CMakeFiles/pb_remote_server_nrf52832_xxAA_s132_6.0.0.dir/__/__/__/mesh/core/src/net_state.c.obj
                0x000000000002a3d4                net_state_beacon_iv_index_get
 .text.net_state_tx_iv_index_get
                0x000000000002a3e0       0x14 CMakeFiles/pb_remote_server_nrf52832_xxAA_s132_6.0.0.dir/__/__/__/mesh/core/src/net_state.c.obj
                0x000000000002a3e0                net_state_tx_iv_index_get
 .text.net_state_rx_iv_index_get
                0x000000000002a3f4       0x18 CMakeFiles/pb_remote_server_nrf52832_xxAA_s132_6.0.0.dir/__/__/__/mesh/core/src/net_state.c.obj
                0x000000000002a3f4                net_state_rx_iv_index_get
 .text.net_state_iv_update_get
                0x000000000002a40c        0xc CMakeFiles/pb_remote_server_nrf52832_xxAA_s132_6.0.0.dir/__/__/__/mesh/core/src/net_state.c.obj
                0x000000000002a40c                net_state_iv_update_get
 .text.net_state_iv_index_set
                0x000000000002a418       0x88 CMakeFiles/pb_remote_server_nrf52832_xxAA_s132_6.0.0.dir/__/__/__/mesh/core/src/net_state.c.obj
                0x000000000002a418                net_state_iv_index_set
 .text.send_end_events
                0x000000000002a4a0       0x98 CMakeFiles/pb_remote_server_nrf52832_xxAA_s132_6.0.0.dir/__/__/__/mesh/core/src/mesh_flash.c.obj
 .text.flash_op_start
                0x000000000002a538      0x214 CMakeFiles/pb_remote_server_nrf52832_xxAA_s132_6.0.0.dir/__/__/__/mesh/core/src/mesh_flash.c.obj
 .text.mesh_flash_init
                0x000000000002a74c       0x78 CMakeFiles/pb_remote_server_nrf52832_xxAA_s132_6.0.0.dir/__/__/__/mesh/core/src/mesh_flash.c.obj
                0x000000000002a74c                mesh_flash_init
 .text.mesh_flash_user_callback_set
                0x000000000002a7c4       0x20 CMakeFiles/pb_remote_server_nrf52832_xxAA_s132_6.0.0.dir/__/__/__/mesh/core/src/mesh_flash.c.obj
                0x000000000002a7c4                mesh_flash_user_callback_set
 .text.mesh_flash_op_push
                0x000000000002a7e4      0x198 CMakeFiles/pb_remote_server_nrf52832_xxAA_s132_6.0.0.dir/__/__/__/mesh/core/src/mesh_flash.c.obj
                0x000000000002a7e4                mesh_flash_op_push
 .text.nrf_mesh_address_type_get
                0x000000000002a97c       0x10 CMakeFiles/pb_remote_server_nrf52832_xxAA_s132_6.0.0.dir/__/__/__/mesh/core/src/nrf_mesh_utils.c.obj
                0x000000000002a97c                nrf_mesh_address_type_get
 .text.sd_softdevice_is_enabled
                0x000000000002a98c        0x4 CMakeFiles/pb_remote_server_nrf52832_xxAA_s132_6.0.0.dir/__/__/__/mesh/core/src/nrf_mesh.c.obj
 .text.nrf_mesh_listen
                0x000000000002a990      0x184 CMakeFiles/pb_remote_server_nrf52832_xxAA_s132_6.0.0.dir/__/__/__/mesh/core/src/nrf_mesh.c.obj
 .text.flash_stable_cb
                0x000000000002ab14       0x20 CMakeFiles/pb_remote_server_nrf52832_xxAA_s132_6.0.0.dir/__/__/__/mesh/core/src/nrf_mesh.c.obj
 .text.scanner_packet_process_cb
                0x000000000002ab34       0x88 CMakeFiles/pb_remote_server_nrf52832_xxAA_s132_6.0.0.dir/__/__/__/mesh/core/src/nrf_mesh.c.obj
 .text.nrf_mesh_init
                0x000000000002abbc       0xe4 CMakeFiles/pb_remote_server_nrf52832_xxAA_s132_6.0.0.dir/__/__/__/mesh/core/src/nrf_mesh.c.obj
                0x000000000002abbc                nrf_mesh_init
 .text.nrf_mesh_enable
                0x000000000002aca0       0x48 CMakeFiles/pb_remote_server_nrf52832_xxAA_s132_6.0.0.dir/__/__/__/mesh/core/src/nrf_mesh.c.obj
                0x000000000002aca0                nrf_mesh_enable
 .text.nrf_mesh_packet_send
                0x000000000002ace8       0x94 CMakeFiles/pb_remote_server_nrf52832_xxAA_s132_6.0.0.dir/__/__/__/mesh/core/src/nrf_mesh.c.obj
                0x000000000002ace8                nrf_mesh_packet_send
 .text.nrf_mesh_evt_handler_add
                0x000000000002ad7c        0x4 CMakeFiles/pb_remote_server_nrf52832_xxAA_s132_6.0.0.dir/__/__/__/mesh/core/src/nrf_mesh.c.obj
                0x000000000002ad7c                nrf_mesh_evt_handler_add
 .text.nrf_mesh_on_sd_evt
                0x000000000002ad80        0xc CMakeFiles/pb_remote_server_nrf52832_xxAA_s132_6.0.0.dir/__/__/__/mesh/core/src/nrf_mesh.c.obj
                0x000000000002ad80                nrf_mesh_on_sd_evt
 .text.nrf_mesh_subnet_added
                0x000000000002ad8c        0x4 CMakeFiles/pb_remote_server_nrf52832_xxAA_s132_6.0.0.dir/__/__/__/mesh/core/src/nrf_mesh.c.obj
                0x000000000002ad8c                nrf_mesh_subnet_added
 .text.queue_init
                0x000000000002ad90       0x1c CMakeFiles/pb_remote_server_nrf52832_xxAA_s132_6.0.0.dir/__/__/__/mesh/core/src/queue.c.obj
                0x000000000002ad90                queue_init
 .text.queue_push
                0x000000000002adac       0x3c CMakeFiles/pb_remote_server_nrf52832_xxAA_s132_6.0.0.dir/__/__/__/mesh/core/src/queue.c.obj
                0x000000000002adac                queue_push
 .text.queue_pop
                0x000000000002ade8       0x2c CMakeFiles/pb_remote_server_nrf52832_xxAA_s132_6.0.0.dir/__/__/__/mesh/core/src/queue.c.obj
                0x000000000002ade8                queue_pop
 .text.queue_peek
                0x000000000002ae14       0x14 CMakeFiles/pb_remote_server_nrf52832_xxAA_s132_6.0.0.dir/__/__/__/mesh/core/src/queue.c.obj
                0x000000000002ae14                queue_peek
 .text.hal_lfclk_ppm_get
                0x000000000002ae28       0x14 CMakeFiles/pb_remote_server_nrf52832_xxAA_s132_6.0.0.dir/__/__/__/mesh/core/src/hal.c.obj
                0x000000000002ae28                hal_lfclk_ppm_get
 .text.aes_cmac_subkey_generate
                0x000000000002ae3c      0x294 CMakeFiles/pb_remote_server_nrf52832_xxAA_s132_6.0.0.dir/__/__/__/mesh/core/src/aes_cmac.c.obj
                0x000000000002ae3c                aes_cmac_subkey_generate
 .text.aes_cmac
                0x000000000002b0d0      0x4b8 CMakeFiles/pb_remote_server_nrf52832_xxAA_s132_6.0.0.dir/__/__/__/mesh/core/src/aes_cmac.c.obj
                0x000000000002b0d0                aes_cmac
 .text.timer_cb
                0x000000000002b588        0xc CMakeFiles/pb_remote_server_nrf52832_xxAA_s132_6.0.0.dir/__/__/__/mesh/core/src/timer_scheduler.c.obj
 .text.add_evt.constprop.1
                0x000000000002b594       0x60 CMakeFiles/pb_remote_server_nrf52832_xxAA_s132_6.0.0.dir/__/__/__/mesh/core/src/timer_scheduler.c.obj
 .text.flag_event_cb
                0x000000000002b5f4      0x2f0 CMakeFiles/pb_remote_server_nrf52832_xxAA_s132_6.0.0.dir/__/__/__/mesh/core/src/timer_scheduler.c.obj
 .text.timer_sch_init
                0x000000000002b8e4       0x24 CMakeFiles/pb_remote_server_nrf52832_xxAA_s132_6.0.0.dir/__/__/__/mesh/core/src/timer_scheduler.c.obj
                0x000000000002b8e4                timer_sch_init
 .text.timer_sch_schedule
                0x000000000002b908       0x68 CMakeFiles/pb_remote_server_nrf52832_xxAA_s132_6.0.0.dir/__/__/__/mesh/core/src/timer_scheduler.c.obj
                0x000000000002b908                timer_sch_schedule
 .text.timer_sch_abort
                0x000000000002b970       0x5c CMakeFiles/pb_remote_server_nrf52832_xxAA_s132_6.0.0.dir/__/__/__/mesh/core/src/timer_scheduler.c.obj
                0x000000000002b970                timer_sch_abort
 .text.timer_sch_reschedule
                0x000000000002b9cc       0x90 CMakeFiles/pb_remote_server_nrf52832_xxAA_s132_6.0.0.dir/__/__/__/mesh/core/src/timer_scheduler.c.obj
                0x000000000002b9cc                timer_sch_reschedule
 .text.timer_event_handler
                0x000000000002ba5c       0xd0 CMakeFiles/pb_remote_server_nrf52832_xxAA_s132_6.0.0.dir/__/__/__/mesh/core/src/timer.c.obj
                0x000000000002ba5c                timer_event_handler
 .text.timer_order_cb
                0x000000000002bb2c       0x9c CMakeFiles/pb_remote_server_nrf52832_xxAA_s132_6.0.0.dir/__/__/__/mesh/core/src/timer.c.obj
                0x000000000002bb2c                timer_order_cb
 .text.timer_now
                0x000000000002bbc8       0x58 CMakeFiles/pb_remote_server_nrf52832_xxAA_s132_6.0.0.dir/__/__/__/mesh/core/src/timer.c.obj
                0x000000000002bbc8                timer_now
 .text.timer_on_ts_begin
                0x000000000002bc20      0x100 CMakeFiles/pb_remote_server_nrf52832_xxAA_s132_6.0.0.dir/__/__/__/mesh/core/src/timer.c.obj
                0x000000000002bc20                timer_on_ts_begin
 .text.timer_on_ts_end
                0x000000000002bd20       0x78 CMakeFiles/pb_remote_server_nrf52832_xxAA_s132_6.0.0.dir/__/__/__/mesh/core/src/timer.c.obj
                0x000000000002bd20                timer_on_ts_end
 .text.timer_cb
                0x000000000002bd98       0x10 CMakeFiles/pb_remote_server_nrf52832_xxAA_s132_6.0.0.dir/__/__/__/mesh/core/src/ticker.c.obj
 .text.ticker_init
                0x000000000002bda8       0x3c CMakeFiles/pb_remote_server_nrf52832_xxAA_s132_6.0.0.dir/__/__/__/mesh/core/src/ticker.c.obj
                0x000000000002bda8                ticker_init
 .text.sd_rand_application_bytes_available_get
                0x000000000002bde4        0x4 CMakeFiles/pb_remote_server_nrf52832_xxAA_s132_6.0.0.dir/__/__/__/mesh/core/src/rand.c.obj
 .text.sd_rand_application_vector_get
                0x000000000002bde8        0x4 CMakeFiles/pb_remote_server_nrf52832_xxAA_s132_6.0.0.dir/__/__/__/mesh/core/src/rand.c.obj
 .text.rand_prng_seed
                0x000000000002bdec       0x78 CMakeFiles/pb_remote_server_nrf52832_xxAA_s132_6.0.0.dir/__/__/__/mesh/core/src/rand.c.obj
                0x000000000002bdec                rand_prng_seed
 .text.rand_prng_get
                0x000000000002be64       0x28 CMakeFiles/pb_remote_server_nrf52832_xxAA_s132_6.0.0.dir/__/__/__/mesh/core/src/rand.c.obj
                0x000000000002be64                rand_prng_get
 .text.rand_hw_rng_get
                0x000000000002be8c       0x60 CMakeFiles/pb_remote_server_nrf52832_xxAA_s132_6.0.0.dir/__/__/__/mesh/core/src/rand.c.obj
                0x000000000002be8c                rand_hw_rng_get
 .text.nrf_mesh_opt_set
                0x000000000002beec       0x28 CMakeFiles/pb_remote_server_nrf52832_xxAA_s132_6.0.0.dir/__/__/__/mesh/core/src/nrf_mesh_opt.c.obj
                0x000000000002beec                nrf_mesh_opt_set
 .text.nrf_mesh_opt_get
                0x000000000002bf14       0x28 CMakeFiles/pb_remote_server_nrf52832_xxAA_s132_6.0.0.dir/__/__/__/mesh/core/src/nrf_mesh_opt.c.obj
                0x000000000002bf14                nrf_mesh_opt_get
 .text.sd_radio_session_open
                0x000000000002bf3c        0x4 CMakeFiles/pb_remote_server_nrf52832_xxAA_s132_6.0.0.dir/__/__/__/mesh/core/src/timeslot.c.obj
 .text.sd_radio_session_close
                0x000000000002bf40        0x4 CMakeFiles/pb_remote_server_nrf52832_xxAA_s132_6.0.0.dir/__/__/__/mesh/core/src/timeslot.c.obj
 .text.sd_radio_request
                0x000000000002bf44        0x4 CMakeFiles/pb_remote_server_nrf52832_xxAA_s132_6.0.0.dir/__/__/__/mesh/core/src/timeslot.c.obj
 .text.end_timer_handler
                0x000000000002bf48       0x2c CMakeFiles/pb_remote_server_nrf52832_xxAA_s132_6.0.0.dir/__/__/__/mesh/core/src/timeslot.c.obj
 .text.radio_signal_callback
                0x000000000002bf74      0x2b4 CMakeFiles/pb_remote_server_nrf52832_xxAA_s132_6.0.0.dir/__/__/__/mesh/core/src/timeslot.c.obj
 .text.timeslot_sd_event_handler
                0x000000000002c228       0x44 CMakeFiles/pb_remote_server_nrf52832_xxAA_s132_6.0.0.dir/__/__/__/mesh/core/src/timeslot.c.obj
                0x000000000002c228                timeslot_sd_event_handler
 .text.timeslot_init
                0x000000000002c26c       0x4c CMakeFiles/pb_remote_server_nrf52832_xxAA_s132_6.0.0.dir/__/__/__/mesh/core/src/timeslot.c.obj
                0x000000000002c26c                timeslot_init
 .text.timeslot_start
                0x000000000002c2b8       0x20 CMakeFiles/pb_remote_server_nrf52832_xxAA_s132_6.0.0.dir/__/__/__/mesh/core/src/timeslot.c.obj
                0x000000000002c2b8                timeslot_start
 .text.timeslot_stop
                0x000000000002c2d8       0x30 CMakeFiles/pb_remote_server_nrf52832_xxAA_s132_6.0.0.dir/__/__/__/mesh/core/src/timeslot.c.obj
                0x000000000002c2d8                timeslot_stop
 .text.timeslot_state_lock
                0x000000000002c308       0x44 CMakeFiles/pb_remote_server_nrf52832_xxAA_s132_6.0.0.dir/__/__/__/mesh/core/src/timeslot.c.obj
                0x000000000002c308                timeslot_state_lock
 .text.timeslot_end_is_pending
                0x000000000002c34c       0x24 CMakeFiles/pb_remote_server_nrf52832_xxAA_s132_6.0.0.dir/__/__/__/mesh/core/src/timeslot.c.obj
                0x000000000002c34c                timeslot_end_is_pending
 .text.timeslot_start_time_get
                0x000000000002c370        0xc CMakeFiles/pb_remote_server_nrf52832_xxAA_s132_6.0.0.dir/__/__/__/mesh/core/src/timeslot.c.obj
                0x000000000002c370                timeslot_start_time_get
 .text.timeslot_remaining_time_get
                0x000000000002c37c       0x40 CMakeFiles/pb_remote_server_nrf52832_xxAA_s132_6.0.0.dir/__/__/__/mesh/core/src/timeslot.c.obj
                0x000000000002c37c                timeslot_remaining_time_get
 .text.timeslot_is_in_cb
                0x000000000002c3bc        0xc CMakeFiles/pb_remote_server_nrf52832_xxAA_s132_6.0.0.dir/__/__/__/mesh/core/src/timeslot.c.obj
                0x000000000002c3bc                timeslot_is_in_cb
 .text.timeslot_trigger
                0x000000000002c3c8       0x24 CMakeFiles/pb_remote_server_nrf52832_xxAA_s132_6.0.0.dir/__/__/__/mesh/core/src/timeslot.c.obj
                0x000000000002c3c8                timeslot_trigger
 .text.bearer_event_init
                0x000000000002c3ec       0x4c CMakeFiles/pb_remote_server_nrf52832_xxAA_s132_6.0.0.dir/__/__/__/mesh/core/src/bearer_event.c.obj
                0x000000000002c3ec                bearer_event_init
 .text.bearer_event_timer_post
                0x000000000002c438       0x50 CMakeFiles/pb_remote_server_nrf52832_xxAA_s132_6.0.0.dir/__/__/__/mesh/core/src/bearer_event.c.obj
                0x000000000002c438                bearer_event_timer_post
 .text.bearer_event_critical_section_begin
                0x000000000002c488       0x44 CMakeFiles/pb_remote_server_nrf52832_xxAA_s132_6.0.0.dir/__/__/__/mesh/core/src/bearer_event.c.obj
                0x000000000002c488                bearer_event_critical_section_begin
 .text.bearer_event_critical_section_end
                0x000000000002c4cc       0x40 CMakeFiles/pb_remote_server_nrf52832_xxAA_s132_6.0.0.dir/__/__/__/mesh/core/src/bearer_event.c.obj
                0x000000000002c4cc                bearer_event_critical_section_end
 .text.bearer_event_flag_add
                0x000000000002c50c       0x40 CMakeFiles/pb_remote_server_nrf52832_xxAA_s132_6.0.0.dir/__/__/__/mesh/core/src/bearer_event.c.obj
                0x000000000002c50c                bearer_event_flag_add
 .text.bearer_event_flag_set
                0x000000000002c54c       0x5c CMakeFiles/pb_remote_server_nrf52832_xxAA_s132_6.0.0.dir/__/__/__/mesh/core/src/bearer_event.c.obj
                0x000000000002c54c                bearer_event_flag_set
 .text.bearer_event_sequential_add
                0x000000000002c5a8       0x34 CMakeFiles/pb_remote_server_nrf52832_xxAA_s132_6.0.0.dir/__/__/__/mesh/core/src/bearer_event.c.obj
                0x000000000002c5a8                bearer_event_sequential_add
 .text.bearer_event_sequential_post
                0x000000000002c5dc       0x64 CMakeFiles/pb_remote_server_nrf52832_xxAA_s132_6.0.0.dir/__/__/__/mesh/core/src/bearer_event.c.obj
                0x000000000002c5dc                bearer_event_sequential_post
 .text.bearer_event_sequential_pending
                0x000000000002c640       0x14 CMakeFiles/pb_remote_server_nrf52832_xxAA_s132_6.0.0.dir/__/__/__/mesh/core/src/bearer_event.c.obj
                0x000000000002c640                bearer_event_sequential_pending
 .text.bearer_event_handler
                0x000000000002c654      0x16c CMakeFiles/pb_remote_server_nrf52832_xxAA_s132_6.0.0.dir/__/__/__/mesh/core/src/bearer_event.c.obj
                0x000000000002c654                bearer_event_handler
 .text.QDEC_IRQHandler
                0x000000000002c7c0        0x4 CMakeFiles/pb_remote_server_nrf52832_xxAA_s132_6.0.0.dir/__/__/__/mesh/core/src/bearer_event.c.obj
                0x000000000002c7c0                QDEC_IRQHandler
 .text.enc_aes_encrypt
                0x000000000002c7c4        0x4 CMakeFiles/pb_remote_server_nrf52832_xxAA_s132_6.0.0.dir/__/__/__/mesh/core/src/enc.c.obj
                0x000000000002c7c4                enc_aes_encrypt
 .text.enc_aes_cmac
                0x000000000002c7c8        0x4 CMakeFiles/pb_remote_server_nrf52832_xxAA_s132_6.0.0.dir/__/__/__/mesh/core/src/enc.c.obj
                0x000000000002c7c8                enc_aes_cmac
 .text.enc_aes_ccm_encrypt
                0x000000000002c7cc        0x4 CMakeFiles/pb_remote_server_nrf52832_xxAA_s132_6.0.0.dir/__/__/__/mesh/core/src/enc.c.obj
                0x000000000002c7cc                enc_aes_ccm_encrypt
 .text.enc_aes_ccm_decrypt
                0x000000000002c7d0        0x4 CMakeFiles/pb_remote_server_nrf52832_xxAA_s132_6.0.0.dir/__/__/__/mesh/core/src/enc.c.obj
                0x000000000002c7d0                enc_aes_ccm_decrypt
 .text.enc_nonce_generate
                0x000000000002c7d4       0xc8 CMakeFiles/pb_remote_server_nrf52832_xxAA_s132_6.0.0.dir/__/__/__/mesh/core/src/enc.c.obj
                0x000000000002c7d4                enc_nonce_generate
 .text.enc_s1   0x000000000002c89c       0x30 CMakeFiles/pb_remote_server_nrf52832_xxAA_s132_6.0.0.dir/__/__/__/mesh/core/src/enc.c.obj
                0x000000000002c89c                enc_s1
 .text.enc_k1   0x000000000002c8cc       0x40 CMakeFiles/pb_remote_server_nrf52832_xxAA_s132_6.0.0.dir/__/__/__/mesh/core/src/enc.c.obj
                0x000000000002c8cc                enc_k1
 .text.enc_k2   0x000000000002c90c       0xe0 CMakeFiles/pb_remote_server_nrf52832_xxAA_s132_6.0.0.dir/__/__/__/mesh/core/src/enc.c.obj
                0x000000000002c90c                enc_k2
 .text.enc_k3   0x000000000002c9ec       0x68 CMakeFiles/pb_remote_server_nrf52832_xxAA_s132_6.0.0.dir/__/__/__/mesh/core/src/enc.c.obj
                0x000000000002c9ec                enc_k3
 .text.enc_k4   0x000000000002ca54       0x60 CMakeFiles/pb_remote_server_nrf52832_xxAA_s132_6.0.0.dir/__/__/__/mesh/core/src/enc.c.obj
                0x000000000002ca54                enc_k4
 .text.network_init
                0x000000000002cab4       0x28 CMakeFiles/pb_remote_server_nrf52832_xxAA_s132_6.0.0.dir/__/__/__/mesh/core/src/network.c.obj
                0x000000000002cab4                network_init
 .text.network_opt_set
                0x000000000002cadc       0x84 CMakeFiles/pb_remote_server_nrf52832_xxAA_s132_6.0.0.dir/__/__/__/mesh/core/src/network.c.obj
                0x000000000002cadc                network_opt_set
 .text.network_opt_get
                0x000000000002cb60       0x5c CMakeFiles/pb_remote_server_nrf52832_xxAA_s132_6.0.0.dir/__/__/__/mesh/core/src/network.c.obj
                0x000000000002cb60                network_opt_get
 .text.network_packet_alloc
                0x000000000002cbbc       0xa0 CMakeFiles/pb_remote_server_nrf52832_xxAA_s132_6.0.0.dir/__/__/__/mesh/core/src/network.c.obj
                0x000000000002cbbc                network_packet_alloc
 .text.network_packet_send
                0x000000000002cc5c       0x58 CMakeFiles/pb_remote_server_nrf52832_xxAA_s132_6.0.0.dir/__/__/__/mesh/core/src/network.c.obj
                0x000000000002cc5c                network_packet_send
 .text.network_packet_in
                0x000000000002ccb4      0x1c8 CMakeFiles/pb_remote_server_nrf52832_xxAA_s132_6.0.0.dir/__/__/__/mesh/core/src/network.c.obj
                0x000000000002ccb4                network_packet_in
 .text.net_packet_decrypt
                0x000000000002ce7c      0x2bc CMakeFiles/pb_remote_server_nrf52832_xxAA_s132_6.0.0.dir/__/__/__/mesh/core/src/net_packet.c.obj
                0x000000000002ce7c                net_packet_decrypt
 .text.net_packet_encrypt
                0x000000000002d138      0x100 CMakeFiles/pb_remote_server_nrf52832_xxAA_s132_6.0.0.dir/__/__/__/mesh/core/src/net_packet.c.obj
                0x000000000002d138                net_packet_encrypt
 .text.net_packet_header_set
                0x000000000002d238       0xc0 CMakeFiles/pb_remote_server_nrf52832_xxAA_s132_6.0.0.dir/__/__/__/mesh/core/src/net_packet.c.obj
                0x000000000002d238                net_packet_header_set
 .text.net_packet_payload_len_get
                0x000000000002d2f8       0x14 CMakeFiles/pb_remote_server_nrf52832_xxAA_s132_6.0.0.dir/__/__/__/mesh/core/src/net_packet.c.obj
                0x000000000002d2f8                net_packet_payload_len_get
 .text.net_packet_from_payload
                0x000000000002d30c        0x4 CMakeFiles/pb_remote_server_nrf52832_xxAA_s132_6.0.0.dir/__/__/__/mesh/core/src/net_packet.c.obj
                0x000000000002d30c                net_packet_from_payload
 .text.net_packet_obfuscation_start_get
                0x000000000002d310        0x4 CMakeFiles/pb_remote_server_nrf52832_xxAA_s132_6.0.0.dir/__/__/__/mesh/core/src/net_packet.c.obj
                0x000000000002d310                net_packet_obfuscation_start_get
 .text.msq_init
                0x000000000002d314       0x6c CMakeFiles/pb_remote_server_nrf52832_xxAA_s132_6.0.0.dir/__/__/__/mesh/core/src/msqueue.c.obj
                0x000000000002d314                msq_init
 .text.msq_get  0x000000000002d380       0x54 CMakeFiles/pb_remote_server_nrf52832_xxAA_s132_6.0.0.dir/__/__/__/mesh/core/src/msqueue.c.obj
                0x000000000002d380                msq_get
 .text.msq_move
                0x000000000002d3d4       0x4c CMakeFiles/pb_remote_server_nrf52832_xxAA_s132_6.0.0.dir/__/__/__/mesh/core/src/msqueue.c.obj
                0x000000000002d3d4                msq_move
 .text.msq_available
                0x000000000002d420       0x44 CMakeFiles/pb_remote_server_nrf52832_xxAA_s132_6.0.0.dir/__/__/__/mesh/core/src/msqueue.c.obj
                0x000000000002d420                msq_available
 .text.nrf_mesh_keygen_aid
                0x000000000002d464       0x18 CMakeFiles/pb_remote_server_nrf52832_xxAA_s132_6.0.0.dir/__/__/__/mesh/core/src/nrf_mesh_keygen.c.obj
                0x000000000002d464                nrf_mesh_keygen_aid
 .text.nrf_mesh_keygen_network_secmat
                0x000000000002d47c       0x24 CMakeFiles/pb_remote_server_nrf52832_xxAA_s132_6.0.0.dir/__/__/__/mesh/core/src/nrf_mesh_keygen.c.obj
                0x000000000002d47c                nrf_mesh_keygen_network_secmat
 .text.nrf_mesh_keygen_beacon_secmat
                0x000000000002d4a0       0x50 CMakeFiles/pb_remote_server_nrf52832_xxAA_s132_6.0.0.dir/__/__/__/mesh/core/src/nrf_mesh_keygen.c.obj
                0x000000000002d4a0                nrf_mesh_keygen_beacon_secmat
 .text.nrf_mesh_keygen_virtual_address
                0x000000000002d4f0       0x50 CMakeFiles/pb_remote_server_nrf52832_xxAA_s132_6.0.0.dir/__/__/__/mesh/core/src/nrf_mesh_keygen.c.obj
                0x000000000002d4f0                nrf_mesh_keygen_virtual_address
 .text.list_add
                0x000000000002d540       0x64 CMakeFiles/pb_remote_server_nrf52832_xxAA_s132_6.0.0.dir/__/__/__/mesh/core/src/list.c.obj
                0x000000000002d540                list_add
 .text.list_remove
                0x000000000002d5a4       0x44 CMakeFiles/pb_remote_server_nrf52832_xxAA_s132_6.0.0.dir/__/__/__/mesh/core/src/list.c.obj
                0x000000000002d5a4                list_remove
 .text.list_compare_add
                0x000000000002d5e8       0x80 CMakeFiles/pb_remote_server_nrf52832_xxAA_s132_6.0.0.dir/__/__/__/mesh/core/src/list.c.obj
                0x000000000002d5e8                list_compare_add
 .text.log_callback_rtt
                0x000000000002d668       0x2c CMakeFiles/pb_remote_server_nrf52832_xxAA_s132_6.0.0.dir/__/__/__/mesh/core/src/log.c.obj
                0x000000000002d668                log_callback_rtt
 .text.log_init
                0x000000000002d694       0x20 CMakeFiles/pb_remote_server_nrf52832_xxAA_s132_6.0.0.dir/__/__/__/mesh/core/src/log.c.obj
                0x000000000002d694                log_init
 .text.log_printf
                0x000000000002d6b4       0x20 CMakeFiles/pb_remote_server_nrf52832_xxAA_s132_6.0.0.dir/__/__/__/mesh/core/src/log.c.obj
                0x000000000002d6b4                log_printf
 .text.process_action_queue
                0x000000000002d6d4      0x794 CMakeFiles/pb_remote_server_nrf52832_xxAA_s132_6.0.0.dir/__/__/__/mesh/core/src/flash_manager.c.obj
 .text.flash_op_ended_callback
                0x000000000002de68       0x24 CMakeFiles/pb_remote_server_nrf52832_xxAA_s132_6.0.0.dir/__/__/__/mesh/core/src/flash_manager.c.obj
 .text.flash_manager_init
                0x000000000002de8c       0x68 CMakeFiles/pb_remote_server_nrf52832_xxAA_s132_6.0.0.dir/__/__/__/mesh/core/src/flash_manager.c.obj
                0x000000000002de8c                flash_manager_init
 .text.flash_manager_remove
                0x000000000002def4       0x6c CMakeFiles/pb_remote_server_nrf52832_xxAA_s132_6.0.0.dir/__/__/__/mesh/core/src/flash_manager.c.obj
                0x000000000002def4                flash_manager_remove
 .text.flash_manager_entry_get
                0x000000000002df60       0x48 CMakeFiles/pb_remote_server_nrf52832_xxAA_s132_6.0.0.dir/__/__/__/mesh/core/src/flash_manager.c.obj
                0x000000000002df60                flash_manager_entry_get
 .text.flash_manager_entry_next_get
                0x000000000002dfa8      0x144 CMakeFiles/pb_remote_server_nrf52832_xxAA_s132_6.0.0.dir/__/__/__/mesh/core/src/flash_manager.c.obj
                0x000000000002dfa8                flash_manager_entry_next_get
 .text.flash_manager_entry_alloc
                0x000000000002e0ec       0x80 CMakeFiles/pb_remote_server_nrf52832_xxAA_s132_6.0.0.dir/__/__/__/mesh/core/src/flash_manager.c.obj
                0x000000000002e0ec                flash_manager_entry_alloc
 .text.flash_manager_entry_commit
                0x000000000002e16c       0x58 CMakeFiles/pb_remote_server_nrf52832_xxAA_s132_6.0.0.dir/__/__/__/mesh/core/src/flash_manager.c.obj
                0x000000000002e16c                flash_manager_entry_commit
 .text.flash_manager_entry_invalidate
                0x000000000002e1c4       0x98 CMakeFiles/pb_remote_server_nrf52832_xxAA_s132_6.0.0.dir/__/__/__/mesh/core/src/flash_manager.c.obj
                0x000000000002e1c4                flash_manager_entry_invalidate
 .text.flash_manager_add
                0x000000000002e25c      0x3f4 CMakeFiles/pb_remote_server_nrf52832_xxAA_s132_6.0.0.dir/__/__/__/mesh/core/src/flash_manager.c.obj
                0x000000000002e25c                flash_manager_add
 .text.flash_manager_mem_listener_register
                0x000000000002e650       0x38 CMakeFiles/pb_remote_server_nrf52832_xxAA_s132_6.0.0.dir/__/__/__/mesh/core/src/flash_manager.c.obj
                0x000000000002e650                flash_manager_mem_listener_register
 .text.flash_manager_is_stable
                0x000000000002e688       0x20 CMakeFiles/pb_remote_server_nrf52832_xxAA_s132_6.0.0.dir/__/__/__/mesh/core/src/flash_manager.c.obj
                0x000000000002e688                flash_manager_is_stable
 .text.flash_manager_on_defrag_end
                0x000000000002e6a8       0x58 CMakeFiles/pb_remote_server_nrf52832_xxAA_s132_6.0.0.dir/__/__/__/mesh/core/src/flash_manager.c.obj
                0x000000000002e6a8                flash_manager_on_defrag_end
 .text.flash_manager_recovery_page_get
                0x000000000002e700        0x4 CMakeFiles/pb_remote_server_nrf52832_xxAA_s132_6.0.0.dir/__/__/__/mesh/core/src/flash_manager.c.obj
                0x000000000002e700                flash_manager_recovery_page_get
 .text.flash_manager_action_queue_empty_cb_set
                0x000000000002e704       0x20 CMakeFiles/pb_remote_server_nrf52832_xxAA_s132_6.0.0.dir/__/__/__/mesh/core/src/flash_manager.c.obj
                0x000000000002e704                flash_manager_action_queue_empty_cb_set
 .text.ccm_soft_crypt.constprop.0
                0x000000000002e724      0x274 CMakeFiles/pb_remote_server_nrf52832_xxAA_s132_6.0.0.dir/__/__/__/mesh/core/src/ccm_soft.c.obj
 .text.ccm_soft_authenticate
                0x000000000002e998      0x308 CMakeFiles/pb_remote_server_nrf52832_xxAA_s132_6.0.0.dir/__/__/__/mesh/core/src/ccm_soft.c.obj
 .text.ccm_soft_encrypt
                0x000000000002eca0       0x7c CMakeFiles/pb_remote_server_nrf52832_xxAA_s132_6.0.0.dir/__/__/__/mesh/core/src/ccm_soft.c.obj
                0x000000000002eca0                ccm_soft_encrypt
 .text.ccm_soft_decrypt
                0x000000000002ed1c      0x114 CMakeFiles/pb_remote_server_nrf52832_xxAA_s132_6.0.0.dir/__/__/__/mesh/core/src/ccm_soft.c.obj
                0x000000000002ed1c                ccm_soft_decrypt
 .text.replay_cache_init
                0x000000000002ee30       0x20 CMakeFiles/pb_remote_server_nrf52832_xxAA_s132_6.0.0.dir/__/__/__/mesh/core/src/replay_cache.c.obj
                0x000000000002ee30                replay_cache_init
 .text.replay_cache_add
                0x000000000002ee50       0x60 CMakeFiles/pb_remote_server_nrf52832_xxAA_s132_6.0.0.dir/__/__/__/mesh/core/src/replay_cache.c.obj
                0x000000000002ee50                replay_cache_add
 .text.replay_cache_has_elem
                0x000000000002eeb0       0x40 CMakeFiles/pb_remote_server_nrf52832_xxAA_s132_6.0.0.dir/__/__/__/mesh/core/src/replay_cache.c.obj
                0x000000000002eeb0                replay_cache_has_elem
 .text.beacon_create
                0x000000000002eef0       0x50 CMakeFiles/pb_remote_server_nrf52832_xxAA_s132_6.0.0.dir/__/__/__/mesh/core/src/beacon.c.obj
                0x000000000002eef0                beacon_create
 .text.beacon_packet_in
                0x000000000002ef40      0x178 CMakeFiles/pb_remote_server_nrf52832_xxAA_s132_6.0.0.dir/__/__/__/mesh/core/src/beacon.c.obj
                0x000000000002ef40                beacon_packet_in
 .text.entry_get
                0x000000000002f0b8       0x7c CMakeFiles/pb_remote_server_nrf52832_xxAA_s132_6.0.0.dir/__/__/__/mesh/core/src/flash_manager_internal.c.obj
                0x000000000002f0b8                entry_get
 .text.core_tx_complete_cb_set
                0x000000000002f134        0xc CMakeFiles/pb_remote_server_nrf52832_xxAA_s132_6.0.0.dir/__/__/__/mesh/core/src/core_tx.c.obj
                0x000000000002f134                core_tx_complete_cb_set
 .text.core_tx_packet_alloc
                0x000000000002f140       0xc0 CMakeFiles/pb_remote_server_nrf52832_xxAA_s132_6.0.0.dir/__/__/__/mesh/core/src/core_tx.c.obj
                0x000000000002f140                core_tx_packet_alloc
 .text.core_tx_packet_send
                0x000000000002f200       0x5c CMakeFiles/pb_remote_server_nrf52832_xxAA_s132_6.0.0.dir/__/__/__/mesh/core/src/core_tx.c.obj
                0x000000000002f200                core_tx_packet_send
 .text.core_tx_packet_discard
                0x000000000002f25c       0x54 CMakeFiles/pb_remote_server_nrf52832_xxAA_s132_6.0.0.dir/__/__/__/mesh/core/src/core_tx.c.obj
                0x000000000002f25c                core_tx_packet_discard
 .text.core_tx_complete
                0x000000000002f2b0       0x38 CMakeFiles/pb_remote_server_nrf52832_xxAA_s132_6.0.0.dir/__/__/__/mesh/core/src/core_tx.c.obj
                0x000000000002f2b0                core_tx_complete
 .text.core_tx_bearer_add
                0x000000000002f2e8       0x90 CMakeFiles/pb_remote_server_nrf52832_xxAA_s132_6.0.0.dir/__/__/__/mesh/core/src/core_tx.c.obj
                0x000000000002f2e8                core_tx_bearer_add
 .text.heartbeat_subscription_timer_cb
                0x000000000002f378       0x1c CMakeFiles/pb_remote_server_nrf52832_xxAA_s132_6.0.0.dir/__/__/__/mesh/core/src/heartbeat.c.obj
 .text.heartbeat_opcode_handle
                0x000000000002f394       0x8c CMakeFiles/pb_remote_server_nrf52832_xxAA_s132_6.0.0.dir/__/__/__/mesh/core/src/heartbeat.c.obj
 .text.heartbeat_send
                0x000000000002f420       0xbc CMakeFiles/pb_remote_server_nrf52832_xxAA_s132_6.0.0.dir/__/__/__/mesh/core/src/heartbeat.c.obj
 .text.heartbeat_core_evt_cb
                0x000000000002f4dc       0x94 CMakeFiles/pb_remote_server_nrf52832_xxAA_s132_6.0.0.dir/__/__/__/mesh/core/src/heartbeat.c.obj
 .text.heartbeat_publication_timer_cb
                0x000000000002f570       0xb0 CMakeFiles/pb_remote_server_nrf52832_xxAA_s132_6.0.0.dir/__/__/__/mesh/core/src/heartbeat.c.obj
 .text.heartbeat_on_feature_change_trigger
                0x000000000002f620       0x48 CMakeFiles/pb_remote_server_nrf52832_xxAA_s132_6.0.0.dir/__/__/__/mesh/core/src/heartbeat.c.obj
                0x000000000002f620                heartbeat_on_feature_change_trigger
 .text.heartbeat_init
                0x000000000002f668       0x7c CMakeFiles/pb_remote_server_nrf52832_xxAA_s132_6.0.0.dir/__/__/__/mesh/core/src/heartbeat.c.obj
                0x000000000002f668                heartbeat_init
 .text.heartbeat_subscription_set
                0x000000000002f6e4       0xa4 CMakeFiles/pb_remote_server_nrf52832_xxAA_s132_6.0.0.dir/__/__/__/mesh/core/src/heartbeat.c.obj
                0x000000000002f6e4                heartbeat_subscription_set
 .text.heartbeat_subscription_get
                0x000000000002f788        0x8 CMakeFiles/pb_remote_server_nrf52832_xxAA_s132_6.0.0.dir/__/__/__/mesh/core/src/heartbeat.c.obj
                0x000000000002f788                heartbeat_subscription_get
 .text.heartbeat_config_server_cb_set
                0x000000000002f790       0x30 CMakeFiles/pb_remote_server_nrf52832_xxAA_s132_6.0.0.dir/__/__/__/mesh/core/src/heartbeat.c.obj
                0x000000000002f790                heartbeat_config_server_cb_set
 .text.heartbeat_publication_state_updated
                0x000000000002f7c0       0x78 CMakeFiles/pb_remote_server_nrf52832_xxAA_s132_6.0.0.dir/__/__/__/mesh/core/src/heartbeat.c.obj
                0x000000000002f7c0                heartbeat_publication_state_updated
 .text.beacon_tx
                0x000000000002f838      0x194 CMakeFiles/pb_remote_server_nrf52832_xxAA_s132_6.0.0.dir/__/__/__/mesh/core/src/net_beacon.c.obj
 .text.tx_complete_cb
                0x000000000002f9cc       0x10 CMakeFiles/pb_remote_server_nrf52832_xxAA_s132_6.0.0.dir/__/__/__/mesh/core/src/net_beacon.c.obj
 .text.beacon_tx_timeout
                0x000000000002f9dc        0x4 CMakeFiles/pb_remote_server_nrf52832_xxAA_s132_6.0.0.dir/__/__/__/mesh/core/src/net_beacon.c.obj
 .text.net_beacon_init
                0x000000000002f9e0       0x94 CMakeFiles/pb_remote_server_nrf52832_xxAA_s132_6.0.0.dir/__/__/__/mesh/core/src/net_beacon.c.obj
                0x000000000002f9e0                net_beacon_init
 .text.net_beacon_state_set
                0x000000000002fa74       0x3c CMakeFiles/pb_remote_server_nrf52832_xxAA_s132_6.0.0.dir/__/__/__/mesh/core/src/net_beacon.c.obj
                0x000000000002fa74                net_beacon_state_set
 .text.net_beacon_state_get
                0x000000000002fab0        0xc CMakeFiles/pb_remote_server_nrf52832_xxAA_s132_6.0.0.dir/__/__/__/mesh/core/src/net_beacon.c.obj
                0x000000000002fab0                net_beacon_state_get
 .text.net_beacon_packet_in
                0x000000000002fabc      0x134 CMakeFiles/pb_remote_server_nrf52832_xxAA_s132_6.0.0.dir/__/__/__/mesh/core/src/net_beacon.c.obj
                0x000000000002fabc                net_beacon_packet_in
 .text.packet_discard
                0x000000000002fbf0       0x40 CMakeFiles/pb_remote_server_nrf52832_xxAA_s132_6.0.0.dir/__/__/__/mesh/core/src/core_tx_adv.c.obj
 .text.packet_send
                0x000000000002fc30       0x58 CMakeFiles/pb_remote_server_nrf52832_xxAA_s132_6.0.0.dir/__/__/__/mesh/core/src/core_tx_adv.c.obj
 .text.packet_alloc
                0x000000000002fc88       0x5c CMakeFiles/pb_remote_server_nrf52832_xxAA_s132_6.0.0.dir/__/__/__/mesh/core/src/core_tx_adv.c.obj
 .text.adv_tx_complete_callback
                0x000000000002fce4       0x28 CMakeFiles/pb_remote_server_nrf52832_xxAA_s132_6.0.0.dir/__/__/__/mesh/core/src/core_tx_adv.c.obj
 .text.core_tx_adv_init
                0x000000000002fd0c       0x60 CMakeFiles/pb_remote_server_nrf52832_xxAA_s132_6.0.0.dir/__/__/__/mesh/core/src/core_tx_adv.c.obj
                0x000000000002fd0c                core_tx_adv_init
 .text.core_tx_adv_count_set
                0x000000000002fd6c       0x2c CMakeFiles/pb_remote_server_nrf52832_xxAA_s132_6.0.0.dir/__/__/__/mesh/core/src/core_tx_adv.c.obj
                0x000000000002fd6c                core_tx_adv_count_set
 .text.core_tx_adv_count_get
                0x000000000002fd98       0x20 CMakeFiles/pb_remote_server_nrf52832_xxAA_s132_6.0.0.dir/__/__/__/mesh/core/src/core_tx_adv.c.obj
                0x000000000002fd98                core_tx_adv_count_get
 .text.core_tx_adv_interval_set
                0x000000000002fdb8       0x28 CMakeFiles/pb_remote_server_nrf52832_xxAA_s132_6.0.0.dir/__/__/__/mesh/core/src/core_tx_adv.c.obj
                0x000000000002fdb8                core_tx_adv_interval_set
 .text.core_tx_adv_interval_get
                0x000000000002fde0       0x2c CMakeFiles/pb_remote_server_nrf52832_xxAA_s132_6.0.0.dir/__/__/__/mesh/core/src/core_tx_adv.c.obj
                0x000000000002fde0                core_tx_adv_interval_get
 .text.ad_listener_subscribe
                0x000000000002fe0c       0x60 CMakeFiles/pb_remote_server_nrf52832_xxAA_s132_6.0.0.dir/__/__/__/mesh/bearer/src/ad_listener.c.obj
                0x000000000002fe0c                ad_listener_subscribe
 .text.ad_listener_process
                0x000000000002fe6c       0x84 CMakeFiles/pb_remote_server_nrf52832_xxAA_s132_6.0.0.dir/__/__/__/mesh/bearer/src/ad_listener.c.obj
                0x000000000002fe6c                ad_listener_process
 .text.adtype_filter_handle
                0x000000000002fef0       0x94 CMakeFiles/pb_remote_server_nrf52832_xxAA_s132_6.0.0.dir/__/__/__/mesh/bearer/src/ad_type_filter.c.obj
 .text.bearer_adtype_filtering_set
                0x000000000002ff84       0x1c CMakeFiles/pb_remote_server_nrf52832_xxAA_s132_6.0.0.dir/__/__/__/mesh/bearer/src/ad_type_filter.c.obj
                0x000000000002ff84                bearer_adtype_filtering_set
 .text.bearer_adtype_add
                0x000000000002ffa0       0x24 CMakeFiles/pb_remote_server_nrf52832_xxAA_s132_6.0.0.dir/__/__/__/mesh/bearer/src/ad_type_filter.c.obj
                0x000000000002ffa0                bearer_adtype_add
 .text.bearer_adtype_mode_set
                0x000000000002ffc4       0x18 CMakeFiles/pb_remote_server_nrf52832_xxAA_s132_6.0.0.dir/__/__/__/mesh/bearer/src/ad_type_filter.c.obj
                0x000000000002ffc4                bearer_adtype_mode_set
 .text.tx_complete_event_callback
                0x000000000002ffdc       0x34 CMakeFiles/pb_remote_server_nrf52832_xxAA_s132_6.0.0.dir/__/__/__/mesh/bearer/src/advertiser.c.obj
 .text.broadcast_complete_cb
                0x0000000000030010       0x48 CMakeFiles/pb_remote_server_nrf52832_xxAA_s132_6.0.0.dir/__/__/__/mesh/bearer/src/advertiser.c.obj
 .text.timeout_event
                0x0000000000030058      0x12c CMakeFiles/pb_remote_server_nrf52832_xxAA_s132_6.0.0.dir/__/__/__/mesh/bearer/src/advertiser.c.obj
 .text.advertiser_init
                0x0000000000030184        0xc CMakeFiles/pb_remote_server_nrf52832_xxAA_s132_6.0.0.dir/__/__/__/mesh/bearer/src/advertiser.c.obj
                0x0000000000030184                advertiser_init
 .text.advertiser_instance_init
                0x0000000000030190      0x100 CMakeFiles/pb_remote_server_nrf52832_xxAA_s132_6.0.0.dir/__/__/__/mesh/bearer/src/advertiser.c.obj
                0x0000000000030190                advertiser_instance_init
 .text.advertiser_enable
                0x0000000000030290       0x44 CMakeFiles/pb_remote_server_nrf52832_xxAA_s132_6.0.0.dir/__/__/__/mesh/bearer/src/advertiser.c.obj
                0x0000000000030290                advertiser_enable
 .text.advertiser_packet_alloc
                0x00000000000302d4       0x80 CMakeFiles/pb_remote_server_nrf52832_xxAA_s132_6.0.0.dir/__/__/__/mesh/bearer/src/advertiser.c.obj
                0x00000000000302d4                advertiser_packet_alloc
 .text.advertiser_packet_send
                0x0000000000030354       0x84 CMakeFiles/pb_remote_server_nrf52832_xxAA_s132_6.0.0.dir/__/__/__/mesh/bearer/src/advertiser.c.obj
                0x0000000000030354                advertiser_packet_send
 .text.advertiser_packet_discard
                0x00000000000303d8       0x2c CMakeFiles/pb_remote_server_nrf52832_xxAA_s132_6.0.0.dir/__/__/__/mesh/bearer/src/advertiser.c.obj
                0x00000000000303d8                advertiser_packet_discard
 .text.advertiser_interval_set
                0x0000000000030404       0x6c CMakeFiles/pb_remote_server_nrf52832_xxAA_s132_6.0.0.dir/__/__/__/mesh/bearer/src/advertiser.c.obj
                0x0000000000030404                advertiser_interval_set
 .text.advertiser_flush
                0x0000000000030470       0x20 CMakeFiles/pb_remote_server_nrf52832_xxAA_s132_6.0.0.dir/__/__/__/mesh/bearer/src/advertiser.c.obj
                0x0000000000030470                advertiser_flush
 .text.action_switch.part.2
                0x0000000000030490       0xb4 CMakeFiles/pb_remote_server_nrf52832_xxAA_s132_6.0.0.dir/__/__/__/mesh/bearer/src/bearer_handler.c.obj
 .text.bearer_handler_init
                0x0000000000030544       0x2c CMakeFiles/pb_remote_server_nrf52832_xxAA_s132_6.0.0.dir/__/__/__/mesh/bearer/src/bearer_handler.c.obj
                0x0000000000030544                bearer_handler_init
 .text.bearer_handler_start
                0x0000000000030570       0x1c CMakeFiles/pb_remote_server_nrf52832_xxAA_s132_6.0.0.dir/__/__/__/mesh/bearer/src/bearer_handler.c.obj
                0x0000000000030570                bearer_handler_start
 .text.bearer_handler_action_enqueue
                0x000000000003058c       0x88 CMakeFiles/pb_remote_server_nrf52832_xxAA_s132_6.0.0.dir/__/__/__/mesh/bearer/src/bearer_handler.c.obj
                0x000000000003058c                bearer_handler_action_enqueue
 .text.bearer_handler_action_end
                0x0000000000030614       0x68 CMakeFiles/pb_remote_server_nrf52832_xxAA_s132_6.0.0.dir/__/__/__/mesh/bearer/src/bearer_handler.c.obj
                0x0000000000030614                bearer_handler_action_end
 .text.bearer_handler_radio_irq_handler
                0x000000000003067c       0x58 CMakeFiles/pb_remote_server_nrf52832_xxAA_s132_6.0.0.dir/__/__/__/mesh/bearer/src/bearer_handler.c.obj
                0x000000000003067c                bearer_handler_radio_irq_handler
 .text.bearer_handler_timer_irq_handler
                0x00000000000306d4       0x34 CMakeFiles/pb_remote_server_nrf52832_xxAA_s132_6.0.0.dir/__/__/__/mesh/bearer/src/bearer_handler.c.obj
                0x00000000000306d4                bearer_handler_timer_irq_handler
 .text.bearer_handler_on_ts_begin
                0x0000000000030708       0x3c CMakeFiles/pb_remote_server_nrf52832_xxAA_s132_6.0.0.dir/__/__/__/mesh/bearer/src/bearer_handler.c.obj
                0x0000000000030708                bearer_handler_on_ts_begin
 .text.bearer_handler_on_ts_end
                0x0000000000030744       0x38 CMakeFiles/pb_remote_server_nrf52832_xxAA_s132_6.0.0.dir/__/__/__/mesh/bearer/src/bearer_handler.c.obj
                0x0000000000030744                bearer_handler_on_ts_end
 .text.radio_irq_handler
                0x000000000003077c       0x98 CMakeFiles/pb_remote_server_nrf52832_xxAA_s132_6.0.0.dir/__/__/__/mesh/bearer/src/broadcast.c.obj
 .text.broadcast_start
                0x0000000000030814       0x8c CMakeFiles/pb_remote_server_nrf52832_xxAA_s132_6.0.0.dir/__/__/__/mesh/bearer/src/broadcast.c.obj
 .text.broadcast_send
                0x00000000000308a0       0x74 CMakeFiles/pb_remote_server_nrf52832_xxAA_s132_6.0.0.dir/__/__/__/mesh/bearer/src/broadcast.c.obj
                0x00000000000308a0                broadcast_send
 .text.fen_filter_start
                0x0000000000030914       0x38 CMakeFiles/pb_remote_server_nrf52832_xxAA_s132_6.0.0.dir/__/__/__/mesh/bearer/src/filter_engine.c.obj
                0x0000000000030914                fen_filter_start
 .text.fen_filter_stop
                0x000000000003094c       0x2c CMakeFiles/pb_remote_server_nrf52832_xxAA_s132_6.0.0.dir/__/__/__/mesh/bearer/src/filter_engine.c.obj
                0x000000000003094c                fen_filter_stop
 .text.fen_filters_apply
                0x0000000000030978       0x34 CMakeFiles/pb_remote_server_nrf52832_xxAA_s132_6.0.0.dir/__/__/__/mesh/bearer/src/filter_engine.c.obj
                0x0000000000030978                fen_filters_apply
 .text.radio_config_reset
                0x00000000000309ac       0x38 CMakeFiles/pb_remote_server_nrf52832_xxAA_s132_6.0.0.dir/__/__/__/mesh/bearer/src/radio_config.c.obj
                0x00000000000309ac                radio_config_reset
 .text.radio_config_channel_set
                0x00000000000309e4       0x28 CMakeFiles/pb_remote_server_nrf52832_xxAA_s132_6.0.0.dir/__/__/__/mesh/bearer/src/radio_config.c.obj
                0x00000000000309e4                radio_config_channel_set
 .text.radio_config_config
                0x0000000000030a0c       0x94 CMakeFiles/pb_remote_server_nrf52832_xxAA_s132_6.0.0.dir/__/__/__/mesh/bearer/src/radio_config.c.obj
                0x0000000000030a0c                radio_config_config
 .text.radio_config_access_addr_set
                0x0000000000030aa0       0x58 CMakeFiles/pb_remote_server_nrf52832_xxAA_s132_6.0.0.dir/__/__/__/mesh/bearer/src/radio_config.c.obj
                0x0000000000030aa0                radio_config_access_addr_set
 .text.scan_window_end
                0x0000000000030af8       0x28 CMakeFiles/pb_remote_server_nrf52832_xxAA_s132_6.0.0.dir/__/__/__/mesh/bearer/src/scanner.c.obj
 .text.scan_window_start
                0x0000000000030b20       0x38 CMakeFiles/pb_remote_server_nrf52832_xxAA_s132_6.0.0.dir/__/__/__/mesh/bearer/src/scanner.c.obj
 .text.radio_start
                0x0000000000030b58      0x1a8 CMakeFiles/pb_remote_server_nrf52832_xxAA_s132_6.0.0.dir/__/__/__/mesh/bearer/src/scanner.c.obj
 .text.scanner_radio_start
                0x0000000000030d00      0x14c CMakeFiles/pb_remote_server_nrf52832_xxAA_s132_6.0.0.dir/__/__/__/mesh/bearer/src/scanner.c.obj
                0x0000000000030d00                scanner_radio_start
 .text.scanner_radio_stop
                0x0000000000030e4c       0x34 CMakeFiles/pb_remote_server_nrf52832_xxAA_s132_6.0.0.dir/__/__/__/mesh/bearer/src/scanner.c.obj
                0x0000000000030e4c                scanner_radio_stop
 .text.scanner_radio_irq_handler
                0x0000000000030e80      0x200 CMakeFiles/pb_remote_server_nrf52832_xxAA_s132_6.0.0.dir/__/__/__/mesh/bearer/src/scanner.c.obj
                0x0000000000030e80                scanner_radio_irq_handler
 .text.scanner_enable
                0x0000000000031080       0x50 CMakeFiles/pb_remote_server_nrf52832_xxAA_s132_6.0.0.dir/__/__/__/mesh/bearer/src/scanner.c.obj
                0x0000000000031080                scanner_enable
 .text.scanner_rx
                0x00000000000310d0       0x8c CMakeFiles/pb_remote_server_nrf52832_xxAA_s132_6.0.0.dir/__/__/__/mesh/bearer/src/scanner.c.obj
                0x00000000000310d0                scanner_rx
 .text.scanner_packet_release
                0x000000000003115c       0x40 CMakeFiles/pb_remote_server_nrf52832_xxAA_s132_6.0.0.dir/__/__/__/mesh/bearer/src/scanner.c.obj
                0x000000000003115c                scanner_packet_release
 .text.scanner_rx_pending
                0x000000000003119c        0xc CMakeFiles/pb_remote_server_nrf52832_xxAA_s132_6.0.0.dir/__/__/__/mesh/bearer/src/scanner.c.obj
                0x000000000003119c                scanner_rx_pending
 .text.scanner_config_reset
                0x00000000000311a8       0xa4 CMakeFiles/pb_remote_server_nrf52832_xxAA_s132_6.0.0.dir/__/__/__/mesh/bearer/src/scanner.c.obj
                0x00000000000311a8                scanner_config_reset
 .text.scanner_init
                0x000000000003124c       0x54 CMakeFiles/pb_remote_server_nrf52832_xxAA_s132_6.0.0.dir/__/__/__/mesh/bearer/src/scanner.c.obj
                0x000000000003124c                scanner_init
 .text.prov_provisionee_cb_link_established
                0x00000000000312a0       0x40 CMakeFiles/pb_remote_server_nrf52832_xxAA_s132_6.0.0.dir/__/__/__/mesh/prov/src/prov_provisionee.c.obj
 .text.prov_provisionee_cb_link_closed
                0x00000000000312e0       0x50 CMakeFiles/pb_remote_server_nrf52832_xxAA_s132_6.0.0.dir/__/__/__/mesh/prov/src/prov_provisionee.c.obj
 .text.request_authentication
                0x0000000000031330       0x90 CMakeFiles/pb_remote_server_nrf52832_xxAA_s132_6.0.0.dir/__/__/__/mesh/prov/src/prov_provisionee.c.obj
 .text.send_failed
                0x00000000000313c0       0x38 CMakeFiles/pb_remote_server_nrf52832_xxAA_s132_6.0.0.dir/__/__/__/mesh/prov/src/prov_provisionee.c.obj
 .text.prov_provisionee_cb_ack_received
                0x00000000000313f8      0x174 CMakeFiles/pb_remote_server_nrf52832_xxAA_s132_6.0.0.dir/__/__/__/mesh/prov/src/prov_provisionee.c.obj
 .text.prov_provisionee_pkt_in
                0x000000000003156c      0x428 CMakeFiles/pb_remote_server_nrf52832_xxAA_s132_6.0.0.dir/__/__/__/mesh/prov/src/prov_provisionee.c.obj
 .text.prov_provisionee_listen
                0x0000000000031994       0x34 CMakeFiles/pb_remote_server_nrf52832_xxAA_s132_6.0.0.dir/__/__/__/mesh/prov/src/prov_provisionee.c.obj
                0x0000000000031994                prov_provisionee_listen
 .text.prov_provisionee_auth_data
                0x00000000000319c8      0x100 CMakeFiles/pb_remote_server_nrf52832_xxAA_s132_6.0.0.dir/__/__/__/mesh/prov/src/prov_provisionee.c.obj
                0x00000000000319c8                prov_provisionee_auth_data
 .text.bearer_compare_callback
                0x0000000000031ac8       0x10 CMakeFiles/pb_remote_server_nrf52832_xxAA_s132_6.0.0.dir/__/__/__/mesh/prov/src/nrf_mesh_prov.c.obj
 .text.nrf_mesh_prov_init
                0x0000000000031ad8       0x3c CMakeFiles/pb_remote_server_nrf52832_xxAA_s132_6.0.0.dir/__/__/__/mesh/prov/src/nrf_mesh_prov.c.obj
                0x0000000000031ad8                nrf_mesh_prov_init
 .text.nrf_mesh_prov_bearer_add
                0x0000000000031b14       0x2c CMakeFiles/pb_remote_server_nrf52832_xxAA_s132_6.0.0.dir/__/__/__/mesh/prov/src/nrf_mesh_prov.c.obj
                0x0000000000031b14                nrf_mesh_prov_bearer_add
 .text.nrf_mesh_prov_generate_keys
                0x0000000000031b40        0x4 CMakeFiles/pb_remote_server_nrf52832_xxAA_s132_6.0.0.dir/__/__/__/mesh/prov/src/nrf_mesh_prov.c.obj
                0x0000000000031b40                nrf_mesh_prov_generate_keys
 .text.nrf_mesh_prov_listen
                0x0000000000031b44       0xf0 CMakeFiles/pb_remote_server_nrf52832_xxAA_s132_6.0.0.dir/__/__/__/mesh/prov/src/nrf_mesh_prov.c.obj
                0x0000000000031b44                nrf_mesh_prov_listen
 .text.nrf_mesh_prov_auth_data_provide
                0x0000000000031c34       0x10 CMakeFiles/pb_remote_server_nrf52832_xxAA_s132_6.0.0.dir/__/__/__/mesh/prov/src/nrf_mesh_prov.c.obj
                0x0000000000031c34                nrf_mesh_prov_auth_data_provide
 .text.nrf_mesh_prov_scan_start
                0x0000000000031c44       0x10 CMakeFiles/pb_remote_server_nrf52832_xxAA_s132_6.0.0.dir/__/__/__/mesh/prov/src/nrf_mesh_prov.c.obj
                0x0000000000031c44                nrf_mesh_prov_scan_start
 .text.nrf_mesh_prov_scan_stop
                0x0000000000031c54        0x4 CMakeFiles/pb_remote_server_nrf52832_xxAA_s132_6.0.0.dir/__/__/__/mesh/prov/src/nrf_mesh_prov.c.obj
                0x0000000000031c54                nrf_mesh_prov_scan_stop
 .text.prov_packet_length_valid
                0x0000000000031c58       0x20 CMakeFiles/pb_remote_server_nrf52832_xxAA_s132_6.0.0.dir/__/__/__/mesh/prov/src/provisioning.c.obj
                0x0000000000031c58                prov_packet_length_valid
 .text.prov_tx_capabilities
                0x0000000000031c78       0x38 CMakeFiles/pb_remote_server_nrf52832_xxAA_s132_6.0.0.dir/__/__/__/mesh/prov/src/provisioning.c.obj
                0x0000000000031c78                prov_tx_capabilities
 .text.prov_tx_public_key
                0x0000000000031cb0       0x30 CMakeFiles/pb_remote_server_nrf52832_xxAA_s132_6.0.0.dir/__/__/__/mesh/prov/src/provisioning.c.obj
                0x0000000000031cb0                prov_tx_public_key
 .text.prov_tx_input_complete
                0x0000000000031ce0       0x28 CMakeFiles/pb_remote_server_nrf52832_xxAA_s132_6.0.0.dir/__/__/__/mesh/prov/src/provisioning.c.obj
                0x0000000000031ce0                prov_tx_input_complete
 .text.prov_tx_confirmation
                0x0000000000031d08       0x30 CMakeFiles/pb_remote_server_nrf52832_xxAA_s132_6.0.0.dir/__/__/__/mesh/prov/src/provisioning.c.obj
                0x0000000000031d08                prov_tx_confirmation
 .text.prov_tx_random
                0x0000000000031d38       0x30 CMakeFiles/pb_remote_server_nrf52832_xxAA_s132_6.0.0.dir/__/__/__/mesh/prov/src/provisioning.c.obj
                0x0000000000031d38                prov_tx_random
 .text.prov_tx_complete
                0x0000000000031d68       0x28 CMakeFiles/pb_remote_server_nrf52832_xxAA_s132_6.0.0.dir/__/__/__/mesh/prov/src/provisioning.c.obj
                0x0000000000031d68                prov_tx_complete
 .text.prov_tx_failed
                0x0000000000031d90       0x2c CMakeFiles/pb_remote_server_nrf52832_xxAA_s132_6.0.0.dir/__/__/__/mesh/prov/src/provisioning.c.obj
                0x0000000000031d90                prov_tx_failed
 .text.prov_beacon_unprov_build
                0x0000000000031dbc       0x54 CMakeFiles/pb_remote_server_nrf52832_xxAA_s132_6.0.0.dir/__/__/__/mesh/prov/src/prov_beacon.c.obj
                0x0000000000031dbc                prov_beacon_unprov_build
 .text.prov_beacon_unprov_packet_in
                0x0000000000031e10       0xd0 CMakeFiles/pb_remote_server_nrf52832_xxAA_s132_6.0.0.dir/__/__/__/mesh/prov/src/prov_beacon.c.obj
                0x0000000000031e10                prov_beacon_unprov_packet_in
 .text.prov_beacon_scan_start
                0x0000000000031ee0       0x1c CMakeFiles/pb_remote_server_nrf52832_xxAA_s132_6.0.0.dir/__/__/__/mesh/prov/src/prov_beacon.c.obj
                0x0000000000031ee0                prov_beacon_scan_start
 .text.prov_beacon_scan_stop
                0x0000000000031efc        0xc CMakeFiles/pb_remote_server_nrf52832_xxAA_s132_6.0.0.dir/__/__/__/mesh/prov/src/prov_beacon.c.obj
                0x0000000000031efc                prov_beacon_scan_stop
 .text.prov_utils_opt_set
                0x0000000000031f08       0x24 CMakeFiles/pb_remote_server_nrf52832_xxAA_s132_6.0.0.dir/__/__/__/mesh/prov/src/prov_utils.c.obj
                0x0000000000031f08                prov_utils_opt_set
 .text.prov_utils_opt_get
                0x0000000000031f2c       0x1c CMakeFiles/pb_remote_server_nrf52832_xxAA_s132_6.0.0.dir/__/__/__/mesh/prov/src/prov_utils.c.obj
                0x0000000000031f2c                prov_utils_opt_get
 .text.prov_utils_use_ecdh_offloading
                0x0000000000031f48        0xc CMakeFiles/pb_remote_server_nrf52832_xxAA_s132_6.0.0.dir/__/__/__/mesh/prov/src/prov_utils.c.obj
                0x0000000000031f48                prov_utils_use_ecdh_offloading
 .text.prov_utils_authentication_values_derive
                0x0000000000031f54       0xac CMakeFiles/pb_remote_server_nrf52832_xxAA_s132_6.0.0.dir/__/__/__/mesh/prov/src/prov_utils.c.obj
                0x0000000000031f54                prov_utils_authentication_values_derive
 .text.prov_utils_keys_generate
                0x0000000000032000       0x20 CMakeFiles/pb_remote_server_nrf52832_xxAA_s132_6.0.0.dir/__/__/__/mesh/prov/src/prov_utils.c.obj
                0x0000000000032000                prov_utils_keys_generate
 .text.prov_utils_derive_keys
                0x0000000000032020       0xb4 CMakeFiles/pb_remote_server_nrf52832_xxAA_s132_6.0.0.dir/__/__/__/mesh/prov/src/prov_utils.c.obj
                0x0000000000032020                prov_utils_derive_keys
 .text.prov_utils_calculate_shared_secret
                0x00000000000320d4       0x34 CMakeFiles/pb_remote_server_nrf52832_xxAA_s132_6.0.0.dir/__/__/__/mesh/prov/src/prov_utils.c.obj
                0x00000000000320d4                prov_utils_calculate_shared_secret
 .text.prov_utils_generate_oob_data
                0x0000000000032108      0x1b8 CMakeFiles/pb_remote_server_nrf52832_xxAA_s132_6.0.0.dir/__/__/__/mesh/prov/src/prov_utils.c.obj
                0x0000000000032108                prov_utils_generate_oob_data
 .text.prov_utils_confirmation_check
                0x00000000000322c0       0x5c CMakeFiles/pb_remote_server_nrf52832_xxAA_s132_6.0.0.dir/__/__/__/mesh/prov/src/prov_utils.c.obj
                0x00000000000322c0                prov_utils_confirmation_check
 .text.link_timeout_cb
                0x000000000003231c       0x10 CMakeFiles/pb_remote_server_nrf52832_xxAA_s132_6.0.0.dir/__/__/__/mesh/prov/src/prov_bearer_adv.c.obj
 .text.prov_bearer_adv_listen_stop
                0x000000000003232c       0x98 CMakeFiles/pb_remote_server_nrf52832_xxAA_s132_6.0.0.dir/__/__/__/mesh/prov/src/prov_bearer_adv.c.obj
 .text.tx_complete_cb
                0x00000000000323c4       0x20 CMakeFiles/pb_remote_server_nrf52832_xxAA_s132_6.0.0.dir/__/__/__/mesh/prov/src/prov_bearer_adv.c.obj
 .text.prov_bearer_adv_listen
                0x00000000000323e4      0x15c CMakeFiles/pb_remote_server_nrf52832_xxAA_s132_6.0.0.dir/__/__/__/mesh/prov/src/prov_bearer_adv.c.obj
 .text.close_link
                0x0000000000032540       0xd8 CMakeFiles/pb_remote_server_nrf52832_xxAA_s132_6.0.0.dir/__/__/__/mesh/prov/src/prov_bearer_adv.c.obj
 .text.send_link_ack
                0x0000000000032618       0x70 CMakeFiles/pb_remote_server_nrf52832_xxAA_s132_6.0.0.dir/__/__/__/mesh/prov/src/prov_bearer_adv.c.obj
 .text.send_transaction_ack
                0x0000000000032688       0x68 CMakeFiles/pb_remote_server_nrf52832_xxAA_s132_6.0.0.dir/__/__/__/mesh/prov/src/prov_bearer_adv.c.obj
 .text.prov_buffer_rx
                0x00000000000326f0       0xa0 CMakeFiles/pb_remote_server_nrf52832_xxAA_s132_6.0.0.dir/__/__/__/mesh/prov/src/prov_bearer_adv.c.obj
 .text.prov_bearer_adv_link_open
                0x0000000000032790      0x1b8 CMakeFiles/pb_remote_server_nrf52832_xxAA_s132_6.0.0.dir/__/__/__/mesh/prov/src/prov_bearer_adv.c.obj
 .text.prov_bearer_adv_link_close
                0x0000000000032948       0xcc CMakeFiles/pb_remote_server_nrf52832_xxAA_s132_6.0.0.dir/__/__/__/mesh/prov/src/prov_bearer_adv.c.obj
 .text.prov_buffer_tx
                0x0000000000032a14      0x1e4 CMakeFiles/pb_remote_server_nrf52832_xxAA_s132_6.0.0.dir/__/__/__/mesh/prov/src/prov_bearer_adv.c.obj
 .text.tx_retry_cb
                0x0000000000032bf8      0x130 CMakeFiles/pb_remote_server_nrf52832_xxAA_s132_6.0.0.dir/__/__/__/mesh/prov/src/prov_bearer_adv.c.obj
 .text.prov_bearer_adv_tx
                0x0000000000032d28       0xe8 CMakeFiles/pb_remote_server_nrf52832_xxAA_s132_6.0.0.dir/__/__/__/mesh/prov/src/prov_bearer_adv.c.obj
 .text.async_process
                0x0000000000032e10      0x118 CMakeFiles/pb_remote_server_nrf52832_xxAA_s132_6.0.0.dir/__/__/__/mesh/prov/src/prov_bearer_adv.c.obj
 .text.nrf_mesh_prov_bearer_adv_interface_get
                0x0000000000032f28       0x40 CMakeFiles/pb_remote_server_nrf52832_xxAA_s132_6.0.0.dir/__/__/__/mesh/prov/src/prov_bearer_adv.c.obj
                0x0000000000032f28                nrf_mesh_prov_bearer_adv_interface_get
 .text.prov_bearer_adv_packet_in
                0x0000000000032f68      0x914 CMakeFiles/pb_remote_server_nrf52832_xxAA_s132_6.0.0.dir/__/__/__/mesh/prov/src/prov_bearer_adv.c.obj
                0x0000000000032f68                prov_bearer_adv_packet_in
 .text.pb_remote_server_event_transfer_status_cb
                0x000000000003387c      0x10c CMakeFiles/pb_remote_server_nrf52832_xxAA_s132_6.0.0.dir/__/__/__/models/pb_remote/src/pb_remote_server.c.obj
 .text.pb_remote_server_event_link_status_cb
                0x0000000000033988      0x210 CMakeFiles/pb_remote_server_nrf52832_xxAA_s132_6.0.0.dir/__/__/__/models/pb_remote/src/pb_remote_server.c.obj
 .text.pb_remote_server_event_scan_report_status_cb
                0x0000000000033b98       0x90 CMakeFiles/pb_remote_server_nrf52832_xxAA_s132_6.0.0.dir/__/__/__/models/pb_remote/src/pb_remote_server.c.obj
 .text.pb_remote_server_event_tx_failed_cb
                0x0000000000033c28       0x2c CMakeFiles/pb_remote_server_nrf52832_xxAA_s132_6.0.0.dir/__/__/__/models/pb_remote/src/pb_remote_server.c.obj
 .text.pb_remote_server_event_local_ack_cb
                0x0000000000033c54       0xc0 CMakeFiles/pb_remote_server_nrf52832_xxAA_s132_6.0.0.dir/__/__/__/models/pb_remote/src/pb_remote_server.c.obj
 .text.pb_remote_server_event_link_established_cb
                0x0000000000033d14       0xc4 CMakeFiles/pb_remote_server_nrf52832_xxAA_s132_6.0.0.dir/__/__/__/models/pb_remote/src/pb_remote_server.c.obj
 .text.pb_remote_server_event_local_packet_cb
                0x0000000000033dd8      0x168 CMakeFiles/pb_remote_server_nrf52832_xxAA_s132_6.0.0.dir/__/__/__/models/pb_remote/src/pb_remote_server.c.obj
 .text.pb_remote_server_event_link_closed_cb
                0x0000000000033f40      0x128 CMakeFiles/pb_remote_server_nrf52832_xxAA_s132_6.0.0.dir/__/__/__/models/pb_remote/src/pb_remote_server.c.obj
 .text.pb_remote_server_event_unprov_uuid_cb
                0x0000000000034068      0x200 CMakeFiles/pb_remote_server_nrf52832_xxAA_s132_6.0.0.dir/__/__/__/models/pb_remote/src/pb_remote_server.c.obj
 .text.pb_remote_server_event_scan_start_filter_cb
                0x0000000000034268      0x22c CMakeFiles/pb_remote_server_nrf52832_xxAA_s132_6.0.0.dir/__/__/__/models/pb_remote/src/pb_remote_server.c.obj
 .text.pb_remote_server_event_scan_start_cb
                0x0000000000034494       0xac CMakeFiles/pb_remote_server_nrf52832_xxAA_s132_6.0.0.dir/__/__/__/models/pb_remote/src/pb_remote_server.c.obj
 .text.pb_remote_server_event_scan_cancel_cb
                0x0000000000034540       0x88 CMakeFiles/pb_remote_server_nrf52832_xxAA_s132_6.0.0.dir/__/__/__/models/pb_remote/src/pb_remote_server.c.obj
 .text.local_link_open.isra.14
                0x00000000000345c8      0x124 CMakeFiles/pb_remote_server_nrf52832_xxAA_s132_6.0.0.dir/__/__/__/models/pb_remote/src/pb_remote_server.c.obj
 .text.pb_remote_server_event_link_close_cb
                0x00000000000346ec      0x110 CMakeFiles/pb_remote_server_nrf52832_xxAA_s132_6.0.0.dir/__/__/__/models/pb_remote/src/pb_remote_server.c.obj
 .text.pb_remote_server_process.part.4
                0x00000000000347fc      0x364 CMakeFiles/pb_remote_server_nrf52832_xxAA_s132_6.0.0.dir/__/__/__/models/pb_remote/src/pb_remote_server.c.obj
 .text.server_reliable_status_cb
                0x0000000000034b60      0x190 CMakeFiles/pb_remote_server_nrf52832_xxAA_s132_6.0.0.dir/__/__/__/models/pb_remote/src/pb_remote_server.c.obj
 .text.pb_adv_link_closed_cb
                0x0000000000034cf0       0x48 CMakeFiles/pb_remote_server_nrf52832_xxAA_s132_6.0.0.dir/__/__/__/models/pb_remote/src/pb_remote_server.c.obj
 .text.pb_adv_link_opened_cb
                0x0000000000034d38       0x40 CMakeFiles/pb_remote_server_nrf52832_xxAA_s132_6.0.0.dir/__/__/__/models/pb_remote/src/pb_remote_server.c.obj
 .text.pb_adv_ack_cb
                0x0000000000034d78       0x40 CMakeFiles/pb_remote_server_nrf52832_xxAA_s132_6.0.0.dir/__/__/__/models/pb_remote/src/pb_remote_server.c.obj
 .text.prov_evt_handler
                0x0000000000034db8       0x58 CMakeFiles/pb_remote_server_nrf52832_xxAA_s132_6.0.0.dir/__/__/__/models/pb_remote/src/pb_remote_server.c.obj
 .text.pb_adv_rx_cb
                0x0000000000034e10       0x60 CMakeFiles/pb_remote_server_nrf52832_xxAA_s132_6.0.0.dir/__/__/__/models/pb_remote/src/pb_remote_server.c.obj
 .text.pb_remote_server_event_packet_transfer_cb
                0x0000000000034e70      0x144 CMakeFiles/pb_remote_server_nrf52832_xxAA_s132_6.0.0.dir/__/__/__/models/pb_remote/src/pb_remote_server.c.obj
 .text.remote_server_access_rx_cb
                0x0000000000034fb4      0x200 CMakeFiles/pb_remote_server_nrf52832_xxAA_s132_6.0.0.dir/__/__/__/models/pb_remote/src/pb_remote_server.c.obj
 .text.pb_remote_server_event_link_open_cb
                0x00000000000351b4       0xb8 CMakeFiles/pb_remote_server_nrf52832_xxAA_s132_6.0.0.dir/__/__/__/models/pb_remote/src/pb_remote_server.c.obj
 .text.pb_remote_server_init
                0x000000000003526c       0xb0 CMakeFiles/pb_remote_server_nrf52832_xxAA_s132_6.0.0.dir/__/__/__/models/pb_remote/src/pb_remote_server.c.obj
                0x000000000003526c                pb_remote_server_init
 .text.pb_remote_server_enable
                0x000000000003531c       0x28 CMakeFiles/pb_remote_server_nrf52832_xxAA_s132_6.0.0.dir/__/__/__/models/pb_remote/src/pb_remote_server.c.obj
                0x000000000003531c                pb_remote_server_enable
 .text.pb_remote_server_prov_bearer_set
                0x0000000000035344       0x1c CMakeFiles/pb_remote_server_nrf52832_xxAA_s132_6.0.0.dir/__/__/__/models/pb_remote/src/pb_remote_server.c.obj
                0x0000000000035344                pb_remote_server_prov_bearer_set
 .text.schedule_publication_timer
                0x0000000000035360      0x2d0 CMakeFiles/pb_remote_server_nrf52832_xxAA_s132_6.0.0.dir/__/__/__/mesh/access/src/access_publish.c.obj
 .text.publish_timer_tick
                0x0000000000035630      0x140 CMakeFiles/pb_remote_server_nrf52832_xxAA_s132_6.0.0.dir/__/__/__/mesh/access/src/access_publish.c.obj
 .text.access_publish_init
                0x0000000000035770       0x38 CMakeFiles/pb_remote_server_nrf52832_xxAA_s132_6.0.0.dir/__/__/__/mesh/access/src/access_publish.c.obj
                0x0000000000035770                access_publish_init
 .text.access_publish_period_set
                0x00000000000357a8      0x118 CMakeFiles/pb_remote_server_nrf52832_xxAA_s132_6.0.0.dir/__/__/__/mesh/access/src/access_publish.c.obj
                0x00000000000357a8                access_publish_period_set
 .text.access_publish_period_get
                0x00000000000358c0       0x2c CMakeFiles/pb_remote_server_nrf52832_xxAA_s132_6.0.0.dir/__/__/__/mesh/access/src/access_publish.c.obj
                0x00000000000358c0                access_publish_period_get
 .text.flash_manager_mem_available
                0x00000000000358ec        0x4 CMakeFiles/pb_remote_server_nrf52832_xxAA_s132_6.0.0.dir/__/__/__/mesh/access/src/access.c.obj
 .text.flash_invalidate_complete
                0x00000000000358f0        0x8 CMakeFiles/pb_remote_server_nrf52832_xxAA_s132_6.0.0.dir/__/__/__/mesh/access/src/access.c.obj
 .text.access_flash_config_clear
                0x00000000000358f8       0x28 CMakeFiles/pb_remote_server_nrf52832_xxAA_s132_6.0.0.dir/__/__/__/mesh/access/src/access.c.obj
 .text.handle_incoming
                0x0000000000035920      0x198 CMakeFiles/pb_remote_server_nrf52832_xxAA_s132_6.0.0.dir/__/__/__/mesh/access/src/access.c.obj
 .text.mesh_evt_cb
                0x0000000000035ab8      0x158 CMakeFiles/pb_remote_server_nrf52832_xxAA_s132_6.0.0.dir/__/__/__/mesh/access/src/access.c.obj
 .text.add_flash_manager
                0x0000000000035c10       0x58 CMakeFiles/pb_remote_server_nrf52832_xxAA_s132_6.0.0.dir/__/__/__/mesh/access/src/access.c.obj
 .text.flash_write_complete
                0x0000000000035c68       0x4c CMakeFiles/pb_remote_server_nrf52832_xxAA_s132_6.0.0.dir/__/__/__/mesh/access/src/access.c.obj
 .text.access_flash_config_store
                0x0000000000035cb4      0x1ec CMakeFiles/pb_remote_server_nrf52832_xxAA_s132_6.0.0.dir/__/__/__/mesh/access/src/access.c.obj
                0x0000000000035cb4                access_flash_config_store
 .text.flash_remove_complete
                0x0000000000035ea0       0xcc CMakeFiles/pb_remote_server_nrf52832_xxAA_s132_6.0.0.dir/__/__/__/mesh/access/src/access.c.obj
 .text.access_flash_config_load
                0x0000000000035f6c      0x290 CMakeFiles/pb_remote_server_nrf52832_xxAA_s132_6.0.0.dir/__/__/__/mesh/access/src/access.c.obj
                0x0000000000035f6c                access_flash_config_load
 .text.access_clear
                0x00000000000361fc       0x70 CMakeFiles/pb_remote_server_nrf52832_xxAA_s132_6.0.0.dir/__/__/__/mesh/access/src/access.c.obj
                0x00000000000361fc                access_clear
 .text.access_init
                0x000000000003626c       0xb8 CMakeFiles/pb_remote_server_nrf52832_xxAA_s132_6.0.0.dir/__/__/__/mesh/access/src/access.c.obj
                0x000000000003626c                access_init
 .text.access_model_add
                0x0000000000036324      0x23c CMakeFiles/pb_remote_server_nrf52832_xxAA_s132_6.0.0.dir/__/__/__/mesh/access/src/access.c.obj
                0x0000000000036324                access_model_add
 .text.access_model_publish
                0x0000000000036560      0x3c8 CMakeFiles/pb_remote_server_nrf52832_xxAA_s132_6.0.0.dir/__/__/__/mesh/access/src/access.c.obj
                0x0000000000036560                access_model_publish
 .text.access_model_reply
                0x0000000000036928      0x3e4 CMakeFiles/pb_remote_server_nrf52832_xxAA_s132_6.0.0.dir/__/__/__/mesh/access/src/access.c.obj
                0x0000000000036928                access_model_reply
 .text.access_model_publish_address_set
                0x0000000000036d0c       0x3c CMakeFiles/pb_remote_server_nrf52832_xxAA_s132_6.0.0.dir/__/__/__/mesh/access/src/access.c.obj
                0x0000000000036d0c                access_model_publish_address_set
 .text.access_model_publish_address_get
                0x0000000000036d48       0x2c CMakeFiles/pb_remote_server_nrf52832_xxAA_s132_6.0.0.dir/__/__/__/mesh/access/src/access.c.obj
                0x0000000000036d48                access_model_publish_address_get
 .text.access_model_publish_retransmit_set
                0x0000000000036d74       0x58 CMakeFiles/pb_remote_server_nrf52832_xxAA_s132_6.0.0.dir/__/__/__/mesh/access/src/access.c.obj
                0x0000000000036d74                access_model_publish_retransmit_set
 .text.access_model_publish_retransmit_get
                0x0000000000036dcc       0x2c CMakeFiles/pb_remote_server_nrf52832_xxAA_s132_6.0.0.dir/__/__/__/mesh/access/src/access.c.obj
                0x0000000000036dcc                access_model_publish_retransmit_get
 .text.access_model_publish_period_set
                0x0000000000036df8       0x78 CMakeFiles/pb_remote_server_nrf52832_xxAA_s132_6.0.0.dir/__/__/__/mesh/access/src/access.c.obj
                0x0000000000036df8                access_model_publish_period_set
 .text.access_model_publish_period_get
                0x0000000000036e70       0x40 CMakeFiles/pb_remote_server_nrf52832_xxAA_s132_6.0.0.dir/__/__/__/mesh/access/src/access.c.obj
                0x0000000000036e70                access_model_publish_period_get
 .text.access_model_subscription_add
                0x0000000000036eb0       0x64 CMakeFiles/pb_remote_server_nrf52832_xxAA_s132_6.0.0.dir/__/__/__/mesh/access/src/access.c.obj
                0x0000000000036eb0                access_model_subscription_add
 .text.access_model_subscription_remove
                0x0000000000036f14       0x60 CMakeFiles/pb_remote_server_nrf52832_xxAA_s132_6.0.0.dir/__/__/__/mesh/access/src/access.c.obj
                0x0000000000036f14                access_model_subscription_remove
 .text.access_model_subscriptions_get
                0x0000000000036f74      0x134 CMakeFiles/pb_remote_server_nrf52832_xxAA_s132_6.0.0.dir/__/__/__/mesh/access/src/access.c.obj
                0x0000000000036f74                access_model_subscriptions_get
 .text.access_model_application_bind
                0x00000000000370a8       0x5c CMakeFiles/pb_remote_server_nrf52832_xxAA_s132_6.0.0.dir/__/__/__/mesh/access/src/access.c.obj
                0x00000000000370a8                access_model_application_bind
 .text.access_model_application_unbind
                0x0000000000037104       0x58 CMakeFiles/pb_remote_server_nrf52832_xxAA_s132_6.0.0.dir/__/__/__/mesh/access/src/access.c.obj
                0x0000000000037104                access_model_application_unbind
 .text.access_model_applications_get
                0x000000000003715c       0x54 CMakeFiles/pb_remote_server_nrf52832_xxAA_s132_6.0.0.dir/__/__/__/mesh/access/src/access.c.obj
                0x000000000003715c                access_model_applications_get
 .text.access_model_publish_application_set
                0x00000000000371b0       0x3c CMakeFiles/pb_remote_server_nrf52832_xxAA_s132_6.0.0.dir/__/__/__/mesh/access/src/access.c.obj
                0x00000000000371b0                access_model_publish_application_set
 .text.access_model_publish_application_get
                0x00000000000371ec       0x2c CMakeFiles/pb_remote_server_nrf52832_xxAA_s132_6.0.0.dir/__/__/__/mesh/access/src/access.c.obj
                0x00000000000371ec                access_model_publish_application_get
 .text.access_default_ttl_set
                0x0000000000037218       0x1c CMakeFiles/pb_remote_server_nrf52832_xxAA_s132_6.0.0.dir/__/__/__/mesh/access/src/access.c.obj
                0x0000000000037218                access_default_ttl_set
 .text.access_default_ttl_get
                0x0000000000037234        0xc CMakeFiles/pb_remote_server_nrf52832_xxAA_s132_6.0.0.dir/__/__/__/mesh/access/src/access.c.obj
                0x0000000000037234                access_default_ttl_get
 .text.access_model_publish_ttl_set
                0x0000000000037240       0x40 CMakeFiles/pb_remote_server_nrf52832_xxAA_s132_6.0.0.dir/__/__/__/mesh/access/src/access.c.obj
                0x0000000000037240                access_model_publish_ttl_set
 .text.access_model_publish_ttl_get
                0x0000000000037280       0x2c CMakeFiles/pb_remote_server_nrf52832_xxAA_s132_6.0.0.dir/__/__/__/mesh/access/src/access.c.obj
                0x0000000000037280                access_model_publish_ttl_get
 .text.access_element_location_get
                0x00000000000372ac       0x18 CMakeFiles/pb_remote_server_nrf52832_xxAA_s132_6.0.0.dir/__/__/__/mesh/access/src/access.c.obj
                0x00000000000372ac                access_element_location_get
 .text.access_element_sig_model_count_get
                0x00000000000372c4       0x18 CMakeFiles/pb_remote_server_nrf52832_xxAA_s132_6.0.0.dir/__/__/__/mesh/access/src/access.c.obj
                0x00000000000372c4                access_element_sig_model_count_get
 .text.access_element_vendor_model_count_get
                0x00000000000372dc       0x18 CMakeFiles/pb_remote_server_nrf52832_xxAA_s132_6.0.0.dir/__/__/__/mesh/access/src/access.c.obj
                0x00000000000372dc                access_element_vendor_model_count_get
 .text.access_model_id_get
                0x00000000000372f4       0x40 CMakeFiles/pb_remote_server_nrf52832_xxAA_s132_6.0.0.dir/__/__/__/mesh/access/src/access.c.obj
                0x00000000000372f4                access_model_id_get
 .text.access_handle_get
                0x0000000000037334       0x78 CMakeFiles/pb_remote_server_nrf52832_xxAA_s132_6.0.0.dir/__/__/__/mesh/access/src/access.c.obj
                0x0000000000037334                access_handle_get
 .text.access_element_models_get
                0x00000000000373ac       0x88 CMakeFiles/pb_remote_server_nrf52832_xxAA_s132_6.0.0.dir/__/__/__/mesh/access/src/access.c.obj
                0x00000000000373ac                access_element_models_get
 .text.access_model_p_args_get
                0x0000000000037434       0x2c CMakeFiles/pb_remote_server_nrf52832_xxAA_s132_6.0.0.dir/__/__/__/mesh/access/src/access.c.obj
                0x0000000000037434                access_model_p_args_get
 .text.access_model_publication_stop
                0x0000000000037460       0x5c CMakeFiles/pb_remote_server_nrf52832_xxAA_s132_6.0.0.dir/__/__/__/mesh/access/src/access.c.obj
                0x0000000000037460                access_model_publication_stop
 .text.access_model_publication_by_appkey_stop
                0x00000000000374bc       0xdc CMakeFiles/pb_remote_server_nrf52832_xxAA_s132_6.0.0.dir/__/__/__/mesh/access/src/access.c.obj
                0x00000000000374bc                access_model_publication_by_appkey_stop
 .text.remove_and_reschedule
                0x0000000000037598       0xf0 CMakeFiles/pb_remote_server_nrf52832_xxAA_s132_6.0.0.dir/__/__/__/mesh/access/src/access_reliable.c.obj
 .text.reliable_timer_cb
                0x0000000000037688      0x260 CMakeFiles/pb_remote_server_nrf52832_xxAA_s132_6.0.0.dir/__/__/__/mesh/access/src/access_reliable.c.obj
 .text.access_reliable_message_rx_cb
                0x00000000000378e8       0x80 CMakeFiles/pb_remote_server_nrf52832_xxAA_s132_6.0.0.dir/__/__/__/mesh/access/src/access_reliable.c.obj
                0x00000000000378e8                access_reliable_message_rx_cb
 .text.access_reliable_init
                0x0000000000037968       0x1c CMakeFiles/pb_remote_server_nrf52832_xxAA_s132_6.0.0.dir/__/__/__/mesh/access/src/access_reliable.c.obj
                0x0000000000037968                access_reliable_init
 .text.access_reliable_cancel_all
                0x0000000000037984       0xe8 CMakeFiles/pb_remote_server_nrf52832_xxAA_s132_6.0.0.dir/__/__/__/mesh/access/src/access_reliable.c.obj
                0x0000000000037984                access_reliable_cancel_all
 .text.access_model_reliable_cancel
                0x0000000000037a6c       0x88 CMakeFiles/pb_remote_server_nrf52832_xxAA_s132_6.0.0.dir/__/__/__/mesh/access/src/access_reliable.c.obj
                0x0000000000037a6c                access_model_reliable_cancel
 .text.access_model_reliable_publish
                0x0000000000037af4      0x228 CMakeFiles/pb_remote_server_nrf52832_xxAA_s132_6.0.0.dir/__/__/__/mesh/access/src/access_reliable.c.obj
                0x0000000000037af4                access_model_reliable_publish
 .text.addr_nonvirtual_to_dsm_entry
                0x0000000000037d1c       0x48 CMakeFiles/pb_remote_server_nrf52832_xxAA_s132_6.0.0.dir/__/__/__/mesh/access/src/device_state_manager.c.obj
 .text.addr_nonvirtual_to_flash_entry
                0x0000000000037d64       0x10 CMakeFiles/pb_remote_server_nrf52832_xxAA_s132_6.0.0.dir/__/__/__/mesh/access/src/device_state_manager.c.obj
 .text.devkey_to_flash_entry
                0x0000000000037d74       0x28 CMakeFiles/pb_remote_server_nrf52832_xxAA_s132_6.0.0.dir/__/__/__/mesh/access/src/device_state_manager.c.obj
 .text.addr_virtual_to_flash_entry
                0x0000000000037d9c       0x18 CMakeFiles/pb_remote_server_nrf52832_xxAA_s132_6.0.0.dir/__/__/__/mesh/access/src/device_state_manager.c.obj
 .text.addr_unicast_to_dsm_entry
                0x0000000000037db4        0xc CMakeFiles/pb_remote_server_nrf52832_xxAA_s132_6.0.0.dir/__/__/__/mesh/access/src/device_state_manager.c.obj
 .text.addr_unicast_to_flash_entry
                0x0000000000037dc0       0x10 CMakeFiles/pb_remote_server_nrf52832_xxAA_s132_6.0.0.dir/__/__/__/mesh/access/src/device_state_manager.c.obj
 .text.flash_mem_listener_callback
                0x0000000000037dd0       0x1c CMakeFiles/pb_remote_server_nrf52832_xxAA_s132_6.0.0.dir/__/__/__/mesh/access/src/device_state_manager.c.obj
 .text.appkey_to_flash_entry
                0x0000000000037dec       0x54 CMakeFiles/pb_remote_server_nrf52832_xxAA_s132_6.0.0.dir/__/__/__/mesh/access/src/device_state_manager.c.obj
 .text.subnet_to_flash_entry
                0x0000000000037e40       0x60 CMakeFiles/pb_remote_server_nrf52832_xxAA_s132_6.0.0.dir/__/__/__/mesh/access/src/device_state_manager.c.obj
 .text.reset_flash_area
                0x0000000000037ea0       0x28 CMakeFiles/pb_remote_server_nrf52832_xxAA_s132_6.0.0.dir/__/__/__/mesh/access/src/device_state_manager.c.obj
 .text.build_flash_area
                0x0000000000037ec8       0x90 CMakeFiles/pb_remote_server_nrf52832_xxAA_s132_6.0.0.dir/__/__/__/mesh/access/src/device_state_manager.c.obj
 .text.flash_invalidate_complete
                0x0000000000037f58       0x54 CMakeFiles/pb_remote_server_nrf52832_xxAA_s132_6.0.0.dir/__/__/__/mesh/access/src/device_state_manager.c.obj
 .text.flash_write_complete
                0x0000000000037fac       0x50 CMakeFiles/pb_remote_server_nrf52832_xxAA_s132_6.0.0.dir/__/__/__/mesh/access/src/device_state_manager.c.obj
 .text.devkey_to_dsm_entry
                0x0000000000037ffc       0x70 CMakeFiles/pb_remote_server_nrf52832_xxAA_s132_6.0.0.dir/__/__/__/mesh/access/src/device_state_manager.c.obj
 .text.addr_virtual_to_dsm_entry
                0x000000000003806c       0x60 CMakeFiles/pb_remote_server_nrf52832_xxAA_s132_6.0.0.dir/__/__/__/mesh/access/src/device_state_manager.c.obj
 .text.appkey_to_dsm_entry
                0x00000000000380cc       0xf4 CMakeFiles/pb_remote_server_nrf52832_xxAA_s132_6.0.0.dir/__/__/__/mesh/access/src/device_state_manager.c.obj
 .text.address_delete_if_unused
                0x00000000000381c0       0xd8 CMakeFiles/pb_remote_server_nrf52832_xxAA_s132_6.0.0.dir/__/__/__/mesh/access/src/device_state_manager.c.obj
 .text.subnet_to_dsm_entry
                0x0000000000038298      0x11c CMakeFiles/pb_remote_server_nrf52832_xxAA_s132_6.0.0.dir/__/__/__/mesh/access/src/device_state_manager.c.obj
 .text.flash_remove_complete
                0x00000000000383b4       0x90 CMakeFiles/pb_remote_server_nrf52832_xxAA_s132_6.0.0.dir/__/__/__/mesh/access/src/device_state_manager.c.obj
 .text.flash_update_all
                0x0000000000038444      0x184 CMakeFiles/pb_remote_server_nrf52832_xxAA_s132_6.0.0.dir/__/__/__/mesh/access/src/device_state_manager.c.obj
 .text.dsm_flash_config_load
                0x00000000000385c8      0x1f8 CMakeFiles/pb_remote_server_nrf52832_xxAA_s132_6.0.0.dir/__/__/__/mesh/access/src/device_state_manager.c.obj
                0x00000000000385c8                dsm_flash_config_load
 .text.dsm_flash_area_get
                0x00000000000387c0        0xc CMakeFiles/pb_remote_server_nrf52832_xxAA_s132_6.0.0.dir/__/__/__/mesh/access/src/device_state_manager.c.obj
                0x00000000000387c0                dsm_flash_area_get
 .text.dsm_clear
                0x00000000000387cc       0xd0 CMakeFiles/pb_remote_server_nrf52832_xxAA_s132_6.0.0.dir/__/__/__/mesh/access/src/device_state_manager.c.obj
                0x00000000000387cc                dsm_clear
 .text.dsm_init
                0x000000000003889c       0xb8 CMakeFiles/pb_remote_server_nrf52832_xxAA_s132_6.0.0.dir/__/__/__/mesh/access/src/device_state_manager.c.obj
                0x000000000003889c                dsm_init
 .text.dsm_local_unicast_addresses_set
                0x0000000000038954       0xbc CMakeFiles/pb_remote_server_nrf52832_xxAA_s132_6.0.0.dir/__/__/__/mesh/access/src/device_state_manager.c.obj
                0x0000000000038954                dsm_local_unicast_addresses_set
 .text.dsm_local_unicast_addresses_get
                0x0000000000038a10       0x20 CMakeFiles/pb_remote_server_nrf52832_xxAA_s132_6.0.0.dir/__/__/__/mesh/access/src/device_state_manager.c.obj
                0x0000000000038a10                dsm_local_unicast_addresses_get
 .text.dsm_address_publish_add
                0x0000000000038a30      0x138 CMakeFiles/pb_remote_server_nrf52832_xxAA_s132_6.0.0.dir/__/__/__/mesh/access/src/device_state_manager.c.obj
                0x0000000000038a30                dsm_address_publish_add
 .text.dsm_address_publish_add_handle
                0x0000000000038b68       0x4c CMakeFiles/pb_remote_server_nrf52832_xxAA_s132_6.0.0.dir/__/__/__/mesh/access/src/device_state_manager.c.obj
                0x0000000000038b68                dsm_address_publish_add_handle
 .text.dsm_address_publish_virtual_add
                0x0000000000038bb4       0xc4 CMakeFiles/pb_remote_server_nrf52832_xxAA_s132_6.0.0.dir/__/__/__/mesh/access/src/device_state_manager.c.obj
                0x0000000000038bb4                dsm_address_publish_virtual_add
 .text.dsm_address_publish_remove
                0x0000000000038c78       0xe4 CMakeFiles/pb_remote_server_nrf52832_xxAA_s132_6.0.0.dir/__/__/__/mesh/access/src/device_state_manager.c.obj
                0x0000000000038c78                dsm_address_publish_remove
 .text.dsm_address_subscription_add
                0x0000000000038d5c      0x15c CMakeFiles/pb_remote_server_nrf52832_xxAA_s132_6.0.0.dir/__/__/__/mesh/access/src/device_state_manager.c.obj
                0x0000000000038d5c                dsm_address_subscription_add
 .text.dsm_address_subscription_virtual_add
                0x0000000000038eb8       0xc4 CMakeFiles/pb_remote_server_nrf52832_xxAA_s132_6.0.0.dir/__/__/__/mesh/access/src/device_state_manager.c.obj
                0x0000000000038eb8                dsm_address_subscription_virtual_add
 .text.dsm_address_subscription_add_handle
                0x0000000000038f7c       0x4c CMakeFiles/pb_remote_server_nrf52832_xxAA_s132_6.0.0.dir/__/__/__/mesh/access/src/device_state_manager.c.obj
                0x0000000000038f7c                dsm_address_subscription_add_handle
 .text.dsm_address_subscription_get
                0x0000000000038fc8       0x50 CMakeFiles/pb_remote_server_nrf52832_xxAA_s132_6.0.0.dir/__/__/__/mesh/access/src/device_state_manager.c.obj
                0x0000000000038fc8                dsm_address_subscription_get
 .text.dsm_address_subscription_remove
                0x0000000000039018       0x84 CMakeFiles/pb_remote_server_nrf52832_xxAA_s132_6.0.0.dir/__/__/__/mesh/access/src/device_state_manager.c.obj
                0x0000000000039018                dsm_address_subscription_remove
 .text.dsm_address_get
                0x000000000003909c       0x68 CMakeFiles/pb_remote_server_nrf52832_xxAA_s132_6.0.0.dir/__/__/__/mesh/access/src/device_state_manager.c.obj
                0x000000000003909c                dsm_address_get
 .text.dsm_address_handle_get
                0x0000000000039104       0xe8 CMakeFiles/pb_remote_server_nrf52832_xxAA_s132_6.0.0.dir/__/__/__/mesh/access/src/device_state_manager.c.obj
                0x0000000000039104                dsm_address_handle_get
 .text.dsm_net_key_index_to_subnet_handle
                0x00000000000391ec       0x28 CMakeFiles/pb_remote_server_nrf52832_xxAA_s132_6.0.0.dir/__/__/__/mesh/access/src/device_state_manager.c.obj
                0x00000000000391ec                dsm_net_key_index_to_subnet_handle
 .text.dsm_subnet_handle_get
                0x0000000000039214       0x3c CMakeFiles/pb_remote_server_nrf52832_xxAA_s132_6.0.0.dir/__/__/__/mesh/access/src/device_state_manager.c.obj
                0x0000000000039214                dsm_subnet_handle_get
 .text.dsm_appkey_index_to_appkey_handle
                0x0000000000039250       0x28 CMakeFiles/pb_remote_server_nrf52832_xxAA_s132_6.0.0.dir/__/__/__/mesh/access/src/device_state_manager.c.obj
                0x0000000000039250                dsm_appkey_index_to_appkey_handle
 .text.dsm_appkey_handle_get
                0x0000000000039278       0x2c CMakeFiles/pb_remote_server_nrf52832_xxAA_s132_6.0.0.dir/__/__/__/mesh/access/src/device_state_manager.c.obj
                0x0000000000039278                dsm_appkey_handle_get
 .text.dsm_appkey_handle_to_appkey_index
                0x00000000000392a4       0x24 CMakeFiles/pb_remote_server_nrf52832_xxAA_s132_6.0.0.dir/__/__/__/mesh/access/src/device_state_manager.c.obj
                0x00000000000392a4                dsm_appkey_handle_to_appkey_index
 .text.dsm_appkey_handle_to_subnet_handle
                0x00000000000392c8       0x78 CMakeFiles/pb_remote_server_nrf52832_xxAA_s132_6.0.0.dir/__/__/__/mesh/access/src/device_state_manager.c.obj
                0x00000000000392c8                dsm_appkey_handle_to_subnet_handle
 .text.dsm_subnet_add
                0x0000000000039340      0x15c CMakeFiles/pb_remote_server_nrf52832_xxAA_s132_6.0.0.dir/__/__/__/mesh/access/src/device_state_manager.c.obj
                0x0000000000039340                dsm_subnet_add
 .text.dsm_subnet_kr_phase_get
                0x000000000003949c       0x20 CMakeFiles/pb_remote_server_nrf52832_xxAA_s132_6.0.0.dir/__/__/__/mesh/access/src/device_state_manager.c.obj
                0x000000000003949c                dsm_subnet_kr_phase_get
 .text.dsm_subnet_update
                0x00000000000394bc       0xe4 CMakeFiles/pb_remote_server_nrf52832_xxAA_s132_6.0.0.dir/__/__/__/mesh/access/src/device_state_manager.c.obj
                0x00000000000394bc                dsm_subnet_update
 .text.dsm_subnet_update_swap_keys
                0x00000000000395a0       0x94 CMakeFiles/pb_remote_server_nrf52832_xxAA_s132_6.0.0.dir/__/__/__/mesh/access/src/device_state_manager.c.obj
                0x00000000000395a0                dsm_subnet_update_swap_keys
 .text.dsm_subnet_update_commit
                0x0000000000039634      0x138 CMakeFiles/pb_remote_server_nrf52832_xxAA_s132_6.0.0.dir/__/__/__/mesh/access/src/device_state_manager.c.obj
                0x0000000000039634                dsm_subnet_update_commit
 .text.mesh_evt_handler
                0x000000000003976c       0xc4 CMakeFiles/pb_remote_server_nrf52832_xxAA_s132_6.0.0.dir/__/__/__/mesh/access/src/device_state_manager.c.obj
 .text.dsm_subnet_delete
                0x0000000000039830       0xe8 CMakeFiles/pb_remote_server_nrf52832_xxAA_s132_6.0.0.dir/__/__/__/mesh/access/src/device_state_manager.c.obj
                0x0000000000039830                dsm_subnet_delete
 .text.dsm_subnet_get_all
                0x0000000000039918       0x40 CMakeFiles/pb_remote_server_nrf52832_xxAA_s132_6.0.0.dir/__/__/__/mesh/access/src/device_state_manager.c.obj
                0x0000000000039918                dsm_subnet_get_all
 .text.dsm_devkey_add
                0x0000000000039958       0xf8 CMakeFiles/pb_remote_server_nrf52832_xxAA_s132_6.0.0.dir/__/__/__/mesh/access/src/device_state_manager.c.obj
                0x0000000000039958                dsm_devkey_add
 .text.dsm_appkey_add
                0x0000000000039a50      0x134 CMakeFiles/pb_remote_server_nrf52832_xxAA_s132_6.0.0.dir/__/__/__/mesh/access/src/device_state_manager.c.obj
                0x0000000000039a50                dsm_appkey_add
 .text.dsm_appkey_update
                0x0000000000039b84       0xd8 CMakeFiles/pb_remote_server_nrf52832_xxAA_s132_6.0.0.dir/__/__/__/mesh/access/src/device_state_manager.c.obj
                0x0000000000039b84                dsm_appkey_update
 .text.dsm_appkey_delete
                0x0000000000039c5c       0x60 CMakeFiles/pb_remote_server_nrf52832_xxAA_s132_6.0.0.dir/__/__/__/mesh/access/src/device_state_manager.c.obj
                0x0000000000039c5c                dsm_appkey_delete
 .text.dsm_appkey_get_all
                0x0000000000039cbc       0x58 CMakeFiles/pb_remote_server_nrf52832_xxAA_s132_6.0.0.dir/__/__/__/mesh/access/src/device_state_manager.c.obj
                0x0000000000039cbc                dsm_appkey_get_all
 .text.dsm_tx_secmat_get
                0x0000000000039d14       0xa4 CMakeFiles/pb_remote_server_nrf52832_xxAA_s132_6.0.0.dir/__/__/__/mesh/access/src/device_state_manager.c.obj
                0x0000000000039d14                dsm_tx_secmat_get
 .text.dsm_net_secmat_from_keyindex_get
                0x0000000000039db8       0x30 CMakeFiles/pb_remote_server_nrf52832_xxAA_s132_6.0.0.dir/__/__/__/mesh/access/src/device_state_manager.c.obj
                0x0000000000039db8                dsm_net_secmat_from_keyindex_get
 .text.nrf_mesh_net_secmat_next_get
                0x0000000000039de8       0x80 CMakeFiles/pb_remote_server_nrf52832_xxAA_s132_6.0.0.dir/__/__/__/mesh/access/src/device_state_manager.c.obj
                0x0000000000039de8                nrf_mesh_net_secmat_next_get
 .text.nrf_mesh_app_secmat_next_get
                0x0000000000039e68       0x80 CMakeFiles/pb_remote_server_nrf52832_xxAA_s132_6.0.0.dir/__/__/__/mesh/access/src/device_state_manager.c.obj
                0x0000000000039e68                nrf_mesh_app_secmat_next_get
 .text.nrf_mesh_devkey_secmat_get
                0x0000000000039ee8       0x30 CMakeFiles/pb_remote_server_nrf52832_xxAA_s132_6.0.0.dir/__/__/__/mesh/access/src/device_state_manager.c.obj
                0x0000000000039ee8                nrf_mesh_devkey_secmat_get
 .text.nrf_mesh_beacon_info_next_get
                0x0000000000039f18       0xb0 CMakeFiles/pb_remote_server_nrf52832_xxAA_s132_6.0.0.dir/__/__/__/mesh/access/src/device_state_manager.c.obj
                0x0000000000039f18                nrf_mesh_beacon_info_next_get
 .text.nrf_mesh_rx_address_get
                0x0000000000039fc8      0x118 CMakeFiles/pb_remote_server_nrf52832_xxAA_s132_6.0.0.dir/__/__/__/mesh/access/src/device_state_manager.c.obj
                0x0000000000039fc8                nrf_mesh_rx_address_get
 .text.nrf_mesh_unicast_address_get
                0x000000000003a0e0       0x24 CMakeFiles/pb_remote_server_nrf52832_xxAA_s132_6.0.0.dir/__/__/__/mesh/access/src/device_state_manager.c.obj
                0x000000000003a0e0                nrf_mesh_unicast_address_get
 .text.config_composition_data_get
                0x000000000003a104      0x1cc CMakeFiles/pb_remote_server_nrf52832_xxAA_s132_6.0.0.dir/__/__/__/models/config/src/composition_data.c.obj
                0x000000000003a104                config_composition_data_get
 .text.config_server_heartbeat_publication_count_decrement
                0x000000000003a2d0       0x1c CMakeFiles/pb_remote_server_nrf52832_xxAA_s132_6.0.0.dir/__/__/__/models/config/src/config_server.c.obj
 .text.config_server_heartbeat_publication_params_get
                0x000000000003a2ec       0x38 CMakeFiles/pb_remote_server_nrf52832_xxAA_s132_6.0.0.dir/__/__/__/models/config/src/config_server.c.obj
 .text.handle_config_network_transmit_set
                0x000000000003a324      0x118 CMakeFiles/pb_remote_server_nrf52832_xxAA_s132_6.0.0.dir/__/__/__/models/config/src/config_server.c.obj
 .text.handle_node_reset
                0x000000000003a43c       0x30 CMakeFiles/pb_remote_server_nrf52832_xxAA_s132_6.0.0.dir/__/__/__/models/config/src/config_server.c.obj
 .text.handle_config_relay_set
                0x000000000003a46c      0x1a8 CMakeFiles/pb_remote_server_nrf52832_xxAA_s132_6.0.0.dir/__/__/__/models/config/src/config_server.c.obj
 .text.send_subscription_status
                0x000000000003a614       0x50 CMakeFiles/pb_remote_server_nrf52832_xxAA_s132_6.0.0.dir/__/__/__/models/config/src/config_server.c.obj
 .text.handle_netkey_get
                0x000000000003a664       0x70 CMakeFiles/pb_remote_server_nrf52832_xxAA_s132_6.0.0.dir/__/__/__/models/config/src/config_server.c.obj
 .text.handle_model_app_bind_unbind
                0x000000000003a6d4      0x228 CMakeFiles/pb_remote_server_nrf52832_xxAA_s132_6.0.0.dir/__/__/__/models/config/src/config_server.c.obj
 .text.status_error_sub_send
                0x000000000003a8fc      0x180 CMakeFiles/pb_remote_server_nrf52832_xxAA_s132_6.0.0.dir/__/__/__/models/config/src/config_server.c.obj
 .text.send_publication_status
                0x000000000003aa7c      0x1a8 CMakeFiles/pb_remote_server_nrf52832_xxAA_s132_6.0.0.dir/__/__/__/models/config/src/config_server.c.obj
 .text.handle_config_key_refresh_phase_set
                0x000000000003ac24       0xf0 CMakeFiles/pb_remote_server_nrf52832_xxAA_s132_6.0.0.dir/__/__/__/models/config/src/config_server.c.obj
 .text.handle_config_default_ttl_set
                0x000000000003ad14       0x70 CMakeFiles/pb_remote_server_nrf52832_xxAA_s132_6.0.0.dir/__/__/__/models/config/src/config_server.c.obj
 .text.handle_heartbeat_publication_set
                0x000000000003ad84      0x168 CMakeFiles/pb_remote_server_nrf52832_xxAA_s132_6.0.0.dir/__/__/__/models/config/src/config_server.c.obj
 .text.mesh_event_cb
                0x000000000003aeec       0x70 CMakeFiles/pb_remote_server_nrf52832_xxAA_s132_6.0.0.dir/__/__/__/models/config/src/config_server.c.obj
 .text.handle_node_identity_set
                0x000000000003af5c       0x48 CMakeFiles/pb_remote_server_nrf52832_xxAA_s132_6.0.0.dir/__/__/__/models/config/src/config_server.c.obj
 .text.handle_node_identity_get
                0x000000000003afa4       0x44 CMakeFiles/pb_remote_server_nrf52832_xxAA_s132_6.0.0.dir/__/__/__/models/config/src/config_server.c.obj
 .text.handle_config_gatt_proxy_set
                0x000000000003afe8       0x40 CMakeFiles/pb_remote_server_nrf52832_xxAA_s132_6.0.0.dir/__/__/__/models/config/src/config_server.c.obj
 .text.handle_config_friend_set
                0x000000000003b028       0x40 CMakeFiles/pb_remote_server_nrf52832_xxAA_s132_6.0.0.dir/__/__/__/models/config/src/config_server.c.obj
 .text.status_error_pub_send
                0x000000000003b068       0xc8 CMakeFiles/pb_remote_server_nrf52832_xxAA_s132_6.0.0.dir/__/__/__/models/config/src/config_server.c.obj
 .text.handle_config_key_refresh_phase_get
                0x000000000003b130       0x70 CMakeFiles/pb_remote_server_nrf52832_xxAA_s132_6.0.0.dir/__/__/__/models/config/src/config_server.c.obj
 .text.handle_config_default_ttl_get
                0x000000000003b1a0       0x48 CMakeFiles/pb_remote_server_nrf52832_xxAA_s132_6.0.0.dir/__/__/__/models/config/src/config_server.c.obj
 .text.handle_config_beacon_set
                0x000000000003b1e8       0x80 CMakeFiles/pb_remote_server_nrf52832_xxAA_s132_6.0.0.dir/__/__/__/models/config/src/config_server.c.obj
 .text.handle_composition_data_get
                0x000000000003b268       0x64 CMakeFiles/pb_remote_server_nrf52832_xxAA_s132_6.0.0.dir/__/__/__/models/config/src/config_server.c.obj
 .text.handle_appkey_update
                0x000000000003b2cc      0x108 CMakeFiles/pb_remote_server_nrf52832_xxAA_s132_6.0.0.dir/__/__/__/models/config/src/config_server.c.obj
 .text.handle_model_app_get
                0x000000000003b3d4      0x240 CMakeFiles/pb_remote_server_nrf52832_xxAA_s132_6.0.0.dir/__/__/__/models/config/src/config_server.c.obj
 .text.handle_appkey_get
                0x000000000003b614      0x104 CMakeFiles/pb_remote_server_nrf52832_xxAA_s132_6.0.0.dir/__/__/__/models/config/src/config_server.c.obj
 .text.handle_heartbeat_subscription_get
                0x000000000003b718       0xdc CMakeFiles/pb_remote_server_nrf52832_xxAA_s132_6.0.0.dir/__/__/__/models/config/src/config_server.c.obj
 .text.handle_config_gatt_proxy_get
                0x000000000003b7f4       0x38 CMakeFiles/pb_remote_server_nrf52832_xxAA_s132_6.0.0.dir/__/__/__/models/config/src/config_server.c.obj
 .text.handle_config_friend_get
                0x000000000003b82c       0x38 CMakeFiles/pb_remote_server_nrf52832_xxAA_s132_6.0.0.dir/__/__/__/models/config/src/config_server.c.obj
 .text.handle_heartbeat_subscription_set
                0x000000000003b864      0x114 CMakeFiles/pb_remote_server_nrf52832_xxAA_s132_6.0.0.dir/__/__/__/models/config/src/config_server.c.obj
 .text.handle_heartbeat_publication_get
                0x000000000003b978       0xcc CMakeFiles/pb_remote_server_nrf52832_xxAA_s132_6.0.0.dir/__/__/__/models/config/src/config_server.c.obj
 .text.handle_config_beacon_get
                0x000000000003ba44       0x40 CMakeFiles/pb_remote_server_nrf52832_xxAA_s132_6.0.0.dir/__/__/__/models/config/src/config_server.c.obj
 .text.handle_appkey_delete
                0x000000000003ba84      0x11c CMakeFiles/pb_remote_server_nrf52832_xxAA_s132_6.0.0.dir/__/__/__/models/config/src/config_server.c.obj
 .text.handle_appkey_add
                0x000000000003bba0      0x124 CMakeFiles/pb_remote_server_nrf52832_xxAA_s132_6.0.0.dir/__/__/__/models/config/src/config_server.c.obj
 .text.handle_config_vendor_model_subscription_get
                0x000000000003bcc4      0x180 CMakeFiles/pb_remote_server_nrf52832_xxAA_s132_6.0.0.dir/__/__/__/models/config/src/config_server.c.obj
 .text.handle_netkey_add_update
                0x000000000003be44       0xec CMakeFiles/pb_remote_server_nrf52832_xxAA_s132_6.0.0.dir/__/__/__/models/config/src/config_server.c.obj
 .text.handle_netkey_delete
                0x000000000003bf30      0x118 CMakeFiles/pb_remote_server_nrf52832_xxAA_s132_6.0.0.dir/__/__/__/models/config/src/config_server.c.obj
 .text.handle_config_network_transmit_get
                0x000000000003c048       0x94 CMakeFiles/pb_remote_server_nrf52832_xxAA_s132_6.0.0.dir/__/__/__/models/config/src/config_server.c.obj
 .text.handle_config_model_publication_get
                0x000000000003c0dc      0x144 CMakeFiles/pb_remote_server_nrf52832_xxAA_s132_6.0.0.dir/__/__/__/models/config/src/config_server.c.obj
 .text.handle_config_relay_get
                0x000000000003c220       0xcc CMakeFiles/pb_remote_server_nrf52832_xxAA_s132_6.0.0.dir/__/__/__/models/config/src/config_server.c.obj
 .text.handle_config_model_publication_set
                0x000000000003c2ec      0x3d4 CMakeFiles/pb_remote_server_nrf52832_xxAA_s132_6.0.0.dir/__/__/__/models/config/src/config_server.c.obj
 .text.handle_config_model_subscription_delete_all
                0x000000000003c6c0      0x2ec CMakeFiles/pb_remote_server_nrf52832_xxAA_s132_6.0.0.dir/__/__/__/models/config/src/config_server.c.obj
 .text.handle_config_model_subscription_virtual_address_delete
                0x000000000003c9ac      0x2e0 CMakeFiles/pb_remote_server_nrf52832_xxAA_s132_6.0.0.dir/__/__/__/models/config/src/config_server.c.obj
 .text.handle_config_model_subscription_virtual_address_add
                0x000000000003cc8c      0x2cc CMakeFiles/pb_remote_server_nrf52832_xxAA_s132_6.0.0.dir/__/__/__/models/config/src/config_server.c.obj
 .text.handle_config_model_subscription_delete
                0x000000000003cf58      0x2dc CMakeFiles/pb_remote_server_nrf52832_xxAA_s132_6.0.0.dir/__/__/__/models/config/src/config_server.c.obj
 .text.handle_config_model_subscription_add
                0x000000000003d234      0x2a8 CMakeFiles/pb_remote_server_nrf52832_xxAA_s132_6.0.0.dir/__/__/__/models/config/src/config_server.c.obj
 .text.handle_config_model_subscription_virtual_address_overwrite
                0x000000000003d4dc      0x354 CMakeFiles/pb_remote_server_nrf52832_xxAA_s132_6.0.0.dir/__/__/__/models/config/src/config_server.c.obj
 .text.handle_config_model_subscription_overwrite
                0x000000000003d830      0x334 CMakeFiles/pb_remote_server_nrf52832_xxAA_s132_6.0.0.dir/__/__/__/models/config/src/config_server.c.obj
 .text.handle_config_sig_model_subscription_get
                0x000000000003db64      0x29c CMakeFiles/pb_remote_server_nrf52832_xxAA_s132_6.0.0.dir/__/__/__/models/config/src/config_server.c.obj
 .text.config_server_init
                0x000000000003de00       0x70 CMakeFiles/pb_remote_server_nrf52832_xxAA_s132_6.0.0.dir/__/__/__/models/config/src/config_server.c.obj
                0x000000000003de00                config_server_init
 .text.config_server_bind
                0x000000000003de70       0x10 CMakeFiles/pb_remote_server_nrf52832_xxAA_s132_6.0.0.dir/__/__/__/models/config/src/config_server.c.obj
                0x000000000003de70                config_server_bind
 .text.packed_index_list_create
                0x000000000003de80       0x3c CMakeFiles/pb_remote_server_nrf52832_xxAA_s132_6.0.0.dir/__/__/__/models/config/src/packed_index_list.c.obj
                0x000000000003de80                packed_index_list_create
 .text.attention_timer_handler
                0x000000000003debc       0x6c CMakeFiles/pb_remote_server_nrf52832_xxAA_s132_6.0.0.dir/__/__/__/models/health/src/health_server.c.obj
 .text.handle_attention_get
                0x000000000003df28       0x40 CMakeFiles/pb_remote_server_nrf52832_xxAA_s132_6.0.0.dir/__/__/__/models/health/src/health_server.c.obj
 .text.handle_period_get
                0x000000000003df68       0x3c CMakeFiles/pb_remote_server_nrf52832_xxAA_s132_6.0.0.dir/__/__/__/models/health/src/health_server.c.obj
 .text.handle_attention_set
                0x000000000003dfa4       0xdc CMakeFiles/pb_remote_server_nrf52832_xxAA_s132_6.0.0.dir/__/__/__/models/health/src/health_server.c.obj
 .text.handle_period_set
                0x000000000003e080       0x54 CMakeFiles/pb_remote_server_nrf52832_xxAA_s132_6.0.0.dir/__/__/__/models/health/src/health_server.c.obj
 .text.send_fault_status
                0x000000000003e0d4      0x3b4 CMakeFiles/pb_remote_server_nrf52832_xxAA_s132_6.0.0.dir/__/__/__/models/health/src/health_server.c.obj
 .text.health_publish_timeout_handler
                0x000000000003e488        0xc CMakeFiles/pb_remote_server_nrf52832_xxAA_s132_6.0.0.dir/__/__/__/models/health/src/health_server.c.obj
 .text.handle_fault_test
                0x000000000003e494       0x8c CMakeFiles/pb_remote_server_nrf52832_xxAA_s132_6.0.0.dir/__/__/__/models/health/src/health_server.c.obj
 .text.handle_fault_clear
                0x000000000003e520       0x54 CMakeFiles/pb_remote_server_nrf52832_xxAA_s132_6.0.0.dir/__/__/__/models/health/src/health_server.c.obj
 .text.handle_fault_get
                0x000000000003e574       0x40 CMakeFiles/pb_remote_server_nrf52832_xxAA_s132_6.0.0.dir/__/__/__/models/health/src/health_server.c.obj
 .text.health_server_init
                0x000000000003e5b4       0x68 CMakeFiles/pb_remote_server_nrf52832_xxAA_s132_6.0.0.dir/__/__/__/models/health/src/health_server.c.obj
                0x000000000003e5b4                health_server_init
 .text.SystemInit
                0x000000000003e61c      0x3c0 CMakeFiles/pb_remote_server_nrf52832_xxAA_s132_6.0.0.dir/home/mazzer/work/nordic/sdk/nRF5_SDK_15.0.0/modules/nrfx/mdk/system_nrf52.c.obj
                0x000000000003e61c                SystemInit
 .text          0x000000000003e9dc       0x3c CMakeFiles/pb_remote_server_nrf52832_xxAA_s132_6.0.0.dir/home/mazzer/work/nordic/sdk/nRF5_SDK_15.0.0/modules/nrfx/mdk/gcc_startup_nrf52.S.obj
                0x000000000003e9dc                Reset_Handler
                0x000000000003ea04                NMI_Handler
                0x000000000003ea06                HardFault_Handler
                0x000000000003ea08                MemoryManagement_Handler
                0x000000000003ea0a                BusFault_Handler
                0x000000000003ea0c                UsageFault_Handler
                0x000000000003ea0e                SVC_Handler
                0x000000000003ea10                DebugMon_Handler
                0x000000000003ea12                PendSV_Handler
                0x000000000003ea14                SysTick_Handler
                0x000000000003ea16                TIMER2_IRQHandler
                0x000000000003ea16                RTC0_IRQHandler
                0x000000000003ea16                SWI0_EGU0_IRQHandler
                0x000000000003ea16                PWM1_IRQHandler
                0x000000000003ea16                POWER_CLOCK_IRQHandler
                0x000000000003ea16                RADIO_IRQHandler
                0x000000000003ea16                PDM_IRQHandler
                0x000000000003ea16                TEMP_IRQHandler
                0x000000000003ea16                TIMER3_IRQHandler
                0x000000000003ea16                FPU_IRQHandler
                0x000000000003ea16                SPIM0_SPIS0_TWIM0_TWIS0_SPI0_TWI0_IRQHandler
                0x000000000003ea16                UARTE0_UART0_IRQHandler
                0x000000000003ea16                TIMER4_IRQHandler
                0x000000000003ea16                I2S_IRQHandler
                0x000000000003ea16                SWI4_EGU4_IRQHandler
                0x000000000003ea16                TIMER0_IRQHandler
                0x000000000003ea16                TIMER1_IRQHandler
                0x000000000003ea16                PWM2_IRQHandler
                0x000000000003ea16                ECB_IRQHandler
                0x000000000003ea16                SPIM1_SPIS1_TWIM1_TWIS1_SPI1_TWI1_IRQHandler
                0x000000000003ea16                Default_Handler
                0x000000000003ea16                SAADC_IRQHandler
                0x000000000003ea16                CCM_AAR_IRQHandler
                0x000000000003ea16                WDT_IRQHandler
                0x000000000003ea16                SWI5_EGU5_IRQHandler
                0x000000000003ea16                RNG_IRQHandler
                0x000000000003ea16                RTC2_IRQHandler
                0x000000000003ea16                PWM0_IRQHandler
                0x000000000003ea16                SWI3_EGU3_IRQHandler
                0x000000000003ea16                RTC1_IRQHandler
                0x000000000003ea16                SWI1_EGU1_IRQHandler
                0x000000000003ea16                SPIM2_SPIS2_SPI2_IRQHandler
                0x000000000003ea16                NFCT_IRQHandler
                0x000000000003ea16                MWU_IRQHandler
                0x000000000003ea16                COMP_LPCOMP_IRQHandler
 .text.app_error_handler_bare
                0x000000000003ea18       0x20 CMakeFiles/pb_remote_server_nrf52832_xxAA_s132_6.0.0.dir/home/mazzer/work/nordic/sdk/nRF5_SDK_15.0.0/components/libraries/util/app_error.c.obj
                0x000000000003ea18                app_error_handler_bare
 .text.app_error_handler
                0x000000000003ea38       0x1c CMakeFiles/pb_remote_server_nrf52832_xxAA_s132_6.0.0.dir/home/mazzer/work/nordic/sdk/nRF5_SDK_15.0.0/components/libraries/util/app_error_handler_gcc.c.obj
                0x000000000003ea38                app_error_handler
 .text.SEGGER_RTT_Write
                0x000000000003ea54      0x1f4 ../../../external/rtt/librtt_nrf52832_xxAA.a(SEGGER_RTT.c.obj)
                0x000000000003ea54                SEGGER_RTT_Write
 .text._PrintUnsigned
                0x000000000003ec48      0x17c ../../../external/rtt/librtt_nrf52832_xxAA.a(SEGGER_RTT_printf.c.obj)
 .text.SEGGER_RTT_vprintf
                0x000000000003edc4      0x524 ../../../external/rtt/librtt_nrf52832_xxAA.a(SEGGER_RTT_printf.c.obj)
                0x000000000003edc4                SEGGER_RTT_vprintf
 .text.SEGGER_RTT_printf
                0x000000000003f2e8       0x20 ../../../external/rtt/librtt_nrf52832_xxAA.a(SEGGER_RTT_printf.c.obj)
                0x000000000003f2e8                SEGGER_RTT_printf
 .text.default_RNG
                0x000000000003f308        0xc ../../../external/micro-ecc/libuECC_nrf52832_xxAA.a(uECC.c.obj)
 .text.uECC_generate_random_int
                0x000000000003f314      0x17c ../../../external/micro-ecc/libuECC_nrf52832_xxAA.a(uECC.c.obj)
 .text.apply_z  0x000000000003f490      0x1a8 ../../../external/micro-ecc/libuECC_nrf52832_xxAA.a(uECC.c.obj)
 .text.uECC_vli_modAdd
                0x000000000003f638       0xd8 ../../../external/micro-ecc/libuECC_nrf52832_xxAA.a(uECC.c.obj)
 .text.x_side_default
                0x000000000003f710      0x26c ../../../external/micro-ecc/libuECC_nrf52832_xxAA.a(uECC.c.obj)
 .text.vli_mmod_fast_secp256r1
                0x000000000003f97c      0x514 ../../../external/micro-ecc/libuECC_nrf52832_xxAA.a(uECC.c.obj)
 .text.XYcZ_add
                0x000000000003fe90      0x6e0 ../../../external/micro-ecc/libuECC_nrf52832_xxAA.a(uECC.c.obj)
 .text.XYcZ_addC
                0x0000000000040570      0xabc ../../../external/micro-ecc/libuECC_nrf52832_xxAA.a(uECC.c.obj)
 .text.uECC_vli_modInv.part.4
                0x000000000004102c      0x71c ../../../external/micro-ecc/libuECC_nrf52832_xxAA.a(uECC.c.obj)
 .text.EccPoint_mult
                0x0000000000041748      0x4a4 ../../../external/micro-ecc/libuECC_nrf52832_xxAA.a(uECC.c.obj)
 .text.double_jacobian_default
                0x0000000000041bec      0x814 ../../../external/micro-ecc/libuECC_nrf52832_xxAA.a(uECC.c.obj)
 .text.uECC_secp256r1
                0x0000000000042400        0x8 ../../../external/micro-ecc/libuECC_nrf52832_xxAA.a(uECC.c.obj)
                0x0000000000042400                uECC_secp256r1
 .text.uECC_make_key
                0x0000000000042408      0x240 ../../../external/micro-ecc/libuECC_nrf52832_xxAA.a(uECC.c.obj)
                0x0000000000042408                uECC_make_key
 .text.uECC_shared_secret
                0x0000000000042648      0x314 ../../../external/micro-ecc/libuECC_nrf52832_xxAA.a(uECC.c.obj)
                0x0000000000042648                uECC_shared_secret
 .text.uECC_valid_public_key
                0x000000000004295c      0x230 ../../../external/micro-ecc/libuECC_nrf52832_xxAA.a(uECC.c.obj)
                0x000000000004295c                uECC_valid_public_key
 .text.exit     0x0000000000042b8c       0x28 /usr/bin/../lib/gcc/arm-none-eabi/7.2.1/../../../../arm-none-eabi/lib/thumb/v7e-m/fpv4-sp/hard/libg_nano.a(lib_a-exit.o)
                0x0000000000042b8c                exit
 .text.__libc_init_array
                0x0000000000042bb4       0x48 /usr/bin/../lib/gcc/arm-none-eabi/7.2.1/../../../../arm-none-eabi/lib/thumb/v7e-m/fpv4-sp/hard/libg_nano.a(lib_a-init.o)
                0x0000000000042bb4                __libc_init_array
 .text.malloc   0x0000000000042bfc       0x10 /usr/bin/../lib/gcc/arm-none-eabi/7.2.1/../../../../arm-none-eabi/lib/thumb/v7e-m/fpv4-sp/hard/libg_nano.a(lib_a-malloc.o)
                0x0000000000042bfc                malloc
 .text.free     0x0000000000042c0c       0x10 /usr/bin/../lib/gcc/arm-none-eabi/7.2.1/../../../../arm-none-eabi/lib/thumb/v7e-m/fpv4-sp/hard/libg_nano.a(lib_a-malloc.o)
                0x0000000000042c0c                free
 .text.memcmp   0x0000000000042c1c       0x1e /usr/bin/../lib/gcc/arm-none-eabi/7.2.1/../../../../arm-none-eabi/lib/thumb/v7e-m/fpv4-sp/hard/libg_nano.a(lib_a-memcmp.o)
                0x0000000000042c1c                memcmp
 .text.memcpy   0x0000000000042c3a       0x16 /usr/bin/../lib/gcc/arm-none-eabi/7.2.1/../../../../arm-none-eabi/lib/thumb/v7e-m/fpv4-sp/hard/libg_nano.a(lib_a-memcpy-stub.o)
                0x0000000000042c3a                memcpy
 .text.memset   0x0000000000042c50       0x10 /usr/bin/../lib/gcc/arm-none-eabi/7.2.1/../../../../arm-none-eabi/lib/thumb/v7e-m/fpv4-sp/hard/libg_nano.a(lib_a-memset.o)
                0x0000000000042c50                memset
 .text._free_r  0x0000000000042c60       0x9c /usr/bin/../lib/gcc/arm-none-eabi/7.2.1/../../../../arm-none-eabi/lib/thumb/v7e-m/fpv4-sp/hard/libg_nano.a(lib_a-nano-freer.o)
                0x0000000000042c60                _free_r
 .text._malloc_r
                0x0000000000042cfc       0xb4 /usr/bin/../lib/gcc/arm-none-eabi/7.2.1/../../../../arm-none-eabi/lib/thumb/v7e-m/fpv4-sp/hard/libg_nano.a(lib_a-nano-mallocr.o)
                0x0000000000042cfc                _malloc_r
 .text._sbrk_r  0x0000000000042db0       0x20 /usr/bin/../lib/gcc/arm-none-eabi/7.2.1/../../../../arm-none-eabi/lib/thumb/v7e-m/fpv4-sp/hard/libg_nano.a(lib_a-sbrkr.o)
                0x0000000000042db0                _sbrk_r
 .text.strcpy   0x0000000000042dd0       0x10 /usr/bin/../lib/gcc/arm-none-eabi/7.2.1/../../../../arm-none-eabi/lib/thumb/v7e-m/fpv4-sp/hard/libg_nano.a(lib_a-strcpy.o)
                0x0000000000042dd0                strcpy
 .text          0x0000000000042de0       0x10 /usr/bin/../lib/gcc/arm-none-eabi/7.2.1/../../../../arm-none-eabi/lib/thumb/v7e-m/fpv4-sp/hard/libg_nano.a(lib_a-strlen.o)
                0x0000000000042de0                strlen
 .text.strrchr  0x0000000000042df0       0x28 /usr/bin/../lib/gcc/arm-none-eabi/7.2.1/../../../../arm-none-eabi/lib/thumb/v7e-m/fpv4-sp/hard/libg_nano.a(lib_a-strrchr.o)
                0x0000000000042df0                strrchr
 .text.__malloc_lock
                0x0000000000042e18        0x2 /usr/bin/../lib/gcc/arm-none-eabi/7.2.1/../../../../arm-none-eabi/lib/thumb/v7e-m/fpv4-sp/hard/libg_nano.a(lib_a-mlock.o)
                0x0000000000042e18                __malloc_lock
 .text.__malloc_unlock
                0x0000000000042e1a        0x2 /usr/bin/../lib/gcc/arm-none-eabi/7.2.1/../../../../arm-none-eabi/lib/thumb/v7e-m/fpv4-sp/hard/libg_nano.a(lib_a-mlock.o)
                0x0000000000042e1a                __malloc_unlock
 .text.strchr   0x0000000000042e1c       0x1a /usr/bin/../lib/gcc/arm-none-eabi/7.2.1/../../../../arm-none-eabi/lib/thumb/v7e-m/fpv4-sp/hard/libg_nano.a(lib_a-strchr.o)
                0x0000000000042e1c                strchr
 *fill*         0x0000000000042e36        0x2 
 .text._sbrk    0x0000000000042e38       0x1c /usr/bin/../lib/gcc/arm-none-eabi/7.2.1/../../../../arm-none-eabi/lib/thumb/v7e-m/fpv4-sp/hard/libnosys.a(sbrk.o)
                0x0000000000042e38                _sbrk
 .text._exit    0x0000000000042e54        0x4 /usr/bin/../lib/gcc/arm-none-eabi/7.2.1/../../../../arm-none-eabi/lib/thumb/v7e-m/fpv4-sp/hard/libnosys.a(_exit.o)
                0x0000000000042e54                _exit
 *(.init)
 .init          0x0000000000042e58        0x4 /usr/bin/../lib/gcc/arm-none-eabi/7.2.1/thumb/v7e-m/fpv4-sp/hard/crti.o
                0x0000000000042e58                _init
 .init          0x0000000000042e5c        0x8 /usr/bin/../lib/gcc/arm-none-eabi/7.2.1/thumb/v7e-m/fpv4-sp/hard/crtn.o
 *(.fini)
 .fini          0x0000000000042e64        0x4 /usr/bin/../lib/gcc/arm-none-eabi/7.2.1/thumb/v7e-m/fpv4-sp/hard/crti.o
                0x0000000000042e64                _fini
 .fini          0x0000000000042e68        0x8 /usr/bin/../lib/gcc/arm-none-eabi/7.2.1/thumb/v7e-m/fpv4-sp/hard/crtn.o
 *crtbegin.o(.ctors)
 *crtbegin?.o(.ctors)
 *(EXCLUDE_FILE(*crtend.o *crtend?.o) .ctors)
 *(SORT_BY_NAME(.ctors.*))
 *(.ctors)
 *crtbegin.o(.dtors)
 *crtbegin?.o(.dtors)
 *(EXCLUDE_FILE(*crtend.o *crtend?.o) .dtors)
 *(SORT_BY_NAME(.dtors.*))
 *(.dtors)
 *(.rodata*)
 .rodata.main.str1.4
                0x0000000000042e70       0x44 CMakeFiles/pb_remote_server_nrf52832_xxAA_s132_6.0.0.dir/src/main.c.obj
 .rodata.models_init_cb.str1.4
                0x0000000000042eb4       0x20 CMakeFiles/pb_remote_server_nrf52832_xxAA_s132_6.0.0.dir/src/main.c.obj
 .rodata.provisioning_complete_cb.str1.4
                0x0000000000042ed4       0x7a CMakeFiles/pb_remote_server_nrf52832_xxAA_s132_6.0.0.dir/src/main.c.obj
 *fill*         0x0000000000042f4e        0x2 
 .rodata.static_auth_data.12973
                0x0000000000042f50       0x10 CMakeFiles/pb_remote_server_nrf52832_xxAA_s132_6.0.0.dir/src/main.c.obj
 .rodata.mesh_softdevice_init.str1.4
                0x0000000000042f60       0xe1 CMakeFiles/pb_remote_server_nrf52832_xxAA_s132_6.0.0.dir/__/__/common/src/mesh_softdevice_init.c.obj
 *fill*         0x0000000000043041        0x3 
 .rodata        0x0000000000043044        0xb CMakeFiles/pb_remote_server_nrf52832_xxAA_s132_6.0.0.dir/__/__/common/src/mesh_provisionee.c.obj
 *fill*         0x000000000004304f        0x1 
 .rodata.delay_bytecode.8588
                0x0000000000043050        0x6 CMakeFiles/pb_remote_server_nrf52832_xxAA_s132_6.0.0.dir/__/__/common/src/simple_hal.c.obj
 *fill*         0x0000000000043056        0x2 
 .rodata.m_buttons_list
                0x0000000000043058        0x4 CMakeFiles/pb_remote_server_nrf52832_xxAA_s132_6.0.0.dir/__/__/common/src/simple_hal.c.obj
 .rodata.app_error_fault_handler.str1.4
                0x000000000004305c       0xfd CMakeFiles/pb_remote_server_nrf52832_xxAA_s132_6.0.0.dir/__/__/common/src/app_error_weak.c.obj
 .rodata.mesh_assertion_handler.str1.4
                0x0000000000043159       0xfd CMakeFiles/pb_remote_server_nrf52832_xxAA_s132_6.0.0.dir/__/__/common/src/assertion_handler_weak.c.obj
                                          0x1 (size before relaxing)
 *fill*         0x0000000000043159        0x3 
 .rodata.sar_ctx_cancel.str1.4
                0x000000000004315c       0x23 CMakeFiles/pb_remote_server_nrf52832_xxAA_s132_6.0.0.dir/__/__/__/mesh/core/src/transport.c.obj
 *fill*         0x000000000004317f        0x1 
 .rodata.transport_packet_in.str1.4
                0x0000000000043180       0x24 CMakeFiles/pb_remote_server_nrf52832_xxAA_s132_6.0.0.dir/__/__/__/mesh/core/src/transport.c.obj
 .rodata.upper_transport_access_packet_in.str1.4
                0x00000000000431a4       0x91 CMakeFiles/pb_remote_server_nrf52832_xxAA_s132_6.0.0.dir/__/__/__/mesh/core/src/transport.c.obj
 *fill*         0x0000000000043235        0x3 
 .rodata.upper_transport_packet_in.str1.4
                0x0000000000043238       0x2e CMakeFiles/pb_remote_server_nrf52832_xxAA_s132_6.0.0.dir/__/__/__/mesh/core/src/transport.c.obj
 *fill*         0x0000000000043266        0x2 
 .rodata.upper_transport_tx.part.27.str1.4
                0x0000000000043268       0x18 CMakeFiles/pb_remote_server_nrf52832_xxAA_s132_6.0.0.dir/__/__/__/mesh/core/src/transport.c.obj
 .rodata.m_procedure_steps
                0x0000000000043280       0x28 CMakeFiles/pb_remote_server_nrf52832_xxAA_s132_6.0.0.dir/__/__/__/mesh/core/src/flash_manager_defrag.c.obj
 .rodata.m_all_operations
                0x00000000000432a8       0x10 CMakeFiles/pb_remote_server_nrf52832_xxAA_s132_6.0.0.dir/__/__/__/mesh/core/src/mesh_flash.c.obj
 .rodata.types_lookup.9220
                0x00000000000432b8        0x4 CMakeFiles/pb_remote_server_nrf52832_xxAA_s132_6.0.0.dir/__/__/__/mesh/core/src/nrf_mesh_utils.c.obj
 .rodata.__func__.11692
                0x00000000000432bc       0x15 CMakeFiles/pb_remote_server_nrf52832_xxAA_s132_6.0.0.dir/__/__/__/mesh/core/src/nrf_mesh.c.obj
 *fill*         0x00000000000432d1        0x3 
 .rodata.nrf_mesh_listen.str1.4
                0x00000000000432d4       0xab CMakeFiles/pb_remote_server_nrf52832_xxAA_s132_6.0.0.dir/__/__/__/mesh/core/src/nrf_mesh.c.obj
 .rodata.nrf_mesh_packet_send.str1.4
                0x000000000004337f       0xab CMakeFiles/pb_remote_server_nrf52832_xxAA_s132_6.0.0.dir/__/__/__/mesh/core/src/nrf_mesh.c.obj
                                          0x4 (size before relaxing)
 *fill*         0x000000000004337f        0x1 
 .rodata.CSWTCH.8
                0x0000000000043380       0x20 CMakeFiles/pb_remote_server_nrf52832_xxAA_s132_6.0.0.dir/__/__/__/mesh/core/src/hal.c.obj
 .rodata        0x00000000000433a0       0x18 CMakeFiles/pb_remote_server_nrf52832_xxAA_s132_6.0.0.dir/__/__/__/mesh/core/src/enc.c.obj
 .rodata.network_packet_in.str1.4
                0x00000000000433b8       0x81 CMakeFiles/pb_remote_server_nrf52832_xxAA_s132_6.0.0.dir/__/__/__/mesh/core/src/network.c.obj
 *fill*         0x0000000000043439        0x3 
 .rodata.net_packet_decrypt.str1.4
                0x000000000004343c       0x6b CMakeFiles/pb_remote_server_nrf52832_xxAA_s132_6.0.0.dir/__/__/__/mesh/core/src/net_packet.c.obj
                                         0x74 (size before relaxing)
 *fill*         0x00000000000434a7        0x1 
 .rodata        0x00000000000434a8        0x7 CMakeFiles/pb_remote_server_nrf52832_xxAA_s132_6.0.0.dir/__/__/__/mesh/core/src/nrf_mesh_keygen.c.obj
 *fill*         0x00000000000434af        0x1 
 .rodata.log_callback_rtt.str1.4
                0x00000000000434b0       0x15 CMakeFiles/pb_remote_server_nrf52832_xxAA_s132_6.0.0.dir/__/__/__/mesh/core/src/log.c.obj
 *fill*         0x00000000000434c5        0x3 
 .rodata.str1.4
                0x00000000000434c8       0x11 CMakeFiles/pb_remote_server_nrf52832_xxAA_s132_6.0.0.dir/__/__/__/mesh/core/src/log.c.obj
 *fill*         0x00000000000434d9        0x3 
 .rodata.INVALID_HEADER
                0x00000000000434dc        0x4 CMakeFiles/pb_remote_server_nrf52832_xxAA_s132_6.0.0.dir/__/__/__/mesh/core/src/flash_manager.c.obj
                0x00000000000434dc                INVALID_HEADER
 .rodata.PADDING_HEADER
                0x00000000000434e0        0x4 CMakeFiles/pb_remote_server_nrf52832_xxAA_s132_6.0.0.dir/__/__/__/mesh/core/src/flash_manager.c.obj
                0x00000000000434e0                PADDING_HEADER
 .rodata.SEAL_HEADER
                0x00000000000434e4        0x4 CMakeFiles/pb_remote_server_nrf52832_xxAA_s132_6.0.0.dir/__/__/__/mesh/core/src/flash_manager.c.obj
                0x00000000000434e4                SEAL_HEADER
 .rodata.beacon_packet_in.str1.4
                0x00000000000434e8       0x8d CMakeFiles/pb_remote_server_nrf52832_xxAA_s132_6.0.0.dir/__/__/__/mesh/core/src/beacon.c.obj
                                         0x98 (size before relaxing)
 *fill*         0x0000000000043575        0x3 
 .rodata.cp_handler
                0x0000000000043578        0x8 CMakeFiles/pb_remote_server_nrf52832_xxAA_s132_6.0.0.dir/__/__/__/mesh/core/src/heartbeat.c.obj
 .rodata.beacon_tx.str1.4
                0x0000000000043580       0x6f CMakeFiles/pb_remote_server_nrf52832_xxAA_s132_6.0.0.dir/__/__/__/mesh/core/src/net_beacon.c.obj
 *fill*         0x00000000000435ef        0x1 
 .rodata.net_beacon_init.str1.4
                0x00000000000435f0        0x5 CMakeFiles/pb_remote_server_nrf52832_xxAA_s132_6.0.0.dir/__/__/__/mesh/core/src/net_beacon.c.obj
 *fill*         0x00000000000435f5        0x3 
 .rodata.m_interface
                0x00000000000435f8        0xc CMakeFiles/pb_remote_server_nrf52832_xxAA_s132_6.0.0.dir/__/__/__/mesh/core/src/core_tx_adv.c.obj
 .rodata.radio_mode_to_us_per_byte.9613
                0x0000000000043604        0x6 CMakeFiles/pb_remote_server_nrf52832_xxAA_s132_6.0.0.dir/__/__/__/mesh/bearer/src/broadcast.c.obj
 *fill*         0x000000000004360a        0x2 
 .rodata.channel_rf_offsets.8831
                0x000000000004360c       0x28 CMakeFiles/pb_remote_server_nrf52832_xxAA_s132_6.0.0.dir/__/__/__/mesh/bearer/src/radio_config.c.obj
 .rodata.m_prov_callbacks
                0x0000000000043634       0x10 CMakeFiles/pb_remote_server_nrf52832_xxAA_s132_6.0.0.dir/__/__/__/mesh/prov/src/prov_provisionee.c.obj
 .rodata.prov_provisionee_cb_ack_received.str1.4
                0x0000000000043644       0x8b CMakeFiles/pb_remote_server_nrf52832_xxAA_s132_6.0.0.dir/__/__/__/mesh/prov/src/prov_provisionee.c.obj
 *fill*         0x00000000000436cf        0x1 
 .rodata.multiply_de_bruijn_bit_position.9474
                0x00000000000436d0       0x20 CMakeFiles/pb_remote_server_nrf52832_xxAA_s132_6.0.0.dir/__/__/__/mesh/prov/src/nrf_mesh_prov.c.obj
 .rodata.pdu_sizes.11435
                0x00000000000436f0        0xa CMakeFiles/pb_remote_server_nrf52832_xxAA_s132_6.0.0.dir/__/__/__/mesh/prov/src/provisioning.c.obj
 *fill*         0x00000000000436fa        0x2 
 .rodata.alphanumeric.11540
                0x00000000000436fc       0x25 CMakeFiles/pb_remote_server_nrf52832_xxAA_s132_6.0.0.dir/__/__/__/mesh/prov/src/prov_utils.c.obj
 *fill*         0x0000000000043721        0x3 
 .rodata.numeric_max.11534
                0x0000000000043724       0x24 CMakeFiles/pb_remote_server_nrf52832_xxAA_s132_6.0.0.dir/__/__/__/mesh/prov/src/prov_utils.c.obj
 .rodata.prov_utils_authentication_values_derive.str1.4
                0x0000000000043748        0x5 CMakeFiles/pb_remote_server_nrf52832_xxAA_s132_6.0.0.dir/__/__/__/mesh/prov/src/prov_utils.c.obj
 *fill*         0x000000000004374d        0x3 
 .rodata.prov_utils_derive_keys.str1.4
                0x0000000000043750       0x15 CMakeFiles/pb_remote_server_nrf52832_xxAA_s132_6.0.0.dir/__/__/__/mesh/prov/src/prov_utils.c.obj
 *fill*         0x0000000000043765        0x3 
 .rodata.crctable.11169
                0x0000000000043768      0x100 CMakeFiles/pb_remote_server_nrf52832_xxAA_s132_6.0.0.dir/__/__/__/mesh/prov/src/prov_bearer_adv.c.obj
 .rodata.interface.11399
                0x0000000000043868       0x14 CMakeFiles/pb_remote_server_nrf52832_xxAA_s132_6.0.0.dir/__/__/__/mesh/prov/src/prov_bearer_adv.c.obj
 .rodata.prov_bearer_adv_listen.str1.4
                0x000000000004387c       0x88 CMakeFiles/pb_remote_server_nrf52832_xxAA_s132_6.0.0.dir/__/__/__/mesh/prov/src/prov_bearer_adv.c.obj
 .rodata.prov_bearer_adv_packet_in.str1.4
                0x0000000000043904      0x283 CMakeFiles/pb_remote_server_nrf52832_xxAA_s132_6.0.0.dir/__/__/__/mesh/prov/src/prov_bearer_adv.c.obj
 *fill*         0x0000000000043b87        0x1 
 .rodata.tx_retry_cb.str1.4
                0x0000000000043b88       0x14 CMakeFiles/pb_remote_server_nrf52832_xxAA_s132_6.0.0.dir/__/__/__/mesh/prov/src/prov_bearer_adv.c.obj
 .rodata        0x0000000000043b9c       0x30 CMakeFiles/pb_remote_server_nrf52832_xxAA_s132_6.0.0.dir/__/__/__/models/pb_remote/src/pb_remote_server.c.obj
 .rodata.local_link_open.isra.14.str1.4
                0x0000000000043bcc       0x27 CMakeFiles/pb_remote_server_nrf52832_xxAA_s132_6.0.0.dir/__/__/__/models/pb_remote/src/pb_remote_server.c.obj
 *fill*         0x0000000000043bf3        0x1 
 .rodata.m_opcode_handlers
                0x0000000000043bf4       0x48 CMakeFiles/pb_remote_server_nrf52832_xxAA_s132_6.0.0.dir/__/__/__/models/pb_remote/src/pb_remote_server.c.obj
 .rodata.m_pb_remote_server_event_handler_callbacks
                0x0000000000043c3c       0x3c CMakeFiles/pb_remote_server_nrf52832_xxAA_s132_6.0.0.dir/__/__/__/models/pb_remote/src/pb_remote_server.c.obj
 .rodata.pb_remote_server_event_link_close_cb.str1.4
                0x0000000000043c78       0x1d CMakeFiles/pb_remote_server_nrf52832_xxAA_s132_6.0.0.dir/__/__/__/models/pb_remote/src/pb_remote_server.c.obj
 *fill*         0x0000000000043c95        0x3 
 .rodata.pb_remote_server_event_link_established_cb.str1.4
                0x0000000000043c98       0x2f CMakeFiles/pb_remote_server_nrf52832_xxAA_s132_6.0.0.dir/__/__/__/models/pb_remote/src/pb_remote_server.c.obj
 *fill*         0x0000000000043cc7        0x1 
 .rodata.pb_remote_server_event_link_status_cb.str1.4
                0x0000000000043cc8       0x90 CMakeFiles/pb_remote_server_nrf52832_xxAA_s132_6.0.0.dir/__/__/__/models/pb_remote/src/pb_remote_server.c.obj
 .rodata.pb_remote_server_event_local_ack_cb.str1.4
                0x0000000000043d58       0x16 CMakeFiles/pb_remote_server_nrf52832_xxAA_s132_6.0.0.dir/__/__/__/models/pb_remote/src/pb_remote_server.c.obj
 *fill*         0x0000000000043d6e        0x2 
 .rodata.pb_remote_server_event_local_packet_cb.str1.4
                0x0000000000043d70       0x2b CMakeFiles/pb_remote_server_nrf52832_xxAA_s132_6.0.0.dir/__/__/__/models/pb_remote/src/pb_remote_server.c.obj
 *fill*         0x0000000000043d9b        0x1 
 .rodata.pb_remote_server_event_packet_transfer_cb.str1.4
                0x0000000000043d9c       0x2d CMakeFiles/pb_remote_server_nrf52832_xxAA_s132_6.0.0.dir/__/__/__/models/pb_remote/src/pb_remote_server.c.obj
 *fill*         0x0000000000043dc9        0x3 
 .rodata.pb_remote_server_event_scan_report_status_cb.str1.4
                0x0000000000043dcc       0x1e CMakeFiles/pb_remote_server_nrf52832_xxAA_s132_6.0.0.dir/__/__/__/models/pb_remote/src/pb_remote_server.c.obj
 *fill*         0x0000000000043dea        0x2 
 .rodata.pb_remote_server_event_scan_start_filter_cb.str1.4
                0x0000000000043dec        0xe CMakeFiles/pb_remote_server_nrf52832_xxAA_s132_6.0.0.dir/__/__/__/models/pb_remote/src/pb_remote_server.c.obj
                                         0x18 (size before relaxing)
 *fill*         0x0000000000043dfa        0x2 
 .rodata.pb_remote_server_event_transfer_status_cb.str1.4
                0x0000000000043dfc       0xa5 CMakeFiles/pb_remote_server_nrf52832_xxAA_s132_6.0.0.dir/__/__/__/models/pb_remote/src/pb_remote_server.c.obj
 *fill*         0x0000000000043ea1        0x3 
 .rodata.pb_remote_server_event_unprov_uuid_cb.str1.4
                0x0000000000043ea4       0x19 CMakeFiles/pb_remote_server_nrf52832_xxAA_s132_6.0.0.dir/__/__/__/models/pb_remote/src/pb_remote_server.c.obj
 *fill*         0x0000000000043ebd        0x3 
 .rodata.pb_remote_server_process.part.4.str1.4
                0x0000000000043ec0       0x2a CMakeFiles/pb_remote_server_nrf52832_xxAA_s132_6.0.0.dir/__/__/__/models/pb_remote/src/pb_remote_server.c.obj
 *fill*         0x0000000000043eea        0x2 
 .rodata.prov_callbacks.12314
                0x0000000000043eec       0x10 CMakeFiles/pb_remote_server_nrf52832_xxAA_s132_6.0.0.dir/__/__/__/models/pb_remote/src/pb_remote_server.c.obj
 .rodata.server_reliable_status_cb.str1.4
                0x0000000000043efc       0x64 CMakeFiles/pb_remote_server_nrf52832_xxAA_s132_6.0.0.dir/__/__/__/models/pb_remote/src/pb_remote_server.c.obj
 .rodata.access_model_publish.str1.4
                0x0000000000043f60       0x1c CMakeFiles/pb_remote_server_nrf52832_xxAA_s132_6.0.0.dir/__/__/__/mesh/access/src/access.c.obj
                                         0x24 (size before relaxing)
 .rodata.mesh_evt_cb.str1.4
                0x0000000000043f7c       0x67 CMakeFiles/pb_remote_server_nrf52832_xxAA_s132_6.0.0.dir/__/__/__/mesh/access/src/access.c.obj
 *fill*         0x0000000000043fe3        0x1 
 .rodata.multiply_de_bruijn_bit_position.9421
                0x0000000000043fe4       0x20 CMakeFiles/pb_remote_server_nrf52832_xxAA_s132_6.0.0.dir/__/__/__/mesh/access/src/access.c.obj
 .rodata.m_flash_groups
                0x0000000000044004       0xa8 CMakeFiles/pb_remote_server_nrf52832_xxAA_s132_6.0.0.dir/__/__/__/mesh/access/src/device_state_manager.c.obj
 .rodata.multiply_de_bruijn_bit_position.9527
                0x00000000000440ac       0x20 CMakeFiles/pb_remote_server_nrf52832_xxAA_s132_6.0.0.dir/__/__/__/mesh/access/src/device_state_manager.c.obj
 .rodata        0x00000000000440cc        0x8 CMakeFiles/pb_remote_server_nrf52832_xxAA_s132_6.0.0.dir/__/__/__/models/config/src/config_server.c.obj
 .rodata.CSWTCH.178
                0x00000000000440d4       0x10 CMakeFiles/pb_remote_server_nrf52832_xxAA_s132_6.0.0.dir/__/__/__/models/config/src/config_server.c.obj
 .rodata.opcode_handlers
                0x00000000000440e4      0x170 CMakeFiles/pb_remote_server_nrf52832_xxAA_s132_6.0.0.dir/__/__/__/models/config/src/config_server.c.obj
 .rodata.m_opcode_handlers
                0x0000000000044254       0x58 CMakeFiles/pb_remote_server_nrf52832_xxAA_s132_6.0.0.dir/__/__/__/models/health/src/health_server.c.obj
 .rodata.multiply_de_bruijn_bit_position.9465
                0x00000000000442ac       0x20 CMakeFiles/pb_remote_server_nrf52832_xxAA_s132_6.0.0.dir/__/__/__/models/health/src/health_server.c.obj
 .rodata.SEGGER_RTT_ReadNoLock.str1.4
                0x00000000000442cc       0x18 ../../../external/rtt/librtt_nrf52832_xxAA.a(SEGGER_RTT.c.obj)
                                         0x17 (size before relaxing)
 .rodata._aV2C.5639
                0x00000000000442e4       0x10 ../../../external/rtt/librtt_nrf52832_xxAA.a(SEGGER_RTT_printf.c.obj)
 .rodata.curve_secp256r1
                0x00000000000442f4       0xb0 ../../../external/micro-ecc/libuECC_nrf52832_xxAA.a(uECC.c.obj)
 .rodata._global_impure_ptr
                0x00000000000443a4        0x4 /usr/bin/../lib/gcc/arm-none-eabi/7.2.1/../../../../arm-none-eabi/lib/thumb/v7e-m/fpv4-sp/hard/libg_nano.a(lib_a-impure.o)
                0x00000000000443a4                _global_impure_ptr
 *(.eh_frame*)
 .eh_frame      0x00000000000443a8        0x0 /usr/bin/../lib/gcc/arm-none-eabi/7.2.1/thumb/v7e-m/fpv4-sp/hard/crtbegin.o
 .eh_frame      0x00000000000443a8        0x4 /usr/bin/../lib/gcc/arm-none-eabi/7.2.1/thumb/v7e-m/fpv4-sp/hard/crtend.o

.glue_7         0x00000000000443ac        0x0
 .glue_7        0x00000000000443ac        0x0 linker stubs

.glue_7t        0x00000000000443ac        0x0
 .glue_7t       0x00000000000443ac        0x0 linker stubs

.vfp11_veneer   0x00000000000443ac        0x0
 .vfp11_veneer  0x00000000000443ac        0x0 linker stubs

.v4_bx          0x00000000000443ac        0x0
 .v4_bx         0x00000000000443ac        0x0 linker stubs

.iplt           0x00000000000443ac        0x0
 .iplt          0x00000000000443ac        0x0 /usr/bin/../lib/gcc/arm-none-eabi/7.2.1/thumb/v7e-m/fpv4-sp/hard/crtbegin.o

.pwr_mgmt_data  0x00000000000443ac        0x0
                [!provide]                        PROVIDE (__start_pwr_mgmt_data, .)
 *(SORT_BY_NAME(.pwr_mgmt_data*))
                [!provide]                        PROVIDE (__stop_pwr_mgmt_data, .)

.log_const_data
                0x00000000000443ac        0x0
                [!provide]                        PROVIDE (__start_log_const_data, .)
 *(.log_const_data)
                [!provide]                        PROVIDE (__stop_log_const_data, .)

.cli_command    0x00000000000443ac        0x0
                [!provide]                        PROVIDE (__start_cli_command, .)
 *(.cli_command)
                [!provide]                        PROVIDE (__stop_cli_command, .)

.sdh_stack_observers
                0x00000000000443ac        0x0
                [!provide]                        PROVIDE (__start_sdh_stack_observers, .)
 *(SORT_BY_NAME(.sdh_stack_observers*))
                [!provide]                        PROVIDE (__stop_sdh_stack_observers, .)

.sdh_req_observers
                0x00000000000443ac        0x0
                [!provide]                        PROVIDE (__start_sdh_req_observers, .)
 *(SORT_BY_NAME(.sdh_req_observers*))
                [!provide]                        PROVIDE (__stop_sdh_req_observers, .)

.sdh_state_observers
                0x00000000000443ac        0x0
                [!provide]                        PROVIDE (__start_sdh_state_observers, .)
 *(SORT_BY_NAME(.sdh_state_observers*))
                [!provide]                        PROVIDE (__stop_sdh_state_observers, .)

.sdh_ant_observers
                0x00000000000443ac        0x0
                [!provide]                        PROVIDE (__start_sdh_ant_observers, .)
 *(SORT_BY_NAME(.sdh_ant_observers*))
                [!provide]                        PROVIDE (__stop_sdh_ant_observers, .)

.sdh_ble_observers
                0x00000000000443ac        0x0
                [!provide]                        PROVIDE (__start_sdh_ble_observers, .)
 *(SORT_BY_NAME(.sdh_ble_observers*))
                [!provide]                        PROVIDE (__stop_sdh_ble_observers, .)

.sdh_soc_observers
                0x00000000000443ac        0x0
                [!provide]                        PROVIDE (__start_sdh_soc_observers, .)
 *(SORT_BY_NAME(.sdh_soc_observers*))
                [!provide]                        PROVIDE (__stop_sdh_soc_observers, .)

.ARM.extab
 *(.ARM.extab* .gnu.linkonce.armextab.*)
                0x00000000000443ac                __exidx_start = .

.ARM.exidx      0x00000000000443ac        0x8
 *(.ARM.exidx* .gnu.linkonce.armexidx.*)
 .ARM.exidx     0x00000000000443ac        0x8 /usr/bin/../lib/gcc/arm-none-eabi/7.2.1/../../../../arm-none-eabi/lib/thumb/v7e-m/fpv4-sp/hard/crt0.o
                0x00000000000443b4                __exidx_end = .
                0x00000000000443b4                __etext = .

.rel.dyn        0x00000000000443b4        0x0
 .rel.iplt      0x00000000000443b4        0x0 /usr/bin/../lib/gcc/arm-none-eabi/7.2.1/thumb/v7e-m/fpv4-sp/hard/crtbegin.o

.data           0x00000000200032c8      0x138 load address 0x00000000000443b4
                0x00000000200032c8                __data_start__ = .
 *(vtable)
 *(.data*)
 .data.wait.9133
                0x00000000200032c8        0x1 CMakeFiles/pb_remote_server_nrf52832_xxAA_s132_6.0.0.dir/__/__/common/src/app_error_weak.c.obj
 *fill*         0x00000000200032c9        0x3 
 .data.mem_listener.10007
                0x00000000200032cc       0x10 CMakeFiles/pb_remote_server_nrf52832_xxAA_s132_6.0.0.dir/__/__/__/mesh/core/src/net_state.c.obj
 .data.mem_listener.9971
                0x00000000200032dc       0x10 CMakeFiles/pb_remote_server_nrf52832_xxAA_s132_6.0.0.dir/__/__/__/mesh/core/src/net_state.c.obj
 .data.mem_listener.9976
                0x00000000200032ec       0x10 CMakeFiles/pb_remote_server_nrf52832_xxAA_s132_6.0.0.dir/__/__/__/mesh/core/src/net_state.c.obj
 .data.mem_listener.9990
                0x00000000200032fc       0x10 CMakeFiles/pb_remote_server_nrf52832_xxAA_s132_6.0.0.dir/__/__/__/mesh/core/src/net_state.c.obj
 .data.m_nrf_mesh_listener
                0x000000002000330c        0xc CMakeFiles/pb_remote_server_nrf52832_xxAA_s132_6.0.0.dir/__/__/__/mesh/core/src/nrf_mesh.c.obj
 .data.g_log_dbg_lvl
                0x0000000020003318        0x4 CMakeFiles/pb_remote_server_nrf52832_xxAA_s132_6.0.0.dir/__/__/__/mesh/core/src/log.c.obj
                0x0000000020003318                g_log_dbg_lvl
 .data.g_log_dbg_msk
                0x000000002000331c        0x4 CMakeFiles/pb_remote_server_nrf52832_xxAA_s132_6.0.0.dir/__/__/__/mesh/core/src/log.c.obj
                0x000000002000331c                g_log_dbg_msk
 .data.g_log_hex_digits
                0x0000000020003320        0x4 CMakeFiles/pb_remote_server_nrf52832_xxAA_s132_6.0.0.dir/__/__/__/mesh/core/src/log.c.obj
                0x0000000020003320                g_log_hex_digits
 .data.m_log_callback
                0x0000000020003324        0x4 CMakeFiles/pb_remote_server_nrf52832_xxAA_s132_6.0.0.dir/__/__/__/mesh/core/src/log.c.obj
                0x0000000020003324                m_log_callback
 .data.m_async_process_flag
                0x0000000020003328        0x4 CMakeFiles/pb_remote_server_nrf52832_xxAA_s132_6.0.0.dir/__/__/__/mesh/prov/src/prov_bearer_adv.c.obj
 .data.flash_add_mem_available_struct.10545
                0x000000002000332c       0x10 CMakeFiles/pb_remote_server_nrf52832_xxAA_s132_6.0.0.dir/__/__/__/mesh/access/src/access.c.obj
 .data.flash_clear_mem_available_struct.10634
                0x000000002000333c       0x10 CMakeFiles/pb_remote_server_nrf52832_xxAA_s132_6.0.0.dir/__/__/__/mesh/access/src/access.c.obj
 .data.flash_store_mem_available_struct.10658
                0x000000002000334c       0x10 CMakeFiles/pb_remote_server_nrf52832_xxAA_s132_6.0.0.dir/__/__/__/mesh/access/src/access.c.obj
 .data.m_default_ttl
                0x000000002000335c        0x1 CMakeFiles/pb_remote_server_nrf52832_xxAA_s132_6.0.0.dir/__/__/__/mesh/access/src/access.c.obj
 *fill*         0x000000002000335d        0x3 
 .data.mem_listener.10834
                0x0000000020003360       0x10 CMakeFiles/pb_remote_server_nrf52832_xxAA_s132_6.0.0.dir/__/__/__/mesh/access/src/device_state_manager.c.obj
 .data.mem_listener.10860
                0x0000000020003370       0x10 CMakeFiles/pb_remote_server_nrf52832_xxAA_s132_6.0.0.dir/__/__/__/mesh/access/src/device_state_manager.c.obj
 .data.m_config_server_handle
                0x0000000020003380        0x2 CMakeFiles/pb_remote_server_nrf52832_xxAA_s132_6.0.0.dir/__/__/__/models/config/src/config_server.c.obj
 *fill*         0x0000000020003382        0x2 
 .data.m_mesh_evt_handler
                0x0000000020003384        0x8 CMakeFiles/pb_remote_server_nrf52832_xxAA_s132_6.0.0.dir/__/__/__/models/config/src/config_server.c.obj
 .data.SystemCoreClock
                0x000000002000338c        0x4 CMakeFiles/pb_remote_server_nrf52832_xxAA_s132_6.0.0.dir/home/mazzer/work/nordic/sdk/nRF5_SDK_15.0.0/modules/nrfx/mdk/system_nrf52.c.obj
                0x000000002000338c                SystemCoreClock
 .data.g_rng_function
                0x0000000020003390        0x4 ../../../external/micro-ecc/libuECC_nrf52832_xxAA.a(uECC.c.obj)
 .data._impure_ptr
                0x0000000020003394        0x4 /usr/bin/../lib/gcc/arm-none-eabi/7.2.1/../../../../arm-none-eabi/lib/thumb/v7e-m/fpv4-sp/hard/libg_nano.a(lib_a-impure.o)
                0x0000000020003394                _impure_ptr
 .data.impure_data
                0x0000000020003398       0x60 /usr/bin/../lib/gcc/arm-none-eabi/7.2.1/../../../../arm-none-eabi/lib/thumb/v7e-m/fpv4-sp/hard/libg_nano.a(lib_a-impure.o)
                0x00000000200033f8                . = ALIGN (0x4)
                0x00000000200033f8                PROVIDE (__preinit_array_start, .)
 *(.preinit_array)
                0x00000000200033f8                PROVIDE (__preinit_array_end, .)
                0x00000000200033f8                . = ALIGN (0x4)
                0x00000000200033f8                PROVIDE (__init_array_start, .)
 *(SORT_BY_NAME(.init_array.*))
 *(.init_array)
 .init_array    0x00000000200033f8        0x4 /usr/bin/../lib/gcc/arm-none-eabi/7.2.1/thumb/v7e-m/fpv4-sp/hard/crtbegin.o
                0x00000000200033fc                PROVIDE (__init_array_end, .)
                0x00000000200033fc                . = ALIGN (0x4)
                [!provide]                        PROVIDE (__fini_array_start, .)
 *(SORT_BY_NAME(.fini_array.*))
 *(.fini_array)
 .fini_array    0x00000000200033fc        0x4 /usr/bin/../lib/gcc/arm-none-eabi/7.2.1/thumb/v7e-m/fpv4-sp/hard/crtbegin.o
                [!provide]                        PROVIDE (__fini_array_end, .)
 *(.jcr*)
                0x0000000020003400                . = ALIGN (0x4)
                0x0000000020003400                __data_end__ = .
LOAD /usr/bin/../lib/gcc/arm-none-eabi/7.2.1/thumb/v7e-m/fpv4-sp/hard/crti.o
LOAD /usr/bin/../lib/gcc/arm-none-eabi/7.2.1/thumb/v7e-m/fpv4-sp/hard/crtbegin.o
LOAD /usr/bin/../lib/gcc/arm-none-eabi/7.2.1/../../../../arm-none-eabi/lib/thumb/v7e-m/fpv4-sp/hard/crt0.o
LOAD CMakeFiles/pb_remote_server_nrf52832_xxAA_s132_6.0.0.dir/src/main.c.obj
LOAD CMakeFiles/pb_remote_server_nrf52832_xxAA_s132_6.0.0.dir/__/__/__/mesh/stack/src/mesh_stack.c.obj
LOAD CMakeFiles/pb_remote_server_nrf52832_xxAA_s132_6.0.0.dir/__/__/common/src/mesh_softdevice_init.c.obj
LOAD CMakeFiles/pb_remote_server_nrf52832_xxAA_s132_6.0.0.dir/__/__/common/src/mesh_provisionee.c.obj
LOAD CMakeFiles/pb_remote_server_nrf52832_xxAA_s132_6.0.0.dir/__/__/common/src/simple_hal.c.obj
LOAD CMakeFiles/pb_remote_server_nrf52832_xxAA_s132_6.0.0.dir/__/__/nrf_mesh_weak.c.obj
LOAD CMakeFiles/pb_remote_server_nrf52832_xxAA_s132_6.0.0.dir/__/__/common/src/app_error_weak.c.obj
LOAD CMakeFiles/pb_remote_server_nrf52832_xxAA_s132_6.0.0.dir/__/__/common/src/assertion_handler_weak.c.obj
LOAD CMakeFiles/pb_remote_server_nrf52832_xxAA_s132_6.0.0.dir/__/__/__/mesh/core/src/internal_event.c.obj
LOAD CMakeFiles/pb_remote_server_nrf52832_xxAA_s132_6.0.0.dir/__/__/__/mesh/core/src/nrf_mesh_configure.c.obj
LOAD CMakeFiles/pb_remote_server_nrf52832_xxAA_s132_6.0.0.dir/__/__/__/mesh/core/src/aes.c.obj
LOAD CMakeFiles/pb_remote_server_nrf52832_xxAA_s132_6.0.0.dir/__/__/__/mesh/core/src/msg_cache.c.obj
LOAD CMakeFiles/pb_remote_server_nrf52832_xxAA_s132_6.0.0.dir/__/__/__/mesh/core/src/transport.c.obj
LOAD CMakeFiles/pb_remote_server_nrf52832_xxAA_s132_6.0.0.dir/__/__/__/mesh/core/src/event.c.obj
LOAD CMakeFiles/pb_remote_server_nrf52832_xxAA_s132_6.0.0.dir/__/__/__/mesh/core/src/packet_buffer.c.obj
LOAD CMakeFiles/pb_remote_server_nrf52832_xxAA_s132_6.0.0.dir/__/__/__/mesh/core/src/flash_manager_defrag.c.obj
LOAD CMakeFiles/pb_remote_server_nrf52832_xxAA_s132_6.0.0.dir/__/__/__/mesh/core/src/fifo.c.obj
LOAD CMakeFiles/pb_remote_server_nrf52832_xxAA_s132_6.0.0.dir/__/__/__/mesh/core/src/nrf_flash.c.obj
LOAD CMakeFiles/pb_remote_server_nrf52832_xxAA_s132_6.0.0.dir/__/__/__/mesh/core/src/packet_mgr.c.obj
LOAD CMakeFiles/pb_remote_server_nrf52832_xxAA_s132_6.0.0.dir/__/__/__/mesh/core/src/net_state.c.obj
LOAD CMakeFiles/pb_remote_server_nrf52832_xxAA_s132_6.0.0.dir/__/__/__/mesh/core/src/mesh_flash.c.obj
LOAD CMakeFiles/pb_remote_server_nrf52832_xxAA_s132_6.0.0.dir/__/__/__/mesh/core/src/nrf_mesh_utils.c.obj
LOAD CMakeFiles/pb_remote_server_nrf52832_xxAA_s132_6.0.0.dir/__/__/__/mesh/core/src/nrf_mesh.c.obj
LOAD CMakeFiles/pb_remote_server_nrf52832_xxAA_s132_6.0.0.dir/__/__/__/mesh/core/src/queue.c.obj
LOAD CMakeFiles/pb_remote_server_nrf52832_xxAA_s132_6.0.0.dir/__/__/__/mesh/core/src/hal.c.obj
LOAD CMakeFiles/pb_remote_server_nrf52832_xxAA_s132_6.0.0.dir/__/__/__/mesh/core/src/aes_cmac.c.obj
LOAD CMakeFiles/pb_remote_server_nrf52832_xxAA_s132_6.0.0.dir/__/__/__/mesh/core/src/timer_scheduler.c.obj
LOAD CMakeFiles/pb_remote_server_nrf52832_xxAA_s132_6.0.0.dir/__/__/__/mesh/core/src/timer.c.obj
LOAD CMakeFiles/pb_remote_server_nrf52832_xxAA_s132_6.0.0.dir/__/__/__/mesh/core/src/ticker.c.obj
LOAD CMakeFiles/pb_remote_server_nrf52832_xxAA_s132_6.0.0.dir/__/__/__/mesh/core/src/rand.c.obj
LOAD CMakeFiles/pb_remote_server_nrf52832_xxAA_s132_6.0.0.dir/__/__/__/mesh/core/src/nrf_mesh_opt.c.obj
LOAD CMakeFiles/pb_remote_server_nrf52832_xxAA_s132_6.0.0.dir/__/__/__/mesh/core/src/timeslot.c.obj
LOAD CMakeFiles/pb_remote_server_nrf52832_xxAA_s132_6.0.0.dir/__/__/__/mesh/core/src/bearer_event.c.obj
LOAD CMakeFiles/pb_remote_server_nrf52832_xxAA_s132_6.0.0.dir/__/__/__/mesh/core/src/enc.c.obj
LOAD CMakeFiles/pb_remote_server_nrf52832_xxAA_s132_6.0.0.dir/__/__/__/mesh/core/src/network.c.obj
LOAD CMakeFiles/pb_remote_server_nrf52832_xxAA_s132_6.0.0.dir/__/__/__/mesh/core/src/net_packet.c.obj
LOAD CMakeFiles/pb_remote_server_nrf52832_xxAA_s132_6.0.0.dir/__/__/__/mesh/core/src/msqueue.c.obj
LOAD CMakeFiles/pb_remote_server_nrf52832_xxAA_s132_6.0.0.dir/__/__/__/mesh/core/src/nrf_mesh_keygen.c.obj
LOAD CMakeFiles/pb_remote_server_nrf52832_xxAA_s132_6.0.0.dir/__/__/__/mesh/core/src/cache.c.obj
LOAD CMakeFiles/pb_remote_server_nrf52832_xxAA_s132_6.0.0.dir/__/__/__/mesh/core/src/uri.c.obj
LOAD CMakeFiles/pb_remote_server_nrf52832_xxAA_s132_6.0.0.dir/__/__/__/mesh/core/src/list.c.obj
LOAD CMakeFiles/pb_remote_server_nrf52832_xxAA_s132_6.0.0.dir/__/__/__/mesh/core/src/log.c.obj
LOAD CMakeFiles/pb_remote_server_nrf52832_xxAA_s132_6.0.0.dir/__/__/__/mesh/core/src/flash_manager.c.obj
LOAD CMakeFiles/pb_remote_server_nrf52832_xxAA_s132_6.0.0.dir/__/__/__/mesh/core/src/ccm_soft.c.obj
LOAD CMakeFiles/pb_remote_server_nrf52832_xxAA_s132_6.0.0.dir/__/__/__/mesh/core/src/toolchain.c.obj
LOAD CMakeFiles/pb_remote_server_nrf52832_xxAA_s132_6.0.0.dir/__/__/__/mesh/core/src/replay_cache.c.obj
LOAD CMakeFiles/pb_remote_server_nrf52832_xxAA_s132_6.0.0.dir/__/__/__/mesh/core/src/beacon.c.obj
LOAD CMakeFiles/pb_remote_server_nrf52832_xxAA_s132_6.0.0.dir/__/__/__/mesh/core/src/flash_manager_internal.c.obj
LOAD CMakeFiles/pb_remote_server_nrf52832_xxAA_s132_6.0.0.dir/__/__/__/mesh/core/src/core_tx.c.obj
LOAD CMakeFiles/pb_remote_server_nrf52832_xxAA_s132_6.0.0.dir/__/__/__/mesh/core/src/heartbeat.c.obj
LOAD CMakeFiles/pb_remote_server_nrf52832_xxAA_s132_6.0.0.dir/__/__/__/mesh/core/src/net_beacon.c.obj
LOAD CMakeFiles/pb_remote_server_nrf52832_xxAA_s132_6.0.0.dir/__/__/__/mesh/core/src/fsm.c.obj
LOAD CMakeFiles/pb_remote_server_nrf52832_xxAA_s132_6.0.0.dir/__/__/__/mesh/core/src/core_tx_adv.c.obj
LOAD CMakeFiles/pb_remote_server_nrf52832_xxAA_s132_6.0.0.dir/__/__/__/mesh/bearer/src/ad_listener.c.obj
LOAD CMakeFiles/pb_remote_server_nrf52832_xxAA_s132_6.0.0.dir/__/__/__/mesh/bearer/src/ad_type_filter.c.obj
LOAD CMakeFiles/pb_remote_server_nrf52832_xxAA_s132_6.0.0.dir/__/__/__/mesh/bearer/src/adv_packet_filter.c.obj
LOAD CMakeFiles/pb_remote_server_nrf52832_xxAA_s132_6.0.0.dir/__/__/__/mesh/bearer/src/advertiser.c.obj
LOAD CMakeFiles/pb_remote_server_nrf52832_xxAA_s132_6.0.0.dir/__/__/__/mesh/bearer/src/bearer_handler.c.obj
LOAD CMakeFiles/pb_remote_server_nrf52832_xxAA_s132_6.0.0.dir/__/__/__/mesh/bearer/src/broadcast.c.obj
LOAD CMakeFiles/pb_remote_server_nrf52832_xxAA_s132_6.0.0.dir/__/__/__/mesh/bearer/src/filter_engine.c.obj
LOAD CMakeFiles/pb_remote_server_nrf52832_xxAA_s132_6.0.0.dir/__/__/__/mesh/bearer/src/gap_address_filter.c.obj
LOAD CMakeFiles/pb_remote_server_nrf52832_xxAA_s132_6.0.0.dir/__/__/__/mesh/bearer/src/radio_config.c.obj
LOAD CMakeFiles/pb_remote_server_nrf52832_xxAA_s132_6.0.0.dir/__/__/__/mesh/bearer/src/rssi_filter.c.obj
LOAD CMakeFiles/pb_remote_server_nrf52832_xxAA_s132_6.0.0.dir/__/__/__/mesh/bearer/src/scanner.c.obj
LOAD CMakeFiles/pb_remote_server_nrf52832_xxAA_s132_6.0.0.dir/__/__/__/mesh/prov/src/prov_provisionee.c.obj
LOAD CMakeFiles/pb_remote_server_nrf52832_xxAA_s132_6.0.0.dir/__/__/__/mesh/prov/src/nrf_mesh_prov.c.obj
LOAD CMakeFiles/pb_remote_server_nrf52832_xxAA_s132_6.0.0.dir/__/__/__/mesh/prov/src/provisioning.c.obj
LOAD CMakeFiles/pb_remote_server_nrf52832_xxAA_s132_6.0.0.dir/__/__/__/mesh/prov/src/prov_beacon.c.obj
LOAD CMakeFiles/pb_remote_server_nrf52832_xxAA_s132_6.0.0.dir/__/__/__/mesh/prov/src/prov_utils.c.obj
LOAD CMakeFiles/pb_remote_server_nrf52832_xxAA_s132_6.0.0.dir/__/__/__/mesh/prov/src/prov_bearer_adv.c.obj
LOAD CMakeFiles/pb_remote_server_nrf52832_xxAA_s132_6.0.0.dir/__/__/__/models/pb_remote/src/pb_remote_server.c.obj
LOAD CMakeFiles/pb_remote_server_nrf52832_xxAA_s132_6.0.0.dir/__/__/__/mesh/access/src/access_publish.c.obj
LOAD CMakeFiles/pb_remote_server_nrf52832_xxAA_s132_6.0.0.dir/__/__/__/mesh/access/src/access.c.obj
LOAD CMakeFiles/pb_remote_server_nrf52832_xxAA_s132_6.0.0.dir/__/__/__/mesh/access/src/access_reliable.c.obj
LOAD CMakeFiles/pb_remote_server_nrf52832_xxAA_s132_6.0.0.dir/__/__/__/mesh/access/src/device_state_manager.c.obj
LOAD CMakeFiles/pb_remote_server_nrf52832_xxAA_s132_6.0.0.dir/__/__/__/models/config/src/composition_data.c.obj
LOAD CMakeFiles/pb_remote_server_nrf52832_xxAA_s132_6.0.0.dir/__/__/__/models/config/src/config_server.c.obj
LOAD CMakeFiles/pb_remote_server_nrf52832_xxAA_s132_6.0.0.dir/__/__/__/models/config/src/packed_index_list.c.obj
LOAD CMakeFiles/pb_remote_server_nrf52832_xxAA_s132_6.0.0.dir/__/__/__/models/health/src/health_server.c.obj
LOAD CMakeFiles/pb_remote_server_nrf52832_xxAA_s132_6.0.0.dir/home/mazzer/work/nordic/sdk/nRF5_SDK_15.0.0/modules/nrfx/mdk/system_nrf52.c.obj
LOAD CMakeFiles/pb_remote_server_nrf52832_xxAA_s132_6.0.0.dir/home/mazzer/work/nordic/sdk/nRF5_SDK_15.0.0/modules/nrfx/mdk/gcc_startup_nrf52.S.obj
LOAD CMakeFiles/pb_remote_server_nrf52832_xxAA_s132_6.0.0.dir/home/mazzer/work/nordic/sdk/nRF5_SDK_15.0.0/components/libraries/util/app_error.c.obj
LOAD CMakeFiles/pb_remote_server_nrf52832_xxAA_s132_6.0.0.dir/home/mazzer/work/nordic/sdk/nRF5_SDK_15.0.0/components/libraries/util/app_error_handler_gcc.c.obj
LOAD ../../../external/rtt/librtt_nrf52832_xxAA.a
LOAD ../../../external/micro-ecc/libuECC_nrf52832_xxAA.a
START GROUP
LOAD /usr/bin/../lib/gcc/arm-none-eabi/7.2.1/thumb/v7e-m/fpv4-sp/hard/libgcc.a
LOAD /usr/bin/../lib/gcc/arm-none-eabi/7.2.1/../../../../arm-none-eabi/lib/thumb/v7e-m/fpv4-sp/hard/libg_nano.a
LOAD /usr/bin/../lib/gcc/arm-none-eabi/7.2.1/../../../../arm-none-eabi/lib/thumb/v7e-m/fpv4-sp/hard/libc_nano.a
END GROUP
START GROUP
LOAD /usr/bin/../lib/gcc/arm-none-eabi/7.2.1/thumb/v7e-m/fpv4-sp/hard/libgcc.a
LOAD /usr/bin/../lib/gcc/arm-none-eabi/7.2.1/../../../../arm-none-eabi/lib/thumb/v7e-m/fpv4-sp/hard/libc_nano.a
END GROUP
LOAD /usr/bin/../lib/gcc/arm-none-eabi/7.2.1/thumb/v7e-m/fpv4-sp/hard/crtend.o
LOAD /usr/bin/../lib/gcc/arm-none-eabi/7.2.1/thumb/v7e-m/fpv4-sp/hard/crtn.o
START GROUP
LOAD /usr/bin/../lib/gcc/arm-none-eabi/7.2.1/thumb/v7e-m/fpv4-sp/hard/libgcc.a
LOAD /usr/bin/../lib/gcc/arm-none-eabi/7.2.1/../../../../arm-none-eabi/lib/thumb/v7e-m/fpv4-sp/hard/libc.a
LOAD /usr/bin/../lib/gcc/arm-none-eabi/7.2.1/../../../../arm-none-eabi/lib/thumb/v7e-m/fpv4-sp/hard/libnosys.a
END GROUP

.igot.plt       0x0000000020003400        0x0 load address 0x00000000000444ec
 .igot.plt      0x0000000020003400        0x0 /usr/bin/../lib/gcc/arm-none-eabi/7.2.1/thumb/v7e-m/fpv4-sp/hard/crtbegin.o
                0x0000000020003400                . = ALIGN (0x4)

.svc_data       0x0000000020003400        0x0
                [!provide]                        PROVIDE (__start_svc_data, .)
 *(.svc_data)
                [!provide]                        PROVIDE (__stop_svc_data, .)

.fs_data        0x0000000020003400        0x0
                [!provide]                        PROVIDE (__start_fs_data, .)
 *(.fs_data)
                [!provide]                        PROVIDE (__stop_fs_data, .)

.log_dynamic_data
                0x0000000020003400        0x0
                [!provide]                        PROVIDE (__start_log_dynamic_data, .)
 *(.log_dynamic_data)
                [!provide]                        PROVIDE (__stop_log_dynamic_data, .)

.cli_sorted_cmd_ptrs
                0x0000000020003400        0x0
                [!provide]                        PROVIDE (__start_cli_sorted_cmd_ptrs, .)
 *(.cli_sorted_cmd_ptrs)
                [!provide]                        PROVIDE (__stop_cli_sorted_cmd_ptrs, .)

.bss            0x0000000020003400     0x3308 load address 0x00000000000444f0
                0x0000000020003400                . = ALIGN (0x4)
                0x0000000020003400                __bss_start__ = .
 *(.bss*)
 .bss           0x0000000020003400       0x1c /usr/bin/../lib/gcc/arm-none-eabi/7.2.1/thumb/v7e-m/fpv4-sp/hard/crtbegin.o
 .bss.m_appkey_handle
                0x000000002000341c        0x2 CMakeFiles/pb_remote_server_nrf52832_xxAA_s132_6.0.0.dir/src/main.c.obj
 .bss.m_device_provisioned
                0x000000002000341e        0x1 CMakeFiles/pb_remote_server_nrf52832_xxAA_s132_6.0.0.dir/src/main.c.obj
 *fill*         0x000000002000341f        0x1 
 .bss.m_prov_bearer_adv
                0x0000000020003420      0x1c4 CMakeFiles/pb_remote_server_nrf52832_xxAA_s132_6.0.0.dir/src/main.c.obj
 .bss.m_provisioner_address_handle
                0x00000000200035e4        0x2 CMakeFiles/pb_remote_server_nrf52832_xxAA_s132_6.0.0.dir/src/main.c.obj
 *fill*         0x00000000200035e6        0x2 
 .bss.m_remote_server
                0x00000000200035e8       0x2c CMakeFiles/pb_remote_server_nrf52832_xxAA_s132_6.0.0.dir/src/main.c.obj
 .bss.m_health_server
                0x0000000020003614       0x5c CMakeFiles/pb_remote_server_nrf52832_xxAA_s132_6.0.0.dir/__/__/__/mesh/stack/src/mesh_stack.c.obj
 .bss.m_init_params
                0x0000000020003670       0x24 CMakeFiles/pb_remote_server_nrf52832_xxAA_s132_6.0.0.dir/__/__/__/mesh/stack/src/mesh_stack.c.obj
 .bss.m_device_provisioned
                0x0000000020003694        0x1 CMakeFiles/pb_remote_server_nrf52832_xxAA_s132_6.0.0.dir/__/__/common/src/mesh_provisionee.c.obj
 *fill*         0x0000000020003695        0x3 
 .bss.m_params  0x0000000020003698        0xc CMakeFiles/pb_remote_server_nrf52832_xxAA_s132_6.0.0.dir/__/__/common/src/mesh_provisionee.c.obj
 .bss.m_private_key
                0x00000000200036a4       0x20 CMakeFiles/pb_remote_server_nrf52832_xxAA_s132_6.0.0.dir/__/__/common/src/mesh_provisionee.c.obj
 .bss.m_prov_bearer_adv
                0x00000000200036c4      0x1c4 CMakeFiles/pb_remote_server_nrf52832_xxAA_s132_6.0.0.dir/__/__/common/src/mesh_provisionee.c.obj
 .bss.m_prov_ctx
                0x0000000020003888      0x134 CMakeFiles/pb_remote_server_nrf52832_xxAA_s132_6.0.0.dir/__/__/common/src/mesh_provisionee.c.obj
 .bss.m_public_key
                0x00000000200039bc       0x40 CMakeFiles/pb_remote_server_nrf52832_xxAA_s132_6.0.0.dir/__/__/common/src/mesh_provisionee.c.obj
 .bss.m_button_handler_cb
                0x00000000200039fc        0x4 CMakeFiles/pb_remote_server_nrf52832_xxAA_s132_6.0.0.dir/__/__/common/src/simple_hal.c.obj
 .bss.m_last_button_press
                0x0000000020003a00        0x4 CMakeFiles/pb_remote_server_nrf52832_xxAA_s132_6.0.0.dir/__/__/common/src/simple_hal.c.obj
 .bss.m_uuid    0x0000000020003a04       0x10 CMakeFiles/pb_remote_server_nrf52832_xxAA_s132_6.0.0.dir/__/__/__/mesh/core/src/nrf_mesh_configure.c.obj
 .bss.m_msg_cache
                0x0000000020003a14      0x100 CMakeFiles/pb_remote_server_nrf52832_xxAA_s132_6.0.0.dir/__/__/__/mesh/core/src/msg_cache.c.obj
 .bss.m_msg_cache_head
                0x0000000020003b14        0x4 CMakeFiles/pb_remote_server_nrf52832_xxAA_s132_6.0.0.dir/__/__/__/mesh/core/src/msg_cache.c.obj
 .bss.m_control_packet_consumer_count
                0x0000000020003b18        0x4 CMakeFiles/pb_remote_server_nrf52832_xxAA_s132_6.0.0.dir/__/__/__/mesh/core/src/transport.c.obj
 .bss.m_control_packet_consumers
                0x0000000020003b1c        0x8 CMakeFiles/pb_remote_server_nrf52832_xxAA_s132_6.0.0.dir/__/__/__/mesh/core/src/transport.c.obj
 .bss.m_sar_alloc
                0x0000000020003b24        0x4 CMakeFiles/pb_remote_server_nrf52832_xxAA_s132_6.0.0.dir/__/__/__/mesh/core/src/transport.c.obj
 .bss.m_sar_process_flag
                0x0000000020003b28        0x4 CMakeFiles/pb_remote_server_nrf52832_xxAA_s132_6.0.0.dir/__/__/__/mesh/core/src/transport.c.obj
 .bss.m_sar_release
                0x0000000020003b2c        0x4 CMakeFiles/pb_remote_server_nrf52832_xxAA_s132_6.0.0.dir/__/__/__/mesh/core/src/transport.c.obj
 .bss.m_sar_session_cache
                0x0000000020003b30       0x40 CMakeFiles/pb_remote_server_nrf52832_xxAA_s132_6.0.0.dir/__/__/__/mesh/core/src/transport.c.obj
 .bss.m_sar_session_cache_head
                0x0000000020003b70        0x4 CMakeFiles/pb_remote_server_nrf52832_xxAA_s132_6.0.0.dir/__/__/__/mesh/core/src/transport.c.obj
 .bss.m_trs_config
                0x0000000020003b74       0x18 CMakeFiles/pb_remote_server_nrf52832_xxAA_s132_6.0.0.dir/__/__/__/mesh/core/src/transport.c.obj
 .bss.m_trs_sar_sessions
                0x0000000020003b8c      0x1b0 CMakeFiles/pb_remote_server_nrf52832_xxAA_s132_6.0.0.dir/__/__/__/mesh/core/src/transport.c.obj
 .bss.mp_evt_handlers_head
                0x0000000020003d3c        0x4 CMakeFiles/pb_remote_server_nrf52832_xxAA_s132_6.0.0.dir/__/__/__/mesh/core/src/event.c.obj
 .bss.m_defrag  0x0000000020003d40       0x1c CMakeFiles/pb_remote_server_nrf52832_xxAA_s132_6.0.0.dir/__/__/__/mesh/core/src/flash_manager_defrag.c.obj
 .bss.m_token   0x0000000020003d5c        0x2 CMakeFiles/pb_remote_server_nrf52832_xxAA_s132_6.0.0.dir/__/__/__/mesh/core/src/flash_manager_defrag.c.obj
 *fill*         0x0000000020003d5e        0x2 
 .bss.mp_recovery_area
                0x0000000020003d60        0x4 CMakeFiles/pb_remote_server_nrf52832_xxAA_s132_6.0.0.dir/__/__/__/mesh/core/src/flash_manager_defrag.c.obj
 .bss.p_null_ptr.10402
                0x0000000020003d64        0x4 CMakeFiles/pb_remote_server_nrf52832_xxAA_s132_6.0.0.dir/__/__/__/mesh/core/src/flash_manager_defrag.c.obj
 .bss.m_pool    0x0000000020003d68     0x1000 CMakeFiles/pb_remote_server_nrf52832_xxAA_s132_6.0.0.dir/__/__/__/mesh/core/src/packet_mgr.c.obj
 .bss.mp_free_head
                0x0000000020004d68        0x4 CMakeFiles/pb_remote_server_nrf52832_xxAA_s132_6.0.0.dir/__/__/__/mesh/core/src/packet_mgr.c.obj
 .bss.iv_state_set.10057
                0x0000000020004d6c        0x1 CMakeFiles/pb_remote_server_nrf52832_xxAA_s132_6.0.0.dir/__/__/__/mesh/core/src/net_state.c.obj
 *fill*         0x0000000020004d6d        0x3 
 .bss.lock_count.10033
                0x0000000020004d70        0x4 CMakeFiles/pb_remote_server_nrf52832_xxAA_s132_6.0.0.dir/__/__/__/mesh/core/src/net_state.c.obj
 .bss.m_flash_manager
                0x0000000020004d74       0x24 CMakeFiles/pb_remote_server_nrf52832_xxAA_s132_6.0.0.dir/__/__/__/mesh/core/src/net_state.c.obj
 .bss.m_iv_update_timer
                0x0000000020004d98       0x18 CMakeFiles/pb_remote_server_nrf52832_xxAA_s132_6.0.0.dir/__/__/__/mesh/core/src/net_state.c.obj
 .bss.m_mesh_evt_handler
                0x0000000020004db0        0x8 CMakeFiles/pb_remote_server_nrf52832_xxAA_s132_6.0.0.dir/__/__/__/mesh/core/src/net_state.c.obj
 .bss.m_net_state
                0x0000000020004db8       0x14 CMakeFiles/pb_remote_server_nrf52832_xxAA_s132_6.0.0.dir/__/__/__/mesh/core/src/net_state.c.obj
 .bss.m_seqnum_allocation_in_progress
                0x0000000020004dcc        0x1 CMakeFiles/pb_remote_server_nrf52832_xxAA_s132_6.0.0.dir/__/__/__/mesh/core/src/net_state.c.obj
 .bss.m_test_mode
                0x0000000020004dcd        0x1 CMakeFiles/pb_remote_server_nrf52832_xxAA_s132_6.0.0.dir/__/__/__/mesh/core/src/net_state.c.obj
 *fill*         0x0000000020004dce        0x2 
 .bss.m_event_flag
                0x0000000020004dd0        0x4 CMakeFiles/pb_remote_server_nrf52832_xxAA_s132_6.0.0.dir/__/__/__/mesh/core/src/mesh_flash.c.obj
 .bss.m_suspended
                0x0000000020004dd4        0x1 CMakeFiles/pb_remote_server_nrf52832_xxAA_s132_6.0.0.dir/__/__/__/mesh/core/src/mesh_flash.c.obj
 *fill*         0x0000000020004dd5        0x3 
 .bss.m_users   0x0000000020004dd8      0x228 CMakeFiles/pb_remote_server_nrf52832_xxAA_s132_6.0.0.dir/__/__/__/mesh/core/src/mesh_flash.c.obj
 .bss.m_is_enabled
                0x0000000020005000        0x1 CMakeFiles/pb_remote_server_nrf52832_xxAA_s132_6.0.0.dir/__/__/__/mesh/core/src/nrf_mesh.c.obj
 .bss.m_is_initialized
                0x0000000020005001        0x1 CMakeFiles/pb_remote_server_nrf52832_xxAA_s132_6.0.0.dir/__/__/__/mesh/core/src/nrf_mesh.c.obj
 *fill*         0x0000000020005002        0x2 
 .bss.m_rx_cb   0x0000000020005004        0x4 CMakeFiles/pb_remote_server_nrf52832_xxAA_s132_6.0.0.dir/__/__/__/mesh/core/src/nrf_mesh.c.obj
 .bss.m_128buf  0x0000000020005008       0x10 CMakeFiles/pb_remote_server_nrf52832_xxAA_s132_6.0.0.dir/__/__/__/mesh/core/src/aes_cmac.c.obj
 .bss.m_subkey1
                0x0000000020005018       0x10 CMakeFiles/pb_remote_server_nrf52832_xxAA_s132_6.0.0.dir/__/__/__/mesh/core/src/aes_cmac.c.obj
 .bss.m_subkey2
                0x0000000020005028       0x10 CMakeFiles/pb_remote_server_nrf52832_xxAA_s132_6.0.0.dir/__/__/__/mesh/core/src/aes_cmac.c.obj
 .bss.m_event_flag
                0x0000000020005038        0x4 CMakeFiles/pb_remote_server_nrf52832_xxAA_s132_6.0.0.dir/__/__/__/mesh/core/src/timer_scheduler.c.obj
 .bss.m_scheduler
                0x000000002000503c       0x10 CMakeFiles/pb_remote_server_nrf52832_xxAA_s132_6.0.0.dir/__/__/__/mesh/core/src/timer_scheduler.c.obj
 .bss.m_attributes
                0x000000002000504c        0x3 CMakeFiles/pb_remote_server_nrf52832_xxAA_s132_6.0.0.dir/__/__/__/mesh/core/src/timer.c.obj
 *fill*         0x000000002000504f        0x1 
 .bss.m_callbacks
                0x0000000020005050        0xc CMakeFiles/pb_remote_server_nrf52832_xxAA_s132_6.0.0.dir/__/__/__/mesh/core/src/timer.c.obj
 .bss.m_is_in_ts
                0x000000002000505c        0x1 CMakeFiles/pb_remote_server_nrf52832_xxAA_s132_6.0.0.dir/__/__/__/mesh/core/src/timer.c.obj
 *fill*         0x000000002000505d        0x3 
 .bss.m_reference_time
                0x0000000020005060        0x4 CMakeFiles/pb_remote_server_nrf52832_xxAA_s132_6.0.0.dir/__/__/__/mesh/core/src/timer.c.obj
 .bss.m_timeouts
                0x0000000020005064        0xc CMakeFiles/pb_remote_server_nrf52832_xxAA_s132_6.0.0.dir/__/__/__/mesh/core/src/timer.c.obj
 .bss.m_timer_mut
                0x0000000020005070        0x4 CMakeFiles/pb_remote_server_nrf52832_xxAA_s132_6.0.0.dir/__/__/__/mesh/core/src/timer.c.obj
 .bss.m_ts_end_time
                0x0000000020005074        0x4 CMakeFiles/pb_remote_server_nrf52832_xxAA_s132_6.0.0.dir/__/__/__/mesh/core/src/timer.c.obj
 .bss.mp_ppi_tasks
                0x0000000020005078        0xc CMakeFiles/pb_remote_server_nrf52832_xxAA_s132_6.0.0.dir/__/__/__/mesh/core/src/timer.c.obj
 .bss.m_current_time
                0x0000000020005084        0x4 CMakeFiles/pb_remote_server_nrf52832_xxAA_s132_6.0.0.dir/__/__/__/mesh/core/src/ticker.c.obj
 .bss.m_timer   0x0000000020005088       0x18 CMakeFiles/pb_remote_server_nrf52832_xxAA_s132_6.0.0.dir/__/__/__/mesh/core/src/ticker.c.obj
 .bss.m_current_timeslot
                0x00000000200050a0       0x1c CMakeFiles/pb_remote_server_nrf52832_xxAA_s132_6.0.0.dir/__/__/__/mesh/core/src/timeslot.c.obj
 .bss.m_lfclk_ppm
                0x00000000200050bc        0x4 CMakeFiles/pb_remote_server_nrf52832_xxAA_s132_6.0.0.dir/__/__/__/mesh/core/src/timeslot.c.obj
 .bss.m_radio_request_earliest
                0x00000000200050c0       0x10 CMakeFiles/pb_remote_server_nrf52832_xxAA_s132_6.0.0.dir/__/__/__/mesh/core/src/timeslot.c.obj
 .bss.m_state_lock
                0x00000000200050d0        0x1 CMakeFiles/pb_remote_server_nrf52832_xxAA_s132_6.0.0.dir/__/__/__/mesh/core/src/timeslot.c.obj
 .bss.m_timeslot_forced_command
                0x00000000200050d1        0x1 CMakeFiles/pb_remote_server_nrf52832_xxAA_s132_6.0.0.dir/__/__/__/mesh/core/src/timeslot.c.obj
 *fill*         0x00000000200050d2        0x6 
 .bss.s_last_rtc_value.9460
                0x00000000200050d8        0x8 CMakeFiles/pb_remote_server_nrf52832_xxAA_s132_6.0.0.dir/__/__/__/mesh/core/src/timeslot.c.obj
 .bss.m_bearer_event_fifo
                0x00000000200050e0       0x14 CMakeFiles/pb_remote_server_nrf52832_xxAA_s132_6.0.0.dir/__/__/__/mesh/core/src/bearer_event.c.obj
 .bss.m_bearer_event_fifo_buffer
                0x00000000200050f4      0x100 CMakeFiles/pb_remote_server_nrf52832_xxAA_s132_6.0.0.dir/__/__/__/mesh/core/src/bearer_event.c.obj
 .bss.m_critical
                0x00000000200051f4        0x4 CMakeFiles/pb_remote_server_nrf52832_xxAA_s132_6.0.0.dir/__/__/__/mesh/core/src/bearer_event.c.obj
 .bss.m_flag_count
                0x00000000200051f8        0x4 CMakeFiles/pb_remote_server_nrf52832_xxAA_s132_6.0.0.dir/__/__/__/mesh/core/src/bearer_event.c.obj
 .bss.m_flag_event_callbacks
                0x00000000200051fc       0x20 CMakeFiles/pb_remote_server_nrf52832_xxAA_s132_6.0.0.dir/__/__/__/mesh/core/src/bearer_event.c.obj
 .bss.m_flags   0x000000002000521c        0x4 CMakeFiles/pb_remote_server_nrf52832_xxAA_s132_6.0.0.dir/__/__/__/mesh/core/src/bearer_event.c.obj
 .bss.m_irq_priority
                0x0000000020005220        0x1 CMakeFiles/pb_remote_server_nrf52832_xxAA_s132_6.0.0.dir/__/__/__/mesh/core/src/bearer_event.c.obj
 *fill*         0x0000000020005221        0x3 
 .bss.m_sequential_event_queue
                0x0000000020005224        0x8 CMakeFiles/pb_remote_server_nrf52832_xxAA_s132_6.0.0.dir/__/__/__/mesh/core/src/bearer_event.c.obj
 .bss.s_recursion_guard.9591
                0x000000002000522c        0x1 CMakeFiles/pb_remote_server_nrf52832_xxAA_s132_6.0.0.dir/__/__/__/mesh/core/src/bearer_event.c.obj
 *fill*         0x000000002000522d        0x3 
 .bss.m_relay_check_cb
                0x0000000020005230        0x4 CMakeFiles/pb_remote_server_nrf52832_xxAA_s132_6.0.0.dir/__/__/__/mesh/core/src/network.c.obj
 .bss.m_relay_enable
                0x0000000020005234        0x1 CMakeFiles/pb_remote_server_nrf52832_xxAA_s132_6.0.0.dir/__/__/__/mesh/core/src/network.c.obj
 *fill*         0x0000000020005235        0x3 
 .bss.m_action_queue
                0x0000000020005238        0xc CMakeFiles/pb_remote_server_nrf52832_xxAA_s132_6.0.0.dir/__/__/__/mesh/core/src/flash_manager.c.obj
 .bss.m_action_queue_buffer
                0x0000000020005244      0x104 CMakeFiles/pb_remote_server_nrf52832_xxAA_s132_6.0.0.dir/__/__/__/mesh/core/src/flash_manager.c.obj
 .bss.m_action_state
                0x0000000020005348        0x1 CMakeFiles/pb_remote_server_nrf52832_xxAA_s132_6.0.0.dir/__/__/__/mesh/core/src/flash_manager.c.obj
 *fill*         0x0000000020005349        0x3 
 .bss.m_memory_listener_queue
                0x000000002000534c        0x8 CMakeFiles/pb_remote_server_nrf52832_xxAA_s132_6.0.0.dir/__/__/__/mesh/core/src/flash_manager.c.obj
 .bss.m_processing_flag
                0x0000000020005354        0x4 CMakeFiles/pb_remote_server_nrf52832_xxAA_s132_6.0.0.dir/__/__/__/mesh/core/src/flash_manager.c.obj
 .bss.m_queue_empty_cb
                0x0000000020005358        0x4 CMakeFiles/pb_remote_server_nrf52832_xxAA_s132_6.0.0.dir/__/__/__/mesh/core/src/flash_manager.c.obj
 .bss.m_state   0x000000002000535c        0x1 CMakeFiles/pb_remote_server_nrf52832_xxAA_s132_6.0.0.dir/__/__/__/mesh/core/src/flash_manager.c.obj
 *fill*         0x000000002000535d        0x1 
 .bss.m_token   0x000000002000535e        0x2 CMakeFiles/pb_remote_server_nrf52832_xxAA_s132_6.0.0.dir/__/__/__/mesh/core/src/flash_manager.c.obj
 .bss.p_current.11346
                0x0000000020005360        0x4 CMakeFiles/pb_remote_server_nrf52832_xxAA_s132_6.0.0.dir/__/__/__/mesh/core/src/flash_manager.c.obj
 .bss.result.11347
                0x0000000020005364        0x1 CMakeFiles/pb_remote_server_nrf52832_xxAA_s132_6.0.0.dir/__/__/__/mesh/core/src/flash_manager.c.obj
 .bss.m_cache_index
                0x0000000020005365        0x1 CMakeFiles/pb_remote_server_nrf52832_xxAA_s132_6.0.0.dir/__/__/__/mesh/core/src/replay_cache.c.obj
 *fill*         0x0000000020005366        0x2 
 .bss.m_replay_cache
                0x0000000020005368      0x200 CMakeFiles/pb_remote_server_nrf52832_xxAA_s132_6.0.0.dir/__/__/__/mesh/core/src/replay_cache.c.obj
 .bss.m_bearer_count
                0x0000000020005568        0x1 CMakeFiles/pb_remote_server_nrf52832_xxAA_s132_6.0.0.dir/__/__/__/mesh/core/src/core_tx.c.obj
 *fill*         0x0000000020005569        0x3 
 .bss.m_tx_complete_callback
                0x000000002000556c        0x4 CMakeFiles/pb_remote_server_nrf52832_xxAA_s132_6.0.0.dir/__/__/__/mesh/core/src/core_tx.c.obj
 .bss.mp_bearers
                0x0000000020005570        0x4 CMakeFiles/pb_remote_server_nrf52832_xxAA_s132_6.0.0.dir/__/__/__/mesh/core/src/core_tx.c.obj
 .bss.m_hb_core_evt_handler
                0x0000000020005574        0x8 CMakeFiles/pb_remote_server_nrf52832_xxAA_s132_6.0.0.dir/__/__/__/mesh/core/src/heartbeat.c.obj
 .bss.m_hb_pending_feat_msg
                0x000000002000557c        0x1 CMakeFiles/pb_remote_server_nrf52832_xxAA_s132_6.0.0.dir/__/__/__/mesh/core/src/heartbeat.c.obj
 .bss.m_hb_pending_pub_msg
                0x000000002000557d        0x1 CMakeFiles/pb_remote_server_nrf52832_xxAA_s132_6.0.0.dir/__/__/__/mesh/core/src/heartbeat.c.obj
 .bss.m_heartbeat_init_done
                0x000000002000557e        0x1 CMakeFiles/pb_remote_server_nrf52832_xxAA_s132_6.0.0.dir/__/__/__/mesh/core/src/heartbeat.c.obj
 *fill*         0x000000002000557f        0x1 
 .bss.m_heartbeat_subscription
                0x0000000020005580       0x10 CMakeFiles/pb_remote_server_nrf52832_xxAA_s132_6.0.0.dir/__/__/__/mesh/core/src/heartbeat.c.obj
 .bss.m_publication_count_decrement_cb
                0x0000000020005590        0x4 CMakeFiles/pb_remote_server_nrf52832_xxAA_s132_6.0.0.dir/__/__/__/mesh/core/src/heartbeat.c.obj
 .bss.m_publication_get_cb
                0x0000000020005594        0x4 CMakeFiles/pb_remote_server_nrf52832_xxAA_s132_6.0.0.dir/__/__/__/mesh/core/src/heartbeat.c.obj
 .bss.m_publication_timer
                0x0000000020005598       0x1c CMakeFiles/pb_remote_server_nrf52832_xxAA_s132_6.0.0.dir/__/__/__/mesh/core/src/heartbeat.c.obj
 .bss.m_subscription_timer
                0x00000000200055b4       0x18 CMakeFiles/pb_remote_server_nrf52832_xxAA_s132_6.0.0.dir/__/__/__/mesh/core/src/heartbeat.c.obj
 .bss.m_adv     0x00000000200055cc       0x98 CMakeFiles/pb_remote_server_nrf52832_xxAA_s132_6.0.0.dir/__/__/__/mesh/core/src/net_beacon.c.obj
 .bss.m_adv_buf
                0x0000000020005664       0x34 CMakeFiles/pb_remote_server_nrf52832_xxAA_s132_6.0.0.dir/__/__/__/mesh/core/src/net_beacon.c.obj
 .bss.m_beacon_salt
                0x0000000020005698       0x10 CMakeFiles/pb_remote_server_nrf52832_xxAA_s132_6.0.0.dir/__/__/__/mesh/core/src/net_beacon.c.obj
 .bss.m_enabled
                0x00000000200056a8        0x1 CMakeFiles/pb_remote_server_nrf52832_xxAA_s132_6.0.0.dir/__/__/__/mesh/core/src/net_beacon.c.obj
 *fill*         0x00000000200056a9        0x3 
 .bss.m_tx_timer
                0x00000000200056ac       0x18 CMakeFiles/pb_remote_server_nrf52832_xxAA_s132_6.0.0.dir/__/__/__/mesh/core/src/net_beacon.c.obj
 .bss.mp_beacon_info
                0x00000000200056c4        0x4 CMakeFiles/pb_remote_server_nrf52832_xxAA_s132_6.0.0.dir/__/__/__/mesh/core/src/net_beacon.c.obj
 .bss.m_bearer  0x00000000200056c8        0xc CMakeFiles/pb_remote_server_nrf52832_xxAA_s132_6.0.0.dir/__/__/__/mesh/core/src/core_tx_adv.c.obj
 .bss.m_bearer_roles
                0x00000000200056d4      0x138 CMakeFiles/pb_remote_server_nrf52832_xxAA_s132_6.0.0.dir/__/__/__/mesh/core/src/core_tx_adv.c.obj
 .bss.m_current_alloc
                0x000000002000580c        0x8 CMakeFiles/pb_remote_server_nrf52832_xxAA_s132_6.0.0.dir/__/__/__/mesh/core/src/core_tx_adv.c.obj
 .bss.m_originator_adv_packet_buffer
                0x0000000020005814      0x100 CMakeFiles/pb_remote_server_nrf52832_xxAA_s132_6.0.0.dir/__/__/__/mesh/core/src/core_tx_adv.c.obj
 .bss.m_relay_adv_packet_buffer
                0x0000000020005914       0x80 CMakeFiles/pb_remote_server_nrf52832_xxAA_s132_6.0.0.dir/__/__/__/mesh/core/src/core_tx_adv.c.obj
 .bss.m_subscribers
                0x0000000020005994        0x4 CMakeFiles/pb_remote_server_nrf52832_xxAA_s132_6.0.0.dir/__/__/__/mesh/bearer/src/ad_listener.c.obj
 .bss.m_adtype_filter
                0x0000000020005998       0x38 CMakeFiles/pb_remote_server_nrf52832_xxAA_s132_6.0.0.dir/__/__/__/mesh/bearer/src/ad_type_filter.c.obj
 .bss.m_adv_prng
                0x00000000200059d0       0x10 CMakeFiles/pb_remote_server_nrf52832_xxAA_s132_6.0.0.dir/__/__/__/mesh/bearer/src/advertiser.c.obj
 .bss.m_action_queue
                0x00000000200059e0        0x8 CMakeFiles/pb_remote_server_nrf52832_xxAA_s132_6.0.0.dir/__/__/__/mesh/bearer/src/bearer_handler.c.obj
 .bss.m_end_time
                0x00000000200059e8        0x4 CMakeFiles/pb_remote_server_nrf52832_xxAA_s132_6.0.0.dir/__/__/__/mesh/bearer/src/bearer_handler.c.obj
 .bss.m_scanner_is_active
                0x00000000200059ec        0x1 CMakeFiles/pb_remote_server_nrf52832_xxAA_s132_6.0.0.dir/__/__/__/mesh/bearer/src/bearer_handler.c.obj
 .bss.m_stopped
                0x00000000200059ed        0x1 CMakeFiles/pb_remote_server_nrf52832_xxAA_s132_6.0.0.dir/__/__/__/mesh/bearer/src/bearer_handler.c.obj
 *fill*         0x00000000200059ee        0x2 
 .bss.mp_action
                0x00000000200059f0        0x4 CMakeFiles/pb_remote_server_nrf52832_xxAA_s132_6.0.0.dir/__/__/__/mesh/bearer/src/bearer_handler.c.obj
 .bss.m_next_channel_index
                0x00000000200059f4        0x1 CMakeFiles/pb_remote_server_nrf52832_xxAA_s132_6.0.0.dir/__/__/__/mesh/bearer/src/broadcast.c.obj
 *fill*         0x00000000200059f5        0x3 
 .bss.m_accepted_amount
                0x00000000200059f8        0x4 CMakeFiles/pb_remote_server_nrf52832_xxAA_s132_6.0.0.dir/__/__/__/mesh/bearer/src/filter_engine.c.obj
 .bss.m_filter_list_head
                0x00000000200059fc        0x4 CMakeFiles/pb_remote_server_nrf52832_xxAA_s132_6.0.0.dir/__/__/__/mesh/bearer/src/filter_engine.c.obj
 .bss.m_scanner
                0x0000000020005a00      0x290 CMakeFiles/pb_remote_server_nrf52832_xxAA_s132_6.0.0.dir/__/__/__/mesh/bearer/src/scanner.c.obj
 .bss.m_event_handler
                0x0000000020005c90        0x4 CMakeFiles/pb_remote_server_nrf52832_xxAA_s132_6.0.0.dir/__/__/__/mesh/prov/src/prov_beacon.c.obj
 .bss.m_offload_ecdh
                0x0000000020005c94        0x1 CMakeFiles/pb_remote_server_nrf52832_xxAA_s132_6.0.0.dir/__/__/__/mesh/prov/src/prov_utils.c.obj
 *fill*         0x0000000020005c95        0x3 
 .bss.mp_bearer_head
                0x0000000020005c98        0x4 CMakeFiles/pb_remote_server_nrf52832_xxAA_s132_6.0.0.dir/__/__/__/mesh/prov/src/prov_bearer_adv.c.obj
 .bss.m_is_interrupting
                0x0000000020005c9c        0x1 CMakeFiles/pb_remote_server_nrf52832_xxAA_s132_6.0.0.dir/__/__/__/models/pb_remote/src/pb_remote_server.c.obj
 *fill*         0x0000000020005c9d        0x3 
 .bss.m_packet  0x0000000020005ca0       0x41 CMakeFiles/pb_remote_server_nrf52832_xxAA_s132_6.0.0.dir/__/__/__/models/pb_remote/src/pb_remote_server.c.obj
 *fill*         0x0000000020005ce1        0x3 
 .bss.m_pbr_server_alt_event_queue
                0x0000000020005ce4       0x14 CMakeFiles/pb_remote_server_nrf52832_xxAA_s132_6.0.0.dir/__/__/__/models/pb_remote/src/pb_remote_server.c.obj
 .bss.m_pbr_server_alt_event_queue_buffer
                0x0000000020005cf8       0x90 CMakeFiles/pb_remote_server_nrf52832_xxAA_s132_6.0.0.dir/__/__/__/models/pb_remote/src/pb_remote_server.c.obj
 .bss.m_pbr_server_event_queue
                0x0000000020005d88       0x14 CMakeFiles/pb_remote_server_nrf52832_xxAA_s132_6.0.0.dir/__/__/__/models/pb_remote/src/pb_remote_server.c.obj
 .bss.m_pbr_server_event_queue_buffer
                0x0000000020005d9c       0x90 CMakeFiles/pb_remote_server_nrf52832_xxAA_s132_6.0.0.dir/__/__/__/models/pb_remote/src/pb_remote_server.c.obj
 .bss.m_uuid_list
                0x0000000020005e2c       0x33 CMakeFiles/pb_remote_server_nrf52832_xxAA_s132_6.0.0.dir/__/__/__/models/pb_remote/src/pb_remote_server.c.obj
 *fill*         0x0000000020005e5f        0x1 
 .bss.mp_pb_remote_server_model
                0x0000000020005e60        0x4 CMakeFiles/pb_remote_server_nrf52832_xxAA_s132_6.0.0.dir/__/__/__/models/pb_remote/src/pb_remote_server.c.obj
 .bss.m_publish_timer
                0x0000000020005e64       0x18 CMakeFiles/pb_remote_server_nrf52832_xxAA_s132_6.0.0.dir/__/__/__/mesh/access/src/access_publish.c.obj
 .bss.m_publish_timer_counter
                0x0000000020005e7c        0x4 CMakeFiles/pb_remote_server_nrf52832_xxAA_s132_6.0.0.dir/__/__/__/mesh/access/src/access_publish.c.obj
 .bss.m_publish_timer_running
                0x0000000020005e80        0x1 CMakeFiles/pb_remote_server_nrf52832_xxAA_s132_6.0.0.dir/__/__/__/mesh/access/src/access_publish.c.obj
 .bss.m_timer_resolution
                0x0000000020005e81        0x1 CMakeFiles/pb_remote_server_nrf52832_xxAA_s132_6.0.0.dir/__/__/__/mesh/access/src/access_publish.c.obj
 *fill*         0x0000000020005e82        0x2 
 .bss.mp_publication_list
                0x0000000020005e84        0x4 CMakeFiles/pb_remote_server_nrf52832_xxAA_s132_6.0.0.dir/__/__/__/mesh/access/src/access_publish.c.obj
 .bss.m_element_pool
                0x0000000020005e88        0x6 CMakeFiles/pb_remote_server_nrf52832_xxAA_s132_6.0.0.dir/__/__/__/mesh/access/src/access.c.obj
 *fill*         0x0000000020005e8e        0x2 
 .bss.m_evt_handler
                0x0000000020005e90        0x8 CMakeFiles/pb_remote_server_nrf52832_xxAA_s132_6.0.0.dir/__/__/__/mesh/access/src/access.c.obj
 .bss.m_flash_manager
                0x0000000020005e98       0x24 CMakeFiles/pb_remote_server_nrf52832_xxAA_s132_6.0.0.dir/__/__/__/mesh/access/src/access.c.obj
 .bss.m_flash_not_ready
                0x0000000020005ebc        0x1 CMakeFiles/pb_remote_server_nrf52832_xxAA_s132_6.0.0.dir/__/__/__/mesh/access/src/access.c.obj
 .bss.m_metadata_stored
                0x0000000020005ebd        0x1 CMakeFiles/pb_remote_server_nrf52832_xxAA_s132_6.0.0.dir/__/__/__/mesh/access/src/access.c.obj
 *fill*         0x0000000020005ebe        0x2 
 .bss.m_model_pool
                0x0000000020005ec0       0x9c CMakeFiles/pb_remote_server_nrf52832_xxAA_s132_6.0.0.dir/__/__/__/mesh/access/src/access.c.obj
 .bss.m_subscription_list_pool
                0x0000000020005f5c       0x18 CMakeFiles/pb_remote_server_nrf52832_xxAA_s132_6.0.0.dir/__/__/__/mesh/access/src/access.c.obj
 .bss.m_reliable
                0x0000000020005f74       0xa0 CMakeFiles/pb_remote_server_nrf52832_xxAA_s132_6.0.0.dir/__/__/__/mesh/access/src/access_reliable.c.obj
 .bss.m_addr_nonvirtual_allocated
                0x0000000020006014        0x4 CMakeFiles/pb_remote_server_nrf52832_xxAA_s132_6.0.0.dir/__/__/__/mesh/access/src/device_state_manager.c.obj
 .bss.m_addr_nonvirtual_needs_flashing
                0x0000000020006018        0x4 CMakeFiles/pb_remote_server_nrf52832_xxAA_s132_6.0.0.dir/__/__/__/mesh/access/src/device_state_manager.c.obj
 .bss.m_addr_unicast_allocated
                0x000000002000601c        0x4 CMakeFiles/pb_remote_server_nrf52832_xxAA_s132_6.0.0.dir/__/__/__/mesh/access/src/device_state_manager.c.obj
 .bss.m_addr_unicast_needs_flashing
                0x0000000020006020        0x4 CMakeFiles/pb_remote_server_nrf52832_xxAA_s132_6.0.0.dir/__/__/__/mesh/access/src/device_state_manager.c.obj
 .bss.m_addr_virtual_allocated
                0x0000000020006024        0x4 CMakeFiles/pb_remote_server_nrf52832_xxAA_s132_6.0.0.dir/__/__/__/mesh/access/src/device_state_manager.c.obj
 .bss.m_addr_virtual_needs_flashing
                0x0000000020006028        0x4 CMakeFiles/pb_remote_server_nrf52832_xxAA_s132_6.0.0.dir/__/__/__/mesh/access/src/device_state_manager.c.obj
 .bss.m_addresses
                0x000000002000602c       0x10 CMakeFiles/pb_remote_server_nrf52832_xxAA_s132_6.0.0.dir/__/__/__/mesh/access/src/device_state_manager.c.obj
 .bss.m_appkey_allocated
                0x000000002000603c        0x4 CMakeFiles/pb_remote_server_nrf52832_xxAA_s132_6.0.0.dir/__/__/__/mesh/access/src/device_state_manager.c.obj
 .bss.m_appkey_needs_flashing
                0x0000000020006040        0x4 CMakeFiles/pb_remote_server_nrf52832_xxAA_s132_6.0.0.dir/__/__/__/mesh/access/src/device_state_manager.c.obj
 .bss.m_appkeys
                0x0000000020006044       0x2a CMakeFiles/pb_remote_server_nrf52832_xxAA_s132_6.0.0.dir/__/__/__/mesh/access/src/device_state_manager.c.obj
 *fill*         0x000000002000606e        0x2 
 .bss.m_devkey_allocated
                0x0000000020006070        0x4 CMakeFiles/pb_remote_server_nrf52832_xxAA_s132_6.0.0.dir/__/__/__/mesh/access/src/device_state_manager.c.obj
 .bss.m_devkey_needs_flashing
                0x0000000020006074        0x4 CMakeFiles/pb_remote_server_nrf52832_xxAA_s132_6.0.0.dir/__/__/__/mesh/access/src/device_state_manager.c.obj
 .bss.m_devkeys
                0x0000000020006078       0x16 CMakeFiles/pb_remote_server_nrf52832_xxAA_s132_6.0.0.dir/__/__/__/mesh/access/src/device_state_manager.c.obj
 .bss.m_flash_is_available
                0x000000002000608e        0x1 CMakeFiles/pb_remote_server_nrf52832_xxAA_s132_6.0.0.dir/__/__/__/mesh/access/src/device_state_manager.c.obj
 *fill*         0x000000002000608f        0x1 
 .bss.m_flash_manager
                0x0000000020006090       0x24 CMakeFiles/pb_remote_server_nrf52832_xxAA_s132_6.0.0.dir/__/__/__/mesh/access/src/device_state_manager.c.obj
 .bss.m_flash_mem_listener_update_all
                0x00000000200060b4       0x10 CMakeFiles/pb_remote_server_nrf52832_xxAA_s132_6.0.0.dir/__/__/__/mesh/access/src/device_state_manager.c.obj
 .bss.m_has_primary_subnet
                0x00000000200060c4        0x1 CMakeFiles/pb_remote_server_nrf52832_xxAA_s132_6.0.0.dir/__/__/__/mesh/access/src/device_state_manager.c.obj
 *fill*         0x00000000200060c5        0x3 
 .bss.m_local_unicast_addr
                0x00000000200060c8        0x4 CMakeFiles/pb_remote_server_nrf52832_xxAA_s132_6.0.0.dir/__/__/__/mesh/access/src/device_state_manager.c.obj
 .bss.m_mesh_evt_handler
                0x00000000200060cc        0x8 CMakeFiles/pb_remote_server_nrf52832_xxAA_s132_6.0.0.dir/__/__/__/mesh/access/src/device_state_manager.c.obj
 .bss.m_subnet_allocated
                0x00000000200060d4        0x4 CMakeFiles/pb_remote_server_nrf52832_xxAA_s132_6.0.0.dir/__/__/__/mesh/access/src/device_state_manager.c.obj
 .bss.m_subnet_needs_flashing
                0x00000000200060d8        0x4 CMakeFiles/pb_remote_server_nrf52832_xxAA_s132_6.0.0.dir/__/__/__/mesh/access/src/device_state_manager.c.obj
 .bss.m_subnets
                0x00000000200060dc       0xa8 CMakeFiles/pb_remote_server_nrf52832_xxAA_s132_6.0.0.dir/__/__/__/mesh/access/src/device_state_manager.c.obj
 .bss.m_virtual_addresses
                0x0000000020006184       0x14 CMakeFiles/pb_remote_server_nrf52832_xxAA_s132_6.0.0.dir/__/__/__/mesh/access/src/device_state_manager.c.obj
 .bss.m_evt_cb  0x0000000020006198        0x4 CMakeFiles/pb_remote_server_nrf52832_xxAA_s132_6.0.0.dir/__/__/__/models/config/src/config_server.c.obj
 .bss.m_heartbeat_publication
                0x000000002000619c       0x14 CMakeFiles/pb_remote_server_nrf52832_xxAA_s132_6.0.0.dir/__/__/__/models/config/src/config_server.c.obj
 .bss.m_node_reset_pending
                0x00000000200061b0        0x1 CMakeFiles/pb_remote_server_nrf52832_xxAA_s132_6.0.0.dir/__/__/__/models/config/src/config_server.c.obj
 *fill*         0x00000000200061b1        0x3 
 .bss.m_attention_timer
                0x00000000200061b4       0x18 CMakeFiles/pb_remote_server_nrf52832_xxAA_s132_6.0.0.dir/__/__/__/models/health/src/health_server.c.obj
 .bss.mp_attention_list
                0x00000000200061cc        0x4 CMakeFiles/pb_remote_server_nrf52832_xxAA_s132_6.0.0.dir/__/__/__/models/health/src/health_server.c.obj
 .bss._acDownBuffer
                0x00000000200061d0       0x80 ../../../external/rtt/librtt_nrf52832_xxAA.a(SEGGER_RTT.c.obj)
 .bss._acUpBuffer
                0x0000000020006250      0x400 ../../../external/rtt/librtt_nrf52832_xxAA.a(SEGGER_RTT.c.obj)
 .bss.__malloc_free_list
                0x0000000020006650        0x4 /usr/bin/../lib/gcc/arm-none-eabi/7.2.1/../../../../arm-none-eabi/lib/thumb/v7e-m/fpv4-sp/hard/libg_nano.a(lib_a-nano-mallocr.o)
                0x0000000020006650                __malloc_free_list
 .bss.__malloc_sbrk_start
                0x0000000020006654        0x4 /usr/bin/../lib/gcc/arm-none-eabi/7.2.1/../../../../arm-none-eabi/lib/thumb/v7e-m/fpv4-sp/hard/libg_nano.a(lib_a-nano-mallocr.o)
                0x0000000020006654                __malloc_sbrk_start
 .bss.heap_end.5377
                0x0000000020006658        0x4 /usr/bin/../lib/gcc/arm-none-eabi/7.2.1/../../../../arm-none-eabi/lib/thumb/v7e-m/fpv4-sp/hard/libnosys.a(sbrk.o)
 *(COMMON)
 COMMON         0x000000002000665c        0xc CMakeFiles/pb_remote_server_nrf52832_xxAA_s132_6.0.0.dir/__/__/common/src/mesh_softdevice_init.c.obj
                0x000000002000665c                nrf_nvic_state
 COMMON         0x0000000020006668       0x24 CMakeFiles/pb_remote_server_nrf52832_xxAA_s132_6.0.0.dir/__/__/__/mesh/core/src/core_tx.c.obj
                0x0000000020006668                m_packet
 COMMON         0x000000002000668c       0x78 ../../../external/rtt/librtt_nrf52832_xxAA.a(SEGGER_RTT.c.obj)
                0x000000002000668c                _SEGGER_RTT
 COMMON         0x0000000020006704        0x4 /usr/bin/../lib/gcc/arm-none-eabi/7.2.1/../../../../arm-none-eabi/lib/thumb/v7e-m/fpv4-sp/hard/libg_nano.a(lib_a-reent.o)
                0x0000000020006704                errno
                0x0000000020006708                . = ALIGN (0x4)
                0x0000000020006708                __bss_end__ = .

.heap           0x0000000020006708     0x2000
                0x0000000020006708                __HeapBase = .
                0x0000000020006708                __end__ = .
                0x0000000020006708                PROVIDE (end, .)
 *(.heap*)
 .heap          0x0000000020006708     0x2000 CMakeFiles/pb_remote_server_nrf52832_xxAA_s132_6.0.0.dir/home/mazzer/work/nordic/sdk/nRF5_SDK_15.0.0/modules/nrfx/mdk/gcc_startup_nrf52.S.obj
                0x0000000020008708                __HeapLimit = .

.stack_dummy    0x0000000020006708     0x2000
 *(.stack*)
 .stack         0x0000000020006708     0x2000 CMakeFiles/pb_remote_server_nrf52832_xxAA_s132_6.0.0.dir/home/mazzer/work/nordic/sdk/nRF5_SDK_15.0.0/modules/nrfx/mdk/gcc_startup_nrf52.S.obj
                0x000000002000fd00                __StackTop = (ORIGIN (RAM) + LENGTH (RAM))
                0x000000002000dd00                __StackLimit = (__StackTop - SIZEOF (.stack_dummy))
                0x000000002000fd00                PROVIDE (__stack, __StackTop)
                0x0000000000000001                ASSERT ((__StackLimit >= __HeapLimit), region RAM overflowed with stack)
                0x0000000000000138                DataInitFlashUsed = (__bss_start__ - __data_start__)
                0x000000000001e3b4                CodeFlashUsed = (__etext - ORIGIN (FLASH))
                0x000000000001e4ec                TotalFlashUsed = (CodeFlashUsed + DataInitFlashUsed)
                0x0000000000000001                ASSERT ((TotalFlashUsed <= LENGTH (FLASH)), region FLASH overflowed with .data and user data)
OUTPUT(pb_remote_server_nrf52832_xxAA_s132_6.0.0.elf elf32-littlearm)

.ARM.attributes
                0x0000000000000000       0x30
 .ARM.attributes
                0x0000000000000000       0x22 /usr/bin/../lib/gcc/arm-none-eabi/7.2.1/thumb/v7e-m/fpv4-sp/hard/crti.o
 .ARM.attributes
                0x0000000000000022       0x34 /usr/bin/../lib/gcc/arm-none-eabi/7.2.1/thumb/v7e-m/fpv4-sp/hard/crtbegin.o
 .ARM.attributes
                0x0000000000000056       0x20 /usr/bin/../lib/gcc/arm-none-eabi/7.2.1/../../../../arm-none-eabi/lib/thumb/v7e-m/fpv4-sp/hard/crt0.o
 .ARM.attributes
                0x0000000000000076       0x39 CMakeFiles/pb_remote_server_nrf52832_xxAA_s132_6.0.0.dir/src/main.c.obj
 .ARM.attributes
                0x00000000000000af       0x39 CMakeFiles/pb_remote_server_nrf52832_xxAA_s132_6.0.0.dir/__/__/__/mesh/stack/src/mesh_stack.c.obj
 .ARM.attributes
                0x00000000000000e8       0x39 CMakeFiles/pb_remote_server_nrf52832_xxAA_s132_6.0.0.dir/__/__/common/src/mesh_softdevice_init.c.obj
 .ARM.attributes
                0x0000000000000121       0x39 CMakeFiles/pb_remote_server_nrf52832_xxAA_s132_6.0.0.dir/__/__/common/src/mesh_provisionee.c.obj
 .ARM.attributes
                0x000000000000015a       0x39 CMakeFiles/pb_remote_server_nrf52832_xxAA_s132_6.0.0.dir/__/__/common/src/simple_hal.c.obj
 .ARM.attributes
                0x0000000000000193       0x39 CMakeFiles/pb_remote_server_nrf52832_xxAA_s132_6.0.0.dir/__/__/nrf_mesh_weak.c.obj
 .ARM.attributes
                0x00000000000001cc       0x39 CMakeFiles/pb_remote_server_nrf52832_xxAA_s132_6.0.0.dir/__/__/common/src/app_error_weak.c.obj
 .ARM.attributes
                0x0000000000000205       0x39 CMakeFiles/pb_remote_server_nrf52832_xxAA_s132_6.0.0.dir/__/__/common/src/assertion_handler_weak.c.obj
 .ARM.attributes
                0x000000000000023e       0x39 CMakeFiles/pb_remote_server_nrf52832_xxAA_s132_6.0.0.dir/__/__/__/mesh/core/src/nrf_mesh_configure.c.obj
 .ARM.attributes
                0x0000000000000277       0x39 CMakeFiles/pb_remote_server_nrf52832_xxAA_s132_6.0.0.dir/__/__/__/mesh/core/src/aes.c.obj
 .ARM.attributes
                0x00000000000002b0       0x39 CMakeFiles/pb_remote_server_nrf52832_xxAA_s132_6.0.0.dir/__/__/__/mesh/core/src/msg_cache.c.obj
 .ARM.attributes
                0x00000000000002e9       0x39 CMakeFiles/pb_remote_server_nrf52832_xxAA_s132_6.0.0.dir/__/__/__/mesh/core/src/transport.c.obj
 .ARM.attributes
                0x0000000000000322       0x39 CMakeFiles/pb_remote_server_nrf52832_xxAA_s132_6.0.0.dir/__/__/__/mesh/core/src/event.c.obj
 .ARM.attributes
                0x000000000000035b       0x39 CMakeFiles/pb_remote_server_nrf52832_xxAA_s132_6.0.0.dir/__/__/__/mesh/core/src/packet_buffer.c.obj
 .ARM.attributes
                0x0000000000000394       0x39 CMakeFiles/pb_remote_server_nrf52832_xxAA_s132_6.0.0.dir/__/__/__/mesh/core/src/flash_manager_defrag.c.obj
 .ARM.attributes
                0x00000000000003cd       0x39 CMakeFiles/pb_remote_server_nrf52832_xxAA_s132_6.0.0.dir/__/__/__/mesh/core/src/fifo.c.obj
 .ARM.attributes
                0x0000000000000406       0x39 CMakeFiles/pb_remote_server_nrf52832_xxAA_s132_6.0.0.dir/__/__/__/mesh/core/src/nrf_flash.c.obj
 .ARM.attributes
                0x000000000000043f       0x39 CMakeFiles/pb_remote_server_nrf52832_xxAA_s132_6.0.0.dir/__/__/__/mesh/core/src/packet_mgr.c.obj
 .ARM.attributes
                0x0000000000000478       0x39 CMakeFiles/pb_remote_server_nrf52832_xxAA_s132_6.0.0.dir/__/__/__/mesh/core/src/net_state.c.obj
 .ARM.attributes
                0x00000000000004b1       0x39 CMakeFiles/pb_remote_server_nrf52832_xxAA_s132_6.0.0.dir/__/__/__/mesh/core/src/mesh_flash.c.obj
 .ARM.attributes
                0x00000000000004ea       0x39 CMakeFiles/pb_remote_server_nrf52832_xxAA_s132_6.0.0.dir/__/__/__/mesh/core/src/nrf_mesh_utils.c.obj
 .ARM.attributes
                0x0000000000000523       0x39 CMakeFiles/pb_remote_server_nrf52832_xxAA_s132_6.0.0.dir/__/__/__/mesh/core/src/nrf_mesh.c.obj
 .ARM.attributes
                0x000000000000055c       0x39 CMakeFiles/pb_remote_server_nrf52832_xxAA_s132_6.0.0.dir/__/__/__/mesh/core/src/queue.c.obj
 .ARM.attributes
                0x0000000000000595       0x39 CMakeFiles/pb_remote_server_nrf52832_xxAA_s132_6.0.0.dir/__/__/__/mesh/core/src/hal.c.obj
 .ARM.attributes
                0x00000000000005ce       0x39 CMakeFiles/pb_remote_server_nrf52832_xxAA_s132_6.0.0.dir/__/__/__/mesh/core/src/aes_cmac.c.obj
 .ARM.attributes
                0x0000000000000607       0x39 CMakeFiles/pb_remote_server_nrf52832_xxAA_s132_6.0.0.dir/__/__/__/mesh/core/src/timer_scheduler.c.obj
 .ARM.attributes
                0x0000000000000640       0x39 CMakeFiles/pb_remote_server_nrf52832_xxAA_s132_6.0.0.dir/__/__/__/mesh/core/src/timer.c.obj
 .ARM.attributes
                0x0000000000000679       0x39 CMakeFiles/pb_remote_server_nrf52832_xxAA_s132_6.0.0.dir/__/__/__/mesh/core/src/ticker.c.obj
 .ARM.attributes
                0x00000000000006b2       0x39 CMakeFiles/pb_remote_server_nrf52832_xxAA_s132_6.0.0.dir/__/__/__/mesh/core/src/rand.c.obj
 .ARM.attributes
                0x00000000000006eb       0x39 CMakeFiles/pb_remote_server_nrf52832_xxAA_s132_6.0.0.dir/__/__/__/mesh/core/src/nrf_mesh_opt.c.obj
 .ARM.attributes
                0x0000000000000724       0x39 CMakeFiles/pb_remote_server_nrf52832_xxAA_s132_6.0.0.dir/__/__/__/mesh/core/src/timeslot.c.obj
 .ARM.attributes
                0x000000000000075d       0x39 CMakeFiles/pb_remote_server_nrf52832_xxAA_s132_6.0.0.dir/__/__/__/mesh/core/src/bearer_event.c.obj
 .ARM.attributes
                0x0000000000000796       0x39 CMakeFiles/pb_remote_server_nrf52832_xxAA_s132_6.0.0.dir/__/__/__/mesh/core/src/enc.c.obj
 .ARM.attributes
                0x00000000000007cf       0x39 CMakeFiles/pb_remote_server_nrf52832_xxAA_s132_6.0.0.dir/__/__/__/mesh/core/src/network.c.obj
 .ARM.attributes
                0x0000000000000808       0x39 CMakeFiles/pb_remote_server_nrf52832_xxAA_s132_6.0.0.dir/__/__/__/mesh/core/src/net_packet.c.obj
 .ARM.attributes
                0x0000000000000841       0x39 CMakeFiles/pb_remote_server_nrf52832_xxAA_s132_6.0.0.dir/__/__/__/mesh/core/src/msqueue.c.obj
 .ARM.attributes
                0x000000000000087a       0x39 CMakeFiles/pb_remote_server_nrf52832_xxAA_s132_6.0.0.dir/__/__/__/mesh/core/src/nrf_mesh_keygen.c.obj
 .ARM.attributes
                0x00000000000008b3       0x39 CMakeFiles/pb_remote_server_nrf52832_xxAA_s132_6.0.0.dir/__/__/__/mesh/core/src/list.c.obj
 .ARM.attributes
                0x00000000000008ec       0x39 CMakeFiles/pb_remote_server_nrf52832_xxAA_s132_6.0.0.dir/__/__/__/mesh/core/src/log.c.obj
 .ARM.attributes
                0x0000000000000925       0x39 CMakeFiles/pb_remote_server_nrf52832_xxAA_s132_6.0.0.dir/__/__/__/mesh/core/src/flash_manager.c.obj
 .ARM.attributes
                0x000000000000095e       0x39 CMakeFiles/pb_remote_server_nrf52832_xxAA_s132_6.0.0.dir/__/__/__/mesh/core/src/ccm_soft.c.obj
 .ARM.attributes
                0x0000000000000997       0x39 CMakeFiles/pb_remote_server_nrf52832_xxAA_s132_6.0.0.dir/__/__/__/mesh/core/src/replay_cache.c.obj
 .ARM.attributes
                0x00000000000009d0       0x39 CMakeFiles/pb_remote_server_nrf52832_xxAA_s132_6.0.0.dir/__/__/__/mesh/core/src/beacon.c.obj
 .ARM.attributes
                0x0000000000000a09       0x39 CMakeFiles/pb_remote_server_nrf52832_xxAA_s132_6.0.0.dir/__/__/__/mesh/core/src/flash_manager_internal.c.obj
 .ARM.attributes
                0x0000000000000a42       0x39 CMakeFiles/pb_remote_server_nrf52832_xxAA_s132_6.0.0.dir/__/__/__/mesh/core/src/core_tx.c.obj
 .ARM.attributes
                0x0000000000000a7b       0x39 CMakeFiles/pb_remote_server_nrf52832_xxAA_s132_6.0.0.dir/__/__/__/mesh/core/src/heartbeat.c.obj
 .ARM.attributes
                0x0000000000000ab4       0x39 CMakeFiles/pb_remote_server_nrf52832_xxAA_s132_6.0.0.dir/__/__/__/mesh/core/src/net_beacon.c.obj
 .ARM.attributes
                0x0000000000000aed       0x39 CMakeFiles/pb_remote_server_nrf52832_xxAA_s132_6.0.0.dir/__/__/__/mesh/core/src/core_tx_adv.c.obj
 .ARM.attributes
                0x0000000000000b26       0x39 CMakeFiles/pb_remote_server_nrf52832_xxAA_s132_6.0.0.dir/__/__/__/mesh/bearer/src/ad_listener.c.obj
 .ARM.attributes
                0x0000000000000b5f       0x39 CMakeFiles/pb_remote_server_nrf52832_xxAA_s132_6.0.0.dir/__/__/__/mesh/bearer/src/ad_type_filter.c.obj
 .ARM.attributes
                0x0000000000000b98       0x39 CMakeFiles/pb_remote_server_nrf52832_xxAA_s132_6.0.0.dir/__/__/__/mesh/bearer/src/advertiser.c.obj
 .ARM.attributes
                0x0000000000000bd1       0x39 CMakeFiles/pb_remote_server_nrf52832_xxAA_s132_6.0.0.dir/__/__/__/mesh/bearer/src/bearer_handler.c.obj
 .ARM.attributes
                0x0000000000000c0a       0x39 CMakeFiles/pb_remote_server_nrf52832_xxAA_s132_6.0.0.dir/__/__/__/mesh/bearer/src/broadcast.c.obj
 .ARM.attributes
                0x0000000000000c43       0x39 CMakeFiles/pb_remote_server_nrf52832_xxAA_s132_6.0.0.dir/__/__/__/mesh/bearer/src/filter_engine.c.obj
 .ARM.attributes
                0x0000000000000c7c       0x39 CMakeFiles/pb_remote_server_nrf52832_xxAA_s132_6.0.0.dir/__/__/__/mesh/bearer/src/radio_config.c.obj
 .ARM.attributes
                0x0000000000000cb5       0x39 CMakeFiles/pb_remote_server_nrf52832_xxAA_s132_6.0.0.dir/__/__/__/mesh/bearer/src/scanner.c.obj
 .ARM.attributes
                0x0000000000000cee       0x39 CMakeFiles/pb_remote_server_nrf52832_xxAA_s132_6.0.0.dir/__/__/__/mesh/prov/src/prov_provisionee.c.obj
 .ARM.attributes
                0x0000000000000d27       0x39 CMakeFiles/pb_remote_server_nrf52832_xxAA_s132_6.0.0.dir/__/__/__/mesh/prov/src/nrf_mesh_prov.c.obj
 .ARM.attributes
                0x0000000000000d60       0x39 CMakeFiles/pb_remote_server_nrf52832_xxAA_s132_6.0.0.dir/__/__/__/mesh/prov/src/provisioning.c.obj
 .ARM.attributes
                0x0000000000000d99       0x39 CMakeFiles/pb_remote_server_nrf52832_xxAA_s132_6.0.0.dir/__/__/__/mesh/prov/src/prov_beacon.c.obj
 .ARM.attributes
                0x0000000000000dd2       0x39 CMakeFiles/pb_remote_server_nrf52832_xxAA_s132_6.0.0.dir/__/__/__/mesh/prov/src/prov_utils.c.obj
 .ARM.attributes
                0x0000000000000e0b       0x39 CMakeFiles/pb_remote_server_nrf52832_xxAA_s132_6.0.0.dir/__/__/__/mesh/prov/src/prov_bearer_adv.c.obj
 .ARM.attributes
                0x0000000000000e44       0x39 CMakeFiles/pb_remote_server_nrf52832_xxAA_s132_6.0.0.dir/__/__/__/models/pb_remote/src/pb_remote_server.c.obj
 .ARM.attributes
                0x0000000000000e7d       0x39 CMakeFiles/pb_remote_server_nrf52832_xxAA_s132_6.0.0.dir/__/__/__/mesh/access/src/access_publish.c.obj
 .ARM.attributes
                0x0000000000000eb6       0x39 CMakeFiles/pb_remote_server_nrf52832_xxAA_s132_6.0.0.dir/__/__/__/mesh/access/src/access.c.obj
 .ARM.attributes
                0x0000000000000eef       0x39 CMakeFiles/pb_remote_server_nrf52832_xxAA_s132_6.0.0.dir/__/__/__/mesh/access/src/access_reliable.c.obj
 .ARM.attributes
                0x0000000000000f28       0x39 CMakeFiles/pb_remote_server_nrf52832_xxAA_s132_6.0.0.dir/__/__/__/mesh/access/src/device_state_manager.c.obj
 .ARM.attributes
                0x0000000000000f61       0x39 CMakeFiles/pb_remote_server_nrf52832_xxAA_s132_6.0.0.dir/__/__/__/models/config/src/composition_data.c.obj
 .ARM.attributes
                0x0000000000000f9a       0x39 CMakeFiles/pb_remote_server_nrf52832_xxAA_s132_6.0.0.dir/__/__/__/models/config/src/config_server.c.obj
 .ARM.attributes
                0x0000000000000fd3       0x39 CMakeFiles/pb_remote_server_nrf52832_xxAA_s132_6.0.0.dir/__/__/__/models/config/src/packed_index_list.c.obj
 .ARM.attributes
                0x000000000000100c       0x39 CMakeFiles/pb_remote_server_nrf52832_xxAA_s132_6.0.0.dir/__/__/__/models/health/src/health_server.c.obj
 .ARM.attributes
                0x0000000000001045       0x39 CMakeFiles/pb_remote_server_nrf52832_xxAA_s132_6.0.0.dir/home/mazzer/work/nordic/sdk/nRF5_SDK_15.0.0/modules/nrfx/mdk/system_nrf52.c.obj
 .ARM.attributes
                0x000000000000107e       0x20 CMakeFiles/pb_remote_server_nrf52832_xxAA_s132_6.0.0.dir/home/mazzer/work/nordic/sdk/nRF5_SDK_15.0.0/modules/nrfx/mdk/gcc_startup_nrf52.S.obj
 .ARM.attributes
                0x000000000000109e       0x39 CMakeFiles/pb_remote_server_nrf52832_xxAA_s132_6.0.0.dir/home/mazzer/work/nordic/sdk/nRF5_SDK_15.0.0/components/libraries/util/app_error.c.obj
 .ARM.attributes
                0x00000000000010d7       0x39 CMakeFiles/pb_remote_server_nrf52832_xxAA_s132_6.0.0.dir/home/mazzer/work/nordic/sdk/nRF5_SDK_15.0.0/components/libraries/util/app_error_handler_gcc.c.obj
 .ARM.attributes
                0x0000000000001110       0x39 ../../../external/rtt/librtt_nrf52832_xxAA.a(SEGGER_RTT.c.obj)
 .ARM.attributes
                0x0000000000001149       0x39 ../../../external/rtt/librtt_nrf52832_xxAA.a(SEGGER_RTT_printf.c.obj)
 .ARM.attributes
                0x0000000000001182       0x39 ../../../external/micro-ecc/libuECC_nrf52832_xxAA.a(uECC.c.obj)
 .ARM.attributes
                0x00000000000011bb       0x34 /usr/bin/../lib/gcc/arm-none-eabi/7.2.1/../../../../arm-none-eabi/lib/thumb/v7e-m/fpv4-sp/hard/libg_nano.a(lib_a-exit.o)
 .ARM.attributes
                0x00000000000011ef       0x34 /usr/bin/../lib/gcc/arm-none-eabi/7.2.1/../../../../arm-none-eabi/lib/thumb/v7e-m/fpv4-sp/hard/libg_nano.a(lib_a-impure.o)
 .ARM.attributes
                0x0000000000001223       0x34 /usr/bin/../lib/gcc/arm-none-eabi/7.2.1/../../../../arm-none-eabi/lib/thumb/v7e-m/fpv4-sp/hard/libg_nano.a(lib_a-init.o)
 .ARM.attributes
                0x0000000000001257       0x34 /usr/bin/../lib/gcc/arm-none-eabi/7.2.1/../../../../arm-none-eabi/lib/thumb/v7e-m/fpv4-sp/hard/libg_nano.a(lib_a-malloc.o)
 .ARM.attributes
                0x000000000000128b       0x34 /usr/bin/../lib/gcc/arm-none-eabi/7.2.1/../../../../arm-none-eabi/lib/thumb/v7e-m/fpv4-sp/hard/libg_nano.a(lib_a-memcmp.o)
 .ARM.attributes
                0x00000000000012bf       0x34 /usr/bin/../lib/gcc/arm-none-eabi/7.2.1/../../../../arm-none-eabi/lib/thumb/v7e-m/fpv4-sp/hard/libg_nano.a(lib_a-memcpy-stub.o)
 .ARM.attributes
                0x00000000000012f3       0x34 /usr/bin/../lib/gcc/arm-none-eabi/7.2.1/../../../../arm-none-eabi/lib/thumb/v7e-m/fpv4-sp/hard/libg_nano.a(lib_a-memset.o)
 .ARM.attributes
                0x0000000000001327       0x34 /usr/bin/../lib/gcc/arm-none-eabi/7.2.1/../../../../arm-none-eabi/lib/thumb/v7e-m/fpv4-sp/hard/libg_nano.a(lib_a-nano-freer.o)
 .ARM.attributes
                0x000000000000135b       0x34 /usr/bin/../lib/gcc/arm-none-eabi/7.2.1/../../../../arm-none-eabi/lib/thumb/v7e-m/fpv4-sp/hard/libg_nano.a(lib_a-nano-mallocr.o)
 .ARM.attributes
                0x000000000000138f       0x34 /usr/bin/../lib/gcc/arm-none-eabi/7.2.1/../../../../arm-none-eabi/lib/thumb/v7e-m/fpv4-sp/hard/libg_nano.a(lib_a-sbrkr.o)
 .ARM.attributes
                0x00000000000013c3       0x34 /usr/bin/../lib/gcc/arm-none-eabi/7.2.1/../../../../arm-none-eabi/lib/thumb/v7e-m/fpv4-sp/hard/libg_nano.a(lib_a-strcpy.o)
 .ARM.attributes
                0x00000000000013f7       0x1b /usr/bin/../lib/gcc/arm-none-eabi/7.2.1/../../../../arm-none-eabi/lib/thumb/v7e-m/fpv4-sp/hard/libg_nano.a(lib_a-strlen.o)
 .ARM.attributes
                0x0000000000001412       0x34 /usr/bin/../lib/gcc/arm-none-eabi/7.2.1/../../../../arm-none-eabi/lib/thumb/v7e-m/fpv4-sp/hard/libg_nano.a(lib_a-strrchr.o)
 .ARM.attributes
                0x0000000000001446       0x34 /usr/bin/../lib/gcc/arm-none-eabi/7.2.1/../../../../arm-none-eabi/lib/thumb/v7e-m/fpv4-sp/hard/libg_nano.a(lib_a-mlock.o)
 .ARM.attributes
                0x000000000000147a       0x34 /usr/bin/../lib/gcc/arm-none-eabi/7.2.1/../../../../arm-none-eabi/lib/thumb/v7e-m/fpv4-sp/hard/libg_nano.a(lib_a-reent.o)
 .ARM.attributes
                0x00000000000014ae       0x34 /usr/bin/../lib/gcc/arm-none-eabi/7.2.1/../../../../arm-none-eabi/lib/thumb/v7e-m/fpv4-sp/hard/libg_nano.a(lib_a-strchr.o)
 .ARM.attributes
                0x00000000000014e2       0x34 /usr/bin/../lib/gcc/arm-none-eabi/7.2.1/thumb/v7e-m/fpv4-sp/hard/crtend.o
 .ARM.attributes
                0x0000000000001516       0x22 /usr/bin/../lib/gcc/arm-none-eabi/7.2.1/thumb/v7e-m/fpv4-sp/hard/crtn.o
 .ARM.attributes
                0x0000000000001538       0x34 /usr/bin/../lib/gcc/arm-none-eabi/7.2.1/../../../../arm-none-eabi/lib/thumb/v7e-m/fpv4-sp/hard/libnosys.a(sbrk.o)
 .ARM.attributes
                0x000000000000156c       0x34 /usr/bin/../lib/gcc/arm-none-eabi/7.2.1/../../../../arm-none-eabi/lib/thumb/v7e-m/fpv4-sp/hard/libnosys.a(_exit.o)

.comment        0x0000000000000000       0x7e
 .comment       0x0000000000000000       0x7e CMakeFiles/pb_remote_server_nrf52832_xxAA_s132_6.0.0.dir/src/main.c.obj
                                         0x7f (size before relaxing)
 .comment       0x000000000000007e       0x7f CMakeFiles/pb_remote_server_nrf52832_xxAA_s132_6.0.0.dir/__/__/__/mesh/stack/src/mesh_stack.c.obj
 .comment       0x000000000000007e       0x7f CMakeFiles/pb_remote_server_nrf52832_xxAA_s132_6.0.0.dir/__/__/common/src/mesh_softdevice_init.c.obj
 .comment       0x000000000000007e       0x7f CMakeFiles/pb_remote_server_nrf52832_xxAA_s132_6.0.0.dir/__/__/common/src/mesh_provisionee.c.obj
 .comment       0x000000000000007e       0x7f CMakeFiles/pb_remote_server_nrf52832_xxAA_s132_6.0.0.dir/__/__/common/src/simple_hal.c.obj
 .comment       0x000000000000007e       0x7f CMakeFiles/pb_remote_server_nrf52832_xxAA_s132_6.0.0.dir/__/__/nrf_mesh_weak.c.obj
 .comment       0x000000000000007e       0x7f CMakeFiles/pb_remote_server_nrf52832_xxAA_s132_6.0.0.dir/__/__/common/src/app_error_weak.c.obj
 .comment       0x000000000000007e       0x7f CMakeFiles/pb_remote_server_nrf52832_xxAA_s132_6.0.0.dir/__/__/common/src/assertion_handler_weak.c.obj
 .comment       0x000000000000007e       0x7f CMakeFiles/pb_remote_server_nrf52832_xxAA_s132_6.0.0.dir/__/__/__/mesh/core/src/nrf_mesh_configure.c.obj
 .comment       0x000000000000007e       0x7f CMakeFiles/pb_remote_server_nrf52832_xxAA_s132_6.0.0.dir/__/__/__/mesh/core/src/aes.c.obj
 .comment       0x000000000000007e       0x7f CMakeFiles/pb_remote_server_nrf52832_xxAA_s132_6.0.0.dir/__/__/__/mesh/core/src/msg_cache.c.obj
 .comment       0x000000000000007e       0x7f CMakeFiles/pb_remote_server_nrf52832_xxAA_s132_6.0.0.dir/__/__/__/mesh/core/src/transport.c.obj
 .comment       0x000000000000007e       0x7f CMakeFiles/pb_remote_server_nrf52832_xxAA_s132_6.0.0.dir/__/__/__/mesh/core/src/event.c.obj
 .comment       0x000000000000007e       0x7f CMakeFiles/pb_remote_server_nrf52832_xxAA_s132_6.0.0.dir/__/__/__/mesh/core/src/packet_buffer.c.obj
 .comment       0x000000000000007e       0x7f CMakeFiles/pb_remote_server_nrf52832_xxAA_s132_6.0.0.dir/__/__/__/mesh/core/src/flash_manager_defrag.c.obj
 .comment       0x000000000000007e       0x7f CMakeFiles/pb_remote_server_nrf52832_xxAA_s132_6.0.0.dir/__/__/__/mesh/core/src/fifo.c.obj
 .comment       0x000000000000007e       0x7f CMakeFiles/pb_remote_server_nrf52832_xxAA_s132_6.0.0.dir/__/__/__/mesh/core/src/nrf_flash.c.obj
 .comment       0x000000000000007e       0x7f CMakeFiles/pb_remote_server_nrf52832_xxAA_s132_6.0.0.dir/__/__/__/mesh/core/src/packet_mgr.c.obj
 .comment       0x000000000000007e       0x7f CMakeFiles/pb_remote_server_nrf52832_xxAA_s132_6.0.0.dir/__/__/__/mesh/core/src/net_state.c.obj
 .comment       0x000000000000007e       0x7f CMakeFiles/pb_remote_server_nrf52832_xxAA_s132_6.0.0.dir/__/__/__/mesh/core/src/mesh_flash.c.obj
 .comment       0x000000000000007e       0x7f CMakeFiles/pb_remote_server_nrf52832_xxAA_s132_6.0.0.dir/__/__/__/mesh/core/src/nrf_mesh_utils.c.obj
 .comment       0x000000000000007e       0x7f CMakeFiles/pb_remote_server_nrf52832_xxAA_s132_6.0.0.dir/__/__/__/mesh/core/src/nrf_mesh.c.obj
 .comment       0x000000000000007e       0x7f CMakeFiles/pb_remote_server_nrf52832_xxAA_s132_6.0.0.dir/__/__/__/mesh/core/src/queue.c.obj
 .comment       0x000000000000007e       0x7f CMakeFiles/pb_remote_server_nrf52832_xxAA_s132_6.0.0.dir/__/__/__/mesh/core/src/hal.c.obj
 .comment       0x000000000000007e       0x7f CMakeFiles/pb_remote_server_nrf52832_xxAA_s132_6.0.0.dir/__/__/__/mesh/core/src/aes_cmac.c.obj
 .comment       0x000000000000007e       0x7f CMakeFiles/pb_remote_server_nrf52832_xxAA_s132_6.0.0.dir/__/__/__/mesh/core/src/timer_scheduler.c.obj
 .comment       0x000000000000007e       0x7f CMakeFiles/pb_remote_server_nrf52832_xxAA_s132_6.0.0.dir/__/__/__/mesh/core/src/timer.c.obj
 .comment       0x000000000000007e       0x7f CMakeFiles/pb_remote_server_nrf52832_xxAA_s132_6.0.0.dir/__/__/__/mesh/core/src/ticker.c.obj
 .comment       0x000000000000007e       0x7f CMakeFiles/pb_remote_server_nrf52832_xxAA_s132_6.0.0.dir/__/__/__/mesh/core/src/rand.c.obj
 .comment       0x000000000000007e       0x7f CMakeFiles/pb_remote_server_nrf52832_xxAA_s132_6.0.0.dir/__/__/__/mesh/core/src/nrf_mesh_opt.c.obj
 .comment       0x000000000000007e       0x7f CMakeFiles/pb_remote_server_nrf52832_xxAA_s132_6.0.0.dir/__/__/__/mesh/core/src/timeslot.c.obj
 .comment       0x000000000000007e       0x7f CMakeFiles/pb_remote_server_nrf52832_xxAA_s132_6.0.0.dir/__/__/__/mesh/core/src/bearer_event.c.obj
 .comment       0x000000000000007e       0x7f CMakeFiles/pb_remote_server_nrf52832_xxAA_s132_6.0.0.dir/__/__/__/mesh/core/src/enc.c.obj
 .comment       0x000000000000007e       0x7f CMakeFiles/pb_remote_server_nrf52832_xxAA_s132_6.0.0.dir/__/__/__/mesh/core/src/network.c.obj
 .comment       0x000000000000007e       0x7f CMakeFiles/pb_remote_server_nrf52832_xxAA_s132_6.0.0.dir/__/__/__/mesh/core/src/net_packet.c.obj
 .comment       0x000000000000007e       0x7f CMakeFiles/pb_remote_server_nrf52832_xxAA_s132_6.0.0.dir/__/__/__/mesh/core/src/msqueue.c.obj
 .comment       0x000000000000007e       0x7f CMakeFiles/pb_remote_server_nrf52832_xxAA_s132_6.0.0.dir/__/__/__/mesh/core/src/nrf_mesh_keygen.c.obj
 .comment       0x000000000000007e       0x7f CMakeFiles/pb_remote_server_nrf52832_xxAA_s132_6.0.0.dir/__/__/__/mesh/core/src/list.c.obj
 .comment       0x000000000000007e       0x7f CMakeFiles/pb_remote_server_nrf52832_xxAA_s132_6.0.0.dir/__/__/__/mesh/core/src/log.c.obj
 .comment       0x000000000000007e       0x7f CMakeFiles/pb_remote_server_nrf52832_xxAA_s132_6.0.0.dir/__/__/__/mesh/core/src/flash_manager.c.obj
 .comment       0x000000000000007e       0x7f CMakeFiles/pb_remote_server_nrf52832_xxAA_s132_6.0.0.dir/__/__/__/mesh/core/src/ccm_soft.c.obj
 .comment       0x000000000000007e       0x7f CMakeFiles/pb_remote_server_nrf52832_xxAA_s132_6.0.0.dir/__/__/__/mesh/core/src/replay_cache.c.obj
 .comment       0x000000000000007e       0x7f CMakeFiles/pb_remote_server_nrf52832_xxAA_s132_6.0.0.dir/__/__/__/mesh/core/src/beacon.c.obj
 .comment       0x000000000000007e       0x7f CMakeFiles/pb_remote_server_nrf52832_xxAA_s132_6.0.0.dir/__/__/__/mesh/core/src/flash_manager_internal.c.obj
 .comment       0x000000000000007e       0x7f CMakeFiles/pb_remote_server_nrf52832_xxAA_s132_6.0.0.dir/__/__/__/mesh/core/src/core_tx.c.obj
 .comment       0x000000000000007e       0x7f CMakeFiles/pb_remote_server_nrf52832_xxAA_s132_6.0.0.dir/__/__/__/mesh/core/src/heartbeat.c.obj
 .comment       0x000000000000007e       0x7f CMakeFiles/pb_remote_server_nrf52832_xxAA_s132_6.0.0.dir/__/__/__/mesh/core/src/net_beacon.c.obj
 .comment       0x000000000000007e       0x7f CMakeFiles/pb_remote_server_nrf52832_xxAA_s132_6.0.0.dir/__/__/__/mesh/core/src/core_tx_adv.c.obj
 .comment       0x000000000000007e       0x7f CMakeFiles/pb_remote_server_nrf52832_xxAA_s132_6.0.0.dir/__/__/__/mesh/bearer/src/ad_listener.c.obj
 .comment       0x000000000000007e       0x7f CMakeFiles/pb_remote_server_nrf52832_xxAA_s132_6.0.0.dir/__/__/__/mesh/bearer/src/ad_type_filter.c.obj
 .comment       0x000000000000007e       0x7f CMakeFiles/pb_remote_server_nrf52832_xxAA_s132_6.0.0.dir/__/__/__/mesh/bearer/src/advertiser.c.obj
 .comment       0x000000000000007e       0x7f CMakeFiles/pb_remote_server_nrf52832_xxAA_s132_6.0.0.dir/__/__/__/mesh/bearer/src/bearer_handler.c.obj
 .comment       0x000000000000007e       0x7f CMakeFiles/pb_remote_server_nrf52832_xxAA_s132_6.0.0.dir/__/__/__/mesh/bearer/src/broadcast.c.obj
 .comment       0x000000000000007e       0x7f CMakeFiles/pb_remote_server_nrf52832_xxAA_s132_6.0.0.dir/__/__/__/mesh/bearer/src/filter_engine.c.obj
 .comment       0x000000000000007e       0x7f CMakeFiles/pb_remote_server_nrf52832_xxAA_s132_6.0.0.dir/__/__/__/mesh/bearer/src/radio_config.c.obj
 .comment       0x000000000000007e       0x7f CMakeFiles/pb_remote_server_nrf52832_xxAA_s132_6.0.0.dir/__/__/__/mesh/bearer/src/scanner.c.obj
 .comment       0x000000000000007e       0x7f CMakeFiles/pb_remote_server_nrf52832_xxAA_s132_6.0.0.dir/__/__/__/mesh/prov/src/prov_provisionee.c.obj
 .comment       0x000000000000007e       0x7f CMakeFiles/pb_remote_server_nrf52832_xxAA_s132_6.0.0.dir/__/__/__/mesh/prov/src/nrf_mesh_prov.c.obj
 .comment       0x000000000000007e       0x7f CMakeFiles/pb_remote_server_nrf52832_xxAA_s132_6.0.0.dir/__/__/__/mesh/prov/src/provisioning.c.obj
 .comment       0x000000000000007e       0x7f CMakeFiles/pb_remote_server_nrf52832_xxAA_s132_6.0.0.dir/__/__/__/mesh/prov/src/prov_beacon.c.obj
 .comment       0x000000000000007e       0x7f CMakeFiles/pb_remote_server_nrf52832_xxAA_s132_6.0.0.dir/__/__/__/mesh/prov/src/prov_utils.c.obj
 .comment       0x000000000000007e       0x7f CMakeFiles/pb_remote_server_nrf52832_xxAA_s132_6.0.0.dir/__/__/__/mesh/prov/src/prov_bearer_adv.c.obj
 .comment       0x000000000000007e       0x7f CMakeFiles/pb_remote_server_nrf52832_xxAA_s132_6.0.0.dir/__/__/__/models/pb_remote/src/pb_remote_server.c.obj
 .comment       0x000000000000007e       0x7f CMakeFiles/pb_remote_server_nrf52832_xxAA_s132_6.0.0.dir/__/__/__/mesh/access/src/access_publish.c.obj
 .comment       0x000000000000007e       0x7f CMakeFiles/pb_remote_server_nrf52832_xxAA_s132_6.0.0.dir/__/__/__/mesh/access/src/access.c.obj
 .comment       0x000000000000007e       0x7f CMakeFiles/pb_remote_server_nrf52832_xxAA_s132_6.0.0.dir/__/__/__/mesh/access/src/access_reliable.c.obj
 .comment       0x000000000000007e       0x7f CMakeFiles/pb_remote_server_nrf52832_xxAA_s132_6.0.0.dir/__/__/__/mesh/access/src/device_state_manager.c.obj
 .comment       0x000000000000007e       0x7f CMakeFiles/pb_remote_server_nrf52832_xxAA_s132_6.0.0.dir/__/__/__/models/config/src/composition_data.c.obj
 .comment       0x000000000000007e       0x7f CMakeFiles/pb_remote_server_nrf52832_xxAA_s132_6.0.0.dir/__/__/__/models/config/src/config_server.c.obj
 .comment       0x000000000000007e       0x7f CMakeFiles/pb_remote_server_nrf52832_xxAA_s132_6.0.0.dir/__/__/__/models/config/src/packed_index_list.c.obj
 .comment       0x000000000000007e       0x7f CMakeFiles/pb_remote_server_nrf52832_xxAA_s132_6.0.0.dir/__/__/__/models/health/src/health_server.c.obj
 .comment       0x000000000000007e       0x7f CMakeFiles/pb_remote_server_nrf52832_xxAA_s132_6.0.0.dir/home/mazzer/work/nordic/sdk/nRF5_SDK_15.0.0/modules/nrfx/mdk/system_nrf52.c.obj
 .comment       0x000000000000007e       0x7f CMakeFiles/pb_remote_server_nrf52832_xxAA_s132_6.0.0.dir/home/mazzer/work/nordic/sdk/nRF5_SDK_15.0.0/components/libraries/util/app_error.c.obj
 .comment       0x000000000000007e       0x7f CMakeFiles/pb_remote_server_nrf52832_xxAA_s132_6.0.0.dir/home/mazzer/work/nordic/sdk/nRF5_SDK_15.0.0/components/libraries/util/app_error_handler_gcc.c.obj
 .comment       0x000000000000007e       0x7f ../../../external/rtt/librtt_nrf52832_xxAA.a(SEGGER_RTT.c.obj)
 .comment       0x000000000000007e       0x7f ../../../external/rtt/librtt_nrf52832_xxAA.a(SEGGER_RTT_printf.c.obj)
 .comment       0x000000000000007e       0x7f ../../../external/micro-ecc/libuECC_nrf52832_xxAA.a(uECC.c.obj)

.debug_info     0x0000000000000000    0x966eb
 .debug_info    0x0000000000000000     0x319d CMakeFiles/pb_remote_server_nrf52832_xxAA_s132_6.0.0.dir/src/main.c.obj
 .debug_info    0x000000000000319d     0x2346 CMakeFiles/pb_remote_server_nrf52832_xxAA_s132_6.0.0.dir/__/__/__/mesh/stack/src/mesh_stack.c.obj
 .debug_info    0x00000000000054e3     0x17aa CMakeFiles/pb_remote_server_nrf52832_xxAA_s132_6.0.0.dir/__/__/common/src/mesh_softdevice_init.c.obj
 .debug_info    0x0000000000006c8d     0x218f CMakeFiles/pb_remote_server_nrf52832_xxAA_s132_6.0.0.dir/__/__/common/src/mesh_provisionee.c.obj
 .debug_info    0x0000000000008e1c     0x1572 CMakeFiles/pb_remote_server_nrf52832_xxAA_s132_6.0.0.dir/__/__/common/src/simple_hal.c.obj
 .debug_info    0x000000000000a38e      0x91d CMakeFiles/pb_remote_server_nrf52832_xxAA_s132_6.0.0.dir/__/__/nrf_mesh_weak.c.obj
 .debug_info    0x000000000000acab     0x1170 CMakeFiles/pb_remote_server_nrf52832_xxAA_s132_6.0.0.dir/__/__/common/src/app_error_weak.c.obj
 .debug_info    0x000000000000be1b      0x994 CMakeFiles/pb_remote_server_nrf52832_xxAA_s132_6.0.0.dir/__/__/common/src/assertion_handler_weak.c.obj
 .debug_info    0x000000000000c7af      0xcfd CMakeFiles/pb_remote_server_nrf52832_xxAA_s132_6.0.0.dir/__/__/__/mesh/core/src/nrf_mesh_configure.c.obj
 .debug_info    0x000000000000d4ac      0xbcc CMakeFiles/pb_remote_server_nrf52832_xxAA_s132_6.0.0.dir/__/__/__/mesh/core/src/aes.c.obj
 .debug_info    0x000000000000e078      0xa51 CMakeFiles/pb_remote_server_nrf52832_xxAA_s132_6.0.0.dir/__/__/__/mesh/core/src/msg_cache.c.obj
 .debug_info    0x000000000000eac9     0x6184 CMakeFiles/pb_remote_server_nrf52832_xxAA_s132_6.0.0.dir/__/__/__/mesh/core/src/transport.c.obj
 .debug_info    0x0000000000014c4d     0x1763 CMakeFiles/pb_remote_server_nrf52832_xxAA_s132_6.0.0.dir/__/__/__/mesh/core/src/event.c.obj
 .debug_info    0x00000000000163b0     0x19a8 CMakeFiles/pb_remote_server_nrf52832_xxAA_s132_6.0.0.dir/__/__/__/mesh/core/src/packet_buffer.c.obj
 .debug_info    0x0000000000017d58     0x2372 CMakeFiles/pb_remote_server_nrf52832_xxAA_s132_6.0.0.dir/__/__/__/mesh/core/src/flash_manager_defrag.c.obj
 .debug_info    0x000000000001a0ca      0xd9a CMakeFiles/pb_remote_server_nrf52832_xxAA_s132_6.0.0.dir/__/__/__/mesh/core/src/fifo.c.obj
 .debug_info    0x000000000001ae64      0xb38 CMakeFiles/pb_remote_server_nrf52832_xxAA_s132_6.0.0.dir/__/__/__/mesh/core/src/nrf_flash.c.obj
 .debug_info    0x000000000001b99c     0x118f CMakeFiles/pb_remote_server_nrf52832_xxAA_s132_6.0.0.dir/__/__/__/mesh/core/src/packet_mgr.c.obj
 .debug_info    0x000000000001cb2b     0x3735 CMakeFiles/pb_remote_server_nrf52832_xxAA_s132_6.0.0.dir/__/__/__/mesh/core/src/net_state.c.obj
 .debug_info    0x0000000000020260     0x1be8 CMakeFiles/pb_remote_server_nrf52832_xxAA_s132_6.0.0.dir/__/__/__/mesh/core/src/mesh_flash.c.obj
 .debug_info    0x0000000000021e48      0xa72 CMakeFiles/pb_remote_server_nrf52832_xxAA_s132_6.0.0.dir/__/__/__/mesh/core/src/nrf_mesh_utils.c.obj
 .debug_info    0x00000000000228ba     0x2678 CMakeFiles/pb_remote_server_nrf52832_xxAA_s132_6.0.0.dir/__/__/__/mesh/core/src/nrf_mesh.c.obj
 .debug_info    0x0000000000024f32      0xb10 CMakeFiles/pb_remote_server_nrf52832_xxAA_s132_6.0.0.dir/__/__/__/mesh/core/src/queue.c.obj
 .debug_info    0x0000000000025a42      0x549 CMakeFiles/pb_remote_server_nrf52832_xxAA_s132_6.0.0.dir/__/__/__/mesh/core/src/hal.c.obj
 .debug_info    0x0000000000025f8b      0xe8f CMakeFiles/pb_remote_server_nrf52832_xxAA_s132_6.0.0.dir/__/__/__/mesh/core/src/aes_cmac.c.obj
 .debug_info    0x0000000000026e1a     0x13bd CMakeFiles/pb_remote_server_nrf52832_xxAA_s132_6.0.0.dir/__/__/__/mesh/core/src/timer_scheduler.c.obj
 .debug_info    0x00000000000281d7      0xdfa CMakeFiles/pb_remote_server_nrf52832_xxAA_s132_6.0.0.dir/__/__/__/mesh/core/src/timer.c.obj
 .debug_info    0x0000000000028fd1      0x20c CMakeFiles/pb_remote_server_nrf52832_xxAA_s132_6.0.0.dir/__/__/__/mesh/core/src/ticker.c.obj
 .debug_info    0x00000000000291dd      0x4b6 CMakeFiles/pb_remote_server_nrf52832_xxAA_s132_6.0.0.dir/__/__/__/mesh/core/src/rand.c.obj
 .debug_info    0x0000000000029693      0xaef CMakeFiles/pb_remote_server_nrf52832_xxAA_s132_6.0.0.dir/__/__/__/mesh/core/src/nrf_mesh_opt.c.obj
 .debug_info    0x000000000002a182     0x1bc6 CMakeFiles/pb_remote_server_nrf52832_xxAA_s132_6.0.0.dir/__/__/__/mesh/core/src/timeslot.c.obj
 .debug_info    0x000000000002bd48     0x1c7b CMakeFiles/pb_remote_server_nrf52832_xxAA_s132_6.0.0.dir/__/__/__/mesh/core/src/bearer_event.c.obj
 .debug_info    0x000000000002d9c3     0x181f CMakeFiles/pb_remote_server_nrf52832_xxAA_s132_6.0.0.dir/__/__/__/mesh/core/src/enc.c.obj
 .debug_info    0x000000000002f1e2     0x1cc0 CMakeFiles/pb_remote_server_nrf52832_xxAA_s132_6.0.0.dir/__/__/__/mesh/core/src/network.c.obj
 .debug_info    0x0000000000030ea2     0x1de3 CMakeFiles/pb_remote_server_nrf52832_xxAA_s132_6.0.0.dir/__/__/__/mesh/core/src/net_packet.c.obj
 .debug_info    0x0000000000032c85      0xe51 CMakeFiles/pb_remote_server_nrf52832_xxAA_s132_6.0.0.dir/__/__/__/mesh/core/src/msqueue.c.obj
 .debug_info    0x0000000000033ad6      0x4c0 CMakeFiles/pb_remote_server_nrf52832_xxAA_s132_6.0.0.dir/__/__/__/mesh/core/src/nrf_mesh_keygen.c.obj
 .debug_info    0x0000000000033f96      0x573 CMakeFiles/pb_remote_server_nrf52832_xxAA_s132_6.0.0.dir/__/__/__/mesh/core/src/list.c.obj
 .debug_info    0x0000000000034509      0xe8b CMakeFiles/pb_remote_server_nrf52832_xxAA_s132_6.0.0.dir/__/__/__/mesh/core/src/log.c.obj
 .debug_info    0x0000000000035394     0x3cc6 CMakeFiles/pb_remote_server_nrf52832_xxAA_s132_6.0.0.dir/__/__/__/mesh/core/src/flash_manager.c.obj
 .debug_info    0x000000000003905a     0x120f CMakeFiles/pb_remote_server_nrf52832_xxAA_s132_6.0.0.dir/__/__/__/mesh/core/src/ccm_soft.c.obj
 .debug_info    0x000000000003a269      0xa87 CMakeFiles/pb_remote_server_nrf52832_xxAA_s132_6.0.0.dir/__/__/__/mesh/core/src/replay_cache.c.obj
 .debug_info    0x000000000003acf0     0x17c2 CMakeFiles/pb_remote_server_nrf52832_xxAA_s132_6.0.0.dir/__/__/__/mesh/core/src/beacon.c.obj
 .debug_info    0x000000000003c4b2      0xb98 CMakeFiles/pb_remote_server_nrf52832_xxAA_s132_6.0.0.dir/__/__/__/mesh/core/src/flash_manager_internal.c.obj
 .debug_info    0x000000000003d04a     0x1264 CMakeFiles/pb_remote_server_nrf52832_xxAA_s132_6.0.0.dir/__/__/__/mesh/core/src/core_tx.c.obj
 .debug_info    0x000000000003e2ae     0x24e7 CMakeFiles/pb_remote_server_nrf52832_xxAA_s132_6.0.0.dir/__/__/__/mesh/core/src/heartbeat.c.obj
 .debug_info    0x0000000000040795     0x2a3c CMakeFiles/pb_remote_server_nrf52832_xxAA_s132_6.0.0.dir/__/__/__/mesh/core/src/net_beacon.c.obj
 .debug_info    0x00000000000431d1     0x197e CMakeFiles/pb_remote_server_nrf52832_xxAA_s132_6.0.0.dir/__/__/__/mesh/core/src/core_tx_adv.c.obj
 .debug_info    0x0000000000044b4f     0x116a CMakeFiles/pb_remote_server_nrf52832_xxAA_s132_6.0.0.dir/__/__/__/mesh/bearer/src/ad_listener.c.obj
 .debug_info    0x0000000000045cb9      0xfc4 CMakeFiles/pb_remote_server_nrf52832_xxAA_s132_6.0.0.dir/__/__/__/mesh/bearer/src/ad_type_filter.c.obj
 .debug_info    0x0000000000046c7d     0x29fb CMakeFiles/pb_remote_server_nrf52832_xxAA_s132_6.0.0.dir/__/__/__/mesh/bearer/src/advertiser.c.obj
 .debug_info    0x0000000000049678     0x1a38 CMakeFiles/pb_remote_server_nrf52832_xxAA_s132_6.0.0.dir/__/__/__/mesh/bearer/src/bearer_handler.c.obj
 .debug_info    0x000000000004b0b0     0x19a6 CMakeFiles/pb_remote_server_nrf52832_xxAA_s132_6.0.0.dir/__/__/__/mesh/bearer/src/broadcast.c.obj
 .debug_info    0x000000000004ca56      0xd3e CMakeFiles/pb_remote_server_nrf52832_xxAA_s132_6.0.0.dir/__/__/__/mesh/bearer/src/filter_engine.c.obj
 .debug_info    0x000000000004d794      0x8d7 CMakeFiles/pb_remote_server_nrf52832_xxAA_s132_6.0.0.dir/__/__/__/mesh/bearer/src/radio_config.c.obj
 .debug_info    0x000000000004e06b     0x2c83 CMakeFiles/pb_remote_server_nrf52832_xxAA_s132_6.0.0.dir/__/__/__/mesh/bearer/src/scanner.c.obj
 .debug_info    0x0000000000050cee     0x2c7b CMakeFiles/pb_remote_server_nrf52832_xxAA_s132_6.0.0.dir/__/__/__/mesh/prov/src/prov_provisionee.c.obj
 .debug_info    0x0000000000053969     0x1fa2 CMakeFiles/pb_remote_server_nrf52832_xxAA_s132_6.0.0.dir/__/__/__/mesh/prov/src/nrf_mesh_prov.c.obj
 .debug_info    0x000000000005590b     0x18dc CMakeFiles/pb_remote_server_nrf52832_xxAA_s132_6.0.0.dir/__/__/__/mesh/prov/src/provisioning.c.obj
 .debug_info    0x00000000000571e7     0x1a93 CMakeFiles/pb_remote_server_nrf52832_xxAA_s132_6.0.0.dir/__/__/__/mesh/prov/src/prov_beacon.c.obj
 .debug_info    0x0000000000058c7a     0x2108 CMakeFiles/pb_remote_server_nrf52832_xxAA_s132_6.0.0.dir/__/__/__/mesh/prov/src/prov_utils.c.obj
 .debug_info    0x000000000005ad82     0x4a03 CMakeFiles/pb_remote_server_nrf52832_xxAA_s132_6.0.0.dir/__/__/__/mesh/prov/src/prov_bearer_adv.c.obj
 .debug_info    0x000000000005f785     0x617c CMakeFiles/pb_remote_server_nrf52832_xxAA_s132_6.0.0.dir/__/__/__/models/pb_remote/src/pb_remote_server.c.obj
 .debug_info    0x0000000000065901     0x12cf CMakeFiles/pb_remote_server_nrf52832_xxAA_s132_6.0.0.dir/__/__/__/mesh/access/src/access_publish.c.obj
 .debug_info    0x0000000000066bd0     0x55f3 CMakeFiles/pb_remote_server_nrf52832_xxAA_s132_6.0.0.dir/__/__/__/mesh/access/src/access.c.obj
 .debug_info    0x000000000006c1c3     0x1b15 CMakeFiles/pb_remote_server_nrf52832_xxAA_s132_6.0.0.dir/__/__/__/mesh/access/src/access_reliable.c.obj
 .debug_info    0x000000000006dcd8     0x8b40 CMakeFiles/pb_remote_server_nrf52832_xxAA_s132_6.0.0.dir/__/__/__/mesh/access/src/device_state_manager.c.obj
 .debug_info    0x0000000000076818      0xee0 CMakeFiles/pb_remote_server_nrf52832_xxAA_s132_6.0.0.dir/__/__/__/models/config/src/composition_data.c.obj
 .debug_info    0x00000000000776f8     0xc315 CMakeFiles/pb_remote_server_nrf52832_xxAA_s132_6.0.0.dir/__/__/__/models/config/src/config_server.c.obj
 .debug_info    0x0000000000083a0d      0x126 CMakeFiles/pb_remote_server_nrf52832_xxAA_s132_6.0.0.dir/__/__/__/models/config/src/packed_index_list.c.obj
 .debug_info    0x0000000000083b33     0x2e65 CMakeFiles/pb_remote_server_nrf52832_xxAA_s132_6.0.0.dir/__/__/__/models/health/src/health_server.c.obj
 .debug_info    0x0000000000086998     0x1116 CMakeFiles/pb_remote_server_nrf52832_xxAA_s132_6.0.0.dir/home/mazzer/work/nordic/sdk/nRF5_SDK_15.0.0/modules/nrfx/mdk/system_nrf52.c.obj
 .debug_info    0x0000000000087aae       0x26 CMakeFiles/pb_remote_server_nrf52832_xxAA_s132_6.0.0.dir/home/mazzer/work/nordic/sdk/nRF5_SDK_15.0.0/modules/nrfx/mdk/gcc_startup_nrf52.S.obj
 .debug_info    0x0000000000087ad4      0xae7 CMakeFiles/pb_remote_server_nrf52832_xxAA_s132_6.0.0.dir/home/mazzer/work/nordic/sdk/nRF5_SDK_15.0.0/components/libraries/util/app_error.c.obj
 .debug_info    0x00000000000885bb      0x96d CMakeFiles/pb_remote_server_nrf52832_xxAA_s132_6.0.0.dir/home/mazzer/work/nordic/sdk/nRF5_SDK_15.0.0/components/libraries/util/app_error_handler_gcc.c.obj
 .debug_info    0x0000000000088f28     0x2b01 ../../../external/rtt/librtt_nrf52832_xxAA.a(SEGGER_RTT.c.obj)
 .debug_info    0x000000000008ba29     0x11e1 ../../../external/rtt/librtt_nrf52832_xxAA.a(SEGGER_RTT_printf.c.obj)
 .debug_info    0x000000000008cc0a     0x9ae1 ../../../external/micro-ecc/libuECC_nrf52832_xxAA.a(uECC.c.obj)

.debug_abbrev   0x0000000000000000    0x1117e
 .debug_abbrev  0x0000000000000000      0x4f7 CMakeFiles/pb_remote_server_nrf52832_xxAA_s132_6.0.0.dir/src/main.c.obj
 .debug_abbrev  0x00000000000004f7      0x3b3 CMakeFiles/pb_remote_server_nrf52832_xxAA_s132_6.0.0.dir/__/__/__/mesh/stack/src/mesh_stack.c.obj
 .debug_abbrev  0x00000000000008aa      0x408 CMakeFiles/pb_remote_server_nrf52832_xxAA_s132_6.0.0.dir/__/__/common/src/mesh_softdevice_init.c.obj
 .debug_abbrev  0x0000000000000cb2      0x393 CMakeFiles/pb_remote_server_nrf52832_xxAA_s132_6.0.0.dir/__/__/common/src/mesh_provisionee.c.obj
 .debug_abbrev  0x0000000000001045      0x372 CMakeFiles/pb_remote_server_nrf52832_xxAA_s132_6.0.0.dir/__/__/common/src/simple_hal.c.obj
 .debug_abbrev  0x00000000000013b7      0x1ae CMakeFiles/pb_remote_server_nrf52832_xxAA_s132_6.0.0.dir/__/__/nrf_mesh_weak.c.obj
 .debug_abbrev  0x0000000000001565      0x2d5 CMakeFiles/pb_remote_server_nrf52832_xxAA_s132_6.0.0.dir/__/__/common/src/app_error_weak.c.obj
 .debug_abbrev  0x000000000000183a      0x1f6 CMakeFiles/pb_remote_server_nrf52832_xxAA_s132_6.0.0.dir/__/__/common/src/assertion_handler_weak.c.obj
 .debug_abbrev  0x0000000000001a30      0x24b CMakeFiles/pb_remote_server_nrf52832_xxAA_s132_6.0.0.dir/__/__/__/mesh/core/src/nrf_mesh_configure.c.obj
 .debug_abbrev  0x0000000000001c7b      0x266 CMakeFiles/pb_remote_server_nrf52832_xxAA_s132_6.0.0.dir/__/__/__/mesh/core/src/aes.c.obj
 .debug_abbrev  0x0000000000001ee1      0x24e CMakeFiles/pb_remote_server_nrf52832_xxAA_s132_6.0.0.dir/__/__/__/mesh/core/src/msg_cache.c.obj
 .debug_abbrev  0x000000000000212f      0x5f7 CMakeFiles/pb_remote_server_nrf52832_xxAA_s132_6.0.0.dir/__/__/__/mesh/core/src/transport.c.obj
 .debug_abbrev  0x0000000000002726      0x2d2 CMakeFiles/pb_remote_server_nrf52832_xxAA_s132_6.0.0.dir/__/__/__/mesh/core/src/event.c.obj
 .debug_abbrev  0x00000000000029f8      0x44c CMakeFiles/pb_remote_server_nrf52832_xxAA_s132_6.0.0.dir/__/__/__/mesh/core/src/packet_buffer.c.obj
 .debug_abbrev  0x0000000000002e44      0x526 CMakeFiles/pb_remote_server_nrf52832_xxAA_s132_6.0.0.dir/__/__/__/mesh/core/src/flash_manager_defrag.c.obj
 .debug_abbrev  0x000000000000336a      0x2fc CMakeFiles/pb_remote_server_nrf52832_xxAA_s132_6.0.0.dir/__/__/__/mesh/core/src/fifo.c.obj
 .debug_abbrev  0x0000000000003666      0x22d CMakeFiles/pb_remote_server_nrf52832_xxAA_s132_6.0.0.dir/__/__/__/mesh/core/src/nrf_flash.c.obj
 .debug_abbrev  0x0000000000003893      0x3bf CMakeFiles/pb_remote_server_nrf52832_xxAA_s132_6.0.0.dir/__/__/__/mesh/core/src/packet_mgr.c.obj
 .debug_abbrev  0x0000000000003c52      0x5a6 CMakeFiles/pb_remote_server_nrf52832_xxAA_s132_6.0.0.dir/__/__/__/mesh/core/src/net_state.c.obj
 .debug_abbrev  0x00000000000041f8      0x467 CMakeFiles/pb_remote_server_nrf52832_xxAA_s132_6.0.0.dir/__/__/__/mesh/core/src/mesh_flash.c.obj
 .debug_abbrev  0x000000000000465f      0x244 CMakeFiles/pb_remote_server_nrf52832_xxAA_s132_6.0.0.dir/__/__/__/mesh/core/src/nrf_mesh_utils.c.obj
 .debug_abbrev  0x00000000000048a3      0x47a CMakeFiles/pb_remote_server_nrf52832_xxAA_s132_6.0.0.dir/__/__/__/mesh/core/src/nrf_mesh.c.obj
 .debug_abbrev  0x0000000000004d1d      0x247 CMakeFiles/pb_remote_server_nrf52832_xxAA_s132_6.0.0.dir/__/__/__/mesh/core/src/queue.c.obj
 .debug_abbrev  0x0000000000004f64      0x1ed CMakeFiles/pb_remote_server_nrf52832_xxAA_s132_6.0.0.dir/__/__/__/mesh/core/src/hal.c.obj
 .debug_abbrev  0x0000000000005151      0x2e3 CMakeFiles/pb_remote_server_nrf52832_xxAA_s132_6.0.0.dir/__/__/__/mesh/core/src/aes_cmac.c.obj
 .debug_abbrev  0x0000000000005434      0x3f7 CMakeFiles/pb_remote_server_nrf52832_xxAA_s132_6.0.0.dir/__/__/__/mesh/core/src/timer_scheduler.c.obj
 .debug_abbrev  0x000000000000582b      0x378 CMakeFiles/pb_remote_server_nrf52832_xxAA_s132_6.0.0.dir/__/__/__/mesh/core/src/timer.c.obj
 .debug_abbrev  0x0000000000005ba3      0x154 CMakeFiles/pb_remote_server_nrf52832_xxAA_s132_6.0.0.dir/__/__/__/mesh/core/src/ticker.c.obj
 .debug_abbrev  0x0000000000005cf7      0x22e CMakeFiles/pb_remote_server_nrf52832_xxAA_s132_6.0.0.dir/__/__/__/mesh/core/src/rand.c.obj
 .debug_abbrev  0x0000000000005f25      0x24c CMakeFiles/pb_remote_server_nrf52832_xxAA_s132_6.0.0.dir/__/__/__/mesh/core/src/nrf_mesh_opt.c.obj
 .debug_abbrev  0x0000000000006171      0x4e5 CMakeFiles/pb_remote_server_nrf52832_xxAA_s132_6.0.0.dir/__/__/__/mesh/core/src/timeslot.c.obj
 .debug_abbrev  0x0000000000006656      0x4f9 CMakeFiles/pb_remote_server_nrf52832_xxAA_s132_6.0.0.dir/__/__/__/mesh/core/src/bearer_event.c.obj
 .debug_abbrev  0x0000000000006b4f      0x39b CMakeFiles/pb_remote_server_nrf52832_xxAA_s132_6.0.0.dir/__/__/__/mesh/core/src/enc.c.obj
 .debug_abbrev  0x0000000000006eea      0x4e2 CMakeFiles/pb_remote_server_nrf52832_xxAA_s132_6.0.0.dir/__/__/__/mesh/core/src/network.c.obj
 .debug_abbrev  0x00000000000073cc      0x4a1 CMakeFiles/pb_remote_server_nrf52832_xxAA_s132_6.0.0.dir/__/__/__/mesh/core/src/net_packet.c.obj
 .debug_abbrev  0x000000000000786d      0x2e9 CMakeFiles/pb_remote_server_nrf52832_xxAA_s132_6.0.0.dir/__/__/__/mesh/core/src/msqueue.c.obj
 .debug_abbrev  0x0000000000007b56      0x156 CMakeFiles/pb_remote_server_nrf52832_xxAA_s132_6.0.0.dir/__/__/__/mesh/core/src/nrf_mesh_keygen.c.obj
 .debug_abbrev  0x0000000000007cac      0x1ec CMakeFiles/pb_remote_server_nrf52832_xxAA_s132_6.0.0.dir/__/__/__/mesh/core/src/list.c.obj
 .debug_abbrev  0x0000000000007e98      0x2b4 CMakeFiles/pb_remote_server_nrf52832_xxAA_s132_6.0.0.dir/__/__/__/mesh/core/src/log.c.obj
 .debug_abbrev  0x000000000000814c      0x538 CMakeFiles/pb_remote_server_nrf52832_xxAA_s132_6.0.0.dir/__/__/__/mesh/core/src/flash_manager.c.obj
 .debug_abbrev  0x0000000000008684      0x2f5 CMakeFiles/pb_remote_server_nrf52832_xxAA_s132_6.0.0.dir/__/__/__/mesh/core/src/ccm_soft.c.obj
 .debug_abbrev  0x0000000000008979      0x29b CMakeFiles/pb_remote_server_nrf52832_xxAA_s132_6.0.0.dir/__/__/__/mesh/core/src/replay_cache.c.obj
 .debug_abbrev  0x0000000000008c14      0x310 CMakeFiles/pb_remote_server_nrf52832_xxAA_s132_6.0.0.dir/__/__/__/mesh/core/src/beacon.c.obj
 .debug_abbrev  0x0000000000008f24      0x2a4 CMakeFiles/pb_remote_server_nrf52832_xxAA_s132_6.0.0.dir/__/__/__/mesh/core/src/flash_manager_internal.c.obj
 .debug_abbrev  0x00000000000091c8      0x2fc CMakeFiles/pb_remote_server_nrf52832_xxAA_s132_6.0.0.dir/__/__/__/mesh/core/src/core_tx.c.obj
 .debug_abbrev  0x00000000000094c4      0x4e3 CMakeFiles/pb_remote_server_nrf52832_xxAA_s132_6.0.0.dir/__/__/__/mesh/core/src/heartbeat.c.obj
 .debug_abbrev  0x00000000000099a7      0x512 CMakeFiles/pb_remote_server_nrf52832_xxAA_s132_6.0.0.dir/__/__/__/mesh/core/src/net_beacon.c.obj
 .debug_abbrev  0x0000000000009eb9      0x330 CMakeFiles/pb_remote_server_nrf52832_xxAA_s132_6.0.0.dir/__/__/__/mesh/core/src/core_tx_adv.c.obj
 .debug_abbrev  0x000000000000a1e9      0x340 CMakeFiles/pb_remote_server_nrf52832_xxAA_s132_6.0.0.dir/__/__/__/mesh/bearer/src/ad_listener.c.obj
 .debug_abbrev  0x000000000000a529      0x375 CMakeFiles/pb_remote_server_nrf52832_xxAA_s132_6.0.0.dir/__/__/__/mesh/bearer/src/ad_type_filter.c.obj
 .debug_abbrev  0x000000000000a89e      0x561 CMakeFiles/pb_remote_server_nrf52832_xxAA_s132_6.0.0.dir/__/__/__/mesh/bearer/src/advertiser.c.obj
 .debug_abbrev  0x000000000000adff      0x3fa CMakeFiles/pb_remote_server_nrf52832_xxAA_s132_6.0.0.dir/__/__/__/mesh/bearer/src/bearer_handler.c.obj
 .debug_abbrev  0x000000000000b1f9      0x3eb CMakeFiles/pb_remote_server_nrf52832_xxAA_s132_6.0.0.dir/__/__/__/mesh/bearer/src/broadcast.c.obj
 .debug_abbrev  0x000000000000b5e4      0x2af CMakeFiles/pb_remote_server_nrf52832_xxAA_s132_6.0.0.dir/__/__/__/mesh/bearer/src/filter_engine.c.obj
 .debug_abbrev  0x000000000000b893      0x1e4 CMakeFiles/pb_remote_server_nrf52832_xxAA_s132_6.0.0.dir/__/__/__/mesh/bearer/src/radio_config.c.obj
 .debug_abbrev  0x000000000000ba77      0x59f CMakeFiles/pb_remote_server_nrf52832_xxAA_s132_6.0.0.dir/__/__/__/mesh/bearer/src/scanner.c.obj
 .debug_abbrev  0x000000000000c016      0x47e CMakeFiles/pb_remote_server_nrf52832_xxAA_s132_6.0.0.dir/__/__/__/mesh/prov/src/prov_provisionee.c.obj
 .debug_abbrev  0x000000000000c494      0x450 CMakeFiles/pb_remote_server_nrf52832_xxAA_s132_6.0.0.dir/__/__/__/mesh/prov/src/nrf_mesh_prov.c.obj
 .debug_abbrev  0x000000000000c8e4      0x2e6 CMakeFiles/pb_remote_server_nrf52832_xxAA_s132_6.0.0.dir/__/__/__/mesh/prov/src/provisioning.c.obj
 .debug_abbrev  0x000000000000cbca      0x2fc CMakeFiles/pb_remote_server_nrf52832_xxAA_s132_6.0.0.dir/__/__/__/mesh/prov/src/prov_beacon.c.obj
 .debug_abbrev  0x000000000000cec6      0x3f3 CMakeFiles/pb_remote_server_nrf52832_xxAA_s132_6.0.0.dir/__/__/__/mesh/prov/src/prov_utils.c.obj
 .debug_abbrev  0x000000000000d2b9      0x55d CMakeFiles/pb_remote_server_nrf52832_xxAA_s132_6.0.0.dir/__/__/__/mesh/prov/src/prov_bearer_adv.c.obj
 .debug_abbrev  0x000000000000d816      0x515 CMakeFiles/pb_remote_server_nrf52832_xxAA_s132_6.0.0.dir/__/__/__/models/pb_remote/src/pb_remote_server.c.obj
 .debug_abbrev  0x000000000000dd2b      0x423 CMakeFiles/pb_remote_server_nrf52832_xxAA_s132_6.0.0.dir/__/__/__/mesh/access/src/access_publish.c.obj
 .debug_abbrev  0x000000000000e14e      0x66d CMakeFiles/pb_remote_server_nrf52832_xxAA_s132_6.0.0.dir/__/__/__/mesh/access/src/access.c.obj
 .debug_abbrev  0x000000000000e7bb      0x448 CMakeFiles/pb_remote_server_nrf52832_xxAA_s132_6.0.0.dir/__/__/__/mesh/access/src/access_reliable.c.obj
 .debug_abbrev  0x000000000000ec03      0x5a8 CMakeFiles/pb_remote_server_nrf52832_xxAA_s132_6.0.0.dir/__/__/__/mesh/access/src/device_state_manager.c.obj
 .debug_abbrev  0x000000000000f1ab      0x2e4 CMakeFiles/pb_remote_server_nrf52832_xxAA_s132_6.0.0.dir/__/__/__/models/config/src/composition_data.c.obj
 .debug_abbrev  0x000000000000f48f      0x56c CMakeFiles/pb_remote_server_nrf52832_xxAA_s132_6.0.0.dir/__/__/__/models/config/src/config_server.c.obj
 .debug_abbrev  0x000000000000f9fb       0x95 CMakeFiles/pb_remote_server_nrf52832_xxAA_s132_6.0.0.dir/__/__/__/models/config/src/packed_index_list.c.obj
 .debug_abbrev  0x000000000000fa90      0x505 CMakeFiles/pb_remote_server_nrf52832_xxAA_s132_6.0.0.dir/__/__/__/models/health/src/health_server.c.obj
 .debug_abbrev  0x000000000000ff95      0x1df CMakeFiles/pb_remote_server_nrf52832_xxAA_s132_6.0.0.dir/home/mazzer/work/nordic/sdk/nRF5_SDK_15.0.0/modules/nrfx/mdk/system_nrf52.c.obj
 .debug_abbrev  0x0000000000010174       0x14 CMakeFiles/pb_remote_server_nrf52832_xxAA_s132_6.0.0.dir/home/mazzer/work/nordic/sdk/nRF5_SDK_15.0.0/modules/nrfx/mdk/gcc_startup_nrf52.S.obj
 .debug_abbrev  0x0000000000010188      0x232 CMakeFiles/pb_remote_server_nrf52832_xxAA_s132_6.0.0.dir/home/mazzer/work/nordic/sdk/nRF5_SDK_15.0.0/components/libraries/util/app_error.c.obj
 .debug_abbrev  0x00000000000103ba      0x1bd CMakeFiles/pb_remote_server_nrf52832_xxAA_s132_6.0.0.dir/home/mazzer/work/nordic/sdk/nRF5_SDK_15.0.0/components/libraries/util/app_error_handler_gcc.c.obj
 .debug_abbrev  0x0000000000010577      0x3d2 ../../../external/rtt/librtt_nrf52832_xxAA.a(SEGGER_RTT.c.obj)
 .debug_abbrev  0x0000000000010949      0x353 ../../../external/rtt/librtt_nrf52832_xxAA.a(SEGGER_RTT_printf.c.obj)
 .debug_abbrev  0x0000000000010c9c      0x4e2 ../../../external/micro-ecc/libuECC_nrf52832_xxAA.a(uECC.c.obj)

.debug_loc      0x0000000000000000    0x480c5
 .debug_loc     0x0000000000000000      0x1ef CMakeFiles/pb_remote_server_nrf52832_xxAA_s132_6.0.0.dir/src/main.c.obj
 .debug_loc     0x00000000000001ef      0x1a3 CMakeFiles/pb_remote_server_nrf52832_xxAA_s132_6.0.0.dir/__/__/__/mesh/stack/src/mesh_stack.c.obj
 .debug_loc     0x0000000000000392      0x1bb CMakeFiles/pb_remote_server_nrf52832_xxAA_s132_6.0.0.dir/__/__/common/src/mesh_softdevice_init.c.obj
 .debug_loc     0x000000000000054d      0x16b CMakeFiles/pb_remote_server_nrf52832_xxAA_s132_6.0.0.dir/__/__/common/src/mesh_provisionee.c.obj
 .debug_loc     0x00000000000006b8      0x29c CMakeFiles/pb_remote_server_nrf52832_xxAA_s132_6.0.0.dir/__/__/common/src/simple_hal.c.obj
 .debug_loc     0x0000000000000954      0x1c6 CMakeFiles/pb_remote_server_nrf52832_xxAA_s132_6.0.0.dir/__/__/common/src/app_error_weak.c.obj
 .debug_loc     0x0000000000000b1a       0x2c CMakeFiles/pb_remote_server_nrf52832_xxAA_s132_6.0.0.dir/__/__/common/src/assertion_handler_weak.c.obj
 .debug_loc     0x0000000000000b46       0x2c CMakeFiles/pb_remote_server_nrf52832_xxAA_s132_6.0.0.dir/__/__/__/mesh/core/src/nrf_mesh_configure.c.obj
 .debug_loc     0x0000000000000b72       0x89 CMakeFiles/pb_remote_server_nrf52832_xxAA_s132_6.0.0.dir/__/__/__/mesh/core/src/aes.c.obj
 .debug_loc     0x0000000000000bfb       0xab CMakeFiles/pb_remote_server_nrf52832_xxAA_s132_6.0.0.dir/__/__/__/mesh/core/src/msg_cache.c.obj
 .debug_loc     0x0000000000000ca6     0x41e3 CMakeFiles/pb_remote_server_nrf52832_xxAA_s132_6.0.0.dir/__/__/__/mesh/core/src/transport.c.obj
 .debug_loc     0x0000000000004e89      0x169 CMakeFiles/pb_remote_server_nrf52832_xxAA_s132_6.0.0.dir/__/__/__/mesh/core/src/event.c.obj
 .debug_loc     0x0000000000004ff2      0xcfb CMakeFiles/pb_remote_server_nrf52832_xxAA_s132_6.0.0.dir/__/__/__/mesh/core/src/packet_buffer.c.obj
 .debug_loc     0x0000000000005ced      0xbd0 CMakeFiles/pb_remote_server_nrf52832_xxAA_s132_6.0.0.dir/__/__/__/mesh/core/src/flash_manager_defrag.c.obj
 .debug_loc     0x00000000000068bd      0x86b CMakeFiles/pb_remote_server_nrf52832_xxAA_s132_6.0.0.dir/__/__/__/mesh/core/src/fifo.c.obj
 .debug_loc     0x0000000000007128      0x194 CMakeFiles/pb_remote_server_nrf52832_xxAA_s132_6.0.0.dir/__/__/__/mesh/core/src/nrf_flash.c.obj
 .debug_loc     0x00000000000072bc      0x788 CMakeFiles/pb_remote_server_nrf52832_xxAA_s132_6.0.0.dir/__/__/__/mesh/core/src/packet_mgr.c.obj
 .debug_loc     0x0000000000007a44      0xfdf CMakeFiles/pb_remote_server_nrf52832_xxAA_s132_6.0.0.dir/__/__/__/mesh/core/src/net_state.c.obj
 .debug_loc     0x0000000000008a23      0xfd3 CMakeFiles/pb_remote_server_nrf52832_xxAA_s132_6.0.0.dir/__/__/__/mesh/core/src/mesh_flash.c.obj
 .debug_loc     0x00000000000099f6      0x185 CMakeFiles/pb_remote_server_nrf52832_xxAA_s132_6.0.0.dir/__/__/__/mesh/core/src/nrf_mesh_utils.c.obj
 .debug_loc     0x0000000000009b7b      0x6be CMakeFiles/pb_remote_server_nrf52832_xxAA_s132_6.0.0.dir/__/__/__/mesh/core/src/nrf_mesh.c.obj
 .debug_loc     0x000000000000a239      0x186 CMakeFiles/pb_remote_server_nrf52832_xxAA_s132_6.0.0.dir/__/__/__/mesh/core/src/queue.c.obj
 .debug_loc     0x000000000000a3bf       0x84 CMakeFiles/pb_remote_server_nrf52832_xxAA_s132_6.0.0.dir/__/__/__/mesh/core/src/hal.c.obj
 .debug_loc     0x000000000000a443      0xb75 CMakeFiles/pb_remote_server_nrf52832_xxAA_s132_6.0.0.dir/__/__/__/mesh/core/src/aes_cmac.c.obj
 .debug_loc     0x000000000000afb8      0x5b7 CMakeFiles/pb_remote_server_nrf52832_xxAA_s132_6.0.0.dir/__/__/__/mesh/core/src/timer_scheduler.c.obj
 .debug_loc     0x000000000000b56f      0x608 CMakeFiles/pb_remote_server_nrf52832_xxAA_s132_6.0.0.dir/__/__/__/mesh/core/src/timer.c.obj
 .debug_loc     0x000000000000bb77      0x1c5 CMakeFiles/pb_remote_server_nrf52832_xxAA_s132_6.0.0.dir/__/__/__/mesh/core/src/rand.c.obj
 .debug_loc     0x000000000000bd3c      0x194 CMakeFiles/pb_remote_server_nrf52832_xxAA_s132_6.0.0.dir/__/__/__/mesh/core/src/nrf_mesh_opt.c.obj
 .debug_loc     0x000000000000bed0      0x4f1 CMakeFiles/pb_remote_server_nrf52832_xxAA_s132_6.0.0.dir/__/__/__/mesh/core/src/timeslot.c.obj
 .debug_loc     0x000000000000c3c1      0x86e CMakeFiles/pb_remote_server_nrf52832_xxAA_s132_6.0.0.dir/__/__/__/mesh/core/src/bearer_event.c.obj
 .debug_loc     0x000000000000cc2f      0xb0d CMakeFiles/pb_remote_server_nrf52832_xxAA_s132_6.0.0.dir/__/__/__/mesh/core/src/enc.c.obj
 .debug_loc     0x000000000000d73c      0x864 CMakeFiles/pb_remote_server_nrf52832_xxAA_s132_6.0.0.dir/__/__/__/mesh/core/src/network.c.obj
 .debug_loc     0x000000000000dfa0      0x978 CMakeFiles/pb_remote_server_nrf52832_xxAA_s132_6.0.0.dir/__/__/__/mesh/core/src/net_packet.c.obj
 .debug_loc     0x000000000000e918      0x438 CMakeFiles/pb_remote_server_nrf52832_xxAA_s132_6.0.0.dir/__/__/__/mesh/core/src/msqueue.c.obj
 .debug_loc     0x000000000000ed50      0x210 CMakeFiles/pb_remote_server_nrf52832_xxAA_s132_6.0.0.dir/__/__/__/mesh/core/src/nrf_mesh_keygen.c.obj
 .debug_loc     0x000000000000ef60      0x565 CMakeFiles/pb_remote_server_nrf52832_xxAA_s132_6.0.0.dir/__/__/__/mesh/core/src/list.c.obj
 .debug_loc     0x000000000000f4c5      0x3dd CMakeFiles/pb_remote_server_nrf52832_xxAA_s132_6.0.0.dir/__/__/__/mesh/core/src/log.c.obj
 .debug_loc     0x000000000000f8a2     0x21f7 CMakeFiles/pb_remote_server_nrf52832_xxAA_s132_6.0.0.dir/__/__/__/mesh/core/src/flash_manager.c.obj
 .debug_loc     0x0000000000011a99      0xb6e CMakeFiles/pb_remote_server_nrf52832_xxAA_s132_6.0.0.dir/__/__/__/mesh/core/src/ccm_soft.c.obj
 .debug_loc     0x0000000000012607      0x16c CMakeFiles/pb_remote_server_nrf52832_xxAA_s132_6.0.0.dir/__/__/__/mesh/core/src/replay_cache.c.obj
 .debug_loc     0x0000000000012773      0x416 CMakeFiles/pb_remote_server_nrf52832_xxAA_s132_6.0.0.dir/__/__/__/mesh/core/src/beacon.c.obj
 .debug_loc     0x0000000000012b89      0x12d CMakeFiles/pb_remote_server_nrf52832_xxAA_s132_6.0.0.dir/__/__/__/mesh/core/src/flash_manager_internal.c.obj
 .debug_loc     0x0000000000012cb6      0x4c4 CMakeFiles/pb_remote_server_nrf52832_xxAA_s132_6.0.0.dir/__/__/__/mesh/core/src/core_tx.c.obj
 .debug_loc     0x000000000001317a      0x6c5 CMakeFiles/pb_remote_server_nrf52832_xxAA_s132_6.0.0.dir/__/__/__/mesh/core/src/heartbeat.c.obj
 .debug_loc     0x000000000001383f      0x6e9 CMakeFiles/pb_remote_server_nrf52832_xxAA_s132_6.0.0.dir/__/__/__/mesh/core/src/net_beacon.c.obj
 .debug_loc     0x0000000000013f28      0x3d3 CMakeFiles/pb_remote_server_nrf52832_xxAA_s132_6.0.0.dir/__/__/__/mesh/core/src/core_tx_adv.c.obj
 .debug_loc     0x00000000000142fb      0x45f CMakeFiles/pb_remote_server_nrf52832_xxAA_s132_6.0.0.dir/__/__/__/mesh/bearer/src/ad_listener.c.obj
 .debug_loc     0x000000000001475a      0x321 CMakeFiles/pb_remote_server_nrf52832_xxAA_s132_6.0.0.dir/__/__/__/mesh/bearer/src/ad_type_filter.c.obj
 .debug_loc     0x0000000000014a7b     0x12af CMakeFiles/pb_remote_server_nrf52832_xxAA_s132_6.0.0.dir/__/__/__/mesh/bearer/src/advertiser.c.obj
 .debug_loc     0x0000000000015d2a      0x394 CMakeFiles/pb_remote_server_nrf52832_xxAA_s132_6.0.0.dir/__/__/__/mesh/bearer/src/bearer_handler.c.obj
 .debug_loc     0x00000000000160be      0x30e CMakeFiles/pb_remote_server_nrf52832_xxAA_s132_6.0.0.dir/__/__/__/mesh/bearer/src/broadcast.c.obj
 .debug_loc     0x00000000000163cc      0x179 CMakeFiles/pb_remote_server_nrf52832_xxAA_s132_6.0.0.dir/__/__/__/mesh/bearer/src/filter_engine.c.obj
 .debug_loc     0x0000000000016545      0x239 CMakeFiles/pb_remote_server_nrf52832_xxAA_s132_6.0.0.dir/__/__/__/mesh/bearer/src/radio_config.c.obj
 .debug_loc     0x000000000001677e      0x899 CMakeFiles/pb_remote_server_nrf52832_xxAA_s132_6.0.0.dir/__/__/__/mesh/bearer/src/scanner.c.obj
 .debug_loc     0x0000000000017017      0xa9f CMakeFiles/pb_remote_server_nrf52832_xxAA_s132_6.0.0.dir/__/__/__/mesh/prov/src/prov_provisionee.c.obj
 .debug_loc     0x0000000000017ab6      0xaf3 CMakeFiles/pb_remote_server_nrf52832_xxAA_s132_6.0.0.dir/__/__/__/mesh/prov/src/nrf_mesh_prov.c.obj
 .debug_loc     0x00000000000185a9      0xc0a CMakeFiles/pb_remote_server_nrf52832_xxAA_s132_6.0.0.dir/__/__/__/mesh/prov/src/provisioning.c.obj
 .debug_loc     0x00000000000191b3      0x255 CMakeFiles/pb_remote_server_nrf52832_xxAA_s132_6.0.0.dir/__/__/__/mesh/prov/src/prov_beacon.c.obj
 .debug_loc     0x0000000000019408      0x492 CMakeFiles/pb_remote_server_nrf52832_xxAA_s132_6.0.0.dir/__/__/__/mesh/prov/src/prov_utils.c.obj
 .debug_loc     0x000000000001989a     0x2722 CMakeFiles/pb_remote_server_nrf52832_xxAA_s132_6.0.0.dir/__/__/__/mesh/prov/src/prov_bearer_adv.c.obj
 .debug_loc     0x000000000001bfbc     0x2985 CMakeFiles/pb_remote_server_nrf52832_xxAA_s132_6.0.0.dir/__/__/__/models/pb_remote/src/pb_remote_server.c.obj
 .debug_loc     0x000000000001e941      0x939 CMakeFiles/pb_remote_server_nrf52832_xxAA_s132_6.0.0.dir/__/__/__/mesh/access/src/access_publish.c.obj
 .debug_loc     0x000000000001f27a     0x3a15 CMakeFiles/pb_remote_server_nrf52832_xxAA_s132_6.0.0.dir/__/__/__/mesh/access/src/access.c.obj
 .debug_loc     0x0000000000022c8f      0xd3a CMakeFiles/pb_remote_server_nrf52832_xxAA_s132_6.0.0.dir/__/__/__/mesh/access/src/access_reliable.c.obj
 .debug_loc     0x00000000000239c9     0x6885 CMakeFiles/pb_remote_server_nrf52832_xxAA_s132_6.0.0.dir/__/__/__/mesh/access/src/device_state_manager.c.obj
 .debug_loc     0x000000000002a24e      0x33c CMakeFiles/pb_remote_server_nrf52832_xxAA_s132_6.0.0.dir/__/__/__/models/config/src/composition_data.c.obj
 .debug_loc     0x000000000002a58a     0xa3e3 CMakeFiles/pb_remote_server_nrf52832_xxAA_s132_6.0.0.dir/__/__/__/models/config/src/config_server.c.obj
 .debug_loc     0x000000000003496d       0xa8 CMakeFiles/pb_remote_server_nrf52832_xxAA_s132_6.0.0.dir/__/__/__/models/config/src/packed_index_list.c.obj
 .debug_loc     0x0000000000034a15     0x3724 CMakeFiles/pb_remote_server_nrf52832_xxAA_s132_6.0.0.dir/__/__/__/models/health/src/health_server.c.obj
 .debug_loc     0x0000000000038139       0xca CMakeFiles/pb_remote_server_nrf52832_xxAA_s132_6.0.0.dir/home/mazzer/work/nordic/sdk/nRF5_SDK_15.0.0/components/libraries/util/app_error.c.obj
 .debug_loc     0x0000000000038203       0x63 CMakeFiles/pb_remote_server_nrf52832_xxAA_s132_6.0.0.dir/home/mazzer/work/nordic/sdk/nRF5_SDK_15.0.0/components/libraries/util/app_error_handler_gcc.c.obj
 .debug_loc     0x0000000000038266     0x3e95 ../../../external/rtt/librtt_nrf52832_xxAA.a(SEGGER_RTT.c.obj)
 .debug_loc     0x000000000003c0fb      0xec5 ../../../external/rtt/librtt_nrf52832_xxAA.a(SEGGER_RTT_printf.c.obj)
 .debug_loc     0x000000000003cfc0     0xb105 ../../../external/micro-ecc/libuECC_nrf52832_xxAA.a(uECC.c.obj)

.debug_aranges  0x0000000000000000     0x1ed0
 .debug_aranges
                0x0000000000000000       0x38 CMakeFiles/pb_remote_server_nrf52832_xxAA_s132_6.0.0.dir/src/main.c.obj
 .debug_aranges
                0x0000000000000038       0x50 CMakeFiles/pb_remote_server_nrf52832_xxAA_s132_6.0.0.dir/__/__/__/mesh/stack/src/mesh_stack.c.obj
 .debug_aranges
                0x0000000000000088       0x40 CMakeFiles/pb_remote_server_nrf52832_xxAA_s132_6.0.0.dir/__/__/common/src/mesh_softdevice_init.c.obj
 .debug_aranges
                0x00000000000000c8       0x28 CMakeFiles/pb_remote_server_nrf52832_xxAA_s132_6.0.0.dir/__/__/common/src/mesh_provisionee.c.obj
 .debug_aranges
                0x00000000000000f0       0x50 CMakeFiles/pb_remote_server_nrf52832_xxAA_s132_6.0.0.dir/__/__/common/src/simple_hal.c.obj
 .debug_aranges
                0x0000000000000140       0x28 CMakeFiles/pb_remote_server_nrf52832_xxAA_s132_6.0.0.dir/__/__/nrf_mesh_weak.c.obj
 .debug_aranges
                0x0000000000000168       0x20 CMakeFiles/pb_remote_server_nrf52832_xxAA_s132_6.0.0.dir/__/__/common/src/app_error_weak.c.obj
 .debug_aranges
                0x0000000000000188       0x20 CMakeFiles/pb_remote_server_nrf52832_xxAA_s132_6.0.0.dir/__/__/common/src/assertion_handler_weak.c.obj
 .debug_aranges
                0x00000000000001a8       0x30 CMakeFiles/pb_remote_server_nrf52832_xxAA_s132_6.0.0.dir/__/__/__/mesh/core/src/nrf_mesh_configure.c.obj
 .debug_aranges
                0x00000000000001d8       0x28 CMakeFiles/pb_remote_server_nrf52832_xxAA_s132_6.0.0.dir/__/__/__/mesh/core/src/aes.c.obj
 .debug_aranges
                0x0000000000000200       0x38 CMakeFiles/pb_remote_server_nrf52832_xxAA_s132_6.0.0.dir/__/__/__/mesh/core/src/msg_cache.c.obj
 .debug_aranges
                0x0000000000000238       0xc0 CMakeFiles/pb_remote_server_nrf52832_xxAA_s132_6.0.0.dir/__/__/__/mesh/core/src/transport.c.obj
 .debug_aranges
                0x00000000000002f8       0x30 CMakeFiles/pb_remote_server_nrf52832_xxAA_s132_6.0.0.dir/__/__/__/mesh/core/src/event.c.obj
 .debug_aranges
                0x0000000000000328       0x60 CMakeFiles/pb_remote_server_nrf52832_xxAA_s132_6.0.0.dir/__/__/__/mesh/core/src/packet_buffer.c.obj
 .debug_aranges
                0x0000000000000388       0xa0 CMakeFiles/pb_remote_server_nrf52832_xxAA_s132_6.0.0.dir/__/__/__/mesh/core/src/flash_manager_defrag.c.obj
 .debug_aranges
                0x0000000000000428       0x60 CMakeFiles/pb_remote_server_nrf52832_xxAA_s132_6.0.0.dir/__/__/__/mesh/core/src/fifo.c.obj
 .debug_aranges
                0x0000000000000488       0x28 CMakeFiles/pb_remote_server_nrf52832_xxAA_s132_6.0.0.dir/__/__/__/mesh/core/src/nrf_flash.c.obj
 .debug_aranges
                0x00000000000004b0       0x48 CMakeFiles/pb_remote_server_nrf52832_xxAA_s132_6.0.0.dir/__/__/__/mesh/core/src/packet_mgr.c.obj
 .debug_aranges
                0x00000000000004f8       0xd0 CMakeFiles/pb_remote_server_nrf52832_xxAA_s132_6.0.0.dir/__/__/__/mesh/core/src/net_state.c.obj
 .debug_aranges
                0x00000000000005c8       0x58 CMakeFiles/pb_remote_server_nrf52832_xxAA_s132_6.0.0.dir/__/__/__/mesh/core/src/mesh_flash.c.obj
 .debug_aranges
                0x0000000000000620       0x30 CMakeFiles/pb_remote_server_nrf52832_xxAA_s132_6.0.0.dir/__/__/__/mesh/core/src/nrf_mesh_utils.c.obj
 .debug_aranges
                0x0000000000000650       0x90 CMakeFiles/pb_remote_server_nrf52832_xxAA_s132_6.0.0.dir/__/__/__/mesh/core/src/nrf_mesh.c.obj
 .debug_aranges
                0x00000000000006e0       0x38 CMakeFiles/pb_remote_server_nrf52832_xxAA_s132_6.0.0.dir/__/__/__/mesh/core/src/queue.c.obj
 .debug_aranges
                0x0000000000000718       0x38 CMakeFiles/pb_remote_server_nrf52832_xxAA_s132_6.0.0.dir/__/__/__/mesh/core/src/hal.c.obj
 .debug_aranges
                0x0000000000000750       0x28 CMakeFiles/pb_remote_server_nrf52832_xxAA_s132_6.0.0.dir/__/__/__/mesh/core/src/aes_cmac.c.obj
 .debug_aranges
                0x0000000000000778       0x50 CMakeFiles/pb_remote_server_nrf52832_xxAA_s132_6.0.0.dir/__/__/__/mesh/core/src/timer_scheduler.c.obj
 .debug_aranges
                0x00000000000007c8       0x58 CMakeFiles/pb_remote_server_nrf52832_xxAA_s132_6.0.0.dir/__/__/__/mesh/core/src/timer.c.obj
 .debug_aranges
                0x0000000000000820       0x30 CMakeFiles/pb_remote_server_nrf52832_xxAA_s132_6.0.0.dir/__/__/__/mesh/core/src/ticker.c.obj
 .debug_aranges
                0x0000000000000850       0x40 CMakeFiles/pb_remote_server_nrf52832_xxAA_s132_6.0.0.dir/__/__/__/mesh/core/src/rand.c.obj
 .debug_aranges
                0x0000000000000890       0x28 CMakeFiles/pb_remote_server_nrf52832_xxAA_s132_6.0.0.dir/__/__/__/mesh/core/src/nrf_mesh_opt.c.obj
 .debug_aranges
                0x00000000000008b8       0xa8 CMakeFiles/pb_remote_server_nrf52832_xxAA_s132_6.0.0.dir/__/__/__/mesh/core/src/timeslot.c.obj
 .debug_aranges
                0x0000000000000960       0x88 CMakeFiles/pb_remote_server_nrf52832_xxAA_s132_6.0.0.dir/__/__/__/mesh/core/src/bearer_event.c.obj
 .debug_aranges
                0x00000000000009e8       0x70 CMakeFiles/pb_remote_server_nrf52832_xxAA_s132_6.0.0.dir/__/__/__/mesh/core/src/enc.c.obj
 .debug_aranges
                0x0000000000000a58       0x50 CMakeFiles/pb_remote_server_nrf52832_xxAA_s132_6.0.0.dir/__/__/__/mesh/core/src/network.c.obj
 .debug_aranges
                0x0000000000000aa8       0x58 CMakeFiles/pb_remote_server_nrf52832_xxAA_s132_6.0.0.dir/__/__/__/mesh/core/src/net_packet.c.obj
 .debug_aranges
                0x0000000000000b00       0x40 CMakeFiles/pb_remote_server_nrf52832_xxAA_s132_6.0.0.dir/__/__/__/mesh/core/src/msqueue.c.obj
 .debug_aranges
                0x0000000000000b40       0x40 CMakeFiles/pb_remote_server_nrf52832_xxAA_s132_6.0.0.dir/__/__/__/mesh/core/src/nrf_mesh_keygen.c.obj
 .debug_aranges
                0x0000000000000b80       0x40 CMakeFiles/pb_remote_server_nrf52832_xxAA_s132_6.0.0.dir/__/__/__/mesh/core/src/list.c.obj
 .debug_aranges
                0x0000000000000bc0       0x48 CMakeFiles/pb_remote_server_nrf52832_xxAA_s132_6.0.0.dir/__/__/__/mesh/core/src/log.c.obj
 .debug_aranges
                0x0000000000000c08       0xa0 CMakeFiles/pb_remote_server_nrf52832_xxAA_s132_6.0.0.dir/__/__/__/mesh/core/src/flash_manager.c.obj
 .debug_aranges
                0x0000000000000ca8       0x38 CMakeFiles/pb_remote_server_nrf52832_xxAA_s132_6.0.0.dir/__/__/__/mesh/core/src/ccm_soft.c.obj
 .debug_aranges
                0x0000000000000ce0       0x38 CMakeFiles/pb_remote_server_nrf52832_xxAA_s132_6.0.0.dir/__/__/__/mesh/core/src/replay_cache.c.obj
 .debug_aranges
                0x0000000000000d18       0x28 CMakeFiles/pb_remote_server_nrf52832_xxAA_s132_6.0.0.dir/__/__/__/mesh/core/src/beacon.c.obj
 .debug_aranges
                0x0000000000000d40       0x20 CMakeFiles/pb_remote_server_nrf52832_xxAA_s132_6.0.0.dir/__/__/__/mesh/core/src/flash_manager_internal.c.obj
 .debug_aranges
                0x0000000000000d60       0x58 CMakeFiles/pb_remote_server_nrf52832_xxAA_s132_6.0.0.dir/__/__/__/mesh/core/src/core_tx.c.obj
 .debug_aranges
                0x0000000000000db8       0x70 CMakeFiles/pb_remote_server_nrf52832_xxAA_s132_6.0.0.dir/__/__/__/mesh/core/src/heartbeat.c.obj
 .debug_aranges
                0x0000000000000e28       0x58 CMakeFiles/pb_remote_server_nrf52832_xxAA_s132_6.0.0.dir/__/__/__/mesh/core/src/net_beacon.c.obj
 .debug_aranges
                0x0000000000000e80       0x68 CMakeFiles/pb_remote_server_nrf52832_xxAA_s132_6.0.0.dir/__/__/__/mesh/core/src/core_tx_adv.c.obj
 .debug_aranges
                0x0000000000000ee8       0x30 CMakeFiles/pb_remote_server_nrf52832_xxAA_s132_6.0.0.dir/__/__/__/mesh/bearer/src/ad_listener.c.obj
 .debug_aranges
                0x0000000000000f18       0x58 CMakeFiles/pb_remote_server_nrf52832_xxAA_s132_6.0.0.dir/__/__/__/mesh/bearer/src/ad_type_filter.c.obj
 .debug_aranges
                0x0000000000000f70       0xa0 CMakeFiles/pb_remote_server_nrf52832_xxAA_s132_6.0.0.dir/__/__/__/mesh/bearer/src/advertiser.c.obj
 .debug_aranges
                0x0000000000001010       0x70 CMakeFiles/pb_remote_server_nrf52832_xxAA_s132_6.0.0.dir/__/__/__/mesh/bearer/src/bearer_handler.c.obj
 .debug_aranges
                0x0000000000001080       0x30 CMakeFiles/pb_remote_server_nrf52832_xxAA_s132_6.0.0.dir/__/__/__/mesh/bearer/src/broadcast.c.obj
 .debug_aranges
                0x00000000000010b0       0x38 CMakeFiles/pb_remote_server_nrf52832_xxAA_s132_6.0.0.dir/__/__/__/mesh/bearer/src/filter_engine.c.obj
 .debug_aranges
                0x00000000000010e8       0x40 CMakeFiles/pb_remote_server_nrf52832_xxAA_s132_6.0.0.dir/__/__/__/mesh/bearer/src/radio_config.c.obj
 .debug_aranges
                0x0000000000001128       0xb8 CMakeFiles/pb_remote_server_nrf52832_xxAA_s132_6.0.0.dir/__/__/__/mesh/bearer/src/scanner.c.obj
 .debug_aranges
                0x00000000000011e0       0x60 CMakeFiles/pb_remote_server_nrf52832_xxAA_s132_6.0.0.dir/__/__/__/mesh/prov/src/prov_provisionee.c.obj
 .debug_aranges
                0x0000000000001240       0x80 CMakeFiles/pb_remote_server_nrf52832_xxAA_s132_6.0.0.dir/__/__/__/mesh/prov/src/nrf_mesh_prov.c.obj
 .debug_aranges
                0x00000000000012c0       0x78 CMakeFiles/pb_remote_server_nrf52832_xxAA_s132_6.0.0.dir/__/__/__/mesh/prov/src/provisioning.c.obj
 .debug_aranges
                0x0000000000001338       0x38 CMakeFiles/pb_remote_server_nrf52832_xxAA_s132_6.0.0.dir/__/__/__/mesh/prov/src/prov_beacon.c.obj
 .debug_aranges
                0x0000000000001370       0x60 CMakeFiles/pb_remote_server_nrf52832_xxAA_s132_6.0.0.dir/__/__/__/mesh/prov/src/prov_utils.c.obj
 .debug_aranges
                0x00000000000013d0       0xa0 CMakeFiles/pb_remote_server_nrf52832_xxAA_s132_6.0.0.dir/__/__/__/mesh/prov/src/prov_bearer_adv.c.obj
 .debug_aranges
                0x0000000000001470      0x100 CMakeFiles/pb_remote_server_nrf52832_xxAA_s132_6.0.0.dir/__/__/__/models/pb_remote/src/pb_remote_server.c.obj
 .debug_aranges
                0x0000000000001570       0x40 CMakeFiles/pb_remote_server_nrf52832_xxAA_s132_6.0.0.dir/__/__/__/mesh/access/src/access_publish.c.obj
 .debug_aranges
                0x00000000000015b0      0x180 CMakeFiles/pb_remote_server_nrf52832_xxAA_s132_6.0.0.dir/__/__/__/mesh/access/src/access.c.obj
 .debug_aranges
                0x0000000000001730       0x50 CMakeFiles/pb_remote_server_nrf52832_xxAA_s132_6.0.0.dir/__/__/__/mesh/access/src/access_reliable.c.obj
 .debug_aranges
                0x0000000000001780      0x250 CMakeFiles/pb_remote_server_nrf52832_xxAA_s132_6.0.0.dir/__/__/__/mesh/access/src/device_state_manager.c.obj
 .debug_aranges
                0x00000000000019d0       0x20 CMakeFiles/pb_remote_server_nrf52832_xxAA_s132_6.0.0.dir/__/__/__/models/config/src/composition_data.c.obj
 .debug_aranges
                0x00000000000019f0      0x1b0 CMakeFiles/pb_remote_server_nrf52832_xxAA_s132_6.0.0.dir/__/__/__/models/config/src/config_server.c.obj
 .debug_aranges
                0x0000000000001ba0       0x20 CMakeFiles/pb_remote_server_nrf52832_xxAA_s132_6.0.0.dir/__/__/__/models/config/src/packed_index_list.c.obj
 .debug_aranges
                0x0000000000001bc0       0xa0 CMakeFiles/pb_remote_server_nrf52832_xxAA_s132_6.0.0.dir/__/__/__/models/health/src/health_server.c.obj
 .debug_aranges
                0x0000000000001c60       0x28 CMakeFiles/pb_remote_server_nrf52832_xxAA_s132_6.0.0.dir/home/mazzer/work/nordic/sdk/nRF5_SDK_15.0.0/modules/nrfx/mdk/system_nrf52.c.obj
 .debug_aranges
                0x0000000000001c88       0x20 CMakeFiles/pb_remote_server_nrf52832_xxAA_s132_6.0.0.dir/home/mazzer/work/nordic/sdk/nRF5_SDK_15.0.0/modules/nrfx/mdk/gcc_startup_nrf52.S.obj
 .debug_aranges
                0x0000000000001ca8       0x28 CMakeFiles/pb_remote_server_nrf52832_xxAA_s132_6.0.0.dir/home/mazzer/work/nordic/sdk/nRF5_SDK_15.0.0/components/libraries/util/app_error.c.obj
 .debug_aranges
                0x0000000000001cd0       0x20 CMakeFiles/pb_remote_server_nrf52832_xxAA_s132_6.0.0.dir/home/mazzer/work/nordic/sdk/nRF5_SDK_15.0.0/components/libraries/util/app_error_handler_gcc.c.obj
 .debug_aranges
                0x0000000000001cf0       0xb0 ../../../external/rtt/librtt_nrf52832_xxAA.a(SEGGER_RTT.c.obj)
 .debug_aranges
                0x0000000000001da0       0x30 ../../../external/rtt/librtt_nrf52832_xxAA.a(SEGGER_RTT_printf.c.obj)
 .debug_aranges
                0x0000000000001dd0      0x100 ../../../external/micro-ecc/libuECC_nrf52832_xxAA.a(uECC.c.obj)

.debug_ranges   0x0000000000000000     0xd738
 .debug_ranges  0x0000000000000000      0x248 CMakeFiles/pb_remote_server_nrf52832_xxAA_s132_6.0.0.dir/src/main.c.obj
 .debug_ranges  0x0000000000000248       0x88 CMakeFiles/pb_remote_server_nrf52832_xxAA_s132_6.0.0.dir/__/__/__/mesh/stack/src/mesh_stack.c.obj
 .debug_ranges  0x00000000000002d0       0xe8 CMakeFiles/pb_remote_server_nrf52832_xxAA_s132_6.0.0.dir/__/__/common/src/mesh_softdevice_init.c.obj
 .debug_ranges  0x00000000000003b8       0x90 CMakeFiles/pb_remote_server_nrf52832_xxAA_s132_6.0.0.dir/__/__/common/src/mesh_provisionee.c.obj
 .debug_ranges  0x0000000000000448       0xc0 CMakeFiles/pb_remote_server_nrf52832_xxAA_s132_6.0.0.dir/__/__/common/src/simple_hal.c.obj
 .debug_ranges  0x0000000000000508       0x18 CMakeFiles/pb_remote_server_nrf52832_xxAA_s132_6.0.0.dir/__/__/nrf_mesh_weak.c.obj
 .debug_ranges  0x0000000000000520       0xc8 CMakeFiles/pb_remote_server_nrf52832_xxAA_s132_6.0.0.dir/__/__/common/src/app_error_weak.c.obj
 .debug_ranges  0x00000000000005e8       0x10 CMakeFiles/pb_remote_server_nrf52832_xxAA_s132_6.0.0.dir/__/__/common/src/assertion_handler_weak.c.obj
 .debug_ranges  0x00000000000005f8       0x20 CMakeFiles/pb_remote_server_nrf52832_xxAA_s132_6.0.0.dir/__/__/__/mesh/core/src/nrf_mesh_configure.c.obj
 .debug_ranges  0x0000000000000618       0x18 CMakeFiles/pb_remote_server_nrf52832_xxAA_s132_6.0.0.dir/__/__/__/mesh/core/src/aes.c.obj
 .debug_ranges  0x0000000000000630       0x40 CMakeFiles/pb_remote_server_nrf52832_xxAA_s132_6.0.0.dir/__/__/__/mesh/core/src/msg_cache.c.obj
 .debug_ranges  0x0000000000000670      0xf08 CMakeFiles/pb_remote_server_nrf52832_xxAA_s132_6.0.0.dir/__/__/__/mesh/core/src/transport.c.obj
 .debug_ranges  0x0000000000001578       0x20 CMakeFiles/pb_remote_server_nrf52832_xxAA_s132_6.0.0.dir/__/__/__/mesh/core/src/event.c.obj
 .debug_ranges  0x0000000000001598      0x118 CMakeFiles/pb_remote_server_nrf52832_xxAA_s132_6.0.0.dir/__/__/__/mesh/core/src/packet_buffer.c.obj
 .debug_ranges  0x00000000000016b0      0x4c8 CMakeFiles/pb_remote_server_nrf52832_xxAA_s132_6.0.0.dir/__/__/__/mesh/core/src/flash_manager_defrag.c.obj
 .debug_ranges  0x0000000000001b78       0xc0 CMakeFiles/pb_remote_server_nrf52832_xxAA_s132_6.0.0.dir/__/__/__/mesh/core/src/fifo.c.obj
 .debug_ranges  0x0000000000001c38       0x30 CMakeFiles/pb_remote_server_nrf52832_xxAA_s132_6.0.0.dir/__/__/__/mesh/core/src/nrf_flash.c.obj
 .debug_ranges  0x0000000000001c68       0xe8 CMakeFiles/pb_remote_server_nrf52832_xxAA_s132_6.0.0.dir/__/__/__/mesh/core/src/packet_mgr.c.obj
 .debug_ranges  0x0000000000001d50      0x868 CMakeFiles/pb_remote_server_nrf52832_xxAA_s132_6.0.0.dir/__/__/__/mesh/core/src/net_state.c.obj
 .debug_ranges  0x00000000000025b8      0x300 CMakeFiles/pb_remote_server_nrf52832_xxAA_s132_6.0.0.dir/__/__/__/mesh/core/src/mesh_flash.c.obj
 .debug_ranges  0x00000000000028b8       0x20 CMakeFiles/pb_remote_server_nrf52832_xxAA_s132_6.0.0.dir/__/__/__/mesh/core/src/nrf_mesh_utils.c.obj
 .debug_ranges  0x00000000000028d8      0x150 CMakeFiles/pb_remote_server_nrf52832_xxAA_s132_6.0.0.dir/__/__/__/mesh/core/src/nrf_mesh.c.obj
 .debug_ranges  0x0000000000002a28       0x28 CMakeFiles/pb_remote_server_nrf52832_xxAA_s132_6.0.0.dir/__/__/__/mesh/core/src/queue.c.obj
 .debug_ranges  0x0000000000002a50       0x28 CMakeFiles/pb_remote_server_nrf52832_xxAA_s132_6.0.0.dir/__/__/__/mesh/core/src/hal.c.obj
 .debug_ranges  0x0000000000002a78      0x150 CMakeFiles/pb_remote_server_nrf52832_xxAA_s132_6.0.0.dir/__/__/__/mesh/core/src/aes_cmac.c.obj
 .debug_ranges  0x0000000000002bc8      0x288 CMakeFiles/pb_remote_server_nrf52832_xxAA_s132_6.0.0.dir/__/__/__/mesh/core/src/timer_scheduler.c.obj
 .debug_ranges  0x0000000000002e50      0x178 CMakeFiles/pb_remote_server_nrf52832_xxAA_s132_6.0.0.dir/__/__/__/mesh/core/src/timer.c.obj
 .debug_ranges  0x0000000000002fc8       0x20 CMakeFiles/pb_remote_server_nrf52832_xxAA_s132_6.0.0.dir/__/__/__/mesh/core/src/ticker.c.obj
 .debug_ranges  0x0000000000002fe8       0x48 CMakeFiles/pb_remote_server_nrf52832_xxAA_s132_6.0.0.dir/__/__/__/mesh/core/src/rand.c.obj
 .debug_ranges  0x0000000000003030       0x18 CMakeFiles/pb_remote_server_nrf52832_xxAA_s132_6.0.0.dir/__/__/__/mesh/core/src/nrf_mesh_opt.c.obj
 .debug_ranges  0x0000000000003048      0x250 CMakeFiles/pb_remote_server_nrf52832_xxAA_s132_6.0.0.dir/__/__/__/mesh/core/src/timeslot.c.obj
 .debug_ranges  0x0000000000003298      0x288 CMakeFiles/pb_remote_server_nrf52832_xxAA_s132_6.0.0.dir/__/__/__/mesh/core/src/bearer_event.c.obj
 .debug_ranges  0x0000000000003520      0x1b8 CMakeFiles/pb_remote_server_nrf52832_xxAA_s132_6.0.0.dir/__/__/__/mesh/core/src/enc.c.obj
 .debug_ranges  0x00000000000036d8      0x1b8 CMakeFiles/pb_remote_server_nrf52832_xxAA_s132_6.0.0.dir/__/__/__/mesh/core/src/network.c.obj
 .debug_ranges  0x0000000000003890      0x208 CMakeFiles/pb_remote_server_nrf52832_xxAA_s132_6.0.0.dir/__/__/__/mesh/core/src/net_packet.c.obj
 .debug_ranges  0x0000000000003a98       0x78 CMakeFiles/pb_remote_server_nrf52832_xxAA_s132_6.0.0.dir/__/__/__/mesh/core/src/msqueue.c.obj
 .debug_ranges  0x0000000000003b10       0x30 CMakeFiles/pb_remote_server_nrf52832_xxAA_s132_6.0.0.dir/__/__/__/mesh/core/src/nrf_mesh_keygen.c.obj
 .debug_ranges  0x0000000000003b40       0xf0 CMakeFiles/pb_remote_server_nrf52832_xxAA_s132_6.0.0.dir/__/__/__/mesh/core/src/list.c.obj
 .debug_ranges  0x0000000000003c30       0x58 CMakeFiles/pb_remote_server_nrf52832_xxAA_s132_6.0.0.dir/__/__/__/mesh/core/src/log.c.obj
 .debug_ranges  0x0000000000003c88      0xc18 CMakeFiles/pb_remote_server_nrf52832_xxAA_s132_6.0.0.dir/__/__/__/mesh/core/src/flash_manager.c.obj
 .debug_ranges  0x00000000000048a0       0xf8 CMakeFiles/pb_remote_server_nrf52832_xxAA_s132_6.0.0.dir/__/__/__/mesh/core/src/ccm_soft.c.obj
 .debug_ranges  0x0000000000004998       0x48 CMakeFiles/pb_remote_server_nrf52832_xxAA_s132_6.0.0.dir/__/__/__/mesh/core/src/replay_cache.c.obj
 .debug_ranges  0x00000000000049e0       0x90 CMakeFiles/pb_remote_server_nrf52832_xxAA_s132_6.0.0.dir/__/__/__/mesh/core/src/beacon.c.obj
 .debug_ranges  0x0000000000004a70       0x30 CMakeFiles/pb_remote_server_nrf52832_xxAA_s132_6.0.0.dir/__/__/__/mesh/core/src/flash_manager_internal.c.obj
 .debug_ranges  0x0000000000004aa0       0xc0 CMakeFiles/pb_remote_server_nrf52832_xxAA_s132_6.0.0.dir/__/__/__/mesh/core/src/core_tx.c.obj
 .debug_ranges  0x0000000000004b60      0x120 CMakeFiles/pb_remote_server_nrf52832_xxAA_s132_6.0.0.dir/__/__/__/mesh/core/src/heartbeat.c.obj
 .debug_ranges  0x0000000000004c80      0x1b8 CMakeFiles/pb_remote_server_nrf52832_xxAA_s132_6.0.0.dir/__/__/__/mesh/core/src/net_beacon.c.obj
 .debug_ranges  0x0000000000004e38       0x58 CMakeFiles/pb_remote_server_nrf52832_xxAA_s132_6.0.0.dir/__/__/__/mesh/core/src/core_tx_adv.c.obj
 .debug_ranges  0x0000000000004e90      0x118 CMakeFiles/pb_remote_server_nrf52832_xxAA_s132_6.0.0.dir/__/__/__/mesh/bearer/src/ad_listener.c.obj
 .debug_ranges  0x0000000000004fa8       0xc8 CMakeFiles/pb_remote_server_nrf52832_xxAA_s132_6.0.0.dir/__/__/__/mesh/bearer/src/ad_type_filter.c.obj
 .debug_ranges  0x0000000000005070      0x478 CMakeFiles/pb_remote_server_nrf52832_xxAA_s132_6.0.0.dir/__/__/__/mesh/bearer/src/advertiser.c.obj
 .debug_ranges  0x00000000000054e8      0x188 CMakeFiles/pb_remote_server_nrf52832_xxAA_s132_6.0.0.dir/__/__/__/mesh/bearer/src/bearer_handler.c.obj
 .debug_ranges  0x0000000000005670       0xa0 CMakeFiles/pb_remote_server_nrf52832_xxAA_s132_6.0.0.dir/__/__/__/mesh/bearer/src/broadcast.c.obj
 .debug_ranges  0x0000000000005710       0x28 CMakeFiles/pb_remote_server_nrf52832_xxAA_s132_6.0.0.dir/__/__/__/mesh/bearer/src/filter_engine.c.obj
 .debug_ranges  0x0000000000005738       0x48 CMakeFiles/pb_remote_server_nrf52832_xxAA_s132_6.0.0.dir/__/__/__/mesh/bearer/src/radio_config.c.obj
 .debug_ranges  0x0000000000005780      0x400 CMakeFiles/pb_remote_server_nrf52832_xxAA_s132_6.0.0.dir/__/__/__/mesh/bearer/src/scanner.c.obj
 .debug_ranges  0x0000000000005b80      0x1b0 CMakeFiles/pb_remote_server_nrf52832_xxAA_s132_6.0.0.dir/__/__/__/mesh/prov/src/prov_provisionee.c.obj
 .debug_ranges  0x0000000000005d30      0x140 CMakeFiles/pb_remote_server_nrf52832_xxAA_s132_6.0.0.dir/__/__/__/mesh/prov/src/nrf_mesh_prov.c.obj
 .debug_ranges  0x0000000000005e70      0x170 CMakeFiles/pb_remote_server_nrf52832_xxAA_s132_6.0.0.dir/__/__/__/mesh/prov/src/provisioning.c.obj
 .debug_ranges  0x0000000000005fe0       0x40 CMakeFiles/pb_remote_server_nrf52832_xxAA_s132_6.0.0.dir/__/__/__/mesh/prov/src/prov_beacon.c.obj
 .debug_ranges  0x0000000000006020       0x88 CMakeFiles/pb_remote_server_nrf52832_xxAA_s132_6.0.0.dir/__/__/__/mesh/prov/src/prov_utils.c.obj
 .debug_ranges  0x00000000000060a8      0x9c8 CMakeFiles/pb_remote_server_nrf52832_xxAA_s132_6.0.0.dir/__/__/__/mesh/prov/src/prov_bearer_adv.c.obj
 .debug_ranges  0x0000000000006a70      0xa38 CMakeFiles/pb_remote_server_nrf52832_xxAA_s132_6.0.0.dir/__/__/__/models/pb_remote/src/pb_remote_server.c.obj
 .debug_ranges  0x00000000000074a8      0x318 CMakeFiles/pb_remote_server_nrf52832_xxAA_s132_6.0.0.dir/__/__/__/mesh/access/src/access_publish.c.obj
 .debug_ranges  0x00000000000077c0      0xc80 CMakeFiles/pb_remote_server_nrf52832_xxAA_s132_6.0.0.dir/__/__/__/mesh/access/src/access.c.obj
 .debug_ranges  0x0000000000008440      0x260 CMakeFiles/pb_remote_server_nrf52832_xxAA_s132_6.0.0.dir/__/__/__/mesh/access/src/access_reliable.c.obj
 .debug_ranges  0x00000000000086a0     0x1798 CMakeFiles/pb_remote_server_nrf52832_xxAA_s132_6.0.0.dir/__/__/__/mesh/access/src/device_state_manager.c.obj
 .debug_ranges  0x0000000000009e38       0xa8 CMakeFiles/pb_remote_server_nrf52832_xxAA_s132_6.0.0.dir/__/__/__/models/config/src/composition_data.c.obj
 .debug_ranges  0x0000000000009ee0     0x15c8 CMakeFiles/pb_remote_server_nrf52832_xxAA_s132_6.0.0.dir/__/__/__/models/config/src/config_server.c.obj
 .debug_ranges  0x000000000000b4a8       0x10 CMakeFiles/pb_remote_server_nrf52832_xxAA_s132_6.0.0.dir/__/__/__/models/config/src/packed_index_list.c.obj
 .debug_ranges  0x000000000000b4b8      0x6c8 CMakeFiles/pb_remote_server_nrf52832_xxAA_s132_6.0.0.dir/__/__/__/models/health/src/health_server.c.obj
 .debug_ranges  0x000000000000bb80      0x168 CMakeFiles/pb_remote_server_nrf52832_xxAA_s132_6.0.0.dir/home/mazzer/work/nordic/sdk/nRF5_SDK_15.0.0/modules/nrfx/mdk/system_nrf52.c.obj
 .debug_ranges  0x000000000000bce8       0x18 CMakeFiles/pb_remote_server_nrf52832_xxAA_s132_6.0.0.dir/home/mazzer/work/nordic/sdk/nRF5_SDK_15.0.0/components/libraries/util/app_error.c.obj
 .debug_ranges  0x000000000000bd00       0x10 CMakeFiles/pb_remote_server_nrf52832_xxAA_s132_6.0.0.dir/home/mazzer/work/nordic/sdk/nRF5_SDK_15.0.0/components/libraries/util/app_error_handler_gcc.c.obj
 .debug_ranges  0x000000000000bd10      0x5d8 ../../../external/rtt/librtt_nrf52832_xxAA.a(SEGGER_RTT.c.obj)
 .debug_ranges  0x000000000000c2e8      0x1b8 ../../../external/rtt/librtt_nrf52832_xxAA.a(SEGGER_RTT_printf.c.obj)
 .debug_ranges  0x000000000000c4a0     0x1298 ../../../external/micro-ecc/libuECC_nrf52832_xxAA.a(uECC.c.obj)

.debug_line     0x0000000000000000    0x20a90
 .debug_line    0x0000000000000000      0xa85 CMakeFiles/pb_remote_server_nrf52832_xxAA_s132_6.0.0.dir/src/main.c.obj
 .debug_line    0x0000000000000a85      0x6a9 CMakeFiles/pb_remote_server_nrf52832_xxAA_s132_6.0.0.dir/__/__/__/mesh/stack/src/mesh_stack.c.obj
 .debug_line    0x000000000000112e      0x49c CMakeFiles/pb_remote_server_nrf52832_xxAA_s132_6.0.0.dir/__/__/common/src/mesh_softdevice_init.c.obj
 .debug_line    0x00000000000015ca      0x6ff CMakeFiles/pb_remote_server_nrf52832_xxAA_s132_6.0.0.dir/__/__/common/src/mesh_provisionee.c.obj
 .debug_line    0x0000000000001cc9      0x572 CMakeFiles/pb_remote_server_nrf52832_xxAA_s132_6.0.0.dir/__/__/common/src/simple_hal.c.obj
 .debug_line    0x000000000000223b      0x24f CMakeFiles/pb_remote_server_nrf52832_xxAA_s132_6.0.0.dir/__/__/nrf_mesh_weak.c.obj
 .debug_line    0x000000000000248a      0x4e6 CMakeFiles/pb_remote_server_nrf52832_xxAA_s132_6.0.0.dir/__/__/common/src/app_error_weak.c.obj
 .debug_line    0x0000000000002970      0x272 CMakeFiles/pb_remote_server_nrf52832_xxAA_s132_6.0.0.dir/__/__/common/src/assertion_handler_weak.c.obj
 .debug_line    0x0000000000002be2      0x24a CMakeFiles/pb_remote_server_nrf52832_xxAA_s132_6.0.0.dir/__/__/__/mesh/core/src/nrf_mesh_configure.c.obj
 .debug_line    0x0000000000002e2c      0x282 CMakeFiles/pb_remote_server_nrf52832_xxAA_s132_6.0.0.dir/__/__/__/mesh/core/src/aes.c.obj
 .debug_line    0x00000000000030ae      0x2bf CMakeFiles/pb_remote_server_nrf52832_xxAA_s132_6.0.0.dir/__/__/__/mesh/core/src/msg_cache.c.obj
 .debug_line    0x000000000000336d     0x1258 CMakeFiles/pb_remote_server_nrf52832_xxAA_s132_6.0.0.dir/__/__/__/mesh/core/src/transport.c.obj
 .debug_line    0x00000000000045c5      0x3df CMakeFiles/pb_remote_server_nrf52832_xxAA_s132_6.0.0.dir/__/__/__/mesh/core/src/event.c.obj
 .debug_line    0x00000000000049a4      0x55a CMakeFiles/pb_remote_server_nrf52832_xxAA_s132_6.0.0.dir/__/__/__/mesh/core/src/packet_buffer.c.obj
 .debug_line    0x0000000000004efe      0x8ba CMakeFiles/pb_remote_server_nrf52832_xxAA_s132_6.0.0.dir/__/__/__/mesh/core/src/flash_manager_defrag.c.obj
 .debug_line    0x00000000000057b8      0x468 CMakeFiles/pb_remote_server_nrf52832_xxAA_s132_6.0.0.dir/__/__/__/mesh/core/src/fifo.c.obj
 .debug_line    0x0000000000005c20      0x27a CMakeFiles/pb_remote_server_nrf52832_xxAA_s132_6.0.0.dir/__/__/__/mesh/core/src/nrf_flash.c.obj
 .debug_line    0x0000000000005e9a      0x4cc CMakeFiles/pb_remote_server_nrf52832_xxAA_s132_6.0.0.dir/__/__/__/mesh/core/src/packet_mgr.c.obj
 .debug_line    0x0000000000006366      0xae0 CMakeFiles/pb_remote_server_nrf52832_xxAA_s132_6.0.0.dir/__/__/__/mesh/core/src/net_state.c.obj
 .debug_line    0x0000000000006e46      0x67a CMakeFiles/pb_remote_server_nrf52832_xxAA_s132_6.0.0.dir/__/__/__/mesh/core/src/mesh_flash.c.obj
 .debug_line    0x00000000000074c0      0x2f8 CMakeFiles/pb_remote_server_nrf52832_xxAA_s132_6.0.0.dir/__/__/__/mesh/core/src/nrf_mesh_utils.c.obj
 .debug_line    0x00000000000077b8      0x92f CMakeFiles/pb_remote_server_nrf52832_xxAA_s132_6.0.0.dir/__/__/__/mesh/core/src/nrf_mesh.c.obj
 .debug_line    0x00000000000080e7      0x337 CMakeFiles/pb_remote_server_nrf52832_xxAA_s132_6.0.0.dir/__/__/__/mesh/core/src/queue.c.obj
 .debug_line    0x000000000000841e      0x25e CMakeFiles/pb_remote_server_nrf52832_xxAA_s132_6.0.0.dir/__/__/__/mesh/core/src/hal.c.obj
 .debug_line    0x000000000000867c      0x465 CMakeFiles/pb_remote_server_nrf52832_xxAA_s132_6.0.0.dir/__/__/__/mesh/core/src/aes_cmac.c.obj
 .debug_line    0x0000000000008ae1      0x503 CMakeFiles/pb_remote_server_nrf52832_xxAA_s132_6.0.0.dir/__/__/__/mesh/core/src/timer_scheduler.c.obj
 .debug_line    0x0000000000008fe4      0x557 CMakeFiles/pb_remote_server_nrf52832_xxAA_s132_6.0.0.dir/__/__/__/mesh/core/src/timer.c.obj
 .debug_line    0x000000000000953b      0x17f CMakeFiles/pb_remote_server_nrf52832_xxAA_s132_6.0.0.dir/__/__/__/mesh/core/src/ticker.c.obj
 .debug_line    0x00000000000096ba      0x341 CMakeFiles/pb_remote_server_nrf52832_xxAA_s132_6.0.0.dir/__/__/__/mesh/core/src/rand.c.obj
 .debug_line    0x00000000000099fb      0x336 CMakeFiles/pb_remote_server_nrf52832_xxAA_s132_6.0.0.dir/__/__/__/mesh/core/src/nrf_mesh_opt.c.obj
 .debug_line    0x0000000000009d31      0x70e CMakeFiles/pb_remote_server_nrf52832_xxAA_s132_6.0.0.dir/__/__/__/mesh/core/src/timeslot.c.obj
 .debug_line    0x000000000000a43f      0x69b CMakeFiles/pb_remote_server_nrf52832_xxAA_s132_6.0.0.dir/__/__/__/mesh/core/src/bearer_event.c.obj
 .debug_line    0x000000000000aada      0x521 CMakeFiles/pb_remote_server_nrf52832_xxAA_s132_6.0.0.dir/__/__/__/mesh/core/src/enc.c.obj
 .debug_line    0x000000000000affb      0x62d CMakeFiles/pb_remote_server_nrf52832_xxAA_s132_6.0.0.dir/__/__/__/mesh/core/src/network.c.obj
 .debug_line    0x000000000000b628      0x61f CMakeFiles/pb_remote_server_nrf52832_xxAA_s132_6.0.0.dir/__/__/__/mesh/core/src/net_packet.c.obj
 .debug_line    0x000000000000bc47      0x38a CMakeFiles/pb_remote_server_nrf52832_xxAA_s132_6.0.0.dir/__/__/__/mesh/core/src/msqueue.c.obj
 .debug_line    0x000000000000bfd1      0x2f2 CMakeFiles/pb_remote_server_nrf52832_xxAA_s132_6.0.0.dir/__/__/__/mesh/core/src/nrf_mesh_keygen.c.obj
 .debug_line    0x000000000000c2c3      0x3e6 CMakeFiles/pb_remote_server_nrf52832_xxAA_s132_6.0.0.dir/__/__/__/mesh/core/src/list.c.obj
 .debug_line    0x000000000000c6a9      0x331 CMakeFiles/pb_remote_server_nrf52832_xxAA_s132_6.0.0.dir/__/__/__/mesh/core/src/log.c.obj
 .debug_line    0x000000000000c9da      0xc3a CMakeFiles/pb_remote_server_nrf52832_xxAA_s132_6.0.0.dir/__/__/__/mesh/core/src/flash_manager.c.obj
 .debug_line    0x000000000000d614      0x4a9 CMakeFiles/pb_remote_server_nrf52832_xxAA_s132_6.0.0.dir/__/__/__/mesh/core/src/ccm_soft.c.obj
 .debug_line    0x000000000000dabd      0x1dc CMakeFiles/pb_remote_server_nrf52832_xxAA_s132_6.0.0.dir/__/__/__/mesh/core/src/replay_cache.c.obj
 .debug_line    0x000000000000dc99      0x5c5 CMakeFiles/pb_remote_server_nrf52832_xxAA_s132_6.0.0.dir/__/__/__/mesh/core/src/beacon.c.obj
 .debug_line    0x000000000000e25e      0x31b CMakeFiles/pb_remote_server_nrf52832_xxAA_s132_6.0.0.dir/__/__/__/mesh/core/src/flash_manager_internal.c.obj
 .debug_line    0x000000000000e579      0x42e CMakeFiles/pb_remote_server_nrf52832_xxAA_s132_6.0.0.dir/__/__/__/mesh/core/src/core_tx.c.obj
 .debug_line    0x000000000000e9a7      0x6b8 CMakeFiles/pb_remote_server_nrf52832_xxAA_s132_6.0.0.dir/__/__/__/mesh/core/src/heartbeat.c.obj
 .debug_line    0x000000000000f05f      0x756 CMakeFiles/pb_remote_server_nrf52832_xxAA_s132_6.0.0.dir/__/__/__/mesh/core/src/net_beacon.c.obj
 .debug_line    0x000000000000f7b5      0x5cc CMakeFiles/pb_remote_server_nrf52832_xxAA_s132_6.0.0.dir/__/__/__/mesh/core/src/core_tx_adv.c.obj
 .debug_line    0x000000000000fd81      0x43b CMakeFiles/pb_remote_server_nrf52832_xxAA_s132_6.0.0.dir/__/__/__/mesh/bearer/src/ad_listener.c.obj
 .debug_line    0x00000000000101bc      0x50f CMakeFiles/pb_remote_server_nrf52832_xxAA_s132_6.0.0.dir/__/__/__/mesh/bearer/src/ad_type_filter.c.obj
 .debug_line    0x00000000000106cb      0x8cd CMakeFiles/pb_remote_server_nrf52832_xxAA_s132_6.0.0.dir/__/__/__/mesh/bearer/src/advertiser.c.obj
 .debug_line    0x0000000000010f98      0x617 CMakeFiles/pb_remote_server_nrf52832_xxAA_s132_6.0.0.dir/__/__/__/mesh/bearer/src/bearer_handler.c.obj
 .debug_line    0x00000000000115af      0x42f CMakeFiles/pb_remote_server_nrf52832_xxAA_s132_6.0.0.dir/__/__/__/mesh/bearer/src/broadcast.c.obj
 .debug_line    0x00000000000119de      0x450 CMakeFiles/pb_remote_server_nrf52832_xxAA_s132_6.0.0.dir/__/__/__/mesh/bearer/src/filter_engine.c.obj
 .debug_line    0x0000000000011e2e      0x346 CMakeFiles/pb_remote_server_nrf52832_xxAA_s132_6.0.0.dir/__/__/__/mesh/bearer/src/radio_config.c.obj
 .debug_line    0x0000000000012174      0x8ef CMakeFiles/pb_remote_server_nrf52832_xxAA_s132_6.0.0.dir/__/__/__/mesh/bearer/src/scanner.c.obj
 .debug_line    0x0000000000012a63      0x803 CMakeFiles/pb_remote_server_nrf52832_xxAA_s132_6.0.0.dir/__/__/__/mesh/prov/src/prov_provisionee.c.obj
 .debug_line    0x0000000000013266      0x687 CMakeFiles/pb_remote_server_nrf52832_xxAA_s132_6.0.0.dir/__/__/__/mesh/prov/src/nrf_mesh_prov.c.obj
 .debug_line    0x00000000000138ed      0x514 CMakeFiles/pb_remote_server_nrf52832_xxAA_s132_6.0.0.dir/__/__/__/mesh/prov/src/provisioning.c.obj
 .debug_line    0x0000000000013e01      0x5c4 CMakeFiles/pb_remote_server_nrf52832_xxAA_s132_6.0.0.dir/__/__/__/mesh/prov/src/prov_beacon.c.obj
 .debug_line    0x00000000000143c5      0x594 CMakeFiles/pb_remote_server_nrf52832_xxAA_s132_6.0.0.dir/__/__/__/mesh/prov/src/prov_utils.c.obj
 .debug_line    0x0000000000014959      0xf19 CMakeFiles/pb_remote_server_nrf52832_xxAA_s132_6.0.0.dir/__/__/__/mesh/prov/src/prov_bearer_adv.c.obj
 .debug_line    0x0000000000015872     0x1411 CMakeFiles/pb_remote_server_nrf52832_xxAA_s132_6.0.0.dir/__/__/__/models/pb_remote/src/pb_remote_server.c.obj
 .debug_line    0x0000000000016c83      0x5c8 CMakeFiles/pb_remote_server_nrf52832_xxAA_s132_6.0.0.dir/__/__/__/mesh/access/src/access_publish.c.obj
 .debug_line    0x000000000001724b     0x137c CMakeFiles/pb_remote_server_nrf52832_xxAA_s132_6.0.0.dir/__/__/__/mesh/access/src/access.c.obj
 .debug_line    0x00000000000185c7      0x6aa CMakeFiles/pb_remote_server_nrf52832_xxAA_s132_6.0.0.dir/__/__/__/mesh/access/src/access_reliable.c.obj
 .debug_line    0x0000000000018c71     0x1e8e CMakeFiles/pb_remote_server_nrf52832_xxAA_s132_6.0.0.dir/__/__/__/mesh/access/src/device_state_manager.c.obj
 .debug_line    0x000000000001aaff      0x3d2 CMakeFiles/pb_remote_server_nrf52832_xxAA_s132_6.0.0.dir/__/__/__/models/config/src/composition_data.c.obj
 .debug_line    0x000000000001aed1     0x2171 CMakeFiles/pb_remote_server_nrf52832_xxAA_s132_6.0.0.dir/__/__/__/models/config/src/config_server.c.obj
 .debug_line    0x000000000001d042      0x10a CMakeFiles/pb_remote_server_nrf52832_xxAA_s132_6.0.0.dir/__/__/__/models/config/src/packed_index_list.c.obj
 .debug_line    0x000000000001d14c      0xb56 CMakeFiles/pb_remote_server_nrf52832_xxAA_s132_6.0.0.dir/__/__/__/models/health/src/health_server.c.obj
 .debug_line    0x000000000001dca2      0x2bd CMakeFiles/pb_remote_server_nrf52832_xxAA_s132_6.0.0.dir/home/mazzer/work/nordic/sdk/nRF5_SDK_15.0.0/modules/nrfx/mdk/system_nrf52.c.obj
 .debug_line    0x000000000001df5f       0xa1 CMakeFiles/pb_remote_server_nrf52832_xxAA_s132_6.0.0.dir/home/mazzer/work/nordic/sdk/nRF5_SDK_15.0.0/modules/nrfx/mdk/gcc_startup_nrf52.S.obj
 .debug_line    0x000000000001e000      0x271 CMakeFiles/pb_remote_server_nrf52832_xxAA_s132_6.0.0.dir/home/mazzer/work/nordic/sdk/nRF5_SDK_15.0.0/components/libraries/util/app_error.c.obj
 .debug_line    0x000000000001e271      0x214 CMakeFiles/pb_remote_server_nrf52832_xxAA_s132_6.0.0.dir/home/mazzer/work/nordic/sdk/nRF5_SDK_15.0.0/components/libraries/util/app_error_handler_gcc.c.obj
 .debug_line    0x000000000001e485      0xaaf ../../../external/rtt/librtt_nrf52832_xxAA.a(SEGGER_RTT.c.obj)
 .debug_line    0x000000000001ef34      0x401 ../../../external/rtt/librtt_nrf52832_xxAA.a(SEGGER_RTT_printf.c.obj)
 .debug_line    0x000000000001f335     0x175b ../../../external/micro-ecc/libuECC_nrf52832_xxAA.a(uECC.c.obj)

.debug_str      0x0000000000000000    0x151b8
 .debug_str     0x0000000000000000     0x2cb1 CMakeFiles/pb_remote_server_nrf52832_xxAA_s132_6.0.0.dir/src/main.c.obj
                                       0x31cf (size before relaxing)
 .debug_str     0x0000000000002cb1     0x1166 CMakeFiles/pb_remote_server_nrf52832_xxAA_s132_6.0.0.dir/__/__/__/mesh/stack/src/mesh_stack.c.obj
                                       0x279b (size before relaxing)
 .debug_str     0x0000000000003e17      0x34e CMakeFiles/pb_remote_server_nrf52832_xxAA_s132_6.0.0.dir/__/__/common/src/mesh_softdevice_init.c.obj
                                       0x11e9 (size before relaxing)
 .debug_str     0x0000000000004165      0xe03 CMakeFiles/pb_remote_server_nrf52832_xxAA_s132_6.0.0.dir/__/__/common/src/mesh_provisionee.c.obj
                                       0x24ae (size before relaxing)
 .debug_str     0x0000000000004f68      0x23d CMakeFiles/pb_remote_server_nrf52832_xxAA_s132_6.0.0.dir/__/__/common/src/simple_hal.c.obj
                                        0xd58 (size before relaxing)
 .debug_str     0x00000000000051a5       0x73 CMakeFiles/pb_remote_server_nrf52832_xxAA_s132_6.0.0.dir/__/__/nrf_mesh_weak.c.obj
                                        0x689 (size before relaxing)
 .debug_str     0x0000000000005218       0xd7 CMakeFiles/pb_remote_server_nrf52832_xxAA_s132_6.0.0.dir/__/__/common/src/app_error_weak.c.obj
                                        0x8ca (size before relaxing)
 .debug_str     0x00000000000052ef       0x67 CMakeFiles/pb_remote_server_nrf52832_xxAA_s132_6.0.0.dir/__/__/common/src/assertion_handler_weak.c.obj
                                        0x6df (size before relaxing)
 .debug_str     0x0000000000005356      0x190 CMakeFiles/pb_remote_server_nrf52832_xxAA_s132_6.0.0.dir/__/__/__/mesh/core/src/nrf_mesh_configure.c.obj
                                        0x7eb (size before relaxing)
 .debug_str     0x00000000000054e6       0xf8 CMakeFiles/pb_remote_server_nrf52832_xxAA_s132_6.0.0.dir/__/__/__/mesh/core/src/aes.c.obj
                                        0xaf6 (size before relaxing)
 .debug_str     0x00000000000055de       0xf2 CMakeFiles/pb_remote_server_nrf52832_xxAA_s132_6.0.0.dir/__/__/__/mesh/core/src/msg_cache.c.obj
                                        0x726 (size before relaxing)
 .debug_str     0x00000000000056d0     0x163d CMakeFiles/pb_remote_server_nrf52832_xxAA_s132_6.0.0.dir/__/__/__/mesh/core/src/transport.c.obj
                                       0x3184 (size before relaxing)
 .debug_str     0x0000000000006d0d       0xb9 CMakeFiles/pb_remote_server_nrf52832_xxAA_s132_6.0.0.dir/__/__/__/mesh/core/src/event.c.obj
                                       0x1720 (size before relaxing)
 .debug_str     0x0000000000006dc6      0x344 CMakeFiles/pb_remote_server_nrf52832_xxAA_s132_6.0.0.dir/__/__/__/mesh/core/src/packet_buffer.c.obj
                                        0xb19 (size before relaxing)
 .debug_str     0x000000000000710a      0x931 CMakeFiles/pb_remote_server_nrf52832_xxAA_s132_6.0.0.dir/__/__/__/mesh/core/src/flash_manager_defrag.c.obj
                                       0x1171 (size before relaxing)
 .debug_str     0x0000000000007a3b       0xdc CMakeFiles/pb_remote_server_nrf52832_xxAA_s132_6.0.0.dir/__/__/__/mesh/core/src/fifo.c.obj
                                        0x748 (size before relaxing)
 .debug_str     0x0000000000007b17       0xe1 CMakeFiles/pb_remote_server_nrf52832_xxAA_s132_6.0.0.dir/__/__/__/mesh/core/src/nrf_flash.c.obj
                                        0x728 (size before relaxing)
 .debug_str     0x0000000000007bf8      0x2be CMakeFiles/pb_remote_server_nrf52832_xxAA_s132_6.0.0.dir/__/__/__/mesh/core/src/packet_mgr.c.obj
                                        0xa12 (size before relaxing)
 .debug_str     0x0000000000007eb6      0x5bc CMakeFiles/pb_remote_server_nrf52832_xxAA_s132_6.0.0.dir/__/__/__/mesh/core/src/net_state.c.obj
                                       0x21c6 (size before relaxing)
 .debug_str     0x0000000000008472      0x3be CMakeFiles/pb_remote_server_nrf52832_xxAA_s132_6.0.0.dir/__/__/__/mesh/core/src/mesh_flash.c.obj
                                        0xd49 (size before relaxing)
 .debug_str     0x0000000000008830       0xd2 CMakeFiles/pb_remote_server_nrf52832_xxAA_s132_6.0.0.dir/__/__/__/mesh/core/src/nrf_mesh_utils.c.obj
                                        0x7be (size before relaxing)
 .debug_str     0x0000000000008902      0x625 CMakeFiles/pb_remote_server_nrf52832_xxAA_s132_6.0.0.dir/__/__/__/mesh/core/src/nrf_mesh.c.obj
                                       0x21a4 (size before relaxing)
 .debug_str     0x0000000000008f27       0x92 CMakeFiles/pb_remote_server_nrf52832_xxAA_s132_6.0.0.dir/__/__/__/mesh/core/src/queue.c.obj
                                        0x6f0 (size before relaxing)
 .debug_str     0x0000000000008fb9       0xec CMakeFiles/pb_remote_server_nrf52832_xxAA_s132_6.0.0.dir/__/__/__/mesh/core/src/hal.c.obj
                                        0x7b6 (size before relaxing)
 .debug_str     0x00000000000090a5      0x107 CMakeFiles/pb_remote_server_nrf52832_xxAA_s132_6.0.0.dir/__/__/__/mesh/core/src/aes_cmac.c.obj
                                        0x782 (size before relaxing)
 .debug_str     0x00000000000091ac      0x17d CMakeFiles/pb_remote_server_nrf52832_xxAA_s132_6.0.0.dir/__/__/__/mesh/core/src/timer_scheduler.c.obj
                                        0x9a1 (size before relaxing)
 .debug_str     0x0000000000009329      0x263 CMakeFiles/pb_remote_server_nrf52832_xxAA_s132_6.0.0.dir/__/__/__/mesh/core/src/timer.c.obj
                                        0x8d6 (size before relaxing)
 .debug_str     0x000000000000958c       0x79 CMakeFiles/pb_remote_server_nrf52832_xxAA_s132_6.0.0.dir/__/__/__/mesh/core/src/ticker.c.obj
                                        0x3c2 (size before relaxing)
 .debug_str     0x0000000000009605       0xe3 CMakeFiles/pb_remote_server_nrf52832_xxAA_s132_6.0.0.dir/__/__/__/mesh/core/src/rand.c.obj
                                        0x74a (size before relaxing)
 .debug_str     0x00000000000096e8       0xbf CMakeFiles/pb_remote_server_nrf52832_xxAA_s132_6.0.0.dir/__/__/__/mesh/core/src/nrf_mesh_opt.c.obj
                                        0x95d (size before relaxing)
 .debug_str     0x00000000000097a7      0x8ee CMakeFiles/pb_remote_server_nrf52832_xxAA_s132_6.0.0.dir/__/__/__/mesh/core/src/timeslot.c.obj
                                       0x1863 (size before relaxing)
 .debug_str     0x000000000000a095      0x30d CMakeFiles/pb_remote_server_nrf52832_xxAA_s132_6.0.0.dir/__/__/__/mesh/core/src/bearer_event.c.obj
                                        0xf26 (size before relaxing)
 .debug_str     0x000000000000a3a2      0x1a5 CMakeFiles/pb_remote_server_nrf52832_xxAA_s132_6.0.0.dir/__/__/__/mesh/core/src/enc.c.obj
                                        0xa55 (size before relaxing)
 .debug_str     0x000000000000a547      0x330 CMakeFiles/pb_remote_server_nrf52832_xxAA_s132_6.0.0.dir/__/__/__/mesh/core/src/network.c.obj
                                       0x1355 (size before relaxing)
 .debug_str     0x000000000000a877      0x346 CMakeFiles/pb_remote_server_nrf52832_xxAA_s132_6.0.0.dir/__/__/__/mesh/core/src/net_packet.c.obj
                                        0xef3 (size before relaxing)
 .debug_str     0x000000000000abbd       0x8a CMakeFiles/pb_remote_server_nrf52832_xxAA_s132_6.0.0.dir/__/__/__/mesh/core/src/msqueue.c.obj
                                        0x72c (size before relaxing)
 .debug_str     0x000000000000ac47       0xff CMakeFiles/pb_remote_server_nrf52832_xxAA_s132_6.0.0.dir/__/__/__/mesh/core/src/nrf_mesh_keygen.c.obj
                                        0x404 (size before relaxing)
 .debug_str     0x000000000000ad46       0xb4 CMakeFiles/pb_remote_server_nrf52832_xxAA_s132_6.0.0.dir/__/__/__/mesh/core/src/list.c.obj
                                        0x32b (size before relaxing)
 .debug_str     0x000000000000adfa      0x1c0 CMakeFiles/pb_remote_server_nrf52832_xxAA_s132_6.0.0.dir/__/__/__/mesh/core/src/log.c.obj
                                        0x83d (size before relaxing)
 .debug_str     0x000000000000afba      0x562 CMakeFiles/pb_remote_server_nrf52832_xxAA_s132_6.0.0.dir/__/__/__/mesh/core/src/flash_manager.c.obj
                                       0x15e5 (size before relaxing)
 .debug_str     0x000000000000b51c       0xbc CMakeFiles/pb_remote_server_nrf52832_xxAA_s132_6.0.0.dir/__/__/__/mesh/core/src/ccm_soft.c.obj
                                        0x7ca (size before relaxing)
 .debug_str     0x000000000000b5d8       0xc9 CMakeFiles/pb_remote_server_nrf52832_xxAA_s132_6.0.0.dir/__/__/__/mesh/core/src/replay_cache.c.obj
                                        0x6fa (size before relaxing)
 .debug_str     0x000000000000b6a1      0x10b CMakeFiles/pb_remote_server_nrf52832_xxAA_s132_6.0.0.dir/__/__/__/mesh/core/src/beacon.c.obj
                                       0x1170 (size before relaxing)
 .debug_str     0x000000000000b7ac       0x6f CMakeFiles/pb_remote_server_nrf52832_xxAA_s132_6.0.0.dir/__/__/__/mesh/core/src/flash_manager_internal.c.obj
                                        0x811 (size before relaxing)
 .debug_str     0x000000000000b81b      0x2f5 CMakeFiles/pb_remote_server_nrf52832_xxAA_s132_6.0.0.dir/__/__/__/mesh/core/src/core_tx.c.obj
                                        0xc5c (size before relaxing)
 .debug_str     0x000000000000bb10      0x44f CMakeFiles/pb_remote_server_nrf52832_xxAA_s132_6.0.0.dir/__/__/__/mesh/core/src/heartbeat.c.obj
                                       0x22ad (size before relaxing)
 .debug_str     0x000000000000bf5f      0x293 CMakeFiles/pb_remote_server_nrf52832_xxAA_s132_6.0.0.dir/__/__/__/mesh/core/src/net_beacon.c.obj
                                       0x210d (size before relaxing)
 .debug_str     0x000000000000c1f2      0x13e CMakeFiles/pb_remote_server_nrf52832_xxAA_s132_6.0.0.dir/__/__/__/mesh/core/src/core_tx_adv.c.obj
                                       0x1346 (size before relaxing)
 .debug_str     0x000000000000c330      0x1c4 CMakeFiles/pb_remote_server_nrf52832_xxAA_s132_6.0.0.dir/__/__/__/mesh/bearer/src/ad_listener.c.obj
                                        0xc4f (size before relaxing)
 .debug_str     0x000000000000c4f4      0x199 CMakeFiles/pb_remote_server_nrf52832_xxAA_s132_6.0.0.dir/__/__/__/mesh/bearer/src/ad_type_filter.c.obj
                                        0xa0c (size before relaxing)
 .debug_str     0x000000000000c68d      0x358 CMakeFiles/pb_remote_server_nrf52832_xxAA_s132_6.0.0.dir/__/__/__/mesh/bearer/src/advertiser.c.obj
                                       0x155f (size before relaxing)
 .debug_str     0x000000000000c9e5      0x35f CMakeFiles/pb_remote_server_nrf52832_xxAA_s132_6.0.0.dir/__/__/__/mesh/bearer/src/bearer_handler.c.obj
                                        0xfe2 (size before relaxing)
 .debug_str     0x000000000000cd44      0x1e3 CMakeFiles/pb_remote_server_nrf52832_xxAA_s132_6.0.0.dir/__/__/__/mesh/bearer/src/broadcast.c.obj
                                        0xf99 (size before relaxing)
 .debug_str     0x000000000000cf27       0xa9 CMakeFiles/pb_remote_server_nrf52832_xxAA_s132_6.0.0.dir/__/__/__/mesh/bearer/src/filter_engine.c.obj
                                        0x879 (size before relaxing)
 .debug_str     0x000000000000cfd0       0xb0 CMakeFiles/pb_remote_server_nrf52832_xxAA_s132_6.0.0.dir/__/__/__/mesh/bearer/src/radio_config.c.obj
                                        0x7e7 (size before relaxing)
 .debug_str     0x000000000000d080      0x494 CMakeFiles/pb_remote_server_nrf52832_xxAA_s132_6.0.0.dir/__/__/__/mesh/bearer/src/scanner.c.obj
                                       0x192b (size before relaxing)
 .debug_str     0x000000000000d514      0x60f CMakeFiles/pb_remote_server_nrf52832_xxAA_s132_6.0.0.dir/__/__/__/mesh/prov/src/prov_provisionee.c.obj
                                       0x2255 (size before relaxing)
 .debug_str     0x000000000000db23      0x2a2 CMakeFiles/pb_remote_server_nrf52832_xxAA_s132_6.0.0.dir/__/__/__/mesh/prov/src/nrf_mesh_prov.c.obj
                                       0x1e47 (size before relaxing)
 .debug_str     0x000000000000ddc5      0x124 CMakeFiles/pb_remote_server_nrf52832_xxAA_s132_6.0.0.dir/__/__/__/mesh/prov/src/provisioning.c.obj
                                        0xf98 (size before relaxing)
 .debug_str     0x000000000000dee9       0xe8 CMakeFiles/pb_remote_server_nrf52832_xxAA_s132_6.0.0.dir/__/__/__/mesh/prov/src/prov_beacon.c.obj
                                       0x19c9 (size before relaxing)
 .debug_str     0x000000000000dfd1      0x1fa CMakeFiles/pb_remote_server_nrf52832_xxAA_s132_6.0.0.dir/__/__/__/mesh/prov/src/prov_utils.c.obj
                                       0x1f96 (size before relaxing)
 .debug_str     0x000000000000e1cb      0x441 CMakeFiles/pb_remote_server_nrf52832_xxAA_s132_6.0.0.dir/__/__/__/mesh/prov/src/prov_bearer_adv.c.obj
                                       0x1c2d (size before relaxing)
 .debug_str     0x000000000000e60c     0x13dc CMakeFiles/pb_remote_server_nrf52832_xxAA_s132_6.0.0.dir/__/__/__/models/pb_remote/src/pb_remote_server.c.obj
                                       0x35e5 (size before relaxing)
 .debug_str     0x000000000000f9e8      0x2db CMakeFiles/pb_remote_server_nrf52832_xxAA_s132_6.0.0.dir/__/__/__/mesh/access/src/access_publish.c.obj
                                        0xc39 (size before relaxing)
 .debug_str     0x000000000000fcc3      0xb5e CMakeFiles/pb_remote_server_nrf52832_xxAA_s132_6.0.0.dir/__/__/__/mesh/access/src/access.c.obj
                                       0x2fe3 (size before relaxing)
 .debug_str     0x0000000000010821      0x166 CMakeFiles/pb_remote_server_nrf52832_xxAA_s132_6.0.0.dir/__/__/__/mesh/access/src/access_reliable.c.obj
                                       0x1073 (size before relaxing)
 .debug_str     0x0000000000010987      0xf04 CMakeFiles/pb_remote_server_nrf52832_xxAA_s132_6.0.0.dir/__/__/__/mesh/access/src/device_state_manager.c.obj
                                       0x30e6 (size before relaxing)
 .debug_str     0x000000000001188b      0x1cf CMakeFiles/pb_remote_server_nrf52832_xxAA_s132_6.0.0.dir/__/__/__/models/config/src/composition_data.c.obj
                                        0x94a (size before relaxing)
 .debug_str     0x0000000000011a5a     0x20f5 CMakeFiles/pb_remote_server_nrf52832_xxAA_s132_6.0.0.dir/__/__/__/models/config/src/config_server.c.obj
                                       0x5072 (size before relaxing)
 .debug_str     0x0000000000013b4f       0xa0 CMakeFiles/pb_remote_server_nrf52832_xxAA_s132_6.0.0.dir/__/__/__/models/config/src/packed_index_list.c.obj
                                        0x2c3 (size before relaxing)
 .debug_str     0x0000000000013bef      0x5e9 CMakeFiles/pb_remote_server_nrf52832_xxAA_s132_6.0.0.dir/__/__/__/models/health/src/health_server.c.obj
                                       0x170c (size before relaxing)
 .debug_str     0x00000000000141d8      0x2f6 CMakeFiles/pb_remote_server_nrf52832_xxAA_s132_6.0.0.dir/home/mazzer/work/nordic/sdk/nRF5_SDK_15.0.0/modules/nrfx/mdk/system_nrf52.c.obj
                                        0x7bf (size before relaxing)
 .debug_str     0x00000000000144ce       0x61 CMakeFiles/pb_remote_server_nrf52832_xxAA_s132_6.0.0.dir/home/mazzer/work/nordic/sdk/nRF5_SDK_15.0.0/modules/nrfx/mdk/gcc_startup_nrf52.S.obj
                                         0xb7 (size before relaxing)
 .debug_str     0x000000000001452f       0xac CMakeFiles/pb_remote_server_nrf52832_xxAA_s132_6.0.0.dir/home/mazzer/work/nordic/sdk/nRF5_SDK_15.0.0/components/libraries/util/app_error.c.obj
                                        0x76a (size before relaxing)
 .debug_str     0x00000000000145db       0x5f CMakeFiles/pb_remote_server_nrf52832_xxAA_s132_6.0.0.dir/home/mazzer/work/nordic/sdk/nRF5_SDK_15.0.0/components/libraries/util/app_error_handler_gcc.c.obj
                                        0x6cf (size before relaxing)
 .debug_str     0x000000000001463a      0x351 ../../../external/rtt/librtt_nrf52832_xxAA.a(SEGGER_RTT.c.obj)
                                        0x982 (size before relaxing)
 .debug_str     0x000000000001498b      0x116 ../../../external/rtt/librtt_nrf52832_xxAA.a(SEGGER_RTT_printf.c.obj)
                                        0x7f2 (size before relaxing)
 .debug_str     0x0000000000014aa1      0x717 ../../../external/micro-ecc/libuECC_nrf52832_xxAA.a(uECC.c.obj)
                                        0x8df (size before relaxing)

.debug_frame    0x0000000000000000     0x6d24
 .debug_frame   0x0000000000000000       0x84 CMakeFiles/pb_remote_server_nrf52832_xxAA_s132_6.0.0.dir/src/main.c.obj
 .debug_frame   0x0000000000000084       0xdc CMakeFiles/pb_remote_server_nrf52832_xxAA_s132_6.0.0.dir/__/__/__/mesh/stack/src/mesh_stack.c.obj
 .debug_frame   0x0000000000000160       0x88 CMakeFiles/pb_remote_server_nrf52832_xxAA_s132_6.0.0.dir/__/__/common/src/mesh_softdevice_init.c.obj
 .debug_frame   0x00000000000001e8       0x64 CMakeFiles/pb_remote_server_nrf52832_xxAA_s132_6.0.0.dir/__/__/common/src/mesh_provisionee.c.obj
 .debug_frame   0x000000000000024c       0xbc CMakeFiles/pb_remote_server_nrf52832_xxAA_s132_6.0.0.dir/__/__/common/src/simple_hal.c.obj
 .debug_frame   0x0000000000000308       0x30 CMakeFiles/pb_remote_server_nrf52832_xxAA_s132_6.0.0.dir/__/__/nrf_mesh_weak.c.obj
 .debug_frame   0x0000000000000338       0x34 CMakeFiles/pb_remote_server_nrf52832_xxAA_s132_6.0.0.dir/__/__/common/src/app_error_weak.c.obj
 .debug_frame   0x000000000000036c       0x2c CMakeFiles/pb_remote_server_nrf52832_xxAA_s132_6.0.0.dir/__/__/common/src/assertion_handler_weak.c.obj
 .debug_frame   0x0000000000000398       0x4c CMakeFiles/pb_remote_server_nrf52832_xxAA_s132_6.0.0.dir/__/__/__/mesh/core/src/nrf_mesh_configure.c.obj
 .debug_frame   0x00000000000003e4       0x40 CMakeFiles/pb_remote_server_nrf52832_xxAA_s132_6.0.0.dir/__/__/__/mesh/core/src/aes.c.obj
 .debug_frame   0x0000000000000424       0x7c CMakeFiles/pb_remote_server_nrf52832_xxAA_s132_6.0.0.dir/__/__/__/mesh/core/src/msg_cache.c.obj
 .debug_frame   0x00000000000004a0      0x3fc CMakeFiles/pb_remote_server_nrf52832_xxAA_s132_6.0.0.dir/__/__/__/mesh/core/src/transport.c.obj
 .debug_frame   0x000000000000089c       0x74 CMakeFiles/pb_remote_server_nrf52832_xxAA_s132_6.0.0.dir/__/__/__/mesh/core/src/event.c.obj
 .debug_frame   0x0000000000000910      0x10c CMakeFiles/pb_remote_server_nrf52832_xxAA_s132_6.0.0.dir/__/__/__/mesh/core/src/packet_buffer.c.obj
 .debug_frame   0x0000000000000a1c      0x268 CMakeFiles/pb_remote_server_nrf52832_xxAA_s132_6.0.0.dir/__/__/__/mesh/core/src/flash_manager_defrag.c.obj
 .debug_frame   0x0000000000000c84       0xd8 CMakeFiles/pb_remote_server_nrf52832_xxAA_s132_6.0.0.dir/__/__/__/mesh/core/src/fifo.c.obj
 .debug_frame   0x0000000000000d5c       0x3c CMakeFiles/pb_remote_server_nrf52832_xxAA_s132_6.0.0.dir/__/__/__/mesh/core/src/nrf_flash.c.obj
 .debug_frame   0x0000000000000d98       0xac CMakeFiles/pb_remote_server_nrf52832_xxAA_s132_6.0.0.dir/__/__/__/mesh/core/src/packet_mgr.c.obj
 .debug_frame   0x0000000000000e44      0x31c CMakeFiles/pb_remote_server_nrf52832_xxAA_s132_6.0.0.dir/__/__/__/mesh/core/src/net_state.c.obj
 .debug_frame   0x0000000000001160      0x130 CMakeFiles/pb_remote_server_nrf52832_xxAA_s132_6.0.0.dir/__/__/__/mesh/core/src/mesh_flash.c.obj
 .debug_frame   0x0000000000001290       0x60 CMakeFiles/pb_remote_server_nrf52832_xxAA_s132_6.0.0.dir/__/__/__/mesh/core/src/nrf_mesh_utils.c.obj
 .debug_frame   0x00000000000012f0      0x200 CMakeFiles/pb_remote_server_nrf52832_xxAA_s132_6.0.0.dir/__/__/__/mesh/core/src/nrf_mesh.c.obj
 .debug_frame   0x00000000000014f0       0x74 CMakeFiles/pb_remote_server_nrf52832_xxAA_s132_6.0.0.dir/__/__/__/mesh/core/src/queue.c.obj
 .debug_frame   0x0000000000001564       0x58 CMakeFiles/pb_remote_server_nrf52832_xxAA_s132_6.0.0.dir/__/__/__/mesh/core/src/hal.c.obj
 .debug_frame   0x00000000000015bc       0x60 CMakeFiles/pb_remote_server_nrf52832_xxAA_s132_6.0.0.dir/__/__/__/mesh/core/src/aes_cmac.c.obj
 .debug_frame   0x000000000000161c       0xe4 CMakeFiles/pb_remote_server_nrf52832_xxAA_s132_6.0.0.dir/__/__/__/mesh/core/src/timer_scheduler.c.obj
 .debug_frame   0x0000000000001700      0x158 CMakeFiles/pb_remote_server_nrf52832_xxAA_s132_6.0.0.dir/__/__/__/mesh/core/src/timer.c.obj
 .debug_frame   0x0000000000001858       0x4c CMakeFiles/pb_remote_server_nrf52832_xxAA_s132_6.0.0.dir/__/__/__/mesh/core/src/ticker.c.obj
 .debug_frame   0x00000000000018a4       0x9c CMakeFiles/pb_remote_server_nrf52832_xxAA_s132_6.0.0.dir/__/__/__/mesh/core/src/rand.c.obj
 .debug_frame   0x0000000000001940       0x30 CMakeFiles/pb_remote_server_nrf52832_xxAA_s132_6.0.0.dir/__/__/__/mesh/core/src/nrf_mesh_opt.c.obj
 .debug_frame   0x0000000000001970      0x190 CMakeFiles/pb_remote_server_nrf52832_xxAA_s132_6.0.0.dir/__/__/__/mesh/core/src/timeslot.c.obj
 .debug_frame   0x0000000000001b00      0x1ac CMakeFiles/pb_remote_server_nrf52832_xxAA_s132_6.0.0.dir/__/__/__/mesh/core/src/bearer_event.c.obj
 .debug_frame   0x0000000000001cac      0x158 CMakeFiles/pb_remote_server_nrf52832_xxAA_s132_6.0.0.dir/__/__/__/mesh/core/src/enc.c.obj
 .debug_frame   0x0000000000001e04      0x10c CMakeFiles/pb_remote_server_nrf52832_xxAA_s132_6.0.0.dir/__/__/__/mesh/core/src/network.c.obj
 .debug_frame   0x0000000000001f10       0xec CMakeFiles/pb_remote_server_nrf52832_xxAA_s132_6.0.0.dir/__/__/__/mesh/core/src/net_packet.c.obj
 .debug_frame   0x0000000000001ffc       0x94 CMakeFiles/pb_remote_server_nrf52832_xxAA_s132_6.0.0.dir/__/__/__/mesh/core/src/msqueue.c.obj
 .debug_frame   0x0000000000002090       0xc8 CMakeFiles/pb_remote_server_nrf52832_xxAA_s132_6.0.0.dir/__/__/__/mesh/core/src/nrf_mesh_keygen.c.obj
 .debug_frame   0x0000000000002158       0x98 CMakeFiles/pb_remote_server_nrf52832_xxAA_s132_6.0.0.dir/__/__/__/mesh/core/src/list.c.obj
 .debug_frame   0x00000000000021f0       0xc0 CMakeFiles/pb_remote_server_nrf52832_xxAA_s132_6.0.0.dir/__/__/__/mesh/core/src/log.c.obj
 .debug_frame   0x00000000000022b0      0x258 CMakeFiles/pb_remote_server_nrf52832_xxAA_s132_6.0.0.dir/__/__/__/mesh/core/src/flash_manager.c.obj
 .debug_frame   0x0000000000002508       0xcc CMakeFiles/pb_remote_server_nrf52832_xxAA_s132_6.0.0.dir/__/__/__/mesh/core/src/ccm_soft.c.obj
 .debug_frame   0x00000000000025d4       0xb8 CMakeFiles/pb_remote_server_nrf52832_xxAA_s132_6.0.0.dir/__/__/__/mesh/core/src/replay_cache.c.obj
 .debug_frame   0x000000000000268c       0x7c CMakeFiles/pb_remote_server_nrf52832_xxAA_s132_6.0.0.dir/__/__/__/mesh/core/src/beacon.c.obj
 .debug_frame   0x0000000000002708       0x34 CMakeFiles/pb_remote_server_nrf52832_xxAA_s132_6.0.0.dir/__/__/__/mesh/core/src/flash_manager_internal.c.obj
 .debug_frame   0x000000000000273c       0xf8 CMakeFiles/pb_remote_server_nrf52832_xxAA_s132_6.0.0.dir/__/__/__/mesh/core/src/core_tx.c.obj
 .debug_frame   0x0000000000002834      0x184 CMakeFiles/pb_remote_server_nrf52832_xxAA_s132_6.0.0.dir/__/__/__/mesh/core/src/heartbeat.c.obj
 .debug_frame   0x00000000000029b8      0x114 CMakeFiles/pb_remote_server_nrf52832_xxAA_s132_6.0.0.dir/__/__/__/mesh/core/src/net_beacon.c.obj
 .debug_frame   0x0000000000002acc      0x138 CMakeFiles/pb_remote_server_nrf52832_xxAA_s132_6.0.0.dir/__/__/__/mesh/core/src/core_tx_adv.c.obj
 .debug_frame   0x0000000000002c04       0x94 CMakeFiles/pb_remote_server_nrf52832_xxAA_s132_6.0.0.dir/__/__/__/mesh/bearer/src/ad_listener.c.obj
 .debug_frame   0x0000000000002c98       0xc0 CMakeFiles/pb_remote_server_nrf52832_xxAA_s132_6.0.0.dir/__/__/__/mesh/bearer/src/ad_type_filter.c.obj
 .debug_frame   0x0000000000002d58      0x278 CMakeFiles/pb_remote_server_nrf52832_xxAA_s132_6.0.0.dir/__/__/__/mesh/bearer/src/advertiser.c.obj
 .debug_frame   0x0000000000002fd0      0x170 CMakeFiles/pb_remote_server_nrf52832_xxAA_s132_6.0.0.dir/__/__/__/mesh/bearer/src/bearer_handler.c.obj
 .debug_frame   0x0000000000003140       0x74 CMakeFiles/pb_remote_server_nrf52832_xxAA_s132_6.0.0.dir/__/__/__/mesh/bearer/src/broadcast.c.obj
 .debug_frame   0x00000000000031b4       0x88 CMakeFiles/pb_remote_server_nrf52832_xxAA_s132_6.0.0.dir/__/__/__/mesh/bearer/src/filter_engine.c.obj
 .debug_frame   0x000000000000323c       0x98 CMakeFiles/pb_remote_server_nrf52832_xxAA_s132_6.0.0.dir/__/__/__/mesh/bearer/src/radio_config.c.obj
 .debug_frame   0x00000000000032d4      0x244 CMakeFiles/pb_remote_server_nrf52832_xxAA_s132_6.0.0.dir/__/__/__/mesh/bearer/src/scanner.c.obj
 .debug_frame   0x0000000000003518      0x198 CMakeFiles/pb_remote_server_nrf52832_xxAA_s132_6.0.0.dir/__/__/__/mesh/prov/src/prov_provisionee.c.obj
 .debug_frame   0x00000000000036b0      0x1c8 CMakeFiles/pb_remote_server_nrf52832_xxAA_s132_6.0.0.dir/__/__/__/mesh/prov/src/nrf_mesh_prov.c.obj
 .debug_frame   0x0000000000003878      0x1a0 CMakeFiles/pb_remote_server_nrf52832_xxAA_s132_6.0.0.dir/__/__/__/mesh/prov/src/provisioning.c.obj
 .debug_frame   0x0000000000003a18       0x88 CMakeFiles/pb_remote_server_nrf52832_xxAA_s132_6.0.0.dir/__/__/__/mesh/prov/src/prov_beacon.c.obj
 .debug_frame   0x0000000000003aa0      0x11c CMakeFiles/pb_remote_server_nrf52832_xxAA_s132_6.0.0.dir/__/__/__/mesh/prov/src/prov_utils.c.obj
 .debug_frame   0x0000000000003bbc      0x2d8 CMakeFiles/pb_remote_server_nrf52832_xxAA_s132_6.0.0.dir/__/__/__/mesh/prov/src/prov_bearer_adv.c.obj
 .debug_frame   0x0000000000003e94      0x480 CMakeFiles/pb_remote_server_nrf52832_xxAA_s132_6.0.0.dir/__/__/__/models/pb_remote/src/pb_remote_server.c.obj
 .debug_frame   0x0000000000004314       0xf4 CMakeFiles/pb_remote_server_nrf52832_xxAA_s132_6.0.0.dir/__/__/__/mesh/access/src/access_publish.c.obj
 .debug_frame   0x0000000000004408      0x65c CMakeFiles/pb_remote_server_nrf52832_xxAA_s132_6.0.0.dir/__/__/__/mesh/access/src/access.c.obj
 .debug_frame   0x0000000000004a64      0x148 CMakeFiles/pb_remote_server_nrf52832_xxAA_s132_6.0.0.dir/__/__/__/mesh/access/src/access_reliable.c.obj
 .debug_frame   0x0000000000004bac      0xa64 CMakeFiles/pb_remote_server_nrf52832_xxAA_s132_6.0.0.dir/__/__/__/mesh/access/src/device_state_manager.c.obj
 .debug_frame   0x0000000000005610       0x48 CMakeFiles/pb_remote_server_nrf52832_xxAA_s132_6.0.0.dir/__/__/__/models/config/src/composition_data.c.obj
 .debug_frame   0x0000000000005658      0x854 CMakeFiles/pb_remote_server_nrf52832_xxAA_s132_6.0.0.dir/__/__/__/models/config/src/config_server.c.obj
 .debug_frame   0x0000000000005eac       0x30 CMakeFiles/pb_remote_server_nrf52832_xxAA_s132_6.0.0.dir/__/__/__/models/config/src/packed_index_list.c.obj
 .debug_frame   0x0000000000005edc      0x27c CMakeFiles/pb_remote_server_nrf52832_xxAA_s132_6.0.0.dir/__/__/__/models/health/src/health_server.c.obj
 .debug_frame   0x0000000000006158       0x40 CMakeFiles/pb_remote_server_nrf52832_xxAA_s132_6.0.0.dir/home/mazzer/work/nordic/sdk/nRF5_SDK_15.0.0/modules/nrfx/mdk/system_nrf52.c.obj
 .debug_frame   0x0000000000006198       0x54 CMakeFiles/pb_remote_server_nrf52832_xxAA_s132_6.0.0.dir/home/mazzer/work/nordic/sdk/nRF5_SDK_15.0.0/components/libraries/util/app_error.c.obj
 .debug_frame   0x00000000000061ec       0x20 CMakeFiles/pb_remote_server_nrf52832_xxAA_s132_6.0.0.dir/home/mazzer/work/nordic/sdk/nRF5_SDK_15.0.0/components/libraries/util/app_error_handler_gcc.c.obj
 .debug_frame   0x000000000000620c      0x2e4 ../../../external/rtt/librtt_nrf52832_xxAA.a(SEGGER_RTT.c.obj)
 .debug_frame   0x00000000000064f0       0xa0 ../../../external/rtt/librtt_nrf52832_xxAA.a(SEGGER_RTT_printf.c.obj)
 .debug_frame   0x0000000000006590      0x4c8 ../../../external/micro-ecc/libuECC_nrf52832_xxAA.a(uECC.c.obj)
 .debug_frame   0x0000000000006a58       0x28 /usr/bin/../lib/gcc/arm-none-eabi/7.2.1/../../../../arm-none-eabi/lib/thumb/v7e-m/fpv4-sp/hard/libg_nano.a(lib_a-exit.o)
 .debug_frame   0x0000000000006a80       0x2c /usr/bin/../lib/gcc/arm-none-eabi/7.2.1/../../../../arm-none-eabi/lib/thumb/v7e-m/fpv4-sp/hard/libg_nano.a(lib_a-init.o)
 .debug_frame   0x0000000000006aac       0x30 /usr/bin/../lib/gcc/arm-none-eabi/7.2.1/../../../../arm-none-eabi/lib/thumb/v7e-m/fpv4-sp/hard/libg_nano.a(lib_a-malloc.o)
 .debug_frame   0x0000000000006adc       0x2c /usr/bin/../lib/gcc/arm-none-eabi/7.2.1/../../../../arm-none-eabi/lib/thumb/v7e-m/fpv4-sp/hard/libg_nano.a(lib_a-memcmp.o)
 .debug_frame   0x0000000000006b08       0x28 /usr/bin/../lib/gcc/arm-none-eabi/7.2.1/../../../../arm-none-eabi/lib/thumb/v7e-m/fpv4-sp/hard/libg_nano.a(lib_a-memcpy-stub.o)
 .debug_frame   0x0000000000006b30       0x20 /usr/bin/../lib/gcc/arm-none-eabi/7.2.1/../../../../arm-none-eabi/lib/thumb/v7e-m/fpv4-sp/hard/libg_nano.a(lib_a-memset.o)
 .debug_frame   0x0000000000006b50       0x38 /usr/bin/../lib/gcc/arm-none-eabi/7.2.1/../../../../arm-none-eabi/lib/thumb/v7e-m/fpv4-sp/hard/libg_nano.a(lib_a-nano-freer.o)
 .debug_frame   0x0000000000006b88       0x2c /usr/bin/../lib/gcc/arm-none-eabi/7.2.1/../../../../arm-none-eabi/lib/thumb/v7e-m/fpv4-sp/hard/libg_nano.a(lib_a-nano-mallocr.o)
 .debug_frame   0x0000000000006bb4       0x2c /usr/bin/../lib/gcc/arm-none-eabi/7.2.1/../../../../arm-none-eabi/lib/thumb/v7e-m/fpv4-sp/hard/libg_nano.a(lib_a-sbrkr.o)
 .debug_frame   0x0000000000006be0       0x20 /usr/bin/../lib/gcc/arm-none-eabi/7.2.1/../../../../arm-none-eabi/lib/thumb/v7e-m/fpv4-sp/hard/libg_nano.a(lib_a-strcpy.o)
 .debug_frame   0x0000000000006c00       0x38 /usr/bin/../lib/gcc/arm-none-eabi/7.2.1/../../../../arm-none-eabi/lib/thumb/v7e-m/fpv4-sp/hard/libg_nano.a(lib_a-strrchr.o)
 .debug_frame   0x0000000000006c38       0x30 /usr/bin/../lib/gcc/arm-none-eabi/7.2.1/../../../../arm-none-eabi/lib/thumb/v7e-m/fpv4-sp/hard/libg_nano.a(lib_a-mlock.o)
 .debug_frame   0x0000000000006c68       0x5c /usr/bin/../lib/gcc/arm-none-eabi/7.2.1/../../../../arm-none-eabi/lib/thumb/v7e-m/fpv4-sp/hard/libg_nano.a(lib_a-reent.o)
 .debug_frame   0x0000000000006cc4       0x20 /usr/bin/../lib/gcc/arm-none-eabi/7.2.1/../../../../arm-none-eabi/lib/thumb/v7e-m/fpv4-sp/hard/libg_nano.a(lib_a-strchr.o)
 .debug_frame   0x0000000000006ce4       0x20 /usr/bin/../lib/gcc/arm-none-eabi/7.2.1/../../../../arm-none-eabi/lib/thumb/v7e-m/fpv4-sp/hard/libnosys.a(sbrk.o)
 .debug_frame   0x0000000000006d04       0x20 /usr/bin/../lib/gcc/arm-none-eabi/7.2.1/../../../../arm-none-eabi/lib/thumb/v7e-m/fpv4-sp/hard/libnosys.a(_exit.o)
