Archive member included to satisfy reference by file (symbol)

../../../external/rtt/librtt_nrf52840_xxAA.a(SEGGER_RTT.c.obj)
                              CMakeFiles/light_switch_proxy_client_nrf52840_xxAA_s140_6.0.0.dir/__/__/__/mesh/core/src/log.c.obj (SEGGER_RTT_Write)
../../../external/rtt/librtt_nrf52840_xxAA.a(SEGGER_RTT_printf.c.obj)
                              CMakeFiles/light_switch_proxy_client_nrf52840_xxAA_s140_6.0.0.dir/__/__/__/mesh/core/src/log.c.obj (SEGGER_RTT_vprintf)
../../../external/micro-ecc/libuECC_nrf52840_xxAA.a(uECC.c.obj)
                              CMakeFiles/light_switch_proxy_client_nrf52840_xxAA_s140_6.0.0.dir/__/__/__/mesh/prov/src/prov_utils.c.obj (uECC_secp256r1)
/usr/bin/../lib/gcc/arm-none-eabi/7.2.1/thumb/v7e-m/fpv4-sp/hard/libgcc.a(_aeabi_ldivmod.o)
                              CMakeFiles/light_switch_proxy_client_nrf52840_xxAA_s140_6.0.0.dir/__/__/common/src/rtt_input.c.obj (__aeabi_ldivmod)
/usr/bin/../lib/gcc/arm-none-eabi/7.2.1/thumb/v7e-m/fpv4-sp/hard/libgcc.a(_aeabi_uldivmod.o)
                              CMakeFiles/light_switch_proxy_client_nrf52840_xxAA_s140_6.0.0.dir/__/__/common/src/rtt_input.c.obj (__aeabi_uldivmod)
/usr/bin/../lib/gcc/arm-none-eabi/7.2.1/thumb/v7e-m/fpv4-sp/hard/libgcc.a(_udivmoddi4.o)
                              /usr/bin/../lib/gcc/arm-none-eabi/7.2.1/thumb/v7e-m/fpv4-sp/hard/libgcc.a(_aeabi_ldivmod.o) (__udivmoddi4)
/usr/bin/../lib/gcc/arm-none-eabi/7.2.1/thumb/v7e-m/fpv4-sp/hard/libgcc.a(_dvmd_tls.o)
                              /usr/bin/../lib/gcc/arm-none-eabi/7.2.1/thumb/v7e-m/fpv4-sp/hard/libgcc.a(_aeabi_ldivmod.o) (__aeabi_ldiv0)
/usr/bin/../lib/gcc/arm-none-eabi/7.2.1/../../../../arm-none-eabi/lib/thumb/v7e-m/fpv4-sp/hard/libg_nano.a(lib_a-exit.o)
                              /usr/bin/../lib/gcc/arm-none-eabi/7.2.1/../../../../arm-none-eabi/lib/thumb/v7e-m/fpv4-sp/hard/crt0.o (exit)
/usr/bin/../lib/gcc/arm-none-eabi/7.2.1/../../../../arm-none-eabi/lib/thumb/v7e-m/fpv4-sp/hard/libg_nano.a(lib_a-impure.o)
                              /usr/bin/../lib/gcc/arm-none-eabi/7.2.1/../../../../arm-none-eabi/lib/thumb/v7e-m/fpv4-sp/hard/libg_nano.a(lib_a-exit.o) (_global_impure_ptr)
/usr/bin/../lib/gcc/arm-none-eabi/7.2.1/../../../../arm-none-eabi/lib/thumb/v7e-m/fpv4-sp/hard/libg_nano.a(lib_a-init.o)
                              /usr/bin/../lib/gcc/arm-none-eabi/7.2.1/../../../../arm-none-eabi/lib/thumb/v7e-m/fpv4-sp/hard/crt0.o (__libc_init_array)
/usr/bin/../lib/gcc/arm-none-eabi/7.2.1/../../../../arm-none-eabi/lib/thumb/v7e-m/fpv4-sp/hard/libg_nano.a(lib_a-malloc.o)
                              CMakeFiles/light_switch_proxy_client_nrf52840_xxAA_s140_6.0.0.dir/__/__/__/mesh/core/src/transport.c.obj (malloc)
/usr/bin/../lib/gcc/arm-none-eabi/7.2.1/../../../../arm-none-eabi/lib/thumb/v7e-m/fpv4-sp/hard/libg_nano.a(lib_a-memcmp.o)
                              CMakeFiles/light_switch_proxy_client_nrf52840_xxAA_s140_6.0.0.dir/home/mazzer/work/nordic/sdk/nRF5_SDK_15.0.0/components/ble/common/ble_advdata.c.obj (memcmp)
/usr/bin/../lib/gcc/arm-none-eabi/7.2.1/../../../../arm-none-eabi/lib/thumb/v7e-m/fpv4-sp/hard/libg_nano.a(lib_a-memcpy-stub.o)
                              CMakeFiles/light_switch_proxy_client_nrf52840_xxAA_s140_6.0.0.dir/__/__/__/mesh/prov/src/nrf_mesh_prov_bearer_gatt.c.obj (memcpy)
/usr/bin/../lib/gcc/arm-none-eabi/7.2.1/../../../../arm-none-eabi/lib/thumb/v7e-m/fpv4-sp/hard/libg_nano.a(lib_a-memset.o)
                              /usr/bin/../lib/gcc/arm-none-eabi/7.2.1/../../../../arm-none-eabi/lib/thumb/v7e-m/fpv4-sp/hard/crt0.o (memset)
/usr/bin/../lib/gcc/arm-none-eabi/7.2.1/../../../../arm-none-eabi/lib/thumb/v7e-m/fpv4-sp/hard/libg_nano.a(lib_a-nano-freer.o)
                              /usr/bin/../lib/gcc/arm-none-eabi/7.2.1/../../../../arm-none-eabi/lib/thumb/v7e-m/fpv4-sp/hard/libg_nano.a(lib_a-malloc.o) (_free_r)
/usr/bin/../lib/gcc/arm-none-eabi/7.2.1/../../../../arm-none-eabi/lib/thumb/v7e-m/fpv4-sp/hard/libg_nano.a(lib_a-nano-mallocr.o)
                              /usr/bin/../lib/gcc/arm-none-eabi/7.2.1/../../../../arm-none-eabi/lib/thumb/v7e-m/fpv4-sp/hard/libg_nano.a(lib_a-malloc.o) (_malloc_r)
/usr/bin/../lib/gcc/arm-none-eabi/7.2.1/../../../../arm-none-eabi/lib/thumb/v7e-m/fpv4-sp/hard/libg_nano.a(lib_a-sbrkr.o)
                              /usr/bin/../lib/gcc/arm-none-eabi/7.2.1/../../../../arm-none-eabi/lib/thumb/v7e-m/fpv4-sp/hard/libg_nano.a(lib_a-nano-mallocr.o) (_sbrk_r)
/usr/bin/../lib/gcc/arm-none-eabi/7.2.1/../../../../arm-none-eabi/lib/thumb/v7e-m/fpv4-sp/hard/libg_nano.a(lib_a-strcpy.o)
                              ../../../external/rtt/librtt_nrf52840_xxAA.a(SEGGER_RTT.c.obj) (strcpy)
/usr/bin/../lib/gcc/arm-none-eabi/7.2.1/../../../../arm-none-eabi/lib/thumb/v7e-m/fpv4-sp/hard/libg_nano.a(lib_a-strlen.o)
                              CMakeFiles/light_switch_proxy_client_nrf52840_xxAA_s140_6.0.0.dir/src/main.c.obj (strlen)
/usr/bin/../lib/gcc/arm-none-eabi/7.2.1/../../../../arm-none-eabi/lib/thumb/v7e-m/fpv4-sp/hard/libg_nano.a(lib_a-strrchr.o)
                              CMakeFiles/light_switch_proxy_client_nrf52840_xxAA_s140_6.0.0.dir/src/main.c.obj (strrchr)
/usr/bin/../lib/gcc/arm-none-eabi/7.2.1/../../../../arm-none-eabi/lib/thumb/v7e-m/fpv4-sp/hard/libg_nano.a(lib_a-mlock.o)
                              /usr/bin/../lib/gcc/arm-none-eabi/7.2.1/../../../../arm-none-eabi/lib/thumb/v7e-m/fpv4-sp/hard/libg_nano.a(lib_a-nano-freer.o) (__malloc_lock)
/usr/bin/../lib/gcc/arm-none-eabi/7.2.1/../../../../arm-none-eabi/lib/thumb/v7e-m/fpv4-sp/hard/libg_nano.a(lib_a-reent.o)
                              /usr/bin/../lib/gcc/arm-none-eabi/7.2.1/../../../../arm-none-eabi/lib/thumb/v7e-m/fpv4-sp/hard/libg_nano.a(lib_a-sbrkr.o) (errno)
/usr/bin/../lib/gcc/arm-none-eabi/7.2.1/../../../../arm-none-eabi/lib/thumb/v7e-m/fpv4-sp/hard/libg_nano.a(lib_a-strchr.o)
                              /usr/bin/../lib/gcc/arm-none-eabi/7.2.1/../../../../arm-none-eabi/lib/thumb/v7e-m/fpv4-sp/hard/libg_nano.a(lib_a-strrchr.o) (strchr)
/usr/bin/../lib/gcc/arm-none-eabi/7.2.1/../../../../arm-none-eabi/lib/thumb/v7e-m/fpv4-sp/hard/libnosys.a(sbrk.o)
                              /usr/bin/../lib/gcc/arm-none-eabi/7.2.1/../../../../arm-none-eabi/lib/thumb/v7e-m/fpv4-sp/hard/libg_nano.a(lib_a-sbrkr.o) (_sbrk)
/usr/bin/../lib/gcc/arm-none-eabi/7.2.1/../../../../arm-none-eabi/lib/thumb/v7e-m/fpv4-sp/hard/libnosys.a(_exit.o)
                              /usr/bin/../lib/gcc/arm-none-eabi/7.2.1/../../../../arm-none-eabi/lib/thumb/v7e-m/fpv4-sp/hard/libg_nano.a(lib_a-exit.o) (_exit)

Allocating common symbols
Common symbol       size              file

nrf_nvic_state      0xc               CMakeFiles/light_switch_proxy_client_nrf52840_xxAA_s140_6.0.0.dir/home/mazzer/work/nordic/sdk/nRF5_SDK_15.0.0/components/libraries/util/app_util_platform.c.obj
m_packet            0x24              CMakeFiles/light_switch_proxy_client_nrf52840_xxAA_s140_6.0.0.dir/__/__/__/mesh/core/src/core_tx.c.obj
errno               0x4               /usr/bin/../lib/gcc/arm-none-eabi/7.2.1/../../../../arm-none-eabi/lib/thumb/v7e-m/fpv4-sp/hard/libg_nano.a(lib_a-reent.o)
_SEGGER_RTT         0x78              ../../../external/rtt/librtt_nrf52840_xxAA.a(SEGGER_RTT.c.obj)

Discarded input sections

 .text          0x0000000000000000        0x0 /usr/bin/../lib/gcc/arm-none-eabi/7.2.1/thumb/v7e-m/fpv4-sp/hard/crti.o
 .data          0x0000000000000000        0x0 /usr/bin/../lib/gcc/arm-none-eabi/7.2.1/thumb/v7e-m/fpv4-sp/hard/crti.o
 .bss           0x0000000000000000        0x0 /usr/bin/../lib/gcc/arm-none-eabi/7.2.1/thumb/v7e-m/fpv4-sp/hard/crti.o
 .data          0x0000000000000000        0x4 /usr/bin/../lib/gcc/arm-none-eabi/7.2.1/thumb/v7e-m/fpv4-sp/hard/crtbegin.o
 .data          0x0000000000000000        0x0 /usr/bin/../lib/gcc/arm-none-eabi/7.2.1/../../../../arm-none-eabi/lib/thumb/v7e-m/fpv4-sp/hard/crt0.o
 .bss           0x0000000000000000        0x0 /usr/bin/../lib/gcc/arm-none-eabi/7.2.1/../../../../arm-none-eabi/lib/thumb/v7e-m/fpv4-sp/hard/crt0.o
 .ARM.extab     0x0000000000000000        0x0 /usr/bin/../lib/gcc/arm-none-eabi/7.2.1/../../../../arm-none-eabi/lib/thumb/v7e-m/fpv4-sp/hard/crt0.o
 .text          0x0000000000000000        0x0 CMakeFiles/light_switch_proxy_client_nrf52840_xxAA_s140_6.0.0.dir/src/main.c.obj
 .data          0x0000000000000000        0x0 CMakeFiles/light_switch_proxy_client_nrf52840_xxAA_s140_6.0.0.dir/src/main.c.obj
 .bss           0x0000000000000000        0x0 CMakeFiles/light_switch_proxy_client_nrf52840_xxAA_s140_6.0.0.dir/src/main.c.obj
 .text          0x0000000000000000        0x0 CMakeFiles/light_switch_proxy_client_nrf52840_xxAA_s140_6.0.0.dir/__/__/__/mesh/stack/src/mesh_stack.c.obj
 .data          0x0000000000000000        0x0 CMakeFiles/light_switch_proxy_client_nrf52840_xxAA_s140_6.0.0.dir/__/__/__/mesh/stack/src/mesh_stack.c.obj
 .bss           0x0000000000000000        0x0 CMakeFiles/light_switch_proxy_client_nrf52840_xxAA_s140_6.0.0.dir/__/__/__/mesh/stack/src/mesh_stack.c.obj
 .text.mesh_stack_is_device_provisioned
                0x0000000000000000       0x1c CMakeFiles/light_switch_proxy_client_nrf52840_xxAA_s140_6.0.0.dir/__/__/__/mesh/stack/src/mesh_stack.c.obj
 .text          0x0000000000000000        0x0 CMakeFiles/light_switch_proxy_client_nrf52840_xxAA_s140_6.0.0.dir/__/__/common/src/mesh_provisionee.c.obj
 .data          0x0000000000000000        0x0 CMakeFiles/light_switch_proxy_client_nrf52840_xxAA_s140_6.0.0.dir/__/__/common/src/mesh_provisionee.c.obj
 .bss           0x0000000000000000        0x0 CMakeFiles/light_switch_proxy_client_nrf52840_xxAA_s140_6.0.0.dir/__/__/common/src/mesh_provisionee.c.obj
 .text          0x0000000000000000        0x0 CMakeFiles/light_switch_proxy_client_nrf52840_xxAA_s140_6.0.0.dir/__/__/common/src/rtt_input.c.obj
 .data          0x0000000000000000        0x0 CMakeFiles/light_switch_proxy_client_nrf52840_xxAA_s140_6.0.0.dir/__/__/common/src/rtt_input.c.obj
 .bss           0x0000000000000000        0x0 CMakeFiles/light_switch_proxy_client_nrf52840_xxAA_s140_6.0.0.dir/__/__/common/src/rtt_input.c.obj
 .text.rtt_input_disable
                0x0000000000000000       0x28 CMakeFiles/light_switch_proxy_client_nrf52840_xxAA_s140_6.0.0.dir/__/__/common/src/rtt_input.c.obj
 .text          0x0000000000000000        0x0 CMakeFiles/light_switch_proxy_client_nrf52840_xxAA_s140_6.0.0.dir/__/__/common/src/simple_hal.c.obj
 .data          0x0000000000000000        0x0 CMakeFiles/light_switch_proxy_client_nrf52840_xxAA_s140_6.0.0.dir/__/__/common/src/simple_hal.c.obj
 .bss           0x0000000000000000        0x0 CMakeFiles/light_switch_proxy_client_nrf52840_xxAA_s140_6.0.0.dir/__/__/common/src/simple_hal.c.obj
 .text          0x0000000000000000        0x0 CMakeFiles/light_switch_proxy_client_nrf52840_xxAA_s140_6.0.0.dir/__/__/common/src/mesh_adv.c.obj
 .data          0x0000000000000000        0x0 CMakeFiles/light_switch_proxy_client_nrf52840_xxAA_s140_6.0.0.dir/__/__/common/src/mesh_adv.c.obj
 .bss           0x0000000000000000        0x0 CMakeFiles/light_switch_proxy_client_nrf52840_xxAA_s140_6.0.0.dir/__/__/common/src/mesh_adv.c.obj
 .text          0x0000000000000000        0x0 CMakeFiles/light_switch_proxy_client_nrf52840_xxAA_s140_6.0.0.dir/__/__/__/mesh/prov/src/nrf_mesh_prov_bearer_gatt.c.obj
 .data          0x0000000000000000        0x0 CMakeFiles/light_switch_proxy_client_nrf52840_xxAA_s140_6.0.0.dir/__/__/__/mesh/prov/src/nrf_mesh_prov_bearer_gatt.c.obj
 .bss           0x0000000000000000        0x0 CMakeFiles/light_switch_proxy_client_nrf52840_xxAA_s140_6.0.0.dir/__/__/__/mesh/prov/src/nrf_mesh_prov_bearer_gatt.c.obj
 .text          0x0000000000000000        0x0 CMakeFiles/light_switch_proxy_client_nrf52840_xxAA_s140_6.0.0.dir/home/mazzer/work/nordic/sdk/nRF5_SDK_15.0.0/components/libraries/util/app_error.c.obj
 .data          0x0000000000000000        0x0 CMakeFiles/light_switch_proxy_client_nrf52840_xxAA_s140_6.0.0.dir/home/mazzer/work/nordic/sdk/nRF5_SDK_15.0.0/components/libraries/util/app_error.c.obj
 .bss           0x0000000000000000        0x0 CMakeFiles/light_switch_proxy_client_nrf52840_xxAA_s140_6.0.0.dir/home/mazzer/work/nordic/sdk/nRF5_SDK_15.0.0/components/libraries/util/app_error.c.obj
 .text.app_error_save_and_stop
                0x0000000000000000       0x64 CMakeFiles/light_switch_proxy_client_nrf52840_xxAA_s140_6.0.0.dir/home/mazzer/work/nordic/sdk/nRF5_SDK_15.0.0/components/libraries/util/app_error.c.obj
 .bss.m_error_data.8293
                0x0000000000000000       0x20 CMakeFiles/light_switch_proxy_client_nrf52840_xxAA_s140_6.0.0.dir/home/mazzer/work/nordic/sdk/nRF5_SDK_15.0.0/components/libraries/util/app_error.c.obj
 .text          0x0000000000000000        0x0 CMakeFiles/light_switch_proxy_client_nrf52840_xxAA_s140_6.0.0.dir/home/mazzer/work/nordic/sdk/nRF5_SDK_15.0.0/components/libraries/util/app_util_platform.c.obj
 .data          0x0000000000000000        0x0 CMakeFiles/light_switch_proxy_client_nrf52840_xxAA_s140_6.0.0.dir/home/mazzer/work/nordic/sdk/nRF5_SDK_15.0.0/components/libraries/util/app_util_platform.c.obj
 .bss           0x0000000000000000        0x0 CMakeFiles/light_switch_proxy_client_nrf52840_xxAA_s140_6.0.0.dir/home/mazzer/work/nordic/sdk/nRF5_SDK_15.0.0/components/libraries/util/app_util_platform.c.obj
 .text.app_util_disable_irq
                0x0000000000000000       0x10 CMakeFiles/light_switch_proxy_client_nrf52840_xxAA_s140_6.0.0.dir/home/mazzer/work/nordic/sdk/nRF5_SDK_15.0.0/components/libraries/util/app_util_platform.c.obj
 .text.app_util_enable_irq
                0x0000000000000000       0x14 CMakeFiles/light_switch_proxy_client_nrf52840_xxAA_s140_6.0.0.dir/home/mazzer/work/nordic/sdk/nRF5_SDK_15.0.0/components/libraries/util/app_util_platform.c.obj
 .text.privilege_level_get
                0x0000000000000000       0x1c CMakeFiles/light_switch_proxy_client_nrf52840_xxAA_s140_6.0.0.dir/home/mazzer/work/nordic/sdk/nRF5_SDK_15.0.0/components/libraries/util/app_util_platform.c.obj
 .text.current_int_priority_get
                0x0000000000000000       0x3c CMakeFiles/light_switch_proxy_client_nrf52840_xxAA_s140_6.0.0.dir/home/mazzer/work/nordic/sdk/nRF5_SDK_15.0.0/components/libraries/util/app_util_platform.c.obj
 .bss.m_in_critical_region
                0x0000000000000000        0x4 CMakeFiles/light_switch_proxy_client_nrf52840_xxAA_s140_6.0.0.dir/home/mazzer/work/nordic/sdk/nRF5_SDK_15.0.0/components/libraries/util/app_util_platform.c.obj
 .text          0x0000000000000000        0x0 CMakeFiles/light_switch_proxy_client_nrf52840_xxAA_s140_6.0.0.dir/home/mazzer/work/nordic/sdk/nRF5_SDK_15.0.0/components/ble/common/ble_advdata.c.obj
 .data          0x0000000000000000        0x0 CMakeFiles/light_switch_proxy_client_nrf52840_xxAA_s140_6.0.0.dir/home/mazzer/work/nordic/sdk/nRF5_SDK_15.0.0/components/ble/common/ble_advdata.c.obj
 .bss           0x0000000000000000        0x0 CMakeFiles/light_switch_proxy_client_nrf52840_xxAA_s140_6.0.0.dir/home/mazzer/work/nordic/sdk/nRF5_SDK_15.0.0/components/ble/common/ble_advdata.c.obj
 .text.ble_advdata_search
                0x0000000000000000       0x44 CMakeFiles/light_switch_proxy_client_nrf52840_xxAA_s140_6.0.0.dir/home/mazzer/work/nordic/sdk/nRF5_SDK_15.0.0/components/ble/common/ble_advdata.c.obj
 .text.ble_advdata_parse
                0x0000000000000000       0x4c CMakeFiles/light_switch_proxy_client_nrf52840_xxAA_s140_6.0.0.dir/home/mazzer/work/nordic/sdk/nRF5_SDK_15.0.0/components/ble/common/ble_advdata.c.obj
 .text.ble_advdata_name_find
                0x0000000000000000       0x74 CMakeFiles/light_switch_proxy_client_nrf52840_xxAA_s140_6.0.0.dir/home/mazzer/work/nordic/sdk/nRF5_SDK_15.0.0/components/ble/common/ble_advdata.c.obj
 .text.ble_advdata_short_name_find
                0x0000000000000000       0x78 CMakeFiles/light_switch_proxy_client_nrf52840_xxAA_s140_6.0.0.dir/home/mazzer/work/nordic/sdk/nRF5_SDK_15.0.0/components/ble/common/ble_advdata.c.obj
 .text.ble_advdata_uuid_find
                0x0000000000000000      0x104 CMakeFiles/light_switch_proxy_client_nrf52840_xxAA_s140_6.0.0.dir/home/mazzer/work/nordic/sdk/nRF5_SDK_15.0.0/components/ble/common/ble_advdata.c.obj
 .text.ble_advdata_appearance_find
                0x0000000000000000       0x6c CMakeFiles/light_switch_proxy_client_nrf52840_xxAA_s140_6.0.0.dir/home/mazzer/work/nordic/sdk/nRF5_SDK_15.0.0/components/ble/common/ble_advdata.c.obj
 .text          0x0000000000000000        0x0 CMakeFiles/light_switch_proxy_client_nrf52840_xxAA_s140_6.0.0.dir/home/mazzer/work/nordic/sdk/nRF5_SDK_15.0.0/components/libraries/experimental_section_vars/nrf_section_iter.c.obj
 .data          0x0000000000000000        0x0 CMakeFiles/light_switch_proxy_client_nrf52840_xxAA_s140_6.0.0.dir/home/mazzer/work/nordic/sdk/nRF5_SDK_15.0.0/components/libraries/experimental_section_vars/nrf_section_iter.c.obj
 .bss           0x0000000000000000        0x0 CMakeFiles/light_switch_proxy_client_nrf52840_xxAA_s140_6.0.0.dir/home/mazzer/work/nordic/sdk/nRF5_SDK_15.0.0/components/libraries/experimental_section_vars/nrf_section_iter.c.obj
 .text          0x0000000000000000        0x0 CMakeFiles/light_switch_proxy_client_nrf52840_xxAA_s140_6.0.0.dir/home/mazzer/work/nordic/sdk/nRF5_SDK_15.0.0/components/softdevice/common/nrf_sdh.c.obj
 .data          0x0000000000000000        0x0 CMakeFiles/light_switch_proxy_client_nrf52840_xxAA_s140_6.0.0.dir/home/mazzer/work/nordic/sdk/nRF5_SDK_15.0.0/components/softdevice/common/nrf_sdh.c.obj
 .bss           0x0000000000000000        0x0 CMakeFiles/light_switch_proxy_client_nrf52840_xxAA_s140_6.0.0.dir/home/mazzer/work/nordic/sdk/nRF5_SDK_15.0.0/components/softdevice/common/nrf_sdh.c.obj
 .text.nrf_sdh_request_continue
                0x0000000000000000       0x20 CMakeFiles/light_switch_proxy_client_nrf52840_xxAA_s140_6.0.0.dir/home/mazzer/work/nordic/sdk/nRF5_SDK_15.0.0/components/softdevice/common/nrf_sdh.c.obj
 .text.nrf_sdh_is_enabled
                0x0000000000000000        0xc CMakeFiles/light_switch_proxy_client_nrf52840_xxAA_s140_6.0.0.dir/home/mazzer/work/nordic/sdk/nRF5_SDK_15.0.0/components/softdevice/common/nrf_sdh.c.obj
 .text.nrf_sdh_suspend
                0x0000000000000000       0x38 CMakeFiles/light_switch_proxy_client_nrf52840_xxAA_s140_6.0.0.dir/home/mazzer/work/nordic/sdk/nRF5_SDK_15.0.0/components/softdevice/common/nrf_sdh.c.obj
 .text.nrf_sdh_resume
                0x0000000000000000       0x58 CMakeFiles/light_switch_proxy_client_nrf52840_xxAA_s140_6.0.0.dir/home/mazzer/work/nordic/sdk/nRF5_SDK_15.0.0/components/softdevice/common/nrf_sdh.c.obj
 .text.nrf_sdh_is_suspended
                0x0000000000000000       0x18 CMakeFiles/light_switch_proxy_client_nrf52840_xxAA_s140_6.0.0.dir/home/mazzer/work/nordic/sdk/nRF5_SDK_15.0.0/components/softdevice/common/nrf_sdh.c.obj
 .text.nrf_sdh_evts_poll
                0x0000000000000000       0x2c CMakeFiles/light_switch_proxy_client_nrf52840_xxAA_s140_6.0.0.dir/home/mazzer/work/nordic/sdk/nRF5_SDK_15.0.0/components/softdevice/common/nrf_sdh.c.obj
 .text          0x0000000000000000        0x0 CMakeFiles/light_switch_proxy_client_nrf52840_xxAA_s140_6.0.0.dir/home/mazzer/work/nordic/sdk/nRF5_SDK_15.0.0/components/softdevice/common/nrf_sdh_soc.c.obj
 .data          0x0000000000000000        0x0 CMakeFiles/light_switch_proxy_client_nrf52840_xxAA_s140_6.0.0.dir/home/mazzer/work/nordic/sdk/nRF5_SDK_15.0.0/components/softdevice/common/nrf_sdh_soc.c.obj
 .bss           0x0000000000000000        0x0 CMakeFiles/light_switch_proxy_client_nrf52840_xxAA_s140_6.0.0.dir/home/mazzer/work/nordic/sdk/nRF5_SDK_15.0.0/components/softdevice/common/nrf_sdh_soc.c.obj
 .text          0x0000000000000000        0x0 CMakeFiles/light_switch_proxy_client_nrf52840_xxAA_s140_6.0.0.dir/home/mazzer/work/nordic/sdk/nRF5_SDK_15.0.0/components/softdevice/common/nrf_sdh_ble.c.obj
 .data          0x0000000000000000        0x0 CMakeFiles/light_switch_proxy_client_nrf52840_xxAA_s140_6.0.0.dir/home/mazzer/work/nordic/sdk/nRF5_SDK_15.0.0/components/softdevice/common/nrf_sdh_ble.c.obj
 .bss           0x0000000000000000        0x0 CMakeFiles/light_switch_proxy_client_nrf52840_xxAA_s140_6.0.0.dir/home/mazzer/work/nordic/sdk/nRF5_SDK_15.0.0/components/softdevice/common/nrf_sdh_ble.c.obj
 .text.nrf_sdh_ble_app_ram_start_get
                0x0000000000000000       0x14 CMakeFiles/light_switch_proxy_client_nrf52840_xxAA_s140_6.0.0.dir/home/mazzer/work/nordic/sdk/nRF5_SDK_15.0.0/components/softdevice/common/nrf_sdh_ble.c.obj
 .rodata.m_ram_start
                0x0000000000000000        0x4 CMakeFiles/light_switch_proxy_client_nrf52840_xxAA_s140_6.0.0.dir/home/mazzer/work/nordic/sdk/nRF5_SDK_15.0.0/components/softdevice/common/nrf_sdh_ble.c.obj
 .text          0x0000000000000000        0x0 CMakeFiles/light_switch_proxy_client_nrf52840_xxAA_s140_6.0.0.dir/__/__/nrf_mesh_weak.c.obj
 .data          0x0000000000000000        0x0 CMakeFiles/light_switch_proxy_client_nrf52840_xxAA_s140_6.0.0.dir/__/__/nrf_mesh_weak.c.obj
 .bss           0x0000000000000000        0x0 CMakeFiles/light_switch_proxy_client_nrf52840_xxAA_s140_6.0.0.dir/__/__/nrf_mesh_weak.c.obj
 .text._weak_handler_ptr
                0x0000000000000000        0x4 CMakeFiles/light_switch_proxy_client_nrf52840_xxAA_s140_6.0.0.dir/__/__/nrf_mesh_weak.c.obj
 .text          0x0000000000000000        0x0 CMakeFiles/light_switch_proxy_client_nrf52840_xxAA_s140_6.0.0.dir/__/__/common/src/app_error_weak.c.obj
 .data          0x0000000000000000        0x0 CMakeFiles/light_switch_proxy_client_nrf52840_xxAA_s140_6.0.0.dir/__/__/common/src/app_error_weak.c.obj
 .bss           0x0000000000000000        0x0 CMakeFiles/light_switch_proxy_client_nrf52840_xxAA_s140_6.0.0.dir/__/__/common/src/app_error_weak.c.obj
 .text          0x0000000000000000        0x0 CMakeFiles/light_switch_proxy_client_nrf52840_xxAA_s140_6.0.0.dir/__/__/common/src/assertion_handler_weak.c.obj
 .data          0x0000000000000000        0x0 CMakeFiles/light_switch_proxy_client_nrf52840_xxAA_s140_6.0.0.dir/__/__/common/src/assertion_handler_weak.c.obj
 .bss           0x0000000000000000        0x0 CMakeFiles/light_switch_proxy_client_nrf52840_xxAA_s140_6.0.0.dir/__/__/common/src/assertion_handler_weak.c.obj
 .text          0x0000000000000000        0x0 CMakeFiles/light_switch_proxy_client_nrf52840_xxAA_s140_6.0.0.dir/__/__/__/mesh/core/src/internal_event.c.obj
 .data          0x0000000000000000        0x0 CMakeFiles/light_switch_proxy_client_nrf52840_xxAA_s140_6.0.0.dir/__/__/__/mesh/core/src/internal_event.c.obj
 .bss           0x0000000000000000        0x0 CMakeFiles/light_switch_proxy_client_nrf52840_xxAA_s140_6.0.0.dir/__/__/__/mesh/core/src/internal_event.c.obj
 .debug_info    0x0000000000000000      0x8eb CMakeFiles/light_switch_proxy_client_nrf52840_xxAA_s140_6.0.0.dir/__/__/__/mesh/core/src/internal_event.c.obj
 .debug_abbrev  0x0000000000000000      0x192 CMakeFiles/light_switch_proxy_client_nrf52840_xxAA_s140_6.0.0.dir/__/__/__/mesh/core/src/internal_event.c.obj
 .debug_aranges
                0x0000000000000000       0x18 CMakeFiles/light_switch_proxy_client_nrf52840_xxAA_s140_6.0.0.dir/__/__/__/mesh/core/src/internal_event.c.obj
 .debug_line    0x0000000000000000      0x1dc CMakeFiles/light_switch_proxy_client_nrf52840_xxAA_s140_6.0.0.dir/__/__/__/mesh/core/src/internal_event.c.obj
 .debug_str     0x0000000000000000      0x678 CMakeFiles/light_switch_proxy_client_nrf52840_xxAA_s140_6.0.0.dir/__/__/__/mesh/core/src/internal_event.c.obj
 .comment       0x0000000000000000       0x7f CMakeFiles/light_switch_proxy_client_nrf52840_xxAA_s140_6.0.0.dir/__/__/__/mesh/core/src/internal_event.c.obj
 .ARM.attributes
                0x0000000000000000       0x39 CMakeFiles/light_switch_proxy_client_nrf52840_xxAA_s140_6.0.0.dir/__/__/__/mesh/core/src/internal_event.c.obj
 .text          0x0000000000000000        0x0 CMakeFiles/light_switch_proxy_client_nrf52840_xxAA_s140_6.0.0.dir/__/__/__/mesh/core/src/nrf_mesh_configure.c.obj
 .data          0x0000000000000000        0x0 CMakeFiles/light_switch_proxy_client_nrf52840_xxAA_s140_6.0.0.dir/__/__/__/mesh/core/src/nrf_mesh_configure.c.obj
 .bss           0x0000000000000000        0x0 CMakeFiles/light_switch_proxy_client_nrf52840_xxAA_s140_6.0.0.dir/__/__/__/mesh/core/src/nrf_mesh_configure.c.obj
 .text          0x0000000000000000        0x0 CMakeFiles/light_switch_proxy_client_nrf52840_xxAA_s140_6.0.0.dir/__/__/__/mesh/core/src/aes.c.obj
 .data          0x0000000000000000        0x0 CMakeFiles/light_switch_proxy_client_nrf52840_xxAA_s140_6.0.0.dir/__/__/__/mesh/core/src/aes.c.obj
 .bss           0x0000000000000000        0x0 CMakeFiles/light_switch_proxy_client_nrf52840_xxAA_s140_6.0.0.dir/__/__/__/mesh/core/src/aes.c.obj
 .text          0x0000000000000000        0x0 CMakeFiles/light_switch_proxy_client_nrf52840_xxAA_s140_6.0.0.dir/__/__/__/mesh/core/src/msg_cache.c.obj
 .data          0x0000000000000000        0x0 CMakeFiles/light_switch_proxy_client_nrf52840_xxAA_s140_6.0.0.dir/__/__/__/mesh/core/src/msg_cache.c.obj
 .bss           0x0000000000000000        0x0 CMakeFiles/light_switch_proxy_client_nrf52840_xxAA_s140_6.0.0.dir/__/__/__/mesh/core/src/msg_cache.c.obj
 .text.msg_cache_clear
                0x0000000000000000       0x18 CMakeFiles/light_switch_proxy_client_nrf52840_xxAA_s140_6.0.0.dir/__/__/__/mesh/core/src/msg_cache.c.obj
 .text          0x0000000000000000        0x0 CMakeFiles/light_switch_proxy_client_nrf52840_xxAA_s140_6.0.0.dir/__/__/__/mesh/core/src/transport.c.obj
 .data          0x0000000000000000        0x0 CMakeFiles/light_switch_proxy_client_nrf52840_xxAA_s140_6.0.0.dir/__/__/__/mesh/core/src/transport.c.obj
 .bss           0x0000000000000000        0x0 CMakeFiles/light_switch_proxy_client_nrf52840_xxAA_s140_6.0.0.dir/__/__/__/mesh/core/src/transport.c.obj
 .text.transport_sar_mem_funcs_set
                0x0000000000000000       0x64 CMakeFiles/light_switch_proxy_client_nrf52840_xxAA_s140_6.0.0.dir/__/__/__/mesh/core/src/transport.c.obj
 .text.transport_sar_mem_funcs_reset
                0x0000000000000000       0x30 CMakeFiles/light_switch_proxy_client_nrf52840_xxAA_s140_6.0.0.dir/__/__/__/mesh/core/src/transport.c.obj
 .text          0x0000000000000000        0x0 CMakeFiles/light_switch_proxy_client_nrf52840_xxAA_s140_6.0.0.dir/__/__/__/mesh/core/src/event.c.obj
 .data          0x0000000000000000        0x0 CMakeFiles/light_switch_proxy_client_nrf52840_xxAA_s140_6.0.0.dir/__/__/__/mesh/core/src/event.c.obj
 .bss           0x0000000000000000        0x0 CMakeFiles/light_switch_proxy_client_nrf52840_xxAA_s140_6.0.0.dir/__/__/__/mesh/core/src/event.c.obj
 .text          0x0000000000000000        0x0 CMakeFiles/light_switch_proxy_client_nrf52840_xxAA_s140_6.0.0.dir/__/__/__/mesh/core/src/packet_buffer.c.obj
 .data          0x0000000000000000        0x0 CMakeFiles/light_switch_proxy_client_nrf52840_xxAA_s140_6.0.0.dir/__/__/__/mesh/core/src/packet_buffer.c.obj
 .bss           0x0000000000000000        0x0 CMakeFiles/light_switch_proxy_client_nrf52840_xxAA_s140_6.0.0.dir/__/__/__/mesh/core/src/packet_buffer.c.obj
 .text.packet_buffer_max_packet_len_get
                0x0000000000000000       0x24 CMakeFiles/light_switch_proxy_client_nrf52840_xxAA_s140_6.0.0.dir/__/__/__/mesh/core/src/packet_buffer.c.obj
 .text          0x0000000000000000        0x0 CMakeFiles/light_switch_proxy_client_nrf52840_xxAA_s140_6.0.0.dir/__/__/__/mesh/core/src/flash_manager_defrag.c.obj
 .data          0x0000000000000000        0x0 CMakeFiles/light_switch_proxy_client_nrf52840_xxAA_s140_6.0.0.dir/__/__/__/mesh/core/src/flash_manager_defrag.c.obj
 .bss           0x0000000000000000        0x0 CMakeFiles/light_switch_proxy_client_nrf52840_xxAA_s140_6.0.0.dir/__/__/__/mesh/core/src/flash_manager_defrag.c.obj
 .text.erase_source
                0x0000000000000000       0x34 CMakeFiles/light_switch_proxy_client_nrf52840_xxAA_s140_6.0.0.dir/__/__/__/mesh/core/src/flash_manager_defrag.c.obj
 .text.erase_recovery_area
                0x0000000000000000       0x34 CMakeFiles/light_switch_proxy_client_nrf52840_xxAA_s140_6.0.0.dir/__/__/__/mesh/core/src/flash_manager_defrag.c.obj
 .text.write_back
                0x0000000000000000       0x44 CMakeFiles/light_switch_proxy_client_nrf52840_xxAA_s140_6.0.0.dir/__/__/__/mesh/core/src/flash_manager_defrag.c.obj
 .text.write_defrag_start_pointer
                0x0000000000000000       0x38 CMakeFiles/light_switch_proxy_client_nrf52840_xxAA_s140_6.0.0.dir/__/__/__/mesh/core/src/flash_manager_defrag.c.obj
 .text.copy_metadata
                0x0000000000000000       0x58 CMakeFiles/light_switch_proxy_client_nrf52840_xxAA_s140_6.0.0.dir/__/__/__/mesh/core/src/flash_manager_defrag.c.obj
 .text.seal_storage_page
                0x0000000000000000       0x70 CMakeFiles/light_switch_proxy_client_nrf52840_xxAA_s140_6.0.0.dir/__/__/__/mesh/core/src/flash_manager_defrag.c.obj
 .text.post_process
                0x0000000000000000       0x64 CMakeFiles/light_switch_proxy_client_nrf52840_xxAA_s140_6.0.0.dir/__/__/__/mesh/core/src/flash_manager_defrag.c.obj
 .text.check_for_invalid_entries
                0x0000000000000000       0x40 CMakeFiles/light_switch_proxy_client_nrf52840_xxAA_s140_6.0.0.dir/__/__/__/mesh/core/src/flash_manager_defrag.c.obj
 .text.execute_procedure_step
                0x0000000000000000       0x98 CMakeFiles/light_switch_proxy_client_nrf52840_xxAA_s140_6.0.0.dir/__/__/__/mesh/core/src/flash_manager_defrag.c.obj
 .text.on_flash_op_end
                0x0000000000000000       0x48 CMakeFiles/light_switch_proxy_client_nrf52840_xxAA_s140_6.0.0.dir/__/__/__/mesh/core/src/flash_manager_defrag.c.obj
 .text.invalidate_duplicate_entries
                0x0000000000000000      0x150 CMakeFiles/light_switch_proxy_client_nrf52840_xxAA_s140_6.0.0.dir/__/__/__/mesh/core/src/flash_manager_defrag.c.obj
 .text.backup_entries
                0x0000000000000000      0x1c8 CMakeFiles/light_switch_proxy_client_nrf52840_xxAA_s140_6.0.0.dir/__/__/__/mesh/core/src/flash_manager_defrag.c.obj
 .text.flash_manager_defrag_init
                0x0000000000000000       0x6c CMakeFiles/light_switch_proxy_client_nrf52840_xxAA_s140_6.0.0.dir/__/__/__/mesh/core/src/flash_manager_defrag.c.obj
 .text.flash_manager_defragging
                0x0000000000000000       0x44 CMakeFiles/light_switch_proxy_client_nrf52840_xxAA_s140_6.0.0.dir/__/__/__/mesh/core/src/flash_manager_defrag.c.obj
 .text.flash_manager_defrag
                0x0000000000000000       0x48 CMakeFiles/light_switch_proxy_client_nrf52840_xxAA_s140_6.0.0.dir/__/__/__/mesh/core/src/flash_manager_defrag.c.obj
 .text.flash_manager_defrag_recovery_page_get
                0x0000000000000000        0xc CMakeFiles/light_switch_proxy_client_nrf52840_xxAA_s140_6.0.0.dir/__/__/__/mesh/core/src/flash_manager_defrag.c.obj
 .bss.m_token   0x0000000000000000        0x2 CMakeFiles/light_switch_proxy_client_nrf52840_xxAA_s140_6.0.0.dir/__/__/__/mesh/core/src/flash_manager_defrag.c.obj
 .bss.mp_recovery_area
                0x0000000000000000        0x4 CMakeFiles/light_switch_proxy_client_nrf52840_xxAA_s140_6.0.0.dir/__/__/__/mesh/core/src/flash_manager_defrag.c.obj
 .bss.p_null_ptr.10696
                0x0000000000000000        0x4 CMakeFiles/light_switch_proxy_client_nrf52840_xxAA_s140_6.0.0.dir/__/__/__/mesh/core/src/flash_manager_defrag.c.obj
 .rodata.m_procedure_steps
                0x0000000000000000       0x28 CMakeFiles/light_switch_proxy_client_nrf52840_xxAA_s140_6.0.0.dir/__/__/__/mesh/core/src/flash_manager_defrag.c.obj
 .text          0x0000000000000000        0x0 CMakeFiles/light_switch_proxy_client_nrf52840_xxAA_s140_6.0.0.dir/__/__/__/mesh/core/src/fifo.c.obj
 .data          0x0000000000000000        0x0 CMakeFiles/light_switch_proxy_client_nrf52840_xxAA_s140_6.0.0.dir/__/__/__/mesh/core/src/fifo.c.obj
 .bss           0x0000000000000000        0x0 CMakeFiles/light_switch_proxy_client_nrf52840_xxAA_s140_6.0.0.dir/__/__/__/mesh/core/src/fifo.c.obj
 .text.fifo_peek_at
                0x0000000000000000       0x58 CMakeFiles/light_switch_proxy_client_nrf52840_xxAA_s140_6.0.0.dir/__/__/__/mesh/core/src/fifo.c.obj
 .text.fifo_peek
                0x0000000000000000       0x54 CMakeFiles/light_switch_proxy_client_nrf52840_xxAA_s140_6.0.0.dir/__/__/__/mesh/core/src/fifo.c.obj
 .text.fifo_flush
                0x0000000000000000        0x8 CMakeFiles/light_switch_proxy_client_nrf52840_xxAA_s140_6.0.0.dir/__/__/__/mesh/core/src/fifo.c.obj
 .text.fifo_get_len
                0x0000000000000000        0x8 CMakeFiles/light_switch_proxy_client_nrf52840_xxAA_s140_6.0.0.dir/__/__/__/mesh/core/src/fifo.c.obj
 .text.fifo_is_full
                0x0000000000000000       0x14 CMakeFiles/light_switch_proxy_client_nrf52840_xxAA_s140_6.0.0.dir/__/__/__/mesh/core/src/fifo.c.obj
 .text.fifo_is_empty
                0x0000000000000000       0x10 CMakeFiles/light_switch_proxy_client_nrf52840_xxAA_s140_6.0.0.dir/__/__/__/mesh/core/src/fifo.c.obj
 .text          0x0000000000000000        0x0 CMakeFiles/light_switch_proxy_client_nrf52840_xxAA_s140_6.0.0.dir/__/__/__/mesh/core/src/nrf_flash.c.obj
 .data          0x0000000000000000        0x0 CMakeFiles/light_switch_proxy_client_nrf52840_xxAA_s140_6.0.0.dir/__/__/__/mesh/core/src/nrf_flash.c.obj
 .bss           0x0000000000000000        0x0 CMakeFiles/light_switch_proxy_client_nrf52840_xxAA_s140_6.0.0.dir/__/__/__/mesh/core/src/nrf_flash.c.obj
 .text.nrf_flash_erase
                0x0000000000000000       0x5c CMakeFiles/light_switch_proxy_client_nrf52840_xxAA_s140_6.0.0.dir/__/__/__/mesh/core/src/nrf_flash.c.obj
 .text.nrf_flash_write
                0x0000000000000000       0x70 CMakeFiles/light_switch_proxy_client_nrf52840_xxAA_s140_6.0.0.dir/__/__/__/mesh/core/src/nrf_flash.c.obj
 .debug_info    0x0000000000000000      0xb70 CMakeFiles/light_switch_proxy_client_nrf52840_xxAA_s140_6.0.0.dir/__/__/__/mesh/core/src/nrf_flash.c.obj
 .debug_abbrev  0x0000000000000000      0x22d CMakeFiles/light_switch_proxy_client_nrf52840_xxAA_s140_6.0.0.dir/__/__/__/mesh/core/src/nrf_flash.c.obj
 .debug_loc     0x0000000000000000      0x194 CMakeFiles/light_switch_proxy_client_nrf52840_xxAA_s140_6.0.0.dir/__/__/__/mesh/core/src/nrf_flash.c.obj
 .debug_aranges
                0x0000000000000000       0x28 CMakeFiles/light_switch_proxy_client_nrf52840_xxAA_s140_6.0.0.dir/__/__/__/mesh/core/src/nrf_flash.c.obj
 .debug_ranges  0x0000000000000000       0x30 CMakeFiles/light_switch_proxy_client_nrf52840_xxAA_s140_6.0.0.dir/__/__/__/mesh/core/src/nrf_flash.c.obj
 .debug_line    0x0000000000000000      0x280 CMakeFiles/light_switch_proxy_client_nrf52840_xxAA_s140_6.0.0.dir/__/__/__/mesh/core/src/nrf_flash.c.obj
 .debug_str     0x0000000000000000      0x76a CMakeFiles/light_switch_proxy_client_nrf52840_xxAA_s140_6.0.0.dir/__/__/__/mesh/core/src/nrf_flash.c.obj
 .comment       0x0000000000000000       0x7f CMakeFiles/light_switch_proxy_client_nrf52840_xxAA_s140_6.0.0.dir/__/__/__/mesh/core/src/nrf_flash.c.obj
 .debug_frame   0x0000000000000000       0x3c CMakeFiles/light_switch_proxy_client_nrf52840_xxAA_s140_6.0.0.dir/__/__/__/mesh/core/src/nrf_flash.c.obj
 .ARM.attributes
                0x0000000000000000       0x39 CMakeFiles/light_switch_proxy_client_nrf52840_xxAA_s140_6.0.0.dir/__/__/__/mesh/core/src/nrf_flash.c.obj
 .text          0x0000000000000000        0x0 CMakeFiles/light_switch_proxy_client_nrf52840_xxAA_s140_6.0.0.dir/__/__/__/mesh/core/src/packet_mgr.c.obj
 .data          0x0000000000000000        0x0 CMakeFiles/light_switch_proxy_client_nrf52840_xxAA_s140_6.0.0.dir/__/__/__/mesh/core/src/packet_mgr.c.obj
 .bss           0x0000000000000000        0x0 CMakeFiles/light_switch_proxy_client_nrf52840_xxAA_s140_6.0.0.dir/__/__/__/mesh/core/src/packet_mgr.c.obj
 .text.packet_mgr_alloc
                0x0000000000000000      0x1a4 CMakeFiles/light_switch_proxy_client_nrf52840_xxAA_s140_6.0.0.dir/__/__/__/mesh/core/src/packet_mgr.c.obj
 .text.packet_mgr_free
                0x0000000000000000       0x5c CMakeFiles/light_switch_proxy_client_nrf52840_xxAA_s140_6.0.0.dir/__/__/__/mesh/core/src/packet_mgr.c.obj
 .text.packet_mgr_get_free_space
                0x0000000000000000       0x1c CMakeFiles/light_switch_proxy_client_nrf52840_xxAA_s140_6.0.0.dir/__/__/__/mesh/core/src/packet_mgr.c.obj
 .text.packet_mgr_refcount_get
                0x0000000000000000        0x8 CMakeFiles/light_switch_proxy_client_nrf52840_xxAA_s140_6.0.0.dir/__/__/__/mesh/core/src/packet_mgr.c.obj
 .text.packet_mgr_size_get
                0x0000000000000000        0x8 CMakeFiles/light_switch_proxy_client_nrf52840_xxAA_s140_6.0.0.dir/__/__/__/mesh/core/src/packet_mgr.c.obj
 .text          0x0000000000000000        0x0 CMakeFiles/light_switch_proxy_client_nrf52840_xxAA_s140_6.0.0.dir/__/__/__/mesh/core/src/net_state.c.obj
 .data          0x0000000000000000        0x0 CMakeFiles/light_switch_proxy_client_nrf52840_xxAA_s140_6.0.0.dir/__/__/__/mesh/core/src/net_state.c.obj
 .bss           0x0000000000000000        0x0 CMakeFiles/light_switch_proxy_client_nrf52840_xxAA_s140_6.0.0.dir/__/__/__/mesh/core/src/net_state.c.obj
 .text.net_state_flash_area_get
                0x0000000000000000        0x4 CMakeFiles/light_switch_proxy_client_nrf52840_xxAA_s140_6.0.0.dir/__/__/__/mesh/core/src/net_state.c.obj
 .text.net_state_iv_update_start
                0x0000000000000000       0x64 CMakeFiles/light_switch_proxy_client_nrf52840_xxAA_s140_6.0.0.dir/__/__/__/mesh/core/src/net_state.c.obj
 .text.net_state_iv_update_test_mode_set
                0x0000000000000000        0xc CMakeFiles/light_switch_proxy_client_nrf52840_xxAA_s140_6.0.0.dir/__/__/__/mesh/core/src/net_state.c.obj
 .text.net_state_test_mode_transition_run
                0x0000000000000000       0xe0 CMakeFiles/light_switch_proxy_client_nrf52840_xxAA_s140_6.0.0.dir/__/__/__/mesh/core/src/net_state.c.obj
 .text          0x0000000000000000        0x0 CMakeFiles/light_switch_proxy_client_nrf52840_xxAA_s140_6.0.0.dir/__/__/__/mesh/core/src/mesh_flash.c.obj
 .data          0x0000000000000000        0x0 CMakeFiles/light_switch_proxy_client_nrf52840_xxAA_s140_6.0.0.dir/__/__/__/mesh/core/src/mesh_flash.c.obj
 .bss           0x0000000000000000        0x0 CMakeFiles/light_switch_proxy_client_nrf52840_xxAA_s140_6.0.0.dir/__/__/__/mesh/core/src/mesh_flash.c.obj
 .text.flash_op_start
                0x0000000000000000      0x214 CMakeFiles/light_switch_proxy_client_nrf52840_xxAA_s140_6.0.0.dir/__/__/__/mesh/core/src/mesh_flash.c.obj
 .text.mesh_flash_user_callback_set
                0x0000000000000000       0x20 CMakeFiles/light_switch_proxy_client_nrf52840_xxAA_s140_6.0.0.dir/__/__/__/mesh/core/src/mesh_flash.c.obj
 .text.mesh_flash_op_push
                0x0000000000000000      0x198 CMakeFiles/light_switch_proxy_client_nrf52840_xxAA_s140_6.0.0.dir/__/__/__/mesh/core/src/mesh_flash.c.obj
 .text.mesh_flash_op_available_slots
                0x0000000000000000       0x2c CMakeFiles/light_switch_proxy_client_nrf52840_xxAA_s140_6.0.0.dir/__/__/__/mesh/core/src/mesh_flash.c.obj
 .text.mesh_flash_in_progress
                0x0000000000000000       0x34 CMakeFiles/light_switch_proxy_client_nrf52840_xxAA_s140_6.0.0.dir/__/__/__/mesh/core/src/mesh_flash.c.obj
 .text.mesh_flash_set_suspended
                0x0000000000000000      0x21c CMakeFiles/light_switch_proxy_client_nrf52840_xxAA_s140_6.0.0.dir/__/__/__/mesh/core/src/mesh_flash.c.obj
 .bss.m_suspended
                0x0000000000000000        0x1 CMakeFiles/light_switch_proxy_client_nrf52840_xxAA_s140_6.0.0.dir/__/__/__/mesh/core/src/mesh_flash.c.obj
 .bss.suspend_count.10578
                0x0000000000000000        0x4 CMakeFiles/light_switch_proxy_client_nrf52840_xxAA_s140_6.0.0.dir/__/__/__/mesh/core/src/mesh_flash.c.obj
 .text          0x0000000000000000        0x0 CMakeFiles/light_switch_proxy_client_nrf52840_xxAA_s140_6.0.0.dir/__/__/__/mesh/core/src/nrf_mesh_utils.c.obj
 .data          0x0000000000000000        0x0 CMakeFiles/light_switch_proxy_client_nrf52840_xxAA_s140_6.0.0.dir/__/__/__/mesh/core/src/nrf_mesh_utils.c.obj
 .bss           0x0000000000000000        0x0 CMakeFiles/light_switch_proxy_client_nrf52840_xxAA_s140_6.0.0.dir/__/__/__/mesh/core/src/nrf_mesh_utils.c.obj
 .text.nrf_mesh_rand_get
                0x0000000000000000       0x10 CMakeFiles/light_switch_proxy_client_nrf52840_xxAA_s140_6.0.0.dir/__/__/__/mesh/core/src/nrf_mesh_utils.c.obj
 .text.nrf_mesh_gap_address_type_get
                0x0000000000000000       0x34 CMakeFiles/light_switch_proxy_client_nrf52840_xxAA_s140_6.0.0.dir/__/__/__/mesh/core/src/nrf_mesh_utils.c.obj
 .text          0x0000000000000000        0x0 CMakeFiles/light_switch_proxy_client_nrf52840_xxAA_s140_6.0.0.dir/__/__/__/mesh/core/src/nrf_mesh.c.obj
 .data          0x0000000000000000        0x0 CMakeFiles/light_switch_proxy_client_nrf52840_xxAA_s140_6.0.0.dir/__/__/__/mesh/core/src/nrf_mesh.c.obj
 .bss           0x0000000000000000        0x0 CMakeFiles/light_switch_proxy_client_nrf52840_xxAA_s140_6.0.0.dir/__/__/__/mesh/core/src/nrf_mesh.c.obj
 .text.nrf_mesh_process
                0x0000000000000000        0x4 CMakeFiles/light_switch_proxy_client_nrf52840_xxAA_s140_6.0.0.dir/__/__/__/mesh/core/src/nrf_mesh.c.obj
 .text.nrf_mesh_evt_handler_remove
                0x0000000000000000        0x4 CMakeFiles/light_switch_proxy_client_nrf52840_xxAA_s140_6.0.0.dir/__/__/__/mesh/core/src/nrf_mesh.c.obj
 .text.nrf_mesh_rx_cb_set
                0x0000000000000000        0xc CMakeFiles/light_switch_proxy_client_nrf52840_xxAA_s140_6.0.0.dir/__/__/__/mesh/core/src/nrf_mesh.c.obj
 .text.nrf_mesh_rx_cb_clear
                0x0000000000000000        0xc CMakeFiles/light_switch_proxy_client_nrf52840_xxAA_s140_6.0.0.dir/__/__/__/mesh/core/src/nrf_mesh.c.obj
 .text          0x0000000000000000        0x0 CMakeFiles/light_switch_proxy_client_nrf52840_xxAA_s140_6.0.0.dir/__/__/__/mesh/core/src/queue.c.obj
 .data          0x0000000000000000        0x0 CMakeFiles/light_switch_proxy_client_nrf52840_xxAA_s140_6.0.0.dir/__/__/__/mesh/core/src/queue.c.obj
 .bss           0x0000000000000000        0x0 CMakeFiles/light_switch_proxy_client_nrf52840_xxAA_s140_6.0.0.dir/__/__/__/mesh/core/src/queue.c.obj
 .text          0x0000000000000000        0x0 CMakeFiles/light_switch_proxy_client_nrf52840_xxAA_s140_6.0.0.dir/__/__/__/mesh/core/src/hal.c.obj
 .data          0x0000000000000000        0x0 CMakeFiles/light_switch_proxy_client_nrf52840_xxAA_s140_6.0.0.dir/__/__/__/mesh/core/src/hal.c.obj
 .bss           0x0000000000000000        0x0 CMakeFiles/light_switch_proxy_client_nrf52840_xxAA_s140_6.0.0.dir/__/__/__/mesh/core/src/hal.c.obj
 .text          0x0000000000000000        0x0 CMakeFiles/light_switch_proxy_client_nrf52840_xxAA_s140_6.0.0.dir/__/__/__/mesh/core/src/aes_cmac.c.obj
 .data          0x0000000000000000        0x0 CMakeFiles/light_switch_proxy_client_nrf52840_xxAA_s140_6.0.0.dir/__/__/__/mesh/core/src/aes_cmac.c.obj
 .bss           0x0000000000000000        0x0 CMakeFiles/light_switch_proxy_client_nrf52840_xxAA_s140_6.0.0.dir/__/__/__/mesh/core/src/aes_cmac.c.obj
 .text          0x0000000000000000        0x0 CMakeFiles/light_switch_proxy_client_nrf52840_xxAA_s140_6.0.0.dir/__/__/__/mesh/core/src/timer_scheduler.c.obj
 .data          0x0000000000000000        0x0 CMakeFiles/light_switch_proxy_client_nrf52840_xxAA_s140_6.0.0.dir/__/__/__/mesh/core/src/timer_scheduler.c.obj
 .bss           0x0000000000000000        0x0 CMakeFiles/light_switch_proxy_client_nrf52840_xxAA_s140_6.0.0.dir/__/__/__/mesh/core/src/timer_scheduler.c.obj
 .text          0x0000000000000000        0x0 CMakeFiles/light_switch_proxy_client_nrf52840_xxAA_s140_6.0.0.dir/__/__/__/mesh/core/src/timer.c.obj
 .data          0x0000000000000000        0x0 CMakeFiles/light_switch_proxy_client_nrf52840_xxAA_s140_6.0.0.dir/__/__/__/mesh/core/src/timer.c.obj
 .bss           0x0000000000000000        0x0 CMakeFiles/light_switch_proxy_client_nrf52840_xxAA_s140_6.0.0.dir/__/__/__/mesh/core/src/timer.c.obj
 .text.timer_order_cb_ppi
                0x0000000000000000       0xd8 CMakeFiles/light_switch_proxy_client_nrf52840_xxAA_s140_6.0.0.dir/__/__/__/mesh/core/src/timer.c.obj
 .text.timer_order_ppi
                0x0000000000000000       0xcc CMakeFiles/light_switch_proxy_client_nrf52840_xxAA_s140_6.0.0.dir/__/__/__/mesh/core/src/timer.c.obj
 .text.timer_abort
                0x0000000000000000       0x84 CMakeFiles/light_switch_proxy_client_nrf52840_xxAA_s140_6.0.0.dir/__/__/__/mesh/core/src/timer.c.obj
 .text          0x0000000000000000        0x0 CMakeFiles/light_switch_proxy_client_nrf52840_xxAA_s140_6.0.0.dir/__/__/__/mesh/core/src/ticker.c.obj
 .data          0x0000000000000000        0x0 CMakeFiles/light_switch_proxy_client_nrf52840_xxAA_s140_6.0.0.dir/__/__/__/mesh/core/src/ticker.c.obj
 .bss           0x0000000000000000        0x0 CMakeFiles/light_switch_proxy_client_nrf52840_xxAA_s140_6.0.0.dir/__/__/__/mesh/core/src/ticker.c.obj
 .text.ticker_get
                0x0000000000000000        0xc CMakeFiles/light_switch_proxy_client_nrf52840_xxAA_s140_6.0.0.dir/__/__/__/mesh/core/src/ticker.c.obj
 .text          0x0000000000000000        0x0 CMakeFiles/light_switch_proxy_client_nrf52840_xxAA_s140_6.0.0.dir/__/__/__/mesh/core/src/rand.c.obj
 .data          0x0000000000000000        0x0 CMakeFiles/light_switch_proxy_client_nrf52840_xxAA_s140_6.0.0.dir/__/__/__/mesh/core/src/rand.c.obj
 .bss           0x0000000000000000        0x0 CMakeFiles/light_switch_proxy_client_nrf52840_xxAA_s140_6.0.0.dir/__/__/__/mesh/core/src/rand.c.obj
 .text          0x0000000000000000        0x0 CMakeFiles/light_switch_proxy_client_nrf52840_xxAA_s140_6.0.0.dir/__/__/__/mesh/core/src/nrf_mesh_opt.c.obj
 .data          0x0000000000000000        0x0 CMakeFiles/light_switch_proxy_client_nrf52840_xxAA_s140_6.0.0.dir/__/__/__/mesh/core/src/nrf_mesh_opt.c.obj
 .bss           0x0000000000000000        0x0 CMakeFiles/light_switch_proxy_client_nrf52840_xxAA_s140_6.0.0.dir/__/__/__/mesh/core/src/nrf_mesh_opt.c.obj
 .text          0x0000000000000000        0x0 CMakeFiles/light_switch_proxy_client_nrf52840_xxAA_s140_6.0.0.dir/__/__/__/mesh/core/src/timeslot.c.obj
 .data          0x0000000000000000        0x0 CMakeFiles/light_switch_proxy_client_nrf52840_xxAA_s140_6.0.0.dir/__/__/__/mesh/core/src/timeslot.c.obj
 .bss           0x0000000000000000        0x0 CMakeFiles/light_switch_proxy_client_nrf52840_xxAA_s140_6.0.0.dir/__/__/__/mesh/core/src/timeslot.c.obj
 .text.timeslot_restart
                0x0000000000000000       0x30 CMakeFiles/light_switch_proxy_client_nrf52840_xxAA_s140_6.0.0.dir/__/__/__/mesh/core/src/timeslot.c.obj
 .text.timeslot_end_time_get
                0x0000000000000000       0x30 CMakeFiles/light_switch_proxy_client_nrf52840_xxAA_s140_6.0.0.dir/__/__/__/mesh/core/src/timeslot.c.obj
 .text.timeslot_is_in_ts
                0x0000000000000000        0xc CMakeFiles/light_switch_proxy_client_nrf52840_xxAA_s140_6.0.0.dir/__/__/__/mesh/core/src/timeslot.c.obj
 .text          0x0000000000000000        0x0 CMakeFiles/light_switch_proxy_client_nrf52840_xxAA_s140_6.0.0.dir/__/__/__/mesh/core/src/bearer_event.c.obj
 .data          0x0000000000000000        0x0 CMakeFiles/light_switch_proxy_client_nrf52840_xxAA_s140_6.0.0.dir/__/__/__/mesh/core/src/bearer_event.c.obj
 .bss           0x0000000000000000        0x0 CMakeFiles/light_switch_proxy_client_nrf52840_xxAA_s140_6.0.0.dir/__/__/__/mesh/core/src/bearer_event.c.obj
 .text.bearer_event_generic_post
                0x0000000000000000       0x50 CMakeFiles/light_switch_proxy_client_nrf52840_xxAA_s140_6.0.0.dir/__/__/__/mesh/core/src/bearer_event.c.obj
 .text.bearer_event_timer_sch_post
                0x0000000000000000       0x54 CMakeFiles/light_switch_proxy_client_nrf52840_xxAA_s140_6.0.0.dir/__/__/__/mesh/core/src/bearer_event.c.obj
 .text.bearer_event_in_correct_irq_priority
                0x0000000000000000       0x58 CMakeFiles/light_switch_proxy_client_nrf52840_xxAA_s140_6.0.0.dir/__/__/__/mesh/core/src/bearer_event.c.obj
 .text          0x0000000000000000        0x0 CMakeFiles/light_switch_proxy_client_nrf52840_xxAA_s140_6.0.0.dir/__/__/__/mesh/core/src/enc.c.obj
 .data          0x0000000000000000        0x0 CMakeFiles/light_switch_proxy_client_nrf52840_xxAA_s140_6.0.0.dir/__/__/__/mesh/core/src/enc.c.obj
 .bss           0x0000000000000000        0x0 CMakeFiles/light_switch_proxy_client_nrf52840_xxAA_s140_6.0.0.dir/__/__/__/mesh/core/src/enc.c.obj
 .text.enc_key_generate
                0x0000000000000000        0x8 CMakeFiles/light_switch_proxy_client_nrf52840_xxAA_s140_6.0.0.dir/__/__/__/mesh/core/src/enc.c.obj
 .text          0x0000000000000000        0x0 CMakeFiles/light_switch_proxy_client_nrf52840_xxAA_s140_6.0.0.dir/__/__/__/mesh/core/src/network.c.obj
 .data          0x0000000000000000        0x0 CMakeFiles/light_switch_proxy_client_nrf52840_xxAA_s140_6.0.0.dir/__/__/__/mesh/core/src/network.c.obj
 .bss           0x0000000000000000        0x0 CMakeFiles/light_switch_proxy_client_nrf52840_xxAA_s140_6.0.0.dir/__/__/__/mesh/core/src/network.c.obj
 .text.network_packet_discard
                0x0000000000000000       0x28 CMakeFiles/light_switch_proxy_client_nrf52840_xxAA_s140_6.0.0.dir/__/__/__/mesh/core/src/network.c.obj
 .text          0x0000000000000000        0x0 CMakeFiles/light_switch_proxy_client_nrf52840_xxAA_s140_6.0.0.dir/__/__/__/mesh/core/src/net_packet.c.obj
 .data          0x0000000000000000        0x0 CMakeFiles/light_switch_proxy_client_nrf52840_xxAA_s140_6.0.0.dir/__/__/__/mesh/core/src/net_packet.c.obj
 .bss           0x0000000000000000        0x0 CMakeFiles/light_switch_proxy_client_nrf52840_xxAA_s140_6.0.0.dir/__/__/__/mesh/core/src/net_packet.c.obj
 .text.net_packet_enc_start_get
                0x0000000000000000        0x4 CMakeFiles/light_switch_proxy_client_nrf52840_xxAA_s140_6.0.0.dir/__/__/__/mesh/core/src/net_packet.c.obj
 .text          0x0000000000000000        0x0 CMakeFiles/light_switch_proxy_client_nrf52840_xxAA_s140_6.0.0.dir/__/__/__/mesh/core/src/msqueue.c.obj
 .data          0x0000000000000000        0x0 CMakeFiles/light_switch_proxy_client_nrf52840_xxAA_s140_6.0.0.dir/__/__/__/mesh/core/src/msqueue.c.obj
 .bss           0x0000000000000000        0x0 CMakeFiles/light_switch_proxy_client_nrf52840_xxAA_s140_6.0.0.dir/__/__/__/mesh/core/src/msqueue.c.obj
 .text.msq_reset
                0x0000000000000000       0x24 CMakeFiles/light_switch_proxy_client_nrf52840_xxAA_s140_6.0.0.dir/__/__/__/mesh/core/src/msqueue.c.obj
 .text          0x0000000000000000        0x0 CMakeFiles/light_switch_proxy_client_nrf52840_xxAA_s140_6.0.0.dir/__/__/__/mesh/core/src/nrf_mesh_keygen.c.obj
 .data          0x0000000000000000        0x0 CMakeFiles/light_switch_proxy_client_nrf52840_xxAA_s140_6.0.0.dir/__/__/__/mesh/core/src/nrf_mesh_keygen.c.obj
 .bss           0x0000000000000000        0x0 CMakeFiles/light_switch_proxy_client_nrf52840_xxAA_s140_6.0.0.dir/__/__/__/mesh/core/src/nrf_mesh_keygen.c.obj
 .text          0x0000000000000000        0x0 CMakeFiles/light_switch_proxy_client_nrf52840_xxAA_s140_6.0.0.dir/__/__/__/mesh/core/src/cache.c.obj
 .data          0x0000000000000000        0x0 CMakeFiles/light_switch_proxy_client_nrf52840_xxAA_s140_6.0.0.dir/__/__/__/mesh/core/src/cache.c.obj
 .bss           0x0000000000000000        0x0 CMakeFiles/light_switch_proxy_client_nrf52840_xxAA_s140_6.0.0.dir/__/__/__/mesh/core/src/cache.c.obj
 .text.cache_erase_elem
                0x0000000000000000       0x6c CMakeFiles/light_switch_proxy_client_nrf52840_xxAA_s140_6.0.0.dir/__/__/__/mesh/core/src/cache.c.obj
 .text          0x0000000000000000        0x0 CMakeFiles/light_switch_proxy_client_nrf52840_xxAA_s140_6.0.0.dir/__/__/__/mesh/core/src/uri.c.obj
 .data          0x0000000000000000        0x0 CMakeFiles/light_switch_proxy_client_nrf52840_xxAA_s140_6.0.0.dir/__/__/__/mesh/core/src/uri.c.obj
 .bss           0x0000000000000000        0x0 CMakeFiles/light_switch_proxy_client_nrf52840_xxAA_s140_6.0.0.dir/__/__/__/mesh/core/src/uri.c.obj
 .text.uri_data_generate
                0x0000000000000000       0x88 CMakeFiles/light_switch_proxy_client_nrf52840_xxAA_s140_6.0.0.dir/__/__/__/mesh/core/src/uri.c.obj
 .text.uri_data_parse
                0x0000000000000000       0x84 CMakeFiles/light_switch_proxy_client_nrf52840_xxAA_s140_6.0.0.dir/__/__/__/mesh/core/src/uri.c.obj
 .text.uri_scheme_name_code_point
                0x0000000000000000       0x5c CMakeFiles/light_switch_proxy_client_nrf52840_xxAA_s140_6.0.0.dir/__/__/__/mesh/core/src/uri.c.obj
 .text.uri_scheme_name_string
                0x0000000000000000       0x14 CMakeFiles/light_switch_proxy_client_nrf52840_xxAA_s140_6.0.0.dir/__/__/__/mesh/core/src/uri.c.obj
 .rodata.m_code_point_strings
                0x0000000000000000      0x2ec CMakeFiles/light_switch_proxy_client_nrf52840_xxAA_s140_6.0.0.dir/__/__/__/mesh/core/src/uri.c.obj
 .rodata.str1.4
                0x0000000000000000      0x6ba CMakeFiles/light_switch_proxy_client_nrf52840_xxAA_s140_6.0.0.dir/__/__/__/mesh/core/src/uri.c.obj
 .debug_info    0x0000000000000000      0xd55 CMakeFiles/light_switch_proxy_client_nrf52840_xxAA_s140_6.0.0.dir/__/__/__/mesh/core/src/uri.c.obj
 .debug_abbrev  0x0000000000000000      0x331 CMakeFiles/light_switch_proxy_client_nrf52840_xxAA_s140_6.0.0.dir/__/__/__/mesh/core/src/uri.c.obj
 .debug_loc     0x0000000000000000      0x38d CMakeFiles/light_switch_proxy_client_nrf52840_xxAA_s140_6.0.0.dir/__/__/__/mesh/core/src/uri.c.obj
 .debug_aranges
                0x0000000000000000       0x38 CMakeFiles/light_switch_proxy_client_nrf52840_xxAA_s140_6.0.0.dir/__/__/__/mesh/core/src/uri.c.obj
 .debug_ranges  0x0000000000000000       0x58 CMakeFiles/light_switch_proxy_client_nrf52840_xxAA_s140_6.0.0.dir/__/__/__/mesh/core/src/uri.c.obj
 .debug_line    0x0000000000000000      0x322 CMakeFiles/light_switch_proxy_client_nrf52840_xxAA_s140_6.0.0.dir/__/__/__/mesh/core/src/uri.c.obj
 .debug_str     0x0000000000000000      0x753 CMakeFiles/light_switch_proxy_client_nrf52840_xxAA_s140_6.0.0.dir/__/__/__/mesh/core/src/uri.c.obj
 .comment       0x0000000000000000       0x7f CMakeFiles/light_switch_proxy_client_nrf52840_xxAA_s140_6.0.0.dir/__/__/__/mesh/core/src/uri.c.obj
 .debug_frame   0x0000000000000000       0x8c CMakeFiles/light_switch_proxy_client_nrf52840_xxAA_s140_6.0.0.dir/__/__/__/mesh/core/src/uri.c.obj
 .ARM.attributes
                0x0000000000000000       0x39 CMakeFiles/light_switch_proxy_client_nrf52840_xxAA_s140_6.0.0.dir/__/__/__/mesh/core/src/uri.c.obj
 .text          0x0000000000000000        0x0 CMakeFiles/light_switch_proxy_client_nrf52840_xxAA_s140_6.0.0.dir/__/__/__/mesh/core/src/list.c.obj
 .data          0x0000000000000000        0x0 CMakeFiles/light_switch_proxy_client_nrf52840_xxAA_s140_6.0.0.dir/__/__/__/mesh/core/src/list.c.obj
 .bss           0x0000000000000000        0x0 CMakeFiles/light_switch_proxy_client_nrf52840_xxAA_s140_6.0.0.dir/__/__/__/mesh/core/src/list.c.obj
 .text.list_size_get
                0x0000000000000000       0x14 CMakeFiles/light_switch_proxy_client_nrf52840_xxAA_s140_6.0.0.dir/__/__/__/mesh/core/src/list.c.obj
 .text.list_sorted_add
                0x0000000000000000       0x88 CMakeFiles/light_switch_proxy_client_nrf52840_xxAA_s140_6.0.0.dir/__/__/__/mesh/core/src/list.c.obj
 .text          0x0000000000000000        0x0 CMakeFiles/light_switch_proxy_client_nrf52840_xxAA_s140_6.0.0.dir/__/__/__/mesh/core/src/log.c.obj
 .data          0x0000000000000000        0x0 CMakeFiles/light_switch_proxy_client_nrf52840_xxAA_s140_6.0.0.dir/__/__/__/mesh/core/src/log.c.obj
 .bss           0x0000000000000000        0x0 CMakeFiles/light_switch_proxy_client_nrf52840_xxAA_s140_6.0.0.dir/__/__/__/mesh/core/src/log.c.obj
 .text.log_callback_logview
                0x0000000000000000       0x38 CMakeFiles/light_switch_proxy_client_nrf52840_xxAA_s140_6.0.0.dir/__/__/__/mesh/core/src/log.c.obj
 .text.log_set_callback
                0x0000000000000000        0xc CMakeFiles/light_switch_proxy_client_nrf52840_xxAA_s140_6.0.0.dir/__/__/__/mesh/core/src/log.c.obj
 .text.log_vprintf
                0x0000000000000000       0x1c CMakeFiles/light_switch_proxy_client_nrf52840_xxAA_s140_6.0.0.dir/__/__/__/mesh/core/src/log.c.obj
 .rodata.log_callback_logview.str1.4
                0x0000000000000000       0x12 CMakeFiles/light_switch_proxy_client_nrf52840_xxAA_s140_6.0.0.dir/__/__/__/mesh/core/src/log.c.obj
 .text          0x0000000000000000        0x0 CMakeFiles/light_switch_proxy_client_nrf52840_xxAA_s140_6.0.0.dir/__/__/__/mesh/core/src/flash_manager.c.obj
 .data          0x0000000000000000        0x0 CMakeFiles/light_switch_proxy_client_nrf52840_xxAA_s140_6.0.0.dir/__/__/__/mesh/core/src/flash_manager.c.obj
 .bss           0x0000000000000000        0x0 CMakeFiles/light_switch_proxy_client_nrf52840_xxAA_s140_6.0.0.dir/__/__/__/mesh/core/src/flash_manager.c.obj
 .text.process_action_queue
                0x0000000000000000      0x794 CMakeFiles/light_switch_proxy_client_nrf52840_xxAA_s140_6.0.0.dir/__/__/__/mesh/core/src/flash_manager.c.obj
 .text.flash_op_ended_callback
                0x0000000000000000       0x24 CMakeFiles/light_switch_proxy_client_nrf52840_xxAA_s140_6.0.0.dir/__/__/__/mesh/core/src/flash_manager.c.obj
 .text.flash_manager_init
                0x0000000000000000       0x68 CMakeFiles/light_switch_proxy_client_nrf52840_xxAA_s140_6.0.0.dir/__/__/__/mesh/core/src/flash_manager.c.obj
 .text.flash_manager_remove
                0x0000000000000000       0x6c CMakeFiles/light_switch_proxy_client_nrf52840_xxAA_s140_6.0.0.dir/__/__/__/mesh/core/src/flash_manager.c.obj
 .text.flash_manager_entry_get
                0x0000000000000000       0x48 CMakeFiles/light_switch_proxy_client_nrf52840_xxAA_s140_6.0.0.dir/__/__/__/mesh/core/src/flash_manager.c.obj
 .text.flash_manager_entry_next_get
                0x0000000000000000      0x144 CMakeFiles/light_switch_proxy_client_nrf52840_xxAA_s140_6.0.0.dir/__/__/__/mesh/core/src/flash_manager.c.obj
 .text.flash_manager_entry_count_get
                0x0000000000000000       0xfc CMakeFiles/light_switch_proxy_client_nrf52840_xxAA_s140_6.0.0.dir/__/__/__/mesh/core/src/flash_manager.c.obj
 .text.flash_manager_entry_alloc
                0x0000000000000000       0x80 CMakeFiles/light_switch_proxy_client_nrf52840_xxAA_s140_6.0.0.dir/__/__/__/mesh/core/src/flash_manager.c.obj
 .text.flash_manager_entry_commit
                0x0000000000000000       0x58 CMakeFiles/light_switch_proxy_client_nrf52840_xxAA_s140_6.0.0.dir/__/__/__/mesh/core/src/flash_manager.c.obj
 .text.flash_manager_entry_invalidate
                0x0000000000000000       0x98 CMakeFiles/light_switch_proxy_client_nrf52840_xxAA_s140_6.0.0.dir/__/__/__/mesh/core/src/flash_manager.c.obj
 .text.flash_manager_add
                0x0000000000000000      0x3f4 CMakeFiles/light_switch_proxy_client_nrf52840_xxAA_s140_6.0.0.dir/__/__/__/mesh/core/src/flash_manager.c.obj
 .text.flash_manager_entry_release
                0x0000000000000000       0x74 CMakeFiles/light_switch_proxy_client_nrf52840_xxAA_s140_6.0.0.dir/__/__/__/mesh/core/src/flash_manager.c.obj
 .text.flash_manager_mem_listener_register
                0x0000000000000000       0x38 CMakeFiles/light_switch_proxy_client_nrf52840_xxAA_s140_6.0.0.dir/__/__/__/mesh/core/src/flash_manager.c.obj
 .text.flash_manager_on_defrag_end
                0x0000000000000000       0x58 CMakeFiles/light_switch_proxy_client_nrf52840_xxAA_s140_6.0.0.dir/__/__/__/mesh/core/src/flash_manager.c.obj
 .text.flash_manager_recovery_page_get
                0x0000000000000000        0x4 CMakeFiles/light_switch_proxy_client_nrf52840_xxAA_s140_6.0.0.dir/__/__/__/mesh/core/src/flash_manager.c.obj
 .text.flash_manager_action_queue_empty_cb_set
                0x0000000000000000       0x20 CMakeFiles/light_switch_proxy_client_nrf52840_xxAA_s140_6.0.0.dir/__/__/__/mesh/core/src/flash_manager.c.obj
 .bss.m_action_queue_buffer
                0x0000000000000000      0x104 CMakeFiles/light_switch_proxy_client_nrf52840_xxAA_s140_6.0.0.dir/__/__/__/mesh/core/src/flash_manager.c.obj
 .bss.m_action_state
                0x0000000000000000        0x1 CMakeFiles/light_switch_proxy_client_nrf52840_xxAA_s140_6.0.0.dir/__/__/__/mesh/core/src/flash_manager.c.obj
 .bss.m_memory_listener_queue
                0x0000000000000000        0x8 CMakeFiles/light_switch_proxy_client_nrf52840_xxAA_s140_6.0.0.dir/__/__/__/mesh/core/src/flash_manager.c.obj
 .bss.m_processing_flag
                0x0000000000000000        0x4 CMakeFiles/light_switch_proxy_client_nrf52840_xxAA_s140_6.0.0.dir/__/__/__/mesh/core/src/flash_manager.c.obj
 .bss.m_queue_empty_cb
                0x0000000000000000        0x4 CMakeFiles/light_switch_proxy_client_nrf52840_xxAA_s140_6.0.0.dir/__/__/__/mesh/core/src/flash_manager.c.obj
 .bss.m_state   0x0000000000000000        0x1 CMakeFiles/light_switch_proxy_client_nrf52840_xxAA_s140_6.0.0.dir/__/__/__/mesh/core/src/flash_manager.c.obj
 .bss.m_token   0x0000000000000000        0x2 CMakeFiles/light_switch_proxy_client_nrf52840_xxAA_s140_6.0.0.dir/__/__/__/mesh/core/src/flash_manager.c.obj
 .bss.p_current.11640
                0x0000000000000000        0x4 CMakeFiles/light_switch_proxy_client_nrf52840_xxAA_s140_6.0.0.dir/__/__/__/mesh/core/src/flash_manager.c.obj
 .bss.result.11641
                0x0000000000000000        0x1 CMakeFiles/light_switch_proxy_client_nrf52840_xxAA_s140_6.0.0.dir/__/__/__/mesh/core/src/flash_manager.c.obj
 .rodata.INVALID_HEADER
                0x0000000000000000        0x4 CMakeFiles/light_switch_proxy_client_nrf52840_xxAA_s140_6.0.0.dir/__/__/__/mesh/core/src/flash_manager.c.obj
 .rodata.PADDING_HEADER
                0x0000000000000000        0x4 CMakeFiles/light_switch_proxy_client_nrf52840_xxAA_s140_6.0.0.dir/__/__/__/mesh/core/src/flash_manager.c.obj
 .rodata.SEAL_HEADER
                0x0000000000000000        0x4 CMakeFiles/light_switch_proxy_client_nrf52840_xxAA_s140_6.0.0.dir/__/__/__/mesh/core/src/flash_manager.c.obj
 .text          0x0000000000000000        0x0 CMakeFiles/light_switch_proxy_client_nrf52840_xxAA_s140_6.0.0.dir/__/__/__/mesh/core/src/ccm_soft.c.obj
 .data          0x0000000000000000        0x0 CMakeFiles/light_switch_proxy_client_nrf52840_xxAA_s140_6.0.0.dir/__/__/__/mesh/core/src/ccm_soft.c.obj
 .bss           0x0000000000000000        0x0 CMakeFiles/light_switch_proxy_client_nrf52840_xxAA_s140_6.0.0.dir/__/__/__/mesh/core/src/ccm_soft.c.obj
 .text          0x0000000000000000        0x0 CMakeFiles/light_switch_proxy_client_nrf52840_xxAA_s140_6.0.0.dir/__/__/__/mesh/core/src/toolchain.c.obj
 .data          0x0000000000000000        0x0 CMakeFiles/light_switch_proxy_client_nrf52840_xxAA_s140_6.0.0.dir/__/__/__/mesh/core/src/toolchain.c.obj
 .bss           0x0000000000000000        0x0 CMakeFiles/light_switch_proxy_client_nrf52840_xxAA_s140_6.0.0.dir/__/__/__/mesh/core/src/toolchain.c.obj
 .debug_info    0x0000000000000000       0xac CMakeFiles/light_switch_proxy_client_nrf52840_xxAA_s140_6.0.0.dir/__/__/__/mesh/core/src/toolchain.c.obj
 .debug_abbrev  0x0000000000000000       0x5c CMakeFiles/light_switch_proxy_client_nrf52840_xxAA_s140_6.0.0.dir/__/__/__/mesh/core/src/toolchain.c.obj
 .debug_aranges
                0x0000000000000000       0x18 CMakeFiles/light_switch_proxy_client_nrf52840_xxAA_s140_6.0.0.dir/__/__/__/mesh/core/src/toolchain.c.obj
 .debug_line    0x0000000000000000      0x131 CMakeFiles/light_switch_proxy_client_nrf52840_xxAA_s140_6.0.0.dir/__/__/__/mesh/core/src/toolchain.c.obj
 .debug_str     0x0000000000000000      0x270 CMakeFiles/light_switch_proxy_client_nrf52840_xxAA_s140_6.0.0.dir/__/__/__/mesh/core/src/toolchain.c.obj
 .comment       0x0000000000000000       0x7f CMakeFiles/light_switch_proxy_client_nrf52840_xxAA_s140_6.0.0.dir/__/__/__/mesh/core/src/toolchain.c.obj
 .ARM.attributes
                0x0000000000000000       0x39 CMakeFiles/light_switch_proxy_client_nrf52840_xxAA_s140_6.0.0.dir/__/__/__/mesh/core/src/toolchain.c.obj
 .text          0x0000000000000000        0x0 CMakeFiles/light_switch_proxy_client_nrf52840_xxAA_s140_6.0.0.dir/__/__/__/mesh/core/src/replay_cache.c.obj
 .data          0x0000000000000000        0x0 CMakeFiles/light_switch_proxy_client_nrf52840_xxAA_s140_6.0.0.dir/__/__/__/mesh/core/src/replay_cache.c.obj
 .bss           0x0000000000000000        0x0 CMakeFiles/light_switch_proxy_client_nrf52840_xxAA_s140_6.0.0.dir/__/__/__/mesh/core/src/replay_cache.c.obj
 .text.replay_cache_on_iv_update
                0x0000000000000000       0x2c CMakeFiles/light_switch_proxy_client_nrf52840_xxAA_s140_6.0.0.dir/__/__/__/mesh/core/src/replay_cache.c.obj
 .text.replay_cache_clear
                0x0000000000000000       0x20 CMakeFiles/light_switch_proxy_client_nrf52840_xxAA_s140_6.0.0.dir/__/__/__/mesh/core/src/replay_cache.c.obj
 .text          0x0000000000000000        0x0 CMakeFiles/light_switch_proxy_client_nrf52840_xxAA_s140_6.0.0.dir/__/__/__/mesh/core/src/beacon.c.obj
 .data          0x0000000000000000        0x0 CMakeFiles/light_switch_proxy_client_nrf52840_xxAA_s140_6.0.0.dir/__/__/__/mesh/core/src/beacon.c.obj
 .bss           0x0000000000000000        0x0 CMakeFiles/light_switch_proxy_client_nrf52840_xxAA_s140_6.0.0.dir/__/__/__/mesh/core/src/beacon.c.obj
 .text          0x0000000000000000        0x0 CMakeFiles/light_switch_proxy_client_nrf52840_xxAA_s140_6.0.0.dir/__/__/__/mesh/core/src/flash_manager_internal.c.obj
 .data          0x0000000000000000        0x0 CMakeFiles/light_switch_proxy_client_nrf52840_xxAA_s140_6.0.0.dir/__/__/__/mesh/core/src/flash_manager_internal.c.obj
 .bss           0x0000000000000000        0x0 CMakeFiles/light_switch_proxy_client_nrf52840_xxAA_s140_6.0.0.dir/__/__/__/mesh/core/src/flash_manager_internal.c.obj
 .text.entry_get
                0x0000000000000000       0x7c CMakeFiles/light_switch_proxy_client_nrf52840_xxAA_s140_6.0.0.dir/__/__/__/mesh/core/src/flash_manager_internal.c.obj
 .debug_info    0x0000000000000000      0xb98 CMakeFiles/light_switch_proxy_client_nrf52840_xxAA_s140_6.0.0.dir/__/__/__/mesh/core/src/flash_manager_internal.c.obj
 .debug_abbrev  0x0000000000000000      0x2a4 CMakeFiles/light_switch_proxy_client_nrf52840_xxAA_s140_6.0.0.dir/__/__/__/mesh/core/src/flash_manager_internal.c.obj
 .debug_loc     0x0000000000000000      0x12d CMakeFiles/light_switch_proxy_client_nrf52840_xxAA_s140_6.0.0.dir/__/__/__/mesh/core/src/flash_manager_internal.c.obj
 .debug_aranges
                0x0000000000000000       0x20 CMakeFiles/light_switch_proxy_client_nrf52840_xxAA_s140_6.0.0.dir/__/__/__/mesh/core/src/flash_manager_internal.c.obj
 .debug_ranges  0x0000000000000000       0x30 CMakeFiles/light_switch_proxy_client_nrf52840_xxAA_s140_6.0.0.dir/__/__/__/mesh/core/src/flash_manager_internal.c.obj
 .debug_line    0x0000000000000000      0x31e CMakeFiles/light_switch_proxy_client_nrf52840_xxAA_s140_6.0.0.dir/__/__/__/mesh/core/src/flash_manager_internal.c.obj
 .debug_str     0x0000000000000000      0x81a CMakeFiles/light_switch_proxy_client_nrf52840_xxAA_s140_6.0.0.dir/__/__/__/mesh/core/src/flash_manager_internal.c.obj
 .comment       0x0000000000000000       0x7f CMakeFiles/light_switch_proxy_client_nrf52840_xxAA_s140_6.0.0.dir/__/__/__/mesh/core/src/flash_manager_internal.c.obj
 .debug_frame   0x0000000000000000       0x34 CMakeFiles/light_switch_proxy_client_nrf52840_xxAA_s140_6.0.0.dir/__/__/__/mesh/core/src/flash_manager_internal.c.obj
 .ARM.attributes
                0x0000000000000000       0x39 CMakeFiles/light_switch_proxy_client_nrf52840_xxAA_s140_6.0.0.dir/__/__/__/mesh/core/src/flash_manager_internal.c.obj
 .text          0x0000000000000000        0x0 CMakeFiles/light_switch_proxy_client_nrf52840_xxAA_s140_6.0.0.dir/__/__/__/mesh/core/src/core_tx.c.obj
 .data          0x0000000000000000        0x0 CMakeFiles/light_switch_proxy_client_nrf52840_xxAA_s140_6.0.0.dir/__/__/__/mesh/core/src/core_tx.c.obj
 .bss           0x0000000000000000        0x0 CMakeFiles/light_switch_proxy_client_nrf52840_xxAA_s140_6.0.0.dir/__/__/__/mesh/core/src/core_tx.c.obj
 .text.core_tx_bearer_type_get
                0x0000000000000000       0x2c CMakeFiles/light_switch_proxy_client_nrf52840_xxAA_s140_6.0.0.dir/__/__/__/mesh/core/src/core_tx.c.obj
 .text.core_tx_bearer_count_get
                0x0000000000000000        0xc CMakeFiles/light_switch_proxy_client_nrf52840_xxAA_s140_6.0.0.dir/__/__/__/mesh/core/src/core_tx.c.obj
 .text          0x0000000000000000        0x0 CMakeFiles/light_switch_proxy_client_nrf52840_xxAA_s140_6.0.0.dir/__/__/__/mesh/core/src/heartbeat.c.obj
 .data          0x0000000000000000        0x0 CMakeFiles/light_switch_proxy_client_nrf52840_xxAA_s140_6.0.0.dir/__/__/__/mesh/core/src/heartbeat.c.obj
 .bss           0x0000000000000000        0x0 CMakeFiles/light_switch_proxy_client_nrf52840_xxAA_s140_6.0.0.dir/__/__/__/mesh/core/src/heartbeat.c.obj
 .text          0x0000000000000000        0x0 CMakeFiles/light_switch_proxy_client_nrf52840_xxAA_s140_6.0.0.dir/__/__/__/mesh/core/src/net_beacon.c.obj
 .data          0x0000000000000000        0x0 CMakeFiles/light_switch_proxy_client_nrf52840_xxAA_s140_6.0.0.dir/__/__/__/mesh/core/src/net_beacon.c.obj
 .bss           0x0000000000000000        0x0 CMakeFiles/light_switch_proxy_client_nrf52840_xxAA_s140_6.0.0.dir/__/__/__/mesh/core/src/net_beacon.c.obj
 .text          0x0000000000000000        0x0 CMakeFiles/light_switch_proxy_client_nrf52840_xxAA_s140_6.0.0.dir/__/__/__/mesh/core/src/fsm.c.obj
 .data          0x0000000000000000        0x0 CMakeFiles/light_switch_proxy_client_nrf52840_xxAA_s140_6.0.0.dir/__/__/__/mesh/core/src/fsm.c.obj
 .bss           0x0000000000000000        0x0 CMakeFiles/light_switch_proxy_client_nrf52840_xxAA_s140_6.0.0.dir/__/__/__/mesh/core/src/fsm.c.obj
 .text          0x0000000000000000        0x0 CMakeFiles/light_switch_proxy_client_nrf52840_xxAA_s140_6.0.0.dir/__/__/__/mesh/core/src/core_tx_adv.c.obj
 .data          0x0000000000000000        0x0 CMakeFiles/light_switch_proxy_client_nrf52840_xxAA_s140_6.0.0.dir/__/__/__/mesh/core/src/core_tx_adv.c.obj
 .bss           0x0000000000000000        0x0 CMakeFiles/light_switch_proxy_client_nrf52840_xxAA_s140_6.0.0.dir/__/__/__/mesh/core/src/core_tx_adv.c.obj
 .text.core_tx_adv_address_set
                0x0000000000000000       0x28 CMakeFiles/light_switch_proxy_client_nrf52840_xxAA_s140_6.0.0.dir/__/__/__/mesh/core/src/core_tx_adv.c.obj
 .text          0x0000000000000000        0x0 CMakeFiles/light_switch_proxy_client_nrf52840_xxAA_s140_6.0.0.dir/__/__/__/mesh/bearer/src/ad_listener.c.obj
 .data          0x0000000000000000        0x0 CMakeFiles/light_switch_proxy_client_nrf52840_xxAA_s140_6.0.0.dir/__/__/__/mesh/bearer/src/ad_listener.c.obj
 .bss           0x0000000000000000        0x0 CMakeFiles/light_switch_proxy_client_nrf52840_xxAA_s140_6.0.0.dir/__/__/__/mesh/bearer/src/ad_listener.c.obj
 .text.ad_listener_unsubscribe
                0x0000000000000000       0x78 CMakeFiles/light_switch_proxy_client_nrf52840_xxAA_s140_6.0.0.dir/__/__/__/mesh/bearer/src/ad_listener.c.obj
 .text          0x0000000000000000        0x0 CMakeFiles/light_switch_proxy_client_nrf52840_xxAA_s140_6.0.0.dir/__/__/__/mesh/bearer/src/ad_type_filter.c.obj
 .data          0x0000000000000000        0x0 CMakeFiles/light_switch_proxy_client_nrf52840_xxAA_s140_6.0.0.dir/__/__/__/mesh/bearer/src/ad_type_filter.c.obj
 .bss           0x0000000000000000        0x0 CMakeFiles/light_switch_proxy_client_nrf52840_xxAA_s140_6.0.0.dir/__/__/__/mesh/bearer/src/ad_type_filter.c.obj
 .text.bearer_adtype_remove
                0x0000000000000000       0x28 CMakeFiles/light_switch_proxy_client_nrf52840_xxAA_s140_6.0.0.dir/__/__/__/mesh/bearer/src/ad_type_filter.c.obj
 .text.bearer_adtype_clear
                0x0000000000000000       0x10 CMakeFiles/light_switch_proxy_client_nrf52840_xxAA_s140_6.0.0.dir/__/__/__/mesh/bearer/src/ad_type_filter.c.obj
 .text.bearer_invalid_length_amount_get
                0x0000000000000000        0xc CMakeFiles/light_switch_proxy_client_nrf52840_xxAA_s140_6.0.0.dir/__/__/__/mesh/bearer/src/ad_type_filter.c.obj
 .text.bearer_adtype_filtered_amount_get
                0x0000000000000000        0xc CMakeFiles/light_switch_proxy_client_nrf52840_xxAA_s140_6.0.0.dir/__/__/__/mesh/bearer/src/ad_type_filter.c.obj
 .text          0x0000000000000000        0x0 CMakeFiles/light_switch_proxy_client_nrf52840_xxAA_s140_6.0.0.dir/__/__/__/mesh/bearer/src/adv_packet_filter.c.obj
 .data          0x0000000000000000        0x0 CMakeFiles/light_switch_proxy_client_nrf52840_xxAA_s140_6.0.0.dir/__/__/__/mesh/bearer/src/adv_packet_filter.c.obj
 .bss           0x0000000000000000        0x0 CMakeFiles/light_switch_proxy_client_nrf52840_xxAA_s140_6.0.0.dir/__/__/__/mesh/bearer/src/adv_packet_filter.c.obj
 .text.adv_filter_handle
                0x0000000000000000       0x40 CMakeFiles/light_switch_proxy_client_nrf52840_xxAA_s140_6.0.0.dir/__/__/__/mesh/bearer/src/adv_packet_filter.c.obj
 .text.bearer_adv_packet_filtering_set
                0x0000000000000000       0x1c CMakeFiles/light_switch_proxy_client_nrf52840_xxAA_s140_6.0.0.dir/__/__/__/mesh/bearer/src/adv_packet_filter.c.obj
 .text.bearer_adv_packet_remove
                0x0000000000000000       0x18 CMakeFiles/light_switch_proxy_client_nrf52840_xxAA_s140_6.0.0.dir/__/__/__/mesh/bearer/src/adv_packet_filter.c.obj
 .text.bearer_adv_packet_add
                0x0000000000000000       0x14 CMakeFiles/light_switch_proxy_client_nrf52840_xxAA_s140_6.0.0.dir/__/__/__/mesh/bearer/src/adv_packet_filter.c.obj
 .text.bearer_adv_packet_clear
                0x0000000000000000        0xc CMakeFiles/light_switch_proxy_client_nrf52840_xxAA_s140_6.0.0.dir/__/__/__/mesh/bearer/src/adv_packet_filter.c.obj
 .text.bearer_adv_packet_filter_mode_set
                0x0000000000000000       0x18 CMakeFiles/light_switch_proxy_client_nrf52840_xxAA_s140_6.0.0.dir/__/__/__/mesh/bearer/src/adv_packet_filter.c.obj
 .text.bearer_adv_packet_filtered_amount_get
                0x0000000000000000        0xc CMakeFiles/light_switch_proxy_client_nrf52840_xxAA_s140_6.0.0.dir/__/__/__/mesh/bearer/src/adv_packet_filter.c.obj
 .bss.m_adv_packet_filter
                0x0000000000000000       0x14 CMakeFiles/light_switch_proxy_client_nrf52840_xxAA_s140_6.0.0.dir/__/__/__/mesh/bearer/src/adv_packet_filter.c.obj
 .debug_info    0x0000000000000000      0xd92 CMakeFiles/light_switch_proxy_client_nrf52840_xxAA_s140_6.0.0.dir/__/__/__/mesh/bearer/src/adv_packet_filter.c.obj
 .debug_abbrev  0x0000000000000000      0x2cb CMakeFiles/light_switch_proxy_client_nrf52840_xxAA_s140_6.0.0.dir/__/__/__/mesh/bearer/src/adv_packet_filter.c.obj
 .debug_loc     0x0000000000000000      0x1b2 CMakeFiles/light_switch_proxy_client_nrf52840_xxAA_s140_6.0.0.dir/__/__/__/mesh/bearer/src/adv_packet_filter.c.obj
 .debug_aranges
                0x0000000000000000       0x50 CMakeFiles/light_switch_proxy_client_nrf52840_xxAA_s140_6.0.0.dir/__/__/__/mesh/bearer/src/adv_packet_filter.c.obj
 .debug_ranges  0x0000000000000000       0x40 CMakeFiles/light_switch_proxy_client_nrf52840_xxAA_s140_6.0.0.dir/__/__/__/mesh/bearer/src/adv_packet_filter.c.obj
 .debug_line    0x0000000000000000      0x489 CMakeFiles/light_switch_proxy_client_nrf52840_xxAA_s140_6.0.0.dir/__/__/__/mesh/bearer/src/adv_packet_filter.c.obj
 .debug_str     0x0000000000000000      0xa9e CMakeFiles/light_switch_proxy_client_nrf52840_xxAA_s140_6.0.0.dir/__/__/__/mesh/bearer/src/adv_packet_filter.c.obj
 .comment       0x0000000000000000       0x7f CMakeFiles/light_switch_proxy_client_nrf52840_xxAA_s140_6.0.0.dir/__/__/__/mesh/bearer/src/adv_packet_filter.c.obj
 .debug_frame   0x0000000000000000       0x88 CMakeFiles/light_switch_proxy_client_nrf52840_xxAA_s140_6.0.0.dir/__/__/__/mesh/bearer/src/adv_packet_filter.c.obj
 .ARM.attributes
                0x0000000000000000       0x39 CMakeFiles/light_switch_proxy_client_nrf52840_xxAA_s140_6.0.0.dir/__/__/__/mesh/bearer/src/adv_packet_filter.c.obj
 .text          0x0000000000000000        0x0 CMakeFiles/light_switch_proxy_client_nrf52840_xxAA_s140_6.0.0.dir/__/__/__/mesh/bearer/src/advertiser.c.obj
 .data          0x0000000000000000        0x0 CMakeFiles/light_switch_proxy_client_nrf52840_xxAA_s140_6.0.0.dir/__/__/__/mesh/bearer/src/advertiser.c.obj
 .bss           0x0000000000000000        0x0 CMakeFiles/light_switch_proxy_client_nrf52840_xxAA_s140_6.0.0.dir/__/__/__/mesh/bearer/src/advertiser.c.obj
 .text.advertiser_disable
                0x0000000000000000        0xc CMakeFiles/light_switch_proxy_client_nrf52840_xxAA_s140_6.0.0.dir/__/__/__/mesh/bearer/src/advertiser.c.obj
 .text.advertiser_config_set
                0x0000000000000000      0x184 CMakeFiles/light_switch_proxy_client_nrf52840_xxAA_s140_6.0.0.dir/__/__/__/mesh/bearer/src/advertiser.c.obj
 .text.advertiser_channels_set
                0x0000000000000000       0x98 CMakeFiles/light_switch_proxy_client_nrf52840_xxAA_s140_6.0.0.dir/__/__/__/mesh/bearer/src/advertiser.c.obj
 .text.advertiser_address_set
                0x0000000000000000       0x74 CMakeFiles/light_switch_proxy_client_nrf52840_xxAA_s140_6.0.0.dir/__/__/__/mesh/bearer/src/advertiser.c.obj
 .text.advertiser_config_get
                0x0000000000000000       0x24 CMakeFiles/light_switch_proxy_client_nrf52840_xxAA_s140_6.0.0.dir/__/__/__/mesh/bearer/src/advertiser.c.obj
 .text.advertiser_address_default_get
                0x0000000000000000       0x5c CMakeFiles/light_switch_proxy_client_nrf52840_xxAA_s140_6.0.0.dir/__/__/__/mesh/bearer/src/advertiser.c.obj
 .text          0x0000000000000000        0x0 CMakeFiles/light_switch_proxy_client_nrf52840_xxAA_s140_6.0.0.dir/__/__/__/mesh/bearer/src/bearer_handler.c.obj
 .data          0x0000000000000000        0x0 CMakeFiles/light_switch_proxy_client_nrf52840_xxAA_s140_6.0.0.dir/__/__/__/mesh/bearer/src/bearer_handler.c.obj
 .bss           0x0000000000000000        0x0 CMakeFiles/light_switch_proxy_client_nrf52840_xxAA_s140_6.0.0.dir/__/__/__/mesh/bearer/src/bearer_handler.c.obj
 .text.bearer_handler_action_fire
                0x0000000000000000       0xa0 CMakeFiles/light_switch_proxy_client_nrf52840_xxAA_s140_6.0.0.dir/__/__/__/mesh/bearer/src/bearer_handler.c.obj
 .text          0x0000000000000000        0x0 CMakeFiles/light_switch_proxy_client_nrf52840_xxAA_s140_6.0.0.dir/__/__/__/mesh/bearer/src/broadcast.c.obj
 .data          0x0000000000000000        0x0 CMakeFiles/light_switch_proxy_client_nrf52840_xxAA_s140_6.0.0.dir/__/__/__/mesh/bearer/src/broadcast.c.obj
 .bss           0x0000000000000000        0x0 CMakeFiles/light_switch_proxy_client_nrf52840_xxAA_s140_6.0.0.dir/__/__/__/mesh/bearer/src/broadcast.c.obj
 .text          0x0000000000000000        0x0 CMakeFiles/light_switch_proxy_client_nrf52840_xxAA_s140_6.0.0.dir/__/__/__/mesh/bearer/src/filter_engine.c.obj
 .data          0x0000000000000000        0x0 CMakeFiles/light_switch_proxy_client_nrf52840_xxAA_s140_6.0.0.dir/__/__/__/mesh/bearer/src/filter_engine.c.obj
 .bss           0x0000000000000000        0x0 CMakeFiles/light_switch_proxy_client_nrf52840_xxAA_s140_6.0.0.dir/__/__/__/mesh/bearer/src/filter_engine.c.obj
 .text.fen_accepted_amount_get
                0x0000000000000000        0xc CMakeFiles/light_switch_proxy_client_nrf52840_xxAA_s140_6.0.0.dir/__/__/__/mesh/bearer/src/filter_engine.c.obj
 .text          0x0000000000000000        0x0 CMakeFiles/light_switch_proxy_client_nrf52840_xxAA_s140_6.0.0.dir/__/__/__/mesh/bearer/src/gap_address_filter.c.obj
 .data          0x0000000000000000        0x0 CMakeFiles/light_switch_proxy_client_nrf52840_xxAA_s140_6.0.0.dir/__/__/__/mesh/bearer/src/gap_address_filter.c.obj
 .bss           0x0000000000000000        0x0 CMakeFiles/light_switch_proxy_client_nrf52840_xxAA_s140_6.0.0.dir/__/__/__/mesh/bearer/src/gap_address_filter.c.obj
 .text.gap_address_filter_handle
                0x0000000000000000       0xb8 CMakeFiles/light_switch_proxy_client_nrf52840_xxAA_s140_6.0.0.dir/__/__/__/mesh/bearer/src/gap_address_filter.c.obj
 .text.bearer_filter_gap_addr_whitelist_set
                0x0000000000000000       0x48 CMakeFiles/light_switch_proxy_client_nrf52840_xxAA_s140_6.0.0.dir/__/__/__/mesh/bearer/src/gap_address_filter.c.obj
 .text.bearer_filter_gap_addr_blacklist_set
                0x0000000000000000       0x4c CMakeFiles/light_switch_proxy_client_nrf52840_xxAA_s140_6.0.0.dir/__/__/__/mesh/bearer/src/gap_address_filter.c.obj
 .text.bearer_filter_gap_addr_range_set
                0x0000000000000000       0x64 CMakeFiles/light_switch_proxy_client_nrf52840_xxAA_s140_6.0.0.dir/__/__/__/mesh/bearer/src/gap_address_filter.c.obj
 .text.bearer_filter_gap_addr_clear
                0x0000000000000000       0x24 CMakeFiles/light_switch_proxy_client_nrf52840_xxAA_s140_6.0.0.dir/__/__/__/mesh/bearer/src/gap_address_filter.c.obj
 .text.bearer_gap_addr_filtered_amount_get
                0x0000000000000000        0xc CMakeFiles/light_switch_proxy_client_nrf52840_xxAA_s140_6.0.0.dir/__/__/__/mesh/bearer/src/gap_address_filter.c.obj
 .bss.m_addr_filter
                0x0000000000000000       0x18 CMakeFiles/light_switch_proxy_client_nrf52840_xxAA_s140_6.0.0.dir/__/__/__/mesh/bearer/src/gap_address_filter.c.obj
 .debug_info    0x0000000000000000      0xf34 CMakeFiles/light_switch_proxy_client_nrf52840_xxAA_s140_6.0.0.dir/__/__/__/mesh/bearer/src/gap_address_filter.c.obj
 .debug_abbrev  0x0000000000000000      0x2f8 CMakeFiles/light_switch_proxy_client_nrf52840_xxAA_s140_6.0.0.dir/__/__/__/mesh/bearer/src/gap_address_filter.c.obj
 .debug_loc     0x0000000000000000      0x823 CMakeFiles/light_switch_proxy_client_nrf52840_xxAA_s140_6.0.0.dir/__/__/__/mesh/bearer/src/gap_address_filter.c.obj
 .debug_aranges
                0x0000000000000000       0x48 CMakeFiles/light_switch_proxy_client_nrf52840_xxAA_s140_6.0.0.dir/__/__/__/mesh/bearer/src/gap_address_filter.c.obj
 .debug_ranges  0x0000000000000000      0x100 CMakeFiles/light_switch_proxy_client_nrf52840_xxAA_s140_6.0.0.dir/__/__/__/mesh/bearer/src/gap_address_filter.c.obj
 .debug_line    0x0000000000000000      0x519 CMakeFiles/light_switch_proxy_client_nrf52840_xxAA_s140_6.0.0.dir/__/__/__/mesh/bearer/src/gap_address_filter.c.obj
 .debug_str     0x0000000000000000      0x9f8 CMakeFiles/light_switch_proxy_client_nrf52840_xxAA_s140_6.0.0.dir/__/__/__/mesh/bearer/src/gap_address_filter.c.obj
 .comment       0x0000000000000000       0x7f CMakeFiles/light_switch_proxy_client_nrf52840_xxAA_s140_6.0.0.dir/__/__/__/mesh/bearer/src/gap_address_filter.c.obj
 .debug_frame   0x0000000000000000       0xd4 CMakeFiles/light_switch_proxy_client_nrf52840_xxAA_s140_6.0.0.dir/__/__/__/mesh/bearer/src/gap_address_filter.c.obj
 .ARM.attributes
                0x0000000000000000       0x39 CMakeFiles/light_switch_proxy_client_nrf52840_xxAA_s140_6.0.0.dir/__/__/__/mesh/bearer/src/gap_address_filter.c.obj
 .text          0x0000000000000000        0x0 CMakeFiles/light_switch_proxy_client_nrf52840_xxAA_s140_6.0.0.dir/__/__/__/mesh/bearer/src/radio_config.c.obj
 .data          0x0000000000000000        0x0 CMakeFiles/light_switch_proxy_client_nrf52840_xxAA_s140_6.0.0.dir/__/__/__/mesh/bearer/src/radio_config.c.obj
 .bss           0x0000000000000000        0x0 CMakeFiles/light_switch_proxy_client_nrf52840_xxAA_s140_6.0.0.dir/__/__/__/mesh/bearer/src/radio_config.c.obj
 .text.radio_config_access_addr_get
                0x0000000000000000       0x58 CMakeFiles/light_switch_proxy_client_nrf52840_xxAA_s140_6.0.0.dir/__/__/__/mesh/bearer/src/radio_config.c.obj
 .text          0x0000000000000000        0x0 CMakeFiles/light_switch_proxy_client_nrf52840_xxAA_s140_6.0.0.dir/__/__/__/mesh/bearer/src/rssi_filter.c.obj
 .data          0x0000000000000000        0x0 CMakeFiles/light_switch_proxy_client_nrf52840_xxAA_s140_6.0.0.dir/__/__/__/mesh/bearer/src/rssi_filter.c.obj
 .bss           0x0000000000000000        0x0 CMakeFiles/light_switch_proxy_client_nrf52840_xxAA_s140_6.0.0.dir/__/__/__/mesh/bearer/src/rssi_filter.c.obj
 .text.rssi_filter_handle
                0x0000000000000000       0x20 CMakeFiles/light_switch_proxy_client_nrf52840_xxAA_s140_6.0.0.dir/__/__/__/mesh/bearer/src/rssi_filter.c.obj
 .text.bearer_rssi_filtering_set
                0x0000000000000000       0x38 CMakeFiles/light_switch_proxy_client_nrf52840_xxAA_s140_6.0.0.dir/__/__/__/mesh/bearer/src/rssi_filter.c.obj
 .text.bearer_rssi_filtered_amount_get
                0x0000000000000000        0xc CMakeFiles/light_switch_proxy_client_nrf52840_xxAA_s140_6.0.0.dir/__/__/__/mesh/bearer/src/rssi_filter.c.obj
 .bss.m_rssi_filter
                0x0000000000000000       0x18 CMakeFiles/light_switch_proxy_client_nrf52840_xxAA_s140_6.0.0.dir/__/__/__/mesh/bearer/src/rssi_filter.c.obj
 .debug_info    0x0000000000000000      0xc70 CMakeFiles/light_switch_proxy_client_nrf52840_xxAA_s140_6.0.0.dir/__/__/__/mesh/bearer/src/rssi_filter.c.obj
 .debug_abbrev  0x0000000000000000      0x290 CMakeFiles/light_switch_proxy_client_nrf52840_xxAA_s140_6.0.0.dir/__/__/__/mesh/bearer/src/rssi_filter.c.obj
 .debug_loc     0x0000000000000000       0xbe CMakeFiles/light_switch_proxy_client_nrf52840_xxAA_s140_6.0.0.dir/__/__/__/mesh/bearer/src/rssi_filter.c.obj
 .debug_aranges
                0x0000000000000000       0x30 CMakeFiles/light_switch_proxy_client_nrf52840_xxAA_s140_6.0.0.dir/__/__/__/mesh/bearer/src/rssi_filter.c.obj
 .debug_ranges  0x0000000000000000       0x20 CMakeFiles/light_switch_proxy_client_nrf52840_xxAA_s140_6.0.0.dir/__/__/__/mesh/bearer/src/rssi_filter.c.obj
 .debug_line    0x0000000000000000      0x3fb CMakeFiles/light_switch_proxy_client_nrf52840_xxAA_s140_6.0.0.dir/__/__/__/mesh/bearer/src/rssi_filter.c.obj
 .debug_str     0x0000000000000000      0x8b3 CMakeFiles/light_switch_proxy_client_nrf52840_xxAA_s140_6.0.0.dir/__/__/__/mesh/bearer/src/rssi_filter.c.obj
 .comment       0x0000000000000000       0x7f CMakeFiles/light_switch_proxy_client_nrf52840_xxAA_s140_6.0.0.dir/__/__/__/mesh/bearer/src/rssi_filter.c.obj
 .debug_frame   0x0000000000000000       0x58 CMakeFiles/light_switch_proxy_client_nrf52840_xxAA_s140_6.0.0.dir/__/__/__/mesh/bearer/src/rssi_filter.c.obj
 .ARM.attributes
                0x0000000000000000       0x39 CMakeFiles/light_switch_proxy_client_nrf52840_xxAA_s140_6.0.0.dir/__/__/__/mesh/bearer/src/rssi_filter.c.obj
 .text          0x0000000000000000        0x0 CMakeFiles/light_switch_proxy_client_nrf52840_xxAA_s140_6.0.0.dir/__/__/__/mesh/bearer/src/scanner.c.obj
 .data          0x0000000000000000        0x0 CMakeFiles/light_switch_proxy_client_nrf52840_xxAA_s140_6.0.0.dir/__/__/__/mesh/bearer/src/scanner.c.obj
 .bss           0x0000000000000000        0x0 CMakeFiles/light_switch_proxy_client_nrf52840_xxAA_s140_6.0.0.dir/__/__/__/mesh/bearer/src/scanner.c.obj
 .text.scanner_rx_callback_set
                0x0000000000000000       0x20 CMakeFiles/light_switch_proxy_client_nrf52840_xxAA_s140_6.0.0.dir/__/__/__/mesh/bearer/src/scanner.c.obj
 .text.scanner_is_enabled
                0x0000000000000000       0x14 CMakeFiles/light_switch_proxy_client_nrf52840_xxAA_s140_6.0.0.dir/__/__/__/mesh/bearer/src/scanner.c.obj
 .text.scanner_stats_get
                0x0000000000000000        0x8 CMakeFiles/light_switch_proxy_client_nrf52840_xxAA_s140_6.0.0.dir/__/__/__/mesh/bearer/src/scanner.c.obj
 .text.scanner_config_radio_mode_set
                0x0000000000000000       0x10 CMakeFiles/light_switch_proxy_client_nrf52840_xxAA_s140_6.0.0.dir/__/__/__/mesh/bearer/src/scanner.c.obj
 .text.scanner_config_scan_time_set
                0x0000000000000000       0x88 CMakeFiles/light_switch_proxy_client_nrf52840_xxAA_s140_6.0.0.dir/__/__/__/mesh/bearer/src/scanner.c.obj
 .text.scanner_config_channels_set
                0x0000000000000000       0x50 CMakeFiles/light_switch_proxy_client_nrf52840_xxAA_s140_6.0.0.dir/__/__/__/mesh/bearer/src/scanner.c.obj
 .text.scanner_config_access_addresses_set
                0x0000000000000000       0x38 CMakeFiles/light_switch_proxy_client_nrf52840_xxAA_s140_6.0.0.dir/__/__/__/mesh/bearer/src/scanner.c.obj
 .text          0x0000000000000000        0x0 CMakeFiles/light_switch_proxy_client_nrf52840_xxAA_s140_6.0.0.dir/__/__/__/mesh/gatt/src/mesh_gatt.c.obj
 .data          0x0000000000000000        0x0 CMakeFiles/light_switch_proxy_client_nrf52840_xxAA_s140_6.0.0.dir/__/__/__/mesh/gatt/src/mesh_gatt.c.obj
 .bss           0x0000000000000000        0x0 CMakeFiles/light_switch_proxy_client_nrf52840_xxAA_s140_6.0.0.dir/__/__/__/mesh/gatt/src/mesh_gatt.c.obj
 .text          0x0000000000000000        0x0 CMakeFiles/light_switch_proxy_client_nrf52840_xxAA_s140_6.0.0.dir/__/__/__/mesh/gatt/src/proxy.c.obj
 .data          0x0000000000000000        0x0 CMakeFiles/light_switch_proxy_client_nrf52840_xxAA_s140_6.0.0.dir/__/__/__/mesh/gatt/src/proxy.c.obj
 .bss           0x0000000000000000        0x0 CMakeFiles/light_switch_proxy_client_nrf52840_xxAA_s140_6.0.0.dir/__/__/__/mesh/gatt/src/proxy.c.obj
 .text.proxy_is_connected
                0x0000000000000000       0x18 CMakeFiles/light_switch_proxy_client_nrf52840_xxAA_s140_6.0.0.dir/__/__/__/mesh/gatt/src/proxy.c.obj
 .text          0x0000000000000000        0x0 CMakeFiles/light_switch_proxy_client_nrf52840_xxAA_s140_6.0.0.dir/__/__/__/mesh/gatt/src/proxy_filter.c.obj
 .data          0x0000000000000000        0x0 CMakeFiles/light_switch_proxy_client_nrf52840_xxAA_s140_6.0.0.dir/__/__/__/mesh/gatt/src/proxy_filter.c.obj
 .bss           0x0000000000000000        0x0 CMakeFiles/light_switch_proxy_client_nrf52840_xxAA_s140_6.0.0.dir/__/__/__/mesh/gatt/src/proxy_filter.c.obj
 .text          0x0000000000000000        0x0 CMakeFiles/light_switch_proxy_client_nrf52840_xxAA_s140_6.0.0.dir/__/__/__/models/simple_on_off/src/simple_on_off_client.c.obj
 .data          0x0000000000000000        0x0 CMakeFiles/light_switch_proxy_client_nrf52840_xxAA_s140_6.0.0.dir/__/__/__/models/simple_on_off/src/simple_on_off_client.c.obj
 .bss           0x0000000000000000        0x0 CMakeFiles/light_switch_proxy_client_nrf52840_xxAA_s140_6.0.0.dir/__/__/__/models/simple_on_off/src/simple_on_off_client.c.obj
 .text.simple_on_off_client_get
                0x0000000000000000       0x60 CMakeFiles/light_switch_proxy_client_nrf52840_xxAA_s140_6.0.0.dir/__/__/__/models/simple_on_off/src/simple_on_off_client.c.obj
 .text.simple_on_off_client_pending_msg_cancel
                0x0000000000000000        0x8 CMakeFiles/light_switch_proxy_client_nrf52840_xxAA_s140_6.0.0.dir/__/__/__/models/simple_on_off/src/simple_on_off_client.c.obj
 .text          0x0000000000000000        0x0 CMakeFiles/light_switch_proxy_client_nrf52840_xxAA_s140_6.0.0.dir/__/__/__/models/config/src/composition_data.c.obj
 .data          0x0000000000000000        0x0 CMakeFiles/light_switch_proxy_client_nrf52840_xxAA_s140_6.0.0.dir/__/__/__/models/config/src/composition_data.c.obj
 .bss           0x0000000000000000        0x0 CMakeFiles/light_switch_proxy_client_nrf52840_xxAA_s140_6.0.0.dir/__/__/__/models/config/src/composition_data.c.obj
 .text          0x0000000000000000        0x0 CMakeFiles/light_switch_proxy_client_nrf52840_xxAA_s140_6.0.0.dir/__/__/__/models/config/src/config_server.c.obj
 .data          0x0000000000000000        0x0 CMakeFiles/light_switch_proxy_client_nrf52840_xxAA_s140_6.0.0.dir/__/__/__/models/config/src/config_server.c.obj
 .bss           0x0000000000000000        0x0 CMakeFiles/light_switch_proxy_client_nrf52840_xxAA_s140_6.0.0.dir/__/__/__/models/config/src/config_server.c.obj
 .text          0x0000000000000000        0x0 CMakeFiles/light_switch_proxy_client_nrf52840_xxAA_s140_6.0.0.dir/__/__/__/models/config/src/packed_index_list.c.obj
 .data          0x0000000000000000        0x0 CMakeFiles/light_switch_proxy_client_nrf52840_xxAA_s140_6.0.0.dir/__/__/__/models/config/src/packed_index_list.c.obj
 .bss           0x0000000000000000        0x0 CMakeFiles/light_switch_proxy_client_nrf52840_xxAA_s140_6.0.0.dir/__/__/__/models/config/src/packed_index_list.c.obj
 .text          0x0000000000000000        0x0 CMakeFiles/light_switch_proxy_client_nrf52840_xxAA_s140_6.0.0.dir/__/__/__/models/health/src/health_server.c.obj
 .data          0x0000000000000000        0x0 CMakeFiles/light_switch_proxy_client_nrf52840_xxAA_s140_6.0.0.dir/__/__/__/models/health/src/health_server.c.obj
 .bss           0x0000000000000000        0x0 CMakeFiles/light_switch_proxy_client_nrf52840_xxAA_s140_6.0.0.dir/__/__/__/models/health/src/health_server.c.obj
 .text.health_server_fault_register
                0x0000000000000000      0x23c CMakeFiles/light_switch_proxy_client_nrf52840_xxAA_s140_6.0.0.dir/__/__/__/models/health/src/health_server.c.obj
 .text.health_server_fault_clear
                0x0000000000000000      0x2d8 CMakeFiles/light_switch_proxy_client_nrf52840_xxAA_s140_6.0.0.dir/__/__/__/models/health/src/health_server.c.obj
 .text.health_server_fault_is_set
                0x0000000000000000       0x1c CMakeFiles/light_switch_proxy_client_nrf52840_xxAA_s140_6.0.0.dir/__/__/__/models/health/src/health_server.c.obj
 .text.health_server_fault_count_get
                0x0000000000000000      0x14c CMakeFiles/light_switch_proxy_client_nrf52840_xxAA_s140_6.0.0.dir/__/__/__/models/health/src/health_server.c.obj
 .text.health_server_attention_get
                0x0000000000000000        0x8 CMakeFiles/light_switch_proxy_client_nrf52840_xxAA_s140_6.0.0.dir/__/__/__/models/health/src/health_server.c.obj
 .text.health_server_attention_set
                0x0000000000000000       0x90 CMakeFiles/light_switch_proxy_client_nrf52840_xxAA_s140_6.0.0.dir/__/__/__/models/health/src/health_server.c.obj
 .text          0x0000000000000000        0x0 CMakeFiles/light_switch_proxy_client_nrf52840_xxAA_s140_6.0.0.dir/__/__/__/mesh/access/src/access_publish.c.obj
 .data          0x0000000000000000        0x0 CMakeFiles/light_switch_proxy_client_nrf52840_xxAA_s140_6.0.0.dir/__/__/__/mesh/access/src/access_publish.c.obj
 .bss           0x0000000000000000        0x0 CMakeFiles/light_switch_proxy_client_nrf52840_xxAA_s140_6.0.0.dir/__/__/__/mesh/access/src/access_publish.c.obj
 .text          0x0000000000000000        0x0 CMakeFiles/light_switch_proxy_client_nrf52840_xxAA_s140_6.0.0.dir/__/__/__/mesh/access/src/access.c.obj
 .data          0x0000000000000000        0x0 CMakeFiles/light_switch_proxy_client_nrf52840_xxAA_s140_6.0.0.dir/__/__/__/mesh/access/src/access.c.obj
 .bss           0x0000000000000000        0x0 CMakeFiles/light_switch_proxy_client_nrf52840_xxAA_s140_6.0.0.dir/__/__/__/mesh/access/src/access.c.obj
 .text.access_model_subscription_lists_share
                0x0000000000000000       0x68 CMakeFiles/light_switch_proxy_client_nrf52840_xxAA_s140_6.0.0.dir/__/__/__/mesh/access/src/access.c.obj
 .text.access_element_location_set
                0x0000000000000000       0x3c CMakeFiles/light_switch_proxy_client_nrf52840_xxAA_s140_6.0.0.dir/__/__/__/mesh/access/src/access.c.obj
 .text          0x0000000000000000        0x0 CMakeFiles/light_switch_proxy_client_nrf52840_xxAA_s140_6.0.0.dir/__/__/__/mesh/access/src/access_reliable.c.obj
 .data          0x0000000000000000        0x0 CMakeFiles/light_switch_proxy_client_nrf52840_xxAA_s140_6.0.0.dir/__/__/__/mesh/access/src/access_reliable.c.obj
 .bss           0x0000000000000000        0x0 CMakeFiles/light_switch_proxy_client_nrf52840_xxAA_s140_6.0.0.dir/__/__/__/mesh/access/src/access_reliable.c.obj
 .text          0x0000000000000000        0x0 CMakeFiles/light_switch_proxy_client_nrf52840_xxAA_s140_6.0.0.dir/__/__/__/mesh/access/src/device_state_manager.c.obj
 .data          0x0000000000000000        0x0 CMakeFiles/light_switch_proxy_client_nrf52840_xxAA_s140_6.0.0.dir/__/__/__/mesh/access/src/device_state_manager.c.obj
 .bss           0x0000000000000000        0x0 CMakeFiles/light_switch_proxy_client_nrf52840_xxAA_s140_6.0.0.dir/__/__/__/mesh/access/src/device_state_manager.c.obj
 .text.dsm_has_unflashed_data
                0x0000000000000000        0x4 CMakeFiles/light_switch_proxy_client_nrf52840_xxAA_s140_6.0.0.dir/__/__/__/mesh/access/src/device_state_manager.c.obj
 .text.dsm_address_publish_add_handle
                0x0000000000000000       0x4c CMakeFiles/light_switch_proxy_client_nrf52840_xxAA_s140_6.0.0.dir/__/__/__/mesh/access/src/device_state_manager.c.obj
 .text.dsm_address_subscription_add_handle
                0x0000000000000000       0x4c CMakeFiles/light_switch_proxy_client_nrf52840_xxAA_s140_6.0.0.dir/__/__/__/mesh/access/src/device_state_manager.c.obj
 .text.dsm_address_subscription_count_get
                0x0000000000000000       0x74 CMakeFiles/light_switch_proxy_client_nrf52840_xxAA_s140_6.0.0.dir/__/__/__/mesh/access/src/device_state_manager.c.obj
 .text.dsm_address_get_all
                0x0000000000000000       0xd8 CMakeFiles/light_switch_proxy_client_nrf52840_xxAA_s140_6.0.0.dir/__/__/__/mesh/access/src/device_state_manager.c.obj
 .text.dsm_subnet_handle_to_netkey_index
                0x0000000000000000       0x24 CMakeFiles/light_switch_proxy_client_nrf52840_xxAA_s140_6.0.0.dir/__/__/__/mesh/access/src/device_state_manager.c.obj
 .text.dsm_devkey_delete
                0x0000000000000000       0x28 CMakeFiles/light_switch_proxy_client_nrf52840_xxAA_s140_6.0.0.dir/__/__/__/mesh/access/src/device_state_manager.c.obj
 .text.dsm_devkey_handle_get
                0x0000000000000000       0x3c CMakeFiles/light_switch_proxy_client_nrf52840_xxAA_s140_6.0.0.dir/__/__/__/mesh/access/src/device_state_manager.c.obj
 .text          0x0000000000000000        0x0 CMakeFiles/light_switch_proxy_client_nrf52840_xxAA_s140_6.0.0.dir/__/__/__/mesh/prov/src/prov_provisionee.c.obj
 .data          0x0000000000000000        0x0 CMakeFiles/light_switch_proxy_client_nrf52840_xxAA_s140_6.0.0.dir/__/__/__/mesh/prov/src/prov_provisionee.c.obj
 .bss           0x0000000000000000        0x0 CMakeFiles/light_switch_proxy_client_nrf52840_xxAA_s140_6.0.0.dir/__/__/__/mesh/prov/src/prov_provisionee.c.obj
 .text.prov_provisionee_shared_secret
                0x0000000000000000       0xa0 CMakeFiles/light_switch_proxy_client_nrf52840_xxAA_s140_6.0.0.dir/__/__/__/mesh/prov/src/prov_provisionee.c.obj
 .text          0x0000000000000000        0x0 CMakeFiles/light_switch_proxy_client_nrf52840_xxAA_s140_6.0.0.dir/__/__/__/mesh/prov/src/nrf_mesh_prov.c.obj
 .data          0x0000000000000000        0x0 CMakeFiles/light_switch_proxy_client_nrf52840_xxAA_s140_6.0.0.dir/__/__/__/mesh/prov/src/nrf_mesh_prov.c.obj
 .bss           0x0000000000000000        0x0 CMakeFiles/light_switch_proxy_client_nrf52840_xxAA_s140_6.0.0.dir/__/__/__/mesh/prov/src/nrf_mesh_prov.c.obj
 .text.nrf_mesh_prov_listen_stop
                0x0000000000000000       0x30 CMakeFiles/light_switch_proxy_client_nrf52840_xxAA_s140_6.0.0.dir/__/__/__/mesh/prov/src/nrf_mesh_prov.c.obj
 .text.nrf_mesh_prov_provision
                0x0000000000000000       0x68 CMakeFiles/light_switch_proxy_client_nrf52840_xxAA_s140_6.0.0.dir/__/__/__/mesh/prov/src/nrf_mesh_prov.c.obj
 .text.nrf_mesh_prov_oob_use
                0x0000000000000000       0x18 CMakeFiles/light_switch_proxy_client_nrf52840_xxAA_s140_6.0.0.dir/__/__/__/mesh/prov/src/nrf_mesh_prov.c.obj
 .text.nrf_mesh_prov_shared_secret_provide
                0x0000000000000000       0x10 CMakeFiles/light_switch_proxy_client_nrf52840_xxAA_s140_6.0.0.dir/__/__/__/mesh/prov/src/nrf_mesh_prov.c.obj
 .text.nrf_mesh_prov_pubkey_provide
                0x0000000000000000       0x10 CMakeFiles/light_switch_proxy_client_nrf52840_xxAA_s140_6.0.0.dir/__/__/__/mesh/prov/src/nrf_mesh_prov.c.obj
 .text.nrf_mesh_prov_scan_start
                0x0000000000000000       0x10 CMakeFiles/light_switch_proxy_client_nrf52840_xxAA_s140_6.0.0.dir/__/__/__/mesh/prov/src/nrf_mesh_prov.c.obj
 .text.nrf_mesh_prov_scan_stop
                0x0000000000000000        0x4 CMakeFiles/light_switch_proxy_client_nrf52840_xxAA_s140_6.0.0.dir/__/__/__/mesh/prov/src/nrf_mesh_prov.c.obj
 .text          0x0000000000000000        0x0 CMakeFiles/light_switch_proxy_client_nrf52840_xxAA_s140_6.0.0.dir/__/__/__/mesh/prov/src/provisioning.c.obj
 .data          0x0000000000000000        0x0 CMakeFiles/light_switch_proxy_client_nrf52840_xxAA_s140_6.0.0.dir/__/__/__/mesh/prov/src/provisioning.c.obj
 .bss           0x0000000000000000        0x0 CMakeFiles/light_switch_proxy_client_nrf52840_xxAA_s140_6.0.0.dir/__/__/__/mesh/prov/src/provisioning.c.obj
 .text.prov_tx_invite
                0x0000000000000000       0x38 CMakeFiles/light_switch_proxy_client_nrf52840_xxAA_s140_6.0.0.dir/__/__/__/mesh/prov/src/provisioning.c.obj
 .text.prov_tx_start
                0x0000000000000000       0x38 CMakeFiles/light_switch_proxy_client_nrf52840_xxAA_s140_6.0.0.dir/__/__/__/mesh/prov/src/provisioning.c.obj
 .text.prov_tx_data
                0x0000000000000000       0x34 CMakeFiles/light_switch_proxy_client_nrf52840_xxAA_s140_6.0.0.dir/__/__/__/mesh/prov/src/provisioning.c.obj
 .text.prov_tx  0x0000000000000000       0x3c CMakeFiles/light_switch_proxy_client_nrf52840_xxAA_s140_6.0.0.dir/__/__/__/mesh/prov/src/provisioning.c.obj
 .text          0x0000000000000000        0x0 CMakeFiles/light_switch_proxy_client_nrf52840_xxAA_s140_6.0.0.dir/__/__/__/mesh/prov/src/prov_beacon.c.obj
 .data          0x0000000000000000        0x0 CMakeFiles/light_switch_proxy_client_nrf52840_xxAA_s140_6.0.0.dir/__/__/__/mesh/prov/src/prov_beacon.c.obj
 .bss           0x0000000000000000        0x0 CMakeFiles/light_switch_proxy_client_nrf52840_xxAA_s140_6.0.0.dir/__/__/__/mesh/prov/src/prov_beacon.c.obj
 .text.prov_beacon_scan_start
                0x0000000000000000       0x1c CMakeFiles/light_switch_proxy_client_nrf52840_xxAA_s140_6.0.0.dir/__/__/__/mesh/prov/src/prov_beacon.c.obj
 .text.prov_beacon_scan_stop
                0x0000000000000000        0xc CMakeFiles/light_switch_proxy_client_nrf52840_xxAA_s140_6.0.0.dir/__/__/__/mesh/prov/src/prov_beacon.c.obj
 .text          0x0000000000000000        0x0 CMakeFiles/light_switch_proxy_client_nrf52840_xxAA_s140_6.0.0.dir/__/__/__/mesh/prov/src/prov_utils.c.obj
 .data          0x0000000000000000        0x0 CMakeFiles/light_switch_proxy_client_nrf52840_xxAA_s140_6.0.0.dir/__/__/__/mesh/prov/src/prov_utils.c.obj
 .bss           0x0000000000000000        0x0 CMakeFiles/light_switch_proxy_client_nrf52840_xxAA_s140_6.0.0.dir/__/__/__/mesh/prov/src/prov_utils.c.obj
 .text          0x0000000000000000        0x0 CMakeFiles/light_switch_proxy_client_nrf52840_xxAA_s140_6.0.0.dir/__/__/__/mesh/prov/src/prov_bearer_adv.c.obj
 .data          0x0000000000000000        0x0 CMakeFiles/light_switch_proxy_client_nrf52840_xxAA_s140_6.0.0.dir/__/__/__/mesh/prov/src/prov_bearer_adv.c.obj
 .bss           0x0000000000000000        0x0 CMakeFiles/light_switch_proxy_client_nrf52840_xxAA_s140_6.0.0.dir/__/__/__/mesh/prov/src/prov_bearer_adv.c.obj
 .text.calculate_3GPP_CRC
                0x0000000000000000       0x28 CMakeFiles/light_switch_proxy_client_nrf52840_xxAA_s140_6.0.0.dir/__/__/__/mesh/prov/src/prov_bearer_adv.c.obj
 .text          0x0000000000000000        0x0 CMakeFiles/light_switch_proxy_client_nrf52840_xxAA_s140_6.0.0.dir/home/mazzer/work/nordic/sdk/nRF5_SDK_15.0.0/modules/nrfx/mdk/system_nrf52840.c.obj
 .data          0x0000000000000000        0x0 CMakeFiles/light_switch_proxy_client_nrf52840_xxAA_s140_6.0.0.dir/home/mazzer/work/nordic/sdk/nRF5_SDK_15.0.0/modules/nrfx/mdk/system_nrf52840.c.obj
 .bss           0x0000000000000000        0x0 CMakeFiles/light_switch_proxy_client_nrf52840_xxAA_s140_6.0.0.dir/home/mazzer/work/nordic/sdk/nRF5_SDK_15.0.0/modules/nrfx/mdk/system_nrf52840.c.obj
 .text.SystemCoreClockUpdate
                0x0000000000000000       0x10 CMakeFiles/light_switch_proxy_client_nrf52840_xxAA_s140_6.0.0.dir/home/mazzer/work/nordic/sdk/nRF5_SDK_15.0.0/modules/nrfx/mdk/system_nrf52840.c.obj
 .data          0x0000000000000000        0x0 CMakeFiles/light_switch_proxy_client_nrf52840_xxAA_s140_6.0.0.dir/home/mazzer/work/nordic/sdk/nRF5_SDK_15.0.0/modules/nrfx/mdk/gcc_startup_nrf52840.S.obj
 .bss           0x0000000000000000        0x0 CMakeFiles/light_switch_proxy_client_nrf52840_xxAA_s140_6.0.0.dir/home/mazzer/work/nordic/sdk/nRF5_SDK_15.0.0/modules/nrfx/mdk/gcc_startup_nrf52840.S.obj
 .text          0x0000000000000000        0x0 CMakeFiles/light_switch_proxy_client_nrf52840_xxAA_s140_6.0.0.dir/home/mazzer/work/nordic/sdk/nRF5_SDK_15.0.0/components/libraries/util/app_error_handler_gcc.c.obj
 .data          0x0000000000000000        0x0 CMakeFiles/light_switch_proxy_client_nrf52840_xxAA_s140_6.0.0.dir/home/mazzer/work/nordic/sdk/nRF5_SDK_15.0.0/components/libraries/util/app_error_handler_gcc.c.obj
 .bss           0x0000000000000000        0x0 CMakeFiles/light_switch_proxy_client_nrf52840_xxAA_s140_6.0.0.dir/home/mazzer/work/nordic/sdk/nRF5_SDK_15.0.0/components/libraries/util/app_error_handler_gcc.c.obj
 .text          0x0000000000000000        0x0 ../../../external/rtt/librtt_nrf52840_xxAA.a(SEGGER_RTT.c.obj)
 .data          0x0000000000000000        0x0 ../../../external/rtt/librtt_nrf52840_xxAA.a(SEGGER_RTT.c.obj)
 .bss           0x0000000000000000        0x0 ../../../external/rtt/librtt_nrf52840_xxAA.a(SEGGER_RTT.c.obj)
 .text.SEGGER_RTT_ReadNoLock
                0x0000000000000000       0xfc ../../../external/rtt/librtt_nrf52840_xxAA.a(SEGGER_RTT.c.obj)
 .text.SEGGER_RTT_Read
                0x0000000000000000      0x118 ../../../external/rtt/librtt_nrf52840_xxAA.a(SEGGER_RTT.c.obj)
 .text.SEGGER_RTT_WriteSkipNoLock
                0x0000000000000000      0x1a8 ../../../external/rtt/librtt_nrf52840_xxAA.a(SEGGER_RTT.c.obj)
 .text.SEGGER_RTT_WriteNoLock
                0x0000000000000000      0x168 ../../../external/rtt/librtt_nrf52840_xxAA.a(SEGGER_RTT.c.obj)
 .text.SEGGER_RTT_WriteString
                0x0000000000000000      0x1f8 ../../../external/rtt/librtt_nrf52840_xxAA.a(SEGGER_RTT.c.obj)
 .text.SEGGER_RTT_WaitKey
                0x0000000000000000       0xfc ../../../external/rtt/librtt_nrf52840_xxAA.a(SEGGER_RTT.c.obj)
 .text.SEGGER_RTT_HasKey
                0x0000000000000000       0x6c ../../../external/rtt/librtt_nrf52840_xxAA.a(SEGGER_RTT.c.obj)
 .text.SEGGER_RTT_HasData
                0x0000000000000000       0x18 ../../../external/rtt/librtt_nrf52840_xxAA.a(SEGGER_RTT.c.obj)
 .text.SEGGER_RTT_AllocDownBuffer
                0x0000000000000000       0xb8 ../../../external/rtt/librtt_nrf52840_xxAA.a(SEGGER_RTT.c.obj)
 .text.SEGGER_RTT_AllocUpBuffer
                0x0000000000000000       0xd4 ../../../external/rtt/librtt_nrf52840_xxAA.a(SEGGER_RTT.c.obj)
 .text.SEGGER_RTT_ConfigUpBuffer
                0x0000000000000000       0xd0 ../../../external/rtt/librtt_nrf52840_xxAA.a(SEGGER_RTT.c.obj)
 .text.SEGGER_RTT_ConfigDownBuffer
                0x0000000000000000       0xb4 ../../../external/rtt/librtt_nrf52840_xxAA.a(SEGGER_RTT.c.obj)
 .text.SEGGER_RTT_SetNameUpBuffer
                0x0000000000000000       0x90 ../../../external/rtt/librtt_nrf52840_xxAA.a(SEGGER_RTT.c.obj)
 .text.SEGGER_RTT_SetNameDownBuffer
                0x0000000000000000       0x90 ../../../external/rtt/librtt_nrf52840_xxAA.a(SEGGER_RTT.c.obj)
 .text.SEGGER_RTT_Init
                0x0000000000000000       0x64 ../../../external/rtt/librtt_nrf52840_xxAA.a(SEGGER_RTT.c.obj)
 .text.SEGGER_RTT_SetTerminal
                0x0000000000000000      0x16c ../../../external/rtt/librtt_nrf52840_xxAA.a(SEGGER_RTT.c.obj)
 .text.SEGGER_RTT_TerminalOut
                0x0000000000000000      0x4d8 ../../../external/rtt/librtt_nrf52840_xxAA.a(SEGGER_RTT.c.obj)
 .bss._ActiveTerminal
                0x0000000000000000        0x1 ../../../external/rtt/librtt_nrf52840_xxAA.a(SEGGER_RTT.c.obj)
 .rodata._aTerminalId
                0x0000000000000000       0x10 ../../../external/rtt/librtt_nrf52840_xxAA.a(SEGGER_RTT.c.obj)
 .text          0x0000000000000000        0x0 ../../../external/rtt/librtt_nrf52840_xxAA.a(SEGGER_RTT_printf.c.obj)
 .data          0x0000000000000000        0x0 ../../../external/rtt/librtt_nrf52840_xxAA.a(SEGGER_RTT_printf.c.obj)
 .bss           0x0000000000000000        0x0 ../../../external/rtt/librtt_nrf52840_xxAA.a(SEGGER_RTT_printf.c.obj)
 .text          0x0000000000000000        0x0 ../../../external/micro-ecc/libuECC_nrf52840_xxAA.a(uECC.c.obj)
 .data          0x0000000000000000        0x0 ../../../external/micro-ecc/libuECC_nrf52840_xxAA.a(uECC.c.obj)
 .bss           0x0000000000000000        0x0 ../../../external/micro-ecc/libuECC_nrf52840_xxAA.a(uECC.c.obj)
 .text.HMAC_finish
                0x0000000000000000       0x70 ../../../external/micro-ecc/libuECC_nrf52840_xxAA.a(uECC.c.obj)
 .text.uECC_vli_mmod
                0x0000000000000000      0x418 ../../../external/micro-ecc/libuECC_nrf52840_xxAA.a(uECC.c.obj)
 .text.uECC_vli_modSub.isra.2
                0x0000000000000000       0x98 ../../../external/micro-ecc/libuECC_nrf52840_xxAA.a(uECC.c.obj)
 .text.bits2int
                0x0000000000000000      0x160 ../../../external/micro-ecc/libuECC_nrf52840_xxAA.a(uECC.c.obj)
 .text.uECC_sign_with_k
                0x0000000000000000      0x630 ../../../external/micro-ecc/libuECC_nrf52840_xxAA.a(uECC.c.obj)
 .text.uECC_set_rng
                0x0000000000000000        0xc ../../../external/micro-ecc/libuECC_nrf52840_xxAA.a(uECC.c.obj)
 .text.uECC_get_rng
                0x0000000000000000        0xc ../../../external/micro-ecc/libuECC_nrf52840_xxAA.a(uECC.c.obj)
 .text.uECC_curve_private_key_size
                0x0000000000000000       0x10 ../../../external/micro-ecc/libuECC_nrf52840_xxAA.a(uECC.c.obj)
 .text.uECC_curve_public_key_size
                0x0000000000000000        0x8 ../../../external/micro-ecc/libuECC_nrf52840_xxAA.a(uECC.c.obj)
 .text.uECC_valid_point
                0x0000000000000000      0x154 ../../../external/micro-ecc/libuECC_nrf52840_xxAA.a(uECC.c.obj)
 .text.uECC_compute_public_key
                0x0000000000000000      0x2e8 ../../../external/micro-ecc/libuECC_nrf52840_xxAA.a(uECC.c.obj)
 .text.uECC_sign
                0x0000000000000000       0x5c ../../../external/micro-ecc/libuECC_nrf52840_xxAA.a(uECC.c.obj)
 .text.uECC_sign_deterministic
                0x0000000000000000      0x414 ../../../external/micro-ecc/libuECC_nrf52840_xxAA.a(uECC.c.obj)
 .text.uECC_verify
                0x0000000000000000      0x960 ../../../external/micro-ecc/libuECC_nrf52840_xxAA.a(uECC.c.obj)
 .text          0x0000000000000000       0xa0 /usr/bin/../lib/gcc/arm-none-eabi/7.2.1/thumb/v7e-m/fpv4-sp/hard/libgcc.a(_aeabi_ldivmod.o)
 .data          0x0000000000000000        0x0 /usr/bin/../lib/gcc/arm-none-eabi/7.2.1/thumb/v7e-m/fpv4-sp/hard/libgcc.a(_aeabi_ldivmod.o)
 .bss           0x0000000000000000        0x0 /usr/bin/../lib/gcc/arm-none-eabi/7.2.1/thumb/v7e-m/fpv4-sp/hard/libgcc.a(_aeabi_ldivmod.o)
 .debug_frame   0x0000000000000000       0x44 /usr/bin/../lib/gcc/arm-none-eabi/7.2.1/thumb/v7e-m/fpv4-sp/hard/libgcc.a(_aeabi_ldivmod.o)
 .ARM.attributes
                0x0000000000000000       0x22 /usr/bin/../lib/gcc/arm-none-eabi/7.2.1/thumb/v7e-m/fpv4-sp/hard/libgcc.a(_aeabi_ldivmod.o)
 .data          0x0000000000000000        0x0 /usr/bin/../lib/gcc/arm-none-eabi/7.2.1/thumb/v7e-m/fpv4-sp/hard/libgcc.a(_aeabi_uldivmod.o)
 .bss           0x0000000000000000        0x0 /usr/bin/../lib/gcc/arm-none-eabi/7.2.1/thumb/v7e-m/fpv4-sp/hard/libgcc.a(_aeabi_uldivmod.o)
 .data          0x0000000000000000        0x0 /usr/bin/../lib/gcc/arm-none-eabi/7.2.1/thumb/v7e-m/fpv4-sp/hard/libgcc.a(_udivmoddi4.o)
 .bss           0x0000000000000000        0x0 /usr/bin/../lib/gcc/arm-none-eabi/7.2.1/thumb/v7e-m/fpv4-sp/hard/libgcc.a(_udivmoddi4.o)
 .ARM.extab     0x0000000000000000        0x0 /usr/bin/../lib/gcc/arm-none-eabi/7.2.1/thumb/v7e-m/fpv4-sp/hard/libgcc.a(_udivmoddi4.o)
 .data          0x0000000000000000        0x0 /usr/bin/../lib/gcc/arm-none-eabi/7.2.1/thumb/v7e-m/fpv4-sp/hard/libgcc.a(_dvmd_tls.o)
 .bss           0x0000000000000000        0x0 /usr/bin/../lib/gcc/arm-none-eabi/7.2.1/thumb/v7e-m/fpv4-sp/hard/libgcc.a(_dvmd_tls.o)
 .text          0x0000000000000000        0x0 /usr/bin/../lib/gcc/arm-none-eabi/7.2.1/../../../../arm-none-eabi/lib/thumb/v7e-m/fpv4-sp/hard/libg_nano.a(lib_a-exit.o)
 .data          0x0000000000000000        0x0 /usr/bin/../lib/gcc/arm-none-eabi/7.2.1/../../../../arm-none-eabi/lib/thumb/v7e-m/fpv4-sp/hard/libg_nano.a(lib_a-exit.o)
 .bss           0x0000000000000000        0x0 /usr/bin/../lib/gcc/arm-none-eabi/7.2.1/../../../../arm-none-eabi/lib/thumb/v7e-m/fpv4-sp/hard/libg_nano.a(lib_a-exit.o)
 .text          0x0000000000000000        0x0 /usr/bin/../lib/gcc/arm-none-eabi/7.2.1/../../../../arm-none-eabi/lib/thumb/v7e-m/fpv4-sp/hard/libg_nano.a(lib_a-impure.o)
 .data          0x0000000000000000        0x0 /usr/bin/../lib/gcc/arm-none-eabi/7.2.1/../../../../arm-none-eabi/lib/thumb/v7e-m/fpv4-sp/hard/libg_nano.a(lib_a-impure.o)
 .bss           0x0000000000000000        0x0 /usr/bin/../lib/gcc/arm-none-eabi/7.2.1/../../../../arm-none-eabi/lib/thumb/v7e-m/fpv4-sp/hard/libg_nano.a(lib_a-impure.o)
 .text          0x0000000000000000        0x0 /usr/bin/../lib/gcc/arm-none-eabi/7.2.1/../../../../arm-none-eabi/lib/thumb/v7e-m/fpv4-sp/hard/libg_nano.a(lib_a-init.o)
 .data          0x0000000000000000        0x0 /usr/bin/../lib/gcc/arm-none-eabi/7.2.1/../../../../arm-none-eabi/lib/thumb/v7e-m/fpv4-sp/hard/libg_nano.a(lib_a-init.o)
 .bss           0x0000000000000000        0x0 /usr/bin/../lib/gcc/arm-none-eabi/7.2.1/../../../../arm-none-eabi/lib/thumb/v7e-m/fpv4-sp/hard/libg_nano.a(lib_a-init.o)
 .text          0x0000000000000000        0x0 /usr/bin/../lib/gcc/arm-none-eabi/7.2.1/../../../../arm-none-eabi/lib/thumb/v7e-m/fpv4-sp/hard/libg_nano.a(lib_a-malloc.o)
 .data          0x0000000000000000        0x0 /usr/bin/../lib/gcc/arm-none-eabi/7.2.1/../../../../arm-none-eabi/lib/thumb/v7e-m/fpv4-sp/hard/libg_nano.a(lib_a-malloc.o)
 .bss           0x0000000000000000        0x0 /usr/bin/../lib/gcc/arm-none-eabi/7.2.1/../../../../arm-none-eabi/lib/thumb/v7e-m/fpv4-sp/hard/libg_nano.a(lib_a-malloc.o)
 .text          0x0000000000000000        0x0 /usr/bin/../lib/gcc/arm-none-eabi/7.2.1/../../../../arm-none-eabi/lib/thumb/v7e-m/fpv4-sp/hard/libg_nano.a(lib_a-memcmp.o)
 .data          0x0000000000000000        0x0 /usr/bin/../lib/gcc/arm-none-eabi/7.2.1/../../../../arm-none-eabi/lib/thumb/v7e-m/fpv4-sp/hard/libg_nano.a(lib_a-memcmp.o)
 .bss           0x0000000000000000        0x0 /usr/bin/../lib/gcc/arm-none-eabi/7.2.1/../../../../arm-none-eabi/lib/thumb/v7e-m/fpv4-sp/hard/libg_nano.a(lib_a-memcmp.o)
 .text          0x0000000000000000        0x0 /usr/bin/../lib/gcc/arm-none-eabi/7.2.1/../../../../arm-none-eabi/lib/thumb/v7e-m/fpv4-sp/hard/libg_nano.a(lib_a-memcpy-stub.o)
 .data          0x0000000000000000        0x0 /usr/bin/../lib/gcc/arm-none-eabi/7.2.1/../../../../arm-none-eabi/lib/thumb/v7e-m/fpv4-sp/hard/libg_nano.a(lib_a-memcpy-stub.o)
 .bss           0x0000000000000000        0x0 /usr/bin/../lib/gcc/arm-none-eabi/7.2.1/../../../../arm-none-eabi/lib/thumb/v7e-m/fpv4-sp/hard/libg_nano.a(lib_a-memcpy-stub.o)
 .text          0x0000000000000000        0x0 /usr/bin/../lib/gcc/arm-none-eabi/7.2.1/../../../../arm-none-eabi/lib/thumb/v7e-m/fpv4-sp/hard/libg_nano.a(lib_a-memset.o)
 .data          0x0000000000000000        0x0 /usr/bin/../lib/gcc/arm-none-eabi/7.2.1/../../../../arm-none-eabi/lib/thumb/v7e-m/fpv4-sp/hard/libg_nano.a(lib_a-memset.o)
 .bss           0x0000000000000000        0x0 /usr/bin/../lib/gcc/arm-none-eabi/7.2.1/../../../../arm-none-eabi/lib/thumb/v7e-m/fpv4-sp/hard/libg_nano.a(lib_a-memset.o)
 .text          0x0000000000000000        0x0 /usr/bin/../lib/gcc/arm-none-eabi/7.2.1/../../../../arm-none-eabi/lib/thumb/v7e-m/fpv4-sp/hard/libg_nano.a(lib_a-nano-freer.o)
 .data          0x0000000000000000        0x0 /usr/bin/../lib/gcc/arm-none-eabi/7.2.1/../../../../arm-none-eabi/lib/thumb/v7e-m/fpv4-sp/hard/libg_nano.a(lib_a-nano-freer.o)
 .bss           0x0000000000000000        0x0 /usr/bin/../lib/gcc/arm-none-eabi/7.2.1/../../../../arm-none-eabi/lib/thumb/v7e-m/fpv4-sp/hard/libg_nano.a(lib_a-nano-freer.o)
 .text          0x0000000000000000        0x0 /usr/bin/../lib/gcc/arm-none-eabi/7.2.1/../../../../arm-none-eabi/lib/thumb/v7e-m/fpv4-sp/hard/libg_nano.a(lib_a-nano-mallocr.o)
 .data          0x0000000000000000        0x0 /usr/bin/../lib/gcc/arm-none-eabi/7.2.1/../../../../arm-none-eabi/lib/thumb/v7e-m/fpv4-sp/hard/libg_nano.a(lib_a-nano-mallocr.o)
 .bss           0x0000000000000000        0x0 /usr/bin/../lib/gcc/arm-none-eabi/7.2.1/../../../../arm-none-eabi/lib/thumb/v7e-m/fpv4-sp/hard/libg_nano.a(lib_a-nano-mallocr.o)
 .text          0x0000000000000000        0x0 /usr/bin/../lib/gcc/arm-none-eabi/7.2.1/../../../../arm-none-eabi/lib/thumb/v7e-m/fpv4-sp/hard/libg_nano.a(lib_a-sbrkr.o)
 .data          0x0000000000000000        0x0 /usr/bin/../lib/gcc/arm-none-eabi/7.2.1/../../../../arm-none-eabi/lib/thumb/v7e-m/fpv4-sp/hard/libg_nano.a(lib_a-sbrkr.o)
 .bss           0x0000000000000000        0x0 /usr/bin/../lib/gcc/arm-none-eabi/7.2.1/../../../../arm-none-eabi/lib/thumb/v7e-m/fpv4-sp/hard/libg_nano.a(lib_a-sbrkr.o)
 .text          0x0000000000000000        0x0 /usr/bin/../lib/gcc/arm-none-eabi/7.2.1/../../../../arm-none-eabi/lib/thumb/v7e-m/fpv4-sp/hard/libg_nano.a(lib_a-strcpy.o)
 .data          0x0000000000000000        0x0 /usr/bin/../lib/gcc/arm-none-eabi/7.2.1/../../../../arm-none-eabi/lib/thumb/v7e-m/fpv4-sp/hard/libg_nano.a(lib_a-strcpy.o)
 .bss           0x0000000000000000        0x0 /usr/bin/../lib/gcc/arm-none-eabi/7.2.1/../../../../arm-none-eabi/lib/thumb/v7e-m/fpv4-sp/hard/libg_nano.a(lib_a-strcpy.o)
 .data          0x0000000000000000        0x0 /usr/bin/../lib/gcc/arm-none-eabi/7.2.1/../../../../arm-none-eabi/lib/thumb/v7e-m/fpv4-sp/hard/libg_nano.a(lib_a-strlen.o)
 .bss           0x0000000000000000        0x0 /usr/bin/../lib/gcc/arm-none-eabi/7.2.1/../../../../arm-none-eabi/lib/thumb/v7e-m/fpv4-sp/hard/libg_nano.a(lib_a-strlen.o)
 .text          0x0000000000000000        0x0 /usr/bin/../lib/gcc/arm-none-eabi/7.2.1/../../../../arm-none-eabi/lib/thumb/v7e-m/fpv4-sp/hard/libg_nano.a(lib_a-strrchr.o)
 .data          0x0000000000000000        0x0 /usr/bin/../lib/gcc/arm-none-eabi/7.2.1/../../../../arm-none-eabi/lib/thumb/v7e-m/fpv4-sp/hard/libg_nano.a(lib_a-strrchr.o)
 .bss           0x0000000000000000        0x0 /usr/bin/../lib/gcc/arm-none-eabi/7.2.1/../../../../arm-none-eabi/lib/thumb/v7e-m/fpv4-sp/hard/libg_nano.a(lib_a-strrchr.o)
 .text          0x0000000000000000        0x0 /usr/bin/../lib/gcc/arm-none-eabi/7.2.1/../../../../arm-none-eabi/lib/thumb/v7e-m/fpv4-sp/hard/libg_nano.a(lib_a-mlock.o)
 .data          0x0000000000000000        0x0 /usr/bin/../lib/gcc/arm-none-eabi/7.2.1/../../../../arm-none-eabi/lib/thumb/v7e-m/fpv4-sp/hard/libg_nano.a(lib_a-mlock.o)
 .bss           0x0000000000000000        0x0 /usr/bin/../lib/gcc/arm-none-eabi/7.2.1/../../../../arm-none-eabi/lib/thumb/v7e-m/fpv4-sp/hard/libg_nano.a(lib_a-mlock.o)
 .text          0x0000000000000000        0x0 /usr/bin/../lib/gcc/arm-none-eabi/7.2.1/../../../../arm-none-eabi/lib/thumb/v7e-m/fpv4-sp/hard/libg_nano.a(lib_a-reent.o)
 .data          0x0000000000000000        0x0 /usr/bin/../lib/gcc/arm-none-eabi/7.2.1/../../../../arm-none-eabi/lib/thumb/v7e-m/fpv4-sp/hard/libg_nano.a(lib_a-reent.o)
 .bss           0x0000000000000000        0x0 /usr/bin/../lib/gcc/arm-none-eabi/7.2.1/../../../../arm-none-eabi/lib/thumb/v7e-m/fpv4-sp/hard/libg_nano.a(lib_a-reent.o)
 .text.cleanup_glue
                0x0000000000000000       0x1a /usr/bin/../lib/gcc/arm-none-eabi/7.2.1/../../../../arm-none-eabi/lib/thumb/v7e-m/fpv4-sp/hard/libg_nano.a(lib_a-reent.o)
 .text._reclaim_reent
                0x0000000000000000       0xb8 /usr/bin/../lib/gcc/arm-none-eabi/7.2.1/../../../../arm-none-eabi/lib/thumb/v7e-m/fpv4-sp/hard/libg_nano.a(lib_a-reent.o)
 .text          0x0000000000000000        0x0 /usr/bin/../lib/gcc/arm-none-eabi/7.2.1/../../../../arm-none-eabi/lib/thumb/v7e-m/fpv4-sp/hard/libg_nano.a(lib_a-strchr.o)
 .data          0x0000000000000000        0x0 /usr/bin/../lib/gcc/arm-none-eabi/7.2.1/../../../../arm-none-eabi/lib/thumb/v7e-m/fpv4-sp/hard/libg_nano.a(lib_a-strchr.o)
 .bss           0x0000000000000000        0x0 /usr/bin/../lib/gcc/arm-none-eabi/7.2.1/../../../../arm-none-eabi/lib/thumb/v7e-m/fpv4-sp/hard/libg_nano.a(lib_a-strchr.o)
 .text          0x0000000000000000        0x0 /usr/bin/../lib/gcc/arm-none-eabi/7.2.1/thumb/v7e-m/fpv4-sp/hard/crtend.o
 .data          0x0000000000000000        0x0 /usr/bin/../lib/gcc/arm-none-eabi/7.2.1/thumb/v7e-m/fpv4-sp/hard/crtend.o
 .bss           0x0000000000000000        0x0 /usr/bin/../lib/gcc/arm-none-eabi/7.2.1/thumb/v7e-m/fpv4-sp/hard/crtend.o
 .text          0x0000000000000000        0x0 /usr/bin/../lib/gcc/arm-none-eabi/7.2.1/thumb/v7e-m/fpv4-sp/hard/crtn.o
 .data          0x0000000000000000        0x0 /usr/bin/../lib/gcc/arm-none-eabi/7.2.1/thumb/v7e-m/fpv4-sp/hard/crtn.o
 .bss           0x0000000000000000        0x0 /usr/bin/../lib/gcc/arm-none-eabi/7.2.1/thumb/v7e-m/fpv4-sp/hard/crtn.o
 .text          0x0000000000000000        0x0 /usr/bin/../lib/gcc/arm-none-eabi/7.2.1/../../../../arm-none-eabi/lib/thumb/v7e-m/fpv4-sp/hard/libnosys.a(sbrk.o)
 .data          0x0000000000000000        0x0 /usr/bin/../lib/gcc/arm-none-eabi/7.2.1/../../../../arm-none-eabi/lib/thumb/v7e-m/fpv4-sp/hard/libnosys.a(sbrk.o)
 .bss           0x0000000000000000        0x0 /usr/bin/../lib/gcc/arm-none-eabi/7.2.1/../../../../arm-none-eabi/lib/thumb/v7e-m/fpv4-sp/hard/libnosys.a(sbrk.o)
 .text          0x0000000000000000        0x0 /usr/bin/../lib/gcc/arm-none-eabi/7.2.1/../../../../arm-none-eabi/lib/thumb/v7e-m/fpv4-sp/hard/libnosys.a(_exit.o)
 .data          0x0000000000000000        0x0 /usr/bin/../lib/gcc/arm-none-eabi/7.2.1/../../../../arm-none-eabi/lib/thumb/v7e-m/fpv4-sp/hard/libnosys.a(_exit.o)
 .bss           0x0000000000000000        0x0 /usr/bin/../lib/gcc/arm-none-eabi/7.2.1/../../../../arm-none-eabi/lib/thumb/v7e-m/fpv4-sp/hard/libnosys.a(_exit.o)

Memory Configuration

Name             Origin             Length             Attributes
FLASH            0x0000000000026000 0x00000000000d1000 xr
RAM              0x00000000200032c8 0x000000000003ca38 xrw
*default*        0x0000000000000000 0xffffffffffffffff

Linker script and memory map


.text           0x0000000000026000    0x1d520
 *(.isr_vector)
 .isr_vector    0x0000000000026000      0x200 CMakeFiles/light_switch_proxy_client_nrf52840_xxAA_s140_6.0.0.dir/home/mazzer/work/nordic/sdk/nRF5_SDK_15.0.0/modules/nrfx/mdk/gcc_startup_nrf52840.S.obj
                0x0000000000026000                __isr_vector
 *(.text*)
 .text          0x0000000000026200       0x40 /usr/bin/../lib/gcc/arm-none-eabi/7.2.1/thumb/v7e-m/fpv4-sp/hard/crtbegin.o
 .text          0x0000000000026240       0x74 /usr/bin/../lib/gcc/arm-none-eabi/7.2.1/../../../../arm-none-eabi/lib/thumb/v7e-m/fpv4-sp/hard/crt0.o
                0x0000000000026240                _mainCRTStartup
                0x0000000000026240                _start
 .text.sd_app_evt_wait
                0x00000000000262b4        0x4 CMakeFiles/light_switch_proxy_client_nrf52840_xxAA_s140_6.0.0.dir/src/main.c.obj
 .text.sd_ble_gap_ppcp_set
                0x00000000000262b8        0x4 CMakeFiles/light_switch_proxy_client_nrf52840_xxAA_s140_6.0.0.dir/src/main.c.obj
 .text.sd_ble_gap_device_name_set
                0x00000000000262bc        0x4 CMakeFiles/light_switch_proxy_client_nrf52840_xxAA_s140_6.0.0.dir/src/main.c.obj
 .text.on_sd_evt
                0x00000000000262c0        0x4 CMakeFiles/light_switch_proxy_client_nrf52840_xxAA_s140_6.0.0.dir/src/main.c.obj
 .text.provisioning_complete_cb
                0x00000000000262c4       0xe4 CMakeFiles/light_switch_proxy_client_nrf52840_xxAA_s140_6.0.0.dir/src/main.c.obj
 .text.button_event_handler
                0x00000000000263a8      0x1d0 CMakeFiles/light_switch_proxy_client_nrf52840_xxAA_s140_6.0.0.dir/src/main.c.obj
 .text.models_init_cb
                0x0000000000026578       0xbc CMakeFiles/light_switch_proxy_client_nrf52840_xxAA_s140_6.0.0.dir/src/main.c.obj
 .text.client_status_cb
                0x0000000000026634      0x128 CMakeFiles/light_switch_proxy_client_nrf52840_xxAA_s140_6.0.0.dir/src/main.c.obj
 .text.config_server_evt_cb
                0x000000000002675c       0x88 CMakeFiles/light_switch_proxy_client_nrf52840_xxAA_s140_6.0.0.dir/src/main.c.obj
 .text.client_publish_timeout_cb
                0x00000000000267e4       0x70 CMakeFiles/light_switch_proxy_client_nrf52840_xxAA_s140_6.0.0.dir/src/main.c.obj
 .text.rtt_input_handler
                0x0000000000026854      0x1d8 CMakeFiles/light_switch_proxy_client_nrf52840_xxAA_s140_6.0.0.dir/src/main.c.obj
 .text.startup.main
                0x0000000000026a2c      0x444 CMakeFiles/light_switch_proxy_client_nrf52840_xxAA_s140_6.0.0.dir/src/main.c.obj
                0x0000000000026a2c                main
 .text.mesh_stack_init
                0x0000000000026e70       0x9c CMakeFiles/light_switch_proxy_client_nrf52840_xxAA_s140_6.0.0.dir/__/__/__/mesh/stack/src/mesh_stack.c.obj
                0x0000000000026e70                mesh_stack_init
 .text.mesh_stack_start
                0x0000000000026f0c       0x20 CMakeFiles/light_switch_proxy_client_nrf52840_xxAA_s140_6.0.0.dir/__/__/__/mesh/stack/src/mesh_stack.c.obj
                0x0000000000026f0c                mesh_stack_start
 .text.mesh_stack_provisioning_data_store
                0x0000000000026f2c       0x78 CMakeFiles/light_switch_proxy_client_nrf52840_xxAA_s140_6.0.0.dir/__/__/__/mesh/stack/src/mesh_stack.c.obj
                0x0000000000026f2c                mesh_stack_provisioning_data_store
 .text.mesh_stack_config_clear
                0x0000000000026fa4       0x14 CMakeFiles/light_switch_proxy_client_nrf52840_xxAA_s140_6.0.0.dir/__/__/__/mesh/stack/src/mesh_stack.c.obj
                0x0000000000026fa4                mesh_stack_config_clear
 .text.mesh_stack_device_reset
                0x0000000000026fb8        0x8 CMakeFiles/light_switch_proxy_client_nrf52840_xxAA_s140_6.0.0.dir/__/__/__/mesh/stack/src/mesh_stack.c.obj
                0x0000000000026fb8                mesh_stack_device_reset
 .text.sd_state_evt_handler
                0x0000000000026fc0       0x98 CMakeFiles/light_switch_proxy_client_nrf52840_xxAA_s140_6.0.0.dir/__/__/common/src/mesh_provisionee.c.obj
 .text.prov_evt_handler
                0x0000000000027058       0x8c CMakeFiles/light_switch_proxy_client_nrf52840_xxAA_s140_6.0.0.dir/__/__/common/src/mesh_provisionee.c.obj
 .text.mesh_provisionee_prov_start
                0x00000000000270e4       0xac CMakeFiles/light_switch_proxy_client_nrf52840_xxAA_s140_6.0.0.dir/__/__/common/src/mesh_provisionee.c.obj
                0x00000000000270e4                mesh_provisionee_prov_start
 .text.TIMER2_IRQHandler
                0x0000000000027190       0x3c CMakeFiles/light_switch_proxy_client_nrf52840_xxAA_s140_6.0.0.dir/__/__/common/src/rtt_input.c.obj
                0x0000000000027190                TIMER2_IRQHandler
 .text.rtt_input_enable
                0x00000000000271cc       0x5c CMakeFiles/light_switch_proxy_client_nrf52840_xxAA_s140_6.0.0.dir/__/__/common/src/rtt_input.c.obj
                0x00000000000271cc                rtt_input_enable
 .text.hal_led_pin_get
                0x0000000000027228       0x18 CMakeFiles/light_switch_proxy_client_nrf52840_xxAA_s140_6.0.0.dir/__/__/common/src/simple_hal.c.obj
                0x0000000000027228                hal_led_pin_get
 .text.hal_led_pin_set
                0x0000000000027240       0x18 CMakeFiles/light_switch_proxy_client_nrf52840_xxAA_s140_6.0.0.dir/__/__/common/src/simple_hal.c.obj
                0x0000000000027240                hal_led_pin_set
 .text.hal_led_mask_set
                0x0000000000027258       0x14 CMakeFiles/light_switch_proxy_client_nrf52840_xxAA_s140_6.0.0.dir/__/__/common/src/simple_hal.c.obj
                0x0000000000027258                hal_led_mask_set
 .text.hal_led_blink_ms
                0x000000000002726c       0x50 CMakeFiles/light_switch_proxy_client_nrf52840_xxAA_s140_6.0.0.dir/__/__/common/src/simple_hal.c.obj
                0x000000000002726c                hal_led_blink_ms
 .text.hal_leds_init
                0x00000000000272bc       0x3c CMakeFiles/light_switch_proxy_client_nrf52840_xxAA_s140_6.0.0.dir/__/__/common/src/simple_hal.c.obj
                0x00000000000272bc                hal_leds_init
 .text.hal_buttons_init
                0x00000000000272f8       0x54 CMakeFiles/light_switch_proxy_client_nrf52840_xxAA_s140_6.0.0.dir/__/__/common/src/simple_hal.c.obj
                0x00000000000272f8                hal_buttons_init
 .text.GPIOTE_IRQHandler
                0x000000000002734c       0x70 CMakeFiles/light_switch_proxy_client_nrf52840_xxAA_s140_6.0.0.dir/__/__/common/src/simple_hal.c.obj
                0x000000000002734c                GPIOTE_IRQHandler
 .text.sd_ble_gap_adv_set_configure
                0x00000000000273bc        0x4 CMakeFiles/light_switch_proxy_client_nrf52840_xxAA_s140_6.0.0.dir/__/__/common/src/mesh_adv.c.obj
 .text.sd_ble_gap_adv_start
                0x00000000000273c0        0x4 CMakeFiles/light_switch_proxy_client_nrf52840_xxAA_s140_6.0.0.dir/__/__/common/src/mesh_adv.c.obj
 .text.sd_ble_gap_adv_stop
                0x00000000000273c4        0x4 CMakeFiles/light_switch_proxy_client_nrf52840_xxAA_s140_6.0.0.dir/__/__/common/src/mesh_adv.c.obj
 .text.mesh_adv_data_set
                0x00000000000273c8       0xe4 CMakeFiles/light_switch_proxy_client_nrf52840_xxAA_s140_6.0.0.dir/__/__/common/src/mesh_adv.c.obj
                0x00000000000273c8                mesh_adv_data_set
 .text.mesh_adv_params_set
                0x00000000000274ac       0x14 CMakeFiles/light_switch_proxy_client_nrf52840_xxAA_s140_6.0.0.dir/__/__/common/src/mesh_adv.c.obj
                0x00000000000274ac                mesh_adv_params_set
 .text.mesh_adv_start
                0x00000000000274c0       0x1c CMakeFiles/light_switch_proxy_client_nrf52840_xxAA_s140_6.0.0.dir/__/__/common/src/mesh_adv.c.obj
                0x00000000000274c0                mesh_adv_start
 .text.mesh_adv_stop
                0x00000000000274dc       0x1c CMakeFiles/light_switch_proxy_client_nrf52840_xxAA_s140_6.0.0.dir/__/__/common/src/mesh_adv.c.obj
                0x00000000000274dc                mesh_adv_stop
 .text.pb_gatt_fsm_action
                0x00000000000274f8       0x10 CMakeFiles/light_switch_proxy_client_nrf52840_xxAA_s140_6.0.0.dir/__/__/__/mesh/prov/src/nrf_mesh_prov_bearer_gatt.c.obj
 .text.pb_gatt_fsm_guard
                0x0000000000027508       0x10 CMakeFiles/light_switch_proxy_client_nrf52840_xxAA_s140_6.0.0.dir/__/__/__/mesh/prov/src/nrf_mesh_prov_bearer_gatt.c.obj
 .text.a_link_open_notify
                0x0000000000027518        0xc CMakeFiles/light_switch_proxy_client_nrf52840_xxAA_s140_6.0.0.dir/__/__/__/mesh/prov/src/nrf_mesh_prov_bearer_gatt.c.obj
 .text.a_pdu_ack
                0x0000000000027524        0xc CMakeFiles/light_switch_proxy_client_nrf52840_xxAA_s140_6.0.0.dir/__/__/__/mesh/prov/src/nrf_mesh_prov_bearer_gatt.c.obj
 .text.link_evt_process
                0x0000000000027530        0xc CMakeFiles/light_switch_proxy_client_nrf52840_xxAA_s140_6.0.0.dir/__/__/__/mesh/prov/src/nrf_mesh_prov_bearer_gatt.c.obj
 .text.link_timer_cb
                0x000000000002753c       0x24 CMakeFiles/light_switch_proxy_client_nrf52840_xxAA_s140_6.0.0.dir/__/__/__/mesh/prov/src/nrf_mesh_prov_bearer_gatt.c.obj
 .text.tx_cb    0x0000000000027560       0x30 CMakeFiles/light_switch_proxy_client_nrf52840_xxAA_s140_6.0.0.dir/__/__/__/mesh/prov/src/nrf_mesh_prov_bearer_gatt.c.obj
 .text.mesh_gatt_event_handler
                0x0000000000027590       0xb0 CMakeFiles/light_switch_proxy_client_nrf52840_xxAA_s140_6.0.0.dir/__/__/__/mesh/prov/src/nrf_mesh_prov_bearer_gatt.c.obj
 .text.a_listen_stop
                0x0000000000027640        0x4 CMakeFiles/light_switch_proxy_client_nrf52840_xxAA_s140_6.0.0.dir/__/__/__/mesh/prov/src/nrf_mesh_prov_bearer_gatt.c.obj
 .text.a_listen_start
                0x0000000000027644       0x3c CMakeFiles/light_switch_proxy_client_nrf52840_xxAA_s140_6.0.0.dir/__/__/__/mesh/prov/src/nrf_mesh_prov_bearer_gatt.c.obj
 .text.a_pdu_tx
                0x0000000000027680       0x50 CMakeFiles/light_switch_proxy_client_nrf52840_xxAA_s140_6.0.0.dir/__/__/__/mesh/prov/src/nrf_mesh_prov_bearer_gatt.c.obj
 .text.a_link_close_notify
                0x00000000000276d0       0x1c CMakeFiles/light_switch_proxy_client_nrf52840_xxAA_s140_6.0.0.dir/__/__/__/mesh/prov/src/nrf_mesh_prov_bearer_gatt.c.obj
 .text.a_link_close
                0x00000000000276ec       0x18 CMakeFiles/light_switch_proxy_client_nrf52840_xxAA_s140_6.0.0.dir/__/__/__/mesh/prov/src/nrf_mesh_prov_bearer_gatt.c.obj
 .text.listen_start_cb
                0x0000000000027704       0x48 CMakeFiles/light_switch_proxy_client_nrf52840_xxAA_s140_6.0.0.dir/__/__/__/mesh/prov/src/nrf_mesh_prov_bearer_gatt.c.obj
 .text.a_link_timer_start
                0x000000000002774c       0x18 CMakeFiles/light_switch_proxy_client_nrf52840_xxAA_s140_6.0.0.dir/__/__/__/mesh/prov/src/nrf_mesh_prov_bearer_gatt.c.obj
 .text.a_pdu_rx
                0x0000000000027764       0x28 CMakeFiles/light_switch_proxy_client_nrf52840_xxAA_s140_6.0.0.dir/__/__/__/mesh/prov/src/nrf_mesh_prov_bearer_gatt.c.obj
 .text.link_close_cb
                0x000000000002778c       0x40 CMakeFiles/light_switch_proxy_client_nrf52840_xxAA_s140_6.0.0.dir/__/__/__/mesh/prov/src/nrf_mesh_prov_bearer_gatt.c.obj
 .text.listen_stop_cb
                0x00000000000277cc       0x40 CMakeFiles/light_switch_proxy_client_nrf52840_xxAA_s140_6.0.0.dir/__/__/__/mesh/prov/src/nrf_mesh_prov_bearer_gatt.c.obj
 .text.nrf_mesh_prov_bearer_gatt_init
                0x000000000002780c       0x68 CMakeFiles/light_switch_proxy_client_nrf52840_xxAA_s140_6.0.0.dir/__/__/__/mesh/prov/src/nrf_mesh_prov_bearer_gatt.c.obj
                0x000000000002780c                nrf_mesh_prov_bearer_gatt_init
 .text.nrf_mesh_prov_bearer_gatt_interface_get
                0x0000000000027874       0x14 CMakeFiles/light_switch_proxy_client_nrf52840_xxAA_s140_6.0.0.dir/__/__/__/mesh/prov/src/nrf_mesh_prov_bearer_gatt.c.obj
                0x0000000000027874                nrf_mesh_prov_bearer_gatt_interface_get
 .text.app_error_handler_bare
                0x0000000000027888       0x20 CMakeFiles/light_switch_proxy_client_nrf52840_xxAA_s140_6.0.0.dir/home/mazzer/work/nordic/sdk/nRF5_SDK_15.0.0/components/libraries/util/app_error.c.obj
                0x0000000000027888                app_error_handler_bare
 .text.app_util_critical_region_enter
                0x00000000000278a8       0x4c CMakeFiles/light_switch_proxy_client_nrf52840_xxAA_s140_6.0.0.dir/home/mazzer/work/nordic/sdk/nRF5_SDK_15.0.0/components/libraries/util/app_util_platform.c.obj
                0x00000000000278a8                app_util_critical_region_enter
 .text.app_util_critical_region_exit
                0x00000000000278f4       0x30 CMakeFiles/light_switch_proxy_client_nrf52840_xxAA_s140_6.0.0.dir/home/mazzer/work/nordic/sdk/nRF5_SDK_15.0.0/components/libraries/util/app_util_platform.c.obj
                0x00000000000278f4                app_util_critical_region_exit
 .text.sd_ble_gap_addr_get
                0x0000000000027924        0x4 CMakeFiles/light_switch_proxy_client_nrf52840_xxAA_s140_6.0.0.dir/home/mazzer/work/nordic/sdk/nRF5_SDK_15.0.0/components/ble/common/ble_advdata.c.obj
 .text.sd_ble_gap_appearance_get
                0x0000000000027928        0x4 CMakeFiles/light_switch_proxy_client_nrf52840_xxAA_s140_6.0.0.dir/home/mazzer/work/nordic/sdk/nRF5_SDK_15.0.0/components/ble/common/ble_advdata.c.obj
 .text.sd_ble_gap_device_name_get
                0x000000000002792c        0x4 CMakeFiles/light_switch_proxy_client_nrf52840_xxAA_s140_6.0.0.dir/home/mazzer/work/nordic/sdk/nRF5_SDK_15.0.0/components/ble/common/ble_advdata.c.obj
 .text.sd_ble_uuid_encode
                0x0000000000027930        0x4 CMakeFiles/light_switch_proxy_client_nrf52840_xxAA_s140_6.0.0.dir/home/mazzer/work/nordic/sdk/nRF5_SDK_15.0.0/components/ble/common/ble_advdata.c.obj
 .text.uuid_list_sized_encode
                0x0000000000027934       0xb4 CMakeFiles/light_switch_proxy_client_nrf52840_xxAA_s140_6.0.0.dir/home/mazzer/work/nordic/sdk/nRF5_SDK_15.0.0/components/ble/common/ble_advdata.c.obj
 .text.ble_advdata_encode
                0x00000000000279e8      0x3f8 CMakeFiles/light_switch_proxy_client_nrf52840_xxAA_s140_6.0.0.dir/home/mazzer/work/nordic/sdk/nRF5_SDK_15.0.0/components/ble/common/ble_advdata.c.obj
                0x00000000000279e8                ble_advdata_encode
 .text.nrf_section_iter_init
                0x0000000000027de0       0x14 CMakeFiles/light_switch_proxy_client_nrf52840_xxAA_s140_6.0.0.dir/home/mazzer/work/nordic/sdk/nRF5_SDK_15.0.0/components/libraries/experimental_section_vars/nrf_section_iter.c.obj
                0x0000000000027de0                nrf_section_iter_init
 .text.nrf_section_iter_next
                0x0000000000027df4       0x18 CMakeFiles/light_switch_proxy_client_nrf52840_xxAA_s140_6.0.0.dir/home/mazzer/work/nordic/sdk/nRF5_SDK_15.0.0/components/libraries/experimental_section_vars/nrf_section_iter.c.obj
                0x0000000000027df4                nrf_section_iter_next
 .text.sd_softdevice_enable
                0x0000000000027e0c        0x4 CMakeFiles/light_switch_proxy_client_nrf52840_xxAA_s140_6.0.0.dir/home/mazzer/work/nordic/sdk/nRF5_SDK_15.0.0/components/softdevice/common/nrf_sdh.c.obj
 .text.sd_softdevice_disable
                0x0000000000027e10        0x4 CMakeFiles/light_switch_proxy_client_nrf52840_xxAA_s140_6.0.0.dir/home/mazzer/work/nordic/sdk/nRF5_SDK_15.0.0/components/softdevice/common/nrf_sdh.c.obj
 .text.nrf_sdh_enable_request
                0x0000000000027e14      0x114 CMakeFiles/light_switch_proxy_client_nrf52840_xxAA_s140_6.0.0.dir/home/mazzer/work/nordic/sdk/nRF5_SDK_15.0.0/components/softdevice/common/nrf_sdh.c.obj
                0x0000000000027e14                nrf_sdh_enable_request
 .text.nrf_sdh_disable_request
                0x0000000000027f28       0xe0 CMakeFiles/light_switch_proxy_client_nrf52840_xxAA_s140_6.0.0.dir/home/mazzer/work/nordic/sdk/nRF5_SDK_15.0.0/components/softdevice/common/nrf_sdh.c.obj
                0x0000000000027f28                nrf_sdh_disable_request
 .text.SWI2_EGU2_IRQHandler
                0x0000000000028008       0x2c CMakeFiles/light_switch_proxy_client_nrf52840_xxAA_s140_6.0.0.dir/home/mazzer/work/nordic/sdk/nRF5_SDK_15.0.0/components/softdevice/common/nrf_sdh.c.obj
                0x0000000000028008                SWI2_EGU2_IRQHandler
 .text.sd_evt_get
                0x0000000000028034        0x4 CMakeFiles/light_switch_proxy_client_nrf52840_xxAA_s140_6.0.0.dir/home/mazzer/work/nordic/sdk/nRF5_SDK_15.0.0/components/softdevice/common/nrf_sdh_soc.c.obj
 .text.nrf_sdh_soc_evts_poll
                0x0000000000028038       0x4c CMakeFiles/light_switch_proxy_client_nrf52840_xxAA_s140_6.0.0.dir/home/mazzer/work/nordic/sdk/nRF5_SDK_15.0.0/components/softdevice/common/nrf_sdh_soc.c.obj
 .text.sd_ble_enable
                0x0000000000028084        0x4 CMakeFiles/light_switch_proxy_client_nrf52840_xxAA_s140_6.0.0.dir/home/mazzer/work/nordic/sdk/nRF5_SDK_15.0.0/components/softdevice/common/nrf_sdh_ble.c.obj
 .text.sd_ble_cfg_set
                0x0000000000028088        0x4 CMakeFiles/light_switch_proxy_client_nrf52840_xxAA_s140_6.0.0.dir/home/mazzer/work/nordic/sdk/nRF5_SDK_15.0.0/components/softdevice/common/nrf_sdh_ble.c.obj
 .text.sd_ble_evt_get
                0x000000000002808c        0x4 CMakeFiles/light_switch_proxy_client_nrf52840_xxAA_s140_6.0.0.dir/home/mazzer/work/nordic/sdk/nRF5_SDK_15.0.0/components/softdevice/common/nrf_sdh_ble.c.obj
 .text.nrf_sdh_ble_evts_poll
                0x0000000000028090       0x58 CMakeFiles/light_switch_proxy_client_nrf52840_xxAA_s140_6.0.0.dir/home/mazzer/work/nordic/sdk/nRF5_SDK_15.0.0/components/softdevice/common/nrf_sdh_ble.c.obj
 .text.nrf_sdh_ble_default_cfg_set
                0x00000000000280e8       0xd4 CMakeFiles/light_switch_proxy_client_nrf52840_xxAA_s140_6.0.0.dir/home/mazzer/work/nordic/sdk/nRF5_SDK_15.0.0/components/softdevice/common/nrf_sdh_ble.c.obj
                0x00000000000280e8                nrf_sdh_ble_default_cfg_set
 .text.nrf_sdh_ble_enable
                0x00000000000281bc       0x14 CMakeFiles/light_switch_proxy_client_nrf52840_xxAA_s140_6.0.0.dir/home/mazzer/work/nordic/sdk/nRF5_SDK_15.0.0/components/softdevice/common/nrf_sdh_ble.c.obj
                0x00000000000281bc                nrf_sdh_ble_enable
 .text._weak_handler
                0x00000000000281d0        0x4 CMakeFiles/light_switch_proxy_client_nrf52840_xxAA_s140_6.0.0.dir/__/__/nrf_mesh_weak.c.obj
                0x00000000000281d0                nrf_mesh_dfu_init
                0x00000000000281d0                nrf_mesh_dfu_jump_to_bootloader
                0x00000000000281d0                nrf_mesh_dfu_rx
                0x00000000000281d0                prov_provisioner_provision
                0x00000000000281d0                nrf_mesh_dfu_bank_info_get
                0x00000000000281d0                prov_provisioner_oob_pubkey
                0x00000000000281d0                nrf_mesh_dfu_request
                0x00000000000281d0                nrf_mesh_dfu_bank_flash
                0x00000000000281d0                _weak_handler
                0x00000000000281d0                nrf_mesh_dfu_relay
                0x00000000000281d0                nrf_mesh_dfu_abort
                0x00000000000281d0                mesh_flash_op_execute
                0x00000000000281d0                prov_provisionee_init
                0x00000000000281d0                nrf_mesh_dfu_state_get
                0x00000000000281d0                prov_provisioner_shared_secret
                0x00000000000281d0                prov_provisioner_auth_data
                0x00000000000281d0                prov_provisioner_oob_use
 .text.app_error_fault_handler
                0x00000000000281d4      0x238 CMakeFiles/light_switch_proxy_client_nrf52840_xxAA_s140_6.0.0.dir/__/__/common/src/app_error_weak.c.obj
                0x00000000000281d4                app_error_fault_handler
 .text.mesh_assertion_handler
                0x000000000002840c       0x24 CMakeFiles/light_switch_proxy_client_nrf52840_xxAA_s140_6.0.0.dir/__/__/common/src/assertion_handler_weak.c.obj
                0x000000000002840c                mesh_assertion_handler
 .text.nrf_mesh_configure_device_uuid_set
                0x0000000000028430       0x10 CMakeFiles/light_switch_proxy_client_nrf52840_xxAA_s140_6.0.0.dir/__/__/__/mesh/core/src/nrf_mesh_configure.c.obj
                0x0000000000028430                nrf_mesh_configure_device_uuid_set
 .text.nrf_mesh_configure_device_uuid_reset
                0x0000000000028440       0x2c CMakeFiles/light_switch_proxy_client_nrf52840_xxAA_s140_6.0.0.dir/__/__/__/mesh/core/src/nrf_mesh_configure.c.obj
                0x0000000000028440                nrf_mesh_configure_device_uuid_reset
 .text.nrf_mesh_configure_device_uuid_get
                0x000000000002846c        0x8 CMakeFiles/light_switch_proxy_client_nrf52840_xxAA_s140_6.0.0.dir/__/__/__/mesh/core/src/nrf_mesh_configure.c.obj
                0x000000000002846c                nrf_mesh_configure_device_uuid_get
 .text.sd_ecb_block_encrypt
                0x0000000000028474        0x4 CMakeFiles/light_switch_proxy_client_nrf52840_xxAA_s140_6.0.0.dir/__/__/__/mesh/core/src/aes.c.obj
 .text.aes_encrypt
                0x0000000000028478       0x34 CMakeFiles/light_switch_proxy_client_nrf52840_xxAA_s140_6.0.0.dir/__/__/__/mesh/core/src/aes.c.obj
                0x0000000000028478                aes_encrypt
 .text.msg_cache_init
                0x00000000000284ac       0x24 CMakeFiles/light_switch_proxy_client_nrf52840_xxAA_s140_6.0.0.dir/__/__/__/mesh/core/src/msg_cache.c.obj
                0x00000000000284ac                msg_cache_init
 .text.msg_cache_entry_exists
                0x00000000000284d0       0x40 CMakeFiles/light_switch_proxy_client_nrf52840_xxAA_s140_6.0.0.dir/__/__/__/mesh/core/src/msg_cache.c.obj
                0x00000000000284d0                msg_cache_entry_exists
 .text.msg_cache_entry_add
                0x0000000000028510       0x2c CMakeFiles/light_switch_proxy_client_nrf52840_xxAA_s140_6.0.0.dir/__/__/__/mesh/core/src/msg_cache.c.obj
                0x0000000000028510                msg_cache_entry_add
 .text.tx_complete
                0x000000000002853c       0x30 CMakeFiles/light_switch_proxy_client_nrf52840_xxAA_s140_6.0.0.dir/__/__/__/mesh/core/src/transport.c.obj
 .text.upper_trs_packet_encrypt
                0x000000000002856c       0xa8 CMakeFiles/light_switch_proxy_client_nrf52840_xxAA_s140_6.0.0.dir/__/__/__/mesh/core/src/transport.c.obj
 .text.trs_sar_packet_out
                0x0000000000028614      0x19c CMakeFiles/light_switch_proxy_client_nrf52840_xxAA_s140_6.0.0.dir/__/__/__/mesh/core/src/transport.c.obj
 .text.upper_transport_access_packet_in
                0x00000000000287b0      0x33c CMakeFiles/light_switch_proxy_client_nrf52840_xxAA_s140_6.0.0.dir/__/__/__/mesh/core/src/transport.c.obj
 .text.sar_ctx_cancel
                0x0000000000028aec      0x148 CMakeFiles/light_switch_proxy_client_nrf52840_xxAA_s140_6.0.0.dir/__/__/__/mesh/core/src/transport.c.obj
 .text.retry_timeout
                0x0000000000028c34       0x98 CMakeFiles/light_switch_proxy_client_nrf52840_xxAA_s140_6.0.0.dir/__/__/__/mesh/core/src/transport.c.obj
 .text.upper_transport_packet_in
                0x0000000000028ccc      0x2a4 CMakeFiles/light_switch_proxy_client_nrf52840_xxAA_s140_6.0.0.dir/__/__/__/mesh/core/src/transport.c.obj
 .text.upper_transport_tx.part.27
                0x0000000000028f70      0x370 CMakeFiles/light_switch_proxy_client_nrf52840_xxAA_s140_6.0.0.dir/__/__/__/mesh/core/src/transport.c.obj
 .text.sar_ack_send.part.31
                0x00000000000292e0       0xd4 CMakeFiles/light_switch_proxy_client_nrf52840_xxAA_s140_6.0.0.dir/__/__/__/mesh/core/src/transport.c.obj
 .text.transport_sar_process
                0x00000000000293b4      0x274 CMakeFiles/light_switch_proxy_client_nrf52840_xxAA_s140_6.0.0.dir/__/__/__/mesh/core/src/transport.c.obj
 .text.abort_timeout
                0x0000000000029628      0x138 CMakeFiles/light_switch_proxy_client_nrf52840_xxAA_s140_6.0.0.dir/__/__/__/mesh/core/src/transport.c.obj
 .text.ack_timeout
                0x0000000000029760       0xf8 CMakeFiles/light_switch_proxy_client_nrf52840_xxAA_s140_6.0.0.dir/__/__/__/mesh/core/src/transport.c.obj
 .text.transport_init
                0x0000000000029858       0xac CMakeFiles/light_switch_proxy_client_nrf52840_xxAA_s140_6.0.0.dir/__/__/__/mesh/core/src/transport.c.obj
                0x0000000000029858                transport_init
 .text.transport_packet_in
                0x0000000000029904      0x778 CMakeFiles/light_switch_proxy_client_nrf52840_xxAA_s140_6.0.0.dir/__/__/__/mesh/core/src/transport.c.obj
                0x0000000000029904                transport_packet_in
 .text.transport_tx
                0x000000000002a07c       0xec CMakeFiles/light_switch_proxy_client_nrf52840_xxAA_s140_6.0.0.dir/__/__/__/mesh/core/src/transport.c.obj
                0x000000000002a07c                transport_tx
 .text.transport_control_tx
                0x000000000002a168       0xc4 CMakeFiles/light_switch_proxy_client_nrf52840_xxAA_s140_6.0.0.dir/__/__/__/mesh/core/src/transport.c.obj
                0x000000000002a168                transport_control_tx
 .text.transport_opt_set
                0x000000000002a22c       0xdc CMakeFiles/light_switch_proxy_client_nrf52840_xxAA_s140_6.0.0.dir/__/__/__/mesh/core/src/transport.c.obj
                0x000000000002a22c                transport_opt_set
 .text.transport_opt_get
                0x000000000002a308       0x84 CMakeFiles/light_switch_proxy_client_nrf52840_xxAA_s140_6.0.0.dir/__/__/__/mesh/core/src/transport.c.obj
                0x000000000002a308                transport_opt_get
 .text.transport_control_packet_consumer_add
                0x000000000002a38c       0x68 CMakeFiles/light_switch_proxy_client_nrf52840_xxAA_s140_6.0.0.dir/__/__/__/mesh/core/src/transport.c.obj
                0x000000000002a38c                transport_control_packet_consumer_add
 .text.event_handle
                0x000000000002a3f4       0x28 CMakeFiles/light_switch_proxy_client_nrf52840_xxAA_s140_6.0.0.dir/__/__/__/mesh/core/src/event.c.obj
                0x000000000002a3f4                event_handle
 .text.event_handler_add
                0x000000000002a41c       0x28 CMakeFiles/light_switch_proxy_client_nrf52840_xxAA_s140_6.0.0.dir/__/__/__/mesh/core/src/event.c.obj
                0x000000000002a41c                event_handler_add
 .text.event_handler_remove
                0x000000000002a444       0x28 CMakeFiles/light_switch_proxy_client_nrf52840_xxAA_s140_6.0.0.dir/__/__/__/mesh/core/src/event.c.obj
                0x000000000002a444                event_handler_remove
 .text.packet_buffer_init
                0x000000000002a46c       0xb4 CMakeFiles/light_switch_proxy_client_nrf52840_xxAA_s140_6.0.0.dir/__/__/__/mesh/core/src/packet_buffer.c.obj
                0x000000000002a46c                packet_buffer_init
 .text.packet_buffer_flush
                0x000000000002a520       0x6c CMakeFiles/light_switch_proxy_client_nrf52840_xxAA_s140_6.0.0.dir/__/__/__/mesh/core/src/packet_buffer.c.obj
                0x000000000002a520                packet_buffer_flush
 .text.packet_buffer_reserve
                0x000000000002a58c       0xa4 CMakeFiles/light_switch_proxy_client_nrf52840_xxAA_s140_6.0.0.dir/__/__/__/mesh/core/src/packet_buffer.c.obj
                0x000000000002a58c                packet_buffer_reserve
 .text.packet_buffer_commit
                0x000000000002a630       0x7c CMakeFiles/light_switch_proxy_client_nrf52840_xxAA_s140_6.0.0.dir/__/__/__/mesh/core/src/packet_buffer.c.obj
                0x000000000002a630                packet_buffer_commit
 .text.packet_buffer_pop
                0x000000000002a6ac       0x44 CMakeFiles/light_switch_proxy_client_nrf52840_xxAA_s140_6.0.0.dir/__/__/__/mesh/core/src/packet_buffer.c.obj
                0x000000000002a6ac                packet_buffer_pop
 .text.packet_buffer_can_pop
                0x000000000002a6f0       0x24 CMakeFiles/light_switch_proxy_client_nrf52840_xxAA_s140_6.0.0.dir/__/__/__/mesh/core/src/packet_buffer.c.obj
                0x000000000002a6f0                packet_buffer_can_pop
 .text.packet_buffer_packets_ready_to_pop
                0x000000000002a714       0x5c CMakeFiles/light_switch_proxy_client_nrf52840_xxAA_s140_6.0.0.dir/__/__/__/mesh/core/src/packet_buffer.c.obj
                0x000000000002a714                packet_buffer_packets_ready_to_pop
 .text.packet_buffer_free
                0x000000000002a770       0x8c CMakeFiles/light_switch_proxy_client_nrf52840_xxAA_s140_6.0.0.dir/__/__/__/mesh/core/src/packet_buffer.c.obj
                0x000000000002a770                packet_buffer_free
 .text.flash_manager_defrag_is_running
                0x000000000002a7fc       0x10 CMakeFiles/light_switch_proxy_client_nrf52840_xxAA_s140_6.0.0.dir/__/__/__/mesh/core/src/flash_manager_defrag.c.obj
                0x000000000002a7fc                flash_manager_defrag_is_running
 .text.fifo_init
                0x000000000002a80c       0x38 CMakeFiles/light_switch_proxy_client_nrf52840_xxAA_s140_6.0.0.dir/__/__/__/mesh/core/src/fifo.c.obj
                0x000000000002a80c                fifo_init
 .text.fifo_push
                0x000000000002a844       0x60 CMakeFiles/light_switch_proxy_client_nrf52840_xxAA_s140_6.0.0.dir/__/__/__/mesh/core/src/fifo.c.obj
                0x000000000002a844                fifo_push
 .text.fifo_pop
                0x000000000002a8a4       0x5c CMakeFiles/light_switch_proxy_client_nrf52840_xxAA_s140_6.0.0.dir/__/__/__/mesh/core/src/fifo.c.obj
                0x000000000002a8a4                fifo_pop
 .text.packet_mgr_init
                0x000000000002a900       0x48 CMakeFiles/light_switch_proxy_client_nrf52840_xxAA_s140_6.0.0.dir/__/__/__/mesh/core/src/packet_mgr.c.obj
                0x000000000002a900                packet_mgr_init
 .text.iv_update_trigger_if_pending
                0x000000000002a948       0xdc CMakeFiles/light_switch_proxy_client_nrf52840_xxAA_s140_6.0.0.dir/__/__/__/mesh/core/src/net_state.c.obj
 .text.mesh_evt_handler
                0x000000000002aa24       0x98 CMakeFiles/light_switch_proxy_client_nrf52840_xxAA_s140_6.0.0.dir/__/__/__/mesh/core/src/net_state.c.obj
 .text.iv_update_timer_handler
                0x000000000002aabc       0x70 CMakeFiles/light_switch_proxy_client_nrf52840_xxAA_s140_6.0.0.dir/__/__/__/mesh/core/src/net_state.c.obj
 .text.net_state_recover_from_flash
                0x000000000002ab2c        0x4 CMakeFiles/light_switch_proxy_client_nrf52840_xxAA_s140_6.0.0.dir/__/__/__/mesh/core/src/net_state.c.obj
                0x000000000002ab2c                net_state_recover_from_flash
 .text.net_state_reset
                0x000000000002ab30       0x1c CMakeFiles/light_switch_proxy_client_nrf52840_xxAA_s140_6.0.0.dir/__/__/__/mesh/core/src/net_state.c.obj
                0x000000000002ab30                net_state_reset
 .text.net_state_init
                0x000000000002ab4c       0x60 CMakeFiles/light_switch_proxy_client_nrf52840_xxAA_s140_6.0.0.dir/__/__/__/mesh/core/src/net_state.c.obj
                0x000000000002ab4c                net_state_init
 .text.net_state_seqnum_alloc
                0x000000000002abac      0x104 CMakeFiles/light_switch_proxy_client_nrf52840_xxAA_s140_6.0.0.dir/__/__/__/mesh/core/src/net_state.c.obj
                0x000000000002abac                net_state_seqnum_alloc
 .text.net_state_iv_index_lock
                0x000000000002acb0       0xf4 CMakeFiles/light_switch_proxy_client_nrf52840_xxAA_s140_6.0.0.dir/__/__/__/mesh/core/src/net_state.c.obj
                0x000000000002acb0                net_state_iv_index_lock
 .text.net_state_key_refresh_phase_changed
                0x000000000002ada4       0x20 CMakeFiles/light_switch_proxy_client_nrf52840_xxAA_s140_6.0.0.dir/__/__/__/mesh/core/src/net_state.c.obj
                0x000000000002ada4                net_state_key_refresh_phase_changed
 .text.net_state_beacon_iv_index_get
                0x000000000002adc4        0xc CMakeFiles/light_switch_proxy_client_nrf52840_xxAA_s140_6.0.0.dir/__/__/__/mesh/core/src/net_state.c.obj
                0x000000000002adc4                net_state_beacon_iv_index_get
 .text.net_state_tx_iv_index_get
                0x000000000002add0       0x14 CMakeFiles/light_switch_proxy_client_nrf52840_xxAA_s140_6.0.0.dir/__/__/__/mesh/core/src/net_state.c.obj
                0x000000000002add0                net_state_tx_iv_index_get
 .text.net_state_rx_iv_index_get
                0x000000000002ade4       0x18 CMakeFiles/light_switch_proxy_client_nrf52840_xxAA_s140_6.0.0.dir/__/__/__/mesh/core/src/net_state.c.obj
                0x000000000002ade4                net_state_rx_iv_index_get
 .text.net_state_iv_update_get
                0x000000000002adfc        0xc CMakeFiles/light_switch_proxy_client_nrf52840_xxAA_s140_6.0.0.dir/__/__/__/mesh/core/src/net_state.c.obj
                0x000000000002adfc                net_state_iv_update_get
 .text.net_state_iv_index_set
                0x000000000002ae08       0x30 CMakeFiles/light_switch_proxy_client_nrf52840_xxAA_s140_6.0.0.dir/__/__/__/mesh/core/src/net_state.c.obj
                0x000000000002ae08                net_state_iv_index_set
 .text.send_end_events
                0x000000000002ae38       0x98 CMakeFiles/light_switch_proxy_client_nrf52840_xxAA_s140_6.0.0.dir/__/__/__/mesh/core/src/mesh_flash.c.obj
 .text.mesh_flash_init
                0x000000000002aed0       0x78 CMakeFiles/light_switch_proxy_client_nrf52840_xxAA_s140_6.0.0.dir/__/__/__/mesh/core/src/mesh_flash.c.obj
                0x000000000002aed0                mesh_flash_init
 .text.nrf_mesh_address_type_get
                0x000000000002af48       0x10 CMakeFiles/light_switch_proxy_client_nrf52840_xxAA_s140_6.0.0.dir/__/__/__/mesh/core/src/nrf_mesh_utils.c.obj
                0x000000000002af48                nrf_mesh_address_type_get
 .text.sd_softdevice_is_enabled
                0x000000000002af58        0x4 CMakeFiles/light_switch_proxy_client_nrf52840_xxAA_s140_6.0.0.dir/__/__/__/mesh/core/src/nrf_mesh.c.obj
 .text.nrf_mesh_listen
                0x000000000002af5c      0x184 CMakeFiles/light_switch_proxy_client_nrf52840_xxAA_s140_6.0.0.dir/__/__/__/mesh/core/src/nrf_mesh.c.obj
 .text.scanner_packet_process_cb
                0x000000000002b0e0       0x88 CMakeFiles/light_switch_proxy_client_nrf52840_xxAA_s140_6.0.0.dir/__/__/__/mesh/core/src/nrf_mesh.c.obj
 .text.nrf_mesh_init
                0x000000000002b168       0xd8 CMakeFiles/light_switch_proxy_client_nrf52840_xxAA_s140_6.0.0.dir/__/__/__/mesh/core/src/nrf_mesh.c.obj
                0x000000000002b168                nrf_mesh_init
 .text.nrf_mesh_enable
                0x000000000002b240       0x48 CMakeFiles/light_switch_proxy_client_nrf52840_xxAA_s140_6.0.0.dir/__/__/__/mesh/core/src/nrf_mesh.c.obj
                0x000000000002b240                nrf_mesh_enable
 .text.nrf_mesh_disable
                0x000000000002b288       0x30 CMakeFiles/light_switch_proxy_client_nrf52840_xxAA_s140_6.0.0.dir/__/__/__/mesh/core/src/nrf_mesh.c.obj
                0x000000000002b288                nrf_mesh_disable
 .text.nrf_mesh_packet_send
                0x000000000002b2b8       0x94 CMakeFiles/light_switch_proxy_client_nrf52840_xxAA_s140_6.0.0.dir/__/__/__/mesh/core/src/nrf_mesh.c.obj
                0x000000000002b2b8                nrf_mesh_packet_send
 .text.nrf_mesh_evt_handler_add
                0x000000000002b34c        0x4 CMakeFiles/light_switch_proxy_client_nrf52840_xxAA_s140_6.0.0.dir/__/__/__/mesh/core/src/nrf_mesh.c.obj
                0x000000000002b34c                nrf_mesh_evt_handler_add
 .text.nrf_mesh_on_sd_evt
                0x000000000002b350        0xc CMakeFiles/light_switch_proxy_client_nrf52840_xxAA_s140_6.0.0.dir/__/__/__/mesh/core/src/nrf_mesh.c.obj
                0x000000000002b350                nrf_mesh_on_sd_evt
 .text.nrf_mesh_subnet_added
                0x000000000002b35c        0x4 CMakeFiles/light_switch_proxy_client_nrf52840_xxAA_s140_6.0.0.dir/__/__/__/mesh/core/src/nrf_mesh.c.obj
                0x000000000002b35c                nrf_mesh_subnet_added
 .text.queue_init
                0x000000000002b360       0x1c CMakeFiles/light_switch_proxy_client_nrf52840_xxAA_s140_6.0.0.dir/__/__/__/mesh/core/src/queue.c.obj
                0x000000000002b360                queue_init
 .text.queue_push
                0x000000000002b37c       0x3c CMakeFiles/light_switch_proxy_client_nrf52840_xxAA_s140_6.0.0.dir/__/__/__/mesh/core/src/queue.c.obj
                0x000000000002b37c                queue_push
 .text.queue_pop
                0x000000000002b3b8       0x2c CMakeFiles/light_switch_proxy_client_nrf52840_xxAA_s140_6.0.0.dir/__/__/__/mesh/core/src/queue.c.obj
                0x000000000002b3b8                queue_pop
 .text.queue_peek
                0x000000000002b3e4       0x14 CMakeFiles/light_switch_proxy_client_nrf52840_xxAA_s140_6.0.0.dir/__/__/__/mesh/core/src/queue.c.obj
                0x000000000002b3e4                queue_peek
 .text.sd_power_reset_reason_clr
                0x000000000002b3f8        0x4 CMakeFiles/light_switch_proxy_client_nrf52840_xxAA_s140_6.0.0.dir/__/__/__/mesh/core/src/hal.c.obj
 .text.hal_device_reset
                0x000000000002b3fc       0x2c CMakeFiles/light_switch_proxy_client_nrf52840_xxAA_s140_6.0.0.dir/__/__/__/mesh/core/src/hal.c.obj
                0x000000000002b3fc                hal_device_reset
 .text.hal_lfclk_ppm_get
                0x000000000002b428       0x14 CMakeFiles/light_switch_proxy_client_nrf52840_xxAA_s140_6.0.0.dir/__/__/__/mesh/core/src/hal.c.obj
                0x000000000002b428                hal_lfclk_ppm_get
 .text.aes_cmac_subkey_generate
                0x000000000002b43c      0x294 CMakeFiles/light_switch_proxy_client_nrf52840_xxAA_s140_6.0.0.dir/__/__/__/mesh/core/src/aes_cmac.c.obj
                0x000000000002b43c                aes_cmac_subkey_generate
 .text.aes_cmac
                0x000000000002b6d0      0x4b8 CMakeFiles/light_switch_proxy_client_nrf52840_xxAA_s140_6.0.0.dir/__/__/__/mesh/core/src/aes_cmac.c.obj
                0x000000000002b6d0                aes_cmac
 .text.timer_cb
                0x000000000002bb88        0xc CMakeFiles/light_switch_proxy_client_nrf52840_xxAA_s140_6.0.0.dir/__/__/__/mesh/core/src/timer_scheduler.c.obj
 .text.add_evt.constprop.1
                0x000000000002bb94       0x60 CMakeFiles/light_switch_proxy_client_nrf52840_xxAA_s140_6.0.0.dir/__/__/__/mesh/core/src/timer_scheduler.c.obj
 .text.flag_event_cb
                0x000000000002bbf4      0x2f0 CMakeFiles/light_switch_proxy_client_nrf52840_xxAA_s140_6.0.0.dir/__/__/__/mesh/core/src/timer_scheduler.c.obj
 .text.timer_sch_init
                0x000000000002bee4       0x24 CMakeFiles/light_switch_proxy_client_nrf52840_xxAA_s140_6.0.0.dir/__/__/__/mesh/core/src/timer_scheduler.c.obj
                0x000000000002bee4                timer_sch_init
 .text.timer_sch_schedule
                0x000000000002bf08       0x68 CMakeFiles/light_switch_proxy_client_nrf52840_xxAA_s140_6.0.0.dir/__/__/__/mesh/core/src/timer_scheduler.c.obj
                0x000000000002bf08                timer_sch_schedule
 .text.timer_sch_abort
                0x000000000002bf70       0x5c CMakeFiles/light_switch_proxy_client_nrf52840_xxAA_s140_6.0.0.dir/__/__/__/mesh/core/src/timer_scheduler.c.obj
                0x000000000002bf70                timer_sch_abort
 .text.timer_sch_reschedule
                0x000000000002bfcc       0x90 CMakeFiles/light_switch_proxy_client_nrf52840_xxAA_s140_6.0.0.dir/__/__/__/mesh/core/src/timer_scheduler.c.obj
                0x000000000002bfcc                timer_sch_reschedule
 .text.timer_event_handler
                0x000000000002c05c       0xd0 CMakeFiles/light_switch_proxy_client_nrf52840_xxAA_s140_6.0.0.dir/__/__/__/mesh/core/src/timer.c.obj
                0x000000000002c05c                timer_event_handler
 .text.timer_order_cb
                0x000000000002c12c       0x9c CMakeFiles/light_switch_proxy_client_nrf52840_xxAA_s140_6.0.0.dir/__/__/__/mesh/core/src/timer.c.obj
                0x000000000002c12c                timer_order_cb
 .text.timer_now
                0x000000000002c1c8       0x58 CMakeFiles/light_switch_proxy_client_nrf52840_xxAA_s140_6.0.0.dir/__/__/__/mesh/core/src/timer.c.obj
                0x000000000002c1c8                timer_now
 .text.timer_on_ts_begin
                0x000000000002c220      0x100 CMakeFiles/light_switch_proxy_client_nrf52840_xxAA_s140_6.0.0.dir/__/__/__/mesh/core/src/timer.c.obj
                0x000000000002c220                timer_on_ts_begin
 .text.timer_on_ts_end
                0x000000000002c320       0x78 CMakeFiles/light_switch_proxy_client_nrf52840_xxAA_s140_6.0.0.dir/__/__/__/mesh/core/src/timer.c.obj
                0x000000000002c320                timer_on_ts_end
 .text.timer_cb
                0x000000000002c398       0x10 CMakeFiles/light_switch_proxy_client_nrf52840_xxAA_s140_6.0.0.dir/__/__/__/mesh/core/src/ticker.c.obj
 .text.ticker_init
                0x000000000002c3a8       0x3c CMakeFiles/light_switch_proxy_client_nrf52840_xxAA_s140_6.0.0.dir/__/__/__/mesh/core/src/ticker.c.obj
                0x000000000002c3a8                ticker_init
 .text.sd_rand_application_bytes_available_get
                0x000000000002c3e4        0x4 CMakeFiles/light_switch_proxy_client_nrf52840_xxAA_s140_6.0.0.dir/__/__/__/mesh/core/src/rand.c.obj
 .text.sd_rand_application_vector_get
                0x000000000002c3e8        0x4 CMakeFiles/light_switch_proxy_client_nrf52840_xxAA_s140_6.0.0.dir/__/__/__/mesh/core/src/rand.c.obj
 .text.rand_prng_seed
                0x000000000002c3ec       0x78 CMakeFiles/light_switch_proxy_client_nrf52840_xxAA_s140_6.0.0.dir/__/__/__/mesh/core/src/rand.c.obj
                0x000000000002c3ec                rand_prng_seed
 .text.rand_prng_get
                0x000000000002c464       0x28 CMakeFiles/light_switch_proxy_client_nrf52840_xxAA_s140_6.0.0.dir/__/__/__/mesh/core/src/rand.c.obj
                0x000000000002c464                rand_prng_get
 .text.rand_hw_rng_get
                0x000000000002c48c       0x60 CMakeFiles/light_switch_proxy_client_nrf52840_xxAA_s140_6.0.0.dir/__/__/__/mesh/core/src/rand.c.obj
                0x000000000002c48c                rand_hw_rng_get
 .text.nrf_mesh_opt_set
                0x000000000002c4ec       0x28 CMakeFiles/light_switch_proxy_client_nrf52840_xxAA_s140_6.0.0.dir/__/__/__/mesh/core/src/nrf_mesh_opt.c.obj
                0x000000000002c4ec                nrf_mesh_opt_set
 .text.nrf_mesh_opt_get
                0x000000000002c514       0x28 CMakeFiles/light_switch_proxy_client_nrf52840_xxAA_s140_6.0.0.dir/__/__/__/mesh/core/src/nrf_mesh_opt.c.obj
                0x000000000002c514                nrf_mesh_opt_get
 .text.sd_radio_session_open
                0x000000000002c53c        0x4 CMakeFiles/light_switch_proxy_client_nrf52840_xxAA_s140_6.0.0.dir/__/__/__/mesh/core/src/timeslot.c.obj
 .text.sd_radio_session_close
                0x000000000002c540        0x4 CMakeFiles/light_switch_proxy_client_nrf52840_xxAA_s140_6.0.0.dir/__/__/__/mesh/core/src/timeslot.c.obj
 .text.sd_radio_request
                0x000000000002c544        0x4 CMakeFiles/light_switch_proxy_client_nrf52840_xxAA_s140_6.0.0.dir/__/__/__/mesh/core/src/timeslot.c.obj
 .text.end_timer_handler
                0x000000000002c548       0x2c CMakeFiles/light_switch_proxy_client_nrf52840_xxAA_s140_6.0.0.dir/__/__/__/mesh/core/src/timeslot.c.obj
 .text.radio_signal_callback
                0x000000000002c574      0x2b4 CMakeFiles/light_switch_proxy_client_nrf52840_xxAA_s140_6.0.0.dir/__/__/__/mesh/core/src/timeslot.c.obj
 .text.timeslot_sd_event_handler
                0x000000000002c828       0x44 CMakeFiles/light_switch_proxy_client_nrf52840_xxAA_s140_6.0.0.dir/__/__/__/mesh/core/src/timeslot.c.obj
                0x000000000002c828                timeslot_sd_event_handler
 .text.timeslot_init
                0x000000000002c86c       0x4c CMakeFiles/light_switch_proxy_client_nrf52840_xxAA_s140_6.0.0.dir/__/__/__/mesh/core/src/timeslot.c.obj
                0x000000000002c86c                timeslot_init
 .text.timeslot_start
                0x000000000002c8b8       0x20 CMakeFiles/light_switch_proxy_client_nrf52840_xxAA_s140_6.0.0.dir/__/__/__/mesh/core/src/timeslot.c.obj
                0x000000000002c8b8                timeslot_start
 .text.timeslot_stop
                0x000000000002c8d8       0x30 CMakeFiles/light_switch_proxy_client_nrf52840_xxAA_s140_6.0.0.dir/__/__/__/mesh/core/src/timeslot.c.obj
                0x000000000002c8d8                timeslot_stop
 .text.timeslot_state_lock
                0x000000000002c908       0x44 CMakeFiles/light_switch_proxy_client_nrf52840_xxAA_s140_6.0.0.dir/__/__/__/mesh/core/src/timeslot.c.obj
                0x000000000002c908                timeslot_state_lock
 .text.timeslot_end_is_pending
                0x000000000002c94c       0x24 CMakeFiles/light_switch_proxy_client_nrf52840_xxAA_s140_6.0.0.dir/__/__/__/mesh/core/src/timeslot.c.obj
                0x000000000002c94c                timeslot_end_is_pending
 .text.timeslot_start_time_get
                0x000000000002c970        0xc CMakeFiles/light_switch_proxy_client_nrf52840_xxAA_s140_6.0.0.dir/__/__/__/mesh/core/src/timeslot.c.obj
                0x000000000002c970                timeslot_start_time_get
 .text.timeslot_remaining_time_get
                0x000000000002c97c       0x40 CMakeFiles/light_switch_proxy_client_nrf52840_xxAA_s140_6.0.0.dir/__/__/__/mesh/core/src/timeslot.c.obj
                0x000000000002c97c                timeslot_remaining_time_get
 .text.timeslot_is_in_cb
                0x000000000002c9bc        0xc CMakeFiles/light_switch_proxy_client_nrf52840_xxAA_s140_6.0.0.dir/__/__/__/mesh/core/src/timeslot.c.obj
                0x000000000002c9bc                timeslot_is_in_cb
 .text.timeslot_trigger
                0x000000000002c9c8       0x24 CMakeFiles/light_switch_proxy_client_nrf52840_xxAA_s140_6.0.0.dir/__/__/__/mesh/core/src/timeslot.c.obj
                0x000000000002c9c8                timeslot_trigger
 .text.bearer_event_init
                0x000000000002c9ec       0x4c CMakeFiles/light_switch_proxy_client_nrf52840_xxAA_s140_6.0.0.dir/__/__/__/mesh/core/src/bearer_event.c.obj
                0x000000000002c9ec                bearer_event_init
 .text.bearer_event_timer_post
                0x000000000002ca38       0x50 CMakeFiles/light_switch_proxy_client_nrf52840_xxAA_s140_6.0.0.dir/__/__/__/mesh/core/src/bearer_event.c.obj
                0x000000000002ca38                bearer_event_timer_post
 .text.bearer_event_critical_section_begin
                0x000000000002ca88       0x44 CMakeFiles/light_switch_proxy_client_nrf52840_xxAA_s140_6.0.0.dir/__/__/__/mesh/core/src/bearer_event.c.obj
                0x000000000002ca88                bearer_event_critical_section_begin
 .text.bearer_event_critical_section_end
                0x000000000002cacc       0x40 CMakeFiles/light_switch_proxy_client_nrf52840_xxAA_s140_6.0.0.dir/__/__/__/mesh/core/src/bearer_event.c.obj
                0x000000000002cacc                bearer_event_critical_section_end
 .text.bearer_event_flag_add
                0x000000000002cb0c       0x40 CMakeFiles/light_switch_proxy_client_nrf52840_xxAA_s140_6.0.0.dir/__/__/__/mesh/core/src/bearer_event.c.obj
                0x000000000002cb0c                bearer_event_flag_add
 .text.bearer_event_flag_set
                0x000000000002cb4c       0x5c CMakeFiles/light_switch_proxy_client_nrf52840_xxAA_s140_6.0.0.dir/__/__/__/mesh/core/src/bearer_event.c.obj
                0x000000000002cb4c                bearer_event_flag_set
 .text.bearer_event_sequential_add
                0x000000000002cba8       0x34 CMakeFiles/light_switch_proxy_client_nrf52840_xxAA_s140_6.0.0.dir/__/__/__/mesh/core/src/bearer_event.c.obj
                0x000000000002cba8                bearer_event_sequential_add
 .text.bearer_event_sequential_post
                0x000000000002cbdc       0x64 CMakeFiles/light_switch_proxy_client_nrf52840_xxAA_s140_6.0.0.dir/__/__/__/mesh/core/src/bearer_event.c.obj
                0x000000000002cbdc                bearer_event_sequential_post
 .text.bearer_event_sequential_pending
                0x000000000002cc40       0x14 CMakeFiles/light_switch_proxy_client_nrf52840_xxAA_s140_6.0.0.dir/__/__/__/mesh/core/src/bearer_event.c.obj
                0x000000000002cc40                bearer_event_sequential_pending
 .text.bearer_event_handler
                0x000000000002cc54      0x16c CMakeFiles/light_switch_proxy_client_nrf52840_xxAA_s140_6.0.0.dir/__/__/__/mesh/core/src/bearer_event.c.obj
                0x000000000002cc54                bearer_event_handler
 .text.QDEC_IRQHandler
                0x000000000002cdc0        0x4 CMakeFiles/light_switch_proxy_client_nrf52840_xxAA_s140_6.0.0.dir/__/__/__/mesh/core/src/bearer_event.c.obj
                0x000000000002cdc0                QDEC_IRQHandler
 .text.enc_aes_encrypt
                0x000000000002cdc4        0x4 CMakeFiles/light_switch_proxy_client_nrf52840_xxAA_s140_6.0.0.dir/__/__/__/mesh/core/src/enc.c.obj
                0x000000000002cdc4                enc_aes_encrypt
 .text.enc_aes_cmac
                0x000000000002cdc8        0x4 CMakeFiles/light_switch_proxy_client_nrf52840_xxAA_s140_6.0.0.dir/__/__/__/mesh/core/src/enc.c.obj
                0x000000000002cdc8                enc_aes_cmac
 .text.enc_aes_ccm_encrypt
                0x000000000002cdcc        0x4 CMakeFiles/light_switch_proxy_client_nrf52840_xxAA_s140_6.0.0.dir/__/__/__/mesh/core/src/enc.c.obj
                0x000000000002cdcc                enc_aes_ccm_encrypt
 .text.enc_aes_ccm_decrypt
                0x000000000002cdd0        0x4 CMakeFiles/light_switch_proxy_client_nrf52840_xxAA_s140_6.0.0.dir/__/__/__/mesh/core/src/enc.c.obj
                0x000000000002cdd0                enc_aes_ccm_decrypt
 .text.enc_nonce_generate
                0x000000000002cdd4       0xc8 CMakeFiles/light_switch_proxy_client_nrf52840_xxAA_s140_6.0.0.dir/__/__/__/mesh/core/src/enc.c.obj
                0x000000000002cdd4                enc_nonce_generate
 .text.enc_s1   0x000000000002ce9c       0x30 CMakeFiles/light_switch_proxy_client_nrf52840_xxAA_s140_6.0.0.dir/__/__/__/mesh/core/src/enc.c.obj
                0x000000000002ce9c                enc_s1
 .text.enc_k1   0x000000000002cecc       0x40 CMakeFiles/light_switch_proxy_client_nrf52840_xxAA_s140_6.0.0.dir/__/__/__/mesh/core/src/enc.c.obj
                0x000000000002cecc                enc_k1
 .text.enc_k2   0x000000000002cf0c       0xe0 CMakeFiles/light_switch_proxy_client_nrf52840_xxAA_s140_6.0.0.dir/__/__/__/mesh/core/src/enc.c.obj
                0x000000000002cf0c                enc_k2
 .text.enc_k3   0x000000000002cfec       0x68 CMakeFiles/light_switch_proxy_client_nrf52840_xxAA_s140_6.0.0.dir/__/__/__/mesh/core/src/enc.c.obj
                0x000000000002cfec                enc_k3
 .text.enc_k4   0x000000000002d054       0x60 CMakeFiles/light_switch_proxy_client_nrf52840_xxAA_s140_6.0.0.dir/__/__/__/mesh/core/src/enc.c.obj
                0x000000000002d054                enc_k4
 .text.network_init
                0x000000000002d0b4       0x28 CMakeFiles/light_switch_proxy_client_nrf52840_xxAA_s140_6.0.0.dir/__/__/__/mesh/core/src/network.c.obj
                0x000000000002d0b4                network_init
 .text.network_opt_set
                0x000000000002d0dc       0x84 CMakeFiles/light_switch_proxy_client_nrf52840_xxAA_s140_6.0.0.dir/__/__/__/mesh/core/src/network.c.obj
                0x000000000002d0dc                network_opt_set
 .text.network_opt_get
                0x000000000002d160       0x5c CMakeFiles/light_switch_proxy_client_nrf52840_xxAA_s140_6.0.0.dir/__/__/__/mesh/core/src/network.c.obj
                0x000000000002d160                network_opt_get
 .text.network_packet_alloc
                0x000000000002d1bc       0xa0 CMakeFiles/light_switch_proxy_client_nrf52840_xxAA_s140_6.0.0.dir/__/__/__/mesh/core/src/network.c.obj
                0x000000000002d1bc                network_packet_alloc
 .text.network_packet_send
                0x000000000002d25c       0x58 CMakeFiles/light_switch_proxy_client_nrf52840_xxAA_s140_6.0.0.dir/__/__/__/mesh/core/src/network.c.obj
                0x000000000002d25c                network_packet_send
 .text.network_packet_in
                0x000000000002d2b4      0x1d0 CMakeFiles/light_switch_proxy_client_nrf52840_xxAA_s140_6.0.0.dir/__/__/__/mesh/core/src/network.c.obj
                0x000000000002d2b4                network_packet_in
 .text.net_packet_decrypt
                0x000000000002d484      0x2bc CMakeFiles/light_switch_proxy_client_nrf52840_xxAA_s140_6.0.0.dir/__/__/__/mesh/core/src/net_packet.c.obj
                0x000000000002d484                net_packet_decrypt
 .text.net_packet_encrypt
                0x000000000002d740      0x100 CMakeFiles/light_switch_proxy_client_nrf52840_xxAA_s140_6.0.0.dir/__/__/__/mesh/core/src/net_packet.c.obj
                0x000000000002d740                net_packet_encrypt
 .text.net_packet_header_set
                0x000000000002d840       0xc0 CMakeFiles/light_switch_proxy_client_nrf52840_xxAA_s140_6.0.0.dir/__/__/__/mesh/core/src/net_packet.c.obj
                0x000000000002d840                net_packet_header_set
 .text.net_packet_payload_len_get
                0x000000000002d900       0x14 CMakeFiles/light_switch_proxy_client_nrf52840_xxAA_s140_6.0.0.dir/__/__/__/mesh/core/src/net_packet.c.obj
                0x000000000002d900                net_packet_payload_len_get
 .text.net_packet_from_payload
                0x000000000002d914        0x4 CMakeFiles/light_switch_proxy_client_nrf52840_xxAA_s140_6.0.0.dir/__/__/__/mesh/core/src/net_packet.c.obj
                0x000000000002d914                net_packet_from_payload
 .text.net_packet_payload_get
                0x000000000002d918        0x4 CMakeFiles/light_switch_proxy_client_nrf52840_xxAA_s140_6.0.0.dir/__/__/__/mesh/core/src/net_packet.c.obj
                0x000000000002d918                net_packet_payload_get
 .text.net_packet_obfuscation_start_get
                0x000000000002d91c        0x4 CMakeFiles/light_switch_proxy_client_nrf52840_xxAA_s140_6.0.0.dir/__/__/__/mesh/core/src/net_packet.c.obj
                0x000000000002d91c                net_packet_obfuscation_start_get
 .text.msq_init
                0x000000000002d920       0x6c CMakeFiles/light_switch_proxy_client_nrf52840_xxAA_s140_6.0.0.dir/__/__/__/mesh/core/src/msqueue.c.obj
                0x000000000002d920                msq_init
 .text.msq_get  0x000000000002d98c       0x54 CMakeFiles/light_switch_proxy_client_nrf52840_xxAA_s140_6.0.0.dir/__/__/__/mesh/core/src/msqueue.c.obj
                0x000000000002d98c                msq_get
 .text.msq_move
                0x000000000002d9e0       0x4c CMakeFiles/light_switch_proxy_client_nrf52840_xxAA_s140_6.0.0.dir/__/__/__/mesh/core/src/msqueue.c.obj
                0x000000000002d9e0                msq_move
 .text.msq_available
                0x000000000002da2c       0x44 CMakeFiles/light_switch_proxy_client_nrf52840_xxAA_s140_6.0.0.dir/__/__/__/mesh/core/src/msqueue.c.obj
                0x000000000002da2c                msq_available
 .text.nrf_mesh_keygen_aid
                0x000000000002da70       0x18 CMakeFiles/light_switch_proxy_client_nrf52840_xxAA_s140_6.0.0.dir/__/__/__/mesh/core/src/nrf_mesh_keygen.c.obj
                0x000000000002da70                nrf_mesh_keygen_aid
 .text.nrf_mesh_keygen_network_secmat
                0x000000000002da88       0x24 CMakeFiles/light_switch_proxy_client_nrf52840_xxAA_s140_6.0.0.dir/__/__/__/mesh/core/src/nrf_mesh_keygen.c.obj
                0x000000000002da88                nrf_mesh_keygen_network_secmat
 .text.nrf_mesh_keygen_beacon_secmat
                0x000000000002daac       0x50 CMakeFiles/light_switch_proxy_client_nrf52840_xxAA_s140_6.0.0.dir/__/__/__/mesh/core/src/nrf_mesh_keygen.c.obj
                0x000000000002daac                nrf_mesh_keygen_beacon_secmat
 .text.nrf_mesh_keygen_identitykey
                0x000000000002dafc       0x4c CMakeFiles/light_switch_proxy_client_nrf52840_xxAA_s140_6.0.0.dir/__/__/__/mesh/core/src/nrf_mesh_keygen.c.obj
                0x000000000002dafc                nrf_mesh_keygen_identitykey
 .text.nrf_mesh_keygen_virtual_address
                0x000000000002db48       0x50 CMakeFiles/light_switch_proxy_client_nrf52840_xxAA_s140_6.0.0.dir/__/__/__/mesh/core/src/nrf_mesh_keygen.c.obj
                0x000000000002db48                nrf_mesh_keygen_virtual_address
 .text.cache_init
                0x000000000002db98       0x40 CMakeFiles/light_switch_proxy_client_nrf52840_xxAA_s140_6.0.0.dir/__/__/__/mesh/core/src/cache.c.obj
                0x000000000002db98                cache_init
 .text.cache_has_elem
                0x000000000002dbd8       0x54 CMakeFiles/light_switch_proxy_client_nrf52840_xxAA_s140_6.0.0.dir/__/__/__/mesh/core/src/cache.c.obj
                0x000000000002dbd8                cache_has_elem
 .text.cache_put
                0x000000000002dc2c       0x2c CMakeFiles/light_switch_proxy_client_nrf52840_xxAA_s140_6.0.0.dir/__/__/__/mesh/core/src/cache.c.obj
                0x000000000002dc2c                cache_put
 .text.list_add
                0x000000000002dc58       0x64 CMakeFiles/light_switch_proxy_client_nrf52840_xxAA_s140_6.0.0.dir/__/__/__/mesh/core/src/list.c.obj
                0x000000000002dc58                list_add
 .text.list_remove
                0x000000000002dcbc       0x44 CMakeFiles/light_switch_proxy_client_nrf52840_xxAA_s140_6.0.0.dir/__/__/__/mesh/core/src/list.c.obj
                0x000000000002dcbc                list_remove
 .text.list_compare_add
                0x000000000002dd00       0x80 CMakeFiles/light_switch_proxy_client_nrf52840_xxAA_s140_6.0.0.dir/__/__/__/mesh/core/src/list.c.obj
                0x000000000002dd00                list_compare_add
 .text.log_callback_rtt
                0x000000000002dd80       0x2c CMakeFiles/light_switch_proxy_client_nrf52840_xxAA_s140_6.0.0.dir/__/__/__/mesh/core/src/log.c.obj
                0x000000000002dd80                log_callback_rtt
 .text.log_init
                0x000000000002ddac       0x20 CMakeFiles/light_switch_proxy_client_nrf52840_xxAA_s140_6.0.0.dir/__/__/__/mesh/core/src/log.c.obj
                0x000000000002ddac                log_init
 .text.log_printf
                0x000000000002ddcc       0x20 CMakeFiles/light_switch_proxy_client_nrf52840_xxAA_s140_6.0.0.dir/__/__/__/mesh/core/src/log.c.obj
                0x000000000002ddcc                log_printf
 .text.flash_manager_is_stable
                0x000000000002ddec       0x20 CMakeFiles/light_switch_proxy_client_nrf52840_xxAA_s140_6.0.0.dir/__/__/__/mesh/core/src/flash_manager.c.obj
                0x000000000002ddec                flash_manager_is_stable
 .text.ccm_soft_crypt.constprop.0
                0x000000000002de0c      0x274 CMakeFiles/light_switch_proxy_client_nrf52840_xxAA_s140_6.0.0.dir/__/__/__/mesh/core/src/ccm_soft.c.obj
 .text.ccm_soft_authenticate
                0x000000000002e080      0x308 CMakeFiles/light_switch_proxy_client_nrf52840_xxAA_s140_6.0.0.dir/__/__/__/mesh/core/src/ccm_soft.c.obj
 .text.ccm_soft_encrypt
                0x000000000002e388       0x7c CMakeFiles/light_switch_proxy_client_nrf52840_xxAA_s140_6.0.0.dir/__/__/__/mesh/core/src/ccm_soft.c.obj
                0x000000000002e388                ccm_soft_encrypt
 .text.ccm_soft_decrypt
                0x000000000002e404      0x114 CMakeFiles/light_switch_proxy_client_nrf52840_xxAA_s140_6.0.0.dir/__/__/__/mesh/core/src/ccm_soft.c.obj
                0x000000000002e404                ccm_soft_decrypt
 .text.replay_cache_init
                0x000000000002e518       0x20 CMakeFiles/light_switch_proxy_client_nrf52840_xxAA_s140_6.0.0.dir/__/__/__/mesh/core/src/replay_cache.c.obj
                0x000000000002e518                replay_cache_init
 .text.replay_cache_add
                0x000000000002e538       0x60 CMakeFiles/light_switch_proxy_client_nrf52840_xxAA_s140_6.0.0.dir/__/__/__/mesh/core/src/replay_cache.c.obj
                0x000000000002e538                replay_cache_add
 .text.replay_cache_has_elem
                0x000000000002e598       0x40 CMakeFiles/light_switch_proxy_client_nrf52840_xxAA_s140_6.0.0.dir/__/__/__/mesh/core/src/replay_cache.c.obj
                0x000000000002e598                replay_cache_has_elem
 .text.beacon_create
                0x000000000002e5d8       0x50 CMakeFiles/light_switch_proxy_client_nrf52840_xxAA_s140_6.0.0.dir/__/__/__/mesh/core/src/beacon.c.obj
                0x000000000002e5d8                beacon_create
 .text.beacon_packet_in
                0x000000000002e628      0x178 CMakeFiles/light_switch_proxy_client_nrf52840_xxAA_s140_6.0.0.dir/__/__/__/mesh/core/src/beacon.c.obj
                0x000000000002e628                beacon_packet_in
 .text.core_tx_complete_cb_set
                0x000000000002e7a0        0xc CMakeFiles/light_switch_proxy_client_nrf52840_xxAA_s140_6.0.0.dir/__/__/__/mesh/core/src/core_tx.c.obj
                0x000000000002e7a0                core_tx_complete_cb_set
 .text.core_tx_packet_alloc
                0x000000000002e7ac       0xc0 CMakeFiles/light_switch_proxy_client_nrf52840_xxAA_s140_6.0.0.dir/__/__/__/mesh/core/src/core_tx.c.obj
                0x000000000002e7ac                core_tx_packet_alloc
 .text.core_tx_packet_send
                0x000000000002e86c       0x5c CMakeFiles/light_switch_proxy_client_nrf52840_xxAA_s140_6.0.0.dir/__/__/__/mesh/core/src/core_tx.c.obj
                0x000000000002e86c                core_tx_packet_send
 .text.core_tx_packet_discard
                0x000000000002e8c8       0x54 CMakeFiles/light_switch_proxy_client_nrf52840_xxAA_s140_6.0.0.dir/__/__/__/mesh/core/src/core_tx.c.obj
                0x000000000002e8c8                core_tx_packet_discard
 .text.core_tx_complete
                0x000000000002e91c       0x38 CMakeFiles/light_switch_proxy_client_nrf52840_xxAA_s140_6.0.0.dir/__/__/__/mesh/core/src/core_tx.c.obj
                0x000000000002e91c                core_tx_complete
 .text.core_tx_bearer_add
                0x000000000002e954       0x90 CMakeFiles/light_switch_proxy_client_nrf52840_xxAA_s140_6.0.0.dir/__/__/__/mesh/core/src/core_tx.c.obj
                0x000000000002e954                core_tx_bearer_add
 .text.heartbeat_subscription_timer_cb
                0x000000000002e9e4       0x1c CMakeFiles/light_switch_proxy_client_nrf52840_xxAA_s140_6.0.0.dir/__/__/__/mesh/core/src/heartbeat.c.obj
 .text.heartbeat_opcode_handle
                0x000000000002ea00       0x8c CMakeFiles/light_switch_proxy_client_nrf52840_xxAA_s140_6.0.0.dir/__/__/__/mesh/core/src/heartbeat.c.obj
 .text.heartbeat_send
                0x000000000002ea8c       0xbc CMakeFiles/light_switch_proxy_client_nrf52840_xxAA_s140_6.0.0.dir/__/__/__/mesh/core/src/heartbeat.c.obj
 .text.heartbeat_core_evt_cb
                0x000000000002eb48       0x94 CMakeFiles/light_switch_proxy_client_nrf52840_xxAA_s140_6.0.0.dir/__/__/__/mesh/core/src/heartbeat.c.obj
 .text.heartbeat_publication_timer_cb
                0x000000000002ebdc       0xb0 CMakeFiles/light_switch_proxy_client_nrf52840_xxAA_s140_6.0.0.dir/__/__/__/mesh/core/src/heartbeat.c.obj
 .text.heartbeat_on_feature_change_trigger
                0x000000000002ec8c       0x48 CMakeFiles/light_switch_proxy_client_nrf52840_xxAA_s140_6.0.0.dir/__/__/__/mesh/core/src/heartbeat.c.obj
                0x000000000002ec8c                heartbeat_on_feature_change_trigger
 .text.heartbeat_init
                0x000000000002ecd4       0x7c CMakeFiles/light_switch_proxy_client_nrf52840_xxAA_s140_6.0.0.dir/__/__/__/mesh/core/src/heartbeat.c.obj
                0x000000000002ecd4                heartbeat_init
 .text.heartbeat_subscription_set
                0x000000000002ed50       0xa4 CMakeFiles/light_switch_proxy_client_nrf52840_xxAA_s140_6.0.0.dir/__/__/__/mesh/core/src/heartbeat.c.obj
                0x000000000002ed50                heartbeat_subscription_set
 .text.heartbeat_subscription_get
                0x000000000002edf4        0x8 CMakeFiles/light_switch_proxy_client_nrf52840_xxAA_s140_6.0.0.dir/__/__/__/mesh/core/src/heartbeat.c.obj
                0x000000000002edf4                heartbeat_subscription_get
 .text.heartbeat_config_server_cb_set
                0x000000000002edfc       0x30 CMakeFiles/light_switch_proxy_client_nrf52840_xxAA_s140_6.0.0.dir/__/__/__/mesh/core/src/heartbeat.c.obj
                0x000000000002edfc                heartbeat_config_server_cb_set
 .text.heartbeat_publication_state_updated
                0x000000000002ee2c       0x78 CMakeFiles/light_switch_proxy_client_nrf52840_xxAA_s140_6.0.0.dir/__/__/__/mesh/core/src/heartbeat.c.obj
                0x000000000002ee2c                heartbeat_publication_state_updated
 .text.beacon_tx
                0x000000000002eea4      0x194 CMakeFiles/light_switch_proxy_client_nrf52840_xxAA_s140_6.0.0.dir/__/__/__/mesh/core/src/net_beacon.c.obj
 .text.tx_complete_cb
                0x000000000002f038       0x10 CMakeFiles/light_switch_proxy_client_nrf52840_xxAA_s140_6.0.0.dir/__/__/__/mesh/core/src/net_beacon.c.obj
 .text.beacon_tx_timeout
                0x000000000002f048        0x4 CMakeFiles/light_switch_proxy_client_nrf52840_xxAA_s140_6.0.0.dir/__/__/__/mesh/core/src/net_beacon.c.obj
 .text.net_beacon_init
                0x000000000002f04c       0x94 CMakeFiles/light_switch_proxy_client_nrf52840_xxAA_s140_6.0.0.dir/__/__/__/mesh/core/src/net_beacon.c.obj
                0x000000000002f04c                net_beacon_init
 .text.net_beacon_state_set
                0x000000000002f0e0       0x3c CMakeFiles/light_switch_proxy_client_nrf52840_xxAA_s140_6.0.0.dir/__/__/__/mesh/core/src/net_beacon.c.obj
                0x000000000002f0e0                net_beacon_state_set
 .text.net_beacon_state_get
                0x000000000002f11c        0xc CMakeFiles/light_switch_proxy_client_nrf52840_xxAA_s140_6.0.0.dir/__/__/__/mesh/core/src/net_beacon.c.obj
                0x000000000002f11c                net_beacon_state_get
 .text.net_beacon_build
                0x000000000002f128       0x68 CMakeFiles/light_switch_proxy_client_nrf52840_xxAA_s140_6.0.0.dir/__/__/__/mesh/core/src/net_beacon.c.obj
                0x000000000002f128                net_beacon_build
 .text.net_beacon_packet_in
                0x000000000002f190      0x134 CMakeFiles/light_switch_proxy_client_nrf52840_xxAA_s140_6.0.0.dir/__/__/__/mesh/core/src/net_beacon.c.obj
                0x000000000002f190                net_beacon_packet_in
 .text.fsm_event_post_try
                0x000000000002f2c4      0x24c CMakeFiles/light_switch_proxy_client_nrf52840_xxAA_s140_6.0.0.dir/__/__/__/mesh/core/src/fsm.c.obj
 .text.fsm_init
                0x000000000002f510      0x100 CMakeFiles/light_switch_proxy_client_nrf52840_xxAA_s140_6.0.0.dir/__/__/__/mesh/core/src/fsm.c.obj
                0x000000000002f510                fsm_init
 .text.fsm_event_post
                0x000000000002f610       0xbc CMakeFiles/light_switch_proxy_client_nrf52840_xxAA_s140_6.0.0.dir/__/__/__/mesh/core/src/fsm.c.obj
                0x000000000002f610                fsm_event_post
 .text.fsm_is_processing
                0x000000000002f6cc        0xc CMakeFiles/light_switch_proxy_client_nrf52840_xxAA_s140_6.0.0.dir/__/__/__/mesh/core/src/fsm.c.obj
                0x000000000002f6cc                fsm_is_processing
 .text.packet_discard
                0x000000000002f6d8       0x40 CMakeFiles/light_switch_proxy_client_nrf52840_xxAA_s140_6.0.0.dir/__/__/__/mesh/core/src/core_tx_adv.c.obj
 .text.packet_send
                0x000000000002f718       0x58 CMakeFiles/light_switch_proxy_client_nrf52840_xxAA_s140_6.0.0.dir/__/__/__/mesh/core/src/core_tx_adv.c.obj
 .text.packet_alloc
                0x000000000002f770       0x5c CMakeFiles/light_switch_proxy_client_nrf52840_xxAA_s140_6.0.0.dir/__/__/__/mesh/core/src/core_tx_adv.c.obj
 .text.adv_tx_complete_callback
                0x000000000002f7cc       0x28 CMakeFiles/light_switch_proxy_client_nrf52840_xxAA_s140_6.0.0.dir/__/__/__/mesh/core/src/core_tx_adv.c.obj
 .text.core_tx_adv_init
                0x000000000002f7f4       0x60 CMakeFiles/light_switch_proxy_client_nrf52840_xxAA_s140_6.0.0.dir/__/__/__/mesh/core/src/core_tx_adv.c.obj
                0x000000000002f7f4                core_tx_adv_init
 .text.core_tx_adv_count_set
                0x000000000002f854       0x2c CMakeFiles/light_switch_proxy_client_nrf52840_xxAA_s140_6.0.0.dir/__/__/__/mesh/core/src/core_tx_adv.c.obj
                0x000000000002f854                core_tx_adv_count_set
 .text.core_tx_adv_count_get
                0x000000000002f880       0x20 CMakeFiles/light_switch_proxy_client_nrf52840_xxAA_s140_6.0.0.dir/__/__/__/mesh/core/src/core_tx_adv.c.obj
                0x000000000002f880                core_tx_adv_count_get
 .text.core_tx_adv_interval_set
                0x000000000002f8a0       0x28 CMakeFiles/light_switch_proxy_client_nrf52840_xxAA_s140_6.0.0.dir/__/__/__/mesh/core/src/core_tx_adv.c.obj
                0x000000000002f8a0                core_tx_adv_interval_set
 .text.core_tx_adv_interval_get
                0x000000000002f8c8       0x2c CMakeFiles/light_switch_proxy_client_nrf52840_xxAA_s140_6.0.0.dir/__/__/__/mesh/core/src/core_tx_adv.c.obj
                0x000000000002f8c8                core_tx_adv_interval_get
 .text.ad_listener_subscribe
                0x000000000002f8f4       0x60 CMakeFiles/light_switch_proxy_client_nrf52840_xxAA_s140_6.0.0.dir/__/__/__/mesh/bearer/src/ad_listener.c.obj
                0x000000000002f8f4                ad_listener_subscribe
 .text.ad_listener_process
                0x000000000002f954       0x84 CMakeFiles/light_switch_proxy_client_nrf52840_xxAA_s140_6.0.0.dir/__/__/__/mesh/bearer/src/ad_listener.c.obj
                0x000000000002f954                ad_listener_process
 .text.adtype_filter_handle
                0x000000000002f9d8       0x94 CMakeFiles/light_switch_proxy_client_nrf52840_xxAA_s140_6.0.0.dir/__/__/__/mesh/bearer/src/ad_type_filter.c.obj
 .text.bearer_adtype_filtering_set
                0x000000000002fa6c       0x1c CMakeFiles/light_switch_proxy_client_nrf52840_xxAA_s140_6.0.0.dir/__/__/__/mesh/bearer/src/ad_type_filter.c.obj
                0x000000000002fa6c                bearer_adtype_filtering_set
 .text.bearer_adtype_add
                0x000000000002fa88       0x24 CMakeFiles/light_switch_proxy_client_nrf52840_xxAA_s140_6.0.0.dir/__/__/__/mesh/bearer/src/ad_type_filter.c.obj
                0x000000000002fa88                bearer_adtype_add
 .text.bearer_adtype_mode_set
                0x000000000002faac       0x18 CMakeFiles/light_switch_proxy_client_nrf52840_xxAA_s140_6.0.0.dir/__/__/__/mesh/bearer/src/ad_type_filter.c.obj
                0x000000000002faac                bearer_adtype_mode_set
 .text.tx_complete_event_callback
                0x000000000002fac4       0x34 CMakeFiles/light_switch_proxy_client_nrf52840_xxAA_s140_6.0.0.dir/__/__/__/mesh/bearer/src/advertiser.c.obj
 .text.broadcast_complete_cb
                0x000000000002faf8       0x48 CMakeFiles/light_switch_proxy_client_nrf52840_xxAA_s140_6.0.0.dir/__/__/__/mesh/bearer/src/advertiser.c.obj
 .text.timeout_event
                0x000000000002fb40      0x12c CMakeFiles/light_switch_proxy_client_nrf52840_xxAA_s140_6.0.0.dir/__/__/__/mesh/bearer/src/advertiser.c.obj
 .text.advertiser_init
                0x000000000002fc6c        0xc CMakeFiles/light_switch_proxy_client_nrf52840_xxAA_s140_6.0.0.dir/__/__/__/mesh/bearer/src/advertiser.c.obj
                0x000000000002fc6c                advertiser_init
 .text.advertiser_instance_init
                0x000000000002fc78      0x100 CMakeFiles/light_switch_proxy_client_nrf52840_xxAA_s140_6.0.0.dir/__/__/__/mesh/bearer/src/advertiser.c.obj
                0x000000000002fc78                advertiser_instance_init
 .text.advertiser_enable
                0x000000000002fd78       0x44 CMakeFiles/light_switch_proxy_client_nrf52840_xxAA_s140_6.0.0.dir/__/__/__/mesh/bearer/src/advertiser.c.obj
                0x000000000002fd78                advertiser_enable
 .text.advertiser_packet_alloc
                0x000000000002fdbc       0x80 CMakeFiles/light_switch_proxy_client_nrf52840_xxAA_s140_6.0.0.dir/__/__/__/mesh/bearer/src/advertiser.c.obj
                0x000000000002fdbc                advertiser_packet_alloc
 .text.advertiser_packet_send
                0x000000000002fe3c       0x84 CMakeFiles/light_switch_proxy_client_nrf52840_xxAA_s140_6.0.0.dir/__/__/__/mesh/bearer/src/advertiser.c.obj
                0x000000000002fe3c                advertiser_packet_send
 .text.advertiser_packet_discard
                0x000000000002fec0       0x2c CMakeFiles/light_switch_proxy_client_nrf52840_xxAA_s140_6.0.0.dir/__/__/__/mesh/bearer/src/advertiser.c.obj
                0x000000000002fec0                advertiser_packet_discard
 .text.advertiser_interval_set
                0x000000000002feec       0x6c CMakeFiles/light_switch_proxy_client_nrf52840_xxAA_s140_6.0.0.dir/__/__/__/mesh/bearer/src/advertiser.c.obj
                0x000000000002feec                advertiser_interval_set
 .text.advertiser_flush
                0x000000000002ff58       0x20 CMakeFiles/light_switch_proxy_client_nrf52840_xxAA_s140_6.0.0.dir/__/__/__/mesh/bearer/src/advertiser.c.obj
                0x000000000002ff58                advertiser_flush
 .text.action_switch.part.2
                0x000000000002ff78       0xb4 CMakeFiles/light_switch_proxy_client_nrf52840_xxAA_s140_6.0.0.dir/__/__/__/mesh/bearer/src/bearer_handler.c.obj
 .text.bearer_handler_init
                0x000000000003002c       0x2c CMakeFiles/light_switch_proxy_client_nrf52840_xxAA_s140_6.0.0.dir/__/__/__/mesh/bearer/src/bearer_handler.c.obj
                0x000000000003002c                bearer_handler_init
 .text.bearer_handler_start
                0x0000000000030058       0x1c CMakeFiles/light_switch_proxy_client_nrf52840_xxAA_s140_6.0.0.dir/__/__/__/mesh/bearer/src/bearer_handler.c.obj
                0x0000000000030058                bearer_handler_start
 .text.bearer_handler_stop
                0x0000000000030074       0x20 CMakeFiles/light_switch_proxy_client_nrf52840_xxAA_s140_6.0.0.dir/__/__/__/mesh/bearer/src/bearer_handler.c.obj
                0x0000000000030074                bearer_handler_stop
 .text.bearer_handler_action_enqueue
                0x0000000000030094       0x88 CMakeFiles/light_switch_proxy_client_nrf52840_xxAA_s140_6.0.0.dir/__/__/__/mesh/bearer/src/bearer_handler.c.obj
                0x0000000000030094                bearer_handler_action_enqueue
 .text.bearer_handler_action_end
                0x000000000003011c       0x68 CMakeFiles/light_switch_proxy_client_nrf52840_xxAA_s140_6.0.0.dir/__/__/__/mesh/bearer/src/bearer_handler.c.obj
                0x000000000003011c                bearer_handler_action_end
 .text.bearer_handler_radio_irq_handler
                0x0000000000030184       0x58 CMakeFiles/light_switch_proxy_client_nrf52840_xxAA_s140_6.0.0.dir/__/__/__/mesh/bearer/src/bearer_handler.c.obj
                0x0000000000030184                bearer_handler_radio_irq_handler
 .text.bearer_handler_timer_irq_handler
                0x00000000000301dc       0x34 CMakeFiles/light_switch_proxy_client_nrf52840_xxAA_s140_6.0.0.dir/__/__/__/mesh/bearer/src/bearer_handler.c.obj
                0x00000000000301dc                bearer_handler_timer_irq_handler
 .text.bearer_handler_on_ts_begin
                0x0000000000030210       0x3c CMakeFiles/light_switch_proxy_client_nrf52840_xxAA_s140_6.0.0.dir/__/__/__/mesh/bearer/src/bearer_handler.c.obj
                0x0000000000030210                bearer_handler_on_ts_begin
 .text.bearer_handler_on_ts_end
                0x000000000003024c       0x38 CMakeFiles/light_switch_proxy_client_nrf52840_xxAA_s140_6.0.0.dir/__/__/__/mesh/bearer/src/bearer_handler.c.obj
                0x000000000003024c                bearer_handler_on_ts_end
 .text.radio_irq_handler
                0x0000000000030284       0x98 CMakeFiles/light_switch_proxy_client_nrf52840_xxAA_s140_6.0.0.dir/__/__/__/mesh/bearer/src/broadcast.c.obj
 .text.broadcast_start
                0x000000000003031c       0x8c CMakeFiles/light_switch_proxy_client_nrf52840_xxAA_s140_6.0.0.dir/__/__/__/mesh/bearer/src/broadcast.c.obj
 .text.broadcast_send
                0x00000000000303a8       0x74 CMakeFiles/light_switch_proxy_client_nrf52840_xxAA_s140_6.0.0.dir/__/__/__/mesh/bearer/src/broadcast.c.obj
                0x00000000000303a8                broadcast_send
 .text.fen_filter_start
                0x000000000003041c       0x38 CMakeFiles/light_switch_proxy_client_nrf52840_xxAA_s140_6.0.0.dir/__/__/__/mesh/bearer/src/filter_engine.c.obj
                0x000000000003041c                fen_filter_start
 .text.fen_filter_stop
                0x0000000000030454       0x2c CMakeFiles/light_switch_proxy_client_nrf52840_xxAA_s140_6.0.0.dir/__/__/__/mesh/bearer/src/filter_engine.c.obj
                0x0000000000030454                fen_filter_stop
 .text.fen_filters_apply
                0x0000000000030480       0x34 CMakeFiles/light_switch_proxy_client_nrf52840_xxAA_s140_6.0.0.dir/__/__/__/mesh/bearer/src/filter_engine.c.obj
                0x0000000000030480                fen_filters_apply
 .text.radio_config_reset
                0x00000000000304b4       0x38 CMakeFiles/light_switch_proxy_client_nrf52840_xxAA_s140_6.0.0.dir/__/__/__/mesh/bearer/src/radio_config.c.obj
                0x00000000000304b4                radio_config_reset
 .text.radio_config_channel_set
                0x00000000000304ec       0x28 CMakeFiles/light_switch_proxy_client_nrf52840_xxAA_s140_6.0.0.dir/__/__/__/mesh/bearer/src/radio_config.c.obj
                0x00000000000304ec                radio_config_channel_set
 .text.radio_config_config
                0x0000000000030514       0x94 CMakeFiles/light_switch_proxy_client_nrf52840_xxAA_s140_6.0.0.dir/__/__/__/mesh/bearer/src/radio_config.c.obj
                0x0000000000030514                radio_config_config
 .text.radio_config_access_addr_set
                0x00000000000305a8       0x58 CMakeFiles/light_switch_proxy_client_nrf52840_xxAA_s140_6.0.0.dir/__/__/__/mesh/bearer/src/radio_config.c.obj
                0x00000000000305a8                radio_config_access_addr_set
 .text.scan_window_end
                0x0000000000030600       0x28 CMakeFiles/light_switch_proxy_client_nrf52840_xxAA_s140_6.0.0.dir/__/__/__/mesh/bearer/src/scanner.c.obj
 .text.scan_window_start
                0x0000000000030628       0x38 CMakeFiles/light_switch_proxy_client_nrf52840_xxAA_s140_6.0.0.dir/__/__/__/mesh/bearer/src/scanner.c.obj
 .text.radio_start
                0x0000000000030660      0x1a8 CMakeFiles/light_switch_proxy_client_nrf52840_xxAA_s140_6.0.0.dir/__/__/__/mesh/bearer/src/scanner.c.obj
 .text.scanner_radio_start
                0x0000000000030808      0x14c CMakeFiles/light_switch_proxy_client_nrf52840_xxAA_s140_6.0.0.dir/__/__/__/mesh/bearer/src/scanner.c.obj
                0x0000000000030808                scanner_radio_start
 .text.scanner_radio_stop
                0x0000000000030954       0x34 CMakeFiles/light_switch_proxy_client_nrf52840_xxAA_s140_6.0.0.dir/__/__/__/mesh/bearer/src/scanner.c.obj
                0x0000000000030954                scanner_radio_stop
 .text.scanner_radio_irq_handler
                0x0000000000030988      0x200 CMakeFiles/light_switch_proxy_client_nrf52840_xxAA_s140_6.0.0.dir/__/__/__/mesh/bearer/src/scanner.c.obj
                0x0000000000030988                scanner_radio_irq_handler
 .text.scanner_enable
                0x0000000000030b88       0x50 CMakeFiles/light_switch_proxy_client_nrf52840_xxAA_s140_6.0.0.dir/__/__/__/mesh/bearer/src/scanner.c.obj
                0x0000000000030b88                scanner_enable
 .text.scanner_disable
                0x0000000000030bd8       0x50 CMakeFiles/light_switch_proxy_client_nrf52840_xxAA_s140_6.0.0.dir/__/__/__/mesh/bearer/src/scanner.c.obj
                0x0000000000030bd8                scanner_disable
 .text.scanner_rx
                0x0000000000030c28       0x8c CMakeFiles/light_switch_proxy_client_nrf52840_xxAA_s140_6.0.0.dir/__/__/__/mesh/bearer/src/scanner.c.obj
                0x0000000000030c28                scanner_rx
 .text.scanner_packet_release
                0x0000000000030cb4       0x40 CMakeFiles/light_switch_proxy_client_nrf52840_xxAA_s140_6.0.0.dir/__/__/__/mesh/bearer/src/scanner.c.obj
                0x0000000000030cb4                scanner_packet_release
 .text.scanner_rx_pending
                0x0000000000030cf4        0xc CMakeFiles/light_switch_proxy_client_nrf52840_xxAA_s140_6.0.0.dir/__/__/__/mesh/bearer/src/scanner.c.obj
                0x0000000000030cf4                scanner_rx_pending
 .text.scanner_config_reset
                0x0000000000030d00       0xa4 CMakeFiles/light_switch_proxy_client_nrf52840_xxAA_s140_6.0.0.dir/__/__/__/mesh/bearer/src/scanner.c.obj
                0x0000000000030d00                scanner_config_reset
 .text.scanner_init
                0x0000000000030da4       0x54 CMakeFiles/light_switch_proxy_client_nrf52840_xxAA_s140_6.0.0.dir/__/__/__/mesh/bearer/src/scanner.c.obj
                0x0000000000030da4                scanner_init
 .text.sd_ble_gap_disconnect
                0x0000000000030df8        0x4 CMakeFiles/light_switch_proxy_client_nrf52840_xxAA_s140_6.0.0.dir/__/__/__/mesh/gatt/src/mesh_gatt.c.obj
 .text.sd_ble_gap_sec_params_reply
                0x0000000000030dfc        0x4 CMakeFiles/light_switch_proxy_client_nrf52840_xxAA_s140_6.0.0.dir/__/__/__/mesh/gatt/src/mesh_gatt.c.obj
 .text.sd_ble_gap_phy_update
                0x0000000000030e00        0x4 CMakeFiles/light_switch_proxy_client_nrf52840_xxAA_s140_6.0.0.dir/__/__/__/mesh/gatt/src/mesh_gatt.c.obj
 .text.sd_ble_gap_data_length_update
                0x0000000000030e04        0x4 CMakeFiles/light_switch_proxy_client_nrf52840_xxAA_s140_6.0.0.dir/__/__/__/mesh/gatt/src/mesh_gatt.c.obj
 .text.sd_ble_gatts_service_add
                0x0000000000030e08        0x4 CMakeFiles/light_switch_proxy_client_nrf52840_xxAA_s140_6.0.0.dir/__/__/__/mesh/gatt/src/mesh_gatt.c.obj
 .text.sd_ble_gatts_characteristic_add
                0x0000000000030e0c        0x4 CMakeFiles/light_switch_proxy_client_nrf52840_xxAA_s140_6.0.0.dir/__/__/__/mesh/gatt/src/mesh_gatt.c.obj
 .text.sd_ble_gatts_hvx
                0x0000000000030e10        0x4 CMakeFiles/light_switch_proxy_client_nrf52840_xxAA_s140_6.0.0.dir/__/__/__/mesh/gatt/src/mesh_gatt.c.obj
 .text.sd_ble_gatts_service_changed
                0x0000000000030e14        0x4 CMakeFiles/light_switch_proxy_client_nrf52840_xxAA_s140_6.0.0.dir/__/__/__/mesh/gatt/src/mesh_gatt.c.obj
 .text.sd_ble_gatts_sys_attr_set
                0x0000000000030e18        0x4 CMakeFiles/light_switch_proxy_client_nrf52840_xxAA_s140_6.0.0.dir/__/__/__/mesh/gatt/src/mesh_gatt.c.obj
 .text.sd_ble_gatts_exchange_mtu_reply
                0x0000000000030e1c        0x4 CMakeFiles/light_switch_proxy_client_nrf52840_xxAA_s140_6.0.0.dir/__/__/__/mesh/gatt/src/mesh_gatt.c.obj
 .text.timeout_cb
                0x0000000000030e20       0x1c CMakeFiles/light_switch_proxy_client_nrf52840_xxAA_s140_6.0.0.dir/__/__/__/mesh/gatt/src/mesh_gatt.c.obj
 .text.mesh_gatt_on_ble_evt
                0x0000000000030e3c      0x5dc CMakeFiles/light_switch_proxy_client_nrf52840_xxAA_s140_6.0.0.dir/__/__/__/mesh/gatt/src/mesh_gatt.c.obj
                0x0000000000030e3c                mesh_gatt_on_ble_evt
 .text.mesh_gatt_init
                0x0000000000031418      0x16c CMakeFiles/light_switch_proxy_client_nrf52840_xxAA_s140_6.0.0.dir/__/__/__/mesh/gatt/src/mesh_gatt.c.obj
                0x0000000000031418                mesh_gatt_init
 .text.mesh_gatt_packet_alloc
                0x0000000000031584       0x8c CMakeFiles/light_switch_proxy_client_nrf52840_xxAA_s140_6.0.0.dir/__/__/__/mesh/gatt/src/mesh_gatt.c.obj
                0x0000000000031584                mesh_gatt_packet_alloc
 .text.mesh_gatt_packet_send
                0x0000000000031610      0x1f4 CMakeFiles/light_switch_proxy_client_nrf52840_xxAA_s140_6.0.0.dir/__/__/__/mesh/gatt/src/mesh_gatt.c.obj
                0x0000000000031610                mesh_gatt_packet_send
 .text.mesh_gatt_packet_discard
                0x0000000000031804       0x50 CMakeFiles/light_switch_proxy_client_nrf52840_xxAA_s140_6.0.0.dir/__/__/__/mesh/gatt/src/mesh_gatt.c.obj
                0x0000000000031804                mesh_gatt_packet_discard
 .text.mesh_gatt_disconnect
                0x0000000000031854       0x34 CMakeFiles/light_switch_proxy_client_nrf52840_xxAA_s140_6.0.0.dir/__/__/__/mesh/gatt/src/mesh_gatt.c.obj
                0x0000000000031854                mesh_gatt_disconnect
 .text.core_tx_packet_alloc_cb
                0x0000000000031888       0x74 CMakeFiles/light_switch_proxy_client_nrf52840_xxAA_s140_6.0.0.dir/__/__/__/mesh/gatt/src/proxy.c.obj
 .text.adv_start
                0x00000000000318fc      0x12c CMakeFiles/light_switch_proxy_client_nrf52840_xxAA_s140_6.0.0.dir/__/__/__/mesh/gatt/src/proxy.c.obj
 .text.core_tx_packet_discard_cb
                0x0000000000031a28       0x50 CMakeFiles/light_switch_proxy_client_nrf52840_xxAA_s140_6.0.0.dir/__/__/__/mesh/gatt/src/proxy.c.obj
 .text.core_tx_packet_send_cb
                0x0000000000031a78       0x8c CMakeFiles/light_switch_proxy_client_nrf52840_xxAA_s140_6.0.0.dir/__/__/__/mesh/gatt/src/proxy.c.obj
 .text.adv_timer_handler
                0x0000000000031b04       0xec CMakeFiles/light_switch_proxy_client_nrf52840_xxAA_s140_6.0.0.dir/__/__/__/mesh/gatt/src/proxy.c.obj
 .text.mesh_evt_handle
                0x0000000000031bf0       0xa8 CMakeFiles/light_switch_proxy_client_nrf52840_xxAA_s140_6.0.0.dir/__/__/__/mesh/gatt/src/proxy.c.obj
 .text.gatt_evt_handler
                0x0000000000031c98      0x7c0 CMakeFiles/light_switch_proxy_client_nrf52840_xxAA_s140_6.0.0.dir/__/__/__/mesh/gatt/src/proxy.c.obj
 .text.proxy_init
                0x0000000000032458       0x90 CMakeFiles/light_switch_proxy_client_nrf52840_xxAA_s140_6.0.0.dir/__/__/__/mesh/gatt/src/proxy.c.obj
                0x0000000000032458                proxy_init
 .text.proxy_subnet_added
                0x00000000000324e8       0xd4 CMakeFiles/light_switch_proxy_client_nrf52840_xxAA_s140_6.0.0.dir/__/__/__/mesh/gatt/src/proxy.c.obj
                0x00000000000324e8                proxy_subnet_added
 .text.proxy_net_packet_processed
                0x00000000000325bc       0x40 CMakeFiles/light_switch_proxy_client_nrf52840_xxAA_s140_6.0.0.dir/__/__/__/mesh/gatt/src/proxy.c.obj
                0x00000000000325bc                proxy_net_packet_processed
 .text.proxy_enable
                0x00000000000325fc      0x120 CMakeFiles/light_switch_proxy_client_nrf52840_xxAA_s140_6.0.0.dir/__/__/__/mesh/gatt/src/proxy.c.obj
                0x00000000000325fc                proxy_enable
 .text.proxy_node_id_enable
                0x000000000003271c      0x144 CMakeFiles/light_switch_proxy_client_nrf52840_xxAA_s140_6.0.0.dir/__/__/__/mesh/gatt/src/proxy.c.obj
                0x000000000003271c                proxy_node_id_enable
 .text.proxy_node_id_is_enabled
                0x0000000000032860       0x30 CMakeFiles/light_switch_proxy_client_nrf52840_xxAA_s140_6.0.0.dir/__/__/__/mesh/gatt/src/proxy.c.obj
                0x0000000000032860                proxy_node_id_is_enabled
 .text.proxy_node_id_disable
                0x0000000000032890      0x124 CMakeFiles/light_switch_proxy_client_nrf52840_xxAA_s140_6.0.0.dir/__/__/__/mesh/gatt/src/proxy.c.obj
                0x0000000000032890                proxy_node_id_disable
 .text.proxy_disable
                0x00000000000329b4       0x4c CMakeFiles/light_switch_proxy_client_nrf52840_xxAA_s140_6.0.0.dir/__/__/__/mesh/gatt/src/proxy.c.obj
                0x00000000000329b4                proxy_disable
 .text.proxy_is_enabled
                0x0000000000032a00        0xc CMakeFiles/light_switch_proxy_client_nrf52840_xxAA_s140_6.0.0.dir/__/__/__/mesh/gatt/src/proxy.c.obj
                0x0000000000032a00                proxy_is_enabled
 .text.proxy_filter_clear
                0x0000000000032a0c       0x24 CMakeFiles/light_switch_proxy_client_nrf52840_xxAA_s140_6.0.0.dir/__/__/__/mesh/gatt/src/proxy_filter.c.obj
                0x0000000000032a0c                proxy_filter_clear
 .text.proxy_filter_type_set
                0x0000000000032a30       0x30 CMakeFiles/light_switch_proxy_client_nrf52840_xxAA_s140_6.0.0.dir/__/__/__/mesh/gatt/src/proxy_filter.c.obj
                0x0000000000032a30                proxy_filter_type_set
 .text.proxy_filter_add
                0x0000000000032a60       0x80 CMakeFiles/light_switch_proxy_client_nrf52840_xxAA_s140_6.0.0.dir/__/__/__/mesh/gatt/src/proxy_filter.c.obj
                0x0000000000032a60                proxy_filter_add
 .text.proxy_filter_remove
                0x0000000000032ae0       0x7c CMakeFiles/light_switch_proxy_client_nrf52840_xxAA_s140_6.0.0.dir/__/__/__/mesh/gatt/src/proxy_filter.c.obj
                0x0000000000032ae0                proxy_filter_remove
 .text.proxy_filter_accept
                0x0000000000032b5c       0x54 CMakeFiles/light_switch_proxy_client_nrf52840_xxAA_s140_6.0.0.dir/__/__/__/mesh/gatt/src/proxy_filter.c.obj
                0x0000000000032b5c                proxy_filter_accept
 .text.handle_publish_timeout
                0x0000000000032bb0        0x8 CMakeFiles/light_switch_proxy_client_nrf52840_xxAA_s140_6.0.0.dir/__/__/__/models/simple_on_off/src/simple_on_off_client.c.obj
 .text.reliable_status_cb
                0x0000000000032bb8       0x7c CMakeFiles/light_switch_proxy_client_nrf52840_xxAA_s140_6.0.0.dir/__/__/__/models/simple_on_off/src/simple_on_off_client.c.obj
 .text.handle_status_cb
                0x0000000000032c34       0x58 CMakeFiles/light_switch_proxy_client_nrf52840_xxAA_s140_6.0.0.dir/__/__/__/models/simple_on_off/src/simple_on_off_client.c.obj
 .text.simple_on_off_client_init
                0x0000000000032c8c       0x40 CMakeFiles/light_switch_proxy_client_nrf52840_xxAA_s140_6.0.0.dir/__/__/__/models/simple_on_off/src/simple_on_off_client.c.obj
                0x0000000000032c8c                simple_on_off_client_init
 .text.simple_on_off_client_set
                0x0000000000032ccc       0x74 CMakeFiles/light_switch_proxy_client_nrf52840_xxAA_s140_6.0.0.dir/__/__/__/models/simple_on_off/src/simple_on_off_client.c.obj
                0x0000000000032ccc                simple_on_off_client_set
 .text.simple_on_off_client_set_unreliable
                0x0000000000032d40       0x5c CMakeFiles/light_switch_proxy_client_nrf52840_xxAA_s140_6.0.0.dir/__/__/__/models/simple_on_off/src/simple_on_off_client.c.obj
                0x0000000000032d40                simple_on_off_client_set_unreliable
 .text.config_composition_data_get
                0x0000000000032d9c      0x1dc CMakeFiles/light_switch_proxy_client_nrf52840_xxAA_s140_6.0.0.dir/__/__/__/models/config/src/composition_data.c.obj
                0x0000000000032d9c                config_composition_data_get
 .text.config_server_heartbeat_publication_count_decrement
                0x0000000000032f78       0x1c CMakeFiles/light_switch_proxy_client_nrf52840_xxAA_s140_6.0.0.dir/__/__/__/models/config/src/config_server.c.obj
 .text.config_server_heartbeat_publication_params_get
                0x0000000000032f94       0x38 CMakeFiles/light_switch_proxy_client_nrf52840_xxAA_s140_6.0.0.dir/__/__/__/models/config/src/config_server.c.obj
 .text.handle_config_network_transmit_set
                0x0000000000032fcc      0x118 CMakeFiles/light_switch_proxy_client_nrf52840_xxAA_s140_6.0.0.dir/__/__/__/models/config/src/config_server.c.obj
 .text.handle_node_reset
                0x00000000000330e4       0x30 CMakeFiles/light_switch_proxy_client_nrf52840_xxAA_s140_6.0.0.dir/__/__/__/models/config/src/config_server.c.obj
 .text.handle_config_relay_set
                0x0000000000033114      0x1a8 CMakeFiles/light_switch_proxy_client_nrf52840_xxAA_s140_6.0.0.dir/__/__/__/models/config/src/config_server.c.obj
 .text.handle_node_identity_set
                0x00000000000332bc       0xec CMakeFiles/light_switch_proxy_client_nrf52840_xxAA_s140_6.0.0.dir/__/__/__/models/config/src/config_server.c.obj
 .text.handle_netkey_get
                0x00000000000333a8       0x70 CMakeFiles/light_switch_proxy_client_nrf52840_xxAA_s140_6.0.0.dir/__/__/__/models/config/src/config_server.c.obj
 .text.handle_model_app_bind_unbind
                0x0000000000033418      0x234 CMakeFiles/light_switch_proxy_client_nrf52840_xxAA_s140_6.0.0.dir/__/__/__/models/config/src/config_server.c.obj
 .text.status_error_sub_send
                0x000000000003364c      0x180 CMakeFiles/light_switch_proxy_client_nrf52840_xxAA_s140_6.0.0.dir/__/__/__/models/config/src/config_server.c.obj
 .text.send_publication_status
                0x00000000000337cc      0x1a8 CMakeFiles/light_switch_proxy_client_nrf52840_xxAA_s140_6.0.0.dir/__/__/__/models/config/src/config_server.c.obj
 .text.handle_config_key_refresh_phase_set
                0x0000000000033974       0xf0 CMakeFiles/light_switch_proxy_client_nrf52840_xxAA_s140_6.0.0.dir/__/__/__/models/config/src/config_server.c.obj
 .text.handle_config_default_ttl_set
                0x0000000000033a64       0x70 CMakeFiles/light_switch_proxy_client_nrf52840_xxAA_s140_6.0.0.dir/__/__/__/models/config/src/config_server.c.obj
 .text.handle_heartbeat_publication_set
                0x0000000000033ad4      0x168 CMakeFiles/light_switch_proxy_client_nrf52840_xxAA_s140_6.0.0.dir/__/__/__/models/config/src/config_server.c.obj
 .text.mesh_event_cb
                0x0000000000033c3c       0x70 CMakeFiles/light_switch_proxy_client_nrf52840_xxAA_s140_6.0.0.dir/__/__/__/models/config/src/config_server.c.obj
 .text.handle_config_friend_set
                0x0000000000033cac       0x40 CMakeFiles/light_switch_proxy_client_nrf52840_xxAA_s140_6.0.0.dir/__/__/__/models/config/src/config_server.c.obj
 .text.handle_config_gatt_proxy_set
                0x0000000000033cec       0x5c CMakeFiles/light_switch_proxy_client_nrf52840_xxAA_s140_6.0.0.dir/__/__/__/models/config/src/config_server.c.obj
 .text.handle_config_key_refresh_phase_get
                0x0000000000033d48       0x70 CMakeFiles/light_switch_proxy_client_nrf52840_xxAA_s140_6.0.0.dir/__/__/__/models/config/src/config_server.c.obj
 .text.handle_node_identity_get
                0x0000000000033db8       0x88 CMakeFiles/light_switch_proxy_client_nrf52840_xxAA_s140_6.0.0.dir/__/__/__/models/config/src/config_server.c.obj
 .text.status_error_pub_send
                0x0000000000033e40       0xc8 CMakeFiles/light_switch_proxy_client_nrf52840_xxAA_s140_6.0.0.dir/__/__/__/models/config/src/config_server.c.obj
 .text.handle_config_default_ttl_get
                0x0000000000033f08       0x48 CMakeFiles/light_switch_proxy_client_nrf52840_xxAA_s140_6.0.0.dir/__/__/__/models/config/src/config_server.c.obj
 .text.handle_config_beacon_set
                0x0000000000033f50       0x80 CMakeFiles/light_switch_proxy_client_nrf52840_xxAA_s140_6.0.0.dir/__/__/__/models/config/src/config_server.c.obj
 .text.handle_composition_data_get
                0x0000000000033fd0       0x64 CMakeFiles/light_switch_proxy_client_nrf52840_xxAA_s140_6.0.0.dir/__/__/__/models/config/src/config_server.c.obj
 .text.handle_appkey_update
                0x0000000000034034      0x108 CMakeFiles/light_switch_proxy_client_nrf52840_xxAA_s140_6.0.0.dir/__/__/__/models/config/src/config_server.c.obj
 .text.handle_model_app_get
                0x000000000003413c      0x22c CMakeFiles/light_switch_proxy_client_nrf52840_xxAA_s140_6.0.0.dir/__/__/__/models/config/src/config_server.c.obj
 .text.handle_appkey_get
                0x0000000000034368      0x104 CMakeFiles/light_switch_proxy_client_nrf52840_xxAA_s140_6.0.0.dir/__/__/__/models/config/src/config_server.c.obj
 .text.handle_heartbeat_subscription_get
                0x000000000003446c       0xdc CMakeFiles/light_switch_proxy_client_nrf52840_xxAA_s140_6.0.0.dir/__/__/__/models/config/src/config_server.c.obj
 .text.handle_config_friend_get
                0x0000000000034548       0x38 CMakeFiles/light_switch_proxy_client_nrf52840_xxAA_s140_6.0.0.dir/__/__/__/models/config/src/config_server.c.obj
 .text.handle_heartbeat_subscription_set
                0x0000000000034580      0x114 CMakeFiles/light_switch_proxy_client_nrf52840_xxAA_s140_6.0.0.dir/__/__/__/models/config/src/config_server.c.obj
 .text.handle_heartbeat_publication_get
                0x0000000000034694       0xcc CMakeFiles/light_switch_proxy_client_nrf52840_xxAA_s140_6.0.0.dir/__/__/__/models/config/src/config_server.c.obj
 .text.handle_config_beacon_get
                0x0000000000034760       0x40 CMakeFiles/light_switch_proxy_client_nrf52840_xxAA_s140_6.0.0.dir/__/__/__/models/config/src/config_server.c.obj
 .text.handle_config_gatt_proxy_get
                0x00000000000347a0       0x44 CMakeFiles/light_switch_proxy_client_nrf52840_xxAA_s140_6.0.0.dir/__/__/__/models/config/src/config_server.c.obj
 .text.handle_appkey_delete
                0x00000000000347e4      0x11c CMakeFiles/light_switch_proxy_client_nrf52840_xxAA_s140_6.0.0.dir/__/__/__/models/config/src/config_server.c.obj
 .text.handle_appkey_add
                0x0000000000034900      0x124 CMakeFiles/light_switch_proxy_client_nrf52840_xxAA_s140_6.0.0.dir/__/__/__/models/config/src/config_server.c.obj
 .text.handle_config_vendor_model_subscription_get
                0x0000000000034a24      0x18c CMakeFiles/light_switch_proxy_client_nrf52840_xxAA_s140_6.0.0.dir/__/__/__/models/config/src/config_server.c.obj
 .text.handle_netkey_add_update
                0x0000000000034bb0       0xec CMakeFiles/light_switch_proxy_client_nrf52840_xxAA_s140_6.0.0.dir/__/__/__/models/config/src/config_server.c.obj
 .text.handle_netkey_delete
                0x0000000000034c9c      0x118 CMakeFiles/light_switch_proxy_client_nrf52840_xxAA_s140_6.0.0.dir/__/__/__/models/config/src/config_server.c.obj
 .text.handle_config_network_transmit_get
                0x0000000000034db4       0x94 CMakeFiles/light_switch_proxy_client_nrf52840_xxAA_s140_6.0.0.dir/__/__/__/models/config/src/config_server.c.obj
 .text.handle_config_model_publication_get
                0x0000000000034e48      0x150 CMakeFiles/light_switch_proxy_client_nrf52840_xxAA_s140_6.0.0.dir/__/__/__/models/config/src/config_server.c.obj
 .text.handle_config_relay_get
                0x0000000000034f98       0xcc CMakeFiles/light_switch_proxy_client_nrf52840_xxAA_s140_6.0.0.dir/__/__/__/models/config/src/config_server.c.obj
 .text.handle_config_model_publication_set
                0x0000000000035064      0x3d4 CMakeFiles/light_switch_proxy_client_nrf52840_xxAA_s140_6.0.0.dir/__/__/__/models/config/src/config_server.c.obj
 .text.handle_config_model_subscription_delete_all
                0x0000000000035438      0x2fc CMakeFiles/light_switch_proxy_client_nrf52840_xxAA_s140_6.0.0.dir/__/__/__/models/config/src/config_server.c.obj
 .text.handle_config_model_subscription_virtual_address_delete
                0x0000000000035734      0x2f0 CMakeFiles/light_switch_proxy_client_nrf52840_xxAA_s140_6.0.0.dir/__/__/__/models/config/src/config_server.c.obj
 .text.handle_config_model_subscription_virtual_address_add
                0x0000000000035a24      0x2cc CMakeFiles/light_switch_proxy_client_nrf52840_xxAA_s140_6.0.0.dir/__/__/__/models/config/src/config_server.c.obj
 .text.handle_config_model_subscription_delete
                0x0000000000035cf0      0x2e4 CMakeFiles/light_switch_proxy_client_nrf52840_xxAA_s140_6.0.0.dir/__/__/__/models/config/src/config_server.c.obj
 .text.handle_config_model_subscription_add
                0x0000000000035fd4      0x2e4 CMakeFiles/light_switch_proxy_client_nrf52840_xxAA_s140_6.0.0.dir/__/__/__/models/config/src/config_server.c.obj
 .text.handle_config_model_subscription_virtual_address_overwrite
                0x00000000000362b8      0x374 CMakeFiles/light_switch_proxy_client_nrf52840_xxAA_s140_6.0.0.dir/__/__/__/models/config/src/config_server.c.obj
 .text.handle_config_model_subscription_overwrite
                0x000000000003662c      0x370 CMakeFiles/light_switch_proxy_client_nrf52840_xxAA_s140_6.0.0.dir/__/__/__/models/config/src/config_server.c.obj
 .text.handle_config_sig_model_subscription_get
                0x000000000003699c      0x2a4 CMakeFiles/light_switch_proxy_client_nrf52840_xxAA_s140_6.0.0.dir/__/__/__/models/config/src/config_server.c.obj
 .text.config_server_init
                0x0000000000036c40       0x70 CMakeFiles/light_switch_proxy_client_nrf52840_xxAA_s140_6.0.0.dir/__/__/__/models/config/src/config_server.c.obj
                0x0000000000036c40                config_server_init
 .text.config_server_bind
                0x0000000000036cb0       0x10 CMakeFiles/light_switch_proxy_client_nrf52840_xxAA_s140_6.0.0.dir/__/__/__/models/config/src/config_server.c.obj
                0x0000000000036cb0                config_server_bind
 .text.packed_index_list_create
                0x0000000000036cc0       0x3c CMakeFiles/light_switch_proxy_client_nrf52840_xxAA_s140_6.0.0.dir/__/__/__/models/config/src/packed_index_list.c.obj
                0x0000000000036cc0                packed_index_list_create
 .text.attention_timer_handler
                0x0000000000036cfc       0x6c CMakeFiles/light_switch_proxy_client_nrf52840_xxAA_s140_6.0.0.dir/__/__/__/models/health/src/health_server.c.obj
 .text.handle_attention_get
                0x0000000000036d68       0x40 CMakeFiles/light_switch_proxy_client_nrf52840_xxAA_s140_6.0.0.dir/__/__/__/models/health/src/health_server.c.obj
 .text.handle_period_get
                0x0000000000036da8       0x3c CMakeFiles/light_switch_proxy_client_nrf52840_xxAA_s140_6.0.0.dir/__/__/__/models/health/src/health_server.c.obj
 .text.handle_attention_set
                0x0000000000036de4       0xdc CMakeFiles/light_switch_proxy_client_nrf52840_xxAA_s140_6.0.0.dir/__/__/__/models/health/src/health_server.c.obj
 .text.handle_period_set
                0x0000000000036ec0       0x54 CMakeFiles/light_switch_proxy_client_nrf52840_xxAA_s140_6.0.0.dir/__/__/__/models/health/src/health_server.c.obj
 .text.send_fault_status
                0x0000000000036f14      0x3b4 CMakeFiles/light_switch_proxy_client_nrf52840_xxAA_s140_6.0.0.dir/__/__/__/models/health/src/health_server.c.obj
 .text.health_publish_timeout_handler
                0x00000000000372c8        0xc CMakeFiles/light_switch_proxy_client_nrf52840_xxAA_s140_6.0.0.dir/__/__/__/models/health/src/health_server.c.obj
 .text.handle_fault_test
                0x00000000000372d4       0x8c CMakeFiles/light_switch_proxy_client_nrf52840_xxAA_s140_6.0.0.dir/__/__/__/models/health/src/health_server.c.obj
 .text.handle_fault_clear
                0x0000000000037360       0x54 CMakeFiles/light_switch_proxy_client_nrf52840_xxAA_s140_6.0.0.dir/__/__/__/models/health/src/health_server.c.obj
 .text.handle_fault_get
                0x00000000000373b4       0x40 CMakeFiles/light_switch_proxy_client_nrf52840_xxAA_s140_6.0.0.dir/__/__/__/models/health/src/health_server.c.obj
 .text.health_server_init
                0x00000000000373f4       0x68 CMakeFiles/light_switch_proxy_client_nrf52840_xxAA_s140_6.0.0.dir/__/__/__/models/health/src/health_server.c.obj
                0x00000000000373f4                health_server_init
 .text.schedule_publication_timer
                0x000000000003745c      0x2d0 CMakeFiles/light_switch_proxy_client_nrf52840_xxAA_s140_6.0.0.dir/__/__/__/mesh/access/src/access_publish.c.obj
 .text.publish_timer_tick
                0x000000000003772c      0x140 CMakeFiles/light_switch_proxy_client_nrf52840_xxAA_s140_6.0.0.dir/__/__/__/mesh/access/src/access_publish.c.obj
 .text.access_publish_init
                0x000000000003786c       0x38 CMakeFiles/light_switch_proxy_client_nrf52840_xxAA_s140_6.0.0.dir/__/__/__/mesh/access/src/access_publish.c.obj
                0x000000000003786c                access_publish_init
 .text.access_publish_period_set
                0x00000000000378a4      0x118 CMakeFiles/light_switch_proxy_client_nrf52840_xxAA_s140_6.0.0.dir/__/__/__/mesh/access/src/access_publish.c.obj
                0x00000000000378a4                access_publish_period_set
 .text.access_publish_period_get
                0x00000000000379bc       0x2c CMakeFiles/light_switch_proxy_client_nrf52840_xxAA_s140_6.0.0.dir/__/__/__/mesh/access/src/access_publish.c.obj
                0x00000000000379bc                access_publish_period_get
 .text.handle_incoming
                0x00000000000379e8      0x198 CMakeFiles/light_switch_proxy_client_nrf52840_xxAA_s140_6.0.0.dir/__/__/__/mesh/access/src/access.c.obj
 .text.mesh_evt_cb
                0x0000000000037b80      0x158 CMakeFiles/light_switch_proxy_client_nrf52840_xxAA_s140_6.0.0.dir/__/__/__/mesh/access/src/access.c.obj
 .text.access_flash_config_load
                0x0000000000037cd8        0x4 CMakeFiles/light_switch_proxy_client_nrf52840_xxAA_s140_6.0.0.dir/__/__/__/mesh/access/src/access.c.obj
                0x0000000000037cd8                access_flash_config_load
 .text.access_flash_config_store
                0x0000000000037cdc        0x4 CMakeFiles/light_switch_proxy_client_nrf52840_xxAA_s140_6.0.0.dir/__/__/__/mesh/access/src/access.c.obj
                0x0000000000037cdc                access_flash_config_store
 .text.access_clear
                0x0000000000037ce0       0x68 CMakeFiles/light_switch_proxy_client_nrf52840_xxAA_s140_6.0.0.dir/__/__/__/mesh/access/src/access.c.obj
                0x0000000000037ce0                access_clear
 .text.access_init
                0x0000000000037d48       0x80 CMakeFiles/light_switch_proxy_client_nrf52840_xxAA_s140_6.0.0.dir/__/__/__/mesh/access/src/access.c.obj
                0x0000000000037d48                access_init
 .text.access_model_add
                0x0000000000037dc8      0x2ec CMakeFiles/light_switch_proxy_client_nrf52840_xxAA_s140_6.0.0.dir/__/__/__/mesh/access/src/access.c.obj
                0x0000000000037dc8                access_model_add
 .text.access_model_publish
                0x00000000000380b4      0x3c8 CMakeFiles/light_switch_proxy_client_nrf52840_xxAA_s140_6.0.0.dir/__/__/__/mesh/access/src/access.c.obj
                0x00000000000380b4                access_model_publish
 .text.access_model_reply
                0x000000000003847c      0x3e4 CMakeFiles/light_switch_proxy_client_nrf52840_xxAA_s140_6.0.0.dir/__/__/__/mesh/access/src/access.c.obj
                0x000000000003847c                access_model_reply
 .text.access_model_publish_address_set
                0x0000000000038860       0x3c CMakeFiles/light_switch_proxy_client_nrf52840_xxAA_s140_6.0.0.dir/__/__/__/mesh/access/src/access.c.obj
                0x0000000000038860                access_model_publish_address_set
 .text.access_model_publish_address_get
                0x000000000003889c       0x2c CMakeFiles/light_switch_proxy_client_nrf52840_xxAA_s140_6.0.0.dir/__/__/__/mesh/access/src/access.c.obj
                0x000000000003889c                access_model_publish_address_get
 .text.access_model_publish_retransmit_set
                0x00000000000388c8       0x58 CMakeFiles/light_switch_proxy_client_nrf52840_xxAA_s140_6.0.0.dir/__/__/__/mesh/access/src/access.c.obj
                0x00000000000388c8                access_model_publish_retransmit_set
 .text.access_model_publish_retransmit_get
                0x0000000000038920       0x2c CMakeFiles/light_switch_proxy_client_nrf52840_xxAA_s140_6.0.0.dir/__/__/__/mesh/access/src/access.c.obj
                0x0000000000038920                access_model_publish_retransmit_get
 .text.access_model_publish_period_set
                0x000000000003894c       0x78 CMakeFiles/light_switch_proxy_client_nrf52840_xxAA_s140_6.0.0.dir/__/__/__/mesh/access/src/access.c.obj
                0x000000000003894c                access_model_publish_period_set
 .text.access_model_publish_period_get
                0x00000000000389c4       0x40 CMakeFiles/light_switch_proxy_client_nrf52840_xxAA_s140_6.0.0.dir/__/__/__/mesh/access/src/access.c.obj
                0x00000000000389c4                access_model_publish_period_get
 .text.access_model_subscription_list_alloc
                0x0000000000038a04       0x84 CMakeFiles/light_switch_proxy_client_nrf52840_xxAA_s140_6.0.0.dir/__/__/__/mesh/access/src/access.c.obj
                0x0000000000038a04                access_model_subscription_list_alloc
 .text.access_model_subscription_add
                0x0000000000038a88       0x64 CMakeFiles/light_switch_proxy_client_nrf52840_xxAA_s140_6.0.0.dir/__/__/__/mesh/access/src/access.c.obj
                0x0000000000038a88                access_model_subscription_add
 .text.access_model_subscription_remove
                0x0000000000038aec       0x60 CMakeFiles/light_switch_proxy_client_nrf52840_xxAA_s140_6.0.0.dir/__/__/__/mesh/access/src/access.c.obj
                0x0000000000038aec                access_model_subscription_remove
 .text.access_model_subscriptions_get
                0x0000000000038b4c      0x1d8 CMakeFiles/light_switch_proxy_client_nrf52840_xxAA_s140_6.0.0.dir/__/__/__/mesh/access/src/access.c.obj
                0x0000000000038b4c                access_model_subscriptions_get
 .text.access_model_application_bind
                0x0000000000038d24       0x5c CMakeFiles/light_switch_proxy_client_nrf52840_xxAA_s140_6.0.0.dir/__/__/__/mesh/access/src/access.c.obj
                0x0000000000038d24                access_model_application_bind
 .text.access_model_application_unbind
                0x0000000000038d80       0x58 CMakeFiles/light_switch_proxy_client_nrf52840_xxAA_s140_6.0.0.dir/__/__/__/mesh/access/src/access.c.obj
                0x0000000000038d80                access_model_application_unbind
 .text.access_model_applications_get
                0x0000000000038dd8       0x54 CMakeFiles/light_switch_proxy_client_nrf52840_xxAA_s140_6.0.0.dir/__/__/__/mesh/access/src/access.c.obj
                0x0000000000038dd8                access_model_applications_get
 .text.access_model_publish_application_set
                0x0000000000038e2c       0x3c CMakeFiles/light_switch_proxy_client_nrf52840_xxAA_s140_6.0.0.dir/__/__/__/mesh/access/src/access.c.obj
                0x0000000000038e2c                access_model_publish_application_set
 .text.access_model_publish_application_get
                0x0000000000038e68       0x2c CMakeFiles/light_switch_proxy_client_nrf52840_xxAA_s140_6.0.0.dir/__/__/__/mesh/access/src/access.c.obj
                0x0000000000038e68                access_model_publish_application_get
 .text.access_default_ttl_set
                0x0000000000038e94       0x1c CMakeFiles/light_switch_proxy_client_nrf52840_xxAA_s140_6.0.0.dir/__/__/__/mesh/access/src/access.c.obj
                0x0000000000038e94                access_default_ttl_set
 .text.access_default_ttl_get
                0x0000000000038eb0        0xc CMakeFiles/light_switch_proxy_client_nrf52840_xxAA_s140_6.0.0.dir/__/__/__/mesh/access/src/access.c.obj
                0x0000000000038eb0                access_default_ttl_get
 .text.access_model_publish_ttl_set
                0x0000000000038ebc       0x40 CMakeFiles/light_switch_proxy_client_nrf52840_xxAA_s140_6.0.0.dir/__/__/__/mesh/access/src/access.c.obj
                0x0000000000038ebc                access_model_publish_ttl_set
 .text.access_model_publish_ttl_get
                0x0000000000038efc       0x2c CMakeFiles/light_switch_proxy_client_nrf52840_xxAA_s140_6.0.0.dir/__/__/__/mesh/access/src/access.c.obj
                0x0000000000038efc                access_model_publish_ttl_get
 .text.access_element_location_get
                0x0000000000038f28       0x24 CMakeFiles/light_switch_proxy_client_nrf52840_xxAA_s140_6.0.0.dir/__/__/__/mesh/access/src/access.c.obj
                0x0000000000038f28                access_element_location_get
 .text.access_element_sig_model_count_get
                0x0000000000038f4c       0x24 CMakeFiles/light_switch_proxy_client_nrf52840_xxAA_s140_6.0.0.dir/__/__/__/mesh/access/src/access.c.obj
                0x0000000000038f4c                access_element_sig_model_count_get
 .text.access_element_vendor_model_count_get
                0x0000000000038f70       0x24 CMakeFiles/light_switch_proxy_client_nrf52840_xxAA_s140_6.0.0.dir/__/__/__/mesh/access/src/access.c.obj
                0x0000000000038f70                access_element_vendor_model_count_get
 .text.access_model_id_get
                0x0000000000038f94       0x40 CMakeFiles/light_switch_proxy_client_nrf52840_xxAA_s140_6.0.0.dir/__/__/__/mesh/access/src/access.c.obj
                0x0000000000038f94                access_model_id_get
 .text.access_handle_get
                0x0000000000038fd4       0xd8 CMakeFiles/light_switch_proxy_client_nrf52840_xxAA_s140_6.0.0.dir/__/__/__/mesh/access/src/access.c.obj
                0x0000000000038fd4                access_handle_get
 .text.access_element_models_get
                0x00000000000390ac       0xf8 CMakeFiles/light_switch_proxy_client_nrf52840_xxAA_s140_6.0.0.dir/__/__/__/mesh/access/src/access.c.obj
                0x00000000000390ac                access_element_models_get
 .text.access_model_p_args_get
                0x00000000000391a4       0x2c CMakeFiles/light_switch_proxy_client_nrf52840_xxAA_s140_6.0.0.dir/__/__/__/mesh/access/src/access.c.obj
                0x00000000000391a4                access_model_p_args_get
 .text.access_model_publication_stop
                0x00000000000391d0       0x5c CMakeFiles/light_switch_proxy_client_nrf52840_xxAA_s140_6.0.0.dir/__/__/__/mesh/access/src/access.c.obj
                0x00000000000391d0                access_model_publication_stop
 .text.access_model_publication_by_appkey_stop
                0x000000000003922c      0x1b8 CMakeFiles/light_switch_proxy_client_nrf52840_xxAA_s140_6.0.0.dir/__/__/__/mesh/access/src/access.c.obj
                0x000000000003922c                access_model_publication_by_appkey_stop
 .text.remove_and_reschedule
                0x00000000000393e4      0x12c CMakeFiles/light_switch_proxy_client_nrf52840_xxAA_s140_6.0.0.dir/__/__/__/mesh/access/src/access_reliable.c.obj
 .text.reliable_timer_cb
                0x0000000000039510      0x128 CMakeFiles/light_switch_proxy_client_nrf52840_xxAA_s140_6.0.0.dir/__/__/__/mesh/access/src/access_reliable.c.obj
 .text.access_reliable_message_rx_cb
                0x0000000000039638       0xb4 CMakeFiles/light_switch_proxy_client_nrf52840_xxAA_s140_6.0.0.dir/__/__/__/mesh/access/src/access_reliable.c.obj
                0x0000000000039638                access_reliable_message_rx_cb
 .text.access_reliable_init
                0x00000000000396ec       0x20 CMakeFiles/light_switch_proxy_client_nrf52840_xxAA_s140_6.0.0.dir/__/__/__/mesh/access/src/access_reliable.c.obj
                0x00000000000396ec                access_reliable_init
 .text.access_reliable_cancel_all
                0x000000000003970c      0x1b4 CMakeFiles/light_switch_proxy_client_nrf52840_xxAA_s140_6.0.0.dir/__/__/__/mesh/access/src/access_reliable.c.obj
                0x000000000003970c                access_reliable_cancel_all
 .text.access_model_reliable_cancel
                0x00000000000398c0       0xbc CMakeFiles/light_switch_proxy_client_nrf52840_xxAA_s140_6.0.0.dir/__/__/__/mesh/access/src/access_reliable.c.obj
                0x00000000000398c0                access_model_reliable_cancel
 .text.access_model_reliable_publish
                0x000000000003997c      0x2c4 CMakeFiles/light_switch_proxy_client_nrf52840_xxAA_s140_6.0.0.dir/__/__/__/mesh/access/src/access_reliable.c.obj
                0x000000000003997c                access_model_reliable_publish
 .text.dsm_flash_config_load
                0x0000000000039c40        0x4 CMakeFiles/light_switch_proxy_client_nrf52840_xxAA_s140_6.0.0.dir/__/__/__/mesh/access/src/device_state_manager.c.obj
                0x0000000000039c40                dsm_flash_config_load
 .text.dsm_clear
                0x0000000000039c44       0x88 CMakeFiles/light_switch_proxy_client_nrf52840_xxAA_s140_6.0.0.dir/__/__/__/mesh/access/src/device_state_manager.c.obj
                0x0000000000039c44                dsm_clear
 .text.dsm_init
                0x0000000000039ccc       0x14 CMakeFiles/light_switch_proxy_client_nrf52840_xxAA_s140_6.0.0.dir/__/__/__/mesh/access/src/device_state_manager.c.obj
                0x0000000000039ccc                dsm_init
 .text.dsm_local_unicast_addresses_set
                0x0000000000039ce0       0x70 CMakeFiles/light_switch_proxy_client_nrf52840_xxAA_s140_6.0.0.dir/__/__/__/mesh/access/src/device_state_manager.c.obj
                0x0000000000039ce0                dsm_local_unicast_addresses_set
 .text.dsm_local_unicast_addresses_get
                0x0000000000039d50       0x20 CMakeFiles/light_switch_proxy_client_nrf52840_xxAA_s140_6.0.0.dir/__/__/__/mesh/access/src/device_state_manager.c.obj
                0x0000000000039d50                dsm_local_unicast_addresses_get
 .text.dsm_address_publish_add
                0x0000000000039d70      0x134 CMakeFiles/light_switch_proxy_client_nrf52840_xxAA_s140_6.0.0.dir/__/__/__/mesh/access/src/device_state_manager.c.obj
                0x0000000000039d70                dsm_address_publish_add
 .text.dsm_address_publish_virtual_add
                0x0000000000039ea4       0x78 CMakeFiles/light_switch_proxy_client_nrf52840_xxAA_s140_6.0.0.dir/__/__/__/mesh/access/src/device_state_manager.c.obj
                0x0000000000039ea4                dsm_address_publish_virtual_add
 .text.dsm_address_publish_remove
                0x0000000000039f1c       0x78 CMakeFiles/light_switch_proxy_client_nrf52840_xxAA_s140_6.0.0.dir/__/__/__/mesh/access/src/device_state_manager.c.obj
                0x0000000000039f1c                dsm_address_publish_remove
 .text.dsm_address_subscription_add
                0x0000000000039f94      0x150 CMakeFiles/light_switch_proxy_client_nrf52840_xxAA_s140_6.0.0.dir/__/__/__/mesh/access/src/device_state_manager.c.obj
                0x0000000000039f94                dsm_address_subscription_add
 .text.dsm_address_subscription_virtual_add
                0x000000000003a0e4       0x78 CMakeFiles/light_switch_proxy_client_nrf52840_xxAA_s140_6.0.0.dir/__/__/__/mesh/access/src/device_state_manager.c.obj
                0x000000000003a0e4                dsm_address_subscription_virtual_add
 .text.dsm_address_subscription_get
                0x000000000003a15c       0x50 CMakeFiles/light_switch_proxy_client_nrf52840_xxAA_s140_6.0.0.dir/__/__/__/mesh/access/src/device_state_manager.c.obj
                0x000000000003a15c                dsm_address_subscription_get
 .text.dsm_address_subscription_remove
                0x000000000003a1ac       0xd8 CMakeFiles/light_switch_proxy_client_nrf52840_xxAA_s140_6.0.0.dir/__/__/__/mesh/access/src/device_state_manager.c.obj
                0x000000000003a1ac                dsm_address_subscription_remove
 .text.dsm_address_get
                0x000000000003a284       0x68 CMakeFiles/light_switch_proxy_client_nrf52840_xxAA_s140_6.0.0.dir/__/__/__/mesh/access/src/device_state_manager.c.obj
                0x000000000003a284                dsm_address_get
 .text.dsm_address_handle_get
                0x000000000003a2ec      0x150 CMakeFiles/light_switch_proxy_client_nrf52840_xxAA_s140_6.0.0.dir/__/__/__/mesh/access/src/device_state_manager.c.obj
                0x000000000003a2ec                dsm_address_handle_get
 .text.dsm_net_key_index_to_subnet_handle
                0x000000000003a43c       0x28 CMakeFiles/light_switch_proxy_client_nrf52840_xxAA_s140_6.0.0.dir/__/__/__/mesh/access/src/device_state_manager.c.obj
                0x000000000003a43c                dsm_net_key_index_to_subnet_handle
 .text.dsm_subnet_handle_get
                0x000000000003a464       0x3c CMakeFiles/light_switch_proxy_client_nrf52840_xxAA_s140_6.0.0.dir/__/__/__/mesh/access/src/device_state_manager.c.obj
                0x000000000003a464                dsm_subnet_handle_get
 .text.dsm_appkey_index_to_appkey_handle
                0x000000000003a4a0       0x28 CMakeFiles/light_switch_proxy_client_nrf52840_xxAA_s140_6.0.0.dir/__/__/__/mesh/access/src/device_state_manager.c.obj
                0x000000000003a4a0                dsm_appkey_index_to_appkey_handle
 .text.dsm_appkey_handle_get
                0x000000000003a4c8       0x2c CMakeFiles/light_switch_proxy_client_nrf52840_xxAA_s140_6.0.0.dir/__/__/__/mesh/access/src/device_state_manager.c.obj
                0x000000000003a4c8                dsm_appkey_handle_get
 .text.dsm_appkey_handle_to_appkey_index
                0x000000000003a4f4       0x24 CMakeFiles/light_switch_proxy_client_nrf52840_xxAA_s140_6.0.0.dir/__/__/__/mesh/access/src/device_state_manager.c.obj
                0x000000000003a4f4                dsm_appkey_handle_to_appkey_index
 .text.dsm_appkey_handle_to_subnet_handle
                0x000000000003a518       0x78 CMakeFiles/light_switch_proxy_client_nrf52840_xxAA_s140_6.0.0.dir/__/__/__/mesh/access/src/device_state_manager.c.obj
                0x000000000003a518                dsm_appkey_handle_to_subnet_handle
 .text.dsm_subnet_add
                0x000000000003a590      0x10c CMakeFiles/light_switch_proxy_client_nrf52840_xxAA_s140_6.0.0.dir/__/__/__/mesh/access/src/device_state_manager.c.obj
                0x000000000003a590                dsm_subnet_add
 .text.dsm_subnet_kr_phase_get
                0x000000000003a69c       0x20 CMakeFiles/light_switch_proxy_client_nrf52840_xxAA_s140_6.0.0.dir/__/__/__/mesh/access/src/device_state_manager.c.obj
                0x000000000003a69c                dsm_subnet_kr_phase_get
 .text.dsm_subnet_update
                0x000000000003a6bc       0xb4 CMakeFiles/light_switch_proxy_client_nrf52840_xxAA_s140_6.0.0.dir/__/__/__/mesh/access/src/device_state_manager.c.obj
                0x000000000003a6bc                dsm_subnet_update
 .text.dsm_subnet_update_swap_keys
                0x000000000003a770       0x4c CMakeFiles/light_switch_proxy_client_nrf52840_xxAA_s140_6.0.0.dir/__/__/__/mesh/access/src/device_state_manager.c.obj
                0x000000000003a770                dsm_subnet_update_swap_keys
 .text.dsm_subnet_update_commit
                0x000000000003a7bc       0xb0 CMakeFiles/light_switch_proxy_client_nrf52840_xxAA_s140_6.0.0.dir/__/__/__/mesh/access/src/device_state_manager.c.obj
                0x000000000003a7bc                dsm_subnet_update_commit
 .text.mesh_evt_handler
                0x000000000003a86c       0x74 CMakeFiles/light_switch_proxy_client_nrf52840_xxAA_s140_6.0.0.dir/__/__/__/mesh/access/src/device_state_manager.c.obj
 .text.dsm_subnet_delete
                0x000000000003a8e0       0x78 CMakeFiles/light_switch_proxy_client_nrf52840_xxAA_s140_6.0.0.dir/__/__/__/mesh/access/src/device_state_manager.c.obj
                0x000000000003a8e0                dsm_subnet_delete
 .text.dsm_subnet_get_all
                0x000000000003a958       0x40 CMakeFiles/light_switch_proxy_client_nrf52840_xxAA_s140_6.0.0.dir/__/__/__/mesh/access/src/device_state_manager.c.obj
                0x000000000003a958                dsm_subnet_get_all
 .text.dsm_devkey_add
                0x000000000003a998       0xa0 CMakeFiles/light_switch_proxy_client_nrf52840_xxAA_s140_6.0.0.dir/__/__/__/mesh/access/src/device_state_manager.c.obj
                0x000000000003a998                dsm_devkey_add
 .text.dsm_appkey_add
                0x000000000003aa38       0xc4 CMakeFiles/light_switch_proxy_client_nrf52840_xxAA_s140_6.0.0.dir/__/__/__/mesh/access/src/device_state_manager.c.obj
                0x000000000003aa38                dsm_appkey_add
 .text.dsm_appkey_update
                0x000000000003aafc       0x8c CMakeFiles/light_switch_proxy_client_nrf52840_xxAA_s140_6.0.0.dir/__/__/__/mesh/access/src/device_state_manager.c.obj
                0x000000000003aafc                dsm_appkey_update
 .text.dsm_appkey_delete
                0x000000000003ab88       0x1c CMakeFiles/light_switch_proxy_client_nrf52840_xxAA_s140_6.0.0.dir/__/__/__/mesh/access/src/device_state_manager.c.obj
                0x000000000003ab88                dsm_appkey_delete
 .text.dsm_appkey_get_all
                0x000000000003aba4       0x58 CMakeFiles/light_switch_proxy_client_nrf52840_xxAA_s140_6.0.0.dir/__/__/__/mesh/access/src/device_state_manager.c.obj
                0x000000000003aba4                dsm_appkey_get_all
 .text.dsm_tx_secmat_get
                0x000000000003abfc       0xa4 CMakeFiles/light_switch_proxy_client_nrf52840_xxAA_s140_6.0.0.dir/__/__/__/mesh/access/src/device_state_manager.c.obj
                0x000000000003abfc                dsm_tx_secmat_get
 .text.dsm_beacon_info_get
                0x000000000003aca0       0x24 CMakeFiles/light_switch_proxy_client_nrf52840_xxAA_s140_6.0.0.dir/__/__/__/mesh/access/src/device_state_manager.c.obj
                0x000000000003aca0                dsm_beacon_info_get
 .text.dsm_net_secmat_from_keyindex_get
                0x000000000003acc4       0x30 CMakeFiles/light_switch_proxy_client_nrf52840_xxAA_s140_6.0.0.dir/__/__/__/mesh/access/src/device_state_manager.c.obj
                0x000000000003acc4                dsm_net_secmat_from_keyindex_get
 .text.nrf_mesh_net_secmat_next_get
                0x000000000003acf4       0x80 CMakeFiles/light_switch_proxy_client_nrf52840_xxAA_s140_6.0.0.dir/__/__/__/mesh/access/src/device_state_manager.c.obj
                0x000000000003acf4                nrf_mesh_net_secmat_next_get
 .text.nrf_mesh_app_secmat_next_get
                0x000000000003ad74       0x80 CMakeFiles/light_switch_proxy_client_nrf52840_xxAA_s140_6.0.0.dir/__/__/__/mesh/access/src/device_state_manager.c.obj
                0x000000000003ad74                nrf_mesh_app_secmat_next_get
 .text.nrf_mesh_devkey_secmat_get
                0x000000000003adf4       0x30 CMakeFiles/light_switch_proxy_client_nrf52840_xxAA_s140_6.0.0.dir/__/__/__/mesh/access/src/device_state_manager.c.obj
                0x000000000003adf4                nrf_mesh_devkey_secmat_get
 .text.nrf_mesh_beacon_info_next_get
                0x000000000003ae24       0xb0 CMakeFiles/light_switch_proxy_client_nrf52840_xxAA_s140_6.0.0.dir/__/__/__/mesh/access/src/device_state_manager.c.obj
                0x000000000003ae24                nrf_mesh_beacon_info_next_get
 .text.nrf_mesh_rx_address_get
                0x000000000003aed4      0x178 CMakeFiles/light_switch_proxy_client_nrf52840_xxAA_s140_6.0.0.dir/__/__/__/mesh/access/src/device_state_manager.c.obj
                0x000000000003aed4                nrf_mesh_rx_address_get
 .text.nrf_mesh_unicast_address_get
                0x000000000003b04c       0x24 CMakeFiles/light_switch_proxy_client_nrf52840_xxAA_s140_6.0.0.dir/__/__/__/mesh/access/src/device_state_manager.c.obj
                0x000000000003b04c                nrf_mesh_unicast_address_get
 .text.prov_provisionee_cb_link_established
                0x000000000003b070       0x40 CMakeFiles/light_switch_proxy_client_nrf52840_xxAA_s140_6.0.0.dir/__/__/__/mesh/prov/src/prov_provisionee.c.obj
 .text.prov_provisionee_cb_link_closed
                0x000000000003b0b0       0x50 CMakeFiles/light_switch_proxy_client_nrf52840_xxAA_s140_6.0.0.dir/__/__/__/mesh/prov/src/prov_provisionee.c.obj
 .text.request_authentication
                0x000000000003b100       0x90 CMakeFiles/light_switch_proxy_client_nrf52840_xxAA_s140_6.0.0.dir/__/__/__/mesh/prov/src/prov_provisionee.c.obj
 .text.send_failed
                0x000000000003b190       0x38 CMakeFiles/light_switch_proxy_client_nrf52840_xxAA_s140_6.0.0.dir/__/__/__/mesh/prov/src/prov_provisionee.c.obj
 .text.prov_provisionee_cb_ack_received
                0x000000000003b1c8      0x174 CMakeFiles/light_switch_proxy_client_nrf52840_xxAA_s140_6.0.0.dir/__/__/__/mesh/prov/src/prov_provisionee.c.obj
 .text.prov_provisionee_pkt_in
                0x000000000003b33c      0x428 CMakeFiles/light_switch_proxy_client_nrf52840_xxAA_s140_6.0.0.dir/__/__/__/mesh/prov/src/prov_provisionee.c.obj
 .text.prov_provisionee_listen
                0x000000000003b764       0x34 CMakeFiles/light_switch_proxy_client_nrf52840_xxAA_s140_6.0.0.dir/__/__/__/mesh/prov/src/prov_provisionee.c.obj
                0x000000000003b764                prov_provisionee_listen
 .text.prov_provisionee_auth_data
                0x000000000003b798      0x100 CMakeFiles/light_switch_proxy_client_nrf52840_xxAA_s140_6.0.0.dir/__/__/__/mesh/prov/src/prov_provisionee.c.obj
                0x000000000003b798                prov_provisionee_auth_data
 .text.bearer_compare_callback
                0x000000000003b898       0x10 CMakeFiles/light_switch_proxy_client_nrf52840_xxAA_s140_6.0.0.dir/__/__/__/mesh/prov/src/nrf_mesh_prov.c.obj
 .text.nrf_mesh_prov_init
                0x000000000003b8a8       0x3c CMakeFiles/light_switch_proxy_client_nrf52840_xxAA_s140_6.0.0.dir/__/__/__/mesh/prov/src/nrf_mesh_prov.c.obj
                0x000000000003b8a8                nrf_mesh_prov_init
 .text.nrf_mesh_prov_bearer_add
                0x000000000003b8e4       0x2c CMakeFiles/light_switch_proxy_client_nrf52840_xxAA_s140_6.0.0.dir/__/__/__/mesh/prov/src/nrf_mesh_prov.c.obj
                0x000000000003b8e4                nrf_mesh_prov_bearer_add
 .text.nrf_mesh_prov_generate_keys
                0x000000000003b910        0x4 CMakeFiles/light_switch_proxy_client_nrf52840_xxAA_s140_6.0.0.dir/__/__/__/mesh/prov/src/nrf_mesh_prov.c.obj
                0x000000000003b910                nrf_mesh_prov_generate_keys
 .text.nrf_mesh_prov_listen
                0x000000000003b914       0xf0 CMakeFiles/light_switch_proxy_client_nrf52840_xxAA_s140_6.0.0.dir/__/__/__/mesh/prov/src/nrf_mesh_prov.c.obj
                0x000000000003b914                nrf_mesh_prov_listen
 .text.nrf_mesh_prov_auth_data_provide
                0x000000000003ba04       0x10 CMakeFiles/light_switch_proxy_client_nrf52840_xxAA_s140_6.0.0.dir/__/__/__/mesh/prov/src/nrf_mesh_prov.c.obj
                0x000000000003ba04                nrf_mesh_prov_auth_data_provide
 .text.prov_packet_length_valid
                0x000000000003ba14       0x20 CMakeFiles/light_switch_proxy_client_nrf52840_xxAA_s140_6.0.0.dir/__/__/__/mesh/prov/src/provisioning.c.obj
                0x000000000003ba14                prov_packet_length_valid
 .text.prov_tx_capabilities
                0x000000000003ba34       0x38 CMakeFiles/light_switch_proxy_client_nrf52840_xxAA_s140_6.0.0.dir/__/__/__/mesh/prov/src/provisioning.c.obj
                0x000000000003ba34                prov_tx_capabilities
 .text.prov_tx_public_key
                0x000000000003ba6c       0x30 CMakeFiles/light_switch_proxy_client_nrf52840_xxAA_s140_6.0.0.dir/__/__/__/mesh/prov/src/provisioning.c.obj
                0x000000000003ba6c                prov_tx_public_key
 .text.prov_tx_input_complete
                0x000000000003ba9c       0x28 CMakeFiles/light_switch_proxy_client_nrf52840_xxAA_s140_6.0.0.dir/__/__/__/mesh/prov/src/provisioning.c.obj
                0x000000000003ba9c                prov_tx_input_complete
 .text.prov_tx_confirmation
                0x000000000003bac4       0x30 CMakeFiles/light_switch_proxy_client_nrf52840_xxAA_s140_6.0.0.dir/__/__/__/mesh/prov/src/provisioning.c.obj
                0x000000000003bac4                prov_tx_confirmation
 .text.prov_tx_random
                0x000000000003baf4       0x30 CMakeFiles/light_switch_proxy_client_nrf52840_xxAA_s140_6.0.0.dir/__/__/__/mesh/prov/src/provisioning.c.obj
                0x000000000003baf4                prov_tx_random
 .text.prov_tx_complete
                0x000000000003bb24       0x28 CMakeFiles/light_switch_proxy_client_nrf52840_xxAA_s140_6.0.0.dir/__/__/__/mesh/prov/src/provisioning.c.obj
                0x000000000003bb24                prov_tx_complete
 .text.prov_tx_failed
                0x000000000003bb4c       0x2c CMakeFiles/light_switch_proxy_client_nrf52840_xxAA_s140_6.0.0.dir/__/__/__/mesh/prov/src/provisioning.c.obj
                0x000000000003bb4c                prov_tx_failed
 .text.prov_beacon_unprov_build
                0x000000000003bb78       0x54 CMakeFiles/light_switch_proxy_client_nrf52840_xxAA_s140_6.0.0.dir/__/__/__/mesh/prov/src/prov_beacon.c.obj
                0x000000000003bb78                prov_beacon_unprov_build
 .text.prov_beacon_unprov_packet_in
                0x000000000003bbcc       0xd0 CMakeFiles/light_switch_proxy_client_nrf52840_xxAA_s140_6.0.0.dir/__/__/__/mesh/prov/src/prov_beacon.c.obj
                0x000000000003bbcc                prov_beacon_unprov_packet_in
 .text.prov_utils_opt_set
                0x000000000003bc9c       0x24 CMakeFiles/light_switch_proxy_client_nrf52840_xxAA_s140_6.0.0.dir/__/__/__/mesh/prov/src/prov_utils.c.obj
                0x000000000003bc9c                prov_utils_opt_set
 .text.prov_utils_opt_get
                0x000000000003bcc0       0x1c CMakeFiles/light_switch_proxy_client_nrf52840_xxAA_s140_6.0.0.dir/__/__/__/mesh/prov/src/prov_utils.c.obj
                0x000000000003bcc0                prov_utils_opt_get
 .text.prov_utils_use_ecdh_offloading
                0x000000000003bcdc        0xc CMakeFiles/light_switch_proxy_client_nrf52840_xxAA_s140_6.0.0.dir/__/__/__/mesh/prov/src/prov_utils.c.obj
                0x000000000003bcdc                prov_utils_use_ecdh_offloading
 .text.prov_utils_authentication_values_derive
                0x000000000003bce8       0xac CMakeFiles/light_switch_proxy_client_nrf52840_xxAA_s140_6.0.0.dir/__/__/__/mesh/prov/src/prov_utils.c.obj
                0x000000000003bce8                prov_utils_authentication_values_derive
 .text.prov_utils_keys_generate
                0x000000000003bd94       0x20 CMakeFiles/light_switch_proxy_client_nrf52840_xxAA_s140_6.0.0.dir/__/__/__/mesh/prov/src/prov_utils.c.obj
                0x000000000003bd94                prov_utils_keys_generate
 .text.prov_utils_derive_keys
                0x000000000003bdb4       0xb4 CMakeFiles/light_switch_proxy_client_nrf52840_xxAA_s140_6.0.0.dir/__/__/__/mesh/prov/src/prov_utils.c.obj
                0x000000000003bdb4                prov_utils_derive_keys
 .text.prov_utils_calculate_shared_secret
                0x000000000003be68       0x34 CMakeFiles/light_switch_proxy_client_nrf52840_xxAA_s140_6.0.0.dir/__/__/__/mesh/prov/src/prov_utils.c.obj
                0x000000000003be68                prov_utils_calculate_shared_secret
 .text.prov_utils_generate_oob_data
                0x000000000003be9c      0x1b8 CMakeFiles/light_switch_proxy_client_nrf52840_xxAA_s140_6.0.0.dir/__/__/__/mesh/prov/src/prov_utils.c.obj
                0x000000000003be9c                prov_utils_generate_oob_data
 .text.prov_utils_confirmation_check
                0x000000000003c054       0x5c CMakeFiles/light_switch_proxy_client_nrf52840_xxAA_s140_6.0.0.dir/__/__/__/mesh/prov/src/prov_utils.c.obj
                0x000000000003c054                prov_utils_confirmation_check
 .text.link_timeout_cb
                0x000000000003c0b0       0x10 CMakeFiles/light_switch_proxy_client_nrf52840_xxAA_s140_6.0.0.dir/__/__/__/mesh/prov/src/prov_bearer_adv.c.obj
 .text.prov_bearer_adv_listen_stop
                0x000000000003c0c0       0x98 CMakeFiles/light_switch_proxy_client_nrf52840_xxAA_s140_6.0.0.dir/__/__/__/mesh/prov/src/prov_bearer_adv.c.obj
 .text.tx_complete_cb
                0x000000000003c158       0x20 CMakeFiles/light_switch_proxy_client_nrf52840_xxAA_s140_6.0.0.dir/__/__/__/mesh/prov/src/prov_bearer_adv.c.obj
 .text.prov_bearer_adv_listen
                0x000000000003c178      0x15c CMakeFiles/light_switch_proxy_client_nrf52840_xxAA_s140_6.0.0.dir/__/__/__/mesh/prov/src/prov_bearer_adv.c.obj
 .text.close_link
                0x000000000003c2d4       0xd8 CMakeFiles/light_switch_proxy_client_nrf52840_xxAA_s140_6.0.0.dir/__/__/__/mesh/prov/src/prov_bearer_adv.c.obj
 .text.send_link_ack
                0x000000000003c3ac       0x70 CMakeFiles/light_switch_proxy_client_nrf52840_xxAA_s140_6.0.0.dir/__/__/__/mesh/prov/src/prov_bearer_adv.c.obj
 .text.send_transaction_ack
                0x000000000003c41c       0x68 CMakeFiles/light_switch_proxy_client_nrf52840_xxAA_s140_6.0.0.dir/__/__/__/mesh/prov/src/prov_bearer_adv.c.obj
 .text.prov_buffer_rx
                0x000000000003c484       0xa0 CMakeFiles/light_switch_proxy_client_nrf52840_xxAA_s140_6.0.0.dir/__/__/__/mesh/prov/src/prov_bearer_adv.c.obj
 .text.prov_bearer_adv_link_open
                0x000000000003c524      0x1b8 CMakeFiles/light_switch_proxy_client_nrf52840_xxAA_s140_6.0.0.dir/__/__/__/mesh/prov/src/prov_bearer_adv.c.obj
 .text.prov_bearer_adv_link_close
                0x000000000003c6dc       0xcc CMakeFiles/light_switch_proxy_client_nrf52840_xxAA_s140_6.0.0.dir/__/__/__/mesh/prov/src/prov_bearer_adv.c.obj
 .text.prov_buffer_tx
                0x000000000003c7a8      0x1e4 CMakeFiles/light_switch_proxy_client_nrf52840_xxAA_s140_6.0.0.dir/__/__/__/mesh/prov/src/prov_bearer_adv.c.obj
 .text.tx_retry_cb
                0x000000000003c98c      0x130 CMakeFiles/light_switch_proxy_client_nrf52840_xxAA_s140_6.0.0.dir/__/__/__/mesh/prov/src/prov_bearer_adv.c.obj
 .text.prov_bearer_adv_tx
                0x000000000003cabc       0xe8 CMakeFiles/light_switch_proxy_client_nrf52840_xxAA_s140_6.0.0.dir/__/__/__/mesh/prov/src/prov_bearer_adv.c.obj
 .text.async_process
                0x000000000003cba4      0x118 CMakeFiles/light_switch_proxy_client_nrf52840_xxAA_s140_6.0.0.dir/__/__/__/mesh/prov/src/prov_bearer_adv.c.obj
 .text.nrf_mesh_prov_bearer_adv_interface_get
                0x000000000003ccbc       0x40 CMakeFiles/light_switch_proxy_client_nrf52840_xxAA_s140_6.0.0.dir/__/__/__/mesh/prov/src/prov_bearer_adv.c.obj
                0x000000000003ccbc                nrf_mesh_prov_bearer_adv_interface_get
 .text.prov_bearer_adv_packet_in
                0x000000000003ccfc      0x914 CMakeFiles/light_switch_proxy_client_nrf52840_xxAA_s140_6.0.0.dir/__/__/__/mesh/prov/src/prov_bearer_adv.c.obj
                0x000000000003ccfc                prov_bearer_adv_packet_in
 .text.SystemInit
                0x000000000003d610      0x1c4 CMakeFiles/light_switch_proxy_client_nrf52840_xxAA_s140_6.0.0.dir/home/mazzer/work/nordic/sdk/nRF5_SDK_15.0.0/modules/nrfx/mdk/system_nrf52840.c.obj
                0x000000000003d610                SystemInit
 .text          0x000000000003d7d4       0x3c CMakeFiles/light_switch_proxy_client_nrf52840_xxAA_s140_6.0.0.dir/home/mazzer/work/nordic/sdk/nRF5_SDK_15.0.0/modules/nrfx/mdk/gcc_startup_nrf52840.S.obj
                0x000000000003d7d4                Reset_Handler
                0x000000000003d7fc                NMI_Handler
                0x000000000003d7fe                HardFault_Handler
                0x000000000003d800                MemoryManagement_Handler
                0x000000000003d802                BusFault_Handler
                0x000000000003d804                UsageFault_Handler
                0x000000000003d806                SVC_Handler
                0x000000000003d808                DebugMon_Handler
                0x000000000003d80a                PendSV_Handler
                0x000000000003d80c                SysTick_Handler
                0x000000000003d80e                RTC0_IRQHandler
                0x000000000003d80e                SWI0_EGU0_IRQHandler
                0x000000000003d80e                PWM1_IRQHandler
                0x000000000003d80e                POWER_CLOCK_IRQHandler
                0x000000000003d80e                RADIO_IRQHandler
                0x000000000003d80e                PDM_IRQHandler
                0x000000000003d80e                TEMP_IRQHandler
                0x000000000003d80e                TIMER3_IRQHandler
                0x000000000003d80e                PWM3_IRQHandler
                0x000000000003d80e                FPU_IRQHandler
                0x000000000003d80e                USBD_IRQHandler
                0x000000000003d80e                SPIM0_SPIS0_TWIM0_TWIS0_SPI0_TWI0_IRQHandler
                0x000000000003d80e                UARTE0_UART0_IRQHandler
                0x000000000003d80e                TIMER4_IRQHandler
                0x000000000003d80e                CRYPTOCELL_IRQHandler
                0x000000000003d80e                I2S_IRQHandler
                0x000000000003d80e                SWI4_EGU4_IRQHandler
                0x000000000003d80e                TIMER0_IRQHandler
                0x000000000003d80e                UARTE1_IRQHandler
                0x000000000003d80e                TIMER1_IRQHandler
                0x000000000003d80e                SPIM3_IRQHandler
                0x000000000003d80e                PWM2_IRQHandler
                0x000000000003d80e                ECB_IRQHandler
                0x000000000003d80e                SPIM1_SPIS1_TWIM1_TWIS1_SPI1_TWI1_IRQHandler
                0x000000000003d80e                Default_Handler
                0x000000000003d80e                SAADC_IRQHandler
                0x000000000003d80e                CCM_AAR_IRQHandler
                0x000000000003d80e                WDT_IRQHandler
                0x000000000003d80e                SWI5_EGU5_IRQHandler
                0x000000000003d80e                RNG_IRQHandler
                0x000000000003d80e                RTC2_IRQHandler
                0x000000000003d80e                PWM0_IRQHandler
                0x000000000003d80e                SWI3_EGU3_IRQHandler
                0x000000000003d80e                RTC1_IRQHandler
                0x000000000003d80e                SWI1_EGU1_IRQHandler
                0x000000000003d80e                SPIM2_SPIS2_SPI2_IRQHandler
                0x000000000003d80e                NFCT_IRQHandler
                0x000000000003d80e                MWU_IRQHandler
                0x000000000003d80e                QSPI_IRQHandler
                0x000000000003d80e                COMP_LPCOMP_IRQHandler
 .text.app_error_handler
                0x000000000003d810       0x1c CMakeFiles/light_switch_proxy_client_nrf52840_xxAA_s140_6.0.0.dir/home/mazzer/work/nordic/sdk/nRF5_SDK_15.0.0/components/libraries/util/app_error_handler_gcc.c.obj
                0x000000000003d810                app_error_handler
 .text.SEGGER_RTT_Write
                0x000000000003d82c      0x1f4 ../../../external/rtt/librtt_nrf52840_xxAA.a(SEGGER_RTT.c.obj)
                0x000000000003d82c                SEGGER_RTT_Write
 .text.SEGGER_RTT_GetKey
                0x000000000003da20       0xf8 ../../../external/rtt/librtt_nrf52840_xxAA.a(SEGGER_RTT.c.obj)
                0x000000000003da20                SEGGER_RTT_GetKey
 .text._PrintUnsigned
                0x000000000003db18      0x17c ../../../external/rtt/librtt_nrf52840_xxAA.a(SEGGER_RTT_printf.c.obj)
 .text.SEGGER_RTT_vprintf
                0x000000000003dc94      0x524 ../../../external/rtt/librtt_nrf52840_xxAA.a(SEGGER_RTT_printf.c.obj)
                0x000000000003dc94                SEGGER_RTT_vprintf
 .text.SEGGER_RTT_printf
                0x000000000003e1b8       0x20 ../../../external/rtt/librtt_nrf52840_xxAA.a(SEGGER_RTT_printf.c.obj)
                0x000000000003e1b8                SEGGER_RTT_printf
 .text.default_RNG
                0x000000000003e1d8        0xc ../../../external/micro-ecc/libuECC_nrf52840_xxAA.a(uECC.c.obj)
 .text.uECC_generate_random_int
                0x000000000003e1e4      0x17c ../../../external/micro-ecc/libuECC_nrf52840_xxAA.a(uECC.c.obj)
 .text.apply_z  0x000000000003e360      0x1a8 ../../../external/micro-ecc/libuECC_nrf52840_xxAA.a(uECC.c.obj)
 .text.uECC_vli_modAdd
                0x000000000003e508       0xd8 ../../../external/micro-ecc/libuECC_nrf52840_xxAA.a(uECC.c.obj)
 .text.x_side_default
                0x000000000003e5e0      0x26c ../../../external/micro-ecc/libuECC_nrf52840_xxAA.a(uECC.c.obj)
 .text.vli_mmod_fast_secp256r1
                0x000000000003e84c      0x514 ../../../external/micro-ecc/libuECC_nrf52840_xxAA.a(uECC.c.obj)
 .text.XYcZ_add
                0x000000000003ed60      0x6e0 ../../../external/micro-ecc/libuECC_nrf52840_xxAA.a(uECC.c.obj)
 .text.XYcZ_addC
                0x000000000003f440      0xabc ../../../external/micro-ecc/libuECC_nrf52840_xxAA.a(uECC.c.obj)
 .text.uECC_vli_modInv.part.4
                0x000000000003fefc      0x71c ../../../external/micro-ecc/libuECC_nrf52840_xxAA.a(uECC.c.obj)
 .text.EccPoint_mult
                0x0000000000040618      0x4a4 ../../../external/micro-ecc/libuECC_nrf52840_xxAA.a(uECC.c.obj)
 .text.double_jacobian_default
                0x0000000000040abc      0x814 ../../../external/micro-ecc/libuECC_nrf52840_xxAA.a(uECC.c.obj)
 .text.uECC_secp256r1
                0x00000000000412d0        0x8 ../../../external/micro-ecc/libuECC_nrf52840_xxAA.a(uECC.c.obj)
                0x00000000000412d0                uECC_secp256r1
 .text.uECC_make_key
                0x00000000000412d8      0x240 ../../../external/micro-ecc/libuECC_nrf52840_xxAA.a(uECC.c.obj)
                0x00000000000412d8                uECC_make_key
 .text.uECC_shared_secret
                0x0000000000041518      0x314 ../../../external/micro-ecc/libuECC_nrf52840_xxAA.a(uECC.c.obj)
                0x0000000000041518                uECC_shared_secret
 .text.uECC_valid_public_key
                0x000000000004182c      0x230 ../../../external/micro-ecc/libuECC_nrf52840_xxAA.a(uECC.c.obj)
                0x000000000004182c                uECC_valid_public_key
 .text          0x0000000000041a5c       0x30 /usr/bin/../lib/gcc/arm-none-eabi/7.2.1/thumb/v7e-m/fpv4-sp/hard/libgcc.a(_aeabi_uldivmod.o)
                0x0000000000041a5c                __aeabi_uldivmod
 .text          0x0000000000041a8c      0x2cc /usr/bin/../lib/gcc/arm-none-eabi/7.2.1/thumb/v7e-m/fpv4-sp/hard/libgcc.a(_udivmoddi4.o)
                0x0000000000041a8c                __udivmoddi4
 .text          0x0000000000041d58        0x4 /usr/bin/../lib/gcc/arm-none-eabi/7.2.1/thumb/v7e-m/fpv4-sp/hard/libgcc.a(_dvmd_tls.o)
                0x0000000000041d58                __aeabi_ldiv0
                0x0000000000041d58                __aeabi_idiv0
 .text.exit     0x0000000000041d5c       0x28 /usr/bin/../lib/gcc/arm-none-eabi/7.2.1/../../../../arm-none-eabi/lib/thumb/v7e-m/fpv4-sp/hard/libg_nano.a(lib_a-exit.o)
                0x0000000000041d5c                exit
 .text.__libc_init_array
                0x0000000000041d84       0x48 /usr/bin/../lib/gcc/arm-none-eabi/7.2.1/../../../../arm-none-eabi/lib/thumb/v7e-m/fpv4-sp/hard/libg_nano.a(lib_a-init.o)
                0x0000000000041d84                __libc_init_array
 .text.malloc   0x0000000000041dcc       0x10 /usr/bin/../lib/gcc/arm-none-eabi/7.2.1/../../../../arm-none-eabi/lib/thumb/v7e-m/fpv4-sp/hard/libg_nano.a(lib_a-malloc.o)
                0x0000000000041dcc                malloc
 .text.free     0x0000000000041ddc       0x10 /usr/bin/../lib/gcc/arm-none-eabi/7.2.1/../../../../arm-none-eabi/lib/thumb/v7e-m/fpv4-sp/hard/libg_nano.a(lib_a-malloc.o)
                0x0000000000041ddc                free
 .text.memcmp   0x0000000000041dec       0x1e /usr/bin/../lib/gcc/arm-none-eabi/7.2.1/../../../../arm-none-eabi/lib/thumb/v7e-m/fpv4-sp/hard/libg_nano.a(lib_a-memcmp.o)
                0x0000000000041dec                memcmp
 .text.memcpy   0x0000000000041e0a       0x16 /usr/bin/../lib/gcc/arm-none-eabi/7.2.1/../../../../arm-none-eabi/lib/thumb/v7e-m/fpv4-sp/hard/libg_nano.a(lib_a-memcpy-stub.o)
                0x0000000000041e0a                memcpy
 .text.memset   0x0000000000041e20       0x10 /usr/bin/../lib/gcc/arm-none-eabi/7.2.1/../../../../arm-none-eabi/lib/thumb/v7e-m/fpv4-sp/hard/libg_nano.a(lib_a-memset.o)
                0x0000000000041e20                memset
 .text._free_r  0x0000000000041e30       0x9c /usr/bin/../lib/gcc/arm-none-eabi/7.2.1/../../../../arm-none-eabi/lib/thumb/v7e-m/fpv4-sp/hard/libg_nano.a(lib_a-nano-freer.o)
                0x0000000000041e30                _free_r
 .text._malloc_r
                0x0000000000041ecc       0xb4 /usr/bin/../lib/gcc/arm-none-eabi/7.2.1/../../../../arm-none-eabi/lib/thumb/v7e-m/fpv4-sp/hard/libg_nano.a(lib_a-nano-mallocr.o)
                0x0000000000041ecc                _malloc_r
 .text._sbrk_r  0x0000000000041f80       0x20 /usr/bin/../lib/gcc/arm-none-eabi/7.2.1/../../../../arm-none-eabi/lib/thumb/v7e-m/fpv4-sp/hard/libg_nano.a(lib_a-sbrkr.o)
                0x0000000000041f80                _sbrk_r
 .text.strcpy   0x0000000000041fa0       0x10 /usr/bin/../lib/gcc/arm-none-eabi/7.2.1/../../../../arm-none-eabi/lib/thumb/v7e-m/fpv4-sp/hard/libg_nano.a(lib_a-strcpy.o)
                0x0000000000041fa0                strcpy
 .text          0x0000000000041fb0       0x10 /usr/bin/../lib/gcc/arm-none-eabi/7.2.1/../../../../arm-none-eabi/lib/thumb/v7e-m/fpv4-sp/hard/libg_nano.a(lib_a-strlen.o)
                0x0000000000041fb0                strlen
 .text.strrchr  0x0000000000041fc0       0x28 /usr/bin/../lib/gcc/arm-none-eabi/7.2.1/../../../../arm-none-eabi/lib/thumb/v7e-m/fpv4-sp/hard/libg_nano.a(lib_a-strrchr.o)
                0x0000000000041fc0                strrchr
 .text.__malloc_lock
                0x0000000000041fe8        0x2 /usr/bin/../lib/gcc/arm-none-eabi/7.2.1/../../../../arm-none-eabi/lib/thumb/v7e-m/fpv4-sp/hard/libg_nano.a(lib_a-mlock.o)
                0x0000000000041fe8                __malloc_lock
 .text.__malloc_unlock
                0x0000000000041fea        0x2 /usr/bin/../lib/gcc/arm-none-eabi/7.2.1/../../../../arm-none-eabi/lib/thumb/v7e-m/fpv4-sp/hard/libg_nano.a(lib_a-mlock.o)
                0x0000000000041fea                __malloc_unlock
 .text.strchr   0x0000000000041fec       0x1a /usr/bin/../lib/gcc/arm-none-eabi/7.2.1/../../../../arm-none-eabi/lib/thumb/v7e-m/fpv4-sp/hard/libg_nano.a(lib_a-strchr.o)
                0x0000000000041fec                strchr
 *fill*         0x0000000000042006        0x2 
 .text._sbrk    0x0000000000042008       0x1c /usr/bin/../lib/gcc/arm-none-eabi/7.2.1/../../../../arm-none-eabi/lib/thumb/v7e-m/fpv4-sp/hard/libnosys.a(sbrk.o)
                0x0000000000042008                _sbrk
 .text._exit    0x0000000000042024        0x4 /usr/bin/../lib/gcc/arm-none-eabi/7.2.1/../../../../arm-none-eabi/lib/thumb/v7e-m/fpv4-sp/hard/libnosys.a(_exit.o)
                0x0000000000042024                _exit
 *(.init)
 .init          0x0000000000042028        0x4 /usr/bin/../lib/gcc/arm-none-eabi/7.2.1/thumb/v7e-m/fpv4-sp/hard/crti.o
                0x0000000000042028                _init
 .init          0x000000000004202c        0x8 /usr/bin/../lib/gcc/arm-none-eabi/7.2.1/thumb/v7e-m/fpv4-sp/hard/crtn.o
 *(.fini)
 .fini          0x0000000000042034        0x4 /usr/bin/../lib/gcc/arm-none-eabi/7.2.1/thumb/v7e-m/fpv4-sp/hard/crti.o
                0x0000000000042034                _fini
 .fini          0x0000000000042038        0x8 /usr/bin/../lib/gcc/arm-none-eabi/7.2.1/thumb/v7e-m/fpv4-sp/hard/crtn.o
 *crtbegin.o(.ctors)
 *crtbegin?.o(.ctors)
 *(EXCLUDE_FILE(*crtend.o *crtend?.o) .ctors)
 *(SORT_BY_NAME(.ctors.*))
 *(.ctors)
 *crtbegin.o(.dtors)
 *crtbegin?.o(.dtors)
 *(EXCLUDE_FILE(*crtend.o *crtend?.o) .dtors)
 *(SORT_BY_NAME(.dtors.*))
 *(.dtors)
 *(.rodata*)
 .rodata.button_event_handler.str1.4
                0x0000000000042040       0x56 CMakeFiles/light_switch_proxy_client_nrf52840_xxAA_s140_6.0.0.dir/src/main.c.obj
 *fill*         0x0000000000042096        0x2 
 .rodata.client_publish_timeout_cb.str1.4
                0x0000000000042098       0x1c CMakeFiles/light_switch_proxy_client_nrf52840_xxAA_s140_6.0.0.dir/src/main.c.obj
 .rodata.client_status_cb.str1.4
                0x00000000000420b4       0x2d CMakeFiles/light_switch_proxy_client_nrf52840_xxAA_s140_6.0.0.dir/src/main.c.obj
 *fill*         0x00000000000420e1        0x3 
 .rodata.config_server_evt_cb.str1.4
                0x00000000000420e4       0x19 CMakeFiles/light_switch_proxy_client_nrf52840_xxAA_s140_6.0.0.dir/src/main.c.obj
 *fill*         0x00000000000420fd        0x3 
 .rodata.m_client_node_uuid
                0x0000000000042100       0x10 CMakeFiles/light_switch_proxy_client_nrf52840_xxAA_s140_6.0.0.dir/src/main.c.obj
 .rodata.main.str1.4
                0x0000000000042110       0x5c CMakeFiles/light_switch_proxy_client_nrf52840_xxAA_s140_6.0.0.dir/src/main.c.obj
 .rodata.models_init_cb.str1.4
                0x000000000004216c       0x20 CMakeFiles/light_switch_proxy_client_nrf52840_xxAA_s140_6.0.0.dir/src/main.c.obj
 .rodata.provisioning_complete_cb.str1.4
                0x000000000004218c       0x9b CMakeFiles/light_switch_proxy_client_nrf52840_xxAA_s140_6.0.0.dir/src/main.c.obj
 *fill*         0x0000000000042227        0x1 
 .rodata.static_auth_data.12677
                0x0000000000042228       0x10 CMakeFiles/light_switch_proxy_client_nrf52840_xxAA_s140_6.0.0.dir/src/main.c.obj
 .rodata        0x0000000000042238        0xb CMakeFiles/light_switch_proxy_client_nrf52840_xxAA_s140_6.0.0.dir/__/__/common/src/mesh_provisionee.c.obj
 *fill*         0x0000000000042243        0xd 
 .rodata.delay_bytecode.8881
                0x0000000000042250        0x6 CMakeFiles/light_switch_proxy_client_nrf52840_xxAA_s140_6.0.0.dir/__/__/common/src/simple_hal.c.obj
 *fill*         0x0000000000042256        0x2 
 .rodata.m_buttons_list
                0x0000000000042258        0x4 CMakeFiles/light_switch_proxy_client_nrf52840_xxAA_s140_6.0.0.dir/__/__/common/src/simple_hal.c.obj
 .rodata.m_pb_gatt_fsm_descriptor
                0x000000000004225c       0x24 CMakeFiles/light_switch_proxy_client_nrf52840_xxAA_s140_6.0.0.dir/__/__/__/mesh/prov/src/nrf_mesh_prov_bearer_gatt.c.obj
 .rodata.m_pb_gatt_fsm_transition_table
                0x0000000000042280       0x48 CMakeFiles/light_switch_proxy_client_nrf52840_xxAA_s140_6.0.0.dir/__/__/__/mesh/prov/src/nrf_mesh_prov_bearer_gatt.c.obj
 .rodata.pb_gatt_fsm_actions
                0x00000000000422c8       0x24 CMakeFiles/light_switch_proxy_client_nrf52840_xxAA_s140_6.0.0.dir/__/__/__/mesh/prov/src/nrf_mesh_prov_bearer_gatt.c.obj
 .rodata.prov_bearer_interface.10266
                0x00000000000422ec       0x14 CMakeFiles/light_switch_proxy_client_nrf52840_xxAA_s140_6.0.0.dir/__/__/__/mesh/prov/src/nrf_mesh_prov_bearer_gatt.c.obj
 .rodata.str1.4
                0x0000000000042300      0x186 CMakeFiles/light_switch_proxy_client_nrf52840_xxAA_s140_6.0.0.dir/__/__/__/mesh/prov/src/nrf_mesh_prov_bearer_gatt.c.obj
 *fill*         0x0000000000042486        0x2 
 .rodata        0x0000000000042488        0x4 CMakeFiles/light_switch_proxy_client_nrf52840_xxAA_s140_6.0.0.dir/home/mazzer/work/nordic/sdk/nRF5_SDK_15.0.0/components/softdevice/common/nrf_sdh.c.obj
 .rodata.sdh_req_observers
                0x000000000004248c        0xc CMakeFiles/light_switch_proxy_client_nrf52840_xxAA_s140_6.0.0.dir/home/mazzer/work/nordic/sdk/nRF5_SDK_15.0.0/components/softdevice/common/nrf_sdh.c.obj
 .rodata.sdh_stack_observers
                0x0000000000042498        0xc CMakeFiles/light_switch_proxy_client_nrf52840_xxAA_s140_6.0.0.dir/home/mazzer/work/nordic/sdk/nRF5_SDK_15.0.0/components/softdevice/common/nrf_sdh.c.obj
 .rodata.sdh_state_observers
                0x00000000000424a4        0xc CMakeFiles/light_switch_proxy_client_nrf52840_xxAA_s140_6.0.0.dir/home/mazzer/work/nordic/sdk/nRF5_SDK_15.0.0/components/softdevice/common/nrf_sdh.c.obj
 .rodata.sdh_soc_observers
                0x00000000000424b0        0xc CMakeFiles/light_switch_proxy_client_nrf52840_xxAA_s140_6.0.0.dir/home/mazzer/work/nordic/sdk/nRF5_SDK_15.0.0/components/softdevice/common/nrf_sdh_soc.c.obj
 .rodata.sdh_ble_observers
                0x00000000000424bc        0xc CMakeFiles/light_switch_proxy_client_nrf52840_xxAA_s140_6.0.0.dir/home/mazzer/work/nordic/sdk/nRF5_SDK_15.0.0/components/softdevice/common/nrf_sdh_ble.c.obj
 .rodata.app_error_fault_handler.str1.4
                0x00000000000424c8       0xfd CMakeFiles/light_switch_proxy_client_nrf52840_xxAA_s140_6.0.0.dir/__/__/common/src/app_error_weak.c.obj
 .rodata.mesh_assertion_handler.str1.4
                0x00000000000425c5       0xfd CMakeFiles/light_switch_proxy_client_nrf52840_xxAA_s140_6.0.0.dir/__/__/common/src/assertion_handler_weak.c.obj
                                          0x1 (size before relaxing)
 *fill*         0x00000000000425c5        0x3 
 .rodata.sar_ctx_cancel.str1.4
                0x00000000000425c8       0x23 CMakeFiles/light_switch_proxy_client_nrf52840_xxAA_s140_6.0.0.dir/__/__/__/mesh/core/src/transport.c.obj
 *fill*         0x00000000000425eb        0x1 
 .rodata.transport_packet_in.str1.4
                0x00000000000425ec       0x24 CMakeFiles/light_switch_proxy_client_nrf52840_xxAA_s140_6.0.0.dir/__/__/__/mesh/core/src/transport.c.obj
 .rodata.upper_transport_access_packet_in.str1.4
                0x0000000000042610       0x91 CMakeFiles/light_switch_proxy_client_nrf52840_xxAA_s140_6.0.0.dir/__/__/__/mesh/core/src/transport.c.obj
 *fill*         0x00000000000426a1        0x3 
 .rodata.upper_transport_packet_in.str1.4
                0x00000000000426a4       0x2e CMakeFiles/light_switch_proxy_client_nrf52840_xxAA_s140_6.0.0.dir/__/__/__/mesh/core/src/transport.c.obj
 *fill*         0x00000000000426d2        0x2 
 .rodata.upper_transport_tx.part.27.str1.4
                0x00000000000426d4        0xe CMakeFiles/light_switch_proxy_client_nrf52840_xxAA_s140_6.0.0.dir/__/__/__/mesh/core/src/transport.c.obj
                                         0x18 (size before relaxing)
 *fill*         0x00000000000426e2        0x2 
 .rodata.m_all_operations
                0x00000000000426e4       0x10 CMakeFiles/light_switch_proxy_client_nrf52840_xxAA_s140_6.0.0.dir/__/__/__/mesh/core/src/mesh_flash.c.obj
 .rodata.types_lookup.9514
                0x00000000000426f4        0x4 CMakeFiles/light_switch_proxy_client_nrf52840_xxAA_s140_6.0.0.dir/__/__/__/mesh/core/src/nrf_mesh_utils.c.obj
 .rodata.__func__.12005
                0x00000000000426f8       0x15 CMakeFiles/light_switch_proxy_client_nrf52840_xxAA_s140_6.0.0.dir/__/__/__/mesh/core/src/nrf_mesh.c.obj
 *fill*         0x000000000004270d        0x3 
 .rodata.nrf_mesh_listen.str1.4
                0x0000000000042710       0xab CMakeFiles/light_switch_proxy_client_nrf52840_xxAA_s140_6.0.0.dir/__/__/__/mesh/core/src/nrf_mesh.c.obj
 .rodata.nrf_mesh_packet_send.str1.4
                0x00000000000427bb       0xab CMakeFiles/light_switch_proxy_client_nrf52840_xxAA_s140_6.0.0.dir/__/__/__/mesh/core/src/nrf_mesh.c.obj
                                          0x4 (size before relaxing)
 *fill*         0x00000000000427bb        0x1 
 .rodata.CSWTCH.7
                0x00000000000427bc       0x20 CMakeFiles/light_switch_proxy_client_nrf52840_xxAA_s140_6.0.0.dir/__/__/__/mesh/core/src/hal.c.obj
 .rodata        0x00000000000427dc       0x18 CMakeFiles/light_switch_proxy_client_nrf52840_xxAA_s140_6.0.0.dir/__/__/__/mesh/core/src/enc.c.obj
 .rodata.network_packet_in.str1.4
                0x00000000000427f4       0x81 CMakeFiles/light_switch_proxy_client_nrf52840_xxAA_s140_6.0.0.dir/__/__/__/mesh/core/src/network.c.obj
 *fill*         0x0000000000042875        0x3 
 .rodata.net_packet_decrypt.str1.4
                0x0000000000042878       0x6b CMakeFiles/light_switch_proxy_client_nrf52840_xxAA_s140_6.0.0.dir/__/__/__/mesh/core/src/net_packet.c.obj
                                         0x74 (size before relaxing)
 *fill*         0x00000000000428e3        0x1 
 .rodata        0x00000000000428e4        0x7 CMakeFiles/light_switch_proxy_client_nrf52840_xxAA_s140_6.0.0.dir/__/__/__/mesh/core/src/nrf_mesh_keygen.c.obj
 *fill*         0x00000000000428eb        0x1 
 .rodata.log_callback_rtt.str1.4
                0x00000000000428ec       0x15 CMakeFiles/light_switch_proxy_client_nrf52840_xxAA_s140_6.0.0.dir/__/__/__/mesh/core/src/log.c.obj
 *fill*         0x0000000000042901        0x3 
 .rodata.str1.4
                0x0000000000042904       0x11 CMakeFiles/light_switch_proxy_client_nrf52840_xxAA_s140_6.0.0.dir/__/__/__/mesh/core/src/log.c.obj
 *fill*         0x0000000000042915        0x3 
 .rodata.beacon_packet_in.str1.4
                0x0000000000042918       0x8d CMakeFiles/light_switch_proxy_client_nrf52840_xxAA_s140_6.0.0.dir/__/__/__/mesh/core/src/beacon.c.obj
                                         0x98 (size before relaxing)
 *fill*         0x00000000000429a5        0x3 
 .rodata.cp_handler
                0x00000000000429a8        0x8 CMakeFiles/light_switch_proxy_client_nrf52840_xxAA_s140_6.0.0.dir/__/__/__/mesh/core/src/heartbeat.c.obj
 .rodata.beacon_tx.str1.4
                0x00000000000429b0       0x6f CMakeFiles/light_switch_proxy_client_nrf52840_xxAA_s140_6.0.0.dir/__/__/__/mesh/core/src/net_beacon.c.obj
 *fill*         0x0000000000042a1f        0x1 
 .rodata.net_beacon_init.str1.4
                0x0000000000042a20        0x5 CMakeFiles/light_switch_proxy_client_nrf52840_xxAA_s140_6.0.0.dir/__/__/__/mesh/core/src/net_beacon.c.obj
 *fill*         0x0000000000042a25        0x3 
 .rodata.fsm_event_post.str1.4
                0x0000000000042a28        0xb CMakeFiles/light_switch_proxy_client_nrf52840_xxAA_s140_6.0.0.dir/__/__/__/mesh/core/src/fsm.c.obj
 *fill*         0x0000000000042a33        0x1 
 .rodata.fsm_event_post_try.str1.4
                0x0000000000042a34       0x7c CMakeFiles/light_switch_proxy_client_nrf52840_xxAA_s140_6.0.0.dir/__/__/__/mesh/core/src/fsm.c.obj
 .rodata.fsm_init.str1.4
                0x0000000000042ab0        0xa CMakeFiles/light_switch_proxy_client_nrf52840_xxAA_s140_6.0.0.dir/__/__/__/mesh/core/src/fsm.c.obj
 *fill*         0x0000000000042aba        0x2 
 .rodata.m_interface
                0x0000000000042abc        0xc CMakeFiles/light_switch_proxy_client_nrf52840_xxAA_s140_6.0.0.dir/__/__/__/mesh/core/src/core_tx_adv.c.obj
 .rodata.radio_mode_to_us_per_byte.9907
                0x0000000000042ac8        0x6 CMakeFiles/light_switch_proxy_client_nrf52840_xxAA_s140_6.0.0.dir/__/__/__/mesh/bearer/src/broadcast.c.obj
 *fill*         0x0000000000042ace        0x2 
 .rodata.channel_rf_offsets.9125
                0x0000000000042ad0       0x28 CMakeFiles/light_switch_proxy_client_nrf52840_xxAA_s140_6.0.0.dir/__/__/__/mesh/bearer/src/radio_config.c.obj
 .rodata        0x0000000000042af8        0x6 CMakeFiles/light_switch_proxy_client_nrf52840_xxAA_s140_6.0.0.dir/__/__/__/mesh/gatt/src/proxy.c.obj
 *fill*         0x0000000000042afe        0x2 
 .rodata.gatt_evt_handler.str1.4
                0x0000000000042b00      0x11e CMakeFiles/light_switch_proxy_client_nrf52840_xxAA_s140_6.0.0.dir/__/__/__/mesh/gatt/src/proxy.c.obj
 *fill*         0x0000000000042c1e        0x2 
 .rodata.m_interface
                0x0000000000042c20        0xc CMakeFiles/light_switch_proxy_client_nrf52840_xxAA_s140_6.0.0.dir/__/__/__/mesh/gatt/src/proxy.c.obj
 .rodata.m_opcode_handlers
                0x0000000000042c2c        0x8 CMakeFiles/light_switch_proxy_client_nrf52840_xxAA_s140_6.0.0.dir/__/__/__/models/simple_on_off/src/simple_on_off_client.c.obj
 .rodata        0x0000000000042c34        0x8 CMakeFiles/light_switch_proxy_client_nrf52840_xxAA_s140_6.0.0.dir/__/__/__/models/config/src/config_server.c.obj
 .rodata.CSWTCH.184
                0x0000000000042c3c       0x10 CMakeFiles/light_switch_proxy_client_nrf52840_xxAA_s140_6.0.0.dir/__/__/__/models/config/src/config_server.c.obj
 .rodata.opcode_handlers
                0x0000000000042c4c      0x170 CMakeFiles/light_switch_proxy_client_nrf52840_xxAA_s140_6.0.0.dir/__/__/__/models/config/src/config_server.c.obj
 .rodata.m_opcode_handlers
                0x0000000000042dbc       0x58 CMakeFiles/light_switch_proxy_client_nrf52840_xxAA_s140_6.0.0.dir/__/__/__/models/health/src/health_server.c.obj
 .rodata.multiply_de_bruijn_bit_position.9759
                0x0000000000042e14       0x20 CMakeFiles/light_switch_proxy_client_nrf52840_xxAA_s140_6.0.0.dir/__/__/__/models/health/src/health_server.c.obj
 .rodata.access_model_publish.str1.4
                0x0000000000042e34       0x1c CMakeFiles/light_switch_proxy_client_nrf52840_xxAA_s140_6.0.0.dir/__/__/__/mesh/access/src/access.c.obj
                                         0x24 (size before relaxing)
 .rodata.mesh_evt_cb.str1.4
                0x0000000000042e50       0x67 CMakeFiles/light_switch_proxy_client_nrf52840_xxAA_s140_6.0.0.dir/__/__/__/mesh/access/src/access.c.obj
 *fill*         0x0000000000042eb7        0x1 
 .rodata.multiply_de_bruijn_bit_position.9821
                0x0000000000042eb8       0x20 CMakeFiles/light_switch_proxy_client_nrf52840_xxAA_s140_6.0.0.dir/__/__/__/mesh/access/src/device_state_manager.c.obj
 .rodata.m_prov_callbacks
                0x0000000000042ed8       0x10 CMakeFiles/light_switch_proxy_client_nrf52840_xxAA_s140_6.0.0.dir/__/__/__/mesh/prov/src/prov_provisionee.c.obj
 .rodata.prov_provisionee_cb_ack_received.str1.4
                0x0000000000042ee8       0x8b CMakeFiles/light_switch_proxy_client_nrf52840_xxAA_s140_6.0.0.dir/__/__/__/mesh/prov/src/prov_provisionee.c.obj
 *fill*         0x0000000000042f73        0x1 
 .rodata.multiply_de_bruijn_bit_position.9768
                0x0000000000042f74       0x20 CMakeFiles/light_switch_proxy_client_nrf52840_xxAA_s140_6.0.0.dir/__/__/__/mesh/prov/src/nrf_mesh_prov.c.obj
 .rodata.pdu_sizes.11729
                0x0000000000042f94        0xa CMakeFiles/light_switch_proxy_client_nrf52840_xxAA_s140_6.0.0.dir/__/__/__/mesh/prov/src/provisioning.c.obj
 *fill*         0x0000000000042f9e        0x2 
 .rodata.alphanumeric.11834
                0x0000000000042fa0       0x25 CMakeFiles/light_switch_proxy_client_nrf52840_xxAA_s140_6.0.0.dir/__/__/__/mesh/prov/src/prov_utils.c.obj
 *fill*         0x0000000000042fc5        0x3 
 .rodata.numeric_max.11828
                0x0000000000042fc8       0x24 CMakeFiles/light_switch_proxy_client_nrf52840_xxAA_s140_6.0.0.dir/__/__/__/mesh/prov/src/prov_utils.c.obj
 .rodata.prov_utils_authentication_values_derive.str1.4
                0x0000000000042fec        0x5 CMakeFiles/light_switch_proxy_client_nrf52840_xxAA_s140_6.0.0.dir/__/__/__/mesh/prov/src/prov_utils.c.obj
 *fill*         0x0000000000042ff1        0x3 
 .rodata.prov_utils_derive_keys.str1.4
                0x0000000000042ff4       0x15 CMakeFiles/light_switch_proxy_client_nrf52840_xxAA_s140_6.0.0.dir/__/__/__/mesh/prov/src/prov_utils.c.obj
 *fill*         0x0000000000043009        0x3 
 .rodata.crctable.11463
                0x000000000004300c      0x100 CMakeFiles/light_switch_proxy_client_nrf52840_xxAA_s140_6.0.0.dir/__/__/__/mesh/prov/src/prov_bearer_adv.c.obj
 .rodata.interface.11693
                0x000000000004310c       0x14 CMakeFiles/light_switch_proxy_client_nrf52840_xxAA_s140_6.0.0.dir/__/__/__/mesh/prov/src/prov_bearer_adv.c.obj
 .rodata.prov_bearer_adv_listen.str1.4
                0x0000000000043120       0x88 CMakeFiles/light_switch_proxy_client_nrf52840_xxAA_s140_6.0.0.dir/__/__/__/mesh/prov/src/prov_bearer_adv.c.obj
 .rodata.prov_bearer_adv_packet_in.str1.4
                0x00000000000431a8      0x283 CMakeFiles/light_switch_proxy_client_nrf52840_xxAA_s140_6.0.0.dir/__/__/__/mesh/prov/src/prov_bearer_adv.c.obj
 *fill*         0x000000000004342b        0x1 
 .rodata.tx_retry_cb.str1.4
                0x000000000004342c       0x14 CMakeFiles/light_switch_proxy_client_nrf52840_xxAA_s140_6.0.0.dir/__/__/__/mesh/prov/src/prov_bearer_adv.c.obj
 .rodata.SEGGER_RTT_ReadNoLock.str1.4
                0x0000000000043440       0x18 ../../../external/rtt/librtt_nrf52840_xxAA.a(SEGGER_RTT.c.obj)
                                         0x17 (size before relaxing)
 .rodata._aV2C.5639
                0x0000000000043458       0x10 ../../../external/rtt/librtt_nrf52840_xxAA.a(SEGGER_RTT_printf.c.obj)
 .rodata.curve_secp256r1
                0x0000000000043468       0xb0 ../../../external/micro-ecc/libuECC_nrf52840_xxAA.a(uECC.c.obj)
 .rodata._global_impure_ptr
                0x0000000000043518        0x4 /usr/bin/../lib/gcc/arm-none-eabi/7.2.1/../../../../arm-none-eabi/lib/thumb/v7e-m/fpv4-sp/hard/libg_nano.a(lib_a-impure.o)
                0x0000000000043518                _global_impure_ptr
 *(.eh_frame*)
 .eh_frame      0x000000000004351c        0x0 /usr/bin/../lib/gcc/arm-none-eabi/7.2.1/thumb/v7e-m/fpv4-sp/hard/crtbegin.o
 .eh_frame      0x000000000004351c        0x4 /usr/bin/../lib/gcc/arm-none-eabi/7.2.1/thumb/v7e-m/fpv4-sp/hard/crtend.o

.glue_7         0x0000000000043520        0x0
 .glue_7        0x0000000000043520        0x0 linker stubs

.glue_7t        0x0000000000043520        0x0
 .glue_7t       0x0000000000043520        0x0 linker stubs

.vfp11_veneer   0x0000000000043520        0x0
 .vfp11_veneer  0x0000000000043520        0x0 linker stubs

.v4_bx          0x0000000000043520        0x0
 .v4_bx         0x0000000000043520        0x0 linker stubs

.iplt           0x0000000000043520        0x0
 .iplt          0x0000000000043520        0x0 /usr/bin/../lib/gcc/arm-none-eabi/7.2.1/thumb/v7e-m/fpv4-sp/hard/crtbegin.o

.pwr_mgmt_data  0x0000000000043520        0x0
                [!provide]                        PROVIDE (__start_pwr_mgmt_data, .)
 *(SORT_BY_NAME(.pwr_mgmt_data*))
                [!provide]                        PROVIDE (__stop_pwr_mgmt_data, .)

.log_const_data
                0x0000000000043520        0x0
                [!provide]                        PROVIDE (__start_log_const_data, .)
 *(.log_const_data)
                [!provide]                        PROVIDE (__stop_log_const_data, .)

.cli_command    0x0000000000043520        0x0
                [!provide]                        PROVIDE (__start_cli_command, .)
 *(.cli_command)
                [!provide]                        PROVIDE (__stop_cli_command, .)

.sdh_stack_observers
                0x0000000000043520       0x10
                0x0000000000043520                PROVIDE (__start_sdh_stack_observers, .)
 *(SORT_BY_NAME(.sdh_stack_observers*))
 .sdh_stack_observers0
                0x0000000000043520        0x8 CMakeFiles/light_switch_proxy_client_nrf52840_xxAA_s140_6.0.0.dir/home/mazzer/work/nordic/sdk/nRF5_SDK_15.0.0/components/softdevice/common/nrf_sdh_soc.c.obj
 .sdh_stack_observers0
                0x0000000000043528        0x8 CMakeFiles/light_switch_proxy_client_nrf52840_xxAA_s140_6.0.0.dir/home/mazzer/work/nordic/sdk/nRF5_SDK_15.0.0/components/softdevice/common/nrf_sdh_ble.c.obj
                0x0000000000043530                PROVIDE (__stop_sdh_stack_observers, .)

.sdh_req_observers
                0x0000000000043530        0x0
                0x0000000000043530                PROVIDE (__start_sdh_req_observers, .)
 *(SORT_BY_NAME(.sdh_req_observers*))
                0x0000000000043530                PROVIDE (__stop_sdh_req_observers, .)

.sdh_state_observers
                0x0000000000043530        0x8
                0x0000000000043530                PROVIDE (__start_sdh_state_observers, .)
 *(SORT_BY_NAME(.sdh_state_observers*))
 .sdh_state_observers1
                0x0000000000043530        0x8 CMakeFiles/light_switch_proxy_client_nrf52840_xxAA_s140_6.0.0.dir/__/__/common/src/mesh_provisionee.c.obj
                0x0000000000043538                PROVIDE (__stop_sdh_state_observers, .)

.sdh_ant_observers
                0x0000000000043538        0x0
                [!provide]                        PROVIDE (__start_sdh_ant_observers, .)
 *(SORT_BY_NAME(.sdh_ant_observers*))
                [!provide]                        PROVIDE (__stop_sdh_ant_observers, .)

.sdh_ble_observers
                0x0000000000043538        0x8
                0x0000000000043538                PROVIDE (__start_sdh_ble_observers, .)
 *(SORT_BY_NAME(.sdh_ble_observers*))
 .sdh_ble_observers2
                0x0000000000043538        0x8 CMakeFiles/light_switch_proxy_client_nrf52840_xxAA_s140_6.0.0.dir/__/__/__/mesh/gatt/src/mesh_gatt.c.obj
                0x0000000000043540                PROVIDE (__stop_sdh_ble_observers, .)

.sdh_soc_observers
                0x0000000000043540        0x8
                0x0000000000043540                PROVIDE (__start_sdh_soc_observers, .)
 *(SORT_BY_NAME(.sdh_soc_observers*))
 .sdh_soc_observers0
                0x0000000000043540        0x8 CMakeFiles/light_switch_proxy_client_nrf52840_xxAA_s140_6.0.0.dir/src/main.c.obj
                0x0000000000043548                PROVIDE (__stop_sdh_soc_observers, .)

.ARM.extab
 *(.ARM.extab* .gnu.linkonce.armextab.*)
                0x0000000000043548                __exidx_start = .

.ARM.exidx      0x0000000000043548        0x8
 *(.ARM.exidx* .gnu.linkonce.armexidx.*)
 .ARM.exidx     0x0000000000043548        0x8 /usr/bin/../lib/gcc/arm-none-eabi/7.2.1/../../../../arm-none-eabi/lib/thumb/v7e-m/fpv4-sp/hard/crt0.o
 .ARM.exidx     0x0000000000043550        0x0 /usr/bin/../lib/gcc/arm-none-eabi/7.2.1/thumb/v7e-m/fpv4-sp/hard/libgcc.a(_udivmoddi4.o)
                                          0x8 (size before relaxing)
                0x0000000000043550                __exidx_end = .
                0x0000000000043550                __etext = .

.rel.dyn        0x0000000000043550        0x0
 .rel.iplt      0x0000000000043550        0x0 /usr/bin/../lib/gcc/arm-none-eabi/7.2.1/thumb/v7e-m/fpv4-sp/hard/crtbegin.o

.data           0x00000000200032c8      0x128 load address 0x0000000000043550
                0x00000000200032c8                __data_start__ = .
 *(vtable)
 *(.data*)
 .data.m_adv_handle
                0x00000000200032c8        0x1 CMakeFiles/light_switch_proxy_client_nrf52840_xxAA_s140_6.0.0.dir/__/__/common/src/mesh_adv.c.obj
 *fill*         0x00000000200032c9        0x3 
 .data.m_adv_params
                0x00000000200032cc       0x18 CMakeFiles/light_switch_proxy_client_nrf52840_xxAA_s140_6.0.0.dir/__/__/common/src/mesh_adv.c.obj
 .data.m_action_lookup_table
                0x00000000200032e4       0x24 CMakeFiles/light_switch_proxy_client_nrf52840_xxAA_s140_6.0.0.dir/__/__/__/mesh/prov/src/nrf_mesh_prov_bearer_gatt.c.obj
 .data.m_event_lookup_table
                0x0000000020003308       0x2c CMakeFiles/light_switch_proxy_client_nrf52840_xxAA_s140_6.0.0.dir/__/__/__/mesh/prov/src/nrf_mesh_prov_bearer_gatt.c.obj
 .data.m_guard_lookup_table
                0x0000000020003334        0x4 CMakeFiles/light_switch_proxy_client_nrf52840_xxAA_s140_6.0.0.dir/__/__/__/mesh/prov/src/nrf_mesh_prov_bearer_gatt.c.obj
 .data.m_state_lookup_table
                0x0000000020003338       0x10 CMakeFiles/light_switch_proxy_client_nrf52840_xxAA_s140_6.0.0.dir/__/__/__/mesh/prov/src/nrf_mesh_prov_bearer_gatt.c.obj
 .data.wait.9426
                0x0000000020003348        0x1 CMakeFiles/light_switch_proxy_client_nrf52840_xxAA_s140_6.0.0.dir/__/__/common/src/app_error_weak.c.obj
 *fill*         0x0000000020003349        0x3 
 .data.m_nrf_mesh_listener
                0x000000002000334c        0xc CMakeFiles/light_switch_proxy_client_nrf52840_xxAA_s140_6.0.0.dir/__/__/__/mesh/core/src/nrf_mesh.c.obj
 .data.g_log_dbg_lvl
                0x0000000020003358        0x4 CMakeFiles/light_switch_proxy_client_nrf52840_xxAA_s140_6.0.0.dir/__/__/__/mesh/core/src/log.c.obj
                0x0000000020003358                g_log_dbg_lvl
 .data.g_log_dbg_msk
                0x000000002000335c        0x4 CMakeFiles/light_switch_proxy_client_nrf52840_xxAA_s140_6.0.0.dir/__/__/__/mesh/core/src/log.c.obj
                0x000000002000335c                g_log_dbg_msk
 .data.g_log_hex_digits
                0x0000000020003360        0x4 CMakeFiles/light_switch_proxy_client_nrf52840_xxAA_s140_6.0.0.dir/__/__/__/mesh/core/src/log.c.obj
                0x0000000020003360                g_log_hex_digits
 .data.m_log_callback
                0x0000000020003364        0x4 CMakeFiles/light_switch_proxy_client_nrf52840_xxAA_s140_6.0.0.dir/__/__/__/mesh/core/src/log.c.obj
                0x0000000020003364                m_log_callback
 .data.m_config_server_handle
                0x0000000020003368        0x2 CMakeFiles/light_switch_proxy_client_nrf52840_xxAA_s140_6.0.0.dir/__/__/__/models/config/src/config_server.c.obj
 *fill*         0x000000002000336a        0x2 
 .data.m_mesh_evt_handler
                0x000000002000336c        0x8 CMakeFiles/light_switch_proxy_client_nrf52840_xxAA_s140_6.0.0.dir/__/__/__/models/config/src/config_server.c.obj
 .data.m_default_ttl
                0x0000000020003374        0x1 CMakeFiles/light_switch_proxy_client_nrf52840_xxAA_s140_6.0.0.dir/__/__/__/mesh/access/src/access.c.obj
 *fill*         0x0000000020003375        0x3 
 .data.m_async_process_flag
                0x0000000020003378        0x4 CMakeFiles/light_switch_proxy_client_nrf52840_xxAA_s140_6.0.0.dir/__/__/__/mesh/prov/src/prov_bearer_adv.c.obj
 .data.SystemCoreClock
                0x000000002000337c        0x4 CMakeFiles/light_switch_proxy_client_nrf52840_xxAA_s140_6.0.0.dir/home/mazzer/work/nordic/sdk/nRF5_SDK_15.0.0/modules/nrfx/mdk/system_nrf52840.c.obj
                0x000000002000337c                SystemCoreClock
 .data.g_rng_function
                0x0000000020003380        0x4 ../../../external/micro-ecc/libuECC_nrf52840_xxAA.a(uECC.c.obj)
 .data._impure_ptr
                0x0000000020003384        0x4 /usr/bin/../lib/gcc/arm-none-eabi/7.2.1/../../../../arm-none-eabi/lib/thumb/v7e-m/fpv4-sp/hard/libg_nano.a(lib_a-impure.o)
                0x0000000020003384                _impure_ptr
 .data.impure_data
                0x0000000020003388       0x60 /usr/bin/../lib/gcc/arm-none-eabi/7.2.1/../../../../arm-none-eabi/lib/thumb/v7e-m/fpv4-sp/hard/libg_nano.a(lib_a-impure.o)
                0x00000000200033e8                . = ALIGN (0x4)
                0x00000000200033e8                PROVIDE (__preinit_array_start, .)
 *(.preinit_array)
                0x00000000200033e8                PROVIDE (__preinit_array_end, .)
                0x00000000200033e8                . = ALIGN (0x4)
                0x00000000200033e8                PROVIDE (__init_array_start, .)
 *(SORT_BY_NAME(.init_array.*))
 *(.init_array)
 .init_array    0x00000000200033e8        0x4 /usr/bin/../lib/gcc/arm-none-eabi/7.2.1/thumb/v7e-m/fpv4-sp/hard/crtbegin.o
                0x00000000200033ec                PROVIDE (__init_array_end, .)
                0x00000000200033ec                . = ALIGN (0x4)
                [!provide]                        PROVIDE (__fini_array_start, .)
 *(SORT_BY_NAME(.fini_array.*))
 *(.fini_array)
 .fini_array    0x00000000200033ec        0x4 /usr/bin/../lib/gcc/arm-none-eabi/7.2.1/thumb/v7e-m/fpv4-sp/hard/crtbegin.o
                [!provide]                        PROVIDE (__fini_array_end, .)
 *(.jcr*)
                0x00000000200033f0                . = ALIGN (0x4)
                0x00000000200033f0                __data_end__ = .
LOAD /usr/bin/../lib/gcc/arm-none-eabi/7.2.1/thumb/v7e-m/fpv4-sp/hard/crti.o
LOAD /usr/bin/../lib/gcc/arm-none-eabi/7.2.1/thumb/v7e-m/fpv4-sp/hard/crtbegin.o
LOAD /usr/bin/../lib/gcc/arm-none-eabi/7.2.1/../../../../arm-none-eabi/lib/thumb/v7e-m/fpv4-sp/hard/crt0.o
LOAD CMakeFiles/light_switch_proxy_client_nrf52840_xxAA_s140_6.0.0.dir/src/main.c.obj
LOAD CMakeFiles/light_switch_proxy_client_nrf52840_xxAA_s140_6.0.0.dir/__/__/__/mesh/stack/src/mesh_stack.c.obj
LOAD CMakeFiles/light_switch_proxy_client_nrf52840_xxAA_s140_6.0.0.dir/__/__/common/src/mesh_provisionee.c.obj
LOAD CMakeFiles/light_switch_proxy_client_nrf52840_xxAA_s140_6.0.0.dir/__/__/common/src/rtt_input.c.obj
LOAD CMakeFiles/light_switch_proxy_client_nrf52840_xxAA_s140_6.0.0.dir/__/__/common/src/simple_hal.c.obj
LOAD CMakeFiles/light_switch_proxy_client_nrf52840_xxAA_s140_6.0.0.dir/__/__/common/src/mesh_adv.c.obj
LOAD CMakeFiles/light_switch_proxy_client_nrf52840_xxAA_s140_6.0.0.dir/__/__/__/mesh/prov/src/nrf_mesh_prov_bearer_gatt.c.obj
LOAD CMakeFiles/light_switch_proxy_client_nrf52840_xxAA_s140_6.0.0.dir/home/mazzer/work/nordic/sdk/nRF5_SDK_15.0.0/components/libraries/util/app_error.c.obj
LOAD CMakeFiles/light_switch_proxy_client_nrf52840_xxAA_s140_6.0.0.dir/home/mazzer/work/nordic/sdk/nRF5_SDK_15.0.0/components/libraries/util/app_util_platform.c.obj
LOAD CMakeFiles/light_switch_proxy_client_nrf52840_xxAA_s140_6.0.0.dir/home/mazzer/work/nordic/sdk/nRF5_SDK_15.0.0/components/ble/common/ble_advdata.c.obj
LOAD CMakeFiles/light_switch_proxy_client_nrf52840_xxAA_s140_6.0.0.dir/home/mazzer/work/nordic/sdk/nRF5_SDK_15.0.0/components/libraries/experimental_section_vars/nrf_section_iter.c.obj
LOAD CMakeFiles/light_switch_proxy_client_nrf52840_xxAA_s140_6.0.0.dir/home/mazzer/work/nordic/sdk/nRF5_SDK_15.0.0/components/softdevice/common/nrf_sdh.c.obj
LOAD CMakeFiles/light_switch_proxy_client_nrf52840_xxAA_s140_6.0.0.dir/home/mazzer/work/nordic/sdk/nRF5_SDK_15.0.0/components/softdevice/common/nrf_sdh_soc.c.obj
LOAD CMakeFiles/light_switch_proxy_client_nrf52840_xxAA_s140_6.0.0.dir/home/mazzer/work/nordic/sdk/nRF5_SDK_15.0.0/components/softdevice/common/nrf_sdh_ble.c.obj
LOAD CMakeFiles/light_switch_proxy_client_nrf52840_xxAA_s140_6.0.0.dir/__/__/nrf_mesh_weak.c.obj
LOAD CMakeFiles/light_switch_proxy_client_nrf52840_xxAA_s140_6.0.0.dir/__/__/common/src/app_error_weak.c.obj
LOAD CMakeFiles/light_switch_proxy_client_nrf52840_xxAA_s140_6.0.0.dir/__/__/common/src/assertion_handler_weak.c.obj
LOAD CMakeFiles/light_switch_proxy_client_nrf52840_xxAA_s140_6.0.0.dir/__/__/__/mesh/core/src/internal_event.c.obj
LOAD CMakeFiles/light_switch_proxy_client_nrf52840_xxAA_s140_6.0.0.dir/__/__/__/mesh/core/src/nrf_mesh_configure.c.obj
LOAD CMakeFiles/light_switch_proxy_client_nrf52840_xxAA_s140_6.0.0.dir/__/__/__/mesh/core/src/aes.c.obj
LOAD CMakeFiles/light_switch_proxy_client_nrf52840_xxAA_s140_6.0.0.dir/__/__/__/mesh/core/src/msg_cache.c.obj
LOAD CMakeFiles/light_switch_proxy_client_nrf52840_xxAA_s140_6.0.0.dir/__/__/__/mesh/core/src/transport.c.obj
LOAD CMakeFiles/light_switch_proxy_client_nrf52840_xxAA_s140_6.0.0.dir/__/__/__/mesh/core/src/event.c.obj
LOAD CMakeFiles/light_switch_proxy_client_nrf52840_xxAA_s140_6.0.0.dir/__/__/__/mesh/core/src/packet_buffer.c.obj
LOAD CMakeFiles/light_switch_proxy_client_nrf52840_xxAA_s140_6.0.0.dir/__/__/__/mesh/core/src/flash_manager_defrag.c.obj
LOAD CMakeFiles/light_switch_proxy_client_nrf52840_xxAA_s140_6.0.0.dir/__/__/__/mesh/core/src/fifo.c.obj
LOAD CMakeFiles/light_switch_proxy_client_nrf52840_xxAA_s140_6.0.0.dir/__/__/__/mesh/core/src/nrf_flash.c.obj
LOAD CMakeFiles/light_switch_proxy_client_nrf52840_xxAA_s140_6.0.0.dir/__/__/__/mesh/core/src/packet_mgr.c.obj
LOAD CMakeFiles/light_switch_proxy_client_nrf52840_xxAA_s140_6.0.0.dir/__/__/__/mesh/core/src/net_state.c.obj
LOAD CMakeFiles/light_switch_proxy_client_nrf52840_xxAA_s140_6.0.0.dir/__/__/__/mesh/core/src/mesh_flash.c.obj
LOAD CMakeFiles/light_switch_proxy_client_nrf52840_xxAA_s140_6.0.0.dir/__/__/__/mesh/core/src/nrf_mesh_utils.c.obj
LOAD CMakeFiles/light_switch_proxy_client_nrf52840_xxAA_s140_6.0.0.dir/__/__/__/mesh/core/src/nrf_mesh.c.obj
LOAD CMakeFiles/light_switch_proxy_client_nrf52840_xxAA_s140_6.0.0.dir/__/__/__/mesh/core/src/queue.c.obj
LOAD CMakeFiles/light_switch_proxy_client_nrf52840_xxAA_s140_6.0.0.dir/__/__/__/mesh/core/src/hal.c.obj
LOAD CMakeFiles/light_switch_proxy_client_nrf52840_xxAA_s140_6.0.0.dir/__/__/__/mesh/core/src/aes_cmac.c.obj
LOAD CMakeFiles/light_switch_proxy_client_nrf52840_xxAA_s140_6.0.0.dir/__/__/__/mesh/core/src/timer_scheduler.c.obj
LOAD CMakeFiles/light_switch_proxy_client_nrf52840_xxAA_s140_6.0.0.dir/__/__/__/mesh/core/src/timer.c.obj
LOAD CMakeFiles/light_switch_proxy_client_nrf52840_xxAA_s140_6.0.0.dir/__/__/__/mesh/core/src/ticker.c.obj
LOAD CMakeFiles/light_switch_proxy_client_nrf52840_xxAA_s140_6.0.0.dir/__/__/__/mesh/core/src/rand.c.obj
LOAD CMakeFiles/light_switch_proxy_client_nrf52840_xxAA_s140_6.0.0.dir/__/__/__/mesh/core/src/nrf_mesh_opt.c.obj
LOAD CMakeFiles/light_switch_proxy_client_nrf52840_xxAA_s140_6.0.0.dir/__/__/__/mesh/core/src/timeslot.c.obj
LOAD CMakeFiles/light_switch_proxy_client_nrf52840_xxAA_s140_6.0.0.dir/__/__/__/mesh/core/src/bearer_event.c.obj
LOAD CMakeFiles/light_switch_proxy_client_nrf52840_xxAA_s140_6.0.0.dir/__/__/__/mesh/core/src/enc.c.obj
LOAD CMakeFiles/light_switch_proxy_client_nrf52840_xxAA_s140_6.0.0.dir/__/__/__/mesh/core/src/network.c.obj
LOAD CMakeFiles/light_switch_proxy_client_nrf52840_xxAA_s140_6.0.0.dir/__/__/__/mesh/core/src/net_packet.c.obj
LOAD CMakeFiles/light_switch_proxy_client_nrf52840_xxAA_s140_6.0.0.dir/__/__/__/mesh/core/src/msqueue.c.obj
LOAD CMakeFiles/light_switch_proxy_client_nrf52840_xxAA_s140_6.0.0.dir/__/__/__/mesh/core/src/nrf_mesh_keygen.c.obj
LOAD CMakeFiles/light_switch_proxy_client_nrf52840_xxAA_s140_6.0.0.dir/__/__/__/mesh/core/src/cache.c.obj
LOAD CMakeFiles/light_switch_proxy_client_nrf52840_xxAA_s140_6.0.0.dir/__/__/__/mesh/core/src/uri.c.obj
LOAD CMakeFiles/light_switch_proxy_client_nrf52840_xxAA_s140_6.0.0.dir/__/__/__/mesh/core/src/list.c.obj
LOAD CMakeFiles/light_switch_proxy_client_nrf52840_xxAA_s140_6.0.0.dir/__/__/__/mesh/core/src/log.c.obj
LOAD CMakeFiles/light_switch_proxy_client_nrf52840_xxAA_s140_6.0.0.dir/__/__/__/mesh/core/src/flash_manager.c.obj
LOAD CMakeFiles/light_switch_proxy_client_nrf52840_xxAA_s140_6.0.0.dir/__/__/__/mesh/core/src/ccm_soft.c.obj
LOAD CMakeFiles/light_switch_proxy_client_nrf52840_xxAA_s140_6.0.0.dir/__/__/__/mesh/core/src/toolchain.c.obj
LOAD CMakeFiles/light_switch_proxy_client_nrf52840_xxAA_s140_6.0.0.dir/__/__/__/mesh/core/src/replay_cache.c.obj
LOAD CMakeFiles/light_switch_proxy_client_nrf52840_xxAA_s140_6.0.0.dir/__/__/__/mesh/core/src/beacon.c.obj
LOAD CMakeFiles/light_switch_proxy_client_nrf52840_xxAA_s140_6.0.0.dir/__/__/__/mesh/core/src/flash_manager_internal.c.obj
LOAD CMakeFiles/light_switch_proxy_client_nrf52840_xxAA_s140_6.0.0.dir/__/__/__/mesh/core/src/core_tx.c.obj
LOAD CMakeFiles/light_switch_proxy_client_nrf52840_xxAA_s140_6.0.0.dir/__/__/__/mesh/core/src/heartbeat.c.obj
LOAD CMakeFiles/light_switch_proxy_client_nrf52840_xxAA_s140_6.0.0.dir/__/__/__/mesh/core/src/net_beacon.c.obj
LOAD CMakeFiles/light_switch_proxy_client_nrf52840_xxAA_s140_6.0.0.dir/__/__/__/mesh/core/src/fsm.c.obj
LOAD CMakeFiles/light_switch_proxy_client_nrf52840_xxAA_s140_6.0.0.dir/__/__/__/mesh/core/src/core_tx_adv.c.obj
LOAD CMakeFiles/light_switch_proxy_client_nrf52840_xxAA_s140_6.0.0.dir/__/__/__/mesh/bearer/src/ad_listener.c.obj
LOAD CMakeFiles/light_switch_proxy_client_nrf52840_xxAA_s140_6.0.0.dir/__/__/__/mesh/bearer/src/ad_type_filter.c.obj
LOAD CMakeFiles/light_switch_proxy_client_nrf52840_xxAA_s140_6.0.0.dir/__/__/__/mesh/bearer/src/adv_packet_filter.c.obj
LOAD CMakeFiles/light_switch_proxy_client_nrf52840_xxAA_s140_6.0.0.dir/__/__/__/mesh/bearer/src/advertiser.c.obj
LOAD CMakeFiles/light_switch_proxy_client_nrf52840_xxAA_s140_6.0.0.dir/__/__/__/mesh/bearer/src/bearer_handler.c.obj
LOAD CMakeFiles/light_switch_proxy_client_nrf52840_xxAA_s140_6.0.0.dir/__/__/__/mesh/bearer/src/broadcast.c.obj
LOAD CMakeFiles/light_switch_proxy_client_nrf52840_xxAA_s140_6.0.0.dir/__/__/__/mesh/bearer/src/filter_engine.c.obj
LOAD CMakeFiles/light_switch_proxy_client_nrf52840_xxAA_s140_6.0.0.dir/__/__/__/mesh/bearer/src/gap_address_filter.c.obj
LOAD CMakeFiles/light_switch_proxy_client_nrf52840_xxAA_s140_6.0.0.dir/__/__/__/mesh/bearer/src/radio_config.c.obj
LOAD CMakeFiles/light_switch_proxy_client_nrf52840_xxAA_s140_6.0.0.dir/__/__/__/mesh/bearer/src/rssi_filter.c.obj
LOAD CMakeFiles/light_switch_proxy_client_nrf52840_xxAA_s140_6.0.0.dir/__/__/__/mesh/bearer/src/scanner.c.obj
LOAD CMakeFiles/light_switch_proxy_client_nrf52840_xxAA_s140_6.0.0.dir/__/__/__/mesh/gatt/src/mesh_gatt.c.obj
LOAD CMakeFiles/light_switch_proxy_client_nrf52840_xxAA_s140_6.0.0.dir/__/__/__/mesh/gatt/src/proxy.c.obj
LOAD CMakeFiles/light_switch_proxy_client_nrf52840_xxAA_s140_6.0.0.dir/__/__/__/mesh/gatt/src/proxy_filter.c.obj
LOAD CMakeFiles/light_switch_proxy_client_nrf52840_xxAA_s140_6.0.0.dir/__/__/__/models/simple_on_off/src/simple_on_off_client.c.obj
LOAD CMakeFiles/light_switch_proxy_client_nrf52840_xxAA_s140_6.0.0.dir/__/__/__/models/config/src/composition_data.c.obj
LOAD CMakeFiles/light_switch_proxy_client_nrf52840_xxAA_s140_6.0.0.dir/__/__/__/models/config/src/config_server.c.obj
LOAD CMakeFiles/light_switch_proxy_client_nrf52840_xxAA_s140_6.0.0.dir/__/__/__/models/config/src/packed_index_list.c.obj
LOAD CMakeFiles/light_switch_proxy_client_nrf52840_xxAA_s140_6.0.0.dir/__/__/__/models/health/src/health_server.c.obj
LOAD CMakeFiles/light_switch_proxy_client_nrf52840_xxAA_s140_6.0.0.dir/__/__/__/mesh/access/src/access_publish.c.obj
LOAD CMakeFiles/light_switch_proxy_client_nrf52840_xxAA_s140_6.0.0.dir/__/__/__/mesh/access/src/access.c.obj
LOAD CMakeFiles/light_switch_proxy_client_nrf52840_xxAA_s140_6.0.0.dir/__/__/__/mesh/access/src/access_reliable.c.obj
LOAD CMakeFiles/light_switch_proxy_client_nrf52840_xxAA_s140_6.0.0.dir/__/__/__/mesh/access/src/device_state_manager.c.obj
LOAD CMakeFiles/light_switch_proxy_client_nrf52840_xxAA_s140_6.0.0.dir/__/__/__/mesh/prov/src/prov_provisionee.c.obj
LOAD CMakeFiles/light_switch_proxy_client_nrf52840_xxAA_s140_6.0.0.dir/__/__/__/mesh/prov/src/nrf_mesh_prov.c.obj
LOAD CMakeFiles/light_switch_proxy_client_nrf52840_xxAA_s140_6.0.0.dir/__/__/__/mesh/prov/src/provisioning.c.obj
LOAD CMakeFiles/light_switch_proxy_client_nrf52840_xxAA_s140_6.0.0.dir/__/__/__/mesh/prov/src/prov_beacon.c.obj
LOAD CMakeFiles/light_switch_proxy_client_nrf52840_xxAA_s140_6.0.0.dir/__/__/__/mesh/prov/src/prov_utils.c.obj
LOAD CMakeFiles/light_switch_proxy_client_nrf52840_xxAA_s140_6.0.0.dir/__/__/__/mesh/prov/src/prov_bearer_adv.c.obj
LOAD CMakeFiles/light_switch_proxy_client_nrf52840_xxAA_s140_6.0.0.dir/home/mazzer/work/nordic/sdk/nRF5_SDK_15.0.0/modules/nrfx/mdk/system_nrf52840.c.obj
LOAD CMakeFiles/light_switch_proxy_client_nrf52840_xxAA_s140_6.0.0.dir/home/mazzer/work/nordic/sdk/nRF5_SDK_15.0.0/modules/nrfx/mdk/gcc_startup_nrf52840.S.obj
LOAD CMakeFiles/light_switch_proxy_client_nrf52840_xxAA_s140_6.0.0.dir/home/mazzer/work/nordic/sdk/nRF5_SDK_15.0.0/components/libraries/util/app_error_handler_gcc.c.obj
LOAD ../../../external/rtt/librtt_nrf52840_xxAA.a
LOAD ../../../external/micro-ecc/libuECC_nrf52840_xxAA.a
START GROUP
LOAD /usr/bin/../lib/gcc/arm-none-eabi/7.2.1/thumb/v7e-m/fpv4-sp/hard/libgcc.a
LOAD /usr/bin/../lib/gcc/arm-none-eabi/7.2.1/../../../../arm-none-eabi/lib/thumb/v7e-m/fpv4-sp/hard/libg_nano.a
LOAD /usr/bin/../lib/gcc/arm-none-eabi/7.2.1/../../../../arm-none-eabi/lib/thumb/v7e-m/fpv4-sp/hard/libc_nano.a
END GROUP
START GROUP
LOAD /usr/bin/../lib/gcc/arm-none-eabi/7.2.1/thumb/v7e-m/fpv4-sp/hard/libgcc.a
LOAD /usr/bin/../lib/gcc/arm-none-eabi/7.2.1/../../../../arm-none-eabi/lib/thumb/v7e-m/fpv4-sp/hard/libc_nano.a
END GROUP
LOAD /usr/bin/../lib/gcc/arm-none-eabi/7.2.1/thumb/v7e-m/fpv4-sp/hard/crtend.o
LOAD /usr/bin/../lib/gcc/arm-none-eabi/7.2.1/thumb/v7e-m/fpv4-sp/hard/crtn.o
START GROUP
LOAD /usr/bin/../lib/gcc/arm-none-eabi/7.2.1/thumb/v7e-m/fpv4-sp/hard/libgcc.a
LOAD /usr/bin/../lib/gcc/arm-none-eabi/7.2.1/../../../../arm-none-eabi/lib/thumb/v7e-m/fpv4-sp/hard/libc.a
LOAD /usr/bin/../lib/gcc/arm-none-eabi/7.2.1/../../../../arm-none-eabi/lib/thumb/v7e-m/fpv4-sp/hard/libnosys.a
END GROUP

.igot.plt       0x00000000200033f0        0x0 load address 0x0000000000043678
 .igot.plt      0x00000000200033f0        0x0 /usr/bin/../lib/gcc/arm-none-eabi/7.2.1/thumb/v7e-m/fpv4-sp/hard/crtbegin.o
                0x00000000200033f0                . = ALIGN (0x4)

.svc_data       0x00000000200033f0        0x0
                [!provide]                        PROVIDE (__start_svc_data, .)
 *(.svc_data)
                [!provide]                        PROVIDE (__stop_svc_data, .)

.fs_data        0x00000000200033f0        0x0
                [!provide]                        PROVIDE (__start_fs_data, .)
 *(.fs_data)
                [!provide]                        PROVIDE (__stop_fs_data, .)

.log_dynamic_data
                0x00000000200033f0        0x0
                [!provide]                        PROVIDE (__start_log_dynamic_data, .)
 *(.log_dynamic_data)
                [!provide]                        PROVIDE (__stop_log_dynamic_data, .)

.cli_sorted_cmd_ptrs
                0x00000000200033f0        0x0
                [!provide]                        PROVIDE (__start_cli_sorted_cmd_ptrs, .)
 *(.cli_sorted_cmd_ptrs)
                [!provide]                        PROVIDE (__stop_cli_sorted_cmd_ptrs, .)

.bss            0x00000000200033f0     0x32a4 load address 0x0000000000043678
                0x00000000200033f0                . = ALIGN (0x4)
                0x00000000200033f0                __bss_start__ = .
 *(.bss*)
 .bss           0x00000000200033f0       0x1c /usr/bin/../lib/gcc/arm-none-eabi/7.2.1/thumb/v7e-m/fpv4-sp/hard/crtbegin.o
 .bss.m_clients
                0x000000002000340c       0x40 CMakeFiles/light_switch_proxy_client_nrf52840_xxAA_s140_6.0.0.dir/src/main.c.obj
 .bss.m_device_provisioned
                0x000000002000344c        0x1 CMakeFiles/light_switch_proxy_client_nrf52840_xxAA_s140_6.0.0.dir/src/main.c.obj
 *fill*         0x000000002000344d        0x3 
 .bss.m_health_server
                0x0000000020003450       0x5c CMakeFiles/light_switch_proxy_client_nrf52840_xxAA_s140_6.0.0.dir/__/__/__/mesh/stack/src/mesh_stack.c.obj
 .bss.m_init_params
                0x00000000200034ac       0x24 CMakeFiles/light_switch_proxy_client_nrf52840_xxAA_s140_6.0.0.dir/__/__/__/mesh/stack/src/mesh_stack.c.obj
 .bss.m_device_provisioned
                0x00000000200034d0        0x1 CMakeFiles/light_switch_proxy_client_nrf52840_xxAA_s140_6.0.0.dir/__/__/common/src/mesh_provisionee.c.obj
 .bss.m_doing_gatt_reset
                0x00000000200034d1        0x1 CMakeFiles/light_switch_proxy_client_nrf52840_xxAA_s140_6.0.0.dir/__/__/common/src/mesh_provisionee.c.obj
 *fill*         0x00000000200034d2        0x2 
 .bss.m_params  0x00000000200034d4        0xc CMakeFiles/light_switch_proxy_client_nrf52840_xxAA_s140_6.0.0.dir/__/__/common/src/mesh_provisionee.c.obj
 .bss.m_private_key
                0x00000000200034e0       0x20 CMakeFiles/light_switch_proxy_client_nrf52840_xxAA_s140_6.0.0.dir/__/__/common/src/mesh_provisionee.c.obj
 .bss.m_prov_bearer_adv
                0x0000000020003500      0x1c4 CMakeFiles/light_switch_proxy_client_nrf52840_xxAA_s140_6.0.0.dir/__/__/common/src/mesh_provisionee.c.obj
 .bss.m_prov_bearer_gatt
                0x00000000200036c4       0x50 CMakeFiles/light_switch_proxy_client_nrf52840_xxAA_s140_6.0.0.dir/__/__/common/src/mesh_provisionee.c.obj
 .bss.m_prov_ctx
                0x0000000020003714      0x134 CMakeFiles/light_switch_proxy_client_nrf52840_xxAA_s140_6.0.0.dir/__/__/common/src/mesh_provisionee.c.obj
 .bss.m_public_key
                0x0000000020003848       0x40 CMakeFiles/light_switch_proxy_client_nrf52840_xxAA_s140_6.0.0.dir/__/__/common/src/mesh_provisionee.c.obj
 .bss.m_rtt_input_handler
                0x0000000020003888        0x4 CMakeFiles/light_switch_proxy_client_nrf52840_xxAA_s140_6.0.0.dir/__/__/common/src/rtt_input.c.obj
 .bss.m_button_handler_cb
                0x000000002000388c        0x4 CMakeFiles/light_switch_proxy_client_nrf52840_xxAA_s140_6.0.0.dir/__/__/common/src/simple_hal.c.obj
 .bss.m_last_button_press
                0x0000000020003890        0x4 CMakeFiles/light_switch_proxy_client_nrf52840_xxAA_s140_6.0.0.dir/__/__/common/src/simple_hal.c.obj
 .bss.m_adv_set_index
                0x0000000020003894        0x1 CMakeFiles/light_switch_proxy_client_nrf52840_xxAA_s140_6.0.0.dir/__/__/common/src/mesh_adv.c.obj
 *fill*         0x0000000020003895        0x3 
 .bss.m_advdata_raw
                0x0000000020003898       0x3e CMakeFiles/light_switch_proxy_client_nrf52840_xxAA_s140_6.0.0.dir/__/__/common/src/mesh_adv.c.obj
 *fill*         0x00000000200038d6        0x2 
 .bss.m_gap_adv_data
                0x00000000200038d8       0x10 CMakeFiles/light_switch_proxy_client_nrf52840_xxAA_s140_6.0.0.dir/__/__/common/src/mesh_adv.c.obj
 .bss.m_srdata_raw
                0x00000000200038e8       0x3e CMakeFiles/light_switch_proxy_client_nrf52840_xxAA_s140_6.0.0.dir/__/__/common/src/mesh_adv.c.obj
 *fill*         0x0000000020003926        0x2 
 .bss.m_evt_prov_link
                0x0000000020003928        0xc CMakeFiles/light_switch_proxy_client_nrf52840_xxAA_s140_6.0.0.dir/__/__/__/mesh/prov/src/nrf_mesh_prov_bearer_gatt.c.obj
 .bss.m_nrf_sdh_continue
                0x0000000020003934        0x1 CMakeFiles/light_switch_proxy_client_nrf52840_xxAA_s140_6.0.0.dir/home/mazzer/work/nordic/sdk/nRF5_SDK_15.0.0/components/softdevice/common/nrf_sdh.c.obj
 .bss.m_nrf_sdh_enabled
                0x0000000020003935        0x1 CMakeFiles/light_switch_proxy_client_nrf52840_xxAA_s140_6.0.0.dir/home/mazzer/work/nordic/sdk/nRF5_SDK_15.0.0/components/softdevice/common/nrf_sdh.c.obj
 .bss.m_nrf_sdh_suspended
                0x0000000020003936        0x1 CMakeFiles/light_switch_proxy_client_nrf52840_xxAA_s140_6.0.0.dir/home/mazzer/work/nordic/sdk/nRF5_SDK_15.0.0/components/softdevice/common/nrf_sdh.c.obj
 .bss.m_stack_is_enabled
                0x0000000020003937        0x1 CMakeFiles/light_switch_proxy_client_nrf52840_xxAA_s140_6.0.0.dir/home/mazzer/work/nordic/sdk/nRF5_SDK_15.0.0/components/softdevice/common/nrf_sdh_ble.c.obj
 .bss.m_uuid    0x0000000020003938       0x10 CMakeFiles/light_switch_proxy_client_nrf52840_xxAA_s140_6.0.0.dir/__/__/__/mesh/core/src/nrf_mesh_configure.c.obj
 .bss.m_msg_cache
                0x0000000020003948      0x100 CMakeFiles/light_switch_proxy_client_nrf52840_xxAA_s140_6.0.0.dir/__/__/__/mesh/core/src/msg_cache.c.obj
 .bss.m_msg_cache_head
                0x0000000020003a48        0x4 CMakeFiles/light_switch_proxy_client_nrf52840_xxAA_s140_6.0.0.dir/__/__/__/mesh/core/src/msg_cache.c.obj
 .bss.m_control_packet_consumer_count
                0x0000000020003a4c        0x4 CMakeFiles/light_switch_proxy_client_nrf52840_xxAA_s140_6.0.0.dir/__/__/__/mesh/core/src/transport.c.obj
 .bss.m_control_packet_consumers
                0x0000000020003a50        0x8 CMakeFiles/light_switch_proxy_client_nrf52840_xxAA_s140_6.0.0.dir/__/__/__/mesh/core/src/transport.c.obj
 .bss.m_sar_alloc
                0x0000000020003a58        0x4 CMakeFiles/light_switch_proxy_client_nrf52840_xxAA_s140_6.0.0.dir/__/__/__/mesh/core/src/transport.c.obj
 .bss.m_sar_process_flag
                0x0000000020003a5c        0x4 CMakeFiles/light_switch_proxy_client_nrf52840_xxAA_s140_6.0.0.dir/__/__/__/mesh/core/src/transport.c.obj
 .bss.m_sar_release
                0x0000000020003a60        0x4 CMakeFiles/light_switch_proxy_client_nrf52840_xxAA_s140_6.0.0.dir/__/__/__/mesh/core/src/transport.c.obj
 .bss.m_sar_session_cache
                0x0000000020003a64       0x40 CMakeFiles/light_switch_proxy_client_nrf52840_xxAA_s140_6.0.0.dir/__/__/__/mesh/core/src/transport.c.obj
 .bss.m_sar_session_cache_head
                0x0000000020003aa4        0x4 CMakeFiles/light_switch_proxy_client_nrf52840_xxAA_s140_6.0.0.dir/__/__/__/mesh/core/src/transport.c.obj
 .bss.m_trs_config
                0x0000000020003aa8       0x18 CMakeFiles/light_switch_proxy_client_nrf52840_xxAA_s140_6.0.0.dir/__/__/__/mesh/core/src/transport.c.obj
 .bss.m_trs_sar_sessions
                0x0000000020003ac0      0x1b0 CMakeFiles/light_switch_proxy_client_nrf52840_xxAA_s140_6.0.0.dir/__/__/__/mesh/core/src/transport.c.obj
 .bss.mp_evt_handlers_head
                0x0000000020003c70        0x4 CMakeFiles/light_switch_proxy_client_nrf52840_xxAA_s140_6.0.0.dir/__/__/__/mesh/core/src/event.c.obj
 .bss.m_defrag  0x0000000020003c74       0x1c CMakeFiles/light_switch_proxy_client_nrf52840_xxAA_s140_6.0.0.dir/__/__/__/mesh/core/src/flash_manager_defrag.c.obj
 .bss.m_pool    0x0000000020003c90     0x1000 CMakeFiles/light_switch_proxy_client_nrf52840_xxAA_s140_6.0.0.dir/__/__/__/mesh/core/src/packet_mgr.c.obj
 .bss.mp_free_head
                0x0000000020004c90        0x4 CMakeFiles/light_switch_proxy_client_nrf52840_xxAA_s140_6.0.0.dir/__/__/__/mesh/core/src/packet_mgr.c.obj
 .bss.iv_state_set.10307
                0x0000000020004c94        0x1 CMakeFiles/light_switch_proxy_client_nrf52840_xxAA_s140_6.0.0.dir/__/__/__/mesh/core/src/net_state.c.obj
 *fill*         0x0000000020004c95        0x3 
 .bss.lock_count.10283
                0x0000000020004c98        0x4 CMakeFiles/light_switch_proxy_client_nrf52840_xxAA_s140_6.0.0.dir/__/__/__/mesh/core/src/net_state.c.obj
 .bss.m_iv_update_timer
                0x0000000020004c9c       0x18 CMakeFiles/light_switch_proxy_client_nrf52840_xxAA_s140_6.0.0.dir/__/__/__/mesh/core/src/net_state.c.obj
 .bss.m_mesh_evt_handler
                0x0000000020004cb4        0x8 CMakeFiles/light_switch_proxy_client_nrf52840_xxAA_s140_6.0.0.dir/__/__/__/mesh/core/src/net_state.c.obj
 .bss.m_net_state
                0x0000000020004cbc       0x14 CMakeFiles/light_switch_proxy_client_nrf52840_xxAA_s140_6.0.0.dir/__/__/__/mesh/core/src/net_state.c.obj
 .bss.m_test_mode
                0x0000000020004cd0        0x1 CMakeFiles/light_switch_proxy_client_nrf52840_xxAA_s140_6.0.0.dir/__/__/__/mesh/core/src/net_state.c.obj
 *fill*         0x0000000020004cd1        0x3 
 .bss.m_event_flag
                0x0000000020004cd4        0x4 CMakeFiles/light_switch_proxy_client_nrf52840_xxAA_s140_6.0.0.dir/__/__/__/mesh/core/src/mesh_flash.c.obj
 .bss.m_users   0x0000000020004cd8      0x228 CMakeFiles/light_switch_proxy_client_nrf52840_xxAA_s140_6.0.0.dir/__/__/__/mesh/core/src/mesh_flash.c.obj
 .bss.m_is_enabled
                0x0000000020004f00        0x1 CMakeFiles/light_switch_proxy_client_nrf52840_xxAA_s140_6.0.0.dir/__/__/__/mesh/core/src/nrf_mesh.c.obj
 .bss.m_is_initialized
                0x0000000020004f01        0x1 CMakeFiles/light_switch_proxy_client_nrf52840_xxAA_s140_6.0.0.dir/__/__/__/mesh/core/src/nrf_mesh.c.obj
 *fill*         0x0000000020004f02        0x2 
 .bss.m_rx_cb   0x0000000020004f04        0x4 CMakeFiles/light_switch_proxy_client_nrf52840_xxAA_s140_6.0.0.dir/__/__/__/mesh/core/src/nrf_mesh.c.obj
 .bss.m_128buf  0x0000000020004f08       0x10 CMakeFiles/light_switch_proxy_client_nrf52840_xxAA_s140_6.0.0.dir/__/__/__/mesh/core/src/aes_cmac.c.obj
 .bss.m_subkey1
                0x0000000020004f18       0x10 CMakeFiles/light_switch_proxy_client_nrf52840_xxAA_s140_6.0.0.dir/__/__/__/mesh/core/src/aes_cmac.c.obj
 .bss.m_subkey2
                0x0000000020004f28       0x10 CMakeFiles/light_switch_proxy_client_nrf52840_xxAA_s140_6.0.0.dir/__/__/__/mesh/core/src/aes_cmac.c.obj
 .bss.m_event_flag
                0x0000000020004f38        0x4 CMakeFiles/light_switch_proxy_client_nrf52840_xxAA_s140_6.0.0.dir/__/__/__/mesh/core/src/timer_scheduler.c.obj
 .bss.m_scheduler
                0x0000000020004f3c       0x10 CMakeFiles/light_switch_proxy_client_nrf52840_xxAA_s140_6.0.0.dir/__/__/__/mesh/core/src/timer_scheduler.c.obj
 .bss.m_attributes
                0x0000000020004f4c        0x3 CMakeFiles/light_switch_proxy_client_nrf52840_xxAA_s140_6.0.0.dir/__/__/__/mesh/core/src/timer.c.obj
 *fill*         0x0000000020004f4f        0x1 
 .bss.m_callbacks
                0x0000000020004f50        0xc CMakeFiles/light_switch_proxy_client_nrf52840_xxAA_s140_6.0.0.dir/__/__/__/mesh/core/src/timer.c.obj
 .bss.m_is_in_ts
                0x0000000020004f5c        0x1 CMakeFiles/light_switch_proxy_client_nrf52840_xxAA_s140_6.0.0.dir/__/__/__/mesh/core/src/timer.c.obj
 *fill*         0x0000000020004f5d        0x3 
 .bss.m_reference_time
                0x0000000020004f60        0x4 CMakeFiles/light_switch_proxy_client_nrf52840_xxAA_s140_6.0.0.dir/__/__/__/mesh/core/src/timer.c.obj
 .bss.m_timeouts
                0x0000000020004f64        0xc CMakeFiles/light_switch_proxy_client_nrf52840_xxAA_s140_6.0.0.dir/__/__/__/mesh/core/src/timer.c.obj
 .bss.m_timer_mut
                0x0000000020004f70        0x4 CMakeFiles/light_switch_proxy_client_nrf52840_xxAA_s140_6.0.0.dir/__/__/__/mesh/core/src/timer.c.obj
 .bss.m_ts_end_time
                0x0000000020004f74        0x4 CMakeFiles/light_switch_proxy_client_nrf52840_xxAA_s140_6.0.0.dir/__/__/__/mesh/core/src/timer.c.obj
 .bss.mp_ppi_tasks
                0x0000000020004f78        0xc CMakeFiles/light_switch_proxy_client_nrf52840_xxAA_s140_6.0.0.dir/__/__/__/mesh/core/src/timer.c.obj
 .bss.m_current_time
                0x0000000020004f84        0x4 CMakeFiles/light_switch_proxy_client_nrf52840_xxAA_s140_6.0.0.dir/__/__/__/mesh/core/src/ticker.c.obj
 .bss.m_timer   0x0000000020004f88       0x18 CMakeFiles/light_switch_proxy_client_nrf52840_xxAA_s140_6.0.0.dir/__/__/__/mesh/core/src/ticker.c.obj
 .bss.m_current_timeslot
                0x0000000020004fa0       0x1c CMakeFiles/light_switch_proxy_client_nrf52840_xxAA_s140_6.0.0.dir/__/__/__/mesh/core/src/timeslot.c.obj
 .bss.m_lfclk_ppm
                0x0000000020004fbc        0x4 CMakeFiles/light_switch_proxy_client_nrf52840_xxAA_s140_6.0.0.dir/__/__/__/mesh/core/src/timeslot.c.obj
 .bss.m_radio_request_earliest
                0x0000000020004fc0       0x10 CMakeFiles/light_switch_proxy_client_nrf52840_xxAA_s140_6.0.0.dir/__/__/__/mesh/core/src/timeslot.c.obj
 .bss.m_state_lock
                0x0000000020004fd0        0x1 CMakeFiles/light_switch_proxy_client_nrf52840_xxAA_s140_6.0.0.dir/__/__/__/mesh/core/src/timeslot.c.obj
 .bss.m_timeslot_forced_command
                0x0000000020004fd1        0x1 CMakeFiles/light_switch_proxy_client_nrf52840_xxAA_s140_6.0.0.dir/__/__/__/mesh/core/src/timeslot.c.obj
 *fill*         0x0000000020004fd2        0x6 
 .bss.s_last_rtc_value.9754
                0x0000000020004fd8        0x8 CMakeFiles/light_switch_proxy_client_nrf52840_xxAA_s140_6.0.0.dir/__/__/__/mesh/core/src/timeslot.c.obj
 .bss.m_bearer_event_fifo
                0x0000000020004fe0       0x14 CMakeFiles/light_switch_proxy_client_nrf52840_xxAA_s140_6.0.0.dir/__/__/__/mesh/core/src/bearer_event.c.obj
 .bss.m_bearer_event_fifo_buffer
                0x0000000020004ff4      0x100 CMakeFiles/light_switch_proxy_client_nrf52840_xxAA_s140_6.0.0.dir/__/__/__/mesh/core/src/bearer_event.c.obj
 .bss.m_critical
                0x00000000200050f4        0x4 CMakeFiles/light_switch_proxy_client_nrf52840_xxAA_s140_6.0.0.dir/__/__/__/mesh/core/src/bearer_event.c.obj
 .bss.m_flag_count
                0x00000000200050f8        0x4 CMakeFiles/light_switch_proxy_client_nrf52840_xxAA_s140_6.0.0.dir/__/__/__/mesh/core/src/bearer_event.c.obj
 .bss.m_flag_event_callbacks
                0x00000000200050fc       0x20 CMakeFiles/light_switch_proxy_client_nrf52840_xxAA_s140_6.0.0.dir/__/__/__/mesh/core/src/bearer_event.c.obj
 .bss.m_flags   0x000000002000511c        0x4 CMakeFiles/light_switch_proxy_client_nrf52840_xxAA_s140_6.0.0.dir/__/__/__/mesh/core/src/bearer_event.c.obj
 .bss.m_irq_priority
                0x0000000020005120        0x1 CMakeFiles/light_switch_proxy_client_nrf52840_xxAA_s140_6.0.0.dir/__/__/__/mesh/core/src/bearer_event.c.obj
 *fill*         0x0000000020005121        0x3 
 .bss.m_sequential_event_queue
                0x0000000020005124        0x8 CMakeFiles/light_switch_proxy_client_nrf52840_xxAA_s140_6.0.0.dir/__/__/__/mesh/core/src/bearer_event.c.obj
 .bss.s_recursion_guard.9885
                0x000000002000512c        0x1 CMakeFiles/light_switch_proxy_client_nrf52840_xxAA_s140_6.0.0.dir/__/__/__/mesh/core/src/bearer_event.c.obj
 *fill*         0x000000002000512d        0x3 
 .bss.m_relay_check_cb
                0x0000000020005130        0x4 CMakeFiles/light_switch_proxy_client_nrf52840_xxAA_s140_6.0.0.dir/__/__/__/mesh/core/src/network.c.obj
 .bss.m_relay_enable
                0x0000000020005134        0x1 CMakeFiles/light_switch_proxy_client_nrf52840_xxAA_s140_6.0.0.dir/__/__/__/mesh/core/src/network.c.obj
 *fill*         0x0000000020005135        0x3 
 .bss.m_action_queue
                0x0000000020005138        0xc CMakeFiles/light_switch_proxy_client_nrf52840_xxAA_s140_6.0.0.dir/__/__/__/mesh/core/src/flash_manager.c.obj
 .bss.m_cache_index
                0x0000000020005144        0x1 CMakeFiles/light_switch_proxy_client_nrf52840_xxAA_s140_6.0.0.dir/__/__/__/mesh/core/src/replay_cache.c.obj
 *fill*         0x0000000020005145        0x3 
 .bss.m_replay_cache
                0x0000000020005148      0x200 CMakeFiles/light_switch_proxy_client_nrf52840_xxAA_s140_6.0.0.dir/__/__/__/mesh/core/src/replay_cache.c.obj
 .bss.m_bearer_count
                0x0000000020005348        0x1 CMakeFiles/light_switch_proxy_client_nrf52840_xxAA_s140_6.0.0.dir/__/__/__/mesh/core/src/core_tx.c.obj
 *fill*         0x0000000020005349        0x3 
 .bss.m_tx_complete_callback
                0x000000002000534c        0x4 CMakeFiles/light_switch_proxy_client_nrf52840_xxAA_s140_6.0.0.dir/__/__/__/mesh/core/src/core_tx.c.obj
 .bss.mp_bearers
                0x0000000020005350        0x4 CMakeFiles/light_switch_proxy_client_nrf52840_xxAA_s140_6.0.0.dir/__/__/__/mesh/core/src/core_tx.c.obj
 .bss.m_hb_core_evt_handler
                0x0000000020005354        0x8 CMakeFiles/light_switch_proxy_client_nrf52840_xxAA_s140_6.0.0.dir/__/__/__/mesh/core/src/heartbeat.c.obj
 .bss.m_hb_pending_feat_msg
                0x000000002000535c        0x1 CMakeFiles/light_switch_proxy_client_nrf52840_xxAA_s140_6.0.0.dir/__/__/__/mesh/core/src/heartbeat.c.obj
 .bss.m_hb_pending_pub_msg
                0x000000002000535d        0x1 CMakeFiles/light_switch_proxy_client_nrf52840_xxAA_s140_6.0.0.dir/__/__/__/mesh/core/src/heartbeat.c.obj
 .bss.m_heartbeat_init_done
                0x000000002000535e        0x1 CMakeFiles/light_switch_proxy_client_nrf52840_xxAA_s140_6.0.0.dir/__/__/__/mesh/core/src/heartbeat.c.obj
 *fill*         0x000000002000535f        0x1 
 .bss.m_heartbeat_subscription
                0x0000000020005360       0x10 CMakeFiles/light_switch_proxy_client_nrf52840_xxAA_s140_6.0.0.dir/__/__/__/mesh/core/src/heartbeat.c.obj
 .bss.m_publication_count_decrement_cb
                0x0000000020005370        0x4 CMakeFiles/light_switch_proxy_client_nrf52840_xxAA_s140_6.0.0.dir/__/__/__/mesh/core/src/heartbeat.c.obj
 .bss.m_publication_get_cb
                0x0000000020005374        0x4 CMakeFiles/light_switch_proxy_client_nrf52840_xxAA_s140_6.0.0.dir/__/__/__/mesh/core/src/heartbeat.c.obj
 .bss.m_publication_timer
                0x0000000020005378       0x1c CMakeFiles/light_switch_proxy_client_nrf52840_xxAA_s140_6.0.0.dir/__/__/__/mesh/core/src/heartbeat.c.obj
 .bss.m_subscription_timer
                0x0000000020005394       0x18 CMakeFiles/light_switch_proxy_client_nrf52840_xxAA_s140_6.0.0.dir/__/__/__/mesh/core/src/heartbeat.c.obj
 .bss.m_adv     0x00000000200053ac       0x98 CMakeFiles/light_switch_proxy_client_nrf52840_xxAA_s140_6.0.0.dir/__/__/__/mesh/core/src/net_beacon.c.obj
 .bss.m_adv_buf
                0x0000000020005444       0x34 CMakeFiles/light_switch_proxy_client_nrf52840_xxAA_s140_6.0.0.dir/__/__/__/mesh/core/src/net_beacon.c.obj
 .bss.m_beacon_salt
                0x0000000020005478       0x10 CMakeFiles/light_switch_proxy_client_nrf52840_xxAA_s140_6.0.0.dir/__/__/__/mesh/core/src/net_beacon.c.obj
 .bss.m_enabled
                0x0000000020005488        0x1 CMakeFiles/light_switch_proxy_client_nrf52840_xxAA_s140_6.0.0.dir/__/__/__/mesh/core/src/net_beacon.c.obj
 *fill*         0x0000000020005489        0x3 
 .bss.m_tx_timer
                0x000000002000548c       0x18 CMakeFiles/light_switch_proxy_client_nrf52840_xxAA_s140_6.0.0.dir/__/__/__/mesh/core/src/net_beacon.c.obj
 .bss.mp_beacon_info
                0x00000000200054a4        0x4 CMakeFiles/light_switch_proxy_client_nrf52840_xxAA_s140_6.0.0.dir/__/__/__/mesh/core/src/net_beacon.c.obj
 .bss.m_bearer  0x00000000200054a8        0xc CMakeFiles/light_switch_proxy_client_nrf52840_xxAA_s140_6.0.0.dir/__/__/__/mesh/core/src/core_tx_adv.c.obj
 .bss.m_bearer_roles
                0x00000000200054b4      0x138 CMakeFiles/light_switch_proxy_client_nrf52840_xxAA_s140_6.0.0.dir/__/__/__/mesh/core/src/core_tx_adv.c.obj
 .bss.m_current_alloc
                0x00000000200055ec        0x8 CMakeFiles/light_switch_proxy_client_nrf52840_xxAA_s140_6.0.0.dir/__/__/__/mesh/core/src/core_tx_adv.c.obj
 .bss.m_originator_adv_packet_buffer
                0x00000000200055f4      0x100 CMakeFiles/light_switch_proxy_client_nrf52840_xxAA_s140_6.0.0.dir/__/__/__/mesh/core/src/core_tx_adv.c.obj
 .bss.m_relay_adv_packet_buffer
                0x00000000200056f4       0x80 CMakeFiles/light_switch_proxy_client_nrf52840_xxAA_s140_6.0.0.dir/__/__/__/mesh/core/src/core_tx_adv.c.obj
 .bss.m_subscribers
                0x0000000020005774        0x4 CMakeFiles/light_switch_proxy_client_nrf52840_xxAA_s140_6.0.0.dir/__/__/__/mesh/bearer/src/ad_listener.c.obj
 .bss.m_adtype_filter
                0x0000000020005778       0x38 CMakeFiles/light_switch_proxy_client_nrf52840_xxAA_s140_6.0.0.dir/__/__/__/mesh/bearer/src/ad_type_filter.c.obj
 .bss.m_adv_prng
                0x00000000200057b0       0x10 CMakeFiles/light_switch_proxy_client_nrf52840_xxAA_s140_6.0.0.dir/__/__/__/mesh/bearer/src/advertiser.c.obj
 .bss.m_action_queue
                0x00000000200057c0        0x8 CMakeFiles/light_switch_proxy_client_nrf52840_xxAA_s140_6.0.0.dir/__/__/__/mesh/bearer/src/bearer_handler.c.obj
 .bss.m_end_time
                0x00000000200057c8        0x4 CMakeFiles/light_switch_proxy_client_nrf52840_xxAA_s140_6.0.0.dir/__/__/__/mesh/bearer/src/bearer_handler.c.obj
 .bss.m_scanner_is_active
                0x00000000200057cc        0x1 CMakeFiles/light_switch_proxy_client_nrf52840_xxAA_s140_6.0.0.dir/__/__/__/mesh/bearer/src/bearer_handler.c.obj
 .bss.m_stopped
                0x00000000200057cd        0x1 CMakeFiles/light_switch_proxy_client_nrf52840_xxAA_s140_6.0.0.dir/__/__/__/mesh/bearer/src/bearer_handler.c.obj
 *fill*         0x00000000200057ce        0x2 
 .bss.mp_action
                0x00000000200057d0        0x4 CMakeFiles/light_switch_proxy_client_nrf52840_xxAA_s140_6.0.0.dir/__/__/__/mesh/bearer/src/bearer_handler.c.obj
 .bss.m_next_channel_index
                0x00000000200057d4        0x1 CMakeFiles/light_switch_proxy_client_nrf52840_xxAA_s140_6.0.0.dir/__/__/__/mesh/bearer/src/broadcast.c.obj
 *fill*         0x00000000200057d5        0x3 
 .bss.m_accepted_amount
                0x00000000200057d8        0x4 CMakeFiles/light_switch_proxy_client_nrf52840_xxAA_s140_6.0.0.dir/__/__/__/mesh/bearer/src/filter_engine.c.obj
 .bss.m_filter_list_head
                0x00000000200057dc        0x4 CMakeFiles/light_switch_proxy_client_nrf52840_xxAA_s140_6.0.0.dir/__/__/__/mesh/bearer/src/filter_engine.c.obj
 .bss.m_scanner
                0x00000000200057e0      0x290 CMakeFiles/light_switch_proxy_client_nrf52840_xxAA_s140_6.0.0.dir/__/__/__/mesh/bearer/src/scanner.c.obj
 .bss.m_gatt    0x0000000020005a70      0x16c CMakeFiles/light_switch_proxy_client_nrf52840_xxAA_s140_6.0.0.dir/__/__/__/mesh/gatt/src/mesh_gatt.c.obj
 .bss.m_advertising
                0x0000000020005bdc       0x24 CMakeFiles/light_switch_proxy_client_nrf52840_xxAA_s140_6.0.0.dir/__/__/__/mesh/gatt/src/proxy.c.obj
 .bss.m_beacon_cache
                0x0000000020005c00       0x1c CMakeFiles/light_switch_proxy_client_nrf52840_xxAA_s140_6.0.0.dir/__/__/__/mesh/gatt/src/proxy.c.obj
 .bss.m_beacon_cache_entries
                0x0000000020005c1c       0x40 CMakeFiles/light_switch_proxy_client_nrf52840_xxAA_s140_6.0.0.dir/__/__/__/mesh/gatt/src/proxy.c.obj
 .bss.m_connections
                0x0000000020005c5c       0x5c CMakeFiles/light_switch_proxy_client_nrf52840_xxAA_s140_6.0.0.dir/__/__/__/mesh/gatt/src/proxy.c.obj
 .bss.m_enabled
                0x0000000020005cb8        0x1 CMakeFiles/light_switch_proxy_client_nrf52840_xxAA_s140_6.0.0.dir/__/__/__/mesh/gatt/src/proxy.c.obj
 *fill*         0x0000000020005cb9        0x3 
 .bss.m_mesh_evt_handler
                0x0000000020005cbc        0x8 CMakeFiles/light_switch_proxy_client_nrf52840_xxAA_s140_6.0.0.dir/__/__/__/mesh/gatt/src/proxy.c.obj
 .bss.m_tid     0x0000000020005cc4        0x1 CMakeFiles/light_switch_proxy_client_nrf52840_xxAA_s140_6.0.0.dir/__/__/__/models/simple_on_off/src/simple_on_off_client.c.obj
 *fill*         0x0000000020005cc5        0x3 
 .bss.m_evt_cb  0x0000000020005cc8        0x4 CMakeFiles/light_switch_proxy_client_nrf52840_xxAA_s140_6.0.0.dir/__/__/__/models/config/src/config_server.c.obj
 .bss.m_heartbeat_publication
                0x0000000020005ccc       0x14 CMakeFiles/light_switch_proxy_client_nrf52840_xxAA_s140_6.0.0.dir/__/__/__/models/config/src/config_server.c.obj
 .bss.m_node_reset_pending
                0x0000000020005ce0        0x1 CMakeFiles/light_switch_proxy_client_nrf52840_xxAA_s140_6.0.0.dir/__/__/__/models/config/src/config_server.c.obj
 *fill*         0x0000000020005ce1        0x3 
 .bss.m_attention_timer
                0x0000000020005ce4       0x18 CMakeFiles/light_switch_proxy_client_nrf52840_xxAA_s140_6.0.0.dir/__/__/__/models/health/src/health_server.c.obj
 .bss.mp_attention_list
                0x0000000020005cfc        0x4 CMakeFiles/light_switch_proxy_client_nrf52840_xxAA_s140_6.0.0.dir/__/__/__/models/health/src/health_server.c.obj
 .bss.m_publish_timer
                0x0000000020005d00       0x18 CMakeFiles/light_switch_proxy_client_nrf52840_xxAA_s140_6.0.0.dir/__/__/__/mesh/access/src/access_publish.c.obj
 .bss.m_publish_timer_counter
                0x0000000020005d18        0x4 CMakeFiles/light_switch_proxy_client_nrf52840_xxAA_s140_6.0.0.dir/__/__/__/mesh/access/src/access_publish.c.obj
 .bss.m_publish_timer_running
                0x0000000020005d1c        0x1 CMakeFiles/light_switch_proxy_client_nrf52840_xxAA_s140_6.0.0.dir/__/__/__/mesh/access/src/access_publish.c.obj
 .bss.m_timer_resolution
                0x0000000020005d1d        0x1 CMakeFiles/light_switch_proxy_client_nrf52840_xxAA_s140_6.0.0.dir/__/__/__/mesh/access/src/access_publish.c.obj
 *fill*         0x0000000020005d1e        0x2 
 .bss.mp_publication_list
                0x0000000020005d20        0x4 CMakeFiles/light_switch_proxy_client_nrf52840_xxAA_s140_6.0.0.dir/__/__/__/mesh/access/src/access_publish.c.obj
 .bss.m_element_pool
                0x0000000020005d24       0x1e CMakeFiles/light_switch_proxy_client_nrf52840_xxAA_s140_6.0.0.dir/__/__/__/mesh/access/src/access.c.obj
 *fill*         0x0000000020005d42        0x2 
 .bss.m_evt_handler
                0x0000000020005d44        0x8 CMakeFiles/light_switch_proxy_client_nrf52840_xxAA_s140_6.0.0.dir/__/__/__/mesh/access/src/access.c.obj
 .bss.m_model_pool
                0x0000000020005d4c      0x138 CMakeFiles/light_switch_proxy_client_nrf52840_xxAA_s140_6.0.0.dir/__/__/__/mesh/access/src/access.c.obj
 .bss.m_subscription_list_pool
                0x0000000020005e84       0x30 CMakeFiles/light_switch_proxy_client_nrf52840_xxAA_s140_6.0.0.dir/__/__/__/mesh/access/src/access.c.obj
 .bss.m_reliable
                0x0000000020005eb4      0x124 CMakeFiles/light_switch_proxy_client_nrf52840_xxAA_s140_6.0.0.dir/__/__/__/mesh/access/src/access_reliable.c.obj
 .bss.m_addr_nonvirtual_allocated
                0x0000000020005fd8        0x4 CMakeFiles/light_switch_proxy_client_nrf52840_xxAA_s140_6.0.0.dir/__/__/__/mesh/access/src/device_state_manager.c.obj
 .bss.m_addr_nonvirtual_needs_flashing
                0x0000000020005fdc        0x4 CMakeFiles/light_switch_proxy_client_nrf52840_xxAA_s140_6.0.0.dir/__/__/__/mesh/access/src/device_state_manager.c.obj
 .bss.m_addr_unicast_allocated
                0x0000000020005fe0        0x4 CMakeFiles/light_switch_proxy_client_nrf52840_xxAA_s140_6.0.0.dir/__/__/__/mesh/access/src/device_state_manager.c.obj
 .bss.m_addr_unicast_needs_flashing
                0x0000000020005fe4        0x4 CMakeFiles/light_switch_proxy_client_nrf52840_xxAA_s140_6.0.0.dir/__/__/__/mesh/access/src/device_state_manager.c.obj
 .bss.m_addr_virtual_allocated
                0x0000000020005fe8        0x4 CMakeFiles/light_switch_proxy_client_nrf52840_xxAA_s140_6.0.0.dir/__/__/__/mesh/access/src/device_state_manager.c.obj
 .bss.m_addr_virtual_needs_flashing
                0x0000000020005fec        0x4 CMakeFiles/light_switch_proxy_client_nrf52840_xxAA_s140_6.0.0.dir/__/__/__/mesh/access/src/device_state_manager.c.obj
 .bss.m_addresses
                0x0000000020005ff0       0x1c CMakeFiles/light_switch_proxy_client_nrf52840_xxAA_s140_6.0.0.dir/__/__/__/mesh/access/src/device_state_manager.c.obj
 .bss.m_appkey_allocated
                0x000000002000600c        0x4 CMakeFiles/light_switch_proxy_client_nrf52840_xxAA_s140_6.0.0.dir/__/__/__/mesh/access/src/device_state_manager.c.obj
 .bss.m_appkey_needs_flashing
                0x0000000020006010        0x4 CMakeFiles/light_switch_proxy_client_nrf52840_xxAA_s140_6.0.0.dir/__/__/__/mesh/access/src/device_state_manager.c.obj
 .bss.m_appkeys
                0x0000000020006014       0x2a CMakeFiles/light_switch_proxy_client_nrf52840_xxAA_s140_6.0.0.dir/__/__/__/mesh/access/src/device_state_manager.c.obj
 *fill*         0x000000002000603e        0x2 
 .bss.m_devkey_allocated
                0x0000000020006040        0x4 CMakeFiles/light_switch_proxy_client_nrf52840_xxAA_s140_6.0.0.dir/__/__/__/mesh/access/src/device_state_manager.c.obj
 .bss.m_devkey_needs_flashing
                0x0000000020006044        0x4 CMakeFiles/light_switch_proxy_client_nrf52840_xxAA_s140_6.0.0.dir/__/__/__/mesh/access/src/device_state_manager.c.obj
 .bss.m_devkeys
                0x0000000020006048       0x16 CMakeFiles/light_switch_proxy_client_nrf52840_xxAA_s140_6.0.0.dir/__/__/__/mesh/access/src/device_state_manager.c.obj
 .bss.m_has_primary_subnet
                0x000000002000605e        0x1 CMakeFiles/light_switch_proxy_client_nrf52840_xxAA_s140_6.0.0.dir/__/__/__/mesh/access/src/device_state_manager.c.obj
 *fill*         0x000000002000605f        0x1 
 .bss.m_local_unicast_addr
                0x0000000020006060        0x4 CMakeFiles/light_switch_proxy_client_nrf52840_xxAA_s140_6.0.0.dir/__/__/__/mesh/access/src/device_state_manager.c.obj
 .bss.m_mesh_evt_handler
                0x0000000020006064        0x8 CMakeFiles/light_switch_proxy_client_nrf52840_xxAA_s140_6.0.0.dir/__/__/__/mesh/access/src/device_state_manager.c.obj
 .bss.m_subnet_allocated
                0x000000002000606c        0x4 CMakeFiles/light_switch_proxy_client_nrf52840_xxAA_s140_6.0.0.dir/__/__/__/mesh/access/src/device_state_manager.c.obj
 .bss.m_subnet_needs_flashing
                0x0000000020006070        0x4 CMakeFiles/light_switch_proxy_client_nrf52840_xxAA_s140_6.0.0.dir/__/__/__/mesh/access/src/device_state_manager.c.obj
 .bss.m_subnets
                0x0000000020006074       0xc8 CMakeFiles/light_switch_proxy_client_nrf52840_xxAA_s140_6.0.0.dir/__/__/__/mesh/access/src/device_state_manager.c.obj
 .bss.m_virtual_addresses
                0x000000002000613c       0x14 CMakeFiles/light_switch_proxy_client_nrf52840_xxAA_s140_6.0.0.dir/__/__/__/mesh/access/src/device_state_manager.c.obj
 .bss.m_event_handler
                0x0000000020006150        0x4 CMakeFiles/light_switch_proxy_client_nrf52840_xxAA_s140_6.0.0.dir/__/__/__/mesh/prov/src/prov_beacon.c.obj
 .bss.m_offload_ecdh
                0x0000000020006154        0x1 CMakeFiles/light_switch_proxy_client_nrf52840_xxAA_s140_6.0.0.dir/__/__/__/mesh/prov/src/prov_utils.c.obj
 *fill*         0x0000000020006155        0x3 
 .bss.mp_bearer_head
                0x0000000020006158        0x4 CMakeFiles/light_switch_proxy_client_nrf52840_xxAA_s140_6.0.0.dir/__/__/__/mesh/prov/src/prov_bearer_adv.c.obj
 .bss._acDownBuffer
                0x000000002000615c       0x80 ../../../external/rtt/librtt_nrf52840_xxAA.a(SEGGER_RTT.c.obj)
 .bss._acUpBuffer
                0x00000000200061dc      0x400 ../../../external/rtt/librtt_nrf52840_xxAA.a(SEGGER_RTT.c.obj)
 .bss.__malloc_free_list
                0x00000000200065dc        0x4 /usr/bin/../lib/gcc/arm-none-eabi/7.2.1/../../../../arm-none-eabi/lib/thumb/v7e-m/fpv4-sp/hard/libg_nano.a(lib_a-nano-mallocr.o)
                0x00000000200065dc                __malloc_free_list
 .bss.__malloc_sbrk_start
                0x00000000200065e0        0x4 /usr/bin/../lib/gcc/arm-none-eabi/7.2.1/../../../../arm-none-eabi/lib/thumb/v7e-m/fpv4-sp/hard/libg_nano.a(lib_a-nano-mallocr.o)
                0x00000000200065e0                __malloc_sbrk_start
 .bss.heap_end.5377
                0x00000000200065e4        0x4 /usr/bin/../lib/gcc/arm-none-eabi/7.2.1/../../../../arm-none-eabi/lib/thumb/v7e-m/fpv4-sp/hard/libnosys.a(sbrk.o)
 *(COMMON)
 COMMON         0x00000000200065e8        0xc CMakeFiles/light_switch_proxy_client_nrf52840_xxAA_s140_6.0.0.dir/home/mazzer/work/nordic/sdk/nRF5_SDK_15.0.0/components/libraries/util/app_util_platform.c.obj
                0x00000000200065e8                nrf_nvic_state
 COMMON         0x00000000200065f4       0x24 CMakeFiles/light_switch_proxy_client_nrf52840_xxAA_s140_6.0.0.dir/__/__/__/mesh/core/src/core_tx.c.obj
                0x00000000200065f4                m_packet
 COMMON         0x0000000020006618       0x78 ../../../external/rtt/librtt_nrf52840_xxAA.a(SEGGER_RTT.c.obj)
                0x0000000020006618                _SEGGER_RTT
 COMMON         0x0000000020006690        0x4 /usr/bin/../lib/gcc/arm-none-eabi/7.2.1/../../../../arm-none-eabi/lib/thumb/v7e-m/fpv4-sp/hard/libg_nano.a(lib_a-reent.o)
                0x0000000020006690                errno
                0x0000000020006694                . = ALIGN (0x4)
                0x0000000020006694                __bss_end__ = .

.heap           0x0000000020006698     0x2000
                0x0000000020006698                __HeapBase = .
                0x0000000020006698                __end__ = .
                0x0000000020006698                PROVIDE (end, .)
 *(.heap*)
 .heap          0x0000000020006698     0x2000 CMakeFiles/light_switch_proxy_client_nrf52840_xxAA_s140_6.0.0.dir/home/mazzer/work/nordic/sdk/nRF5_SDK_15.0.0/modules/nrfx/mdk/gcc_startup_nrf52840.S.obj
                0x0000000020008698                __HeapLimit = .

.stack_dummy    0x0000000020006698     0x2000
 *(.stack*)
 .stack         0x0000000020006698     0x2000 CMakeFiles/light_switch_proxy_client_nrf52840_xxAA_s140_6.0.0.dir/home/mazzer/work/nordic/sdk/nRF5_SDK_15.0.0/modules/nrfx/mdk/gcc_startup_nrf52840.S.obj
                0x000000002003fd00                __StackTop = (ORIGIN (RAM) + LENGTH (RAM))
                0x000000002003dd00                __StackLimit = (__StackTop - SIZEOF (.stack_dummy))
                0x000000002003fd00                PROVIDE (__stack, __StackTop)
                0x0000000000000001                ASSERT ((__StackLimit >= __HeapLimit), region RAM overflowed with stack)
                0x0000000000000128                DataInitFlashUsed = (__bss_start__ - __data_start__)
                0x000000000001d550                CodeFlashUsed = (__etext - ORIGIN (FLASH))
                0x000000000001d678                TotalFlashUsed = (CodeFlashUsed + DataInitFlashUsed)
                0x0000000000000001                ASSERT ((TotalFlashUsed <= LENGTH (FLASH)), region FLASH overflowed with .data and user data)
OUTPUT(light_switch_proxy_client_nrf52840_xxAA_s140_6.0.0.elf elf32-littlearm)

.ARM.attributes
                0x0000000000000000       0x30
 .ARM.attributes
                0x0000000000000000       0x22 /usr/bin/../lib/gcc/arm-none-eabi/7.2.1/thumb/v7e-m/fpv4-sp/hard/crti.o
 .ARM.attributes
                0x0000000000000022       0x34 /usr/bin/../lib/gcc/arm-none-eabi/7.2.1/thumb/v7e-m/fpv4-sp/hard/crtbegin.o
 .ARM.attributes
                0x0000000000000056       0x20 /usr/bin/../lib/gcc/arm-none-eabi/7.2.1/../../../../arm-none-eabi/lib/thumb/v7e-m/fpv4-sp/hard/crt0.o
 .ARM.attributes
                0x0000000000000076       0x39 CMakeFiles/light_switch_proxy_client_nrf52840_xxAA_s140_6.0.0.dir/src/main.c.obj
 .ARM.attributes
                0x00000000000000af       0x39 CMakeFiles/light_switch_proxy_client_nrf52840_xxAA_s140_6.0.0.dir/__/__/__/mesh/stack/src/mesh_stack.c.obj
 .ARM.attributes
                0x00000000000000e8       0x39 CMakeFiles/light_switch_proxy_client_nrf52840_xxAA_s140_6.0.0.dir/__/__/common/src/mesh_provisionee.c.obj
 .ARM.attributes
                0x0000000000000121       0x39 CMakeFiles/light_switch_proxy_client_nrf52840_xxAA_s140_6.0.0.dir/__/__/common/src/rtt_input.c.obj
 .ARM.attributes
                0x000000000000015a       0x39 CMakeFiles/light_switch_proxy_client_nrf52840_xxAA_s140_6.0.0.dir/__/__/common/src/simple_hal.c.obj
 .ARM.attributes
                0x0000000000000193       0x39 CMakeFiles/light_switch_proxy_client_nrf52840_xxAA_s140_6.0.0.dir/__/__/common/src/mesh_adv.c.obj
 .ARM.attributes
                0x00000000000001cc       0x39 CMakeFiles/light_switch_proxy_client_nrf52840_xxAA_s140_6.0.0.dir/__/__/__/mesh/prov/src/nrf_mesh_prov_bearer_gatt.c.obj
 .ARM.attributes
                0x0000000000000205       0x39 CMakeFiles/light_switch_proxy_client_nrf52840_xxAA_s140_6.0.0.dir/home/mazzer/work/nordic/sdk/nRF5_SDK_15.0.0/components/libraries/util/app_error.c.obj
 .ARM.attributes
                0x000000000000023e       0x39 CMakeFiles/light_switch_proxy_client_nrf52840_xxAA_s140_6.0.0.dir/home/mazzer/work/nordic/sdk/nRF5_SDK_15.0.0/components/libraries/util/app_util_platform.c.obj
 .ARM.attributes
                0x0000000000000277       0x39 CMakeFiles/light_switch_proxy_client_nrf52840_xxAA_s140_6.0.0.dir/home/mazzer/work/nordic/sdk/nRF5_SDK_15.0.0/components/ble/common/ble_advdata.c.obj
 .ARM.attributes
                0x00000000000002b0       0x39 CMakeFiles/light_switch_proxy_client_nrf52840_xxAA_s140_6.0.0.dir/home/mazzer/work/nordic/sdk/nRF5_SDK_15.0.0/components/libraries/experimental_section_vars/nrf_section_iter.c.obj
 .ARM.attributes
                0x00000000000002e9       0x39 CMakeFiles/light_switch_proxy_client_nrf52840_xxAA_s140_6.0.0.dir/home/mazzer/work/nordic/sdk/nRF5_SDK_15.0.0/components/softdevice/common/nrf_sdh.c.obj
 .ARM.attributes
                0x0000000000000322       0x39 CMakeFiles/light_switch_proxy_client_nrf52840_xxAA_s140_6.0.0.dir/home/mazzer/work/nordic/sdk/nRF5_SDK_15.0.0/components/softdevice/common/nrf_sdh_soc.c.obj
 .ARM.attributes
                0x000000000000035b       0x39 CMakeFiles/light_switch_proxy_client_nrf52840_xxAA_s140_6.0.0.dir/home/mazzer/work/nordic/sdk/nRF5_SDK_15.0.0/components/softdevice/common/nrf_sdh_ble.c.obj
 .ARM.attributes
                0x0000000000000394       0x39 CMakeFiles/light_switch_proxy_client_nrf52840_xxAA_s140_6.0.0.dir/__/__/nrf_mesh_weak.c.obj
 .ARM.attributes
                0x00000000000003cd       0x39 CMakeFiles/light_switch_proxy_client_nrf52840_xxAA_s140_6.0.0.dir/__/__/common/src/app_error_weak.c.obj
 .ARM.attributes
                0x0000000000000406       0x39 CMakeFiles/light_switch_proxy_client_nrf52840_xxAA_s140_6.0.0.dir/__/__/common/src/assertion_handler_weak.c.obj
 .ARM.attributes
                0x000000000000043f       0x39 CMakeFiles/light_switch_proxy_client_nrf52840_xxAA_s140_6.0.0.dir/__/__/__/mesh/core/src/nrf_mesh_configure.c.obj
 .ARM.attributes
                0x0000000000000478       0x39 CMakeFiles/light_switch_proxy_client_nrf52840_xxAA_s140_6.0.0.dir/__/__/__/mesh/core/src/aes.c.obj
 .ARM.attributes
                0x00000000000004b1       0x39 CMakeFiles/light_switch_proxy_client_nrf52840_xxAA_s140_6.0.0.dir/__/__/__/mesh/core/src/msg_cache.c.obj
 .ARM.attributes
                0x00000000000004ea       0x39 CMakeFiles/light_switch_proxy_client_nrf52840_xxAA_s140_6.0.0.dir/__/__/__/mesh/core/src/transport.c.obj
 .ARM.attributes
                0x0000000000000523       0x39 CMakeFiles/light_switch_proxy_client_nrf52840_xxAA_s140_6.0.0.dir/__/__/__/mesh/core/src/event.c.obj
 .ARM.attributes
                0x000000000000055c       0x39 CMakeFiles/light_switch_proxy_client_nrf52840_xxAA_s140_6.0.0.dir/__/__/__/mesh/core/src/packet_buffer.c.obj
 .ARM.attributes
                0x0000000000000595       0x39 CMakeFiles/light_switch_proxy_client_nrf52840_xxAA_s140_6.0.0.dir/__/__/__/mesh/core/src/flash_manager_defrag.c.obj
 .ARM.attributes
                0x00000000000005ce       0x39 CMakeFiles/light_switch_proxy_client_nrf52840_xxAA_s140_6.0.0.dir/__/__/__/mesh/core/src/fifo.c.obj
 .ARM.attributes
                0x0000000000000607       0x39 CMakeFiles/light_switch_proxy_client_nrf52840_xxAA_s140_6.0.0.dir/__/__/__/mesh/core/src/packet_mgr.c.obj
 .ARM.attributes
                0x0000000000000640       0x39 CMakeFiles/light_switch_proxy_client_nrf52840_xxAA_s140_6.0.0.dir/__/__/__/mesh/core/src/net_state.c.obj
 .ARM.attributes
                0x0000000000000679       0x39 CMakeFiles/light_switch_proxy_client_nrf52840_xxAA_s140_6.0.0.dir/__/__/__/mesh/core/src/mesh_flash.c.obj
 .ARM.attributes
                0x00000000000006b2       0x39 CMakeFiles/light_switch_proxy_client_nrf52840_xxAA_s140_6.0.0.dir/__/__/__/mesh/core/src/nrf_mesh_utils.c.obj
 .ARM.attributes
                0x00000000000006eb       0x39 CMakeFiles/light_switch_proxy_client_nrf52840_xxAA_s140_6.0.0.dir/__/__/__/mesh/core/src/nrf_mesh.c.obj
 .ARM.attributes
                0x0000000000000724       0x39 CMakeFiles/light_switch_proxy_client_nrf52840_xxAA_s140_6.0.0.dir/__/__/__/mesh/core/src/queue.c.obj
 .ARM.attributes
                0x000000000000075d       0x39 CMakeFiles/light_switch_proxy_client_nrf52840_xxAA_s140_6.0.0.dir/__/__/__/mesh/core/src/hal.c.obj
 .ARM.attributes
                0x0000000000000796       0x39 CMakeFiles/light_switch_proxy_client_nrf52840_xxAA_s140_6.0.0.dir/__/__/__/mesh/core/src/aes_cmac.c.obj
 .ARM.attributes
                0x00000000000007cf       0x39 CMakeFiles/light_switch_proxy_client_nrf52840_xxAA_s140_6.0.0.dir/__/__/__/mesh/core/src/timer_scheduler.c.obj
 .ARM.attributes
                0x0000000000000808       0x39 CMakeFiles/light_switch_proxy_client_nrf52840_xxAA_s140_6.0.0.dir/__/__/__/mesh/core/src/timer.c.obj
 .ARM.attributes
                0x0000000000000841       0x39 CMakeFiles/light_switch_proxy_client_nrf52840_xxAA_s140_6.0.0.dir/__/__/__/mesh/core/src/ticker.c.obj
 .ARM.attributes
                0x000000000000087a       0x39 CMakeFiles/light_switch_proxy_client_nrf52840_xxAA_s140_6.0.0.dir/__/__/__/mesh/core/src/rand.c.obj
 .ARM.attributes
                0x00000000000008b3       0x39 CMakeFiles/light_switch_proxy_client_nrf52840_xxAA_s140_6.0.0.dir/__/__/__/mesh/core/src/nrf_mesh_opt.c.obj
 .ARM.attributes
                0x00000000000008ec       0x39 CMakeFiles/light_switch_proxy_client_nrf52840_xxAA_s140_6.0.0.dir/__/__/__/mesh/core/src/timeslot.c.obj
 .ARM.attributes
                0x0000000000000925       0x39 CMakeFiles/light_switch_proxy_client_nrf52840_xxAA_s140_6.0.0.dir/__/__/__/mesh/core/src/bearer_event.c.obj
 .ARM.attributes
                0x000000000000095e       0x39 CMakeFiles/light_switch_proxy_client_nrf52840_xxAA_s140_6.0.0.dir/__/__/__/mesh/core/src/enc.c.obj
 .ARM.attributes
                0x0000000000000997       0x39 CMakeFiles/light_switch_proxy_client_nrf52840_xxAA_s140_6.0.0.dir/__/__/__/mesh/core/src/network.c.obj
 .ARM.attributes
                0x00000000000009d0       0x39 CMakeFiles/light_switch_proxy_client_nrf52840_xxAA_s140_6.0.0.dir/__/__/__/mesh/core/src/net_packet.c.obj
 .ARM.attributes
                0x0000000000000a09       0x39 CMakeFiles/light_switch_proxy_client_nrf52840_xxAA_s140_6.0.0.dir/__/__/__/mesh/core/src/msqueue.c.obj
 .ARM.attributes
                0x0000000000000a42       0x39 CMakeFiles/light_switch_proxy_client_nrf52840_xxAA_s140_6.0.0.dir/__/__/__/mesh/core/src/nrf_mesh_keygen.c.obj
 .ARM.attributes
                0x0000000000000a7b       0x39 CMakeFiles/light_switch_proxy_client_nrf52840_xxAA_s140_6.0.0.dir/__/__/__/mesh/core/src/cache.c.obj
 .ARM.attributes
                0x0000000000000ab4       0x39 CMakeFiles/light_switch_proxy_client_nrf52840_xxAA_s140_6.0.0.dir/__/__/__/mesh/core/src/list.c.obj
 .ARM.attributes
                0x0000000000000aed       0x39 CMakeFiles/light_switch_proxy_client_nrf52840_xxAA_s140_6.0.0.dir/__/__/__/mesh/core/src/log.c.obj
 .ARM.attributes
                0x0000000000000b26       0x39 CMakeFiles/light_switch_proxy_client_nrf52840_xxAA_s140_6.0.0.dir/__/__/__/mesh/core/src/flash_manager.c.obj
 .ARM.attributes
                0x0000000000000b5f       0x39 CMakeFiles/light_switch_proxy_client_nrf52840_xxAA_s140_6.0.0.dir/__/__/__/mesh/core/src/ccm_soft.c.obj
 .ARM.attributes
                0x0000000000000b98       0x39 CMakeFiles/light_switch_proxy_client_nrf52840_xxAA_s140_6.0.0.dir/__/__/__/mesh/core/src/replay_cache.c.obj
 .ARM.attributes
                0x0000000000000bd1       0x39 CMakeFiles/light_switch_proxy_client_nrf52840_xxAA_s140_6.0.0.dir/__/__/__/mesh/core/src/beacon.c.obj
 .ARM.attributes
                0x0000000000000c0a       0x39 CMakeFiles/light_switch_proxy_client_nrf52840_xxAA_s140_6.0.0.dir/__/__/__/mesh/core/src/core_tx.c.obj
 .ARM.attributes
                0x0000000000000c43       0x39 CMakeFiles/light_switch_proxy_client_nrf52840_xxAA_s140_6.0.0.dir/__/__/__/mesh/core/src/heartbeat.c.obj
 .ARM.attributes
                0x0000000000000c7c       0x39 CMakeFiles/light_switch_proxy_client_nrf52840_xxAA_s140_6.0.0.dir/__/__/__/mesh/core/src/net_beacon.c.obj
 .ARM.attributes
                0x0000000000000cb5       0x39 CMakeFiles/light_switch_proxy_client_nrf52840_xxAA_s140_6.0.0.dir/__/__/__/mesh/core/src/fsm.c.obj
 .ARM.attributes
                0x0000000000000cee       0x39 CMakeFiles/light_switch_proxy_client_nrf52840_xxAA_s140_6.0.0.dir/__/__/__/mesh/core/src/core_tx_adv.c.obj
 .ARM.attributes
                0x0000000000000d27       0x39 CMakeFiles/light_switch_proxy_client_nrf52840_xxAA_s140_6.0.0.dir/__/__/__/mesh/bearer/src/ad_listener.c.obj
 .ARM.attributes
                0x0000000000000d60       0x39 CMakeFiles/light_switch_proxy_client_nrf52840_xxAA_s140_6.0.0.dir/__/__/__/mesh/bearer/src/ad_type_filter.c.obj
 .ARM.attributes
                0x0000000000000d99       0x39 CMakeFiles/light_switch_proxy_client_nrf52840_xxAA_s140_6.0.0.dir/__/__/__/mesh/bearer/src/advertiser.c.obj
 .ARM.attributes
                0x0000000000000dd2       0x39 CMakeFiles/light_switch_proxy_client_nrf52840_xxAA_s140_6.0.0.dir/__/__/__/mesh/bearer/src/bearer_handler.c.obj
 .ARM.attributes
                0x0000000000000e0b       0x39 CMakeFiles/light_switch_proxy_client_nrf52840_xxAA_s140_6.0.0.dir/__/__/__/mesh/bearer/src/broadcast.c.obj
 .ARM.attributes
                0x0000000000000e44       0x39 CMakeFiles/light_switch_proxy_client_nrf52840_xxAA_s140_6.0.0.dir/__/__/__/mesh/bearer/src/filter_engine.c.obj
 .ARM.attributes
                0x0000000000000e7d       0x39 CMakeFiles/light_switch_proxy_client_nrf52840_xxAA_s140_6.0.0.dir/__/__/__/mesh/bearer/src/radio_config.c.obj
 .ARM.attributes
                0x0000000000000eb6       0x39 CMakeFiles/light_switch_proxy_client_nrf52840_xxAA_s140_6.0.0.dir/__/__/__/mesh/bearer/src/scanner.c.obj
 .ARM.attributes
                0x0000000000000eef       0x39 CMakeFiles/light_switch_proxy_client_nrf52840_xxAA_s140_6.0.0.dir/__/__/__/mesh/gatt/src/mesh_gatt.c.obj
 .ARM.attributes
                0x0000000000000f28       0x39 CMakeFiles/light_switch_proxy_client_nrf52840_xxAA_s140_6.0.0.dir/__/__/__/mesh/gatt/src/proxy.c.obj
 .ARM.attributes
                0x0000000000000f61       0x39 CMakeFiles/light_switch_proxy_client_nrf52840_xxAA_s140_6.0.0.dir/__/__/__/mesh/gatt/src/proxy_filter.c.obj
 .ARM.attributes
                0x0000000000000f9a       0x39 CMakeFiles/light_switch_proxy_client_nrf52840_xxAA_s140_6.0.0.dir/__/__/__/models/simple_on_off/src/simple_on_off_client.c.obj
 .ARM.attributes
                0x0000000000000fd3       0x39 CMakeFiles/light_switch_proxy_client_nrf52840_xxAA_s140_6.0.0.dir/__/__/__/models/config/src/composition_data.c.obj
 .ARM.attributes
                0x000000000000100c       0x39 CMakeFiles/light_switch_proxy_client_nrf52840_xxAA_s140_6.0.0.dir/__/__/__/models/config/src/config_server.c.obj
 .ARM.attributes
                0x0000000000001045       0x39 CMakeFiles/light_switch_proxy_client_nrf52840_xxAA_s140_6.0.0.dir/__/__/__/models/config/src/packed_index_list.c.obj
 .ARM.attributes
                0x000000000000107e       0x39 CMakeFiles/light_switch_proxy_client_nrf52840_xxAA_s140_6.0.0.dir/__/__/__/models/health/src/health_server.c.obj
 .ARM.attributes
                0x00000000000010b7       0x39 CMakeFiles/light_switch_proxy_client_nrf52840_xxAA_s140_6.0.0.dir/__/__/__/mesh/access/src/access_publish.c.obj
 .ARM.attributes
                0x00000000000010f0       0x39 CMakeFiles/light_switch_proxy_client_nrf52840_xxAA_s140_6.0.0.dir/__/__/__/mesh/access/src/access.c.obj
 .ARM.attributes
                0x0000000000001129       0x39 CMakeFiles/light_switch_proxy_client_nrf52840_xxAA_s140_6.0.0.dir/__/__/__/mesh/access/src/access_reliable.c.obj
 .ARM.attributes
                0x0000000000001162       0x39 CMakeFiles/light_switch_proxy_client_nrf52840_xxAA_s140_6.0.0.dir/__/__/__/mesh/access/src/device_state_manager.c.obj
 .ARM.attributes
                0x000000000000119b       0x39 CMakeFiles/light_switch_proxy_client_nrf52840_xxAA_s140_6.0.0.dir/__/__/__/mesh/prov/src/prov_provisionee.c.obj
 .ARM.attributes
                0x00000000000011d4       0x39 CMakeFiles/light_switch_proxy_client_nrf52840_xxAA_s140_6.0.0.dir/__/__/__/mesh/prov/src/nrf_mesh_prov.c.obj
 .ARM.attributes
                0x000000000000120d       0x39 CMakeFiles/light_switch_proxy_client_nrf52840_xxAA_s140_6.0.0.dir/__/__/__/mesh/prov/src/provisioning.c.obj
 .ARM.attributes
                0x0000000000001246       0x39 CMakeFiles/light_switch_proxy_client_nrf52840_xxAA_s140_6.0.0.dir/__/__/__/mesh/prov/src/prov_beacon.c.obj
 .ARM.attributes
                0x000000000000127f       0x39 CMakeFiles/light_switch_proxy_client_nrf52840_xxAA_s140_6.0.0.dir/__/__/__/mesh/prov/src/prov_utils.c.obj
 .ARM.attributes
                0x00000000000012b8       0x39 CMakeFiles/light_switch_proxy_client_nrf52840_xxAA_s140_6.0.0.dir/__/__/__/mesh/prov/src/prov_bearer_adv.c.obj
 .ARM.attributes
                0x00000000000012f1       0x39 CMakeFiles/light_switch_proxy_client_nrf52840_xxAA_s140_6.0.0.dir/home/mazzer/work/nordic/sdk/nRF5_SDK_15.0.0/modules/nrfx/mdk/system_nrf52840.c.obj
 .ARM.attributes
                0x000000000000132a       0x20 CMakeFiles/light_switch_proxy_client_nrf52840_xxAA_s140_6.0.0.dir/home/mazzer/work/nordic/sdk/nRF5_SDK_15.0.0/modules/nrfx/mdk/gcc_startup_nrf52840.S.obj
 .ARM.attributes
                0x000000000000134a       0x39 CMakeFiles/light_switch_proxy_client_nrf52840_xxAA_s140_6.0.0.dir/home/mazzer/work/nordic/sdk/nRF5_SDK_15.0.0/components/libraries/util/app_error_handler_gcc.c.obj
 .ARM.attributes
                0x0000000000001383       0x39 ../../../external/rtt/librtt_nrf52840_xxAA.a(SEGGER_RTT.c.obj)
 .ARM.attributes
                0x00000000000013bc       0x39 ../../../external/rtt/librtt_nrf52840_xxAA.a(SEGGER_RTT_printf.c.obj)
 .ARM.attributes
                0x00000000000013f5       0x39 ../../../external/micro-ecc/libuECC_nrf52840_xxAA.a(uECC.c.obj)
 .ARM.attributes
                0x000000000000142e       0x22 /usr/bin/../lib/gcc/arm-none-eabi/7.2.1/thumb/v7e-m/fpv4-sp/hard/libgcc.a(_aeabi_uldivmod.o)
 .ARM.attributes
                0x0000000000001450       0x34 /usr/bin/../lib/gcc/arm-none-eabi/7.2.1/thumb/v7e-m/fpv4-sp/hard/libgcc.a(_udivmoddi4.o)
 .ARM.attributes
                0x0000000000001484       0x22 /usr/bin/../lib/gcc/arm-none-eabi/7.2.1/thumb/v7e-m/fpv4-sp/hard/libgcc.a(_dvmd_tls.o)
 .ARM.attributes
                0x00000000000014a6       0x34 /usr/bin/../lib/gcc/arm-none-eabi/7.2.1/../../../../arm-none-eabi/lib/thumb/v7e-m/fpv4-sp/hard/libg_nano.a(lib_a-exit.o)
 .ARM.attributes
                0x00000000000014da       0x34 /usr/bin/../lib/gcc/arm-none-eabi/7.2.1/../../../../arm-none-eabi/lib/thumb/v7e-m/fpv4-sp/hard/libg_nano.a(lib_a-impure.o)
 .ARM.attributes
                0x000000000000150e       0x34 /usr/bin/../lib/gcc/arm-none-eabi/7.2.1/../../../../arm-none-eabi/lib/thumb/v7e-m/fpv4-sp/hard/libg_nano.a(lib_a-init.o)
 .ARM.attributes
                0x0000000000001542       0x34 /usr/bin/../lib/gcc/arm-none-eabi/7.2.1/../../../../arm-none-eabi/lib/thumb/v7e-m/fpv4-sp/hard/libg_nano.a(lib_a-malloc.o)
 .ARM.attributes
                0x0000000000001576       0x34 /usr/bin/../lib/gcc/arm-none-eabi/7.2.1/../../../../arm-none-eabi/lib/thumb/v7e-m/fpv4-sp/hard/libg_nano.a(lib_a-memcmp.o)
 .ARM.attributes
                0x00000000000015aa       0x34 /usr/bin/../lib/gcc/arm-none-eabi/7.2.1/../../../../arm-none-eabi/lib/thumb/v7e-m/fpv4-sp/hard/libg_nano.a(lib_a-memcpy-stub.o)
 .ARM.attributes
                0x00000000000015de       0x34 /usr/bin/../lib/gcc/arm-none-eabi/7.2.1/../../../../arm-none-eabi/lib/thumb/v7e-m/fpv4-sp/hard/libg_nano.a(lib_a-memset.o)
 .ARM.attributes
                0x0000000000001612       0x34 /usr/bin/../lib/gcc/arm-none-eabi/7.2.1/../../../../arm-none-eabi/lib/thumb/v7e-m/fpv4-sp/hard/libg_nano.a(lib_a-nano-freer.o)
 .ARM.attributes
                0x0000000000001646       0x34 /usr/bin/../lib/gcc/arm-none-eabi/7.2.1/../../../../arm-none-eabi/lib/thumb/v7e-m/fpv4-sp/hard/libg_nano.a(lib_a-nano-mallocr.o)
 .ARM.attributes
                0x000000000000167a       0x34 /usr/bin/../lib/gcc/arm-none-eabi/7.2.1/../../../../arm-none-eabi/lib/thumb/v7e-m/fpv4-sp/hard/libg_nano.a(lib_a-sbrkr.o)
 .ARM.attributes
                0x00000000000016ae       0x34 /usr/bin/../lib/gcc/arm-none-eabi/7.2.1/../../../../arm-none-eabi/lib/thumb/v7e-m/fpv4-sp/hard/libg_nano.a(lib_a-strcpy.o)
 .ARM.attributes
                0x00000000000016e2       0x1b /usr/bin/../lib/gcc/arm-none-eabi/7.2.1/../../../../arm-none-eabi/lib/thumb/v7e-m/fpv4-sp/hard/libg_nano.a(lib_a-strlen.o)
 .ARM.attributes
                0x00000000000016fd       0x34 /usr/bin/../lib/gcc/arm-none-eabi/7.2.1/../../../../arm-none-eabi/lib/thumb/v7e-m/fpv4-sp/hard/libg_nano.a(lib_a-strrchr.o)
 .ARM.attributes
                0x0000000000001731       0x34 /usr/bin/../lib/gcc/arm-none-eabi/7.2.1/../../../../arm-none-eabi/lib/thumb/v7e-m/fpv4-sp/hard/libg_nano.a(lib_a-mlock.o)
 .ARM.attributes
                0x0000000000001765       0x34 /usr/bin/../lib/gcc/arm-none-eabi/7.2.1/../../../../arm-none-eabi/lib/thumb/v7e-m/fpv4-sp/hard/libg_nano.a(lib_a-reent.o)
 .ARM.attributes
                0x0000000000001799       0x34 /usr/bin/../lib/gcc/arm-none-eabi/7.2.1/../../../../arm-none-eabi/lib/thumb/v7e-m/fpv4-sp/hard/libg_nano.a(lib_a-strchr.o)
 .ARM.attributes
                0x00000000000017cd       0x34 /usr/bin/../lib/gcc/arm-none-eabi/7.2.1/thumb/v7e-m/fpv4-sp/hard/crtend.o
 .ARM.attributes
                0x0000000000001801       0x22 /usr/bin/../lib/gcc/arm-none-eabi/7.2.1/thumb/v7e-m/fpv4-sp/hard/crtn.o
 .ARM.attributes
                0x0000000000001823       0x34 /usr/bin/../lib/gcc/arm-none-eabi/7.2.1/../../../../arm-none-eabi/lib/thumb/v7e-m/fpv4-sp/hard/libnosys.a(sbrk.o)
 .ARM.attributes
                0x0000000000001857       0x34 /usr/bin/../lib/gcc/arm-none-eabi/7.2.1/../../../../arm-none-eabi/lib/thumb/v7e-m/fpv4-sp/hard/libnosys.a(_exit.o)

.comment        0x0000000000000000       0x7e
 .comment       0x0000000000000000       0x7e CMakeFiles/light_switch_proxy_client_nrf52840_xxAA_s140_6.0.0.dir/src/main.c.obj
                                         0x7f (size before relaxing)
 .comment       0x000000000000007e       0x7f CMakeFiles/light_switch_proxy_client_nrf52840_xxAA_s140_6.0.0.dir/__/__/__/mesh/stack/src/mesh_stack.c.obj
 .comment       0x000000000000007e       0x7f CMakeFiles/light_switch_proxy_client_nrf52840_xxAA_s140_6.0.0.dir/__/__/common/src/mesh_provisionee.c.obj
 .comment       0x000000000000007e       0x7f CMakeFiles/light_switch_proxy_client_nrf52840_xxAA_s140_6.0.0.dir/__/__/common/src/rtt_input.c.obj
 .comment       0x000000000000007e       0x7f CMakeFiles/light_switch_proxy_client_nrf52840_xxAA_s140_6.0.0.dir/__/__/common/src/simple_hal.c.obj
 .comment       0x000000000000007e       0x7f CMakeFiles/light_switch_proxy_client_nrf52840_xxAA_s140_6.0.0.dir/__/__/common/src/mesh_adv.c.obj
 .comment       0x000000000000007e       0x7f CMakeFiles/light_switch_proxy_client_nrf52840_xxAA_s140_6.0.0.dir/__/__/__/mesh/prov/src/nrf_mesh_prov_bearer_gatt.c.obj
 .comment       0x000000000000007e       0x7f CMakeFiles/light_switch_proxy_client_nrf52840_xxAA_s140_6.0.0.dir/home/mazzer/work/nordic/sdk/nRF5_SDK_15.0.0/components/libraries/util/app_error.c.obj
 .comment       0x000000000000007e       0x7f CMakeFiles/light_switch_proxy_client_nrf52840_xxAA_s140_6.0.0.dir/home/mazzer/work/nordic/sdk/nRF5_SDK_15.0.0/components/libraries/util/app_util_platform.c.obj
 .comment       0x000000000000007e       0x7f CMakeFiles/light_switch_proxy_client_nrf52840_xxAA_s140_6.0.0.dir/home/mazzer/work/nordic/sdk/nRF5_SDK_15.0.0/components/ble/common/ble_advdata.c.obj
 .comment       0x000000000000007e       0x7f CMakeFiles/light_switch_proxy_client_nrf52840_xxAA_s140_6.0.0.dir/home/mazzer/work/nordic/sdk/nRF5_SDK_15.0.0/components/libraries/experimental_section_vars/nrf_section_iter.c.obj
 .comment       0x000000000000007e       0x7f CMakeFiles/light_switch_proxy_client_nrf52840_xxAA_s140_6.0.0.dir/home/mazzer/work/nordic/sdk/nRF5_SDK_15.0.0/components/softdevice/common/nrf_sdh.c.obj
 .comment       0x000000000000007e       0x7f CMakeFiles/light_switch_proxy_client_nrf52840_xxAA_s140_6.0.0.dir/home/mazzer/work/nordic/sdk/nRF5_SDK_15.0.0/components/softdevice/common/nrf_sdh_soc.c.obj
 .comment       0x000000000000007e       0x7f CMakeFiles/light_switch_proxy_client_nrf52840_xxAA_s140_6.0.0.dir/home/mazzer/work/nordic/sdk/nRF5_SDK_15.0.0/components/softdevice/common/nrf_sdh_ble.c.obj
 .comment       0x000000000000007e       0x7f CMakeFiles/light_switch_proxy_client_nrf52840_xxAA_s140_6.0.0.dir/__/__/nrf_mesh_weak.c.obj
 .comment       0x000000000000007e       0x7f CMakeFiles/light_switch_proxy_client_nrf52840_xxAA_s140_6.0.0.dir/__/__/common/src/app_error_weak.c.obj
 .comment       0x000000000000007e       0x7f CMakeFiles/light_switch_proxy_client_nrf52840_xxAA_s140_6.0.0.dir/__/__/common/src/assertion_handler_weak.c.obj
 .comment       0x000000000000007e       0x7f CMakeFiles/light_switch_proxy_client_nrf52840_xxAA_s140_6.0.0.dir/__/__/__/mesh/core/src/nrf_mesh_configure.c.obj
 .comment       0x000000000000007e       0x7f CMakeFiles/light_switch_proxy_client_nrf52840_xxAA_s140_6.0.0.dir/__/__/__/mesh/core/src/aes.c.obj
 .comment       0x000000000000007e       0x7f CMakeFiles/light_switch_proxy_client_nrf52840_xxAA_s140_6.0.0.dir/__/__/__/mesh/core/src/msg_cache.c.obj
 .comment       0x000000000000007e       0x7f CMakeFiles/light_switch_proxy_client_nrf52840_xxAA_s140_6.0.0.dir/__/__/__/mesh/core/src/transport.c.obj
 .comment       0x000000000000007e       0x7f CMakeFiles/light_switch_proxy_client_nrf52840_xxAA_s140_6.0.0.dir/__/__/__/mesh/core/src/event.c.obj
 .comment       0x000000000000007e       0x7f CMakeFiles/light_switch_proxy_client_nrf52840_xxAA_s140_6.0.0.dir/__/__/__/mesh/core/src/packet_buffer.c.obj
 .comment       0x000000000000007e       0x7f CMakeFiles/light_switch_proxy_client_nrf52840_xxAA_s140_6.0.0.dir/__/__/__/mesh/core/src/flash_manager_defrag.c.obj
 .comment       0x000000000000007e       0x7f CMakeFiles/light_switch_proxy_client_nrf52840_xxAA_s140_6.0.0.dir/__/__/__/mesh/core/src/fifo.c.obj
 .comment       0x000000000000007e       0x7f CMakeFiles/light_switch_proxy_client_nrf52840_xxAA_s140_6.0.0.dir/__/__/__/mesh/core/src/packet_mgr.c.obj
 .comment       0x000000000000007e       0x7f CMakeFiles/light_switch_proxy_client_nrf52840_xxAA_s140_6.0.0.dir/__/__/__/mesh/core/src/net_state.c.obj
 .comment       0x000000000000007e       0x7f CMakeFiles/light_switch_proxy_client_nrf52840_xxAA_s140_6.0.0.dir/__/__/__/mesh/core/src/mesh_flash.c.obj
 .comment       0x000000000000007e       0x7f CMakeFiles/light_switch_proxy_client_nrf52840_xxAA_s140_6.0.0.dir/__/__/__/mesh/core/src/nrf_mesh_utils.c.obj
 .comment       0x000000000000007e       0x7f CMakeFiles/light_switch_proxy_client_nrf52840_xxAA_s140_6.0.0.dir/__/__/__/mesh/core/src/nrf_mesh.c.obj
 .comment       0x000000000000007e       0x7f CMakeFiles/light_switch_proxy_client_nrf52840_xxAA_s140_6.0.0.dir/__/__/__/mesh/core/src/queue.c.obj
 .comment       0x000000000000007e       0x7f CMakeFiles/light_switch_proxy_client_nrf52840_xxAA_s140_6.0.0.dir/__/__/__/mesh/core/src/hal.c.obj
 .comment       0x000000000000007e       0x7f CMakeFiles/light_switch_proxy_client_nrf52840_xxAA_s140_6.0.0.dir/__/__/__/mesh/core/src/aes_cmac.c.obj
 .comment       0x000000000000007e       0x7f CMakeFiles/light_switch_proxy_client_nrf52840_xxAA_s140_6.0.0.dir/__/__/__/mesh/core/src/timer_scheduler.c.obj
 .comment       0x000000000000007e       0x7f CMakeFiles/light_switch_proxy_client_nrf52840_xxAA_s140_6.0.0.dir/__/__/__/mesh/core/src/timer.c.obj
 .comment       0x000000000000007e       0x7f CMakeFiles/light_switch_proxy_client_nrf52840_xxAA_s140_6.0.0.dir/__/__/__/mesh/core/src/ticker.c.obj
 .comment       0x000000000000007e       0x7f CMakeFiles/light_switch_proxy_client_nrf52840_xxAA_s140_6.0.0.dir/__/__/__/mesh/core/src/rand.c.obj
 .comment       0x000000000000007e       0x7f CMakeFiles/light_switch_proxy_client_nrf52840_xxAA_s140_6.0.0.dir/__/__/__/mesh/core/src/nrf_mesh_opt.c.obj
 .comment       0x000000000000007e       0x7f CMakeFiles/light_switch_proxy_client_nrf52840_xxAA_s140_6.0.0.dir/__/__/__/mesh/core/src/timeslot.c.obj
 .comment       0x000000000000007e       0x7f CMakeFiles/light_switch_proxy_client_nrf52840_xxAA_s140_6.0.0.dir/__/__/__/mesh/core/src/bearer_event.c.obj
 .comment       0x000000000000007e       0x7f CMakeFiles/light_switch_proxy_client_nrf52840_xxAA_s140_6.0.0.dir/__/__/__/mesh/core/src/enc.c.obj
 .comment       0x000000000000007e       0x7f CMakeFiles/light_switch_proxy_client_nrf52840_xxAA_s140_6.0.0.dir/__/__/__/mesh/core/src/network.c.obj
 .comment       0x000000000000007e       0x7f CMakeFiles/light_switch_proxy_client_nrf52840_xxAA_s140_6.0.0.dir/__/__/__/mesh/core/src/net_packet.c.obj
 .comment       0x000000000000007e       0x7f CMakeFiles/light_switch_proxy_client_nrf52840_xxAA_s140_6.0.0.dir/__/__/__/mesh/core/src/msqueue.c.obj
 .comment       0x000000000000007e       0x7f CMakeFiles/light_switch_proxy_client_nrf52840_xxAA_s140_6.0.0.dir/__/__/__/mesh/core/src/nrf_mesh_keygen.c.obj
 .comment       0x000000000000007e       0x7f CMakeFiles/light_switch_proxy_client_nrf52840_xxAA_s140_6.0.0.dir/__/__/__/mesh/core/src/cache.c.obj
 .comment       0x000000000000007e       0x7f CMakeFiles/light_switch_proxy_client_nrf52840_xxAA_s140_6.0.0.dir/__/__/__/mesh/core/src/list.c.obj
 .comment       0x000000000000007e       0x7f CMakeFiles/light_switch_proxy_client_nrf52840_xxAA_s140_6.0.0.dir/__/__/__/mesh/core/src/log.c.obj
 .comment       0x000000000000007e       0x7f CMakeFiles/light_switch_proxy_client_nrf52840_xxAA_s140_6.0.0.dir/__/__/__/mesh/core/src/flash_manager.c.obj
 .comment       0x000000000000007e       0x7f CMakeFiles/light_switch_proxy_client_nrf52840_xxAA_s140_6.0.0.dir/__/__/__/mesh/core/src/ccm_soft.c.obj
 .comment       0x000000000000007e       0x7f CMakeFiles/light_switch_proxy_client_nrf52840_xxAA_s140_6.0.0.dir/__/__/__/mesh/core/src/replay_cache.c.obj
 .comment       0x000000000000007e       0x7f CMakeFiles/light_switch_proxy_client_nrf52840_xxAA_s140_6.0.0.dir/__/__/__/mesh/core/src/beacon.c.obj
 .comment       0x000000000000007e       0x7f CMakeFiles/light_switch_proxy_client_nrf52840_xxAA_s140_6.0.0.dir/__/__/__/mesh/core/src/core_tx.c.obj
 .comment       0x000000000000007e       0x7f CMakeFiles/light_switch_proxy_client_nrf52840_xxAA_s140_6.0.0.dir/__/__/__/mesh/core/src/heartbeat.c.obj
 .comment       0x000000000000007e       0x7f CMakeFiles/light_switch_proxy_client_nrf52840_xxAA_s140_6.0.0.dir/__/__/__/mesh/core/src/net_beacon.c.obj
 .comment       0x000000000000007e       0x7f CMakeFiles/light_switch_proxy_client_nrf52840_xxAA_s140_6.0.0.dir/__/__/__/mesh/core/src/fsm.c.obj
 .comment       0x000000000000007e       0x7f CMakeFiles/light_switch_proxy_client_nrf52840_xxAA_s140_6.0.0.dir/__/__/__/mesh/core/src/core_tx_adv.c.obj
 .comment       0x000000000000007e       0x7f CMakeFiles/light_switch_proxy_client_nrf52840_xxAA_s140_6.0.0.dir/__/__/__/mesh/bearer/src/ad_listener.c.obj
 .comment       0x000000000000007e       0x7f CMakeFiles/light_switch_proxy_client_nrf52840_xxAA_s140_6.0.0.dir/__/__/__/mesh/bearer/src/ad_type_filter.c.obj
 .comment       0x000000000000007e       0x7f CMakeFiles/light_switch_proxy_client_nrf52840_xxAA_s140_6.0.0.dir/__/__/__/mesh/bearer/src/advertiser.c.obj
 .comment       0x000000000000007e       0x7f CMakeFiles/light_switch_proxy_client_nrf52840_xxAA_s140_6.0.0.dir/__/__/__/mesh/bearer/src/bearer_handler.c.obj
 .comment       0x000000000000007e       0x7f CMakeFiles/light_switch_proxy_client_nrf52840_xxAA_s140_6.0.0.dir/__/__/__/mesh/bearer/src/broadcast.c.obj
 .comment       0x000000000000007e       0x7f CMakeFiles/light_switch_proxy_client_nrf52840_xxAA_s140_6.0.0.dir/__/__/__/mesh/bearer/src/filter_engine.c.obj
 .comment       0x000000000000007e       0x7f CMakeFiles/light_switch_proxy_client_nrf52840_xxAA_s140_6.0.0.dir/__/__/__/mesh/bearer/src/radio_config.c.obj
 .comment       0x000000000000007e       0x7f CMakeFiles/light_switch_proxy_client_nrf52840_xxAA_s140_6.0.0.dir/__/__/__/mesh/bearer/src/scanner.c.obj
 .comment       0x000000000000007e       0x7f CMakeFiles/light_switch_proxy_client_nrf52840_xxAA_s140_6.0.0.dir/__/__/__/mesh/gatt/src/mesh_gatt.c.obj
 .comment       0x000000000000007e       0x7f CMakeFiles/light_switch_proxy_client_nrf52840_xxAA_s140_6.0.0.dir/__/__/__/mesh/gatt/src/proxy.c.obj
 .comment       0x000000000000007e       0x7f CMakeFiles/light_switch_proxy_client_nrf52840_xxAA_s140_6.0.0.dir/__/__/__/mesh/gatt/src/proxy_filter.c.obj
 .comment       0x000000000000007e       0x7f CMakeFiles/light_switch_proxy_client_nrf52840_xxAA_s140_6.0.0.dir/__/__/__/models/simple_on_off/src/simple_on_off_client.c.obj
 .comment       0x000000000000007e       0x7f CMakeFiles/light_switch_proxy_client_nrf52840_xxAA_s140_6.0.0.dir/__/__/__/models/config/src/composition_data.c.obj
 .comment       0x000000000000007e       0x7f CMakeFiles/light_switch_proxy_client_nrf52840_xxAA_s140_6.0.0.dir/__/__/__/models/config/src/config_server.c.obj
 .comment       0x000000000000007e       0x7f CMakeFiles/light_switch_proxy_client_nrf52840_xxAA_s140_6.0.0.dir/__/__/__/models/config/src/packed_index_list.c.obj
 .comment       0x000000000000007e       0x7f CMakeFiles/light_switch_proxy_client_nrf52840_xxAA_s140_6.0.0.dir/__/__/__/models/health/src/health_server.c.obj
 .comment       0x000000000000007e       0x7f CMakeFiles/light_switch_proxy_client_nrf52840_xxAA_s140_6.0.0.dir/__/__/__/mesh/access/src/access_publish.c.obj
 .comment       0x000000000000007e       0x7f CMakeFiles/light_switch_proxy_client_nrf52840_xxAA_s140_6.0.0.dir/__/__/__/mesh/access/src/access.c.obj
 .comment       0x000000000000007e       0x7f CMakeFiles/light_switch_proxy_client_nrf52840_xxAA_s140_6.0.0.dir/__/__/__/mesh/access/src/access_reliable.c.obj
 .comment       0x000000000000007e       0x7f CMakeFiles/light_switch_proxy_client_nrf52840_xxAA_s140_6.0.0.dir/__/__/__/mesh/access/src/device_state_manager.c.obj
 .comment       0x000000000000007e       0x7f CMakeFiles/light_switch_proxy_client_nrf52840_xxAA_s140_6.0.0.dir/__/__/__/mesh/prov/src/prov_provisionee.c.obj
 .comment       0x000000000000007e       0x7f CMakeFiles/light_switch_proxy_client_nrf52840_xxAA_s140_6.0.0.dir/__/__/__/mesh/prov/src/nrf_mesh_prov.c.obj
 .comment       0x000000000000007e       0x7f CMakeFiles/light_switch_proxy_client_nrf52840_xxAA_s140_6.0.0.dir/__/__/__/mesh/prov/src/provisioning.c.obj
 .comment       0x000000000000007e       0x7f CMakeFiles/light_switch_proxy_client_nrf52840_xxAA_s140_6.0.0.dir/__/__/__/mesh/prov/src/prov_beacon.c.obj
 .comment       0x000000000000007e       0x7f CMakeFiles/light_switch_proxy_client_nrf52840_xxAA_s140_6.0.0.dir/__/__/__/mesh/prov/src/prov_utils.c.obj
 .comment       0x000000000000007e       0x7f CMakeFiles/light_switch_proxy_client_nrf52840_xxAA_s140_6.0.0.dir/__/__/__/mesh/prov/src/prov_bearer_adv.c.obj
 .comment       0x000000000000007e       0x7f CMakeFiles/light_switch_proxy_client_nrf52840_xxAA_s140_6.0.0.dir/home/mazzer/work/nordic/sdk/nRF5_SDK_15.0.0/modules/nrfx/mdk/system_nrf52840.c.obj
 .comment       0x000000000000007e       0x7f CMakeFiles/light_switch_proxy_client_nrf52840_xxAA_s140_6.0.0.dir/home/mazzer/work/nordic/sdk/nRF5_SDK_15.0.0/components/libraries/util/app_error_handler_gcc.c.obj
 .comment       0x000000000000007e       0x7f ../../../external/rtt/librtt_nrf52840_xxAA.a(SEGGER_RTT.c.obj)
 .comment       0x000000000000007e       0x7f ../../../external/rtt/librtt_nrf52840_xxAA.a(SEGGER_RTT_printf.c.obj)
 .comment       0x000000000000007e       0x7f ../../../external/micro-ecc/libuECC_nrf52840_xxAA.a(uECC.c.obj)

.debug_info     0x0000000000000000    0xa3c16
 .debug_info    0x0000000000000000     0x36b7 CMakeFiles/light_switch_proxy_client_nrf52840_xxAA_s140_6.0.0.dir/src/main.c.obj
 .debug_info    0x00000000000036b7     0x1706 CMakeFiles/light_switch_proxy_client_nrf52840_xxAA_s140_6.0.0.dir/__/__/__/mesh/stack/src/mesh_stack.c.obj
 .debug_info    0x0000000000004dbd     0x2903 CMakeFiles/light_switch_proxy_client_nrf52840_xxAA_s140_6.0.0.dir/__/__/common/src/mesh_provisionee.c.obj
 .debug_info    0x00000000000076c0     0x118d CMakeFiles/light_switch_proxy_client_nrf52840_xxAA_s140_6.0.0.dir/__/__/common/src/rtt_input.c.obj
 .debug_info    0x000000000000884d     0x1596 CMakeFiles/light_switch_proxy_client_nrf52840_xxAA_s140_6.0.0.dir/__/__/common/src/simple_hal.c.obj
 .debug_info    0x0000000000009de3     0x12f7 CMakeFiles/light_switch_proxy_client_nrf52840_xxAA_s140_6.0.0.dir/__/__/common/src/mesh_adv.c.obj
 .debug_info    0x000000000000b0da     0x2044 CMakeFiles/light_switch_proxy_client_nrf52840_xxAA_s140_6.0.0.dir/__/__/__/mesh/prov/src/nrf_mesh_prov_bearer_gatt.c.obj
 .debug_info    0x000000000000d11e      0xae7 CMakeFiles/light_switch_proxy_client_nrf52840_xxAA_s140_6.0.0.dir/home/mazzer/work/nordic/sdk/nRF5_SDK_15.0.0/components/libraries/util/app_error.c.obj
 .debug_info    0x000000000000dc05     0x11b9 CMakeFiles/light_switch_proxy_client_nrf52840_xxAA_s140_6.0.0.dir/home/mazzer/work/nordic/sdk/nRF5_SDK_15.0.0/components/libraries/util/app_util_platform.c.obj
 .debug_info    0x000000000000edbe     0x23b1 CMakeFiles/light_switch_proxy_client_nrf52840_xxAA_s140_6.0.0.dir/home/mazzer/work/nordic/sdk/nRF5_SDK_15.0.0/components/ble/common/ble_advdata.c.obj
 .debug_info    0x000000000001116f      0xa1d CMakeFiles/light_switch_proxy_client_nrf52840_xxAA_s140_6.0.0.dir/home/mazzer/work/nordic/sdk/nRF5_SDK_15.0.0/components/libraries/experimental_section_vars/nrf_section_iter.c.obj
 .debug_info    0x0000000000011b8c     0x1cd0 CMakeFiles/light_switch_proxy_client_nrf52840_xxAA_s140_6.0.0.dir/home/mazzer/work/nordic/sdk/nRF5_SDK_15.0.0/components/softdevice/common/nrf_sdh.c.obj
 .debug_info    0x000000000001385c      0xdaf CMakeFiles/light_switch_proxy_client_nrf52840_xxAA_s140_6.0.0.dir/home/mazzer/work/nordic/sdk/nRF5_SDK_15.0.0/components/softdevice/common/nrf_sdh_soc.c.obj
 .debug_info    0x000000000001460b     0x2b98 CMakeFiles/light_switch_proxy_client_nrf52840_xxAA_s140_6.0.0.dir/home/mazzer/work/nordic/sdk/nRF5_SDK_15.0.0/components/softdevice/common/nrf_sdh_ble.c.obj
 .debug_info    0x00000000000171a3      0x91d CMakeFiles/light_switch_proxy_client_nrf52840_xxAA_s140_6.0.0.dir/__/__/nrf_mesh_weak.c.obj
 .debug_info    0x0000000000017ac0     0x1170 CMakeFiles/light_switch_proxy_client_nrf52840_xxAA_s140_6.0.0.dir/__/__/common/src/app_error_weak.c.obj
 .debug_info    0x0000000000018c30      0x994 CMakeFiles/light_switch_proxy_client_nrf52840_xxAA_s140_6.0.0.dir/__/__/common/src/assertion_handler_weak.c.obj
 .debug_info    0x00000000000195c4      0xdf8 CMakeFiles/light_switch_proxy_client_nrf52840_xxAA_s140_6.0.0.dir/__/__/__/mesh/core/src/nrf_mesh_configure.c.obj
 .debug_info    0x000000000001a3bc      0xbea CMakeFiles/light_switch_proxy_client_nrf52840_xxAA_s140_6.0.0.dir/__/__/__/mesh/core/src/aes.c.obj
 .debug_info    0x000000000001afa6      0xa51 CMakeFiles/light_switch_proxy_client_nrf52840_xxAA_s140_6.0.0.dir/__/__/__/mesh/core/src/msg_cache.c.obj
 .debug_info    0x000000000001b9f7     0x6191 CMakeFiles/light_switch_proxy_client_nrf52840_xxAA_s140_6.0.0.dir/__/__/__/mesh/core/src/transport.c.obj
 .debug_info    0x0000000000021b88     0x1770 CMakeFiles/light_switch_proxy_client_nrf52840_xxAA_s140_6.0.0.dir/__/__/__/mesh/core/src/event.c.obj
 .debug_info    0x00000000000232f8     0x1aa3 CMakeFiles/light_switch_proxy_client_nrf52840_xxAA_s140_6.0.0.dir/__/__/__/mesh/core/src/packet_buffer.c.obj
 .debug_info    0x0000000000024d9b     0x24b1 CMakeFiles/light_switch_proxy_client_nrf52840_xxAA_s140_6.0.0.dir/__/__/__/mesh/core/src/flash_manager_defrag.c.obj
 .debug_info    0x000000000002724c      0xd9a CMakeFiles/light_switch_proxy_client_nrf52840_xxAA_s140_6.0.0.dir/__/__/__/mesh/core/src/fifo.c.obj
 .debug_info    0x0000000000027fe6     0x118f CMakeFiles/light_switch_proxy_client_nrf52840_xxAA_s140_6.0.0.dir/__/__/__/mesh/core/src/packet_mgr.c.obj
 .debug_info    0x0000000000029175     0x23f1 CMakeFiles/light_switch_proxy_client_nrf52840_xxAA_s140_6.0.0.dir/__/__/__/mesh/core/src/net_state.c.obj
 .debug_info    0x000000000002b566     0x1be8 CMakeFiles/light_switch_proxy_client_nrf52840_xxAA_s140_6.0.0.dir/__/__/__/mesh/core/src/mesh_flash.c.obj
 .debug_info    0x000000000002d14e      0xa72 CMakeFiles/light_switch_proxy_client_nrf52840_xxAA_s140_6.0.0.dir/__/__/__/mesh/core/src/nrf_mesh_utils.c.obj
 .debug_info    0x000000000002dbc0     0x2603 CMakeFiles/light_switch_proxy_client_nrf52840_xxAA_s140_6.0.0.dir/__/__/__/mesh/core/src/nrf_mesh.c.obj
 .debug_info    0x00000000000301c3      0xb10 CMakeFiles/light_switch_proxy_client_nrf52840_xxAA_s140_6.0.0.dir/__/__/__/mesh/core/src/queue.c.obj
 .debug_info    0x0000000000030cd3      0x514 CMakeFiles/light_switch_proxy_client_nrf52840_xxAA_s140_6.0.0.dir/__/__/__/mesh/core/src/hal.c.obj
 .debug_info    0x00000000000311e7      0xe8f CMakeFiles/light_switch_proxy_client_nrf52840_xxAA_s140_6.0.0.dir/__/__/__/mesh/core/src/aes_cmac.c.obj
 .debug_info    0x0000000000032076     0x13bd CMakeFiles/light_switch_proxy_client_nrf52840_xxAA_s140_6.0.0.dir/__/__/__/mesh/core/src/timer_scheduler.c.obj
 .debug_info    0x0000000000033433      0xe1e CMakeFiles/light_switch_proxy_client_nrf52840_xxAA_s140_6.0.0.dir/__/__/__/mesh/core/src/timer.c.obj
 .debug_info    0x0000000000034251      0x20c CMakeFiles/light_switch_proxy_client_nrf52840_xxAA_s140_6.0.0.dir/__/__/__/mesh/core/src/ticker.c.obj
 .debug_info    0x000000000003445d      0x4d4 CMakeFiles/light_switch_proxy_client_nrf52840_xxAA_s140_6.0.0.dir/__/__/__/mesh/core/src/rand.c.obj
 .debug_info    0x0000000000034931      0xaef CMakeFiles/light_switch_proxy_client_nrf52840_xxAA_s140_6.0.0.dir/__/__/__/mesh/core/src/nrf_mesh_opt.c.obj
 .debug_info    0x0000000000035420     0x1c1b CMakeFiles/light_switch_proxy_client_nrf52840_xxAA_s140_6.0.0.dir/__/__/__/mesh/core/src/timeslot.c.obj
 .debug_info    0x000000000003703b     0x1c9f CMakeFiles/light_switch_proxy_client_nrf52840_xxAA_s140_6.0.0.dir/__/__/__/mesh/core/src/bearer_event.c.obj
 .debug_info    0x0000000000038cda     0x181f CMakeFiles/light_switch_proxy_client_nrf52840_xxAA_s140_6.0.0.dir/__/__/__/mesh/core/src/enc.c.obj
 .debug_info    0x000000000003a4f9     0x1ce6 CMakeFiles/light_switch_proxy_client_nrf52840_xxAA_s140_6.0.0.dir/__/__/__/mesh/core/src/network.c.obj
 .debug_info    0x000000000003c1df     0x1de3 CMakeFiles/light_switch_proxy_client_nrf52840_xxAA_s140_6.0.0.dir/__/__/__/mesh/core/src/net_packet.c.obj
 .debug_info    0x000000000003dfc2      0xe51 CMakeFiles/light_switch_proxy_client_nrf52840_xxAA_s140_6.0.0.dir/__/__/__/mesh/core/src/msqueue.c.obj
 .debug_info    0x000000000003ee13      0x4cd CMakeFiles/light_switch_proxy_client_nrf52840_xxAA_s140_6.0.0.dir/__/__/__/mesh/core/src/nrf_mesh_keygen.c.obj
 .debug_info    0x000000000003f2e0      0xbf9 CMakeFiles/light_switch_proxy_client_nrf52840_xxAA_s140_6.0.0.dir/__/__/__/mesh/core/src/cache.c.obj
 .debug_info    0x000000000003fed9      0x573 CMakeFiles/light_switch_proxy_client_nrf52840_xxAA_s140_6.0.0.dir/__/__/__/mesh/core/src/list.c.obj
 .debug_info    0x000000000004044c      0xe8b CMakeFiles/light_switch_proxy_client_nrf52840_xxAA_s140_6.0.0.dir/__/__/__/mesh/core/src/log.c.obj
 .debug_info    0x00000000000412d7     0x3cc6 CMakeFiles/light_switch_proxy_client_nrf52840_xxAA_s140_6.0.0.dir/__/__/__/mesh/core/src/flash_manager.c.obj
 .debug_info    0x0000000000044f9d     0x120f CMakeFiles/light_switch_proxy_client_nrf52840_xxAA_s140_6.0.0.dir/__/__/__/mesh/core/src/ccm_soft.c.obj
 .debug_info    0x00000000000461ac      0xa87 CMakeFiles/light_switch_proxy_client_nrf52840_xxAA_s140_6.0.0.dir/__/__/__/mesh/core/src/replay_cache.c.obj
 .debug_info    0x0000000000046c33     0x17c2 CMakeFiles/light_switch_proxy_client_nrf52840_xxAA_s140_6.0.0.dir/__/__/__/mesh/core/src/beacon.c.obj
 .debug_info    0x00000000000483f5     0x1264 CMakeFiles/light_switch_proxy_client_nrf52840_xxAA_s140_6.0.0.dir/__/__/__/mesh/core/src/core_tx.c.obj
 .debug_info    0x0000000000049659     0x24f4 CMakeFiles/light_switch_proxy_client_nrf52840_xxAA_s140_6.0.0.dir/__/__/__/mesh/core/src/heartbeat.c.obj
 .debug_info    0x000000000004bb4d     0x2a49 CMakeFiles/light_switch_proxy_client_nrf52840_xxAA_s140_6.0.0.dir/__/__/__/mesh/core/src/net_beacon.c.obj
 .debug_info    0x000000000004e596     0x13e3 CMakeFiles/light_switch_proxy_client_nrf52840_xxAA_s140_6.0.0.dir/__/__/__/mesh/core/src/fsm.c.obj
 .debug_info    0x000000000004f979     0x197e CMakeFiles/light_switch_proxy_client_nrf52840_xxAA_s140_6.0.0.dir/__/__/__/mesh/core/src/core_tx_adv.c.obj
 .debug_info    0x00000000000512f7     0x116a CMakeFiles/light_switch_proxy_client_nrf52840_xxAA_s140_6.0.0.dir/__/__/__/mesh/bearer/src/ad_listener.c.obj
 .debug_info    0x0000000000052461      0xfc4 CMakeFiles/light_switch_proxy_client_nrf52840_xxAA_s140_6.0.0.dir/__/__/__/mesh/bearer/src/ad_type_filter.c.obj
 .debug_info    0x0000000000053425     0x2af6 CMakeFiles/light_switch_proxy_client_nrf52840_xxAA_s140_6.0.0.dir/__/__/__/mesh/bearer/src/advertiser.c.obj
 .debug_info    0x0000000000055f1b     0x1bad CMakeFiles/light_switch_proxy_client_nrf52840_xxAA_s140_6.0.0.dir/__/__/__/mesh/bearer/src/bearer_handler.c.obj
 .debug_info    0x0000000000057ac8     0x1af7 CMakeFiles/light_switch_proxy_client_nrf52840_xxAA_s140_6.0.0.dir/__/__/__/mesh/bearer/src/broadcast.c.obj
 .debug_info    0x00000000000595bf      0xd3e CMakeFiles/light_switch_proxy_client_nrf52840_xxAA_s140_6.0.0.dir/__/__/__/mesh/bearer/src/filter_engine.c.obj
 .debug_info    0x000000000005a2fd      0xa28 CMakeFiles/light_switch_proxy_client_nrf52840_xxAA_s140_6.0.0.dir/__/__/__/mesh/bearer/src/radio_config.c.obj
 .debug_info    0x000000000005ad25     0x2df8 CMakeFiles/light_switch_proxy_client_nrf52840_xxAA_s140_6.0.0.dir/__/__/__/mesh/bearer/src/scanner.c.obj
 .debug_info    0x000000000005db1d     0x4aa5 CMakeFiles/light_switch_proxy_client_nrf52840_xxAA_s140_6.0.0.dir/__/__/__/mesh/gatt/src/mesh_gatt.c.obj
 .debug_info    0x00000000000625c2     0x535c CMakeFiles/light_switch_proxy_client_nrf52840_xxAA_s140_6.0.0.dir/__/__/__/mesh/gatt/src/proxy.c.obj
 .debug_info    0x000000000006791e      0x4aa CMakeFiles/light_switch_proxy_client_nrf52840_xxAA_s140_6.0.0.dir/__/__/__/mesh/gatt/src/proxy_filter.c.obj
 .debug_info    0x0000000000067dc8     0x168b CMakeFiles/light_switch_proxy_client_nrf52840_xxAA_s140_6.0.0.dir/__/__/__/models/simple_on_off/src/simple_on_off_client.c.obj
 .debug_info    0x0000000000069453      0xee4 CMakeFiles/light_switch_proxy_client_nrf52840_xxAA_s140_6.0.0.dir/__/__/__/models/config/src/composition_data.c.obj
 .debug_info    0x000000000006a337     0xc557 CMakeFiles/light_switch_proxy_client_nrf52840_xxAA_s140_6.0.0.dir/__/__/__/models/config/src/config_server.c.obj
 .debug_info    0x000000000007688e      0x126 CMakeFiles/light_switch_proxy_client_nrf52840_xxAA_s140_6.0.0.dir/__/__/__/models/config/src/packed_index_list.c.obj
 .debug_info    0x00000000000769b4     0x2e65 CMakeFiles/light_switch_proxy_client_nrf52840_xxAA_s140_6.0.0.dir/__/__/__/models/health/src/health_server.c.obj
 .debug_info    0x0000000000079819     0x12cf CMakeFiles/light_switch_proxy_client_nrf52840_xxAA_s140_6.0.0.dir/__/__/__/mesh/access/src/access_publish.c.obj
 .debug_info    0x000000000007aae8     0x40b1 CMakeFiles/light_switch_proxy_client_nrf52840_xxAA_s140_6.0.0.dir/__/__/__/mesh/access/src/access.c.obj
 .debug_info    0x000000000007eb99     0x1b90 CMakeFiles/light_switch_proxy_client_nrf52840_xxAA_s140_6.0.0.dir/__/__/__/mesh/access/src/access_reliable.c.obj
 .debug_info    0x0000000000080729     0x5583 CMakeFiles/light_switch_proxy_client_nrf52840_xxAA_s140_6.0.0.dir/__/__/__/mesh/access/src/device_state_manager.c.obj
 .debug_info    0x0000000000085cac     0x2c7b CMakeFiles/light_switch_proxy_client_nrf52840_xxAA_s140_6.0.0.dir/__/__/__/mesh/prov/src/prov_provisionee.c.obj
 .debug_info    0x0000000000088927     0x1fa2 CMakeFiles/light_switch_proxy_client_nrf52840_xxAA_s140_6.0.0.dir/__/__/__/mesh/prov/src/nrf_mesh_prov.c.obj
 .debug_info    0x000000000008a8c9     0x18dc CMakeFiles/light_switch_proxy_client_nrf52840_xxAA_s140_6.0.0.dir/__/__/__/mesh/prov/src/provisioning.c.obj
 .debug_info    0x000000000008c1a5     0x1a93 CMakeFiles/light_switch_proxy_client_nrf52840_xxAA_s140_6.0.0.dir/__/__/__/mesh/prov/src/prov_beacon.c.obj
 .debug_info    0x000000000008dc38     0x2108 CMakeFiles/light_switch_proxy_client_nrf52840_xxAA_s140_6.0.0.dir/__/__/__/mesh/prov/src/prov_utils.c.obj
 .debug_info    0x000000000008fd40     0x4a03 CMakeFiles/light_switch_proxy_client_nrf52840_xxAA_s140_6.0.0.dir/__/__/__/mesh/prov/src/prov_bearer_adv.c.obj
 .debug_info    0x0000000000094743     0x137d CMakeFiles/light_switch_proxy_client_nrf52840_xxAA_s140_6.0.0.dir/home/mazzer/work/nordic/sdk/nRF5_SDK_15.0.0/modules/nrfx/mdk/system_nrf52840.c.obj
 .debug_info    0x0000000000095ac0       0x26 CMakeFiles/light_switch_proxy_client_nrf52840_xxAA_s140_6.0.0.dir/home/mazzer/work/nordic/sdk/nRF5_SDK_15.0.0/modules/nrfx/mdk/gcc_startup_nrf52840.S.obj
 .debug_info    0x0000000000095ae6      0x96d CMakeFiles/light_switch_proxy_client_nrf52840_xxAA_s140_6.0.0.dir/home/mazzer/work/nordic/sdk/nRF5_SDK_15.0.0/components/libraries/util/app_error_handler_gcc.c.obj
 .debug_info    0x0000000000096453     0x2b01 ../../../external/rtt/librtt_nrf52840_xxAA.a(SEGGER_RTT.c.obj)
 .debug_info    0x0000000000098f54     0x11e1 ../../../external/rtt/librtt_nrf52840_xxAA.a(SEGGER_RTT_printf.c.obj)
 .debug_info    0x000000000009a135     0x9ae1 ../../../external/micro-ecc/libuECC_nrf52840_xxAA.a(uECC.c.obj)

.debug_abbrev   0x0000000000000000    0x1395d
 .debug_abbrev  0x0000000000000000      0x5c6 CMakeFiles/light_switch_proxy_client_nrf52840_xxAA_s140_6.0.0.dir/src/main.c.obj
 .debug_abbrev  0x00000000000005c6      0x369 CMakeFiles/light_switch_proxy_client_nrf52840_xxAA_s140_6.0.0.dir/__/__/__/mesh/stack/src/mesh_stack.c.obj
 .debug_abbrev  0x000000000000092f      0x3f2 CMakeFiles/light_switch_proxy_client_nrf52840_xxAA_s140_6.0.0.dir/__/__/common/src/mesh_provisionee.c.obj
 .debug_abbrev  0x0000000000000d21      0x2ba CMakeFiles/light_switch_proxy_client_nrf52840_xxAA_s140_6.0.0.dir/__/__/common/src/rtt_input.c.obj
 .debug_abbrev  0x0000000000000fdb      0x372 CMakeFiles/light_switch_proxy_client_nrf52840_xxAA_s140_6.0.0.dir/__/__/common/src/simple_hal.c.obj
 .debug_abbrev  0x000000000000134d      0x2de CMakeFiles/light_switch_proxy_client_nrf52840_xxAA_s140_6.0.0.dir/__/__/common/src/mesh_adv.c.obj
 .debug_abbrev  0x000000000000162b      0x4b3 CMakeFiles/light_switch_proxy_client_nrf52840_xxAA_s140_6.0.0.dir/__/__/__/mesh/prov/src/nrf_mesh_prov_bearer_gatt.c.obj
 .debug_abbrev  0x0000000000001ade      0x232 CMakeFiles/light_switch_proxy_client_nrf52840_xxAA_s140_6.0.0.dir/home/mazzer/work/nordic/sdk/nRF5_SDK_15.0.0/components/libraries/util/app_error.c.obj
 .debug_abbrev  0x0000000000001d10      0x37e CMakeFiles/light_switch_proxy_client_nrf52840_xxAA_s140_6.0.0.dir/home/mazzer/work/nordic/sdk/nRF5_SDK_15.0.0/components/libraries/util/app_util_platform.c.obj
 .debug_abbrev  0x000000000000208e      0x455 CMakeFiles/light_switch_proxy_client_nrf52840_xxAA_s140_6.0.0.dir/home/mazzer/work/nordic/sdk/nRF5_SDK_15.0.0/components/ble/common/ble_advdata.c.obj
 .debug_abbrev  0x00000000000024e3      0x1d7 CMakeFiles/light_switch_proxy_client_nrf52840_xxAA_s140_6.0.0.dir/home/mazzer/work/nordic/sdk/nRF5_SDK_15.0.0/components/libraries/experimental_section_vars/nrf_section_iter.c.obj
 .debug_abbrev  0x00000000000026ba      0x4fe CMakeFiles/light_switch_proxy_client_nrf52840_xxAA_s140_6.0.0.dir/home/mazzer/work/nordic/sdk/nRF5_SDK_15.0.0/components/softdevice/common/nrf_sdh.c.obj
 .debug_abbrev  0x0000000000002bb8      0x2b2 CMakeFiles/light_switch_proxy_client_nrf52840_xxAA_s140_6.0.0.dir/home/mazzer/work/nordic/sdk/nRF5_SDK_15.0.0/components/softdevice/common/nrf_sdh_soc.c.obj
 .debug_abbrev  0x0000000000002e6a      0x3fe CMakeFiles/light_switch_proxy_client_nrf52840_xxAA_s140_6.0.0.dir/home/mazzer/work/nordic/sdk/nRF5_SDK_15.0.0/components/softdevice/common/nrf_sdh_ble.c.obj
 .debug_abbrev  0x0000000000003268      0x1ae CMakeFiles/light_switch_proxy_client_nrf52840_xxAA_s140_6.0.0.dir/__/__/nrf_mesh_weak.c.obj
 .debug_abbrev  0x0000000000003416      0x2d5 CMakeFiles/light_switch_proxy_client_nrf52840_xxAA_s140_6.0.0.dir/__/__/common/src/app_error_weak.c.obj
 .debug_abbrev  0x00000000000036eb      0x1f6 CMakeFiles/light_switch_proxy_client_nrf52840_xxAA_s140_6.0.0.dir/__/__/common/src/assertion_handler_weak.c.obj
 .debug_abbrev  0x00000000000038e1      0x254 CMakeFiles/light_switch_proxy_client_nrf52840_xxAA_s140_6.0.0.dir/__/__/__/mesh/core/src/nrf_mesh_configure.c.obj
 .debug_abbrev  0x0000000000003b35      0x266 CMakeFiles/light_switch_proxy_client_nrf52840_xxAA_s140_6.0.0.dir/__/__/__/mesh/core/src/aes.c.obj
 .debug_abbrev  0x0000000000003d9b      0x24e CMakeFiles/light_switch_proxy_client_nrf52840_xxAA_s140_6.0.0.dir/__/__/__/mesh/core/src/msg_cache.c.obj
 .debug_abbrev  0x0000000000003fe9      0x5f7 CMakeFiles/light_switch_proxy_client_nrf52840_xxAA_s140_6.0.0.dir/__/__/__/mesh/core/src/transport.c.obj
 .debug_abbrev  0x00000000000045e0      0x2d2 CMakeFiles/light_switch_proxy_client_nrf52840_xxAA_s140_6.0.0.dir/__/__/__/mesh/core/src/event.c.obj
 .debug_abbrev  0x00000000000048b2      0x455 CMakeFiles/light_switch_proxy_client_nrf52840_xxAA_s140_6.0.0.dir/__/__/__/mesh/core/src/packet_buffer.c.obj
 .debug_abbrev  0x0000000000004d07      0x526 CMakeFiles/light_switch_proxy_client_nrf52840_xxAA_s140_6.0.0.dir/__/__/__/mesh/core/src/flash_manager_defrag.c.obj
 .debug_abbrev  0x000000000000522d      0x2fc CMakeFiles/light_switch_proxy_client_nrf52840_xxAA_s140_6.0.0.dir/__/__/__/mesh/core/src/fifo.c.obj
 .debug_abbrev  0x0000000000005529      0x3bf CMakeFiles/light_switch_proxy_client_nrf52840_xxAA_s140_6.0.0.dir/__/__/__/mesh/core/src/packet_mgr.c.obj
 .debug_abbrev  0x00000000000058e8      0x50c CMakeFiles/light_switch_proxy_client_nrf52840_xxAA_s140_6.0.0.dir/__/__/__/mesh/core/src/net_state.c.obj
 .debug_abbrev  0x0000000000005df4      0x467 CMakeFiles/light_switch_proxy_client_nrf52840_xxAA_s140_6.0.0.dir/__/__/__/mesh/core/src/mesh_flash.c.obj
 .debug_abbrev  0x000000000000625b      0x244 CMakeFiles/light_switch_proxy_client_nrf52840_xxAA_s140_6.0.0.dir/__/__/__/mesh/core/src/nrf_mesh_utils.c.obj
 .debug_abbrev  0x000000000000649f      0x442 CMakeFiles/light_switch_proxy_client_nrf52840_xxAA_s140_6.0.0.dir/__/__/__/mesh/core/src/nrf_mesh.c.obj
 .debug_abbrev  0x00000000000068e1      0x247 CMakeFiles/light_switch_proxy_client_nrf52840_xxAA_s140_6.0.0.dir/__/__/__/mesh/core/src/queue.c.obj
 .debug_abbrev  0x0000000000006b28      0x1d1 CMakeFiles/light_switch_proxy_client_nrf52840_xxAA_s140_6.0.0.dir/__/__/__/mesh/core/src/hal.c.obj
 .debug_abbrev  0x0000000000006cf9      0x2e3 CMakeFiles/light_switch_proxy_client_nrf52840_xxAA_s140_6.0.0.dir/__/__/__/mesh/core/src/aes_cmac.c.obj
 .debug_abbrev  0x0000000000006fdc      0x3f7 CMakeFiles/light_switch_proxy_client_nrf52840_xxAA_s140_6.0.0.dir/__/__/__/mesh/core/src/timer_scheduler.c.obj
 .debug_abbrev  0x00000000000073d3      0x378 CMakeFiles/light_switch_proxy_client_nrf52840_xxAA_s140_6.0.0.dir/__/__/__/mesh/core/src/timer.c.obj
 .debug_abbrev  0x000000000000774b      0x154 CMakeFiles/light_switch_proxy_client_nrf52840_xxAA_s140_6.0.0.dir/__/__/__/mesh/core/src/ticker.c.obj
 .debug_abbrev  0x000000000000789f      0x22e CMakeFiles/light_switch_proxy_client_nrf52840_xxAA_s140_6.0.0.dir/__/__/__/mesh/core/src/rand.c.obj
 .debug_abbrev  0x0000000000007acd      0x24c CMakeFiles/light_switch_proxy_client_nrf52840_xxAA_s140_6.0.0.dir/__/__/__/mesh/core/src/nrf_mesh_opt.c.obj
 .debug_abbrev  0x0000000000007d19      0x4e5 CMakeFiles/light_switch_proxy_client_nrf52840_xxAA_s140_6.0.0.dir/__/__/__/mesh/core/src/timeslot.c.obj
 .debug_abbrev  0x00000000000081fe      0x4f9 CMakeFiles/light_switch_proxy_client_nrf52840_xxAA_s140_6.0.0.dir/__/__/__/mesh/core/src/bearer_event.c.obj
 .debug_abbrev  0x00000000000086f7      0x39b CMakeFiles/light_switch_proxy_client_nrf52840_xxAA_s140_6.0.0.dir/__/__/__/mesh/core/src/enc.c.obj
 .debug_abbrev  0x0000000000008a92      0x4e2 CMakeFiles/light_switch_proxy_client_nrf52840_xxAA_s140_6.0.0.dir/__/__/__/mesh/core/src/network.c.obj
 .debug_abbrev  0x0000000000008f74      0x4a1 CMakeFiles/light_switch_proxy_client_nrf52840_xxAA_s140_6.0.0.dir/__/__/__/mesh/core/src/net_packet.c.obj
 .debug_abbrev  0x0000000000009415      0x2e9 CMakeFiles/light_switch_proxy_client_nrf52840_xxAA_s140_6.0.0.dir/__/__/__/mesh/core/src/msqueue.c.obj
 .debug_abbrev  0x00000000000096fe      0x156 CMakeFiles/light_switch_proxy_client_nrf52840_xxAA_s140_6.0.0.dir/__/__/__/mesh/core/src/nrf_mesh_keygen.c.obj
 .debug_abbrev  0x0000000000009854      0x2e2 CMakeFiles/light_switch_proxy_client_nrf52840_xxAA_s140_6.0.0.dir/__/__/__/mesh/core/src/cache.c.obj
 .debug_abbrev  0x0000000000009b36      0x1ec CMakeFiles/light_switch_proxy_client_nrf52840_xxAA_s140_6.0.0.dir/__/__/__/mesh/core/src/list.c.obj
 .debug_abbrev  0x0000000000009d22      0x2b4 CMakeFiles/light_switch_proxy_client_nrf52840_xxAA_s140_6.0.0.dir/__/__/__/mesh/core/src/log.c.obj
 .debug_abbrev  0x0000000000009fd6      0x538 CMakeFiles/light_switch_proxy_client_nrf52840_xxAA_s140_6.0.0.dir/__/__/__/mesh/core/src/flash_manager.c.obj
 .debug_abbrev  0x000000000000a50e      0x2f5 CMakeFiles/light_switch_proxy_client_nrf52840_xxAA_s140_6.0.0.dir/__/__/__/mesh/core/src/ccm_soft.c.obj
 .debug_abbrev  0x000000000000a803      0x29b CMakeFiles/light_switch_proxy_client_nrf52840_xxAA_s140_6.0.0.dir/__/__/__/mesh/core/src/replay_cache.c.obj
 .debug_abbrev  0x000000000000aa9e      0x310 CMakeFiles/light_switch_proxy_client_nrf52840_xxAA_s140_6.0.0.dir/__/__/__/mesh/core/src/beacon.c.obj
 .debug_abbrev  0x000000000000adae      0x2fc CMakeFiles/light_switch_proxy_client_nrf52840_xxAA_s140_6.0.0.dir/__/__/__/mesh/core/src/core_tx.c.obj
 .debug_abbrev  0x000000000000b0aa      0x4e3 CMakeFiles/light_switch_proxy_client_nrf52840_xxAA_s140_6.0.0.dir/__/__/__/mesh/core/src/heartbeat.c.obj
 .debug_abbrev  0x000000000000b58d      0x512 CMakeFiles/light_switch_proxy_client_nrf52840_xxAA_s140_6.0.0.dir/__/__/__/mesh/core/src/net_beacon.c.obj
 .debug_abbrev  0x000000000000ba9f      0x35d CMakeFiles/light_switch_proxy_client_nrf52840_xxAA_s140_6.0.0.dir/__/__/__/mesh/core/src/fsm.c.obj
 .debug_abbrev  0x000000000000bdfc      0x330 CMakeFiles/light_switch_proxy_client_nrf52840_xxAA_s140_6.0.0.dir/__/__/__/mesh/core/src/core_tx_adv.c.obj
 .debug_abbrev  0x000000000000c12c      0x340 CMakeFiles/light_switch_proxy_client_nrf52840_xxAA_s140_6.0.0.dir/__/__/__/mesh/bearer/src/ad_listener.c.obj
 .debug_abbrev  0x000000000000c46c      0x375 CMakeFiles/light_switch_proxy_client_nrf52840_xxAA_s140_6.0.0.dir/__/__/__/mesh/bearer/src/ad_type_filter.c.obj
 .debug_abbrev  0x000000000000c7e1      0x56a CMakeFiles/light_switch_proxy_client_nrf52840_xxAA_s140_6.0.0.dir/__/__/__/mesh/bearer/src/advertiser.c.obj
 .debug_abbrev  0x000000000000cd4b      0x3fa CMakeFiles/light_switch_proxy_client_nrf52840_xxAA_s140_6.0.0.dir/__/__/__/mesh/bearer/src/bearer_handler.c.obj
 .debug_abbrev  0x000000000000d145      0x3eb CMakeFiles/light_switch_proxy_client_nrf52840_xxAA_s140_6.0.0.dir/__/__/__/mesh/bearer/src/broadcast.c.obj
 .debug_abbrev  0x000000000000d530      0x2af CMakeFiles/light_switch_proxy_client_nrf52840_xxAA_s140_6.0.0.dir/__/__/__/mesh/bearer/src/filter_engine.c.obj
 .debug_abbrev  0x000000000000d7df      0x1e4 CMakeFiles/light_switch_proxy_client_nrf52840_xxAA_s140_6.0.0.dir/__/__/__/mesh/bearer/src/radio_config.c.obj
 .debug_abbrev  0x000000000000d9c3      0x59f CMakeFiles/light_switch_proxy_client_nrf52840_xxAA_s140_6.0.0.dir/__/__/__/mesh/bearer/src/scanner.c.obj
 .debug_abbrev  0x000000000000df62      0x544 CMakeFiles/light_switch_proxy_client_nrf52840_xxAA_s140_6.0.0.dir/__/__/__/mesh/gatt/src/mesh_gatt.c.obj
 .debug_abbrev  0x000000000000e4a6      0x56a CMakeFiles/light_switch_proxy_client_nrf52840_xxAA_s140_6.0.0.dir/__/__/__/mesh/gatt/src/proxy.c.obj
 .debug_abbrev  0x000000000000ea10      0x202 CMakeFiles/light_switch_proxy_client_nrf52840_xxAA_s140_6.0.0.dir/__/__/__/mesh/gatt/src/proxy_filter.c.obj
 .debug_abbrev  0x000000000000ec12      0x3c9 CMakeFiles/light_switch_proxy_client_nrf52840_xxAA_s140_6.0.0.dir/__/__/__/models/simple_on_off/src/simple_on_off_client.c.obj
 .debug_abbrev  0x000000000000efdb      0x305 CMakeFiles/light_switch_proxy_client_nrf52840_xxAA_s140_6.0.0.dir/__/__/__/models/config/src/composition_data.c.obj
 .debug_abbrev  0x000000000000f2e0      0x56c CMakeFiles/light_switch_proxy_client_nrf52840_xxAA_s140_6.0.0.dir/__/__/__/models/config/src/config_server.c.obj
 .debug_abbrev  0x000000000000f84c       0x95 CMakeFiles/light_switch_proxy_client_nrf52840_xxAA_s140_6.0.0.dir/__/__/__/models/config/src/packed_index_list.c.obj
 .debug_abbrev  0x000000000000f8e1      0x505 CMakeFiles/light_switch_proxy_client_nrf52840_xxAA_s140_6.0.0.dir/__/__/__/models/health/src/health_server.c.obj
 .debug_abbrev  0x000000000000fde6      0x423 CMakeFiles/light_switch_proxy_client_nrf52840_xxAA_s140_6.0.0.dir/__/__/__/mesh/access/src/access_publish.c.obj
 .debug_abbrev  0x0000000000010209      0x61a CMakeFiles/light_switch_proxy_client_nrf52840_xxAA_s140_6.0.0.dir/__/__/__/mesh/access/src/access.c.obj
 .debug_abbrev  0x0000000000010823      0x455 CMakeFiles/light_switch_proxy_client_nrf52840_xxAA_s140_6.0.0.dir/__/__/__/mesh/access/src/access_reliable.c.obj
 .debug_abbrev  0x0000000000010c78      0x525 CMakeFiles/light_switch_proxy_client_nrf52840_xxAA_s140_6.0.0.dir/__/__/__/mesh/access/src/device_state_manager.c.obj
 .debug_abbrev  0x000000000001119d      0x47e CMakeFiles/light_switch_proxy_client_nrf52840_xxAA_s140_6.0.0.dir/__/__/__/mesh/prov/src/prov_provisionee.c.obj
 .debug_abbrev  0x000000000001161b      0x450 CMakeFiles/light_switch_proxy_client_nrf52840_xxAA_s140_6.0.0.dir/__/__/__/mesh/prov/src/nrf_mesh_prov.c.obj
 .debug_abbrev  0x0000000000011a6b      0x2e6 CMakeFiles/light_switch_proxy_client_nrf52840_xxAA_s140_6.0.0.dir/__/__/__/mesh/prov/src/provisioning.c.obj
 .debug_abbrev  0x0000000000011d51      0x2fc CMakeFiles/light_switch_proxy_client_nrf52840_xxAA_s140_6.0.0.dir/__/__/__/mesh/prov/src/prov_beacon.c.obj
 .debug_abbrev  0x000000000001204d      0x3f3 CMakeFiles/light_switch_proxy_client_nrf52840_xxAA_s140_6.0.0.dir/__/__/__/mesh/prov/src/prov_utils.c.obj
 .debug_abbrev  0x0000000000012440      0x55d CMakeFiles/light_switch_proxy_client_nrf52840_xxAA_s140_6.0.0.dir/__/__/__/mesh/prov/src/prov_bearer_adv.c.obj
 .debug_abbrev  0x000000000001299d      0x1e8 CMakeFiles/light_switch_proxy_client_nrf52840_xxAA_s140_6.0.0.dir/home/mazzer/work/nordic/sdk/nRF5_SDK_15.0.0/modules/nrfx/mdk/system_nrf52840.c.obj
 .debug_abbrev  0x0000000000012b85       0x14 CMakeFiles/light_switch_proxy_client_nrf52840_xxAA_s140_6.0.0.dir/home/mazzer/work/nordic/sdk/nRF5_SDK_15.0.0/modules/nrfx/mdk/gcc_startup_nrf52840.S.obj
 .debug_abbrev  0x0000000000012b99      0x1bd CMakeFiles/light_switch_proxy_client_nrf52840_xxAA_s140_6.0.0.dir/home/mazzer/work/nordic/sdk/nRF5_SDK_15.0.0/components/libraries/util/app_error_handler_gcc.c.obj
 .debug_abbrev  0x0000000000012d56      0x3d2 ../../../external/rtt/librtt_nrf52840_xxAA.a(SEGGER_RTT.c.obj)
 .debug_abbrev  0x0000000000013128      0x353 ../../../external/rtt/librtt_nrf52840_xxAA.a(SEGGER_RTT_printf.c.obj)
 .debug_abbrev  0x000000000001347b      0x4e2 ../../../external/micro-ecc/libuECC_nrf52840_xxAA.a(uECC.c.obj)

.debug_loc      0x0000000000000000    0x4a3d9
 .debug_loc     0x0000000000000000      0x9f4 CMakeFiles/light_switch_proxy_client_nrf52840_xxAA_s140_6.0.0.dir/src/main.c.obj
 .debug_loc     0x00000000000009f4      0x198 CMakeFiles/light_switch_proxy_client_nrf52840_xxAA_s140_6.0.0.dir/__/__/__/mesh/stack/src/mesh_stack.c.obj
 .debug_loc     0x0000000000000b8c      0x368 CMakeFiles/light_switch_proxy_client_nrf52840_xxAA_s140_6.0.0.dir/__/__/common/src/mesh_provisionee.c.obj
 .debug_loc     0x0000000000000ef4       0xbf CMakeFiles/light_switch_proxy_client_nrf52840_xxAA_s140_6.0.0.dir/__/__/common/src/rtt_input.c.obj
 .debug_loc     0x0000000000000fb3      0x29c CMakeFiles/light_switch_proxy_client_nrf52840_xxAA_s140_6.0.0.dir/__/__/common/src/simple_hal.c.obj
 .debug_loc     0x000000000000124f      0x182 CMakeFiles/light_switch_proxy_client_nrf52840_xxAA_s140_6.0.0.dir/__/__/common/src/mesh_adv.c.obj
 .debug_loc     0x00000000000013d1      0x7fe CMakeFiles/light_switch_proxy_client_nrf52840_xxAA_s140_6.0.0.dir/__/__/__/mesh/prov/src/nrf_mesh_prov_bearer_gatt.c.obj
 .debug_loc     0x0000000000001bcf       0xca CMakeFiles/light_switch_proxy_client_nrf52840_xxAA_s140_6.0.0.dir/home/mazzer/work/nordic/sdk/nRF5_SDK_15.0.0/components/libraries/util/app_error.c.obj
 .debug_loc     0x0000000000001c99      0x112 CMakeFiles/light_switch_proxy_client_nrf52840_xxAA_s140_6.0.0.dir/home/mazzer/work/nordic/sdk/nRF5_SDK_15.0.0/components/libraries/util/app_util_platform.c.obj
 .debug_loc     0x0000000000001dab     0x173d CMakeFiles/light_switch_proxy_client_nrf52840_xxAA_s140_6.0.0.dir/home/mazzer/work/nordic/sdk/nRF5_SDK_15.0.0/components/ble/common/ble_advdata.c.obj
 .debug_loc     0x00000000000034e8      0x287 CMakeFiles/light_switch_proxy_client_nrf52840_xxAA_s140_6.0.0.dir/home/mazzer/work/nordic/sdk/nRF5_SDK_15.0.0/components/softdevice/common/nrf_sdh.c.obj
 .debug_loc     0x000000000000376f       0x74 CMakeFiles/light_switch_proxy_client_nrf52840_xxAA_s140_6.0.0.dir/home/mazzer/work/nordic/sdk/nRF5_SDK_15.0.0/components/softdevice/common/nrf_sdh_soc.c.obj
 .debug_loc     0x00000000000037e3      0x1e0 CMakeFiles/light_switch_proxy_client_nrf52840_xxAA_s140_6.0.0.dir/home/mazzer/work/nordic/sdk/nRF5_SDK_15.0.0/components/softdevice/common/nrf_sdh_ble.c.obj
 .debug_loc     0x00000000000039c3      0x1c6 CMakeFiles/light_switch_proxy_client_nrf52840_xxAA_s140_6.0.0.dir/__/__/common/src/app_error_weak.c.obj
 .debug_loc     0x0000000000003b89       0x2c CMakeFiles/light_switch_proxy_client_nrf52840_xxAA_s140_6.0.0.dir/__/__/common/src/assertion_handler_weak.c.obj
 .debug_loc     0x0000000000003bb5       0x2c CMakeFiles/light_switch_proxy_client_nrf52840_xxAA_s140_6.0.0.dir/__/__/__/mesh/core/src/nrf_mesh_configure.c.obj
 .debug_loc     0x0000000000003be1       0x89 CMakeFiles/light_switch_proxy_client_nrf52840_xxAA_s140_6.0.0.dir/__/__/__/mesh/core/src/aes.c.obj
 .debug_loc     0x0000000000003c6a       0xab CMakeFiles/light_switch_proxy_client_nrf52840_xxAA_s140_6.0.0.dir/__/__/__/mesh/core/src/msg_cache.c.obj
 .debug_loc     0x0000000000003d15     0x41e3 CMakeFiles/light_switch_proxy_client_nrf52840_xxAA_s140_6.0.0.dir/__/__/__/mesh/core/src/transport.c.obj
 .debug_loc     0x0000000000007ef8      0x169 CMakeFiles/light_switch_proxy_client_nrf52840_xxAA_s140_6.0.0.dir/__/__/__/mesh/core/src/event.c.obj
 .debug_loc     0x0000000000008061      0xcfb CMakeFiles/light_switch_proxy_client_nrf52840_xxAA_s140_6.0.0.dir/__/__/__/mesh/core/src/packet_buffer.c.obj
 .debug_loc     0x0000000000008d5c      0xbd0 CMakeFiles/light_switch_proxy_client_nrf52840_xxAA_s140_6.0.0.dir/__/__/__/mesh/core/src/flash_manager_defrag.c.obj
 .debug_loc     0x000000000000992c      0x86b CMakeFiles/light_switch_proxy_client_nrf52840_xxAA_s140_6.0.0.dir/__/__/__/mesh/core/src/fifo.c.obj
 .debug_loc     0x000000000000a197      0x788 CMakeFiles/light_switch_proxy_client_nrf52840_xxAA_s140_6.0.0.dir/__/__/__/mesh/core/src/packet_mgr.c.obj
 .debug_loc     0x000000000000a91f      0x9a4 CMakeFiles/light_switch_proxy_client_nrf52840_xxAA_s140_6.0.0.dir/__/__/__/mesh/core/src/net_state.c.obj
 .debug_loc     0x000000000000b2c3      0xfd3 CMakeFiles/light_switch_proxy_client_nrf52840_xxAA_s140_6.0.0.dir/__/__/__/mesh/core/src/mesh_flash.c.obj
 .debug_loc     0x000000000000c296      0x185 CMakeFiles/light_switch_proxy_client_nrf52840_xxAA_s140_6.0.0.dir/__/__/__/mesh/core/src/nrf_mesh_utils.c.obj
 .debug_loc     0x000000000000c41b      0x700 CMakeFiles/light_switch_proxy_client_nrf52840_xxAA_s140_6.0.0.dir/__/__/__/mesh/core/src/nrf_mesh.c.obj
 .debug_loc     0x000000000000cb1b      0x186 CMakeFiles/light_switch_proxy_client_nrf52840_xxAA_s140_6.0.0.dir/__/__/__/mesh/core/src/queue.c.obj
 .debug_loc     0x000000000000cca1       0x63 CMakeFiles/light_switch_proxy_client_nrf52840_xxAA_s140_6.0.0.dir/__/__/__/mesh/core/src/hal.c.obj
 .debug_loc     0x000000000000cd04      0xb75 CMakeFiles/light_switch_proxy_client_nrf52840_xxAA_s140_6.0.0.dir/__/__/__/mesh/core/src/aes_cmac.c.obj
 .debug_loc     0x000000000000d879      0x5b7 CMakeFiles/light_switch_proxy_client_nrf52840_xxAA_s140_6.0.0.dir/__/__/__/mesh/core/src/timer_scheduler.c.obj
 .debug_loc     0x000000000000de30      0x608 CMakeFiles/light_switch_proxy_client_nrf52840_xxAA_s140_6.0.0.dir/__/__/__/mesh/core/src/timer.c.obj
 .debug_loc     0x000000000000e438      0x1c5 CMakeFiles/light_switch_proxy_client_nrf52840_xxAA_s140_6.0.0.dir/__/__/__/mesh/core/src/rand.c.obj
 .debug_loc     0x000000000000e5fd      0x194 CMakeFiles/light_switch_proxy_client_nrf52840_xxAA_s140_6.0.0.dir/__/__/__/mesh/core/src/nrf_mesh_opt.c.obj
 .debug_loc     0x000000000000e791      0x4f1 CMakeFiles/light_switch_proxy_client_nrf52840_xxAA_s140_6.0.0.dir/__/__/__/mesh/core/src/timeslot.c.obj
 .debug_loc     0x000000000000ec82      0x86e CMakeFiles/light_switch_proxy_client_nrf52840_xxAA_s140_6.0.0.dir/__/__/__/mesh/core/src/bearer_event.c.obj
 .debug_loc     0x000000000000f4f0      0xb0d CMakeFiles/light_switch_proxy_client_nrf52840_xxAA_s140_6.0.0.dir/__/__/__/mesh/core/src/enc.c.obj
 .debug_loc     0x000000000000fffd      0x84e CMakeFiles/light_switch_proxy_client_nrf52840_xxAA_s140_6.0.0.dir/__/__/__/mesh/core/src/network.c.obj
 .debug_loc     0x000000000001084b      0x978 CMakeFiles/light_switch_proxy_client_nrf52840_xxAA_s140_6.0.0.dir/__/__/__/mesh/core/src/net_packet.c.obj
 .debug_loc     0x00000000000111c3      0x438 CMakeFiles/light_switch_proxy_client_nrf52840_xxAA_s140_6.0.0.dir/__/__/__/mesh/core/src/msqueue.c.obj
 .debug_loc     0x00000000000115fb      0x210 CMakeFiles/light_switch_proxy_client_nrf52840_xxAA_s140_6.0.0.dir/__/__/__/mesh/core/src/nrf_mesh_keygen.c.obj
 .debug_loc     0x000000000001180b      0x3dc CMakeFiles/light_switch_proxy_client_nrf52840_xxAA_s140_6.0.0.dir/__/__/__/mesh/core/src/cache.c.obj
 .debug_loc     0x0000000000011be7      0x565 CMakeFiles/light_switch_proxy_client_nrf52840_xxAA_s140_6.0.0.dir/__/__/__/mesh/core/src/list.c.obj
 .debug_loc     0x000000000001214c      0x3dd CMakeFiles/light_switch_proxy_client_nrf52840_xxAA_s140_6.0.0.dir/__/__/__/mesh/core/src/log.c.obj
 .debug_loc     0x0000000000012529     0x21f7 CMakeFiles/light_switch_proxy_client_nrf52840_xxAA_s140_6.0.0.dir/__/__/__/mesh/core/src/flash_manager.c.obj
 .debug_loc     0x0000000000014720      0xb6e CMakeFiles/light_switch_proxy_client_nrf52840_xxAA_s140_6.0.0.dir/__/__/__/mesh/core/src/ccm_soft.c.obj
 .debug_loc     0x000000000001528e      0x16c CMakeFiles/light_switch_proxy_client_nrf52840_xxAA_s140_6.0.0.dir/__/__/__/mesh/core/src/replay_cache.c.obj
 .debug_loc     0x00000000000153fa      0x416 CMakeFiles/light_switch_proxy_client_nrf52840_xxAA_s140_6.0.0.dir/__/__/__/mesh/core/src/beacon.c.obj
 .debug_loc     0x0000000000015810      0x4d1 CMakeFiles/light_switch_proxy_client_nrf52840_xxAA_s140_6.0.0.dir/__/__/__/mesh/core/src/core_tx.c.obj
 .debug_loc     0x0000000000015ce1      0x6c5 CMakeFiles/light_switch_proxy_client_nrf52840_xxAA_s140_6.0.0.dir/__/__/__/mesh/core/src/heartbeat.c.obj
 .debug_loc     0x00000000000163a6      0x6e9 CMakeFiles/light_switch_proxy_client_nrf52840_xxAA_s140_6.0.0.dir/__/__/__/mesh/core/src/net_beacon.c.obj
 .debug_loc     0x0000000000016a8f      0x4f3 CMakeFiles/light_switch_proxy_client_nrf52840_xxAA_s140_6.0.0.dir/__/__/__/mesh/core/src/fsm.c.obj
 .debug_loc     0x0000000000016f82      0x3d3 CMakeFiles/light_switch_proxy_client_nrf52840_xxAA_s140_6.0.0.dir/__/__/__/mesh/core/src/core_tx_adv.c.obj
 .debug_loc     0x0000000000017355      0x45f CMakeFiles/light_switch_proxy_client_nrf52840_xxAA_s140_6.0.0.dir/__/__/__/mesh/bearer/src/ad_listener.c.obj
 .debug_loc     0x00000000000177b4      0x321 CMakeFiles/light_switch_proxy_client_nrf52840_xxAA_s140_6.0.0.dir/__/__/__/mesh/bearer/src/ad_type_filter.c.obj
 .debug_loc     0x0000000000017ad5     0x12af CMakeFiles/light_switch_proxy_client_nrf52840_xxAA_s140_6.0.0.dir/__/__/__/mesh/bearer/src/advertiser.c.obj
 .debug_loc     0x0000000000018d84      0x394 CMakeFiles/light_switch_proxy_client_nrf52840_xxAA_s140_6.0.0.dir/__/__/__/mesh/bearer/src/bearer_handler.c.obj
 .debug_loc     0x0000000000019118      0x30e CMakeFiles/light_switch_proxy_client_nrf52840_xxAA_s140_6.0.0.dir/__/__/__/mesh/bearer/src/broadcast.c.obj
 .debug_loc     0x0000000000019426      0x179 CMakeFiles/light_switch_proxy_client_nrf52840_xxAA_s140_6.0.0.dir/__/__/__/mesh/bearer/src/filter_engine.c.obj
 .debug_loc     0x000000000001959f      0x239 CMakeFiles/light_switch_proxy_client_nrf52840_xxAA_s140_6.0.0.dir/__/__/__/mesh/bearer/src/radio_config.c.obj
 .debug_loc     0x00000000000197d8      0x899 CMakeFiles/light_switch_proxy_client_nrf52840_xxAA_s140_6.0.0.dir/__/__/__/mesh/bearer/src/scanner.c.obj
 .debug_loc     0x000000000001a071     0x190b CMakeFiles/light_switch_proxy_client_nrf52840_xxAA_s140_6.0.0.dir/__/__/__/mesh/gatt/src/mesh_gatt.c.obj
 .debug_loc     0x000000000001b97c     0x1f59 CMakeFiles/light_switch_proxy_client_nrf52840_xxAA_s140_6.0.0.dir/__/__/__/mesh/gatt/src/proxy.c.obj
 .debug_loc     0x000000000001d8d5      0x3eb CMakeFiles/light_switch_proxy_client_nrf52840_xxAA_s140_6.0.0.dir/__/__/__/mesh/gatt/src/proxy_filter.c.obj
 .debug_loc     0x000000000001dcc0      0x805 CMakeFiles/light_switch_proxy_client_nrf52840_xxAA_s140_6.0.0.dir/__/__/__/models/simple_on_off/src/simple_on_off_client.c.obj
 .debug_loc     0x000000000001e4c5      0x29f CMakeFiles/light_switch_proxy_client_nrf52840_xxAA_s140_6.0.0.dir/__/__/__/models/config/src/composition_data.c.obj
 .debug_loc     0x000000000001e764     0xa99b CMakeFiles/light_switch_proxy_client_nrf52840_xxAA_s140_6.0.0.dir/__/__/__/models/config/src/config_server.c.obj
 .debug_loc     0x00000000000290ff       0xa8 CMakeFiles/light_switch_proxy_client_nrf52840_xxAA_s140_6.0.0.dir/__/__/__/models/config/src/packed_index_list.c.obj
 .debug_loc     0x00000000000291a7     0x3724 CMakeFiles/light_switch_proxy_client_nrf52840_xxAA_s140_6.0.0.dir/__/__/__/models/health/src/health_server.c.obj
 .debug_loc     0x000000000002c8cb      0x939 CMakeFiles/light_switch_proxy_client_nrf52840_xxAA_s140_6.0.0.dir/__/__/__/mesh/access/src/access_publish.c.obj
 .debug_loc     0x000000000002d204     0x32c8 CMakeFiles/light_switch_proxy_client_nrf52840_xxAA_s140_6.0.0.dir/__/__/__/mesh/access/src/access.c.obj
 .debug_loc     0x00000000000304cc      0xead CMakeFiles/light_switch_proxy_client_nrf52840_xxAA_s140_6.0.0.dir/__/__/__/mesh/access/src/access_reliable.c.obj
 .debug_loc     0x0000000000031379     0x41eb CMakeFiles/light_switch_proxy_client_nrf52840_xxAA_s140_6.0.0.dir/__/__/__/mesh/access/src/device_state_manager.c.obj
 .debug_loc     0x0000000000035564      0xaad CMakeFiles/light_switch_proxy_client_nrf52840_xxAA_s140_6.0.0.dir/__/__/__/mesh/prov/src/prov_provisionee.c.obj
 .debug_loc     0x0000000000036011      0xaf3 CMakeFiles/light_switch_proxy_client_nrf52840_xxAA_s140_6.0.0.dir/__/__/__/mesh/prov/src/nrf_mesh_prov.c.obj
 .debug_loc     0x0000000000036b04      0xc0a CMakeFiles/light_switch_proxy_client_nrf52840_xxAA_s140_6.0.0.dir/__/__/__/mesh/prov/src/provisioning.c.obj
 .debug_loc     0x000000000003770e      0x255 CMakeFiles/light_switch_proxy_client_nrf52840_xxAA_s140_6.0.0.dir/__/__/__/mesh/prov/src/prov_beacon.c.obj
 .debug_loc     0x0000000000037963      0x492 CMakeFiles/light_switch_proxy_client_nrf52840_xxAA_s140_6.0.0.dir/__/__/__/mesh/prov/src/prov_utils.c.obj
 .debug_loc     0x0000000000037df5     0x2722 CMakeFiles/light_switch_proxy_client_nrf52840_xxAA_s140_6.0.0.dir/__/__/__/mesh/prov/src/prov_bearer_adv.c.obj
 .debug_loc     0x000000000003a517       0x63 CMakeFiles/light_switch_proxy_client_nrf52840_xxAA_s140_6.0.0.dir/home/mazzer/work/nordic/sdk/nRF5_SDK_15.0.0/components/libraries/util/app_error_handler_gcc.c.obj
 .debug_loc     0x000000000003a57a     0x3e95 ../../../external/rtt/librtt_nrf52840_xxAA.a(SEGGER_RTT.c.obj)
 .debug_loc     0x000000000003e40f      0xec5 ../../../external/rtt/librtt_nrf52840_xxAA.a(SEGGER_RTT_printf.c.obj)
 .debug_loc     0x000000000003f2d4     0xb105 ../../../external/micro-ecc/libuECC_nrf52840_xxAA.a(uECC.c.obj)

.debug_aranges  0x0000000000000000     0x21b8
 .debug_aranges
                0x0000000000000000       0x78 CMakeFiles/light_switch_proxy_client_nrf52840_xxAA_s140_6.0.0.dir/src/main.c.obj
 .debug_aranges
                0x0000000000000078       0x48 CMakeFiles/light_switch_proxy_client_nrf52840_xxAA_s140_6.0.0.dir/__/__/__/mesh/stack/src/mesh_stack.c.obj
 .debug_aranges
                0x00000000000000c0       0x30 CMakeFiles/light_switch_proxy_client_nrf52840_xxAA_s140_6.0.0.dir/__/__/common/src/mesh_provisionee.c.obj
 .debug_aranges
                0x00000000000000f0       0x30 CMakeFiles/light_switch_proxy_client_nrf52840_xxAA_s140_6.0.0.dir/__/__/common/src/rtt_input.c.obj
 .debug_aranges
                0x0000000000000120       0x50 CMakeFiles/light_switch_proxy_client_nrf52840_xxAA_s140_6.0.0.dir/__/__/common/src/simple_hal.c.obj
 .debug_aranges
                0x0000000000000170       0x50 CMakeFiles/light_switch_proxy_client_nrf52840_xxAA_s140_6.0.0.dir/__/__/common/src/mesh_adv.c.obj
 .debug_aranges
                0x00000000000001c0       0xb8 CMakeFiles/light_switch_proxy_client_nrf52840_xxAA_s140_6.0.0.dir/__/__/__/mesh/prov/src/nrf_mesh_prov_bearer_gatt.c.obj
 .debug_aranges
                0x0000000000000278       0x28 CMakeFiles/light_switch_proxy_client_nrf52840_xxAA_s140_6.0.0.dir/home/mazzer/work/nordic/sdk/nRF5_SDK_15.0.0/components/libraries/util/app_error.c.obj
 .debug_aranges
                0x00000000000002a0       0x48 CMakeFiles/light_switch_proxy_client_nrf52840_xxAA_s140_6.0.0.dir/home/mazzer/work/nordic/sdk/nRF5_SDK_15.0.0/components/libraries/util/app_util_platform.c.obj
 .debug_aranges
                0x00000000000002e8       0x78 CMakeFiles/light_switch_proxy_client_nrf52840_xxAA_s140_6.0.0.dir/home/mazzer/work/nordic/sdk/nRF5_SDK_15.0.0/components/ble/common/ble_advdata.c.obj
 .debug_aranges
                0x0000000000000360       0x28 CMakeFiles/light_switch_proxy_client_nrf52840_xxAA_s140_6.0.0.dir/home/mazzer/work/nordic/sdk/nRF5_SDK_15.0.0/components/libraries/experimental_section_vars/nrf_section_iter.c.obj
 .debug_aranges
                0x0000000000000388       0x70 CMakeFiles/light_switch_proxy_client_nrf52840_xxAA_s140_6.0.0.dir/home/mazzer/work/nordic/sdk/nRF5_SDK_15.0.0/components/softdevice/common/nrf_sdh.c.obj
 .debug_aranges
                0x00000000000003f8       0x28 CMakeFiles/light_switch_proxy_client_nrf52840_xxAA_s140_6.0.0.dir/home/mazzer/work/nordic/sdk/nRF5_SDK_15.0.0/components/softdevice/common/nrf_sdh_soc.c.obj
 .debug_aranges
                0x0000000000000420       0x50 CMakeFiles/light_switch_proxy_client_nrf52840_xxAA_s140_6.0.0.dir/home/mazzer/work/nordic/sdk/nRF5_SDK_15.0.0/components/softdevice/common/nrf_sdh_ble.c.obj
 .debug_aranges
                0x0000000000000470       0x28 CMakeFiles/light_switch_proxy_client_nrf52840_xxAA_s140_6.0.0.dir/__/__/nrf_mesh_weak.c.obj
 .debug_aranges
                0x0000000000000498       0x20 CMakeFiles/light_switch_proxy_client_nrf52840_xxAA_s140_6.0.0.dir/__/__/common/src/app_error_weak.c.obj
 .debug_aranges
                0x00000000000004b8       0x20 CMakeFiles/light_switch_proxy_client_nrf52840_xxAA_s140_6.0.0.dir/__/__/common/src/assertion_handler_weak.c.obj
 .debug_aranges
                0x00000000000004d8       0x30 CMakeFiles/light_switch_proxy_client_nrf52840_xxAA_s140_6.0.0.dir/__/__/__/mesh/core/src/nrf_mesh_configure.c.obj
 .debug_aranges
                0x0000000000000508       0x28 CMakeFiles/light_switch_proxy_client_nrf52840_xxAA_s140_6.0.0.dir/__/__/__/mesh/core/src/aes.c.obj
 .debug_aranges
                0x0000000000000530       0x38 CMakeFiles/light_switch_proxy_client_nrf52840_xxAA_s140_6.0.0.dir/__/__/__/mesh/core/src/msg_cache.c.obj
 .debug_aranges
                0x0000000000000568       0xc0 CMakeFiles/light_switch_proxy_client_nrf52840_xxAA_s140_6.0.0.dir/__/__/__/mesh/core/src/transport.c.obj
 .debug_aranges
                0x0000000000000628       0x30 CMakeFiles/light_switch_proxy_client_nrf52840_xxAA_s140_6.0.0.dir/__/__/__/mesh/core/src/event.c.obj
 .debug_aranges
                0x0000000000000658       0x60 CMakeFiles/light_switch_proxy_client_nrf52840_xxAA_s140_6.0.0.dir/__/__/__/mesh/core/src/packet_buffer.c.obj
 .debug_aranges
                0x00000000000006b8       0xa0 CMakeFiles/light_switch_proxy_client_nrf52840_xxAA_s140_6.0.0.dir/__/__/__/mesh/core/src/flash_manager_defrag.c.obj
 .debug_aranges
                0x0000000000000758       0x60 CMakeFiles/light_switch_proxy_client_nrf52840_xxAA_s140_6.0.0.dir/__/__/__/mesh/core/src/fifo.c.obj
 .debug_aranges
                0x00000000000007b8       0x48 CMakeFiles/light_switch_proxy_client_nrf52840_xxAA_s140_6.0.0.dir/__/__/__/mesh/core/src/packet_mgr.c.obj
 .debug_aranges
                0x0000000000000800       0xa8 CMakeFiles/light_switch_proxy_client_nrf52840_xxAA_s140_6.0.0.dir/__/__/__/mesh/core/src/net_state.c.obj
 .debug_aranges
                0x00000000000008a8       0x58 CMakeFiles/light_switch_proxy_client_nrf52840_xxAA_s140_6.0.0.dir/__/__/__/mesh/core/src/mesh_flash.c.obj
 .debug_aranges
                0x0000000000000900       0x30 CMakeFiles/light_switch_proxy_client_nrf52840_xxAA_s140_6.0.0.dir/__/__/__/mesh/core/src/nrf_mesh_utils.c.obj
 .debug_aranges
                0x0000000000000930       0x88 CMakeFiles/light_switch_proxy_client_nrf52840_xxAA_s140_6.0.0.dir/__/__/__/mesh/core/src/nrf_mesh.c.obj
 .debug_aranges
                0x00000000000009b8       0x38 CMakeFiles/light_switch_proxy_client_nrf52840_xxAA_s140_6.0.0.dir/__/__/__/mesh/core/src/queue.c.obj
 .debug_aranges
                0x00000000000009f0       0x30 CMakeFiles/light_switch_proxy_client_nrf52840_xxAA_s140_6.0.0.dir/__/__/__/mesh/core/src/hal.c.obj
 .debug_aranges
                0x0000000000000a20       0x28 CMakeFiles/light_switch_proxy_client_nrf52840_xxAA_s140_6.0.0.dir/__/__/__/mesh/core/src/aes_cmac.c.obj
 .debug_aranges
                0x0000000000000a48       0x50 CMakeFiles/light_switch_proxy_client_nrf52840_xxAA_s140_6.0.0.dir/__/__/__/mesh/core/src/timer_scheduler.c.obj
 .debug_aranges
                0x0000000000000a98       0x58 CMakeFiles/light_switch_proxy_client_nrf52840_xxAA_s140_6.0.0.dir/__/__/__/mesh/core/src/timer.c.obj
 .debug_aranges
                0x0000000000000af0       0x30 CMakeFiles/light_switch_proxy_client_nrf52840_xxAA_s140_6.0.0.dir/__/__/__/mesh/core/src/ticker.c.obj
 .debug_aranges
                0x0000000000000b20       0x40 CMakeFiles/light_switch_proxy_client_nrf52840_xxAA_s140_6.0.0.dir/__/__/__/mesh/core/src/rand.c.obj
 .debug_aranges
                0x0000000000000b60       0x28 CMakeFiles/light_switch_proxy_client_nrf52840_xxAA_s140_6.0.0.dir/__/__/__/mesh/core/src/nrf_mesh_opt.c.obj
 .debug_aranges
                0x0000000000000b88       0xa8 CMakeFiles/light_switch_proxy_client_nrf52840_xxAA_s140_6.0.0.dir/__/__/__/mesh/core/src/timeslot.c.obj
 .debug_aranges
                0x0000000000000c30       0x88 CMakeFiles/light_switch_proxy_client_nrf52840_xxAA_s140_6.0.0.dir/__/__/__/mesh/core/src/bearer_event.c.obj
 .debug_aranges
                0x0000000000000cb8       0x70 CMakeFiles/light_switch_proxy_client_nrf52840_xxAA_s140_6.0.0.dir/__/__/__/mesh/core/src/enc.c.obj
 .debug_aranges
                0x0000000000000d28       0x50 CMakeFiles/light_switch_proxy_client_nrf52840_xxAA_s140_6.0.0.dir/__/__/__/mesh/core/src/network.c.obj
 .debug_aranges
                0x0000000000000d78       0x58 CMakeFiles/light_switch_proxy_client_nrf52840_xxAA_s140_6.0.0.dir/__/__/__/mesh/core/src/net_packet.c.obj
 .debug_aranges
                0x0000000000000dd0       0x40 CMakeFiles/light_switch_proxy_client_nrf52840_xxAA_s140_6.0.0.dir/__/__/__/mesh/core/src/msqueue.c.obj
 .debug_aranges
                0x0000000000000e10       0x40 CMakeFiles/light_switch_proxy_client_nrf52840_xxAA_s140_6.0.0.dir/__/__/__/mesh/core/src/nrf_mesh_keygen.c.obj
 .debug_aranges
                0x0000000000000e50       0x38 CMakeFiles/light_switch_proxy_client_nrf52840_xxAA_s140_6.0.0.dir/__/__/__/mesh/core/src/cache.c.obj
 .debug_aranges
                0x0000000000000e88       0x40 CMakeFiles/light_switch_proxy_client_nrf52840_xxAA_s140_6.0.0.dir/__/__/__/mesh/core/src/list.c.obj
 .debug_aranges
                0x0000000000000ec8       0x48 CMakeFiles/light_switch_proxy_client_nrf52840_xxAA_s140_6.0.0.dir/__/__/__/mesh/core/src/log.c.obj
 .debug_aranges
                0x0000000000000f10       0xa0 CMakeFiles/light_switch_proxy_client_nrf52840_xxAA_s140_6.0.0.dir/__/__/__/mesh/core/src/flash_manager.c.obj
 .debug_aranges
                0x0000000000000fb0       0x38 CMakeFiles/light_switch_proxy_client_nrf52840_xxAA_s140_6.0.0.dir/__/__/__/mesh/core/src/ccm_soft.c.obj
 .debug_aranges
                0x0000000000000fe8       0x38 CMakeFiles/light_switch_proxy_client_nrf52840_xxAA_s140_6.0.0.dir/__/__/__/mesh/core/src/replay_cache.c.obj
 .debug_aranges
                0x0000000000001020       0x28 CMakeFiles/light_switch_proxy_client_nrf52840_xxAA_s140_6.0.0.dir/__/__/__/mesh/core/src/beacon.c.obj
 .debug_aranges
                0x0000000000001048       0x58 CMakeFiles/light_switch_proxy_client_nrf52840_xxAA_s140_6.0.0.dir/__/__/__/mesh/core/src/core_tx.c.obj
 .debug_aranges
                0x00000000000010a0       0x70 CMakeFiles/light_switch_proxy_client_nrf52840_xxAA_s140_6.0.0.dir/__/__/__/mesh/core/src/heartbeat.c.obj
 .debug_aranges
                0x0000000000001110       0x58 CMakeFiles/light_switch_proxy_client_nrf52840_xxAA_s140_6.0.0.dir/__/__/__/mesh/core/src/net_beacon.c.obj
 .debug_aranges
                0x0000000000001168       0x38 CMakeFiles/light_switch_proxy_client_nrf52840_xxAA_s140_6.0.0.dir/__/__/__/mesh/core/src/fsm.c.obj
 .debug_aranges
                0x00000000000011a0       0x68 CMakeFiles/light_switch_proxy_client_nrf52840_xxAA_s140_6.0.0.dir/__/__/__/mesh/core/src/core_tx_adv.c.obj
 .debug_aranges
                0x0000000000001208       0x30 CMakeFiles/light_switch_proxy_client_nrf52840_xxAA_s140_6.0.0.dir/__/__/__/mesh/bearer/src/ad_listener.c.obj
 .debug_aranges
                0x0000000000001238       0x58 CMakeFiles/light_switch_proxy_client_nrf52840_xxAA_s140_6.0.0.dir/__/__/__/mesh/bearer/src/ad_type_filter.c.obj
 .debug_aranges
                0x0000000000001290       0xa0 CMakeFiles/light_switch_proxy_client_nrf52840_xxAA_s140_6.0.0.dir/__/__/__/mesh/bearer/src/advertiser.c.obj
 .debug_aranges
                0x0000000000001330       0x70 CMakeFiles/light_switch_proxy_client_nrf52840_xxAA_s140_6.0.0.dir/__/__/__/mesh/bearer/src/bearer_handler.c.obj
 .debug_aranges
                0x00000000000013a0       0x30 CMakeFiles/light_switch_proxy_client_nrf52840_xxAA_s140_6.0.0.dir/__/__/__/mesh/bearer/src/broadcast.c.obj
 .debug_aranges
                0x00000000000013d0       0x38 CMakeFiles/light_switch_proxy_client_nrf52840_xxAA_s140_6.0.0.dir/__/__/__/mesh/bearer/src/filter_engine.c.obj
 .debug_aranges
                0x0000000000001408       0x40 CMakeFiles/light_switch_proxy_client_nrf52840_xxAA_s140_6.0.0.dir/__/__/__/mesh/bearer/src/radio_config.c.obj
 .debug_aranges
                0x0000000000001448       0xb8 CMakeFiles/light_switch_proxy_client_nrf52840_xxAA_s140_6.0.0.dir/__/__/__/mesh/bearer/src/scanner.c.obj
 .debug_aranges
                0x0000000000001500       0xa0 CMakeFiles/light_switch_proxy_client_nrf52840_xxAA_s140_6.0.0.dir/__/__/__/mesh/gatt/src/mesh_gatt.c.obj
 .debug_aranges
                0x00000000000015a0       0xa0 CMakeFiles/light_switch_proxy_client_nrf52840_xxAA_s140_6.0.0.dir/__/__/__/mesh/gatt/src/proxy.c.obj
 .debug_aranges
                0x0000000000001640       0x40 CMakeFiles/light_switch_proxy_client_nrf52840_xxAA_s140_6.0.0.dir/__/__/__/mesh/gatt/src/proxy_filter.c.obj
 .debug_aranges
                0x0000000000001680       0x58 CMakeFiles/light_switch_proxy_client_nrf52840_xxAA_s140_6.0.0.dir/__/__/__/models/simple_on_off/src/simple_on_off_client.c.obj
 .debug_aranges
                0x00000000000016d8       0x20 CMakeFiles/light_switch_proxy_client_nrf52840_xxAA_s140_6.0.0.dir/__/__/__/models/config/src/composition_data.c.obj
 .debug_aranges
                0x00000000000016f8      0x1a8 CMakeFiles/light_switch_proxy_client_nrf52840_xxAA_s140_6.0.0.dir/__/__/__/models/config/src/config_server.c.obj
 .debug_aranges
                0x00000000000018a0       0x20 CMakeFiles/light_switch_proxy_client_nrf52840_xxAA_s140_6.0.0.dir/__/__/__/models/config/src/packed_index_list.c.obj
 .debug_aranges
                0x00000000000018c0       0xa0 CMakeFiles/light_switch_proxy_client_nrf52840_xxAA_s140_6.0.0.dir/__/__/__/models/health/src/health_server.c.obj
 .debug_aranges
                0x0000000000001960       0x40 CMakeFiles/light_switch_proxy_client_nrf52840_xxAA_s140_6.0.0.dir/__/__/__/mesh/access/src/access_publish.c.obj
 .debug_aranges
                0x00000000000019a0      0x150 CMakeFiles/light_switch_proxy_client_nrf52840_xxAA_s140_6.0.0.dir/__/__/__/mesh/access/src/access.c.obj
 .debug_aranges
                0x0000000000001af0       0x50 CMakeFiles/light_switch_proxy_client_nrf52840_xxAA_s140_6.0.0.dir/__/__/__/mesh/access/src/access_reliable.c.obj
 .debug_aranges
                0x0000000000001b40      0x1a0 CMakeFiles/light_switch_proxy_client_nrf52840_xxAA_s140_6.0.0.dir/__/__/__/mesh/access/src/device_state_manager.c.obj
 .debug_aranges
                0x0000000000001ce0       0x60 CMakeFiles/light_switch_proxy_client_nrf52840_xxAA_s140_6.0.0.dir/__/__/__/mesh/prov/src/prov_provisionee.c.obj
 .debug_aranges
                0x0000000000001d40       0x80 CMakeFiles/light_switch_proxy_client_nrf52840_xxAA_s140_6.0.0.dir/__/__/__/mesh/prov/src/nrf_mesh_prov.c.obj
 .debug_aranges
                0x0000000000001dc0       0x78 CMakeFiles/light_switch_proxy_client_nrf52840_xxAA_s140_6.0.0.dir/__/__/__/mesh/prov/src/provisioning.c.obj
 .debug_aranges
                0x0000000000001e38       0x38 CMakeFiles/light_switch_proxy_client_nrf52840_xxAA_s140_6.0.0.dir/__/__/__/mesh/prov/src/prov_beacon.c.obj
 .debug_aranges
                0x0000000000001e70       0x60 CMakeFiles/light_switch_proxy_client_nrf52840_xxAA_s140_6.0.0.dir/__/__/__/mesh/prov/src/prov_utils.c.obj
 .debug_aranges
                0x0000000000001ed0       0xa0 CMakeFiles/light_switch_proxy_client_nrf52840_xxAA_s140_6.0.0.dir/__/__/__/mesh/prov/src/prov_bearer_adv.c.obj
 .debug_aranges
                0x0000000000001f70       0x28 CMakeFiles/light_switch_proxy_client_nrf52840_xxAA_s140_6.0.0.dir/home/mazzer/work/nordic/sdk/nRF5_SDK_15.0.0/modules/nrfx/mdk/system_nrf52840.c.obj
 .debug_aranges
                0x0000000000001f98       0x20 CMakeFiles/light_switch_proxy_client_nrf52840_xxAA_s140_6.0.0.dir/home/mazzer/work/nordic/sdk/nRF5_SDK_15.0.0/modules/nrfx/mdk/gcc_startup_nrf52840.S.obj
 .debug_aranges
                0x0000000000001fb8       0x20 CMakeFiles/light_switch_proxy_client_nrf52840_xxAA_s140_6.0.0.dir/home/mazzer/work/nordic/sdk/nRF5_SDK_15.0.0/components/libraries/util/app_error_handler_gcc.c.obj
 .debug_aranges
                0x0000000000001fd8       0xb0 ../../../external/rtt/librtt_nrf52840_xxAA.a(SEGGER_RTT.c.obj)
 .debug_aranges
                0x0000000000002088       0x30 ../../../external/rtt/librtt_nrf52840_xxAA.a(SEGGER_RTT_printf.c.obj)
 .debug_aranges
                0x00000000000020b8      0x100 ../../../external/micro-ecc/libuECC_nrf52840_xxAA.a(uECC.c.obj)

.debug_ranges   0x0000000000000000     0xd3a0
 .debug_ranges  0x0000000000000000      0x4e0 CMakeFiles/light_switch_proxy_client_nrf52840_xxAA_s140_6.0.0.dir/src/main.c.obj
 .debug_ranges  0x00000000000004e0       0x50 CMakeFiles/light_switch_proxy_client_nrf52840_xxAA_s140_6.0.0.dir/__/__/__/mesh/stack/src/mesh_stack.c.obj
 .debug_ranges  0x0000000000000530      0x150 CMakeFiles/light_switch_proxy_client_nrf52840_xxAA_s140_6.0.0.dir/__/__/common/src/mesh_provisionee.c.obj
 .debug_ranges  0x0000000000000680       0x78 CMakeFiles/light_switch_proxy_client_nrf52840_xxAA_s140_6.0.0.dir/__/__/common/src/rtt_input.c.obj
 .debug_ranges  0x00000000000006f8       0xc0 CMakeFiles/light_switch_proxy_client_nrf52840_xxAA_s140_6.0.0.dir/__/__/common/src/simple_hal.c.obj
 .debug_ranges  0x00000000000007b8       0xb0 CMakeFiles/light_switch_proxy_client_nrf52840_xxAA_s140_6.0.0.dir/__/__/common/src/mesh_adv.c.obj
 .debug_ranges  0x0000000000000868      0x170 CMakeFiles/light_switch_proxy_client_nrf52840_xxAA_s140_6.0.0.dir/__/__/__/mesh/prov/src/nrf_mesh_prov_bearer_gatt.c.obj
 .debug_ranges  0x00000000000009d8       0x18 CMakeFiles/light_switch_proxy_client_nrf52840_xxAA_s140_6.0.0.dir/home/mazzer/work/nordic/sdk/nRF5_SDK_15.0.0/components/libraries/util/app_error.c.obj
 .debug_ranges  0x00000000000009f0       0x80 CMakeFiles/light_switch_proxy_client_nrf52840_xxAA_s140_6.0.0.dir/home/mazzer/work/nordic/sdk/nRF5_SDK_15.0.0/components/libraries/util/app_util_platform.c.obj
 .debug_ranges  0x0000000000000a70      0x2b0 CMakeFiles/light_switch_proxy_client_nrf52840_xxAA_s140_6.0.0.dir/home/mazzer/work/nordic/sdk/nRF5_SDK_15.0.0/components/ble/common/ble_advdata.c.obj
 .debug_ranges  0x0000000000000d20       0x18 CMakeFiles/light_switch_proxy_client_nrf52840_xxAA_s140_6.0.0.dir/home/mazzer/work/nordic/sdk/nRF5_SDK_15.0.0/components/libraries/experimental_section_vars/nrf_section_iter.c.obj
 .debug_ranges  0x0000000000000d38      0x1d0 CMakeFiles/light_switch_proxy_client_nrf52840_xxAA_s140_6.0.0.dir/home/mazzer/work/nordic/sdk/nRF5_SDK_15.0.0/components/softdevice/common/nrf_sdh.c.obj
 .debug_ranges  0x0000000000000f08       0x30 CMakeFiles/light_switch_proxy_client_nrf52840_xxAA_s140_6.0.0.dir/home/mazzer/work/nordic/sdk/nRF5_SDK_15.0.0/components/softdevice/common/nrf_sdh_soc.c.obj
 .debug_ranges  0x0000000000000f38       0x90 CMakeFiles/light_switch_proxy_client_nrf52840_xxAA_s140_6.0.0.dir/home/mazzer/work/nordic/sdk/nRF5_SDK_15.0.0/components/softdevice/common/nrf_sdh_ble.c.obj
 .debug_ranges  0x0000000000000fc8       0x18 CMakeFiles/light_switch_proxy_client_nrf52840_xxAA_s140_6.0.0.dir/__/__/nrf_mesh_weak.c.obj
 .debug_ranges  0x0000000000000fe0       0xc8 CMakeFiles/light_switch_proxy_client_nrf52840_xxAA_s140_6.0.0.dir/__/__/common/src/app_error_weak.c.obj
 .debug_ranges  0x00000000000010a8       0x10 CMakeFiles/light_switch_proxy_client_nrf52840_xxAA_s140_6.0.0.dir/__/__/common/src/assertion_handler_weak.c.obj
 .debug_ranges  0x00000000000010b8       0x20 CMakeFiles/light_switch_proxy_client_nrf52840_xxAA_s140_6.0.0.dir/__/__/__/mesh/core/src/nrf_mesh_configure.c.obj
 .debug_ranges  0x00000000000010d8       0x18 CMakeFiles/light_switch_proxy_client_nrf52840_xxAA_s140_6.0.0.dir/__/__/__/mesh/core/src/aes.c.obj
 .debug_ranges  0x00000000000010f0       0x40 CMakeFiles/light_switch_proxy_client_nrf52840_xxAA_s140_6.0.0.dir/__/__/__/mesh/core/src/msg_cache.c.obj
 .debug_ranges  0x0000000000001130      0xf08 CMakeFiles/light_switch_proxy_client_nrf52840_xxAA_s140_6.0.0.dir/__/__/__/mesh/core/src/transport.c.obj
 .debug_ranges  0x0000000000002038       0x20 CMakeFiles/light_switch_proxy_client_nrf52840_xxAA_s140_6.0.0.dir/__/__/__/mesh/core/src/event.c.obj
 .debug_ranges  0x0000000000002058      0x118 CMakeFiles/light_switch_proxy_client_nrf52840_xxAA_s140_6.0.0.dir/__/__/__/mesh/core/src/packet_buffer.c.obj
 .debug_ranges  0x0000000000002170      0x4c8 CMakeFiles/light_switch_proxy_client_nrf52840_xxAA_s140_6.0.0.dir/__/__/__/mesh/core/src/flash_manager_defrag.c.obj
 .debug_ranges  0x0000000000002638       0xc0 CMakeFiles/light_switch_proxy_client_nrf52840_xxAA_s140_6.0.0.dir/__/__/__/mesh/core/src/fifo.c.obj
 .debug_ranges  0x00000000000026f8       0xe8 CMakeFiles/light_switch_proxy_client_nrf52840_xxAA_s140_6.0.0.dir/__/__/__/mesh/core/src/packet_mgr.c.obj
 .debug_ranges  0x00000000000027e0      0x3b8 CMakeFiles/light_switch_proxy_client_nrf52840_xxAA_s140_6.0.0.dir/__/__/__/mesh/core/src/net_state.c.obj
 .debug_ranges  0x0000000000002b98      0x300 CMakeFiles/light_switch_proxy_client_nrf52840_xxAA_s140_6.0.0.dir/__/__/__/mesh/core/src/mesh_flash.c.obj
 .debug_ranges  0x0000000000002e98       0x20 CMakeFiles/light_switch_proxy_client_nrf52840_xxAA_s140_6.0.0.dir/__/__/__/mesh/core/src/nrf_mesh_utils.c.obj
 .debug_ranges  0x0000000000002eb8      0x148 CMakeFiles/light_switch_proxy_client_nrf52840_xxAA_s140_6.0.0.dir/__/__/__/mesh/core/src/nrf_mesh.c.obj
 .debug_ranges  0x0000000000003000       0x28 CMakeFiles/light_switch_proxy_client_nrf52840_xxAA_s140_6.0.0.dir/__/__/__/mesh/core/src/queue.c.obj
 .debug_ranges  0x0000000000003028       0x20 CMakeFiles/light_switch_proxy_client_nrf52840_xxAA_s140_6.0.0.dir/__/__/__/mesh/core/src/hal.c.obj
 .debug_ranges  0x0000000000003048      0x150 CMakeFiles/light_switch_proxy_client_nrf52840_xxAA_s140_6.0.0.dir/__/__/__/mesh/core/src/aes_cmac.c.obj
 .debug_ranges  0x0000000000003198      0x288 CMakeFiles/light_switch_proxy_client_nrf52840_xxAA_s140_6.0.0.dir/__/__/__/mesh/core/src/timer_scheduler.c.obj
 .debug_ranges  0x0000000000003420      0x178 CMakeFiles/light_switch_proxy_client_nrf52840_xxAA_s140_6.0.0.dir/__/__/__/mesh/core/src/timer.c.obj
 .debug_ranges  0x0000000000003598       0x20 CMakeFiles/light_switch_proxy_client_nrf52840_xxAA_s140_6.0.0.dir/__/__/__/mesh/core/src/ticker.c.obj
 .debug_ranges  0x00000000000035b8       0x48 CMakeFiles/light_switch_proxy_client_nrf52840_xxAA_s140_6.0.0.dir/__/__/__/mesh/core/src/rand.c.obj
 .debug_ranges  0x0000000000003600       0x18 CMakeFiles/light_switch_proxy_client_nrf52840_xxAA_s140_6.0.0.dir/__/__/__/mesh/core/src/nrf_mesh_opt.c.obj
 .debug_ranges  0x0000000000003618      0x250 CMakeFiles/light_switch_proxy_client_nrf52840_xxAA_s140_6.0.0.dir/__/__/__/mesh/core/src/timeslot.c.obj
 .debug_ranges  0x0000000000003868      0x288 CMakeFiles/light_switch_proxy_client_nrf52840_xxAA_s140_6.0.0.dir/__/__/__/mesh/core/src/bearer_event.c.obj
 .debug_ranges  0x0000000000003af0      0x1b8 CMakeFiles/light_switch_proxy_client_nrf52840_xxAA_s140_6.0.0.dir/__/__/__/mesh/core/src/enc.c.obj
 .debug_ranges  0x0000000000003ca8      0x1b0 CMakeFiles/light_switch_proxy_client_nrf52840_xxAA_s140_6.0.0.dir/__/__/__/mesh/core/src/network.c.obj
 .debug_ranges  0x0000000000003e58      0x208 CMakeFiles/light_switch_proxy_client_nrf52840_xxAA_s140_6.0.0.dir/__/__/__/mesh/core/src/net_packet.c.obj
 .debug_ranges  0x0000000000004060       0x78 CMakeFiles/light_switch_proxy_client_nrf52840_xxAA_s140_6.0.0.dir/__/__/__/mesh/core/src/msqueue.c.obj
 .debug_ranges  0x00000000000040d8       0x30 CMakeFiles/light_switch_proxy_client_nrf52840_xxAA_s140_6.0.0.dir/__/__/__/mesh/core/src/nrf_mesh_keygen.c.obj
 .debug_ranges  0x0000000000004108       0xb0 CMakeFiles/light_switch_proxy_client_nrf52840_xxAA_s140_6.0.0.dir/__/__/__/mesh/core/src/cache.c.obj
 .debug_ranges  0x00000000000041b8       0xf0 CMakeFiles/light_switch_proxy_client_nrf52840_xxAA_s140_6.0.0.dir/__/__/__/mesh/core/src/list.c.obj
 .debug_ranges  0x00000000000042a8       0x58 CMakeFiles/light_switch_proxy_client_nrf52840_xxAA_s140_6.0.0.dir/__/__/__/mesh/core/src/log.c.obj
 .debug_ranges  0x0000000000004300      0xc18 CMakeFiles/light_switch_proxy_client_nrf52840_xxAA_s140_6.0.0.dir/__/__/__/mesh/core/src/flash_manager.c.obj
 .debug_ranges  0x0000000000004f18       0xf8 CMakeFiles/light_switch_proxy_client_nrf52840_xxAA_s140_6.0.0.dir/__/__/__/mesh/core/src/ccm_soft.c.obj
 .debug_ranges  0x0000000000005010       0x48 CMakeFiles/light_switch_proxy_client_nrf52840_xxAA_s140_6.0.0.dir/__/__/__/mesh/core/src/replay_cache.c.obj
 .debug_ranges  0x0000000000005058       0x90 CMakeFiles/light_switch_proxy_client_nrf52840_xxAA_s140_6.0.0.dir/__/__/__/mesh/core/src/beacon.c.obj
 .debug_ranges  0x00000000000050e8       0xc0 CMakeFiles/light_switch_proxy_client_nrf52840_xxAA_s140_6.0.0.dir/__/__/__/mesh/core/src/core_tx.c.obj
 .debug_ranges  0x00000000000051a8      0x120 CMakeFiles/light_switch_proxy_client_nrf52840_xxAA_s140_6.0.0.dir/__/__/__/mesh/core/src/heartbeat.c.obj
 .debug_ranges  0x00000000000052c8      0x1b8 CMakeFiles/light_switch_proxy_client_nrf52840_xxAA_s140_6.0.0.dir/__/__/__/mesh/core/src/net_beacon.c.obj
 .debug_ranges  0x0000000000005480       0xd8 CMakeFiles/light_switch_proxy_client_nrf52840_xxAA_s140_6.0.0.dir/__/__/__/mesh/core/src/fsm.c.obj
 .debug_ranges  0x0000000000005558       0x58 CMakeFiles/light_switch_proxy_client_nrf52840_xxAA_s140_6.0.0.dir/__/__/__/mesh/core/src/core_tx_adv.c.obj
 .debug_ranges  0x00000000000055b0      0x118 CMakeFiles/light_switch_proxy_client_nrf52840_xxAA_s140_6.0.0.dir/__/__/__/mesh/bearer/src/ad_listener.c.obj
 .debug_ranges  0x00000000000056c8       0xc8 CMakeFiles/light_switch_proxy_client_nrf52840_xxAA_s140_6.0.0.dir/__/__/__/mesh/bearer/src/ad_type_filter.c.obj
 .debug_ranges  0x0000000000005790      0x478 CMakeFiles/light_switch_proxy_client_nrf52840_xxAA_s140_6.0.0.dir/__/__/__/mesh/bearer/src/advertiser.c.obj
 .debug_ranges  0x0000000000005c08      0x188 CMakeFiles/light_switch_proxy_client_nrf52840_xxAA_s140_6.0.0.dir/__/__/__/mesh/bearer/src/bearer_handler.c.obj
 .debug_ranges  0x0000000000005d90       0xa0 CMakeFiles/light_switch_proxy_client_nrf52840_xxAA_s140_6.0.0.dir/__/__/__/mesh/bearer/src/broadcast.c.obj
 .debug_ranges  0x0000000000005e30       0x28 CMakeFiles/light_switch_proxy_client_nrf52840_xxAA_s140_6.0.0.dir/__/__/__/mesh/bearer/src/filter_engine.c.obj
 .debug_ranges  0x0000000000005e58       0x48 CMakeFiles/light_switch_proxy_client_nrf52840_xxAA_s140_6.0.0.dir/__/__/__/mesh/bearer/src/radio_config.c.obj
 .debug_ranges  0x0000000000005ea0      0x400 CMakeFiles/light_switch_proxy_client_nrf52840_xxAA_s140_6.0.0.dir/__/__/__/mesh/bearer/src/scanner.c.obj
 .debug_ranges  0x00000000000062a0      0x358 CMakeFiles/light_switch_proxy_client_nrf52840_xxAA_s140_6.0.0.dir/__/__/__/mesh/gatt/src/mesh_gatt.c.obj
 .debug_ranges  0x00000000000065f8      0x8f8 CMakeFiles/light_switch_proxy_client_nrf52840_xxAA_s140_6.0.0.dir/__/__/__/mesh/gatt/src/proxy.c.obj
 .debug_ranges  0x0000000000006ef0       0xe0 CMakeFiles/light_switch_proxy_client_nrf52840_xxAA_s140_6.0.0.dir/__/__/__/mesh/gatt/src/proxy_filter.c.obj
 .debug_ranges  0x0000000000006fd0       0xc0 CMakeFiles/light_switch_proxy_client_nrf52840_xxAA_s140_6.0.0.dir/__/__/__/models/simple_on_off/src/simple_on_off_client.c.obj
 .debug_ranges  0x0000000000007090       0x90 CMakeFiles/light_switch_proxy_client_nrf52840_xxAA_s140_6.0.0.dir/__/__/__/models/config/src/composition_data.c.obj
 .debug_ranges  0x0000000000007120     0x1660 CMakeFiles/light_switch_proxy_client_nrf52840_xxAA_s140_6.0.0.dir/__/__/__/models/config/src/config_server.c.obj
 .debug_ranges  0x0000000000008780       0x10 CMakeFiles/light_switch_proxy_client_nrf52840_xxAA_s140_6.0.0.dir/__/__/__/models/config/src/packed_index_list.c.obj
 .debug_ranges  0x0000000000008790      0x6c8 CMakeFiles/light_switch_proxy_client_nrf52840_xxAA_s140_6.0.0.dir/__/__/__/models/health/src/health_server.c.obj
 .debug_ranges  0x0000000000008e58      0x318 CMakeFiles/light_switch_proxy_client_nrf52840_xxAA_s140_6.0.0.dir/__/__/__/mesh/access/src/access_publish.c.obj
 .debug_ranges  0x0000000000009170      0x920 CMakeFiles/light_switch_proxy_client_nrf52840_xxAA_s140_6.0.0.dir/__/__/__/mesh/access/src/access.c.obj
 .debug_ranges  0x0000000000009a90      0x280 CMakeFiles/light_switch_proxy_client_nrf52840_xxAA_s140_6.0.0.dir/__/__/__/mesh/access/src/access_reliable.c.obj
 .debug_ranges  0x0000000000009d10      0xd28 CMakeFiles/light_switch_proxy_client_nrf52840_xxAA_s140_6.0.0.dir/__/__/__/mesh/access/src/device_state_manager.c.obj
 .debug_ranges  0x000000000000aa38      0x1b0 CMakeFiles/light_switch_proxy_client_nrf52840_xxAA_s140_6.0.0.dir/__/__/__/mesh/prov/src/prov_provisionee.c.obj
 .debug_ranges  0x000000000000abe8      0x140 CMakeFiles/light_switch_proxy_client_nrf52840_xxAA_s140_6.0.0.dir/__/__/__/mesh/prov/src/nrf_mesh_prov.c.obj
 .debug_ranges  0x000000000000ad28      0x170 CMakeFiles/light_switch_proxy_client_nrf52840_xxAA_s140_6.0.0.dir/__/__/__/mesh/prov/src/provisioning.c.obj
 .debug_ranges  0x000000000000ae98       0x40 CMakeFiles/light_switch_proxy_client_nrf52840_xxAA_s140_6.0.0.dir/__/__/__/mesh/prov/src/prov_beacon.c.obj
 .debug_ranges  0x000000000000aed8       0x88 CMakeFiles/light_switch_proxy_client_nrf52840_xxAA_s140_6.0.0.dir/__/__/__/mesh/prov/src/prov_utils.c.obj
 .debug_ranges  0x000000000000af60      0x9c8 CMakeFiles/light_switch_proxy_client_nrf52840_xxAA_s140_6.0.0.dir/__/__/__/mesh/prov/src/prov_bearer_adv.c.obj
 .debug_ranges  0x000000000000b928       0x40 CMakeFiles/light_switch_proxy_client_nrf52840_xxAA_s140_6.0.0.dir/home/mazzer/work/nordic/sdk/nRF5_SDK_15.0.0/modules/nrfx/mdk/system_nrf52840.c.obj
 .debug_ranges  0x000000000000b968       0x10 CMakeFiles/light_switch_proxy_client_nrf52840_xxAA_s140_6.0.0.dir/home/mazzer/work/nordic/sdk/nRF5_SDK_15.0.0/components/libraries/util/app_error_handler_gcc.c.obj
 .debug_ranges  0x000000000000b978      0x5d8 ../../../external/rtt/librtt_nrf52840_xxAA.a(SEGGER_RTT.c.obj)
 .debug_ranges  0x000000000000bf50      0x1b8 ../../../external/rtt/librtt_nrf52840_xxAA.a(SEGGER_RTT_printf.c.obj)
 .debug_ranges  0x000000000000c108     0x1298 ../../../external/micro-ecc/libuECC_nrf52840_xxAA.a(uECC.c.obj)

.debug_line     0x0000000000000000    0x2368e
 .debug_line    0x0000000000000000      0xcc0 CMakeFiles/light_switch_proxy_client_nrf52840_xxAA_s140_6.0.0.dir/src/main.c.obj
 .debug_line    0x0000000000000cc0      0x659 CMakeFiles/light_switch_proxy_client_nrf52840_xxAA_s140_6.0.0.dir/__/__/__/mesh/stack/src/mesh_stack.c.obj
 .debug_line    0x0000000000001319      0x89d CMakeFiles/light_switch_proxy_client_nrf52840_xxAA_s140_6.0.0.dir/__/__/common/src/mesh_provisionee.c.obj
 .debug_line    0x0000000000001bb6      0x37f CMakeFiles/light_switch_proxy_client_nrf52840_xxAA_s140_6.0.0.dir/__/__/common/src/rtt_input.c.obj
 .debug_line    0x0000000000001f35      0x578 CMakeFiles/light_switch_proxy_client_nrf52840_xxAA_s140_6.0.0.dir/__/__/common/src/simple_hal.c.obj
 .debug_line    0x00000000000024ad      0x417 CMakeFiles/light_switch_proxy_client_nrf52840_xxAA_s140_6.0.0.dir/__/__/common/src/mesh_adv.c.obj
 .debug_line    0x00000000000028c4      0x6c1 CMakeFiles/light_switch_proxy_client_nrf52840_xxAA_s140_6.0.0.dir/__/__/__/mesh/prov/src/nrf_mesh_prov_bearer_gatt.c.obj
 .debug_line    0x0000000000002f85      0x274 CMakeFiles/light_switch_proxy_client_nrf52840_xxAA_s140_6.0.0.dir/home/mazzer/work/nordic/sdk/nRF5_SDK_15.0.0/components/libraries/util/app_error.c.obj
 .debug_line    0x00000000000031f9      0x378 CMakeFiles/light_switch_proxy_client_nrf52840_xxAA_s140_6.0.0.dir/home/mazzer/work/nordic/sdk/nRF5_SDK_15.0.0/components/libraries/util/app_util_platform.c.obj
 .debug_line    0x0000000000003571      0x6f7 CMakeFiles/light_switch_proxy_client_nrf52840_xxAA_s140_6.0.0.dir/home/mazzer/work/nordic/sdk/nRF5_SDK_15.0.0/components/ble/common/ble_advdata.c.obj
 .debug_line    0x0000000000003c68      0x290 CMakeFiles/light_switch_proxy_client_nrf52840_xxAA_s140_6.0.0.dir/home/mazzer/work/nordic/sdk/nRF5_SDK_15.0.0/components/libraries/experimental_section_vars/nrf_section_iter.c.obj
 .debug_line    0x0000000000003ef8      0x658 CMakeFiles/light_switch_proxy_client_nrf52840_xxAA_s140_6.0.0.dir/home/mazzer/work/nordic/sdk/nRF5_SDK_15.0.0/components/softdevice/common/nrf_sdh.c.obj
 .debug_line    0x0000000000004550      0x456 CMakeFiles/light_switch_proxy_client_nrf52840_xxAA_s140_6.0.0.dir/home/mazzer/work/nordic/sdk/nRF5_SDK_15.0.0/components/softdevice/common/nrf_sdh_soc.c.obj
 .debug_line    0x00000000000049a6      0x578 CMakeFiles/light_switch_proxy_client_nrf52840_xxAA_s140_6.0.0.dir/home/mazzer/work/nordic/sdk/nRF5_SDK_15.0.0/components/softdevice/common/nrf_sdh_ble.c.obj
 .debug_line    0x0000000000004f1e      0x252 CMakeFiles/light_switch_proxy_client_nrf52840_xxAA_s140_6.0.0.dir/__/__/nrf_mesh_weak.c.obj
 .debug_line    0x0000000000005170      0x4ec CMakeFiles/light_switch_proxy_client_nrf52840_xxAA_s140_6.0.0.dir/__/__/common/src/app_error_weak.c.obj
 .debug_line    0x000000000000565c      0x275 CMakeFiles/light_switch_proxy_client_nrf52840_xxAA_s140_6.0.0.dir/__/__/common/src/assertion_handler_weak.c.obj
 .debug_line    0x00000000000058d1      0x250 CMakeFiles/light_switch_proxy_client_nrf52840_xxAA_s140_6.0.0.dir/__/__/__/mesh/core/src/nrf_mesh_configure.c.obj
 .debug_line    0x0000000000005b21      0x285 CMakeFiles/light_switch_proxy_client_nrf52840_xxAA_s140_6.0.0.dir/__/__/__/mesh/core/src/aes.c.obj
 .debug_line    0x0000000000005da6      0x2c2 CMakeFiles/light_switch_proxy_client_nrf52840_xxAA_s140_6.0.0.dir/__/__/__/mesh/core/src/msg_cache.c.obj
 .debug_line    0x0000000000006068     0x125e CMakeFiles/light_switch_proxy_client_nrf52840_xxAA_s140_6.0.0.dir/__/__/__/mesh/core/src/transport.c.obj
 .debug_line    0x00000000000072c6      0x3e2 CMakeFiles/light_switch_proxy_client_nrf52840_xxAA_s140_6.0.0.dir/__/__/__/mesh/core/src/event.c.obj
 .debug_line    0x00000000000076a8      0x560 CMakeFiles/light_switch_proxy_client_nrf52840_xxAA_s140_6.0.0.dir/__/__/__/mesh/core/src/packet_buffer.c.obj
 .debug_line    0x0000000000007c08      0x8c0 CMakeFiles/light_switch_proxy_client_nrf52840_xxAA_s140_6.0.0.dir/__/__/__/mesh/core/src/flash_manager_defrag.c.obj
 .debug_line    0x00000000000084c8      0x46b CMakeFiles/light_switch_proxy_client_nrf52840_xxAA_s140_6.0.0.dir/__/__/__/mesh/core/src/fifo.c.obj
 .debug_line    0x0000000000008933      0x4cf CMakeFiles/light_switch_proxy_client_nrf52840_xxAA_s140_6.0.0.dir/__/__/__/mesh/core/src/packet_mgr.c.obj
 .debug_line    0x0000000000008e02      0x82f CMakeFiles/light_switch_proxy_client_nrf52840_xxAA_s140_6.0.0.dir/__/__/__/mesh/core/src/net_state.c.obj
 .debug_line    0x0000000000009631      0x67d CMakeFiles/light_switch_proxy_client_nrf52840_xxAA_s140_6.0.0.dir/__/__/__/mesh/core/src/mesh_flash.c.obj
 .debug_line    0x0000000000009cae      0x2fb CMakeFiles/light_switch_proxy_client_nrf52840_xxAA_s140_6.0.0.dir/__/__/__/mesh/core/src/nrf_mesh_utils.c.obj
 .debug_line    0x0000000000009fa9      0x961 CMakeFiles/light_switch_proxy_client_nrf52840_xxAA_s140_6.0.0.dir/__/__/__/mesh/core/src/nrf_mesh.c.obj
 .debug_line    0x000000000000a90a      0x33a CMakeFiles/light_switch_proxy_client_nrf52840_xxAA_s140_6.0.0.dir/__/__/__/mesh/core/src/queue.c.obj
 .debug_line    0x000000000000ac44      0x24e CMakeFiles/light_switch_proxy_client_nrf52840_xxAA_s140_6.0.0.dir/__/__/__/mesh/core/src/hal.c.obj
 .debug_line    0x000000000000ae92      0x468 CMakeFiles/light_switch_proxy_client_nrf52840_xxAA_s140_6.0.0.dir/__/__/__/mesh/core/src/aes_cmac.c.obj
 .debug_line    0x000000000000b2fa      0x506 CMakeFiles/light_switch_proxy_client_nrf52840_xxAA_s140_6.0.0.dir/__/__/__/mesh/core/src/timer_scheduler.c.obj
 .debug_line    0x000000000000b800      0x55d CMakeFiles/light_switch_proxy_client_nrf52840_xxAA_s140_6.0.0.dir/__/__/__/mesh/core/src/timer.c.obj
 .debug_line    0x000000000000bd5d      0x17f CMakeFiles/light_switch_proxy_client_nrf52840_xxAA_s140_6.0.0.dir/__/__/__/mesh/core/src/ticker.c.obj
 .debug_line    0x000000000000bedc      0x344 CMakeFiles/light_switch_proxy_client_nrf52840_xxAA_s140_6.0.0.dir/__/__/__/mesh/core/src/rand.c.obj
 .debug_line    0x000000000000c220      0x339 CMakeFiles/light_switch_proxy_client_nrf52840_xxAA_s140_6.0.0.dir/__/__/__/mesh/core/src/nrf_mesh_opt.c.obj
 .debug_line    0x000000000000c559      0x714 CMakeFiles/light_switch_proxy_client_nrf52840_xxAA_s140_6.0.0.dir/__/__/__/mesh/core/src/timeslot.c.obj
 .debug_line    0x000000000000cc6d      0x6a1 CMakeFiles/light_switch_proxy_client_nrf52840_xxAA_s140_6.0.0.dir/__/__/__/mesh/core/src/bearer_event.c.obj
 .debug_line    0x000000000000d30e      0x524 CMakeFiles/light_switch_proxy_client_nrf52840_xxAA_s140_6.0.0.dir/__/__/__/mesh/core/src/enc.c.obj
 .debug_line    0x000000000000d832      0x687 CMakeFiles/light_switch_proxy_client_nrf52840_xxAA_s140_6.0.0.dir/__/__/__/mesh/core/src/network.c.obj
 .debug_line    0x000000000000deb9      0x625 CMakeFiles/light_switch_proxy_client_nrf52840_xxAA_s140_6.0.0.dir/__/__/__/mesh/core/src/net_packet.c.obj
 .debug_line    0x000000000000e4de      0x38d CMakeFiles/light_switch_proxy_client_nrf52840_xxAA_s140_6.0.0.dir/__/__/__/mesh/core/src/msqueue.c.obj
 .debug_line    0x000000000000e86b      0x2f5 CMakeFiles/light_switch_proxy_client_nrf52840_xxAA_s140_6.0.0.dir/__/__/__/mesh/core/src/nrf_mesh_keygen.c.obj
 .debug_line    0x000000000000eb60      0x255 CMakeFiles/light_switch_proxy_client_nrf52840_xxAA_s140_6.0.0.dir/__/__/__/mesh/core/src/cache.c.obj
 .debug_line    0x000000000000edb5      0x3e9 CMakeFiles/light_switch_proxy_client_nrf52840_xxAA_s140_6.0.0.dir/__/__/__/mesh/core/src/list.c.obj
 .debug_line    0x000000000000f19e      0x334 CMakeFiles/light_switch_proxy_client_nrf52840_xxAA_s140_6.0.0.dir/__/__/__/mesh/core/src/log.c.obj
 .debug_line    0x000000000000f4d2      0xc3d CMakeFiles/light_switch_proxy_client_nrf52840_xxAA_s140_6.0.0.dir/__/__/__/mesh/core/src/flash_manager.c.obj
 .debug_line    0x000000000001010f      0x4ac CMakeFiles/light_switch_proxy_client_nrf52840_xxAA_s140_6.0.0.dir/__/__/__/mesh/core/src/ccm_soft.c.obj
 .debug_line    0x00000000000105bb      0x1dc CMakeFiles/light_switch_proxy_client_nrf52840_xxAA_s140_6.0.0.dir/__/__/__/mesh/core/src/replay_cache.c.obj
 .debug_line    0x0000000000010797      0x5cb CMakeFiles/light_switch_proxy_client_nrf52840_xxAA_s140_6.0.0.dir/__/__/__/mesh/core/src/beacon.c.obj
 .debug_line    0x0000000000010d62      0x431 CMakeFiles/light_switch_proxy_client_nrf52840_xxAA_s140_6.0.0.dir/__/__/__/mesh/core/src/core_tx.c.obj
 .debug_line    0x0000000000011193      0x6bb CMakeFiles/light_switch_proxy_client_nrf52840_xxAA_s140_6.0.0.dir/__/__/__/mesh/core/src/heartbeat.c.obj
 .debug_line    0x000000000001184e      0x75c CMakeFiles/light_switch_proxy_client_nrf52840_xxAA_s140_6.0.0.dir/__/__/__/mesh/core/src/net_beacon.c.obj
 .debug_line    0x0000000000011faa      0x48d CMakeFiles/light_switch_proxy_client_nrf52840_xxAA_s140_6.0.0.dir/__/__/__/mesh/core/src/fsm.c.obj
 .debug_line    0x0000000000012437      0x5cf CMakeFiles/light_switch_proxy_client_nrf52840_xxAA_s140_6.0.0.dir/__/__/__/mesh/core/src/core_tx_adv.c.obj
 .debug_line    0x0000000000012a06      0x43e CMakeFiles/light_switch_proxy_client_nrf52840_xxAA_s140_6.0.0.dir/__/__/__/mesh/bearer/src/ad_listener.c.obj
 .debug_line    0x0000000000012e44      0x512 CMakeFiles/light_switch_proxy_client_nrf52840_xxAA_s140_6.0.0.dir/__/__/__/mesh/bearer/src/ad_type_filter.c.obj
 .debug_line    0x0000000000013356      0x8d3 CMakeFiles/light_switch_proxy_client_nrf52840_xxAA_s140_6.0.0.dir/__/__/__/mesh/bearer/src/advertiser.c.obj
 .debug_line    0x0000000000013c29      0x61d CMakeFiles/light_switch_proxy_client_nrf52840_xxAA_s140_6.0.0.dir/__/__/__/mesh/bearer/src/bearer_handler.c.obj
 .debug_line    0x0000000000014246      0x435 CMakeFiles/light_switch_proxy_client_nrf52840_xxAA_s140_6.0.0.dir/__/__/__/mesh/bearer/src/broadcast.c.obj
 .debug_line    0x000000000001467b      0x453 CMakeFiles/light_switch_proxy_client_nrf52840_xxAA_s140_6.0.0.dir/__/__/__/mesh/bearer/src/filter_engine.c.obj
 .debug_line    0x0000000000014ace      0x34c CMakeFiles/light_switch_proxy_client_nrf52840_xxAA_s140_6.0.0.dir/__/__/__/mesh/bearer/src/radio_config.c.obj
 .debug_line    0x0000000000014e1a      0x8f5 CMakeFiles/light_switch_proxy_client_nrf52840_xxAA_s140_6.0.0.dir/__/__/__/mesh/bearer/src/scanner.c.obj
 .debug_line    0x000000000001570f      0x906 CMakeFiles/light_switch_proxy_client_nrf52840_xxAA_s140_6.0.0.dir/__/__/__/mesh/gatt/src/mesh_gatt.c.obj
 .debug_line    0x0000000000016015      0xe66 CMakeFiles/light_switch_proxy_client_nrf52840_xxAA_s140_6.0.0.dir/__/__/__/mesh/gatt/src/proxy.c.obj
 .debug_line    0x0000000000016e7b      0x35b CMakeFiles/light_switch_proxy_client_nrf52840_xxAA_s140_6.0.0.dir/__/__/__/mesh/gatt/src/proxy_filter.c.obj
 .debug_line    0x00000000000171d6      0x5de CMakeFiles/light_switch_proxy_client_nrf52840_xxAA_s140_6.0.0.dir/__/__/__/models/simple_on_off/src/simple_on_off_client.c.obj
 .debug_line    0x00000000000177b4      0x3d4 CMakeFiles/light_switch_proxy_client_nrf52840_xxAA_s140_6.0.0.dir/__/__/__/models/config/src/composition_data.c.obj
 .debug_line    0x0000000000017b88     0x22d2 CMakeFiles/light_switch_proxy_client_nrf52840_xxAA_s140_6.0.0.dir/__/__/__/models/config/src/config_server.c.obj
 .debug_line    0x0000000000019e5a      0x10a CMakeFiles/light_switch_proxy_client_nrf52840_xxAA_s140_6.0.0.dir/__/__/__/models/config/src/packed_index_list.c.obj
 .debug_line    0x0000000000019f64      0xb59 CMakeFiles/light_switch_proxy_client_nrf52840_xxAA_s140_6.0.0.dir/__/__/__/models/health/src/health_server.c.obj
 .debug_line    0x000000000001aabd      0x5cb CMakeFiles/light_switch_proxy_client_nrf52840_xxAA_s140_6.0.0.dir/__/__/__/mesh/access/src/access_publish.c.obj
 .debug_line    0x000000000001b088     0x116e CMakeFiles/light_switch_proxy_client_nrf52840_xxAA_s140_6.0.0.dir/__/__/__/mesh/access/src/access.c.obj
 .debug_line    0x000000000001c1f6      0x6af CMakeFiles/light_switch_proxy_client_nrf52840_xxAA_s140_6.0.0.dir/__/__/__/mesh/access/src/access_reliable.c.obj
 .debug_line    0x000000000001c8a5     0x14cf CMakeFiles/light_switch_proxy_client_nrf52840_xxAA_s140_6.0.0.dir/__/__/__/mesh/access/src/device_state_manager.c.obj
 .debug_line    0x000000000001dd74      0x809 CMakeFiles/light_switch_proxy_client_nrf52840_xxAA_s140_6.0.0.dir/__/__/__/mesh/prov/src/prov_provisionee.c.obj
 .debug_line    0x000000000001e57d      0x68a CMakeFiles/light_switch_proxy_client_nrf52840_xxAA_s140_6.0.0.dir/__/__/__/mesh/prov/src/nrf_mesh_prov.c.obj
 .debug_line    0x000000000001ec07      0x517 CMakeFiles/light_switch_proxy_client_nrf52840_xxAA_s140_6.0.0.dir/__/__/__/mesh/prov/src/provisioning.c.obj
 .debug_line    0x000000000001f11e      0x5c7 CMakeFiles/light_switch_proxy_client_nrf52840_xxAA_s140_6.0.0.dir/__/__/__/mesh/prov/src/prov_beacon.c.obj
 .debug_line    0x000000000001f6e5      0x597 CMakeFiles/light_switch_proxy_client_nrf52840_xxAA_s140_6.0.0.dir/__/__/__/mesh/prov/src/prov_utils.c.obj
 .debug_line    0x000000000001fc7c      0xf1f CMakeFiles/light_switch_proxy_client_nrf52840_xxAA_s140_6.0.0.dir/__/__/__/mesh/prov/src/prov_bearer_adv.c.obj
 .debug_line    0x0000000000020b9b      0x22d CMakeFiles/light_switch_proxy_client_nrf52840_xxAA_s140_6.0.0.dir/home/mazzer/work/nordic/sdk/nRF5_SDK_15.0.0/modules/nrfx/mdk/system_nrf52840.c.obj
 .debug_line    0x0000000000020dc8       0xa4 CMakeFiles/light_switch_proxy_client_nrf52840_xxAA_s140_6.0.0.dir/home/mazzer/work/nordic/sdk/nRF5_SDK_15.0.0/modules/nrfx/mdk/gcc_startup_nrf52840.S.obj
 .debug_line    0x0000000000020e6c      0x217 CMakeFiles/light_switch_proxy_client_nrf52840_xxAA_s140_6.0.0.dir/home/mazzer/work/nordic/sdk/nRF5_SDK_15.0.0/components/libraries/util/app_error_handler_gcc.c.obj
 .debug_line    0x0000000000021083      0xaaf ../../../external/rtt/librtt_nrf52840_xxAA.a(SEGGER_RTT.c.obj)
 .debug_line    0x0000000000021b32      0x401 ../../../external/rtt/librtt_nrf52840_xxAA.a(SEGGER_RTT_printf.c.obj)
 .debug_line    0x0000000000021f33     0x175b ../../../external/micro-ecc/libuECC_nrf52840_xxAA.a(uECC.c.obj)

.debug_str      0x0000000000000000    0x185a0
 .debug_str     0x0000000000000000     0x26c6 CMakeFiles/light_switch_proxy_client_nrf52840_xxAA_s140_6.0.0.dir/src/main.c.obj
                                       0x2ac9 (size before relaxing)
 .debug_str     0x00000000000026c6      0x2ad CMakeFiles/light_switch_proxy_client_nrf52840_xxAA_s140_6.0.0.dir/__/__/__/mesh/stack/src/mesh_stack.c.obj
                                       0x1852 (size before relaxing)
 .debug_str     0x0000000000002973     0x1db6 CMakeFiles/light_switch_proxy_client_nrf52840_xxAA_s140_6.0.0.dir/__/__/common/src/mesh_provisionee.c.obj
                                       0x29c5 (size before relaxing)
 .debug_str     0x0000000000004729      0x242 CMakeFiles/light_switch_proxy_client_nrf52840_xxAA_s140_6.0.0.dir/__/__/common/src/rtt_input.c.obj
                                        0xc24 (size before relaxing)
 .debug_str     0x000000000000496b      0x20c CMakeFiles/light_switch_proxy_client_nrf52840_xxAA_s140_6.0.0.dir/__/__/common/src/simple_hal.c.obj
                                        0xda6 (size before relaxing)
 .debug_str     0x0000000000004b77      0x5a1 CMakeFiles/light_switch_proxy_client_nrf52840_xxAA_s140_6.0.0.dir/__/__/common/src/mesh_adv.c.obj
                                       0x10dd (size before relaxing)
 .debug_str     0x0000000000005118      0x71d CMakeFiles/light_switch_proxy_client_nrf52840_xxAA_s140_6.0.0.dir/__/__/__/mesh/prov/src/nrf_mesh_prov_bearer_gatt.c.obj
                                       0x1538 (size before relaxing)
 .debug_str     0x0000000000005835       0xff CMakeFiles/light_switch_proxy_client_nrf52840_xxAA_s140_6.0.0.dir/home/mazzer/work/nordic/sdk/nRF5_SDK_15.0.0/components/libraries/util/app_error.c.obj
                                        0x773 (size before relaxing)
 .debug_str     0x0000000000005934      0x20b CMakeFiles/light_switch_proxy_client_nrf52840_xxAA_s140_6.0.0.dir/home/mazzer/work/nordic/sdk/nRF5_SDK_15.0.0/components/libraries/util/app_util_platform.c.obj
                                        0xcdc (size before relaxing)
 .debug_str     0x0000000000005b3f      0x4dc CMakeFiles/light_switch_proxy_client_nrf52840_xxAA_s140_6.0.0.dir/home/mazzer/work/nordic/sdk/nRF5_SDK_15.0.0/components/ble/common/ble_advdata.c.obj
                                       0x133e (size before relaxing)
 .debug_str     0x000000000000601b       0xee CMakeFiles/light_switch_proxy_client_nrf52840_xxAA_s140_6.0.0.dir/home/mazzer/work/nordic/sdk/nRF5_SDK_15.0.0/components/libraries/experimental_section_vars/nrf_section_iter.c.obj
                                        0x759 (size before relaxing)
 .debug_str     0x0000000000006109      0x545 CMakeFiles/light_switch_proxy_client_nrf52840_xxAA_s140_6.0.0.dir/home/mazzer/work/nordic/sdk/nRF5_SDK_15.0.0/components/softdevice/common/nrf_sdh.c.obj
                                       0x1248 (size before relaxing)
 .debug_str     0x000000000000664e       0xdf CMakeFiles/light_switch_proxy_client_nrf52840_xxAA_s140_6.0.0.dir/home/mazzer/work/nordic/sdk/nRF5_SDK_15.0.0/components/softdevice/common/nrf_sdh_soc.c.obj
                                        0xdff (size before relaxing)
 .debug_str     0x000000000000672d     0x148c CMakeFiles/light_switch_proxy_client_nrf52840_xxAA_s140_6.0.0.dir/home/mazzer/work/nordic/sdk/nRF5_SDK_15.0.0/components/softdevice/common/nrf_sdh_ble.c.obj
                                       0x2090 (size before relaxing)
 .debug_str     0x0000000000007bb9       0x73 CMakeFiles/light_switch_proxy_client_nrf52840_xxAA_s140_6.0.0.dir/__/__/nrf_mesh_weak.c.obj
                                        0x692 (size before relaxing)
 .debug_str     0x0000000000007c2c       0x86 CMakeFiles/light_switch_proxy_client_nrf52840_xxAA_s140_6.0.0.dir/__/__/common/src/app_error_weak.c.obj
                                        0x8d3 (size before relaxing)
 .debug_str     0x0000000000007cb2       0x67 CMakeFiles/light_switch_proxy_client_nrf52840_xxAA_s140_6.0.0.dir/__/__/common/src/assertion_handler_weak.c.obj
                                        0x6e8 (size before relaxing)
 .debug_str     0x0000000000007d19      0x1d2 CMakeFiles/light_switch_proxy_client_nrf52840_xxAA_s140_6.0.0.dir/__/__/__/mesh/core/src/nrf_mesh_configure.c.obj
                                        0x863 (size before relaxing)
 .debug_str     0x0000000000007eeb       0xf8 CMakeFiles/light_switch_proxy_client_nrf52840_xxAA_s140_6.0.0.dir/__/__/__/mesh/core/src/aes.c.obj
                                        0xb90 (size before relaxing)
 .debug_str     0x0000000000007fe3       0xf2 CMakeFiles/light_switch_proxy_client_nrf52840_xxAA_s140_6.0.0.dir/__/__/__/mesh/core/src/msg_cache.c.obj
                                        0x72f (size before relaxing)
 .debug_str     0x00000000000080d5     0x226b CMakeFiles/light_switch_proxy_client_nrf52840_xxAA_s140_6.0.0.dir/__/__/__/mesh/core/src/transport.c.obj
                                       0x319a (size before relaxing)
 .debug_str     0x000000000000a340       0xea CMakeFiles/light_switch_proxy_client_nrf52840_xxAA_s140_6.0.0.dir/__/__/__/mesh/core/src/event.c.obj
                                       0x1736 (size before relaxing)
 .debug_str     0x000000000000a42a      0x344 CMakeFiles/light_switch_proxy_client_nrf52840_xxAA_s140_6.0.0.dir/__/__/__/mesh/core/src/packet_buffer.c.obj
                                        0xb91 (size before relaxing)
 .debug_str     0x000000000000a76e      0x959 CMakeFiles/light_switch_proxy_client_nrf52840_xxAA_s140_6.0.0.dir/__/__/__/mesh/core/src/flash_manager_defrag.c.obj
                                       0x1203 (size before relaxing)
 .debug_str     0x000000000000b0c7       0xd5 CMakeFiles/light_switch_proxy_client_nrf52840_xxAA_s140_6.0.0.dir/__/__/__/mesh/core/src/fifo.c.obj
                                        0x751 (size before relaxing)
 .debug_str     0x000000000000b19c      0x2be CMakeFiles/light_switch_proxy_client_nrf52840_xxAA_s140_6.0.0.dir/__/__/__/mesh/core/src/packet_mgr.c.obj
                                        0xa1b (size before relaxing)
 .debug_str     0x000000000000b45a      0x3aa CMakeFiles/light_switch_proxy_client_nrf52840_xxAA_s140_6.0.0.dir/__/__/__/mesh/core/src/net_state.c.obj
                                       0x1c3b (size before relaxing)
 .debug_str     0x000000000000b804      0x3d6 CMakeFiles/light_switch_proxy_client_nrf52840_xxAA_s140_6.0.0.dir/__/__/__/mesh/core/src/mesh_flash.c.obj
                                        0xd52 (size before relaxing)
 .debug_str     0x000000000000bbda       0xcb CMakeFiles/light_switch_proxy_client_nrf52840_xxAA_s140_6.0.0.dir/__/__/__/mesh/core/src/nrf_mesh_utils.c.obj
                                        0x7c7 (size before relaxing)
 .debug_str     0x000000000000bca5      0x5e8 CMakeFiles/light_switch_proxy_client_nrf52840_xxAA_s140_6.0.0.dir/__/__/__/mesh/core/src/nrf_mesh.c.obj
                                       0x216e (size before relaxing)
 .debug_str     0x000000000000c28d       0x92 CMakeFiles/light_switch_proxy_client_nrf52840_xxAA_s140_6.0.0.dir/__/__/__/mesh/core/src/queue.c.obj
                                        0x6f9 (size before relaxing)
 .debug_str     0x000000000000c31f       0xbd CMakeFiles/light_switch_proxy_client_nrf52840_xxAA_s140_6.0.0.dir/__/__/__/mesh/core/src/hal.c.obj
                                        0x821 (size before relaxing)
 .debug_str     0x000000000000c3dc      0x107 CMakeFiles/light_switch_proxy_client_nrf52840_xxAA_s140_6.0.0.dir/__/__/__/mesh/core/src/aes_cmac.c.obj
                                        0x78b (size before relaxing)
 .debug_str     0x000000000000c4e3      0x174 CMakeFiles/light_switch_proxy_client_nrf52840_xxAA_s140_6.0.0.dir/__/__/__/mesh/core/src/timer_scheduler.c.obj
                                        0x9aa (size before relaxing)
 .debug_str     0x000000000000c657      0x212 CMakeFiles/light_switch_proxy_client_nrf52840_xxAA_s140_6.0.0.dir/__/__/__/mesh/core/src/timer.c.obj
                                        0x924 (size before relaxing)
 .debug_str     0x000000000000c869       0x79 CMakeFiles/light_switch_proxy_client_nrf52840_xxAA_s140_6.0.0.dir/__/__/__/mesh/core/src/ticker.c.obj
                                        0x3cb (size before relaxing)
 .debug_str     0x000000000000c8e2       0xe3 CMakeFiles/light_switch_proxy_client_nrf52840_xxAA_s140_6.0.0.dir/__/__/__/mesh/core/src/rand.c.obj
                                        0x7e4 (size before relaxing)
 .debug_str     0x000000000000c9c5       0xbf CMakeFiles/light_switch_proxy_client_nrf52840_xxAA_s140_6.0.0.dir/__/__/__/mesh/core/src/nrf_mesh_opt.c.obj
                                        0x966 (size before relaxing)
 .debug_str     0x000000000000ca84      0x924 CMakeFiles/light_switch_proxy_client_nrf52840_xxAA_s140_6.0.0.dir/__/__/__/mesh/core/src/timeslot.c.obj
                                       0x1995 (size before relaxing)
 .debug_str     0x000000000000d3a8      0x2c4 CMakeFiles/light_switch_proxy_client_nrf52840_xxAA_s140_6.0.0.dir/__/__/__/mesh/core/src/bearer_event.c.obj
                                        0xf74 (size before relaxing)
 .debug_str     0x000000000000d66c      0x19a CMakeFiles/light_switch_proxy_client_nrf52840_xxAA_s140_6.0.0.dir/__/__/__/mesh/core/src/enc.c.obj
                                        0xa5e (size before relaxing)
 .debug_str     0x000000000000d806      0x34b CMakeFiles/light_switch_proxy_client_nrf52840_xxAA_s140_6.0.0.dir/__/__/__/mesh/core/src/network.c.obj
                                       0x1379 (size before relaxing)
 .debug_str     0x000000000000db51      0x346 CMakeFiles/light_switch_proxy_client_nrf52840_xxAA_s140_6.0.0.dir/__/__/__/mesh/core/src/net_packet.c.obj
                                        0xefc (size before relaxing)
 .debug_str     0x000000000000de97       0x8a CMakeFiles/light_switch_proxy_client_nrf52840_xxAA_s140_6.0.0.dir/__/__/__/mesh/core/src/msqueue.c.obj
                                        0x735 (size before relaxing)
 .debug_str     0x000000000000df21       0xff CMakeFiles/light_switch_proxy_client_nrf52840_xxAA_s140_6.0.0.dir/__/__/__/mesh/core/src/nrf_mesh_keygen.c.obj
                                        0x41a (size before relaxing)
 .debug_str     0x000000000000e020       0xdf CMakeFiles/light_switch_proxy_client_nrf52840_xxAA_s140_6.0.0.dir/__/__/__/mesh/core/src/cache.c.obj
                                        0x725 (size before relaxing)
 .debug_str     0x000000000000e0ff       0xad CMakeFiles/light_switch_proxy_client_nrf52840_xxAA_s140_6.0.0.dir/__/__/__/mesh/core/src/list.c.obj
                                        0x334 (size before relaxing)
 .debug_str     0x000000000000e1ac      0x127 CMakeFiles/light_switch_proxy_client_nrf52840_xxAA_s140_6.0.0.dir/__/__/__/mesh/core/src/log.c.obj
                                        0x846 (size before relaxing)
 .debug_str     0x000000000000e2d3      0x6bf CMakeFiles/light_switch_proxy_client_nrf52840_xxAA_s140_6.0.0.dir/__/__/__/mesh/core/src/flash_manager.c.obj
                                       0x15ee (size before relaxing)
 .debug_str     0x000000000000e992       0xbc CMakeFiles/light_switch_proxy_client_nrf52840_xxAA_s140_6.0.0.dir/__/__/__/mesh/core/src/ccm_soft.c.obj
                                        0x7d3 (size before relaxing)
 .debug_str     0x000000000000ea4e       0xc9 CMakeFiles/light_switch_proxy_client_nrf52840_xxAA_s140_6.0.0.dir/__/__/__/mesh/core/src/replay_cache.c.obj
                                        0x703 (size before relaxing)
 .debug_str     0x000000000000eb17      0x10b CMakeFiles/light_switch_proxy_client_nrf52840_xxAA_s140_6.0.0.dir/__/__/__/mesh/core/src/beacon.c.obj
                                       0x1179 (size before relaxing)
 .debug_str     0x000000000000ec22      0x2f5 CMakeFiles/light_switch_proxy_client_nrf52840_xxAA_s140_6.0.0.dir/__/__/__/mesh/core/src/core_tx.c.obj
                                        0xc65 (size before relaxing)
 .debug_str     0x000000000000ef17      0x44f CMakeFiles/light_switch_proxy_client_nrf52840_xxAA_s140_6.0.0.dir/__/__/__/mesh/core/src/heartbeat.c.obj
                                       0x22c3 (size before relaxing)
 .debug_str     0x000000000000f366      0x293 CMakeFiles/light_switch_proxy_client_nrf52840_xxAA_s140_6.0.0.dir/__/__/__/mesh/core/src/net_beacon.c.obj
                                       0x2123 (size before relaxing)
 .debug_str     0x000000000000f5f9       0xfa CMakeFiles/light_switch_proxy_client_nrf52840_xxAA_s140_6.0.0.dir/__/__/__/mesh/core/src/fsm.c.obj
                                        0x9fa (size before relaxing)
 .debug_str     0x000000000000f6f3      0x13e CMakeFiles/light_switch_proxy_client_nrf52840_xxAA_s140_6.0.0.dir/__/__/__/mesh/core/src/core_tx_adv.c.obj
                                       0x134f (size before relaxing)
 .debug_str     0x000000000000f831      0x1c4 CMakeFiles/light_switch_proxy_client_nrf52840_xxAA_s140_6.0.0.dir/__/__/__/mesh/bearer/src/ad_listener.c.obj
                                        0xc58 (size before relaxing)
 .debug_str     0x000000000000f9f5      0x199 CMakeFiles/light_switch_proxy_client_nrf52840_xxAA_s140_6.0.0.dir/__/__/__/mesh/bearer/src/ad_type_filter.c.obj
                                        0xa15 (size before relaxing)
 .debug_str     0x000000000000fb8e      0x358 CMakeFiles/light_switch_proxy_client_nrf52840_xxAA_s140_6.0.0.dir/__/__/__/mesh/bearer/src/advertiser.c.obj
                                       0x15d7 (size before relaxing)
 .debug_str     0x000000000000fee6      0x493 CMakeFiles/light_switch_proxy_client_nrf52840_xxAA_s140_6.0.0.dir/__/__/__/mesh/bearer/src/bearer_handler.c.obj
                                       0x1166 (size before relaxing)
 .debug_str     0x0000000000010379      0x1e3 CMakeFiles/light_switch_proxy_client_nrf52840_xxAA_s140_6.0.0.dir/__/__/__/mesh/bearer/src/broadcast.c.obj
                                       0x10d8 (size before relaxing)
 .debug_str     0x000000000001055c       0xa9 CMakeFiles/light_switch_proxy_client_nrf52840_xxAA_s140_6.0.0.dir/__/__/__/mesh/bearer/src/filter_engine.c.obj
                                        0x882 (size before relaxing)
 .debug_str     0x0000000000010605       0xb0 CMakeFiles/light_switch_proxy_client_nrf52840_xxAA_s140_6.0.0.dir/__/__/__/mesh/bearer/src/radio_config.c.obj
                                        0x926 (size before relaxing)
 .debug_str     0x00000000000106b5      0x494 CMakeFiles/light_switch_proxy_client_nrf52840_xxAA_s140_6.0.0.dir/__/__/__/mesh/bearer/src/scanner.c.obj
                                       0x1aaf (size before relaxing)
 .debug_str     0x0000000000010b49      0xcaf CMakeFiles/light_switch_proxy_client_nrf52840_xxAA_s140_6.0.0.dir/__/__/__/mesh/gatt/src/mesh_gatt.c.obj
                                       0x2f3a (size before relaxing)
 .debug_str     0x00000000000117f8      0x6f1 CMakeFiles/light_switch_proxy_client_nrf52840_xxAA_s140_6.0.0.dir/__/__/__/mesh/gatt/src/proxy.c.obj
                                       0x2a37 (size before relaxing)
 .debug_str     0x0000000000011ee9       0x75 CMakeFiles/light_switch_proxy_client_nrf52840_xxAA_s140_6.0.0.dir/__/__/__/mesh/gatt/src/proxy_filter.c.obj
                                        0x3ce (size before relaxing)
 .debug_str     0x0000000000011f5e      0x466 CMakeFiles/light_switch_proxy_client_nrf52840_xxAA_s140_6.0.0.dir/__/__/__/models/simple_on_off/src/simple_on_off_client.c.obj
                                       0x1160 (size before relaxing)
 .debug_str     0x00000000000123c4      0x260 CMakeFiles/light_switch_proxy_client_nrf52840_xxAA_s140_6.0.0.dir/__/__/__/models/config/src/composition_data.c.obj
                                        0x953 (size before relaxing)
 .debug_str     0x0000000000012624     0x2613 CMakeFiles/light_switch_proxy_client_nrf52840_xxAA_s140_6.0.0.dir/__/__/__/models/config/src/config_server.c.obj
                                       0x5113 (size before relaxing)
 .debug_str     0x0000000000014c37       0xa0 CMakeFiles/light_switch_proxy_client_nrf52840_xxAA_s140_6.0.0.dir/__/__/__/models/config/src/packed_index_list.c.obj
                                        0x2cc (size before relaxing)
 .debug_str     0x0000000000014cd7      0x641 CMakeFiles/light_switch_proxy_client_nrf52840_xxAA_s140_6.0.0.dir/__/__/__/models/health/src/health_server.c.obj
                                       0x1715 (size before relaxing)
 .debug_str     0x0000000000015318      0x29b CMakeFiles/light_switch_proxy_client_nrf52840_xxAA_s140_6.0.0.dir/__/__/__/mesh/access/src/access_publish.c.obj
                                        0xc42 (size before relaxing)
 .debug_str     0x00000000000155b3      0x4c9 CMakeFiles/light_switch_proxy_client_nrf52840_xxAA_s140_6.0.0.dir/__/__/__/mesh/access/src/access.c.obj
                                       0x273d (size before relaxing)
 .debug_str     0x0000000000015a7c      0x156 CMakeFiles/light_switch_proxy_client_nrf52840_xxAA_s140_6.0.0.dir/__/__/__/mesh/access/src/access_reliable.c.obj
                                       0x107c (size before relaxing)
 .debug_str     0x0000000000015bd2      0x8c5 CMakeFiles/light_switch_proxy_client_nrf52840_xxAA_s140_6.0.0.dir/__/__/__/mesh/access/src/device_state_manager.c.obj
                                       0x2645 (size before relaxing)
 .debug_str     0x0000000000016497      0x606 CMakeFiles/light_switch_proxy_client_nrf52840_xxAA_s140_6.0.0.dir/__/__/__/mesh/prov/src/prov_provisionee.c.obj
                                       0x225e (size before relaxing)
 .debug_str     0x0000000000016a9d      0x270 CMakeFiles/light_switch_proxy_client_nrf52840_xxAA_s140_6.0.0.dir/__/__/__/mesh/prov/src/nrf_mesh_prov.c.obj
                                       0x1e50 (size before relaxing)
 .debug_str     0x0000000000016d0d      0x124 CMakeFiles/light_switch_proxy_client_nrf52840_xxAA_s140_6.0.0.dir/__/__/__/mesh/prov/src/provisioning.c.obj
                                        0xfa1 (size before relaxing)
 .debug_str     0x0000000000016e31       0xd2 CMakeFiles/light_switch_proxy_client_nrf52840_xxAA_s140_6.0.0.dir/__/__/__/mesh/prov/src/prov_beacon.c.obj
                                       0x19d2 (size before relaxing)
 .debug_str     0x0000000000016f03      0x1fa CMakeFiles/light_switch_proxy_client_nrf52840_xxAA_s140_6.0.0.dir/__/__/__/mesh/prov/src/prov_utils.c.obj
                                       0x1f9f (size before relaxing)
 .debug_str     0x00000000000170fd      0x426 CMakeFiles/light_switch_proxy_client_nrf52840_xxAA_s140_6.0.0.dir/__/__/__/mesh/prov/src/prov_bearer_adv.c.obj
                                       0x1c36 (size before relaxing)
 .debug_str     0x0000000000017523      0x44e CMakeFiles/light_switch_proxy_client_nrf52840_xxAA_s140_6.0.0.dir/home/mazzer/work/nordic/sdk/nRF5_SDK_15.0.0/modules/nrfx/mdk/system_nrf52840.c.obj
                                        0x977 (size before relaxing)
 .debug_str     0x0000000000017971       0x64 CMakeFiles/light_switch_proxy_client_nrf52840_xxAA_s140_6.0.0.dir/home/mazzer/work/nordic/sdk/nRF5_SDK_15.0.0/modules/nrfx/mdk/gcc_startup_nrf52840.S.obj
                                         0xc3 (size before relaxing)
 .debug_str     0x00000000000179d5       0x5f CMakeFiles/light_switch_proxy_client_nrf52840_xxAA_s140_6.0.0.dir/home/mazzer/work/nordic/sdk/nRF5_SDK_15.0.0/components/libraries/util/app_error_handler_gcc.c.obj
                                        0x6d8 (size before relaxing)
 .debug_str     0x0000000000017a34      0x33f ../../../external/rtt/librtt_nrf52840_xxAA.a(SEGGER_RTT.c.obj)
                                        0x982 (size before relaxing)
 .debug_str     0x0000000000017d73      0x116 ../../../external/rtt/librtt_nrf52840_xxAA.a(SEGGER_RTT_printf.c.obj)
                                        0x7f2 (size before relaxing)
 .debug_str     0x0000000000017e89      0x717 ../../../external/micro-ecc/libuECC_nrf52840_xxAA.a(uECC.c.obj)
                                        0x8df (size before relaxing)

.debug_frame    0x0000000000000000     0x72dc
 .debug_frame   0x0000000000000000      0x1b0 CMakeFiles/light_switch_proxy_client_nrf52840_xxAA_s140_6.0.0.dir/src/main.c.obj
 .debug_frame   0x00000000000001b0       0xc4 CMakeFiles/light_switch_proxy_client_nrf52840_xxAA_s140_6.0.0.dir/__/__/__/mesh/stack/src/mesh_stack.c.obj
 .debug_frame   0x0000000000000274       0x88 CMakeFiles/light_switch_proxy_client_nrf52840_xxAA_s140_6.0.0.dir/__/__/common/src/mesh_provisionee.c.obj
 .debug_frame   0x00000000000002fc       0x60 CMakeFiles/light_switch_proxy_client_nrf52840_xxAA_s140_6.0.0.dir/__/__/common/src/rtt_input.c.obj
 .debug_frame   0x000000000000035c       0xbc CMakeFiles/light_switch_proxy_client_nrf52840_xxAA_s140_6.0.0.dir/__/__/common/src/simple_hal.c.obj
 .debug_frame   0x0000000000000418       0xb0 CMakeFiles/light_switch_proxy_client_nrf52840_xxAA_s140_6.0.0.dir/__/__/common/src/mesh_adv.c.obj
 .debug_frame   0x00000000000004c8      0x250 CMakeFiles/light_switch_proxy_client_nrf52840_xxAA_s140_6.0.0.dir/__/__/__/mesh/prov/src/nrf_mesh_prov_bearer_gatt.c.obj
 .debug_frame   0x0000000000000718       0x54 CMakeFiles/light_switch_proxy_client_nrf52840_xxAA_s140_6.0.0.dir/home/mazzer/work/nordic/sdk/nRF5_SDK_15.0.0/components/libraries/util/app_error.c.obj
 .debug_frame   0x000000000000076c       0x90 CMakeFiles/light_switch_proxy_client_nrf52840_xxAA_s140_6.0.0.dir/home/mazzer/work/nordic/sdk/nRF5_SDK_15.0.0/components/libraries/util/app_util_platform.c.obj
 .debug_frame   0x00000000000007fc      0x1cc CMakeFiles/light_switch_proxy_client_nrf52840_xxAA_s140_6.0.0.dir/home/mazzer/work/nordic/sdk/nRF5_SDK_15.0.0/components/ble/common/ble_advdata.c.obj
 .debug_frame   0x00000000000009c8       0x30 CMakeFiles/light_switch_proxy_client_nrf52840_xxAA_s140_6.0.0.dir/home/mazzer/work/nordic/sdk/nRF5_SDK_15.0.0/components/libraries/experimental_section_vars/nrf_section_iter.c.obj
 .debug_frame   0x00000000000009f8      0x120 CMakeFiles/light_switch_proxy_client_nrf52840_xxAA_s140_6.0.0.dir/home/mazzer/work/nordic/sdk/nRF5_SDK_15.0.0/components/softdevice/common/nrf_sdh.c.obj
 .debug_frame   0x0000000000000b18       0x40 CMakeFiles/light_switch_proxy_client_nrf52840_xxAA_s140_6.0.0.dir/home/mazzer/work/nordic/sdk/nRF5_SDK_15.0.0/components/softdevice/common/nrf_sdh_soc.c.obj
 .debug_frame   0x0000000000000b58       0xbc CMakeFiles/light_switch_proxy_client_nrf52840_xxAA_s140_6.0.0.dir/home/mazzer/work/nordic/sdk/nRF5_SDK_15.0.0/components/softdevice/common/nrf_sdh_ble.c.obj
 .debug_frame   0x0000000000000c14       0x30 CMakeFiles/light_switch_proxy_client_nrf52840_xxAA_s140_6.0.0.dir/__/__/nrf_mesh_weak.c.obj
 .debug_frame   0x0000000000000c44       0x34 CMakeFiles/light_switch_proxy_client_nrf52840_xxAA_s140_6.0.0.dir/__/__/common/src/app_error_weak.c.obj
 .debug_frame   0x0000000000000c78       0x2c CMakeFiles/light_switch_proxy_client_nrf52840_xxAA_s140_6.0.0.dir/__/__/common/src/assertion_handler_weak.c.obj
 .debug_frame   0x0000000000000ca4       0x4c CMakeFiles/light_switch_proxy_client_nrf52840_xxAA_s140_6.0.0.dir/__/__/__/mesh/core/src/nrf_mesh_configure.c.obj
 .debug_frame   0x0000000000000cf0       0x40 CMakeFiles/light_switch_proxy_client_nrf52840_xxAA_s140_6.0.0.dir/__/__/__/mesh/core/src/aes.c.obj
 .debug_frame   0x0000000000000d30       0x7c CMakeFiles/light_switch_proxy_client_nrf52840_xxAA_s140_6.0.0.dir/__/__/__/mesh/core/src/msg_cache.c.obj
 .debug_frame   0x0000000000000dac      0x3fc CMakeFiles/light_switch_proxy_client_nrf52840_xxAA_s140_6.0.0.dir/__/__/__/mesh/core/src/transport.c.obj
 .debug_frame   0x00000000000011a8       0x74 CMakeFiles/light_switch_proxy_client_nrf52840_xxAA_s140_6.0.0.dir/__/__/__/mesh/core/src/event.c.obj
 .debug_frame   0x000000000000121c      0x10c CMakeFiles/light_switch_proxy_client_nrf52840_xxAA_s140_6.0.0.dir/__/__/__/mesh/core/src/packet_buffer.c.obj
 .debug_frame   0x0000000000001328      0x268 CMakeFiles/light_switch_proxy_client_nrf52840_xxAA_s140_6.0.0.dir/__/__/__/mesh/core/src/flash_manager_defrag.c.obj
 .debug_frame   0x0000000000001590       0xd8 CMakeFiles/light_switch_proxy_client_nrf52840_xxAA_s140_6.0.0.dir/__/__/__/mesh/core/src/fifo.c.obj
 .debug_frame   0x0000000000001668       0xac CMakeFiles/light_switch_proxy_client_nrf52840_xxAA_s140_6.0.0.dir/__/__/__/mesh/core/src/packet_mgr.c.obj
 .debug_frame   0x0000000000001714      0x214 CMakeFiles/light_switch_proxy_client_nrf52840_xxAA_s140_6.0.0.dir/__/__/__/mesh/core/src/net_state.c.obj
 .debug_frame   0x0000000000001928      0x130 CMakeFiles/light_switch_proxy_client_nrf52840_xxAA_s140_6.0.0.dir/__/__/__/mesh/core/src/mesh_flash.c.obj
 .debug_frame   0x0000000000001a58       0x60 CMakeFiles/light_switch_proxy_client_nrf52840_xxAA_s140_6.0.0.dir/__/__/__/mesh/core/src/nrf_mesh_utils.c.obj
 .debug_frame   0x0000000000001ab8      0x1e4 CMakeFiles/light_switch_proxy_client_nrf52840_xxAA_s140_6.0.0.dir/__/__/__/mesh/core/src/nrf_mesh.c.obj
 .debug_frame   0x0000000000001c9c       0x74 CMakeFiles/light_switch_proxy_client_nrf52840_xxAA_s140_6.0.0.dir/__/__/__/mesh/core/src/queue.c.obj
 .debug_frame   0x0000000000001d10       0x48 CMakeFiles/light_switch_proxy_client_nrf52840_xxAA_s140_6.0.0.dir/__/__/__/mesh/core/src/hal.c.obj
 .debug_frame   0x0000000000001d58       0x60 CMakeFiles/light_switch_proxy_client_nrf52840_xxAA_s140_6.0.0.dir/__/__/__/mesh/core/src/aes_cmac.c.obj
 .debug_frame   0x0000000000001db8       0xe4 CMakeFiles/light_switch_proxy_client_nrf52840_xxAA_s140_6.0.0.dir/__/__/__/mesh/core/src/timer_scheduler.c.obj
 .debug_frame   0x0000000000001e9c      0x158 CMakeFiles/light_switch_proxy_client_nrf52840_xxAA_s140_6.0.0.dir/__/__/__/mesh/core/src/timer.c.obj
 .debug_frame   0x0000000000001ff4       0x4c CMakeFiles/light_switch_proxy_client_nrf52840_xxAA_s140_6.0.0.dir/__/__/__/mesh/core/src/ticker.c.obj
 .debug_frame   0x0000000000002040       0x9c CMakeFiles/light_switch_proxy_client_nrf52840_xxAA_s140_6.0.0.dir/__/__/__/mesh/core/src/rand.c.obj
 .debug_frame   0x00000000000020dc       0x30 CMakeFiles/light_switch_proxy_client_nrf52840_xxAA_s140_6.0.0.dir/__/__/__/mesh/core/src/nrf_mesh_opt.c.obj
 .debug_frame   0x000000000000210c      0x190 CMakeFiles/light_switch_proxy_client_nrf52840_xxAA_s140_6.0.0.dir/__/__/__/mesh/core/src/timeslot.c.obj
 .debug_frame   0x000000000000229c      0x1ac CMakeFiles/light_switch_proxy_client_nrf52840_xxAA_s140_6.0.0.dir/__/__/__/mesh/core/src/bearer_event.c.obj
 .debug_frame   0x0000000000002448      0x158 CMakeFiles/light_switch_proxy_client_nrf52840_xxAA_s140_6.0.0.dir/__/__/__/mesh/core/src/enc.c.obj
 .debug_frame   0x00000000000025a0      0x10c CMakeFiles/light_switch_proxy_client_nrf52840_xxAA_s140_6.0.0.dir/__/__/__/mesh/core/src/network.c.obj
 .debug_frame   0x00000000000026ac       0xec CMakeFiles/light_switch_proxy_client_nrf52840_xxAA_s140_6.0.0.dir/__/__/__/mesh/core/src/net_packet.c.obj
 .debug_frame   0x0000000000002798       0x94 CMakeFiles/light_switch_proxy_client_nrf52840_xxAA_s140_6.0.0.dir/__/__/__/mesh/core/src/msqueue.c.obj
 .debug_frame   0x000000000000282c       0xc8 CMakeFiles/light_switch_proxy_client_nrf52840_xxAA_s140_6.0.0.dir/__/__/__/mesh/core/src/nrf_mesh_keygen.c.obj
 .debug_frame   0x00000000000028f4       0x90 CMakeFiles/light_switch_proxy_client_nrf52840_xxAA_s140_6.0.0.dir/__/__/__/mesh/core/src/cache.c.obj
 .debug_frame   0x0000000000002984       0x98 CMakeFiles/light_switch_proxy_client_nrf52840_xxAA_s140_6.0.0.dir/__/__/__/mesh/core/src/list.c.obj
 .debug_frame   0x0000000000002a1c       0xc0 CMakeFiles/light_switch_proxy_client_nrf52840_xxAA_s140_6.0.0.dir/__/__/__/mesh/core/src/log.c.obj
 .debug_frame   0x0000000000002adc      0x258 CMakeFiles/light_switch_proxy_client_nrf52840_xxAA_s140_6.0.0.dir/__/__/__/mesh/core/src/flash_manager.c.obj
 .debug_frame   0x0000000000002d34       0xcc CMakeFiles/light_switch_proxy_client_nrf52840_xxAA_s140_6.0.0.dir/__/__/__/mesh/core/src/ccm_soft.c.obj
 .debug_frame   0x0000000000002e00       0xb8 CMakeFiles/light_switch_proxy_client_nrf52840_xxAA_s140_6.0.0.dir/__/__/__/mesh/core/src/replay_cache.c.obj
 .debug_frame   0x0000000000002eb8       0x7c CMakeFiles/light_switch_proxy_client_nrf52840_xxAA_s140_6.0.0.dir/__/__/__/mesh/core/src/beacon.c.obj
 .debug_frame   0x0000000000002f34       0xf8 CMakeFiles/light_switch_proxy_client_nrf52840_xxAA_s140_6.0.0.dir/__/__/__/mesh/core/src/core_tx.c.obj
 .debug_frame   0x000000000000302c      0x184 CMakeFiles/light_switch_proxy_client_nrf52840_xxAA_s140_6.0.0.dir/__/__/__/mesh/core/src/heartbeat.c.obj
 .debug_frame   0x00000000000031b0      0x114 CMakeFiles/light_switch_proxy_client_nrf52840_xxAA_s140_6.0.0.dir/__/__/__/mesh/core/src/net_beacon.c.obj
 .debug_frame   0x00000000000032c4       0xb0 CMakeFiles/light_switch_proxy_client_nrf52840_xxAA_s140_6.0.0.dir/__/__/__/mesh/core/src/fsm.c.obj
 .debug_frame   0x0000000000003374      0x138 CMakeFiles/light_switch_proxy_client_nrf52840_xxAA_s140_6.0.0.dir/__/__/__/mesh/core/src/core_tx_adv.c.obj
 .debug_frame   0x00000000000034ac       0x94 CMakeFiles/light_switch_proxy_client_nrf52840_xxAA_s140_6.0.0.dir/__/__/__/mesh/bearer/src/ad_listener.c.obj
 .debug_frame   0x0000000000003540       0xc0 CMakeFiles/light_switch_proxy_client_nrf52840_xxAA_s140_6.0.0.dir/__/__/__/mesh/bearer/src/ad_type_filter.c.obj
 .debug_frame   0x0000000000003600      0x278 CMakeFiles/light_switch_proxy_client_nrf52840_xxAA_s140_6.0.0.dir/__/__/__/mesh/bearer/src/advertiser.c.obj
 .debug_frame   0x0000000000003878      0x170 CMakeFiles/light_switch_proxy_client_nrf52840_xxAA_s140_6.0.0.dir/__/__/__/mesh/bearer/src/bearer_handler.c.obj
 .debug_frame   0x00000000000039e8       0x74 CMakeFiles/light_switch_proxy_client_nrf52840_xxAA_s140_6.0.0.dir/__/__/__/mesh/bearer/src/broadcast.c.obj
 .debug_frame   0x0000000000003a5c       0x88 CMakeFiles/light_switch_proxy_client_nrf52840_xxAA_s140_6.0.0.dir/__/__/__/mesh/bearer/src/filter_engine.c.obj
 .debug_frame   0x0000000000003ae4       0x98 CMakeFiles/light_switch_proxy_client_nrf52840_xxAA_s140_6.0.0.dir/__/__/__/mesh/bearer/src/radio_config.c.obj
 .debug_frame   0x0000000000003b7c      0x244 CMakeFiles/light_switch_proxy_client_nrf52840_xxAA_s140_6.0.0.dir/__/__/__/mesh/bearer/src/scanner.c.obj
 .debug_frame   0x0000000000003dc0      0x1e8 CMakeFiles/light_switch_proxy_client_nrf52840_xxAA_s140_6.0.0.dir/__/__/__/mesh/gatt/src/mesh_gatt.c.obj
 .debug_frame   0x0000000000003fa8      0x2a0 CMakeFiles/light_switch_proxy_client_nrf52840_xxAA_s140_6.0.0.dir/__/__/__/mesh/gatt/src/proxy.c.obj
 .debug_frame   0x0000000000004248       0xb0 CMakeFiles/light_switch_proxy_client_nrf52840_xxAA_s140_6.0.0.dir/__/__/__/mesh/gatt/src/proxy_filter.c.obj
 .debug_frame   0x00000000000042f8      0x130 CMakeFiles/light_switch_proxy_client_nrf52840_xxAA_s140_6.0.0.dir/__/__/__/models/simple_on_off/src/simple_on_off_client.c.obj
 .debug_frame   0x0000000000004428       0x40 CMakeFiles/light_switch_proxy_client_nrf52840_xxAA_s140_6.0.0.dir/__/__/__/models/config/src/composition_data.c.obj
 .debug_frame   0x0000000000004468      0x848 CMakeFiles/light_switch_proxy_client_nrf52840_xxAA_s140_6.0.0.dir/__/__/__/models/config/src/config_server.c.obj
 .debug_frame   0x0000000000004cb0       0x30 CMakeFiles/light_switch_proxy_client_nrf52840_xxAA_s140_6.0.0.dir/__/__/__/models/config/src/packed_index_list.c.obj
 .debug_frame   0x0000000000004ce0      0x27c CMakeFiles/light_switch_proxy_client_nrf52840_xxAA_s140_6.0.0.dir/__/__/__/models/health/src/health_server.c.obj
 .debug_frame   0x0000000000004f5c       0xf4 CMakeFiles/light_switch_proxy_client_nrf52840_xxAA_s140_6.0.0.dir/__/__/__/mesh/access/src/access_publish.c.obj
 .debug_frame   0x0000000000005050      0x580 CMakeFiles/light_switch_proxy_client_nrf52840_xxAA_s140_6.0.0.dir/__/__/__/mesh/access/src/access.c.obj
 .debug_frame   0x00000000000055d0      0x14c CMakeFiles/light_switch_proxy_client_nrf52840_xxAA_s140_6.0.0.dir/__/__/__/mesh/access/src/access_reliable.c.obj
 .debug_frame   0x000000000000571c      0x66c CMakeFiles/light_switch_proxy_client_nrf52840_xxAA_s140_6.0.0.dir/__/__/__/mesh/access/src/device_state_manager.c.obj
 .debug_frame   0x0000000000005d88      0x198 CMakeFiles/light_switch_proxy_client_nrf52840_xxAA_s140_6.0.0.dir/__/__/__/mesh/prov/src/prov_provisionee.c.obj
 .debug_frame   0x0000000000005f20      0x1c8 CMakeFiles/light_switch_proxy_client_nrf52840_xxAA_s140_6.0.0.dir/__/__/__/mesh/prov/src/nrf_mesh_prov.c.obj
 .debug_frame   0x00000000000060e8      0x1a0 CMakeFiles/light_switch_proxy_client_nrf52840_xxAA_s140_6.0.0.dir/__/__/__/mesh/prov/src/provisioning.c.obj
 .debug_frame   0x0000000000006288       0x88 CMakeFiles/light_switch_proxy_client_nrf52840_xxAA_s140_6.0.0.dir/__/__/__/mesh/prov/src/prov_beacon.c.obj
 .debug_frame   0x0000000000006310      0x11c CMakeFiles/light_switch_proxy_client_nrf52840_xxAA_s140_6.0.0.dir/__/__/__/mesh/prov/src/prov_utils.c.obj
 .debug_frame   0x000000000000642c      0x2d8 CMakeFiles/light_switch_proxy_client_nrf52840_xxAA_s140_6.0.0.dir/__/__/__/mesh/prov/src/prov_bearer_adv.c.obj
 .debug_frame   0x0000000000006704       0x40 CMakeFiles/light_switch_proxy_client_nrf52840_xxAA_s140_6.0.0.dir/home/mazzer/work/nordic/sdk/nRF5_SDK_15.0.0/modules/nrfx/mdk/system_nrf52840.c.obj
 .debug_frame   0x0000000000006744       0x20 CMakeFiles/light_switch_proxy_client_nrf52840_xxAA_s140_6.0.0.dir/home/mazzer/work/nordic/sdk/nRF5_SDK_15.0.0/components/libraries/util/app_error_handler_gcc.c.obj
 .debug_frame   0x0000000000006764      0x2e4 ../../../external/rtt/librtt_nrf52840_xxAA.a(SEGGER_RTT.c.obj)
 .debug_frame   0x0000000000006a48       0xa0 ../../../external/rtt/librtt_nrf52840_xxAA.a(SEGGER_RTT_printf.c.obj)
 .debug_frame   0x0000000000006ae8      0x4c8 ../../../external/micro-ecc/libuECC_nrf52840_xxAA.a(uECC.c.obj)
 .debug_frame   0x0000000000006fb0       0x2c /usr/bin/../lib/gcc/arm-none-eabi/7.2.1/thumb/v7e-m/fpv4-sp/hard/libgcc.a(_aeabi_uldivmod.o)
 .debug_frame   0x0000000000006fdc       0x34 /usr/bin/../lib/gcc/arm-none-eabi/7.2.1/thumb/v7e-m/fpv4-sp/hard/libgcc.a(_udivmoddi4.o)
 .debug_frame   0x0000000000007010       0x28 /usr/bin/../lib/gcc/arm-none-eabi/7.2.1/../../../../arm-none-eabi/lib/thumb/v7e-m/fpv4-sp/hard/libg_nano.a(lib_a-exit.o)
 .debug_frame   0x0000000000007038       0x2c /usr/bin/../lib/gcc/arm-none-eabi/7.2.1/../../../../arm-none-eabi/lib/thumb/v7e-m/fpv4-sp/hard/libg_nano.a(lib_a-init.o)
 .debug_frame   0x0000000000007064       0x30 /usr/bin/../lib/gcc/arm-none-eabi/7.2.1/../../../../arm-none-eabi/lib/thumb/v7e-m/fpv4-sp/hard/libg_nano.a(lib_a-malloc.o)
 .debug_frame   0x0000000000007094       0x2c /usr/bin/../lib/gcc/arm-none-eabi/7.2.1/../../../../arm-none-eabi/lib/thumb/v7e-m/fpv4-sp/hard/libg_nano.a(lib_a-memcmp.o)
 .debug_frame   0x00000000000070c0       0x28 /usr/bin/../lib/gcc/arm-none-eabi/7.2.1/../../../../arm-none-eabi/lib/thumb/v7e-m/fpv4-sp/hard/libg_nano.a(lib_a-memcpy-stub.o)
 .debug_frame   0x00000000000070e8       0x20 /usr/bin/../lib/gcc/arm-none-eabi/7.2.1/../../../../arm-none-eabi/lib/thumb/v7e-m/fpv4-sp/hard/libg_nano.a(lib_a-memset.o)
 .debug_frame   0x0000000000007108       0x38 /usr/bin/../lib/gcc/arm-none-eabi/7.2.1/../../../../arm-none-eabi/lib/thumb/v7e-m/fpv4-sp/hard/libg_nano.a(lib_a-nano-freer.o)
 .debug_frame   0x0000000000007140       0x2c /usr/bin/../lib/gcc/arm-none-eabi/7.2.1/../../../../arm-none-eabi/lib/thumb/v7e-m/fpv4-sp/hard/libg_nano.a(lib_a-nano-mallocr.o)
 .debug_frame   0x000000000000716c       0x2c /usr/bin/../lib/gcc/arm-none-eabi/7.2.1/../../../../arm-none-eabi/lib/thumb/v7e-m/fpv4-sp/hard/libg_nano.a(lib_a-sbrkr.o)
 .debug_frame   0x0000000000007198       0x20 /usr/bin/../lib/gcc/arm-none-eabi/7.2.1/../../../../arm-none-eabi/lib/thumb/v7e-m/fpv4-sp/hard/libg_nano.a(lib_a-strcpy.o)
 .debug_frame   0x00000000000071b8       0x38 /usr/bin/../lib/gcc/arm-none-eabi/7.2.1/../../../../arm-none-eabi/lib/thumb/v7e-m/fpv4-sp/hard/libg_nano.a(lib_a-strrchr.o)
 .debug_frame   0x00000000000071f0       0x30 /usr/bin/../lib/gcc/arm-none-eabi/7.2.1/../../../../arm-none-eabi/lib/thumb/v7e-m/fpv4-sp/hard/libg_nano.a(lib_a-mlock.o)
 .debug_frame   0x0000000000007220       0x5c /usr/bin/../lib/gcc/arm-none-eabi/7.2.1/../../../../arm-none-eabi/lib/thumb/v7e-m/fpv4-sp/hard/libg_nano.a(lib_a-reent.o)
 .debug_frame   0x000000000000727c       0x20 /usr/bin/../lib/gcc/arm-none-eabi/7.2.1/../../../../arm-none-eabi/lib/thumb/v7e-m/fpv4-sp/hard/libg_nano.a(lib_a-strchr.o)
 .debug_frame   0x000000000000729c       0x20 /usr/bin/../lib/gcc/arm-none-eabi/7.2.1/../../../../arm-none-eabi/lib/thumb/v7e-m/fpv4-sp/hard/libnosys.a(sbrk.o)
 .debug_frame   0x00000000000072bc       0x20 /usr/bin/../lib/gcc/arm-none-eabi/7.2.1/../../../../arm-none-eabi/lib/thumb/v7e-m/fpv4-sp/hard/libnosys.a(_exit.o)
