Archive member included to satisfy reference by file (symbol)

../../../external/rtt/librtt_nrf52840_xxAA.a(SEGGER_RTT.c.obj)
                              CMakeFiles/pb_remote_client_nrf52840_xxAA_s140_6.0.0.dir/__/__/__/mesh/core/src/log.c.obj (SEGGER_RTT_Write)
../../../external/rtt/librtt_nrf52840_xxAA.a(SEGGER_RTT_printf.c.obj)
                              CMakeFiles/pb_remote_client_nrf52840_xxAA_s140_6.0.0.dir/__/__/__/mesh/core/src/log.c.obj (SEGGER_RTT_vprintf)
../../../external/micro-ecc/libuECC_nrf52840_xxAA.a(uECC.c.obj)
                              CMakeFiles/pb_remote_client_nrf52840_xxAA_s140_6.0.0.dir/__/__/__/mesh/prov/src/prov_utils.c.obj (uECC_secp256r1)
/usr/bin/../lib/gcc/arm-none-eabi/7.2.1/thumb/v7e-m/fpv4-sp/hard/libgcc.a(_aeabi_ldivmod.o)
                              CMakeFiles/pb_remote_client_nrf52840_xxAA_s140_6.0.0.dir/__/__/common/src/rtt_input.c.obj (__aeabi_ldivmod)
/usr/bin/../lib/gcc/arm-none-eabi/7.2.1/thumb/v7e-m/fpv4-sp/hard/libgcc.a(_aeabi_uldivmod.o)
                              CMakeFiles/pb_remote_client_nrf52840_xxAA_s140_6.0.0.dir/__/__/common/src/rtt_input.c.obj (__aeabi_uldivmod)
/usr/bin/../lib/gcc/arm-none-eabi/7.2.1/thumb/v7e-m/fpv4-sp/hard/libgcc.a(_udivmoddi4.o)
                              /usr/bin/../lib/gcc/arm-none-eabi/7.2.1/thumb/v7e-m/fpv4-sp/hard/libgcc.a(_aeabi_ldivmod.o) (__udivmoddi4)
/usr/bin/../lib/gcc/arm-none-eabi/7.2.1/thumb/v7e-m/fpv4-sp/hard/libgcc.a(_dvmd_tls.o)
                              /usr/bin/../lib/gcc/arm-none-eabi/7.2.1/thumb/v7e-m/fpv4-sp/hard/libgcc.a(_aeabi_ldivmod.o) (__aeabi_ldiv0)
/usr/bin/../lib/gcc/arm-none-eabi/7.2.1/../../../../arm-none-eabi/lib/thumb/v7e-m/fpv4-sp/hard/libg_nano.a(lib_a-exit.o)
                              /usr/bin/../lib/gcc/arm-none-eabi/7.2.1/../../../../arm-none-eabi/lib/thumb/v7e-m/fpv4-sp/hard/crt0.o (exit)
/usr/bin/../lib/gcc/arm-none-eabi/7.2.1/../../../../arm-none-eabi/lib/thumb/v7e-m/fpv4-sp/hard/libg_nano.a(lib_a-impure.o)
                              /usr/bin/../lib/gcc/arm-none-eabi/7.2.1/../../../../arm-none-eabi/lib/thumb/v7e-m/fpv4-sp/hard/libg_nano.a(lib_a-exit.o) (_global_impure_ptr)
/usr/bin/../lib/gcc/arm-none-eabi/7.2.1/../../../../arm-none-eabi/lib/thumb/v7e-m/fpv4-sp/hard/libg_nano.a(lib_a-init.o)
                              /usr/bin/../lib/gcc/arm-none-eabi/7.2.1/../../../../arm-none-eabi/lib/thumb/v7e-m/fpv4-sp/hard/crt0.o (__libc_init_array)
/usr/bin/../lib/gcc/arm-none-eabi/7.2.1/../../../../arm-none-eabi/lib/thumb/v7e-m/fpv4-sp/hard/libg_nano.a(lib_a-malloc.o)
                              CMakeFiles/pb_remote_client_nrf52840_xxAA_s140_6.0.0.dir/__/__/__/mesh/core/src/transport.c.obj (malloc)
/usr/bin/../lib/gcc/arm-none-eabi/7.2.1/../../../../arm-none-eabi/lib/thumb/v7e-m/fpv4-sp/hard/libg_nano.a(lib_a-memcmp.o)
                              CMakeFiles/pb_remote_client_nrf52840_xxAA_s140_6.0.0.dir/__/__/__/mesh/prov/src/prov_utils.c.obj (memcmp)
/usr/bin/../lib/gcc/arm-none-eabi/7.2.1/../../../../arm-none-eabi/lib/thumb/v7e-m/fpv4-sp/hard/libg_nano.a(lib_a-memcpy-stub.o)
                              CMakeFiles/pb_remote_client_nrf52840_xxAA_s140_6.0.0.dir/src/main.c.obj (memcpy)
/usr/bin/../lib/gcc/arm-none-eabi/7.2.1/../../../../arm-none-eabi/lib/thumb/v7e-m/fpv4-sp/hard/libg_nano.a(lib_a-memset.o)
                              /usr/bin/../lib/gcc/arm-none-eabi/7.2.1/../../../../arm-none-eabi/lib/thumb/v7e-m/fpv4-sp/hard/crt0.o (memset)
/usr/bin/../lib/gcc/arm-none-eabi/7.2.1/../../../../arm-none-eabi/lib/thumb/v7e-m/fpv4-sp/hard/libg_nano.a(lib_a-nano-freer.o)
                              /usr/bin/../lib/gcc/arm-none-eabi/7.2.1/../../../../arm-none-eabi/lib/thumb/v7e-m/fpv4-sp/hard/libg_nano.a(lib_a-malloc.o) (_free_r)
/usr/bin/../lib/gcc/arm-none-eabi/7.2.1/../../../../arm-none-eabi/lib/thumb/v7e-m/fpv4-sp/hard/libg_nano.a(lib_a-nano-mallocr.o)
                              /usr/bin/../lib/gcc/arm-none-eabi/7.2.1/../../../../arm-none-eabi/lib/thumb/v7e-m/fpv4-sp/hard/libg_nano.a(lib_a-malloc.o) (_malloc_r)
/usr/bin/../lib/gcc/arm-none-eabi/7.2.1/../../../../arm-none-eabi/lib/thumb/v7e-m/fpv4-sp/hard/libg_nano.a(lib_a-sbrkr.o)
                              /usr/bin/../lib/gcc/arm-none-eabi/7.2.1/../../../../arm-none-eabi/lib/thumb/v7e-m/fpv4-sp/hard/libg_nano.a(lib_a-nano-mallocr.o) (_sbrk_r)
/usr/bin/../lib/gcc/arm-none-eabi/7.2.1/../../../../arm-none-eabi/lib/thumb/v7e-m/fpv4-sp/hard/libg_nano.a(lib_a-strcpy.o)
                              ../../../external/rtt/librtt_nrf52840_xxAA.a(SEGGER_RTT.c.obj) (strcpy)
/usr/bin/../lib/gcc/arm-none-eabi/7.2.1/../../../../arm-none-eabi/lib/thumb/v7e-m/fpv4-sp/hard/libg_nano.a(lib_a-strlen.o)
                              CMakeFiles/pb_remote_client_nrf52840_xxAA_s140_6.0.0.dir/__/__/__/mesh/prov/src/prov_beacon.c.obj (strlen)
/usr/bin/../lib/gcc/arm-none-eabi/7.2.1/../../../../arm-none-eabi/lib/thumb/v7e-m/fpv4-sp/hard/libg_nano.a(lib_a-strrchr.o)
                              CMakeFiles/pb_remote_client_nrf52840_xxAA_s140_6.0.0.dir/src/main.c.obj (strrchr)
/usr/bin/../lib/gcc/arm-none-eabi/7.2.1/../../../../arm-none-eabi/lib/thumb/v7e-m/fpv4-sp/hard/libg_nano.a(lib_a-mlock.o)
                              /usr/bin/../lib/gcc/arm-none-eabi/7.2.1/../../../../arm-none-eabi/lib/thumb/v7e-m/fpv4-sp/hard/libg_nano.a(lib_a-nano-freer.o) (__malloc_lock)
/usr/bin/../lib/gcc/arm-none-eabi/7.2.1/../../../../arm-none-eabi/lib/thumb/v7e-m/fpv4-sp/hard/libg_nano.a(lib_a-reent.o)
                              /usr/bin/../lib/gcc/arm-none-eabi/7.2.1/../../../../arm-none-eabi/lib/thumb/v7e-m/fpv4-sp/hard/libg_nano.a(lib_a-sbrkr.o) (errno)
/usr/bin/../lib/gcc/arm-none-eabi/7.2.1/../../../../arm-none-eabi/lib/thumb/v7e-m/fpv4-sp/hard/libg_nano.a(lib_a-strchr.o)
                              /usr/bin/../lib/gcc/arm-none-eabi/7.2.1/../../../../arm-none-eabi/lib/thumb/v7e-m/fpv4-sp/hard/libg_nano.a(lib_a-strrchr.o) (strchr)
/usr/bin/../lib/gcc/arm-none-eabi/7.2.1/../../../../arm-none-eabi/lib/thumb/v7e-m/fpv4-sp/hard/libnosys.a(sbrk.o)
                              /usr/bin/../lib/gcc/arm-none-eabi/7.2.1/../../../../arm-none-eabi/lib/thumb/v7e-m/fpv4-sp/hard/libg_nano.a(lib_a-sbrkr.o) (_sbrk)
/usr/bin/../lib/gcc/arm-none-eabi/7.2.1/../../../../arm-none-eabi/lib/thumb/v7e-m/fpv4-sp/hard/libnosys.a(_exit.o)
                              /usr/bin/../lib/gcc/arm-none-eabi/7.2.1/../../../../arm-none-eabi/lib/thumb/v7e-m/fpv4-sp/hard/libg_nano.a(lib_a-exit.o) (_exit)

Allocating common symbols
Common symbol       size              file

nrf_nvic_state      0xc               CMakeFiles/pb_remote_client_nrf52840_xxAA_s140_6.0.0.dir/__/__/common/src/mesh_softdevice_init.c.obj
m_packet            0x24              CMakeFiles/pb_remote_client_nrf52840_xxAA_s140_6.0.0.dir/__/__/__/mesh/core/src/core_tx.c.obj
errno               0x4               /usr/bin/../lib/gcc/arm-none-eabi/7.2.1/../../../../arm-none-eabi/lib/thumb/v7e-m/fpv4-sp/hard/libg_nano.a(lib_a-reent.o)
_SEGGER_RTT         0x78              ../../../external/rtt/librtt_nrf52840_xxAA.a(SEGGER_RTT.c.obj)

Discarded input sections

 .text          0x0000000000000000        0x0 /usr/bin/../lib/gcc/arm-none-eabi/7.2.1/thumb/v7e-m/fpv4-sp/hard/crti.o
 .data          0x0000000000000000        0x0 /usr/bin/../lib/gcc/arm-none-eabi/7.2.1/thumb/v7e-m/fpv4-sp/hard/crti.o
 .bss           0x0000000000000000        0x0 /usr/bin/../lib/gcc/arm-none-eabi/7.2.1/thumb/v7e-m/fpv4-sp/hard/crti.o
 .data          0x0000000000000000        0x4 /usr/bin/../lib/gcc/arm-none-eabi/7.2.1/thumb/v7e-m/fpv4-sp/hard/crtbegin.o
 .data          0x0000000000000000        0x0 /usr/bin/../lib/gcc/arm-none-eabi/7.2.1/../../../../arm-none-eabi/lib/thumb/v7e-m/fpv4-sp/hard/crt0.o
 .bss           0x0000000000000000        0x0 /usr/bin/../lib/gcc/arm-none-eabi/7.2.1/../../../../arm-none-eabi/lib/thumb/v7e-m/fpv4-sp/hard/crt0.o
 .ARM.extab     0x0000000000000000        0x0 /usr/bin/../lib/gcc/arm-none-eabi/7.2.1/../../../../arm-none-eabi/lib/thumb/v7e-m/fpv4-sp/hard/crt0.o
 .text          0x0000000000000000        0x0 CMakeFiles/pb_remote_client_nrf52840_xxAA_s140_6.0.0.dir/src/main.c.obj
 .data          0x0000000000000000        0x0 CMakeFiles/pb_remote_client_nrf52840_xxAA_s140_6.0.0.dir/src/main.c.obj
 .bss           0x0000000000000000        0x0 CMakeFiles/pb_remote_client_nrf52840_xxAA_s140_6.0.0.dir/src/main.c.obj
 .text          0x0000000000000000        0x0 CMakeFiles/pb_remote_client_nrf52840_xxAA_s140_6.0.0.dir/__/__/__/mesh/stack/src/mesh_stack.c.obj
 .data          0x0000000000000000        0x0 CMakeFiles/pb_remote_client_nrf52840_xxAA_s140_6.0.0.dir/__/__/__/mesh/stack/src/mesh_stack.c.obj
 .bss           0x0000000000000000        0x0 CMakeFiles/pb_remote_client_nrf52840_xxAA_s140_6.0.0.dir/__/__/__/mesh/stack/src/mesh_stack.c.obj
 .text.mesh_evt_handler
                0x0000000000000000       0x10 CMakeFiles/pb_remote_client_nrf52840_xxAA_s140_6.0.0.dir/__/__/__/mesh/stack/src/mesh_stack.c.obj
 .text.mesh_stack_provisioning_data_store
                0x0000000000000000       0x78 CMakeFiles/pb_remote_client_nrf52840_xxAA_s140_6.0.0.dir/__/__/__/mesh/stack/src/mesh_stack.c.obj
 .text.mesh_stack_is_device_provisioned
                0x0000000000000000       0x1c CMakeFiles/pb_remote_client_nrf52840_xxAA_s140_6.0.0.dir/__/__/__/mesh/stack/src/mesh_stack.c.obj
 .text.mesh_stack_device_reset
                0x0000000000000000       0x20 CMakeFiles/pb_remote_client_nrf52840_xxAA_s140_6.0.0.dir/__/__/__/mesh/stack/src/mesh_stack.c.obj
 .data.s_evt_handler.11509
                0x0000000000000000        0x8 CMakeFiles/pb_remote_client_nrf52840_xxAA_s140_6.0.0.dir/__/__/__/mesh/stack/src/mesh_stack.c.obj
 .text          0x0000000000000000        0x0 CMakeFiles/pb_remote_client_nrf52840_xxAA_s140_6.0.0.dir/__/__/common/src/mesh_softdevice_init.c.obj
 .data          0x0000000000000000        0x0 CMakeFiles/pb_remote_client_nrf52840_xxAA_s140_6.0.0.dir/__/__/common/src/mesh_softdevice_init.c.obj
 .bss           0x0000000000000000        0x0 CMakeFiles/pb_remote_client_nrf52840_xxAA_s140_6.0.0.dir/__/__/common/src/mesh_softdevice_init.c.obj
 .text          0x0000000000000000        0x0 CMakeFiles/pb_remote_client_nrf52840_xxAA_s140_6.0.0.dir/__/__/common/src/rtt_input.c.obj
 .data          0x0000000000000000        0x0 CMakeFiles/pb_remote_client_nrf52840_xxAA_s140_6.0.0.dir/__/__/common/src/rtt_input.c.obj
 .bss           0x0000000000000000        0x0 CMakeFiles/pb_remote_client_nrf52840_xxAA_s140_6.0.0.dir/__/__/common/src/rtt_input.c.obj
 .text.rtt_input_disable
                0x0000000000000000       0x28 CMakeFiles/pb_remote_client_nrf52840_xxAA_s140_6.0.0.dir/__/__/common/src/rtt_input.c.obj
 .text          0x0000000000000000        0x0 CMakeFiles/pb_remote_client_nrf52840_xxAA_s140_6.0.0.dir/__/__/common/src/simple_hal.c.obj
 .data          0x0000000000000000        0x0 CMakeFiles/pb_remote_client_nrf52840_xxAA_s140_6.0.0.dir/__/__/common/src/simple_hal.c.obj
 .bss           0x0000000000000000        0x0 CMakeFiles/pb_remote_client_nrf52840_xxAA_s140_6.0.0.dir/__/__/common/src/simple_hal.c.obj
 .text.hal_led_pin_get
                0x0000000000000000       0x18 CMakeFiles/pb_remote_client_nrf52840_xxAA_s140_6.0.0.dir/__/__/common/src/simple_hal.c.obj
 .text.hal_led_pin_set
                0x0000000000000000       0x18 CMakeFiles/pb_remote_client_nrf52840_xxAA_s140_6.0.0.dir/__/__/common/src/simple_hal.c.obj
 .text.hal_leds_init
                0x0000000000000000       0x3c CMakeFiles/pb_remote_client_nrf52840_xxAA_s140_6.0.0.dir/__/__/common/src/simple_hal.c.obj
 .text.hal_buttons_init
                0x0000000000000000       0x54 CMakeFiles/pb_remote_client_nrf52840_xxAA_s140_6.0.0.dir/__/__/common/src/simple_hal.c.obj
 .text          0x0000000000000000        0x0 CMakeFiles/pb_remote_client_nrf52840_xxAA_s140_6.0.0.dir/__/__/__/models/pb_remote/src/pb_remote_client.c.obj
 .data          0x0000000000000000        0x0 CMakeFiles/pb_remote_client_nrf52840_xxAA_s140_6.0.0.dir/__/__/__/models/pb_remote/src/pb_remote_client.c.obj
 .bss           0x0000000000000000        0x0 CMakeFiles/pb_remote_client_nrf52840_xxAA_s140_6.0.0.dir/__/__/__/models/pb_remote/src/pb_remote_client.c.obj
 .text          0x0000000000000000        0x0 CMakeFiles/pb_remote_client_nrf52840_xxAA_s140_6.0.0.dir/__/__/__/mesh/prov/src/prov_provisioner.c.obj
 .data          0x0000000000000000        0x0 CMakeFiles/pb_remote_client_nrf52840_xxAA_s140_6.0.0.dir/__/__/__/mesh/prov/src/prov_provisioner.c.obj
 .bss           0x0000000000000000        0x0 CMakeFiles/pb_remote_client_nrf52840_xxAA_s140_6.0.0.dir/__/__/__/mesh/prov/src/prov_provisioner.c.obj
 .text.prov_provisioner_shared_secret
                0x0000000000000000       0xb8 CMakeFiles/pb_remote_client_nrf52840_xxAA_s140_6.0.0.dir/__/__/__/mesh/prov/src/prov_provisioner.c.obj
 .text.prov_provisioner_oob_pubkey
                0x0000000000000000       0x30 CMakeFiles/pb_remote_client_nrf52840_xxAA_s140_6.0.0.dir/__/__/__/mesh/prov/src/prov_provisioner.c.obj
 .text          0x0000000000000000        0x0 CMakeFiles/pb_remote_client_nrf52840_xxAA_s140_6.0.0.dir/__/__/__/mesh/prov/src/nrf_mesh_prov.c.obj
 .data          0x0000000000000000        0x0 CMakeFiles/pb_remote_client_nrf52840_xxAA_s140_6.0.0.dir/__/__/__/mesh/prov/src/nrf_mesh_prov.c.obj
 .bss           0x0000000000000000        0x0 CMakeFiles/pb_remote_client_nrf52840_xxAA_s140_6.0.0.dir/__/__/__/mesh/prov/src/nrf_mesh_prov.c.obj
 .text.nrf_mesh_prov_listen
                0x0000000000000000       0xf0 CMakeFiles/pb_remote_client_nrf52840_xxAA_s140_6.0.0.dir/__/__/__/mesh/prov/src/nrf_mesh_prov.c.obj
 .text.nrf_mesh_prov_listen_stop
                0x0000000000000000       0x30 CMakeFiles/pb_remote_client_nrf52840_xxAA_s140_6.0.0.dir/__/__/__/mesh/prov/src/nrf_mesh_prov.c.obj
 .text.nrf_mesh_prov_shared_secret_provide
                0x0000000000000000       0x10 CMakeFiles/pb_remote_client_nrf52840_xxAA_s140_6.0.0.dir/__/__/__/mesh/prov/src/nrf_mesh_prov.c.obj
 .text.nrf_mesh_prov_pubkey_provide
                0x0000000000000000       0x10 CMakeFiles/pb_remote_client_nrf52840_xxAA_s140_6.0.0.dir/__/__/__/mesh/prov/src/nrf_mesh_prov.c.obj
 .text.nrf_mesh_prov_scan_stop
                0x0000000000000000        0x4 CMakeFiles/pb_remote_client_nrf52840_xxAA_s140_6.0.0.dir/__/__/__/mesh/prov/src/nrf_mesh_prov.c.obj
 .rodata.multiply_de_bruijn_bit_position.9767
                0x0000000000000000       0x20 CMakeFiles/pb_remote_client_nrf52840_xxAA_s140_6.0.0.dir/__/__/__/mesh/prov/src/nrf_mesh_prov.c.obj
 .text          0x0000000000000000        0x0 CMakeFiles/pb_remote_client_nrf52840_xxAA_s140_6.0.0.dir/__/__/__/mesh/prov/src/provisioning.c.obj
 .data          0x0000000000000000        0x0 CMakeFiles/pb_remote_client_nrf52840_xxAA_s140_6.0.0.dir/__/__/__/mesh/prov/src/provisioning.c.obj
 .bss           0x0000000000000000        0x0 CMakeFiles/pb_remote_client_nrf52840_xxAA_s140_6.0.0.dir/__/__/__/mesh/prov/src/provisioning.c.obj
 .text.prov_tx_capabilities
                0x0000000000000000       0x38 CMakeFiles/pb_remote_client_nrf52840_xxAA_s140_6.0.0.dir/__/__/__/mesh/prov/src/provisioning.c.obj
 .text.prov_tx_input_complete
                0x0000000000000000       0x28 CMakeFiles/pb_remote_client_nrf52840_xxAA_s140_6.0.0.dir/__/__/__/mesh/prov/src/provisioning.c.obj
 .text.prov_tx_complete
                0x0000000000000000       0x28 CMakeFiles/pb_remote_client_nrf52840_xxAA_s140_6.0.0.dir/__/__/__/mesh/prov/src/provisioning.c.obj
 .text.prov_tx_failed
                0x0000000000000000       0x2c CMakeFiles/pb_remote_client_nrf52840_xxAA_s140_6.0.0.dir/__/__/__/mesh/prov/src/provisioning.c.obj
 .text.prov_tx  0x0000000000000000       0x3c CMakeFiles/pb_remote_client_nrf52840_xxAA_s140_6.0.0.dir/__/__/__/mesh/prov/src/provisioning.c.obj
 .text          0x0000000000000000        0x0 CMakeFiles/pb_remote_client_nrf52840_xxAA_s140_6.0.0.dir/__/__/__/mesh/prov/src/prov_beacon.c.obj
 .data          0x0000000000000000        0x0 CMakeFiles/pb_remote_client_nrf52840_xxAA_s140_6.0.0.dir/__/__/__/mesh/prov/src/prov_beacon.c.obj
 .bss           0x0000000000000000        0x0 CMakeFiles/pb_remote_client_nrf52840_xxAA_s140_6.0.0.dir/__/__/__/mesh/prov/src/prov_beacon.c.obj
 .text.prov_beacon_scan_stop
                0x0000000000000000        0xc CMakeFiles/pb_remote_client_nrf52840_xxAA_s140_6.0.0.dir/__/__/__/mesh/prov/src/prov_beacon.c.obj
 .text          0x0000000000000000        0x0 CMakeFiles/pb_remote_client_nrf52840_xxAA_s140_6.0.0.dir/__/__/__/mesh/prov/src/prov_utils.c.obj
 .data          0x0000000000000000        0x0 CMakeFiles/pb_remote_client_nrf52840_xxAA_s140_6.0.0.dir/__/__/__/mesh/prov/src/prov_utils.c.obj
 .bss           0x0000000000000000        0x0 CMakeFiles/pb_remote_client_nrf52840_xxAA_s140_6.0.0.dir/__/__/__/mesh/prov/src/prov_utils.c.obj
 .text          0x0000000000000000        0x0 CMakeFiles/pb_remote_client_nrf52840_xxAA_s140_6.0.0.dir/__/__/__/mesh/prov/src/prov_bearer_adv.c.obj
 .data          0x0000000000000000        0x0 CMakeFiles/pb_remote_client_nrf52840_xxAA_s140_6.0.0.dir/__/__/__/mesh/prov/src/prov_bearer_adv.c.obj
 .bss           0x0000000000000000        0x0 CMakeFiles/pb_remote_client_nrf52840_xxAA_s140_6.0.0.dir/__/__/__/mesh/prov/src/prov_bearer_adv.c.obj
 .text.calculate_3GPP_CRC
                0x0000000000000000       0x28 CMakeFiles/pb_remote_client_nrf52840_xxAA_s140_6.0.0.dir/__/__/__/mesh/prov/src/prov_bearer_adv.c.obj
 .text          0x0000000000000000        0x0 CMakeFiles/pb_remote_client_nrf52840_xxAA_s140_6.0.0.dir/__/__/__/models/config/src/composition_data.c.obj
 .data          0x0000000000000000        0x0 CMakeFiles/pb_remote_client_nrf52840_xxAA_s140_6.0.0.dir/__/__/__/models/config/src/composition_data.c.obj
 .bss           0x0000000000000000        0x0 CMakeFiles/pb_remote_client_nrf52840_xxAA_s140_6.0.0.dir/__/__/__/models/config/src/composition_data.c.obj
 .text          0x0000000000000000        0x0 CMakeFiles/pb_remote_client_nrf52840_xxAA_s140_6.0.0.dir/__/__/__/models/config/src/config_server.c.obj
 .data          0x0000000000000000        0x0 CMakeFiles/pb_remote_client_nrf52840_xxAA_s140_6.0.0.dir/__/__/__/models/config/src/config_server.c.obj
 .bss           0x0000000000000000        0x0 CMakeFiles/pb_remote_client_nrf52840_xxAA_s140_6.0.0.dir/__/__/__/models/config/src/config_server.c.obj
 .text.config_server_bind
                0x0000000000000000       0x10 CMakeFiles/pb_remote_client_nrf52840_xxAA_s140_6.0.0.dir/__/__/__/models/config/src/config_server.c.obj
 .text          0x0000000000000000        0x0 CMakeFiles/pb_remote_client_nrf52840_xxAA_s140_6.0.0.dir/__/__/__/models/config/src/packed_index_list.c.obj
 .data          0x0000000000000000        0x0 CMakeFiles/pb_remote_client_nrf52840_xxAA_s140_6.0.0.dir/__/__/__/models/config/src/packed_index_list.c.obj
 .bss           0x0000000000000000        0x0 CMakeFiles/pb_remote_client_nrf52840_xxAA_s140_6.0.0.dir/__/__/__/models/config/src/packed_index_list.c.obj
 .text          0x0000000000000000        0x0 CMakeFiles/pb_remote_client_nrf52840_xxAA_s140_6.0.0.dir/__/__/__/models/health/src/health_server.c.obj
 .data          0x0000000000000000        0x0 CMakeFiles/pb_remote_client_nrf52840_xxAA_s140_6.0.0.dir/__/__/__/models/health/src/health_server.c.obj
 .bss           0x0000000000000000        0x0 CMakeFiles/pb_remote_client_nrf52840_xxAA_s140_6.0.0.dir/__/__/__/models/health/src/health_server.c.obj
 .text.health_server_fault_register
                0x0000000000000000      0x23c CMakeFiles/pb_remote_client_nrf52840_xxAA_s140_6.0.0.dir/__/__/__/models/health/src/health_server.c.obj
 .text.health_server_fault_clear
                0x0000000000000000      0x2d8 CMakeFiles/pb_remote_client_nrf52840_xxAA_s140_6.0.0.dir/__/__/__/models/health/src/health_server.c.obj
 .text.health_server_fault_is_set
                0x0000000000000000       0x1c CMakeFiles/pb_remote_client_nrf52840_xxAA_s140_6.0.0.dir/__/__/__/models/health/src/health_server.c.obj
 .text.health_server_fault_count_get
                0x0000000000000000      0x14c CMakeFiles/pb_remote_client_nrf52840_xxAA_s140_6.0.0.dir/__/__/__/models/health/src/health_server.c.obj
 .text.health_server_attention_get
                0x0000000000000000        0x8 CMakeFiles/pb_remote_client_nrf52840_xxAA_s140_6.0.0.dir/__/__/__/models/health/src/health_server.c.obj
 .text.health_server_attention_set
                0x0000000000000000       0x90 CMakeFiles/pb_remote_client_nrf52840_xxAA_s140_6.0.0.dir/__/__/__/models/health/src/health_server.c.obj
 .text          0x0000000000000000        0x0 CMakeFiles/pb_remote_client_nrf52840_xxAA_s140_6.0.0.dir/__/__/__/mesh/access/src/access_publish.c.obj
 .data          0x0000000000000000        0x0 CMakeFiles/pb_remote_client_nrf52840_xxAA_s140_6.0.0.dir/__/__/__/mesh/access/src/access_publish.c.obj
 .bss           0x0000000000000000        0x0 CMakeFiles/pb_remote_client_nrf52840_xxAA_s140_6.0.0.dir/__/__/__/mesh/access/src/access_publish.c.obj
 .text          0x0000000000000000        0x0 CMakeFiles/pb_remote_client_nrf52840_xxAA_s140_6.0.0.dir/__/__/__/mesh/access/src/access.c.obj
 .data          0x0000000000000000        0x0 CMakeFiles/pb_remote_client_nrf52840_xxAA_s140_6.0.0.dir/__/__/__/mesh/access/src/access.c.obj
 .bss           0x0000000000000000        0x0 CMakeFiles/pb_remote_client_nrf52840_xxAA_s140_6.0.0.dir/__/__/__/mesh/access/src/access.c.obj
 .text.access_model_subscription_list_alloc
                0x0000000000000000       0x64 CMakeFiles/pb_remote_client_nrf52840_xxAA_s140_6.0.0.dir/__/__/__/mesh/access/src/access.c.obj
 .text.access_model_subscription_lists_share
                0x0000000000000000       0x68 CMakeFiles/pb_remote_client_nrf52840_xxAA_s140_6.0.0.dir/__/__/__/mesh/access/src/access.c.obj
 .text.access_element_location_set
                0x0000000000000000       0x20 CMakeFiles/pb_remote_client_nrf52840_xxAA_s140_6.0.0.dir/__/__/__/mesh/access/src/access.c.obj
 .text          0x0000000000000000        0x0 CMakeFiles/pb_remote_client_nrf52840_xxAA_s140_6.0.0.dir/__/__/__/mesh/access/src/access_reliable.c.obj
 .data          0x0000000000000000        0x0 CMakeFiles/pb_remote_client_nrf52840_xxAA_s140_6.0.0.dir/__/__/__/mesh/access/src/access_reliable.c.obj
 .bss           0x0000000000000000        0x0 CMakeFiles/pb_remote_client_nrf52840_xxAA_s140_6.0.0.dir/__/__/__/mesh/access/src/access_reliable.c.obj
 .text          0x0000000000000000        0x0 CMakeFiles/pb_remote_client_nrf52840_xxAA_s140_6.0.0.dir/__/__/__/mesh/access/src/device_state_manager.c.obj
 .data          0x0000000000000000        0x0 CMakeFiles/pb_remote_client_nrf52840_xxAA_s140_6.0.0.dir/__/__/__/mesh/access/src/device_state_manager.c.obj
 .bss           0x0000000000000000        0x0 CMakeFiles/pb_remote_client_nrf52840_xxAA_s140_6.0.0.dir/__/__/__/mesh/access/src/device_state_manager.c.obj
 .text.dsm_has_unflashed_data
                0x0000000000000000       0x58 CMakeFiles/pb_remote_client_nrf52840_xxAA_s140_6.0.0.dir/__/__/__/mesh/access/src/device_state_manager.c.obj
 .text.dsm_address_subscription_count_get
                0x0000000000000000       0x74 CMakeFiles/pb_remote_client_nrf52840_xxAA_s140_6.0.0.dir/__/__/__/mesh/access/src/device_state_manager.c.obj
 .text.dsm_address_get_all
                0x0000000000000000       0x94 CMakeFiles/pb_remote_client_nrf52840_xxAA_s140_6.0.0.dir/__/__/__/mesh/access/src/device_state_manager.c.obj
 .text.dsm_subnet_handle_to_netkey_index
                0x0000000000000000       0x24 CMakeFiles/pb_remote_client_nrf52840_xxAA_s140_6.0.0.dir/__/__/__/mesh/access/src/device_state_manager.c.obj
 .text.dsm_devkey_delete
                0x0000000000000000       0x7c CMakeFiles/pb_remote_client_nrf52840_xxAA_s140_6.0.0.dir/__/__/__/mesh/access/src/device_state_manager.c.obj
 .text.dsm_devkey_handle_get
                0x0000000000000000       0x84 CMakeFiles/pb_remote_client_nrf52840_xxAA_s140_6.0.0.dir/__/__/__/mesh/access/src/device_state_manager.c.obj
 .text.dsm_beacon_info_get
                0x0000000000000000       0x24 CMakeFiles/pb_remote_client_nrf52840_xxAA_s140_6.0.0.dir/__/__/__/mesh/access/src/device_state_manager.c.obj
 .text          0x0000000000000000        0x0 CMakeFiles/pb_remote_client_nrf52840_xxAA_s140_6.0.0.dir/__/__/nrf_mesh_weak.c.obj
 .data          0x0000000000000000        0x0 CMakeFiles/pb_remote_client_nrf52840_xxAA_s140_6.0.0.dir/__/__/nrf_mesh_weak.c.obj
 .bss           0x0000000000000000        0x0 CMakeFiles/pb_remote_client_nrf52840_xxAA_s140_6.0.0.dir/__/__/nrf_mesh_weak.c.obj
 .text._weak_handler_ptr
                0x0000000000000000        0x4 CMakeFiles/pb_remote_client_nrf52840_xxAA_s140_6.0.0.dir/__/__/nrf_mesh_weak.c.obj
 .text          0x0000000000000000        0x0 CMakeFiles/pb_remote_client_nrf52840_xxAA_s140_6.0.0.dir/__/__/common/src/app_error_weak.c.obj
 .data          0x0000000000000000        0x0 CMakeFiles/pb_remote_client_nrf52840_xxAA_s140_6.0.0.dir/__/__/common/src/app_error_weak.c.obj
 .bss           0x0000000000000000        0x0 CMakeFiles/pb_remote_client_nrf52840_xxAA_s140_6.0.0.dir/__/__/common/src/app_error_weak.c.obj
 .text          0x0000000000000000        0x0 CMakeFiles/pb_remote_client_nrf52840_xxAA_s140_6.0.0.dir/__/__/common/src/assertion_handler_weak.c.obj
 .data          0x0000000000000000        0x0 CMakeFiles/pb_remote_client_nrf52840_xxAA_s140_6.0.0.dir/__/__/common/src/assertion_handler_weak.c.obj
 .bss           0x0000000000000000        0x0 CMakeFiles/pb_remote_client_nrf52840_xxAA_s140_6.0.0.dir/__/__/common/src/assertion_handler_weak.c.obj
 .text          0x0000000000000000        0x0 CMakeFiles/pb_remote_client_nrf52840_xxAA_s140_6.0.0.dir/__/__/__/mesh/core/src/internal_event.c.obj
 .data          0x0000000000000000        0x0 CMakeFiles/pb_remote_client_nrf52840_xxAA_s140_6.0.0.dir/__/__/__/mesh/core/src/internal_event.c.obj
 .bss           0x0000000000000000        0x0 CMakeFiles/pb_remote_client_nrf52840_xxAA_s140_6.0.0.dir/__/__/__/mesh/core/src/internal_event.c.obj
 .debug_info    0x0000000000000000      0x8eb CMakeFiles/pb_remote_client_nrf52840_xxAA_s140_6.0.0.dir/__/__/__/mesh/core/src/internal_event.c.obj
 .debug_abbrev  0x0000000000000000      0x192 CMakeFiles/pb_remote_client_nrf52840_xxAA_s140_6.0.0.dir/__/__/__/mesh/core/src/internal_event.c.obj
 .debug_aranges
                0x0000000000000000       0x18 CMakeFiles/pb_remote_client_nrf52840_xxAA_s140_6.0.0.dir/__/__/__/mesh/core/src/internal_event.c.obj
 .debug_line    0x0000000000000000      0x1dc CMakeFiles/pb_remote_client_nrf52840_xxAA_s140_6.0.0.dir/__/__/__/mesh/core/src/internal_event.c.obj
 .debug_str     0x0000000000000000      0x66f CMakeFiles/pb_remote_client_nrf52840_xxAA_s140_6.0.0.dir/__/__/__/mesh/core/src/internal_event.c.obj
 .comment       0x0000000000000000       0x7f CMakeFiles/pb_remote_client_nrf52840_xxAA_s140_6.0.0.dir/__/__/__/mesh/core/src/internal_event.c.obj
 .ARM.attributes
                0x0000000000000000       0x39 CMakeFiles/pb_remote_client_nrf52840_xxAA_s140_6.0.0.dir/__/__/__/mesh/core/src/internal_event.c.obj
 .text          0x0000000000000000        0x0 CMakeFiles/pb_remote_client_nrf52840_xxAA_s140_6.0.0.dir/__/__/__/mesh/core/src/nrf_mesh_configure.c.obj
 .data          0x0000000000000000        0x0 CMakeFiles/pb_remote_client_nrf52840_xxAA_s140_6.0.0.dir/__/__/__/mesh/core/src/nrf_mesh_configure.c.obj
 .bss           0x0000000000000000        0x0 CMakeFiles/pb_remote_client_nrf52840_xxAA_s140_6.0.0.dir/__/__/__/mesh/core/src/nrf_mesh_configure.c.obj
 .text          0x0000000000000000        0x0 CMakeFiles/pb_remote_client_nrf52840_xxAA_s140_6.0.0.dir/__/__/__/mesh/core/src/aes.c.obj
 .data          0x0000000000000000        0x0 CMakeFiles/pb_remote_client_nrf52840_xxAA_s140_6.0.0.dir/__/__/__/mesh/core/src/aes.c.obj
 .bss           0x0000000000000000        0x0 CMakeFiles/pb_remote_client_nrf52840_xxAA_s140_6.0.0.dir/__/__/__/mesh/core/src/aes.c.obj
 .text          0x0000000000000000        0x0 CMakeFiles/pb_remote_client_nrf52840_xxAA_s140_6.0.0.dir/__/__/__/mesh/core/src/msg_cache.c.obj
 .data          0x0000000000000000        0x0 CMakeFiles/pb_remote_client_nrf52840_xxAA_s140_6.0.0.dir/__/__/__/mesh/core/src/msg_cache.c.obj
 .bss           0x0000000000000000        0x0 CMakeFiles/pb_remote_client_nrf52840_xxAA_s140_6.0.0.dir/__/__/__/mesh/core/src/msg_cache.c.obj
 .text.msg_cache_clear
                0x0000000000000000       0x18 CMakeFiles/pb_remote_client_nrf52840_xxAA_s140_6.0.0.dir/__/__/__/mesh/core/src/msg_cache.c.obj
 .text          0x0000000000000000        0x0 CMakeFiles/pb_remote_client_nrf52840_xxAA_s140_6.0.0.dir/__/__/__/mesh/core/src/transport.c.obj
 .data          0x0000000000000000        0x0 CMakeFiles/pb_remote_client_nrf52840_xxAA_s140_6.0.0.dir/__/__/__/mesh/core/src/transport.c.obj
 .bss           0x0000000000000000        0x0 CMakeFiles/pb_remote_client_nrf52840_xxAA_s140_6.0.0.dir/__/__/__/mesh/core/src/transport.c.obj
 .text.transport_sar_mem_funcs_set
                0x0000000000000000       0x64 CMakeFiles/pb_remote_client_nrf52840_xxAA_s140_6.0.0.dir/__/__/__/mesh/core/src/transport.c.obj
 .text.transport_sar_mem_funcs_reset
                0x0000000000000000       0x30 CMakeFiles/pb_remote_client_nrf52840_xxAA_s140_6.0.0.dir/__/__/__/mesh/core/src/transport.c.obj
 .text          0x0000000000000000        0x0 CMakeFiles/pb_remote_client_nrf52840_xxAA_s140_6.0.0.dir/__/__/__/mesh/core/src/event.c.obj
 .data          0x0000000000000000        0x0 CMakeFiles/pb_remote_client_nrf52840_xxAA_s140_6.0.0.dir/__/__/__/mesh/core/src/event.c.obj
 .bss           0x0000000000000000        0x0 CMakeFiles/pb_remote_client_nrf52840_xxAA_s140_6.0.0.dir/__/__/__/mesh/core/src/event.c.obj
 .text          0x0000000000000000        0x0 CMakeFiles/pb_remote_client_nrf52840_xxAA_s140_6.0.0.dir/__/__/__/mesh/core/src/packet_buffer.c.obj
 .data          0x0000000000000000        0x0 CMakeFiles/pb_remote_client_nrf52840_xxAA_s140_6.0.0.dir/__/__/__/mesh/core/src/packet_buffer.c.obj
 .bss           0x0000000000000000        0x0 CMakeFiles/pb_remote_client_nrf52840_xxAA_s140_6.0.0.dir/__/__/__/mesh/core/src/packet_buffer.c.obj
 .text.packet_buffer_max_packet_len_get
                0x0000000000000000       0x24 CMakeFiles/pb_remote_client_nrf52840_xxAA_s140_6.0.0.dir/__/__/__/mesh/core/src/packet_buffer.c.obj
 .text          0x0000000000000000        0x0 CMakeFiles/pb_remote_client_nrf52840_xxAA_s140_6.0.0.dir/__/__/__/mesh/core/src/flash_manager_defrag.c.obj
 .data          0x0000000000000000        0x0 CMakeFiles/pb_remote_client_nrf52840_xxAA_s140_6.0.0.dir/__/__/__/mesh/core/src/flash_manager_defrag.c.obj
 .bss           0x0000000000000000        0x0 CMakeFiles/pb_remote_client_nrf52840_xxAA_s140_6.0.0.dir/__/__/__/mesh/core/src/flash_manager_defrag.c.obj
 .text.flash_manager_defragging
                0x0000000000000000       0x44 CMakeFiles/pb_remote_client_nrf52840_xxAA_s140_6.0.0.dir/__/__/__/mesh/core/src/flash_manager_defrag.c.obj
 .text          0x0000000000000000        0x0 CMakeFiles/pb_remote_client_nrf52840_xxAA_s140_6.0.0.dir/__/__/__/mesh/core/src/fifo.c.obj
 .data          0x0000000000000000        0x0 CMakeFiles/pb_remote_client_nrf52840_xxAA_s140_6.0.0.dir/__/__/__/mesh/core/src/fifo.c.obj
 .bss           0x0000000000000000        0x0 CMakeFiles/pb_remote_client_nrf52840_xxAA_s140_6.0.0.dir/__/__/__/mesh/core/src/fifo.c.obj
 .text.fifo_peek_at
                0x0000000000000000       0x58 CMakeFiles/pb_remote_client_nrf52840_xxAA_s140_6.0.0.dir/__/__/__/mesh/core/src/fifo.c.obj
 .text.fifo_peek
                0x0000000000000000       0x54 CMakeFiles/pb_remote_client_nrf52840_xxAA_s140_6.0.0.dir/__/__/__/mesh/core/src/fifo.c.obj
 .text.fifo_flush
                0x0000000000000000        0x8 CMakeFiles/pb_remote_client_nrf52840_xxAA_s140_6.0.0.dir/__/__/__/mesh/core/src/fifo.c.obj
 .text.fifo_get_len
                0x0000000000000000        0x8 CMakeFiles/pb_remote_client_nrf52840_xxAA_s140_6.0.0.dir/__/__/__/mesh/core/src/fifo.c.obj
 .text.fifo_is_full
                0x0000000000000000       0x14 CMakeFiles/pb_remote_client_nrf52840_xxAA_s140_6.0.0.dir/__/__/__/mesh/core/src/fifo.c.obj
 .text.fifo_is_empty
                0x0000000000000000       0x10 CMakeFiles/pb_remote_client_nrf52840_xxAA_s140_6.0.0.dir/__/__/__/mesh/core/src/fifo.c.obj
 .text          0x0000000000000000        0x0 CMakeFiles/pb_remote_client_nrf52840_xxAA_s140_6.0.0.dir/__/__/__/mesh/core/src/nrf_flash.c.obj
 .data          0x0000000000000000        0x0 CMakeFiles/pb_remote_client_nrf52840_xxAA_s140_6.0.0.dir/__/__/__/mesh/core/src/nrf_flash.c.obj
 .bss           0x0000000000000000        0x0 CMakeFiles/pb_remote_client_nrf52840_xxAA_s140_6.0.0.dir/__/__/__/mesh/core/src/nrf_flash.c.obj
 .text          0x0000000000000000        0x0 CMakeFiles/pb_remote_client_nrf52840_xxAA_s140_6.0.0.dir/__/__/__/mesh/core/src/packet_mgr.c.obj
 .data          0x0000000000000000        0x0 CMakeFiles/pb_remote_client_nrf52840_xxAA_s140_6.0.0.dir/__/__/__/mesh/core/src/packet_mgr.c.obj
 .bss           0x0000000000000000        0x0 CMakeFiles/pb_remote_client_nrf52840_xxAA_s140_6.0.0.dir/__/__/__/mesh/core/src/packet_mgr.c.obj
 .text.packet_mgr_alloc
                0x0000000000000000      0x1a4 CMakeFiles/pb_remote_client_nrf52840_xxAA_s140_6.0.0.dir/__/__/__/mesh/core/src/packet_mgr.c.obj
 .text.packet_mgr_free
                0x0000000000000000       0x5c CMakeFiles/pb_remote_client_nrf52840_xxAA_s140_6.0.0.dir/__/__/__/mesh/core/src/packet_mgr.c.obj
 .text.packet_mgr_get_free_space
                0x0000000000000000       0x1c CMakeFiles/pb_remote_client_nrf52840_xxAA_s140_6.0.0.dir/__/__/__/mesh/core/src/packet_mgr.c.obj
 .text.packet_mgr_refcount_get
                0x0000000000000000        0x8 CMakeFiles/pb_remote_client_nrf52840_xxAA_s140_6.0.0.dir/__/__/__/mesh/core/src/packet_mgr.c.obj
 .text.packet_mgr_size_get
                0x0000000000000000        0x8 CMakeFiles/pb_remote_client_nrf52840_xxAA_s140_6.0.0.dir/__/__/__/mesh/core/src/packet_mgr.c.obj
 .text          0x0000000000000000        0x0 CMakeFiles/pb_remote_client_nrf52840_xxAA_s140_6.0.0.dir/__/__/__/mesh/core/src/net_state.c.obj
 .data          0x0000000000000000        0x0 CMakeFiles/pb_remote_client_nrf52840_xxAA_s140_6.0.0.dir/__/__/__/mesh/core/src/net_state.c.obj
 .bss           0x0000000000000000        0x0 CMakeFiles/pb_remote_client_nrf52840_xxAA_s140_6.0.0.dir/__/__/__/mesh/core/src/net_state.c.obj
 .text.net_state_iv_update_start
                0x0000000000000000       0x94 CMakeFiles/pb_remote_client_nrf52840_xxAA_s140_6.0.0.dir/__/__/__/mesh/core/src/net_state.c.obj
 .text.net_state_iv_update_test_mode_set
                0x0000000000000000        0xc CMakeFiles/pb_remote_client_nrf52840_xxAA_s140_6.0.0.dir/__/__/__/mesh/core/src/net_state.c.obj
 .text.net_state_test_mode_transition_run
                0x0000000000000000      0x170 CMakeFiles/pb_remote_client_nrf52840_xxAA_s140_6.0.0.dir/__/__/__/mesh/core/src/net_state.c.obj
 .text.net_state_iv_index_set
                0x0000000000000000       0x88 CMakeFiles/pb_remote_client_nrf52840_xxAA_s140_6.0.0.dir/__/__/__/mesh/core/src/net_state.c.obj
 .bss.iv_state_set.10350
                0x0000000000000000        0x1 CMakeFiles/pb_remote_client_nrf52840_xxAA_s140_6.0.0.dir/__/__/__/mesh/core/src/net_state.c.obj
 .text          0x0000000000000000        0x0 CMakeFiles/pb_remote_client_nrf52840_xxAA_s140_6.0.0.dir/__/__/__/mesh/core/src/mesh_flash.c.obj
 .data          0x0000000000000000        0x0 CMakeFiles/pb_remote_client_nrf52840_xxAA_s140_6.0.0.dir/__/__/__/mesh/core/src/mesh_flash.c.obj
 .bss           0x0000000000000000        0x0 CMakeFiles/pb_remote_client_nrf52840_xxAA_s140_6.0.0.dir/__/__/__/mesh/core/src/mesh_flash.c.obj
 .text.mesh_flash_op_available_slots
                0x0000000000000000       0x2c CMakeFiles/pb_remote_client_nrf52840_xxAA_s140_6.0.0.dir/__/__/__/mesh/core/src/mesh_flash.c.obj
 .text.mesh_flash_in_progress
                0x0000000000000000       0x34 CMakeFiles/pb_remote_client_nrf52840_xxAA_s140_6.0.0.dir/__/__/__/mesh/core/src/mesh_flash.c.obj
 .text.mesh_flash_set_suspended
                0x0000000000000000      0x21c CMakeFiles/pb_remote_client_nrf52840_xxAA_s140_6.0.0.dir/__/__/__/mesh/core/src/mesh_flash.c.obj
 .bss.suspend_count.10577
                0x0000000000000000        0x4 CMakeFiles/pb_remote_client_nrf52840_xxAA_s140_6.0.0.dir/__/__/__/mesh/core/src/mesh_flash.c.obj
 .text          0x0000000000000000        0x0 CMakeFiles/pb_remote_client_nrf52840_xxAA_s140_6.0.0.dir/__/__/__/mesh/core/src/nrf_mesh_utils.c.obj
 .data          0x0000000000000000        0x0 CMakeFiles/pb_remote_client_nrf52840_xxAA_s140_6.0.0.dir/__/__/__/mesh/core/src/nrf_mesh_utils.c.obj
 .bss           0x0000000000000000        0x0 CMakeFiles/pb_remote_client_nrf52840_xxAA_s140_6.0.0.dir/__/__/__/mesh/core/src/nrf_mesh_utils.c.obj
 .text.nrf_mesh_rand_get
                0x0000000000000000       0x10 CMakeFiles/pb_remote_client_nrf52840_xxAA_s140_6.0.0.dir/__/__/__/mesh/core/src/nrf_mesh_utils.c.obj
 .text.nrf_mesh_gap_address_type_get
                0x0000000000000000       0x34 CMakeFiles/pb_remote_client_nrf52840_xxAA_s140_6.0.0.dir/__/__/__/mesh/core/src/nrf_mesh_utils.c.obj
 .text          0x0000000000000000        0x0 CMakeFiles/pb_remote_client_nrf52840_xxAA_s140_6.0.0.dir/__/__/__/mesh/core/src/nrf_mesh.c.obj
 .data          0x0000000000000000        0x0 CMakeFiles/pb_remote_client_nrf52840_xxAA_s140_6.0.0.dir/__/__/__/mesh/core/src/nrf_mesh.c.obj
 .bss           0x0000000000000000        0x0 CMakeFiles/pb_remote_client_nrf52840_xxAA_s140_6.0.0.dir/__/__/__/mesh/core/src/nrf_mesh.c.obj
 .text.nrf_mesh_disable
                0x0000000000000000       0x30 CMakeFiles/pb_remote_client_nrf52840_xxAA_s140_6.0.0.dir/__/__/__/mesh/core/src/nrf_mesh.c.obj
 .text.nrf_mesh_process
                0x0000000000000000        0x4 CMakeFiles/pb_remote_client_nrf52840_xxAA_s140_6.0.0.dir/__/__/__/mesh/core/src/nrf_mesh.c.obj
 .text.nrf_mesh_evt_handler_remove
                0x0000000000000000        0x4 CMakeFiles/pb_remote_client_nrf52840_xxAA_s140_6.0.0.dir/__/__/__/mesh/core/src/nrf_mesh.c.obj
 .text.nrf_mesh_rx_cb_set
                0x0000000000000000        0xc CMakeFiles/pb_remote_client_nrf52840_xxAA_s140_6.0.0.dir/__/__/__/mesh/core/src/nrf_mesh.c.obj
 .text.nrf_mesh_rx_cb_clear
                0x0000000000000000        0xc CMakeFiles/pb_remote_client_nrf52840_xxAA_s140_6.0.0.dir/__/__/__/mesh/core/src/nrf_mesh.c.obj
 .text          0x0000000000000000        0x0 CMakeFiles/pb_remote_client_nrf52840_xxAA_s140_6.0.0.dir/__/__/__/mesh/core/src/queue.c.obj
 .data          0x0000000000000000        0x0 CMakeFiles/pb_remote_client_nrf52840_xxAA_s140_6.0.0.dir/__/__/__/mesh/core/src/queue.c.obj
 .bss           0x0000000000000000        0x0 CMakeFiles/pb_remote_client_nrf52840_xxAA_s140_6.0.0.dir/__/__/__/mesh/core/src/queue.c.obj
 .text          0x0000000000000000        0x0 CMakeFiles/pb_remote_client_nrf52840_xxAA_s140_6.0.0.dir/__/__/__/mesh/core/src/hal.c.obj
 .data          0x0000000000000000        0x0 CMakeFiles/pb_remote_client_nrf52840_xxAA_s140_6.0.0.dir/__/__/__/mesh/core/src/hal.c.obj
 .bss           0x0000000000000000        0x0 CMakeFiles/pb_remote_client_nrf52840_xxAA_s140_6.0.0.dir/__/__/__/mesh/core/src/hal.c.obj
 .text.sd_power_reset_reason_clr
                0x0000000000000000        0x4 CMakeFiles/pb_remote_client_nrf52840_xxAA_s140_6.0.0.dir/__/__/__/mesh/core/src/hal.c.obj
 .text.hal_device_reset
                0x0000000000000000       0x2c CMakeFiles/pb_remote_client_nrf52840_xxAA_s140_6.0.0.dir/__/__/__/mesh/core/src/hal.c.obj
 .text          0x0000000000000000        0x0 CMakeFiles/pb_remote_client_nrf52840_xxAA_s140_6.0.0.dir/__/__/__/mesh/core/src/aes_cmac.c.obj
 .data          0x0000000000000000        0x0 CMakeFiles/pb_remote_client_nrf52840_xxAA_s140_6.0.0.dir/__/__/__/mesh/core/src/aes_cmac.c.obj
 .bss           0x0000000000000000        0x0 CMakeFiles/pb_remote_client_nrf52840_xxAA_s140_6.0.0.dir/__/__/__/mesh/core/src/aes_cmac.c.obj
 .text          0x0000000000000000        0x0 CMakeFiles/pb_remote_client_nrf52840_xxAA_s140_6.0.0.dir/__/__/__/mesh/core/src/timer_scheduler.c.obj
 .data          0x0000000000000000        0x0 CMakeFiles/pb_remote_client_nrf52840_xxAA_s140_6.0.0.dir/__/__/__/mesh/core/src/timer_scheduler.c.obj
 .bss           0x0000000000000000        0x0 CMakeFiles/pb_remote_client_nrf52840_xxAA_s140_6.0.0.dir/__/__/__/mesh/core/src/timer_scheduler.c.obj
 .text          0x0000000000000000        0x0 CMakeFiles/pb_remote_client_nrf52840_xxAA_s140_6.0.0.dir/__/__/__/mesh/core/src/timer.c.obj
 .data          0x0000000000000000        0x0 CMakeFiles/pb_remote_client_nrf52840_xxAA_s140_6.0.0.dir/__/__/__/mesh/core/src/timer.c.obj
 .bss           0x0000000000000000        0x0 CMakeFiles/pb_remote_client_nrf52840_xxAA_s140_6.0.0.dir/__/__/__/mesh/core/src/timer.c.obj
 .text.timer_order_cb_ppi
                0x0000000000000000       0xd8 CMakeFiles/pb_remote_client_nrf52840_xxAA_s140_6.0.0.dir/__/__/__/mesh/core/src/timer.c.obj
 .text.timer_order_ppi
                0x0000000000000000       0xcc CMakeFiles/pb_remote_client_nrf52840_xxAA_s140_6.0.0.dir/__/__/__/mesh/core/src/timer.c.obj
 .text.timer_abort
                0x0000000000000000       0x84 CMakeFiles/pb_remote_client_nrf52840_xxAA_s140_6.0.0.dir/__/__/__/mesh/core/src/timer.c.obj
 .text          0x0000000000000000        0x0 CMakeFiles/pb_remote_client_nrf52840_xxAA_s140_6.0.0.dir/__/__/__/mesh/core/src/ticker.c.obj
 .data          0x0000000000000000        0x0 CMakeFiles/pb_remote_client_nrf52840_xxAA_s140_6.0.0.dir/__/__/__/mesh/core/src/ticker.c.obj
 .bss           0x0000000000000000        0x0 CMakeFiles/pb_remote_client_nrf52840_xxAA_s140_6.0.0.dir/__/__/__/mesh/core/src/ticker.c.obj
 .text.ticker_get
                0x0000000000000000        0xc CMakeFiles/pb_remote_client_nrf52840_xxAA_s140_6.0.0.dir/__/__/__/mesh/core/src/ticker.c.obj
 .text          0x0000000000000000        0x0 CMakeFiles/pb_remote_client_nrf52840_xxAA_s140_6.0.0.dir/__/__/__/mesh/core/src/rand.c.obj
 .data          0x0000000000000000        0x0 CMakeFiles/pb_remote_client_nrf52840_xxAA_s140_6.0.0.dir/__/__/__/mesh/core/src/rand.c.obj
 .bss           0x0000000000000000        0x0 CMakeFiles/pb_remote_client_nrf52840_xxAA_s140_6.0.0.dir/__/__/__/mesh/core/src/rand.c.obj
 .text          0x0000000000000000        0x0 CMakeFiles/pb_remote_client_nrf52840_xxAA_s140_6.0.0.dir/__/__/__/mesh/core/src/nrf_mesh_opt.c.obj
 .data          0x0000000000000000        0x0 CMakeFiles/pb_remote_client_nrf52840_xxAA_s140_6.0.0.dir/__/__/__/mesh/core/src/nrf_mesh_opt.c.obj
 .bss           0x0000000000000000        0x0 CMakeFiles/pb_remote_client_nrf52840_xxAA_s140_6.0.0.dir/__/__/__/mesh/core/src/nrf_mesh_opt.c.obj
 .text          0x0000000000000000        0x0 CMakeFiles/pb_remote_client_nrf52840_xxAA_s140_6.0.0.dir/__/__/__/mesh/core/src/timeslot.c.obj
 .data          0x0000000000000000        0x0 CMakeFiles/pb_remote_client_nrf52840_xxAA_s140_6.0.0.dir/__/__/__/mesh/core/src/timeslot.c.obj
 .bss           0x0000000000000000        0x0 CMakeFiles/pb_remote_client_nrf52840_xxAA_s140_6.0.0.dir/__/__/__/mesh/core/src/timeslot.c.obj
 .text.timeslot_restart
                0x0000000000000000       0x30 CMakeFiles/pb_remote_client_nrf52840_xxAA_s140_6.0.0.dir/__/__/__/mesh/core/src/timeslot.c.obj
 .text.timeslot_end_time_get
                0x0000000000000000       0x30 CMakeFiles/pb_remote_client_nrf52840_xxAA_s140_6.0.0.dir/__/__/__/mesh/core/src/timeslot.c.obj
 .text.timeslot_is_in_ts
                0x0000000000000000        0xc CMakeFiles/pb_remote_client_nrf52840_xxAA_s140_6.0.0.dir/__/__/__/mesh/core/src/timeslot.c.obj
 .text          0x0000000000000000        0x0 CMakeFiles/pb_remote_client_nrf52840_xxAA_s140_6.0.0.dir/__/__/__/mesh/core/src/bearer_event.c.obj
 .data          0x0000000000000000        0x0 CMakeFiles/pb_remote_client_nrf52840_xxAA_s140_6.0.0.dir/__/__/__/mesh/core/src/bearer_event.c.obj
 .bss           0x0000000000000000        0x0 CMakeFiles/pb_remote_client_nrf52840_xxAA_s140_6.0.0.dir/__/__/__/mesh/core/src/bearer_event.c.obj
 .text.bearer_event_generic_post
                0x0000000000000000       0x50 CMakeFiles/pb_remote_client_nrf52840_xxAA_s140_6.0.0.dir/__/__/__/mesh/core/src/bearer_event.c.obj
 .text.bearer_event_timer_sch_post
                0x0000000000000000       0x54 CMakeFiles/pb_remote_client_nrf52840_xxAA_s140_6.0.0.dir/__/__/__/mesh/core/src/bearer_event.c.obj
 .text.bearer_event_in_correct_irq_priority
                0x0000000000000000       0x58 CMakeFiles/pb_remote_client_nrf52840_xxAA_s140_6.0.0.dir/__/__/__/mesh/core/src/bearer_event.c.obj
 .text          0x0000000000000000        0x0 CMakeFiles/pb_remote_client_nrf52840_xxAA_s140_6.0.0.dir/__/__/__/mesh/core/src/enc.c.obj
 .data          0x0000000000000000        0x0 CMakeFiles/pb_remote_client_nrf52840_xxAA_s140_6.0.0.dir/__/__/__/mesh/core/src/enc.c.obj
 .bss           0x0000000000000000        0x0 CMakeFiles/pb_remote_client_nrf52840_xxAA_s140_6.0.0.dir/__/__/__/mesh/core/src/enc.c.obj
 .text.enc_key_generate
                0x0000000000000000        0x8 CMakeFiles/pb_remote_client_nrf52840_xxAA_s140_6.0.0.dir/__/__/__/mesh/core/src/enc.c.obj
 .text          0x0000000000000000        0x0 CMakeFiles/pb_remote_client_nrf52840_xxAA_s140_6.0.0.dir/__/__/__/mesh/core/src/network.c.obj
 .data          0x0000000000000000        0x0 CMakeFiles/pb_remote_client_nrf52840_xxAA_s140_6.0.0.dir/__/__/__/mesh/core/src/network.c.obj
 .bss           0x0000000000000000        0x0 CMakeFiles/pb_remote_client_nrf52840_xxAA_s140_6.0.0.dir/__/__/__/mesh/core/src/network.c.obj
 .text.network_packet_discard
                0x0000000000000000       0x28 CMakeFiles/pb_remote_client_nrf52840_xxAA_s140_6.0.0.dir/__/__/__/mesh/core/src/network.c.obj
 .text          0x0000000000000000        0x0 CMakeFiles/pb_remote_client_nrf52840_xxAA_s140_6.0.0.dir/__/__/__/mesh/core/src/net_packet.c.obj
 .data          0x0000000000000000        0x0 CMakeFiles/pb_remote_client_nrf52840_xxAA_s140_6.0.0.dir/__/__/__/mesh/core/src/net_packet.c.obj
 .bss           0x0000000000000000        0x0 CMakeFiles/pb_remote_client_nrf52840_xxAA_s140_6.0.0.dir/__/__/__/mesh/core/src/net_packet.c.obj
 .text.net_packet_enc_start_get
                0x0000000000000000        0x4 CMakeFiles/pb_remote_client_nrf52840_xxAA_s140_6.0.0.dir/__/__/__/mesh/core/src/net_packet.c.obj
 .text.net_packet_payload_get
                0x0000000000000000        0x4 CMakeFiles/pb_remote_client_nrf52840_xxAA_s140_6.0.0.dir/__/__/__/mesh/core/src/net_packet.c.obj
 .text          0x0000000000000000        0x0 CMakeFiles/pb_remote_client_nrf52840_xxAA_s140_6.0.0.dir/__/__/__/mesh/core/src/msqueue.c.obj
 .data          0x0000000000000000        0x0 CMakeFiles/pb_remote_client_nrf52840_xxAA_s140_6.0.0.dir/__/__/__/mesh/core/src/msqueue.c.obj
 .bss           0x0000000000000000        0x0 CMakeFiles/pb_remote_client_nrf52840_xxAA_s140_6.0.0.dir/__/__/__/mesh/core/src/msqueue.c.obj
 .text.msq_reset
                0x0000000000000000       0x24 CMakeFiles/pb_remote_client_nrf52840_xxAA_s140_6.0.0.dir/__/__/__/mesh/core/src/msqueue.c.obj
 .text          0x0000000000000000        0x0 CMakeFiles/pb_remote_client_nrf52840_xxAA_s140_6.0.0.dir/__/__/__/mesh/core/src/nrf_mesh_keygen.c.obj
 .data          0x0000000000000000        0x0 CMakeFiles/pb_remote_client_nrf52840_xxAA_s140_6.0.0.dir/__/__/__/mesh/core/src/nrf_mesh_keygen.c.obj
 .bss           0x0000000000000000        0x0 CMakeFiles/pb_remote_client_nrf52840_xxAA_s140_6.0.0.dir/__/__/__/mesh/core/src/nrf_mesh_keygen.c.obj
 .text.nrf_mesh_keygen_identitykey
                0x0000000000000000       0x4c CMakeFiles/pb_remote_client_nrf52840_xxAA_s140_6.0.0.dir/__/__/__/mesh/core/src/nrf_mesh_keygen.c.obj
 .text          0x0000000000000000        0x0 CMakeFiles/pb_remote_client_nrf52840_xxAA_s140_6.0.0.dir/__/__/__/mesh/core/src/cache.c.obj
 .data          0x0000000000000000        0x0 CMakeFiles/pb_remote_client_nrf52840_xxAA_s140_6.0.0.dir/__/__/__/mesh/core/src/cache.c.obj
 .bss           0x0000000000000000        0x0 CMakeFiles/pb_remote_client_nrf52840_xxAA_s140_6.0.0.dir/__/__/__/mesh/core/src/cache.c.obj
 .text.cache_init
                0x0000000000000000       0x40 CMakeFiles/pb_remote_client_nrf52840_xxAA_s140_6.0.0.dir/__/__/__/mesh/core/src/cache.c.obj
 .text.cache_has_elem
                0x0000000000000000       0x54 CMakeFiles/pb_remote_client_nrf52840_xxAA_s140_6.0.0.dir/__/__/__/mesh/core/src/cache.c.obj
 .text.cache_put
                0x0000000000000000       0x2c CMakeFiles/pb_remote_client_nrf52840_xxAA_s140_6.0.0.dir/__/__/__/mesh/core/src/cache.c.obj
 .text.cache_erase_elem
                0x0000000000000000       0x6c CMakeFiles/pb_remote_client_nrf52840_xxAA_s140_6.0.0.dir/__/__/__/mesh/core/src/cache.c.obj
 .debug_info    0x0000000000000000      0xbf9 CMakeFiles/pb_remote_client_nrf52840_xxAA_s140_6.0.0.dir/__/__/__/mesh/core/src/cache.c.obj
 .debug_abbrev  0x0000000000000000      0x2e2 CMakeFiles/pb_remote_client_nrf52840_xxAA_s140_6.0.0.dir/__/__/__/mesh/core/src/cache.c.obj
 .debug_loc     0x0000000000000000      0x3dc CMakeFiles/pb_remote_client_nrf52840_xxAA_s140_6.0.0.dir/__/__/__/mesh/core/src/cache.c.obj
 .debug_aranges
                0x0000000000000000       0x38 CMakeFiles/pb_remote_client_nrf52840_xxAA_s140_6.0.0.dir/__/__/__/mesh/core/src/cache.c.obj
 .debug_ranges  0x0000000000000000       0xb0 CMakeFiles/pb_remote_client_nrf52840_xxAA_s140_6.0.0.dir/__/__/__/mesh/core/src/cache.c.obj
 .debug_line    0x0000000000000000      0x255 CMakeFiles/pb_remote_client_nrf52840_xxAA_s140_6.0.0.dir/__/__/__/mesh/core/src/cache.c.obj
 .debug_str     0x0000000000000000      0x71c CMakeFiles/pb_remote_client_nrf52840_xxAA_s140_6.0.0.dir/__/__/__/mesh/core/src/cache.c.obj
 .comment       0x0000000000000000       0x7f CMakeFiles/pb_remote_client_nrf52840_xxAA_s140_6.0.0.dir/__/__/__/mesh/core/src/cache.c.obj
 .debug_frame   0x0000000000000000       0x90 CMakeFiles/pb_remote_client_nrf52840_xxAA_s140_6.0.0.dir/__/__/__/mesh/core/src/cache.c.obj
 .ARM.attributes
                0x0000000000000000       0x39 CMakeFiles/pb_remote_client_nrf52840_xxAA_s140_6.0.0.dir/__/__/__/mesh/core/src/cache.c.obj
 .text          0x0000000000000000        0x0 CMakeFiles/pb_remote_client_nrf52840_xxAA_s140_6.0.0.dir/__/__/__/mesh/core/src/uri.c.obj
 .data          0x0000000000000000        0x0 CMakeFiles/pb_remote_client_nrf52840_xxAA_s140_6.0.0.dir/__/__/__/mesh/core/src/uri.c.obj
 .bss           0x0000000000000000        0x0 CMakeFiles/pb_remote_client_nrf52840_xxAA_s140_6.0.0.dir/__/__/__/mesh/core/src/uri.c.obj
 .text.uri_data_generate
                0x0000000000000000       0x88 CMakeFiles/pb_remote_client_nrf52840_xxAA_s140_6.0.0.dir/__/__/__/mesh/core/src/uri.c.obj
 .text.uri_data_parse
                0x0000000000000000       0x84 CMakeFiles/pb_remote_client_nrf52840_xxAA_s140_6.0.0.dir/__/__/__/mesh/core/src/uri.c.obj
 .text.uri_scheme_name_code_point
                0x0000000000000000       0x5c CMakeFiles/pb_remote_client_nrf52840_xxAA_s140_6.0.0.dir/__/__/__/mesh/core/src/uri.c.obj
 .text.uri_scheme_name_string
                0x0000000000000000       0x14 CMakeFiles/pb_remote_client_nrf52840_xxAA_s140_6.0.0.dir/__/__/__/mesh/core/src/uri.c.obj
 .rodata.m_code_point_strings
                0x0000000000000000      0x2ec CMakeFiles/pb_remote_client_nrf52840_xxAA_s140_6.0.0.dir/__/__/__/mesh/core/src/uri.c.obj
 .rodata.str1.4
                0x0000000000000000      0x6ba CMakeFiles/pb_remote_client_nrf52840_xxAA_s140_6.0.0.dir/__/__/__/mesh/core/src/uri.c.obj
 .debug_info    0x0000000000000000      0xd55 CMakeFiles/pb_remote_client_nrf52840_xxAA_s140_6.0.0.dir/__/__/__/mesh/core/src/uri.c.obj
 .debug_abbrev  0x0000000000000000      0x331 CMakeFiles/pb_remote_client_nrf52840_xxAA_s140_6.0.0.dir/__/__/__/mesh/core/src/uri.c.obj
 .debug_loc     0x0000000000000000      0x38d CMakeFiles/pb_remote_client_nrf52840_xxAA_s140_6.0.0.dir/__/__/__/mesh/core/src/uri.c.obj
 .debug_aranges
                0x0000000000000000       0x38 CMakeFiles/pb_remote_client_nrf52840_xxAA_s140_6.0.0.dir/__/__/__/mesh/core/src/uri.c.obj
 .debug_ranges  0x0000000000000000       0x58 CMakeFiles/pb_remote_client_nrf52840_xxAA_s140_6.0.0.dir/__/__/__/mesh/core/src/uri.c.obj
 .debug_line    0x0000000000000000      0x322 CMakeFiles/pb_remote_client_nrf52840_xxAA_s140_6.0.0.dir/__/__/__/mesh/core/src/uri.c.obj
 .debug_str     0x0000000000000000      0x74a CMakeFiles/pb_remote_client_nrf52840_xxAA_s140_6.0.0.dir/__/__/__/mesh/core/src/uri.c.obj
 .comment       0x0000000000000000       0x7f CMakeFiles/pb_remote_client_nrf52840_xxAA_s140_6.0.0.dir/__/__/__/mesh/core/src/uri.c.obj
 .debug_frame   0x0000000000000000       0x8c CMakeFiles/pb_remote_client_nrf52840_xxAA_s140_6.0.0.dir/__/__/__/mesh/core/src/uri.c.obj
 .ARM.attributes
                0x0000000000000000       0x39 CMakeFiles/pb_remote_client_nrf52840_xxAA_s140_6.0.0.dir/__/__/__/mesh/core/src/uri.c.obj
 .text          0x0000000000000000        0x0 CMakeFiles/pb_remote_client_nrf52840_xxAA_s140_6.0.0.dir/__/__/__/mesh/core/src/list.c.obj
 .data          0x0000000000000000        0x0 CMakeFiles/pb_remote_client_nrf52840_xxAA_s140_6.0.0.dir/__/__/__/mesh/core/src/list.c.obj
 .bss           0x0000000000000000        0x0 CMakeFiles/pb_remote_client_nrf52840_xxAA_s140_6.0.0.dir/__/__/__/mesh/core/src/list.c.obj
 .text.list_size_get
                0x0000000000000000       0x14 CMakeFiles/pb_remote_client_nrf52840_xxAA_s140_6.0.0.dir/__/__/__/mesh/core/src/list.c.obj
 .text.list_sorted_add
                0x0000000000000000       0x88 CMakeFiles/pb_remote_client_nrf52840_xxAA_s140_6.0.0.dir/__/__/__/mesh/core/src/list.c.obj
 .text          0x0000000000000000        0x0 CMakeFiles/pb_remote_client_nrf52840_xxAA_s140_6.0.0.dir/__/__/__/mesh/core/src/log.c.obj
 .data          0x0000000000000000        0x0 CMakeFiles/pb_remote_client_nrf52840_xxAA_s140_6.0.0.dir/__/__/__/mesh/core/src/log.c.obj
 .bss           0x0000000000000000        0x0 CMakeFiles/pb_remote_client_nrf52840_xxAA_s140_6.0.0.dir/__/__/__/mesh/core/src/log.c.obj
 .text.log_callback_logview
                0x0000000000000000       0x38 CMakeFiles/pb_remote_client_nrf52840_xxAA_s140_6.0.0.dir/__/__/__/mesh/core/src/log.c.obj
 .text.log_set_callback
                0x0000000000000000        0xc CMakeFiles/pb_remote_client_nrf52840_xxAA_s140_6.0.0.dir/__/__/__/mesh/core/src/log.c.obj
 .text.log_vprintf
                0x0000000000000000       0x1c CMakeFiles/pb_remote_client_nrf52840_xxAA_s140_6.0.0.dir/__/__/__/mesh/core/src/log.c.obj
 .rodata.log_callback_logview.str1.4
                0x0000000000000000       0x12 CMakeFiles/pb_remote_client_nrf52840_xxAA_s140_6.0.0.dir/__/__/__/mesh/core/src/log.c.obj
 .text          0x0000000000000000        0x0 CMakeFiles/pb_remote_client_nrf52840_xxAA_s140_6.0.0.dir/__/__/__/mesh/core/src/flash_manager.c.obj
 .data          0x0000000000000000        0x0 CMakeFiles/pb_remote_client_nrf52840_xxAA_s140_6.0.0.dir/__/__/__/mesh/core/src/flash_manager.c.obj
 .bss           0x0000000000000000        0x0 CMakeFiles/pb_remote_client_nrf52840_xxAA_s140_6.0.0.dir/__/__/__/mesh/core/src/flash_manager.c.obj
 .text.flash_manager_entry_count_get
                0x0000000000000000       0xfc CMakeFiles/pb_remote_client_nrf52840_xxAA_s140_6.0.0.dir/__/__/__/mesh/core/src/flash_manager.c.obj
 .text.flash_manager_entry_release
                0x0000000000000000       0x74 CMakeFiles/pb_remote_client_nrf52840_xxAA_s140_6.0.0.dir/__/__/__/mesh/core/src/flash_manager.c.obj
 .text          0x0000000000000000        0x0 CMakeFiles/pb_remote_client_nrf52840_xxAA_s140_6.0.0.dir/__/__/__/mesh/core/src/ccm_soft.c.obj
 .data          0x0000000000000000        0x0 CMakeFiles/pb_remote_client_nrf52840_xxAA_s140_6.0.0.dir/__/__/__/mesh/core/src/ccm_soft.c.obj
 .bss           0x0000000000000000        0x0 CMakeFiles/pb_remote_client_nrf52840_xxAA_s140_6.0.0.dir/__/__/__/mesh/core/src/ccm_soft.c.obj
 .text          0x0000000000000000        0x0 CMakeFiles/pb_remote_client_nrf52840_xxAA_s140_6.0.0.dir/__/__/__/mesh/core/src/toolchain.c.obj
 .data          0x0000000000000000        0x0 CMakeFiles/pb_remote_client_nrf52840_xxAA_s140_6.0.0.dir/__/__/__/mesh/core/src/toolchain.c.obj
 .bss           0x0000000000000000        0x0 CMakeFiles/pb_remote_client_nrf52840_xxAA_s140_6.0.0.dir/__/__/__/mesh/core/src/toolchain.c.obj
 .debug_info    0x0000000000000000       0xac CMakeFiles/pb_remote_client_nrf52840_xxAA_s140_6.0.0.dir/__/__/__/mesh/core/src/toolchain.c.obj
 .debug_abbrev  0x0000000000000000       0x5c CMakeFiles/pb_remote_client_nrf52840_xxAA_s140_6.0.0.dir/__/__/__/mesh/core/src/toolchain.c.obj
 .debug_aranges
                0x0000000000000000       0x18 CMakeFiles/pb_remote_client_nrf52840_xxAA_s140_6.0.0.dir/__/__/__/mesh/core/src/toolchain.c.obj
 .debug_line    0x0000000000000000      0x131 CMakeFiles/pb_remote_client_nrf52840_xxAA_s140_6.0.0.dir/__/__/__/mesh/core/src/toolchain.c.obj
 .debug_str     0x0000000000000000      0x267 CMakeFiles/pb_remote_client_nrf52840_xxAA_s140_6.0.0.dir/__/__/__/mesh/core/src/toolchain.c.obj
 .comment       0x0000000000000000       0x7f CMakeFiles/pb_remote_client_nrf52840_xxAA_s140_6.0.0.dir/__/__/__/mesh/core/src/toolchain.c.obj
 .ARM.attributes
                0x0000000000000000       0x39 CMakeFiles/pb_remote_client_nrf52840_xxAA_s140_6.0.0.dir/__/__/__/mesh/core/src/toolchain.c.obj
 .text          0x0000000000000000        0x0 CMakeFiles/pb_remote_client_nrf52840_xxAA_s140_6.0.0.dir/__/__/__/mesh/core/src/replay_cache.c.obj
 .data          0x0000000000000000        0x0 CMakeFiles/pb_remote_client_nrf52840_xxAA_s140_6.0.0.dir/__/__/__/mesh/core/src/replay_cache.c.obj
 .bss           0x0000000000000000        0x0 CMakeFiles/pb_remote_client_nrf52840_xxAA_s140_6.0.0.dir/__/__/__/mesh/core/src/replay_cache.c.obj
 .text.replay_cache_on_iv_update
                0x0000000000000000       0x2c CMakeFiles/pb_remote_client_nrf52840_xxAA_s140_6.0.0.dir/__/__/__/mesh/core/src/replay_cache.c.obj
 .text.replay_cache_clear
                0x0000000000000000       0x20 CMakeFiles/pb_remote_client_nrf52840_xxAA_s140_6.0.0.dir/__/__/__/mesh/core/src/replay_cache.c.obj
 .text          0x0000000000000000        0x0 CMakeFiles/pb_remote_client_nrf52840_xxAA_s140_6.0.0.dir/__/__/__/mesh/core/src/beacon.c.obj
 .data          0x0000000000000000        0x0 CMakeFiles/pb_remote_client_nrf52840_xxAA_s140_6.0.0.dir/__/__/__/mesh/core/src/beacon.c.obj
 .bss           0x0000000000000000        0x0 CMakeFiles/pb_remote_client_nrf52840_xxAA_s140_6.0.0.dir/__/__/__/mesh/core/src/beacon.c.obj
 .text          0x0000000000000000        0x0 CMakeFiles/pb_remote_client_nrf52840_xxAA_s140_6.0.0.dir/__/__/__/mesh/core/src/flash_manager_internal.c.obj
 .data          0x0000000000000000        0x0 CMakeFiles/pb_remote_client_nrf52840_xxAA_s140_6.0.0.dir/__/__/__/mesh/core/src/flash_manager_internal.c.obj
 .bss           0x0000000000000000        0x0 CMakeFiles/pb_remote_client_nrf52840_xxAA_s140_6.0.0.dir/__/__/__/mesh/core/src/flash_manager_internal.c.obj
 .text          0x0000000000000000        0x0 CMakeFiles/pb_remote_client_nrf52840_xxAA_s140_6.0.0.dir/__/__/__/mesh/core/src/core_tx.c.obj
 .data          0x0000000000000000        0x0 CMakeFiles/pb_remote_client_nrf52840_xxAA_s140_6.0.0.dir/__/__/__/mesh/core/src/core_tx.c.obj
 .bss           0x0000000000000000        0x0 CMakeFiles/pb_remote_client_nrf52840_xxAA_s140_6.0.0.dir/__/__/__/mesh/core/src/core_tx.c.obj
 .text.core_tx_bearer_type_get
                0x0000000000000000       0x2c CMakeFiles/pb_remote_client_nrf52840_xxAA_s140_6.0.0.dir/__/__/__/mesh/core/src/core_tx.c.obj
 .text.core_tx_bearer_count_get
                0x0000000000000000        0xc CMakeFiles/pb_remote_client_nrf52840_xxAA_s140_6.0.0.dir/__/__/__/mesh/core/src/core_tx.c.obj
 .text          0x0000000000000000        0x0 CMakeFiles/pb_remote_client_nrf52840_xxAA_s140_6.0.0.dir/__/__/__/mesh/core/src/heartbeat.c.obj
 .data          0x0000000000000000        0x0 CMakeFiles/pb_remote_client_nrf52840_xxAA_s140_6.0.0.dir/__/__/__/mesh/core/src/heartbeat.c.obj
 .bss           0x0000000000000000        0x0 CMakeFiles/pb_remote_client_nrf52840_xxAA_s140_6.0.0.dir/__/__/__/mesh/core/src/heartbeat.c.obj
 .text          0x0000000000000000        0x0 CMakeFiles/pb_remote_client_nrf52840_xxAA_s140_6.0.0.dir/__/__/__/mesh/core/src/net_beacon.c.obj
 .data          0x0000000000000000        0x0 CMakeFiles/pb_remote_client_nrf52840_xxAA_s140_6.0.0.dir/__/__/__/mesh/core/src/net_beacon.c.obj
 .bss           0x0000000000000000        0x0 CMakeFiles/pb_remote_client_nrf52840_xxAA_s140_6.0.0.dir/__/__/__/mesh/core/src/net_beacon.c.obj
 .text.net_beacon_build
                0x0000000000000000       0x68 CMakeFiles/pb_remote_client_nrf52840_xxAA_s140_6.0.0.dir/__/__/__/mesh/core/src/net_beacon.c.obj
 .text          0x0000000000000000        0x0 CMakeFiles/pb_remote_client_nrf52840_xxAA_s140_6.0.0.dir/__/__/__/mesh/core/src/fsm.c.obj
 .data          0x0000000000000000        0x0 CMakeFiles/pb_remote_client_nrf52840_xxAA_s140_6.0.0.dir/__/__/__/mesh/core/src/fsm.c.obj
 .bss           0x0000000000000000        0x0 CMakeFiles/pb_remote_client_nrf52840_xxAA_s140_6.0.0.dir/__/__/__/mesh/core/src/fsm.c.obj
 .text.fsm_event_post_try
                0x0000000000000000      0x24c CMakeFiles/pb_remote_client_nrf52840_xxAA_s140_6.0.0.dir/__/__/__/mesh/core/src/fsm.c.obj
 .text.fsm_init
                0x0000000000000000      0x100 CMakeFiles/pb_remote_client_nrf52840_xxAA_s140_6.0.0.dir/__/__/__/mesh/core/src/fsm.c.obj
 .text.fsm_event_post
                0x0000000000000000       0xbc CMakeFiles/pb_remote_client_nrf52840_xxAA_s140_6.0.0.dir/__/__/__/mesh/core/src/fsm.c.obj
 .text.fsm_is_processing
                0x0000000000000000        0xc CMakeFiles/pb_remote_client_nrf52840_xxAA_s140_6.0.0.dir/__/__/__/mesh/core/src/fsm.c.obj
 .rodata.fsm_event_post.str1.4
                0x0000000000000000        0xb CMakeFiles/pb_remote_client_nrf52840_xxAA_s140_6.0.0.dir/__/__/__/mesh/core/src/fsm.c.obj
 .rodata.fsm_event_post_try.str1.4
                0x0000000000000000       0x7c CMakeFiles/pb_remote_client_nrf52840_xxAA_s140_6.0.0.dir/__/__/__/mesh/core/src/fsm.c.obj
 .rodata.fsm_init.str1.4
                0x0000000000000000        0xa CMakeFiles/pb_remote_client_nrf52840_xxAA_s140_6.0.0.dir/__/__/__/mesh/core/src/fsm.c.obj
 .debug_info    0x0000000000000000     0x13e3 CMakeFiles/pb_remote_client_nrf52840_xxAA_s140_6.0.0.dir/__/__/__/mesh/core/src/fsm.c.obj
 .debug_abbrev  0x0000000000000000      0x35d CMakeFiles/pb_remote_client_nrf52840_xxAA_s140_6.0.0.dir/__/__/__/mesh/core/src/fsm.c.obj
 .debug_loc     0x0000000000000000      0x4f3 CMakeFiles/pb_remote_client_nrf52840_xxAA_s140_6.0.0.dir/__/__/__/mesh/core/src/fsm.c.obj
 .debug_aranges
                0x0000000000000000       0x38 CMakeFiles/pb_remote_client_nrf52840_xxAA_s140_6.0.0.dir/__/__/__/mesh/core/src/fsm.c.obj
 .debug_ranges  0x0000000000000000       0xd8 CMakeFiles/pb_remote_client_nrf52840_xxAA_s140_6.0.0.dir/__/__/__/mesh/core/src/fsm.c.obj
 .debug_line    0x0000000000000000      0x48d CMakeFiles/pb_remote_client_nrf52840_xxAA_s140_6.0.0.dir/__/__/__/mesh/core/src/fsm.c.obj
 .debug_str     0x0000000000000000      0x9f1 CMakeFiles/pb_remote_client_nrf52840_xxAA_s140_6.0.0.dir/__/__/__/mesh/core/src/fsm.c.obj
 .comment       0x0000000000000000       0x7f CMakeFiles/pb_remote_client_nrf52840_xxAA_s140_6.0.0.dir/__/__/__/mesh/core/src/fsm.c.obj
 .debug_frame   0x0000000000000000       0xb0 CMakeFiles/pb_remote_client_nrf52840_xxAA_s140_6.0.0.dir/__/__/__/mesh/core/src/fsm.c.obj
 .ARM.attributes
                0x0000000000000000       0x39 CMakeFiles/pb_remote_client_nrf52840_xxAA_s140_6.0.0.dir/__/__/__/mesh/core/src/fsm.c.obj
 .text          0x0000000000000000        0x0 CMakeFiles/pb_remote_client_nrf52840_xxAA_s140_6.0.0.dir/__/__/__/mesh/core/src/core_tx_adv.c.obj
 .data          0x0000000000000000        0x0 CMakeFiles/pb_remote_client_nrf52840_xxAA_s140_6.0.0.dir/__/__/__/mesh/core/src/core_tx_adv.c.obj
 .bss           0x0000000000000000        0x0 CMakeFiles/pb_remote_client_nrf52840_xxAA_s140_6.0.0.dir/__/__/__/mesh/core/src/core_tx_adv.c.obj
 .text.core_tx_adv_address_set
                0x0000000000000000       0x28 CMakeFiles/pb_remote_client_nrf52840_xxAA_s140_6.0.0.dir/__/__/__/mesh/core/src/core_tx_adv.c.obj
 .text          0x0000000000000000        0x0 CMakeFiles/pb_remote_client_nrf52840_xxAA_s140_6.0.0.dir/__/__/__/mesh/bearer/src/ad_listener.c.obj
 .data          0x0000000000000000        0x0 CMakeFiles/pb_remote_client_nrf52840_xxAA_s140_6.0.0.dir/__/__/__/mesh/bearer/src/ad_listener.c.obj
 .bss           0x0000000000000000        0x0 CMakeFiles/pb_remote_client_nrf52840_xxAA_s140_6.0.0.dir/__/__/__/mesh/bearer/src/ad_listener.c.obj
 .text.ad_listener_unsubscribe
                0x0000000000000000       0x78 CMakeFiles/pb_remote_client_nrf52840_xxAA_s140_6.0.0.dir/__/__/__/mesh/bearer/src/ad_listener.c.obj
 .text          0x0000000000000000        0x0 CMakeFiles/pb_remote_client_nrf52840_xxAA_s140_6.0.0.dir/__/__/__/mesh/bearer/src/ad_type_filter.c.obj
 .data          0x0000000000000000        0x0 CMakeFiles/pb_remote_client_nrf52840_xxAA_s140_6.0.0.dir/__/__/__/mesh/bearer/src/ad_type_filter.c.obj
 .bss           0x0000000000000000        0x0 CMakeFiles/pb_remote_client_nrf52840_xxAA_s140_6.0.0.dir/__/__/__/mesh/bearer/src/ad_type_filter.c.obj
 .text.bearer_adtype_remove
                0x0000000000000000       0x28 CMakeFiles/pb_remote_client_nrf52840_xxAA_s140_6.0.0.dir/__/__/__/mesh/bearer/src/ad_type_filter.c.obj
 .text.bearer_adtype_clear
                0x0000000000000000       0x10 CMakeFiles/pb_remote_client_nrf52840_xxAA_s140_6.0.0.dir/__/__/__/mesh/bearer/src/ad_type_filter.c.obj
 .text.bearer_invalid_length_amount_get
                0x0000000000000000        0xc CMakeFiles/pb_remote_client_nrf52840_xxAA_s140_6.0.0.dir/__/__/__/mesh/bearer/src/ad_type_filter.c.obj
 .text.bearer_adtype_filtered_amount_get
                0x0000000000000000        0xc CMakeFiles/pb_remote_client_nrf52840_xxAA_s140_6.0.0.dir/__/__/__/mesh/bearer/src/ad_type_filter.c.obj
 .text          0x0000000000000000        0x0 CMakeFiles/pb_remote_client_nrf52840_xxAA_s140_6.0.0.dir/__/__/__/mesh/bearer/src/adv_packet_filter.c.obj
 .data          0x0000000000000000        0x0 CMakeFiles/pb_remote_client_nrf52840_xxAA_s140_6.0.0.dir/__/__/__/mesh/bearer/src/adv_packet_filter.c.obj
 .bss           0x0000000000000000        0x0 CMakeFiles/pb_remote_client_nrf52840_xxAA_s140_6.0.0.dir/__/__/__/mesh/bearer/src/adv_packet_filter.c.obj
 .text.adv_filter_handle
                0x0000000000000000       0x40 CMakeFiles/pb_remote_client_nrf52840_xxAA_s140_6.0.0.dir/__/__/__/mesh/bearer/src/adv_packet_filter.c.obj
 .text.bearer_adv_packet_filtering_set
                0x0000000000000000       0x1c CMakeFiles/pb_remote_client_nrf52840_xxAA_s140_6.0.0.dir/__/__/__/mesh/bearer/src/adv_packet_filter.c.obj
 .text.bearer_adv_packet_remove
                0x0000000000000000       0x18 CMakeFiles/pb_remote_client_nrf52840_xxAA_s140_6.0.0.dir/__/__/__/mesh/bearer/src/adv_packet_filter.c.obj
 .text.bearer_adv_packet_add
                0x0000000000000000       0x14 CMakeFiles/pb_remote_client_nrf52840_xxAA_s140_6.0.0.dir/__/__/__/mesh/bearer/src/adv_packet_filter.c.obj
 .text.bearer_adv_packet_clear
                0x0000000000000000        0xc CMakeFiles/pb_remote_client_nrf52840_xxAA_s140_6.0.0.dir/__/__/__/mesh/bearer/src/adv_packet_filter.c.obj
 .text.bearer_adv_packet_filter_mode_set
                0x0000000000000000       0x18 CMakeFiles/pb_remote_client_nrf52840_xxAA_s140_6.0.0.dir/__/__/__/mesh/bearer/src/adv_packet_filter.c.obj
 .text.bearer_adv_packet_filtered_amount_get
                0x0000000000000000        0xc CMakeFiles/pb_remote_client_nrf52840_xxAA_s140_6.0.0.dir/__/__/__/mesh/bearer/src/adv_packet_filter.c.obj
 .bss.m_adv_packet_filter
                0x0000000000000000       0x14 CMakeFiles/pb_remote_client_nrf52840_xxAA_s140_6.0.0.dir/__/__/__/mesh/bearer/src/adv_packet_filter.c.obj
 .debug_info    0x0000000000000000      0xd92 CMakeFiles/pb_remote_client_nrf52840_xxAA_s140_6.0.0.dir/__/__/__/mesh/bearer/src/adv_packet_filter.c.obj
 .debug_abbrev  0x0000000000000000      0x2cb CMakeFiles/pb_remote_client_nrf52840_xxAA_s140_6.0.0.dir/__/__/__/mesh/bearer/src/adv_packet_filter.c.obj
 .debug_loc     0x0000000000000000      0x1b2 CMakeFiles/pb_remote_client_nrf52840_xxAA_s140_6.0.0.dir/__/__/__/mesh/bearer/src/adv_packet_filter.c.obj
 .debug_aranges
                0x0000000000000000       0x50 CMakeFiles/pb_remote_client_nrf52840_xxAA_s140_6.0.0.dir/__/__/__/mesh/bearer/src/adv_packet_filter.c.obj
 .debug_ranges  0x0000000000000000       0x40 CMakeFiles/pb_remote_client_nrf52840_xxAA_s140_6.0.0.dir/__/__/__/mesh/bearer/src/adv_packet_filter.c.obj
 .debug_line    0x0000000000000000      0x489 CMakeFiles/pb_remote_client_nrf52840_xxAA_s140_6.0.0.dir/__/__/__/mesh/bearer/src/adv_packet_filter.c.obj
 .debug_str     0x0000000000000000      0xa95 CMakeFiles/pb_remote_client_nrf52840_xxAA_s140_6.0.0.dir/__/__/__/mesh/bearer/src/adv_packet_filter.c.obj
 .comment       0x0000000000000000       0x7f CMakeFiles/pb_remote_client_nrf52840_xxAA_s140_6.0.0.dir/__/__/__/mesh/bearer/src/adv_packet_filter.c.obj
 .debug_frame   0x0000000000000000       0x88 CMakeFiles/pb_remote_client_nrf52840_xxAA_s140_6.0.0.dir/__/__/__/mesh/bearer/src/adv_packet_filter.c.obj
 .ARM.attributes
                0x0000000000000000       0x39 CMakeFiles/pb_remote_client_nrf52840_xxAA_s140_6.0.0.dir/__/__/__/mesh/bearer/src/adv_packet_filter.c.obj
 .text          0x0000000000000000        0x0 CMakeFiles/pb_remote_client_nrf52840_xxAA_s140_6.0.0.dir/__/__/__/mesh/bearer/src/advertiser.c.obj
 .data          0x0000000000000000        0x0 CMakeFiles/pb_remote_client_nrf52840_xxAA_s140_6.0.0.dir/__/__/__/mesh/bearer/src/advertiser.c.obj
 .bss           0x0000000000000000        0x0 CMakeFiles/pb_remote_client_nrf52840_xxAA_s140_6.0.0.dir/__/__/__/mesh/bearer/src/advertiser.c.obj
 .text.advertiser_disable
                0x0000000000000000        0xc CMakeFiles/pb_remote_client_nrf52840_xxAA_s140_6.0.0.dir/__/__/__/mesh/bearer/src/advertiser.c.obj
 .text.advertiser_config_set
                0x0000000000000000      0x184 CMakeFiles/pb_remote_client_nrf52840_xxAA_s140_6.0.0.dir/__/__/__/mesh/bearer/src/advertiser.c.obj
 .text.advertiser_channels_set
                0x0000000000000000       0x98 CMakeFiles/pb_remote_client_nrf52840_xxAA_s140_6.0.0.dir/__/__/__/mesh/bearer/src/advertiser.c.obj
 .text.advertiser_address_set
                0x0000000000000000       0x74 CMakeFiles/pb_remote_client_nrf52840_xxAA_s140_6.0.0.dir/__/__/__/mesh/bearer/src/advertiser.c.obj
 .text.advertiser_config_get
                0x0000000000000000       0x24 CMakeFiles/pb_remote_client_nrf52840_xxAA_s140_6.0.0.dir/__/__/__/mesh/bearer/src/advertiser.c.obj
 .text.advertiser_address_default_get
                0x0000000000000000       0x5c CMakeFiles/pb_remote_client_nrf52840_xxAA_s140_6.0.0.dir/__/__/__/mesh/bearer/src/advertiser.c.obj
 .text          0x0000000000000000        0x0 CMakeFiles/pb_remote_client_nrf52840_xxAA_s140_6.0.0.dir/__/__/__/mesh/bearer/src/bearer_handler.c.obj
 .data          0x0000000000000000        0x0 CMakeFiles/pb_remote_client_nrf52840_xxAA_s140_6.0.0.dir/__/__/__/mesh/bearer/src/bearer_handler.c.obj
 .bss           0x0000000000000000        0x0 CMakeFiles/pb_remote_client_nrf52840_xxAA_s140_6.0.0.dir/__/__/__/mesh/bearer/src/bearer_handler.c.obj
 .text.bearer_handler_stop
                0x0000000000000000       0x20 CMakeFiles/pb_remote_client_nrf52840_xxAA_s140_6.0.0.dir/__/__/__/mesh/bearer/src/bearer_handler.c.obj
 .text.bearer_handler_action_fire
                0x0000000000000000       0xa0 CMakeFiles/pb_remote_client_nrf52840_xxAA_s140_6.0.0.dir/__/__/__/mesh/bearer/src/bearer_handler.c.obj
 .text          0x0000000000000000        0x0 CMakeFiles/pb_remote_client_nrf52840_xxAA_s140_6.0.0.dir/__/__/__/mesh/bearer/src/broadcast.c.obj
 .data          0x0000000000000000        0x0 CMakeFiles/pb_remote_client_nrf52840_xxAA_s140_6.0.0.dir/__/__/__/mesh/bearer/src/broadcast.c.obj
 .bss           0x0000000000000000        0x0 CMakeFiles/pb_remote_client_nrf52840_xxAA_s140_6.0.0.dir/__/__/__/mesh/bearer/src/broadcast.c.obj
 .text          0x0000000000000000        0x0 CMakeFiles/pb_remote_client_nrf52840_xxAA_s140_6.0.0.dir/__/__/__/mesh/bearer/src/filter_engine.c.obj
 .data          0x0000000000000000        0x0 CMakeFiles/pb_remote_client_nrf52840_xxAA_s140_6.0.0.dir/__/__/__/mesh/bearer/src/filter_engine.c.obj
 .bss           0x0000000000000000        0x0 CMakeFiles/pb_remote_client_nrf52840_xxAA_s140_6.0.0.dir/__/__/__/mesh/bearer/src/filter_engine.c.obj
 .text.fen_accepted_amount_get
                0x0000000000000000        0xc CMakeFiles/pb_remote_client_nrf52840_xxAA_s140_6.0.0.dir/__/__/__/mesh/bearer/src/filter_engine.c.obj
 .text          0x0000000000000000        0x0 CMakeFiles/pb_remote_client_nrf52840_xxAA_s140_6.0.0.dir/__/__/__/mesh/bearer/src/gap_address_filter.c.obj
 .data          0x0000000000000000        0x0 CMakeFiles/pb_remote_client_nrf52840_xxAA_s140_6.0.0.dir/__/__/__/mesh/bearer/src/gap_address_filter.c.obj
 .bss           0x0000000000000000        0x0 CMakeFiles/pb_remote_client_nrf52840_xxAA_s140_6.0.0.dir/__/__/__/mesh/bearer/src/gap_address_filter.c.obj
 .text.gap_address_filter_handle
                0x0000000000000000       0xb8 CMakeFiles/pb_remote_client_nrf52840_xxAA_s140_6.0.0.dir/__/__/__/mesh/bearer/src/gap_address_filter.c.obj
 .text.bearer_filter_gap_addr_whitelist_set
                0x0000000000000000       0x48 CMakeFiles/pb_remote_client_nrf52840_xxAA_s140_6.0.0.dir/__/__/__/mesh/bearer/src/gap_address_filter.c.obj
 .text.bearer_filter_gap_addr_blacklist_set
                0x0000000000000000       0x4c CMakeFiles/pb_remote_client_nrf52840_xxAA_s140_6.0.0.dir/__/__/__/mesh/bearer/src/gap_address_filter.c.obj
 .text.bearer_filter_gap_addr_range_set
                0x0000000000000000       0x64 CMakeFiles/pb_remote_client_nrf52840_xxAA_s140_6.0.0.dir/__/__/__/mesh/bearer/src/gap_address_filter.c.obj
 .text.bearer_filter_gap_addr_clear
                0x0000000000000000       0x24 CMakeFiles/pb_remote_client_nrf52840_xxAA_s140_6.0.0.dir/__/__/__/mesh/bearer/src/gap_address_filter.c.obj
 .text.bearer_gap_addr_filtered_amount_get
                0x0000000000000000        0xc CMakeFiles/pb_remote_client_nrf52840_xxAA_s140_6.0.0.dir/__/__/__/mesh/bearer/src/gap_address_filter.c.obj
 .bss.m_addr_filter
                0x0000000000000000       0x18 CMakeFiles/pb_remote_client_nrf52840_xxAA_s140_6.0.0.dir/__/__/__/mesh/bearer/src/gap_address_filter.c.obj
 .debug_info    0x0000000000000000      0xf34 CMakeFiles/pb_remote_client_nrf52840_xxAA_s140_6.0.0.dir/__/__/__/mesh/bearer/src/gap_address_filter.c.obj
 .debug_abbrev  0x0000000000000000      0x2f8 CMakeFiles/pb_remote_client_nrf52840_xxAA_s140_6.0.0.dir/__/__/__/mesh/bearer/src/gap_address_filter.c.obj
 .debug_loc     0x0000000000000000      0x823 CMakeFiles/pb_remote_client_nrf52840_xxAA_s140_6.0.0.dir/__/__/__/mesh/bearer/src/gap_address_filter.c.obj
 .debug_aranges
                0x0000000000000000       0x48 CMakeFiles/pb_remote_client_nrf52840_xxAA_s140_6.0.0.dir/__/__/__/mesh/bearer/src/gap_address_filter.c.obj
 .debug_ranges  0x0000000000000000      0x100 CMakeFiles/pb_remote_client_nrf52840_xxAA_s140_6.0.0.dir/__/__/__/mesh/bearer/src/gap_address_filter.c.obj
 .debug_line    0x0000000000000000      0x519 CMakeFiles/pb_remote_client_nrf52840_xxAA_s140_6.0.0.dir/__/__/__/mesh/bearer/src/gap_address_filter.c.obj
 .debug_str     0x0000000000000000      0x9ef CMakeFiles/pb_remote_client_nrf52840_xxAA_s140_6.0.0.dir/__/__/__/mesh/bearer/src/gap_address_filter.c.obj
 .comment       0x0000000000000000       0x7f CMakeFiles/pb_remote_client_nrf52840_xxAA_s140_6.0.0.dir/__/__/__/mesh/bearer/src/gap_address_filter.c.obj
 .debug_frame   0x0000000000000000       0xd4 CMakeFiles/pb_remote_client_nrf52840_xxAA_s140_6.0.0.dir/__/__/__/mesh/bearer/src/gap_address_filter.c.obj
 .ARM.attributes
                0x0000000000000000       0x39 CMakeFiles/pb_remote_client_nrf52840_xxAA_s140_6.0.0.dir/__/__/__/mesh/bearer/src/gap_address_filter.c.obj
 .text          0x0000000000000000        0x0 CMakeFiles/pb_remote_client_nrf52840_xxAA_s140_6.0.0.dir/__/__/__/mesh/bearer/src/radio_config.c.obj
 .data          0x0000000000000000        0x0 CMakeFiles/pb_remote_client_nrf52840_xxAA_s140_6.0.0.dir/__/__/__/mesh/bearer/src/radio_config.c.obj
 .bss           0x0000000000000000        0x0 CMakeFiles/pb_remote_client_nrf52840_xxAA_s140_6.0.0.dir/__/__/__/mesh/bearer/src/radio_config.c.obj
 .text.radio_config_access_addr_get
                0x0000000000000000       0x58 CMakeFiles/pb_remote_client_nrf52840_xxAA_s140_6.0.0.dir/__/__/__/mesh/bearer/src/radio_config.c.obj
 .text          0x0000000000000000        0x0 CMakeFiles/pb_remote_client_nrf52840_xxAA_s140_6.0.0.dir/__/__/__/mesh/bearer/src/rssi_filter.c.obj
 .data          0x0000000000000000        0x0 CMakeFiles/pb_remote_client_nrf52840_xxAA_s140_6.0.0.dir/__/__/__/mesh/bearer/src/rssi_filter.c.obj
 .bss           0x0000000000000000        0x0 CMakeFiles/pb_remote_client_nrf52840_xxAA_s140_6.0.0.dir/__/__/__/mesh/bearer/src/rssi_filter.c.obj
 .text.rssi_filter_handle
                0x0000000000000000       0x20 CMakeFiles/pb_remote_client_nrf52840_xxAA_s140_6.0.0.dir/__/__/__/mesh/bearer/src/rssi_filter.c.obj
 .text.bearer_rssi_filtering_set
                0x0000000000000000       0x38 CMakeFiles/pb_remote_client_nrf52840_xxAA_s140_6.0.0.dir/__/__/__/mesh/bearer/src/rssi_filter.c.obj
 .text.bearer_rssi_filtered_amount_get
                0x0000000000000000        0xc CMakeFiles/pb_remote_client_nrf52840_xxAA_s140_6.0.0.dir/__/__/__/mesh/bearer/src/rssi_filter.c.obj
 .bss.m_rssi_filter
                0x0000000000000000       0x18 CMakeFiles/pb_remote_client_nrf52840_xxAA_s140_6.0.0.dir/__/__/__/mesh/bearer/src/rssi_filter.c.obj
 .debug_info    0x0000000000000000      0xc70 CMakeFiles/pb_remote_client_nrf52840_xxAA_s140_6.0.0.dir/__/__/__/mesh/bearer/src/rssi_filter.c.obj
 .debug_abbrev  0x0000000000000000      0x290 CMakeFiles/pb_remote_client_nrf52840_xxAA_s140_6.0.0.dir/__/__/__/mesh/bearer/src/rssi_filter.c.obj
 .debug_loc     0x0000000000000000       0xbe CMakeFiles/pb_remote_client_nrf52840_xxAA_s140_6.0.0.dir/__/__/__/mesh/bearer/src/rssi_filter.c.obj
 .debug_aranges
                0x0000000000000000       0x30 CMakeFiles/pb_remote_client_nrf52840_xxAA_s140_6.0.0.dir/__/__/__/mesh/bearer/src/rssi_filter.c.obj
 .debug_ranges  0x0000000000000000       0x20 CMakeFiles/pb_remote_client_nrf52840_xxAA_s140_6.0.0.dir/__/__/__/mesh/bearer/src/rssi_filter.c.obj
 .debug_line    0x0000000000000000      0x3fb CMakeFiles/pb_remote_client_nrf52840_xxAA_s140_6.0.0.dir/__/__/__/mesh/bearer/src/rssi_filter.c.obj
 .debug_str     0x0000000000000000      0x8aa CMakeFiles/pb_remote_client_nrf52840_xxAA_s140_6.0.0.dir/__/__/__/mesh/bearer/src/rssi_filter.c.obj
 .comment       0x0000000000000000       0x7f CMakeFiles/pb_remote_client_nrf52840_xxAA_s140_6.0.0.dir/__/__/__/mesh/bearer/src/rssi_filter.c.obj
 .debug_frame   0x0000000000000000       0x58 CMakeFiles/pb_remote_client_nrf52840_xxAA_s140_6.0.0.dir/__/__/__/mesh/bearer/src/rssi_filter.c.obj
 .ARM.attributes
                0x0000000000000000       0x39 CMakeFiles/pb_remote_client_nrf52840_xxAA_s140_6.0.0.dir/__/__/__/mesh/bearer/src/rssi_filter.c.obj
 .text          0x0000000000000000        0x0 CMakeFiles/pb_remote_client_nrf52840_xxAA_s140_6.0.0.dir/__/__/__/mesh/bearer/src/scanner.c.obj
 .data          0x0000000000000000        0x0 CMakeFiles/pb_remote_client_nrf52840_xxAA_s140_6.0.0.dir/__/__/__/mesh/bearer/src/scanner.c.obj
 .bss           0x0000000000000000        0x0 CMakeFiles/pb_remote_client_nrf52840_xxAA_s140_6.0.0.dir/__/__/__/mesh/bearer/src/scanner.c.obj
 .text.scanner_rx_callback_set
                0x0000000000000000       0x20 CMakeFiles/pb_remote_client_nrf52840_xxAA_s140_6.0.0.dir/__/__/__/mesh/bearer/src/scanner.c.obj
 .text.scanner_disable
                0x0000000000000000       0x50 CMakeFiles/pb_remote_client_nrf52840_xxAA_s140_6.0.0.dir/__/__/__/mesh/bearer/src/scanner.c.obj
 .text.scanner_is_enabled
                0x0000000000000000       0x14 CMakeFiles/pb_remote_client_nrf52840_xxAA_s140_6.0.0.dir/__/__/__/mesh/bearer/src/scanner.c.obj
 .text.scanner_stats_get
                0x0000000000000000        0x8 CMakeFiles/pb_remote_client_nrf52840_xxAA_s140_6.0.0.dir/__/__/__/mesh/bearer/src/scanner.c.obj
 .text.scanner_config_radio_mode_set
                0x0000000000000000       0x10 CMakeFiles/pb_remote_client_nrf52840_xxAA_s140_6.0.0.dir/__/__/__/mesh/bearer/src/scanner.c.obj
 .text.scanner_config_scan_time_set
                0x0000000000000000       0x88 CMakeFiles/pb_remote_client_nrf52840_xxAA_s140_6.0.0.dir/__/__/__/mesh/bearer/src/scanner.c.obj
 .text.scanner_config_channels_set
                0x0000000000000000       0x50 CMakeFiles/pb_remote_client_nrf52840_xxAA_s140_6.0.0.dir/__/__/__/mesh/bearer/src/scanner.c.obj
 .text.scanner_config_access_addresses_set
                0x0000000000000000       0x38 CMakeFiles/pb_remote_client_nrf52840_xxAA_s140_6.0.0.dir/__/__/__/mesh/bearer/src/scanner.c.obj
 .text          0x0000000000000000        0x0 CMakeFiles/pb_remote_client_nrf52840_xxAA_s140_6.0.0.dir/home/mazzer/work/nordic/sdk/nRF5_SDK_15.0.0/modules/nrfx/mdk/system_nrf52840.c.obj
 .data          0x0000000000000000        0x0 CMakeFiles/pb_remote_client_nrf52840_xxAA_s140_6.0.0.dir/home/mazzer/work/nordic/sdk/nRF5_SDK_15.0.0/modules/nrfx/mdk/system_nrf52840.c.obj
 .bss           0x0000000000000000        0x0 CMakeFiles/pb_remote_client_nrf52840_xxAA_s140_6.0.0.dir/home/mazzer/work/nordic/sdk/nRF5_SDK_15.0.0/modules/nrfx/mdk/system_nrf52840.c.obj
 .text.SystemCoreClockUpdate
                0x0000000000000000       0x10 CMakeFiles/pb_remote_client_nrf52840_xxAA_s140_6.0.0.dir/home/mazzer/work/nordic/sdk/nRF5_SDK_15.0.0/modules/nrfx/mdk/system_nrf52840.c.obj
 .data          0x0000000000000000        0x0 CMakeFiles/pb_remote_client_nrf52840_xxAA_s140_6.0.0.dir/home/mazzer/work/nordic/sdk/nRF5_SDK_15.0.0/modules/nrfx/mdk/gcc_startup_nrf52840.S.obj
 .bss           0x0000000000000000        0x0 CMakeFiles/pb_remote_client_nrf52840_xxAA_s140_6.0.0.dir/home/mazzer/work/nordic/sdk/nRF5_SDK_15.0.0/modules/nrfx/mdk/gcc_startup_nrf52840.S.obj
 .text          0x0000000000000000        0x0 CMakeFiles/pb_remote_client_nrf52840_xxAA_s140_6.0.0.dir/home/mazzer/work/nordic/sdk/nRF5_SDK_15.0.0/components/libraries/util/app_error.c.obj
 .data          0x0000000000000000        0x0 CMakeFiles/pb_remote_client_nrf52840_xxAA_s140_6.0.0.dir/home/mazzer/work/nordic/sdk/nRF5_SDK_15.0.0/components/libraries/util/app_error.c.obj
 .bss           0x0000000000000000        0x0 CMakeFiles/pb_remote_client_nrf52840_xxAA_s140_6.0.0.dir/home/mazzer/work/nordic/sdk/nRF5_SDK_15.0.0/components/libraries/util/app_error.c.obj
 .text.app_error_handler_bare
                0x0000000000000000       0x20 CMakeFiles/pb_remote_client_nrf52840_xxAA_s140_6.0.0.dir/home/mazzer/work/nordic/sdk/nRF5_SDK_15.0.0/components/libraries/util/app_error.c.obj
 .text.app_error_save_and_stop
                0x0000000000000000       0x64 CMakeFiles/pb_remote_client_nrf52840_xxAA_s140_6.0.0.dir/home/mazzer/work/nordic/sdk/nRF5_SDK_15.0.0/components/libraries/util/app_error.c.obj
 .bss.m_error_data.8293
                0x0000000000000000       0x20 CMakeFiles/pb_remote_client_nrf52840_xxAA_s140_6.0.0.dir/home/mazzer/work/nordic/sdk/nRF5_SDK_15.0.0/components/libraries/util/app_error.c.obj
 .debug_info    0x0000000000000000      0xae7 CMakeFiles/pb_remote_client_nrf52840_xxAA_s140_6.0.0.dir/home/mazzer/work/nordic/sdk/nRF5_SDK_15.0.0/components/libraries/util/app_error.c.obj
 .debug_abbrev  0x0000000000000000      0x232 CMakeFiles/pb_remote_client_nrf52840_xxAA_s140_6.0.0.dir/home/mazzer/work/nordic/sdk/nRF5_SDK_15.0.0/components/libraries/util/app_error.c.obj
 .debug_loc     0x0000000000000000       0xca CMakeFiles/pb_remote_client_nrf52840_xxAA_s140_6.0.0.dir/home/mazzer/work/nordic/sdk/nRF5_SDK_15.0.0/components/libraries/util/app_error.c.obj
 .debug_aranges
                0x0000000000000000       0x28 CMakeFiles/pb_remote_client_nrf52840_xxAA_s140_6.0.0.dir/home/mazzer/work/nordic/sdk/nRF5_SDK_15.0.0/components/libraries/util/app_error.c.obj
 .debug_ranges  0x0000000000000000       0x18 CMakeFiles/pb_remote_client_nrf52840_xxAA_s140_6.0.0.dir/home/mazzer/work/nordic/sdk/nRF5_SDK_15.0.0/components/libraries/util/app_error.c.obj
 .debug_line    0x0000000000000000      0x274 CMakeFiles/pb_remote_client_nrf52840_xxAA_s140_6.0.0.dir/home/mazzer/work/nordic/sdk/nRF5_SDK_15.0.0/components/libraries/util/app_error.c.obj
 .debug_str     0x0000000000000000      0x76a CMakeFiles/pb_remote_client_nrf52840_xxAA_s140_6.0.0.dir/home/mazzer/work/nordic/sdk/nRF5_SDK_15.0.0/components/libraries/util/app_error.c.obj
 .comment       0x0000000000000000       0x7f CMakeFiles/pb_remote_client_nrf52840_xxAA_s140_6.0.0.dir/home/mazzer/work/nordic/sdk/nRF5_SDK_15.0.0/components/libraries/util/app_error.c.obj
 .debug_frame   0x0000000000000000       0x54 CMakeFiles/pb_remote_client_nrf52840_xxAA_s140_6.0.0.dir/home/mazzer/work/nordic/sdk/nRF5_SDK_15.0.0/components/libraries/util/app_error.c.obj
 .ARM.attributes
                0x0000000000000000       0x39 CMakeFiles/pb_remote_client_nrf52840_xxAA_s140_6.0.0.dir/home/mazzer/work/nordic/sdk/nRF5_SDK_15.0.0/components/libraries/util/app_error.c.obj
 .text          0x0000000000000000        0x0 CMakeFiles/pb_remote_client_nrf52840_xxAA_s140_6.0.0.dir/home/mazzer/work/nordic/sdk/nRF5_SDK_15.0.0/components/libraries/util/app_error_handler_gcc.c.obj
 .data          0x0000000000000000        0x0 CMakeFiles/pb_remote_client_nrf52840_xxAA_s140_6.0.0.dir/home/mazzer/work/nordic/sdk/nRF5_SDK_15.0.0/components/libraries/util/app_error_handler_gcc.c.obj
 .bss           0x0000000000000000        0x0 CMakeFiles/pb_remote_client_nrf52840_xxAA_s140_6.0.0.dir/home/mazzer/work/nordic/sdk/nRF5_SDK_15.0.0/components/libraries/util/app_error_handler_gcc.c.obj
 .text          0x0000000000000000        0x0 ../../../external/rtt/librtt_nrf52840_xxAA.a(SEGGER_RTT.c.obj)
 .data          0x0000000000000000        0x0 ../../../external/rtt/librtt_nrf52840_xxAA.a(SEGGER_RTT.c.obj)
 .bss           0x0000000000000000        0x0 ../../../external/rtt/librtt_nrf52840_xxAA.a(SEGGER_RTT.c.obj)
 .text.SEGGER_RTT_ReadNoLock
                0x0000000000000000       0xfc ../../../external/rtt/librtt_nrf52840_xxAA.a(SEGGER_RTT.c.obj)
 .text.SEGGER_RTT_Read
                0x0000000000000000      0x118 ../../../external/rtt/librtt_nrf52840_xxAA.a(SEGGER_RTT.c.obj)
 .text.SEGGER_RTT_WriteSkipNoLock
                0x0000000000000000      0x1a8 ../../../external/rtt/librtt_nrf52840_xxAA.a(SEGGER_RTT.c.obj)
 .text.SEGGER_RTT_WriteNoLock
                0x0000000000000000      0x168 ../../../external/rtt/librtt_nrf52840_xxAA.a(SEGGER_RTT.c.obj)
 .text.SEGGER_RTT_WriteString
                0x0000000000000000      0x1f8 ../../../external/rtt/librtt_nrf52840_xxAA.a(SEGGER_RTT.c.obj)
 .text.SEGGER_RTT_WaitKey
                0x0000000000000000       0xfc ../../../external/rtt/librtt_nrf52840_xxAA.a(SEGGER_RTT.c.obj)
 .text.SEGGER_RTT_HasKey
                0x0000000000000000       0x6c ../../../external/rtt/librtt_nrf52840_xxAA.a(SEGGER_RTT.c.obj)
 .text.SEGGER_RTT_HasData
                0x0000000000000000       0x18 ../../../external/rtt/librtt_nrf52840_xxAA.a(SEGGER_RTT.c.obj)
 .text.SEGGER_RTT_AllocDownBuffer
                0x0000000000000000       0xb8 ../../../external/rtt/librtt_nrf52840_xxAA.a(SEGGER_RTT.c.obj)
 .text.SEGGER_RTT_AllocUpBuffer
                0x0000000000000000       0xd4 ../../../external/rtt/librtt_nrf52840_xxAA.a(SEGGER_RTT.c.obj)
 .text.SEGGER_RTT_ConfigUpBuffer
                0x0000000000000000       0xd0 ../../../external/rtt/librtt_nrf52840_xxAA.a(SEGGER_RTT.c.obj)
 .text.SEGGER_RTT_ConfigDownBuffer
                0x0000000000000000       0xb4 ../../../external/rtt/librtt_nrf52840_xxAA.a(SEGGER_RTT.c.obj)
 .text.SEGGER_RTT_SetNameUpBuffer
                0x0000000000000000       0x90 ../../../external/rtt/librtt_nrf52840_xxAA.a(SEGGER_RTT.c.obj)
 .text.SEGGER_RTT_SetNameDownBuffer
                0x0000000000000000       0x90 ../../../external/rtt/librtt_nrf52840_xxAA.a(SEGGER_RTT.c.obj)
 .text.SEGGER_RTT_Init
                0x0000000000000000       0x64 ../../../external/rtt/librtt_nrf52840_xxAA.a(SEGGER_RTT.c.obj)
 .text.SEGGER_RTT_SetTerminal
                0x0000000000000000      0x16c ../../../external/rtt/librtt_nrf52840_xxAA.a(SEGGER_RTT.c.obj)
 .text.SEGGER_RTT_TerminalOut
                0x0000000000000000      0x4d8 ../../../external/rtt/librtt_nrf52840_xxAA.a(SEGGER_RTT.c.obj)
 .bss._ActiveTerminal
                0x0000000000000000        0x1 ../../../external/rtt/librtt_nrf52840_xxAA.a(SEGGER_RTT.c.obj)
 .rodata._aTerminalId
                0x0000000000000000       0x10 ../../../external/rtt/librtt_nrf52840_xxAA.a(SEGGER_RTT.c.obj)
 .text          0x0000000000000000        0x0 ../../../external/rtt/librtt_nrf52840_xxAA.a(SEGGER_RTT_printf.c.obj)
 .data          0x0000000000000000        0x0 ../../../external/rtt/librtt_nrf52840_xxAA.a(SEGGER_RTT_printf.c.obj)
 .bss           0x0000000000000000        0x0 ../../../external/rtt/librtt_nrf52840_xxAA.a(SEGGER_RTT_printf.c.obj)
 .text          0x0000000000000000        0x0 ../../../external/micro-ecc/libuECC_nrf52840_xxAA.a(uECC.c.obj)
 .data          0x0000000000000000        0x0 ../../../external/micro-ecc/libuECC_nrf52840_xxAA.a(uECC.c.obj)
 .bss           0x0000000000000000        0x0 ../../../external/micro-ecc/libuECC_nrf52840_xxAA.a(uECC.c.obj)
 .text.HMAC_finish
                0x0000000000000000       0x70 ../../../external/micro-ecc/libuECC_nrf52840_xxAA.a(uECC.c.obj)
 .text.uECC_vli_mmod
                0x0000000000000000      0x418 ../../../external/micro-ecc/libuECC_nrf52840_xxAA.a(uECC.c.obj)
 .text.uECC_vli_modSub.isra.2
                0x0000000000000000       0x98 ../../../external/micro-ecc/libuECC_nrf52840_xxAA.a(uECC.c.obj)
 .text.bits2int
                0x0000000000000000      0x160 ../../../external/micro-ecc/libuECC_nrf52840_xxAA.a(uECC.c.obj)
 .text.uECC_sign_with_k
                0x0000000000000000      0x630 ../../../external/micro-ecc/libuECC_nrf52840_xxAA.a(uECC.c.obj)
 .text.uECC_set_rng
                0x0000000000000000        0xc ../../../external/micro-ecc/libuECC_nrf52840_xxAA.a(uECC.c.obj)
 .text.uECC_get_rng
                0x0000000000000000        0xc ../../../external/micro-ecc/libuECC_nrf52840_xxAA.a(uECC.c.obj)
 .text.uECC_curve_private_key_size
                0x0000000000000000       0x10 ../../../external/micro-ecc/libuECC_nrf52840_xxAA.a(uECC.c.obj)
 .text.uECC_curve_public_key_size
                0x0000000000000000        0x8 ../../../external/micro-ecc/libuECC_nrf52840_xxAA.a(uECC.c.obj)
 .text.uECC_valid_point
                0x0000000000000000      0x154 ../../../external/micro-ecc/libuECC_nrf52840_xxAA.a(uECC.c.obj)
 .text.uECC_compute_public_key
                0x0000000000000000      0x2e8 ../../../external/micro-ecc/libuECC_nrf52840_xxAA.a(uECC.c.obj)
 .text.uECC_sign
                0x0000000000000000       0x5c ../../../external/micro-ecc/libuECC_nrf52840_xxAA.a(uECC.c.obj)
 .text.uECC_sign_deterministic
                0x0000000000000000      0x414 ../../../external/micro-ecc/libuECC_nrf52840_xxAA.a(uECC.c.obj)
 .text.uECC_verify
                0x0000000000000000      0x960 ../../../external/micro-ecc/libuECC_nrf52840_xxAA.a(uECC.c.obj)
 .text          0x0000000000000000       0xa0 /usr/bin/../lib/gcc/arm-none-eabi/7.2.1/thumb/v7e-m/fpv4-sp/hard/libgcc.a(_aeabi_ldivmod.o)
 .data          0x0000000000000000        0x0 /usr/bin/../lib/gcc/arm-none-eabi/7.2.1/thumb/v7e-m/fpv4-sp/hard/libgcc.a(_aeabi_ldivmod.o)
 .bss           0x0000000000000000        0x0 /usr/bin/../lib/gcc/arm-none-eabi/7.2.1/thumb/v7e-m/fpv4-sp/hard/libgcc.a(_aeabi_ldivmod.o)
 .debug_frame   0x0000000000000000       0x44 /usr/bin/../lib/gcc/arm-none-eabi/7.2.1/thumb/v7e-m/fpv4-sp/hard/libgcc.a(_aeabi_ldivmod.o)
 .ARM.attributes
                0x0000000000000000       0x22 /usr/bin/../lib/gcc/arm-none-eabi/7.2.1/thumb/v7e-m/fpv4-sp/hard/libgcc.a(_aeabi_ldivmod.o)
 .data          0x0000000000000000        0x0 /usr/bin/../lib/gcc/arm-none-eabi/7.2.1/thumb/v7e-m/fpv4-sp/hard/libgcc.a(_aeabi_uldivmod.o)
 .bss           0x0000000000000000        0x0 /usr/bin/../lib/gcc/arm-none-eabi/7.2.1/thumb/v7e-m/fpv4-sp/hard/libgcc.a(_aeabi_uldivmod.o)
 .data          0x0000000000000000        0x0 /usr/bin/../lib/gcc/arm-none-eabi/7.2.1/thumb/v7e-m/fpv4-sp/hard/libgcc.a(_udivmoddi4.o)
 .bss           0x0000000000000000        0x0 /usr/bin/../lib/gcc/arm-none-eabi/7.2.1/thumb/v7e-m/fpv4-sp/hard/libgcc.a(_udivmoddi4.o)
 .ARM.extab     0x0000000000000000        0x0 /usr/bin/../lib/gcc/arm-none-eabi/7.2.1/thumb/v7e-m/fpv4-sp/hard/libgcc.a(_udivmoddi4.o)
 .data          0x0000000000000000        0x0 /usr/bin/../lib/gcc/arm-none-eabi/7.2.1/thumb/v7e-m/fpv4-sp/hard/libgcc.a(_dvmd_tls.o)
 .bss           0x0000000000000000        0x0 /usr/bin/../lib/gcc/arm-none-eabi/7.2.1/thumb/v7e-m/fpv4-sp/hard/libgcc.a(_dvmd_tls.o)
 .text          0x0000000000000000        0x0 /usr/bin/../lib/gcc/arm-none-eabi/7.2.1/../../../../arm-none-eabi/lib/thumb/v7e-m/fpv4-sp/hard/libg_nano.a(lib_a-exit.o)
 .data          0x0000000000000000        0x0 /usr/bin/../lib/gcc/arm-none-eabi/7.2.1/../../../../arm-none-eabi/lib/thumb/v7e-m/fpv4-sp/hard/libg_nano.a(lib_a-exit.o)
 .bss           0x0000000000000000        0x0 /usr/bin/../lib/gcc/arm-none-eabi/7.2.1/../../../../arm-none-eabi/lib/thumb/v7e-m/fpv4-sp/hard/libg_nano.a(lib_a-exit.o)
 .text          0x0000000000000000        0x0 /usr/bin/../lib/gcc/arm-none-eabi/7.2.1/../../../../arm-none-eabi/lib/thumb/v7e-m/fpv4-sp/hard/libg_nano.a(lib_a-impure.o)
 .data          0x0000000000000000        0x0 /usr/bin/../lib/gcc/arm-none-eabi/7.2.1/../../../../arm-none-eabi/lib/thumb/v7e-m/fpv4-sp/hard/libg_nano.a(lib_a-impure.o)
 .bss           0x0000000000000000        0x0 /usr/bin/../lib/gcc/arm-none-eabi/7.2.1/../../../../arm-none-eabi/lib/thumb/v7e-m/fpv4-sp/hard/libg_nano.a(lib_a-impure.o)
 .text          0x0000000000000000        0x0 /usr/bin/../lib/gcc/arm-none-eabi/7.2.1/../../../../arm-none-eabi/lib/thumb/v7e-m/fpv4-sp/hard/libg_nano.a(lib_a-init.o)
 .data          0x0000000000000000        0x0 /usr/bin/../lib/gcc/arm-none-eabi/7.2.1/../../../../arm-none-eabi/lib/thumb/v7e-m/fpv4-sp/hard/libg_nano.a(lib_a-init.o)
 .bss           0x0000000000000000        0x0 /usr/bin/../lib/gcc/arm-none-eabi/7.2.1/../../../../arm-none-eabi/lib/thumb/v7e-m/fpv4-sp/hard/libg_nano.a(lib_a-init.o)
 .text          0x0000000000000000        0x0 /usr/bin/../lib/gcc/arm-none-eabi/7.2.1/../../../../arm-none-eabi/lib/thumb/v7e-m/fpv4-sp/hard/libg_nano.a(lib_a-malloc.o)
 .data          0x0000000000000000        0x0 /usr/bin/../lib/gcc/arm-none-eabi/7.2.1/../../../../arm-none-eabi/lib/thumb/v7e-m/fpv4-sp/hard/libg_nano.a(lib_a-malloc.o)
 .bss           0x0000000000000000        0x0 /usr/bin/../lib/gcc/arm-none-eabi/7.2.1/../../../../arm-none-eabi/lib/thumb/v7e-m/fpv4-sp/hard/libg_nano.a(lib_a-malloc.o)
 .text          0x0000000000000000        0x0 /usr/bin/../lib/gcc/arm-none-eabi/7.2.1/../../../../arm-none-eabi/lib/thumb/v7e-m/fpv4-sp/hard/libg_nano.a(lib_a-memcmp.o)
 .data          0x0000000000000000        0x0 /usr/bin/../lib/gcc/arm-none-eabi/7.2.1/../../../../arm-none-eabi/lib/thumb/v7e-m/fpv4-sp/hard/libg_nano.a(lib_a-memcmp.o)
 .bss           0x0000000000000000        0x0 /usr/bin/../lib/gcc/arm-none-eabi/7.2.1/../../../../arm-none-eabi/lib/thumb/v7e-m/fpv4-sp/hard/libg_nano.a(lib_a-memcmp.o)
 .text          0x0000000000000000        0x0 /usr/bin/../lib/gcc/arm-none-eabi/7.2.1/../../../../arm-none-eabi/lib/thumb/v7e-m/fpv4-sp/hard/libg_nano.a(lib_a-memcpy-stub.o)
 .data          0x0000000000000000        0x0 /usr/bin/../lib/gcc/arm-none-eabi/7.2.1/../../../../arm-none-eabi/lib/thumb/v7e-m/fpv4-sp/hard/libg_nano.a(lib_a-memcpy-stub.o)
 .bss           0x0000000000000000        0x0 /usr/bin/../lib/gcc/arm-none-eabi/7.2.1/../../../../arm-none-eabi/lib/thumb/v7e-m/fpv4-sp/hard/libg_nano.a(lib_a-memcpy-stub.o)
 .text          0x0000000000000000        0x0 /usr/bin/../lib/gcc/arm-none-eabi/7.2.1/../../../../arm-none-eabi/lib/thumb/v7e-m/fpv4-sp/hard/libg_nano.a(lib_a-memset.o)
 .data          0x0000000000000000        0x0 /usr/bin/../lib/gcc/arm-none-eabi/7.2.1/../../../../arm-none-eabi/lib/thumb/v7e-m/fpv4-sp/hard/libg_nano.a(lib_a-memset.o)
 .bss           0x0000000000000000        0x0 /usr/bin/../lib/gcc/arm-none-eabi/7.2.1/../../../../arm-none-eabi/lib/thumb/v7e-m/fpv4-sp/hard/libg_nano.a(lib_a-memset.o)
 .text          0x0000000000000000        0x0 /usr/bin/../lib/gcc/arm-none-eabi/7.2.1/../../../../arm-none-eabi/lib/thumb/v7e-m/fpv4-sp/hard/libg_nano.a(lib_a-nano-freer.o)
 .data          0x0000000000000000        0x0 /usr/bin/../lib/gcc/arm-none-eabi/7.2.1/../../../../arm-none-eabi/lib/thumb/v7e-m/fpv4-sp/hard/libg_nano.a(lib_a-nano-freer.o)
 .bss           0x0000000000000000        0x0 /usr/bin/../lib/gcc/arm-none-eabi/7.2.1/../../../../arm-none-eabi/lib/thumb/v7e-m/fpv4-sp/hard/libg_nano.a(lib_a-nano-freer.o)
 .text          0x0000000000000000        0x0 /usr/bin/../lib/gcc/arm-none-eabi/7.2.1/../../../../arm-none-eabi/lib/thumb/v7e-m/fpv4-sp/hard/libg_nano.a(lib_a-nano-mallocr.o)
 .data          0x0000000000000000        0x0 /usr/bin/../lib/gcc/arm-none-eabi/7.2.1/../../../../arm-none-eabi/lib/thumb/v7e-m/fpv4-sp/hard/libg_nano.a(lib_a-nano-mallocr.o)
 .bss           0x0000000000000000        0x0 /usr/bin/../lib/gcc/arm-none-eabi/7.2.1/../../../../arm-none-eabi/lib/thumb/v7e-m/fpv4-sp/hard/libg_nano.a(lib_a-nano-mallocr.o)
 .text          0x0000000000000000        0x0 /usr/bin/../lib/gcc/arm-none-eabi/7.2.1/../../../../arm-none-eabi/lib/thumb/v7e-m/fpv4-sp/hard/libg_nano.a(lib_a-sbrkr.o)
 .data          0x0000000000000000        0x0 /usr/bin/../lib/gcc/arm-none-eabi/7.2.1/../../../../arm-none-eabi/lib/thumb/v7e-m/fpv4-sp/hard/libg_nano.a(lib_a-sbrkr.o)
 .bss           0x0000000000000000        0x0 /usr/bin/../lib/gcc/arm-none-eabi/7.2.1/../../../../arm-none-eabi/lib/thumb/v7e-m/fpv4-sp/hard/libg_nano.a(lib_a-sbrkr.o)
 .text          0x0000000000000000        0x0 /usr/bin/../lib/gcc/arm-none-eabi/7.2.1/../../../../arm-none-eabi/lib/thumb/v7e-m/fpv4-sp/hard/libg_nano.a(lib_a-strcpy.o)
 .data          0x0000000000000000        0x0 /usr/bin/../lib/gcc/arm-none-eabi/7.2.1/../../../../arm-none-eabi/lib/thumb/v7e-m/fpv4-sp/hard/libg_nano.a(lib_a-strcpy.o)
 .bss           0x0000000000000000        0x0 /usr/bin/../lib/gcc/arm-none-eabi/7.2.1/../../../../arm-none-eabi/lib/thumb/v7e-m/fpv4-sp/hard/libg_nano.a(lib_a-strcpy.o)
 .data          0x0000000000000000        0x0 /usr/bin/../lib/gcc/arm-none-eabi/7.2.1/../../../../arm-none-eabi/lib/thumb/v7e-m/fpv4-sp/hard/libg_nano.a(lib_a-strlen.o)
 .bss           0x0000000000000000        0x0 /usr/bin/../lib/gcc/arm-none-eabi/7.2.1/../../../../arm-none-eabi/lib/thumb/v7e-m/fpv4-sp/hard/libg_nano.a(lib_a-strlen.o)
 .text          0x0000000000000000        0x0 /usr/bin/../lib/gcc/arm-none-eabi/7.2.1/../../../../arm-none-eabi/lib/thumb/v7e-m/fpv4-sp/hard/libg_nano.a(lib_a-strrchr.o)
 .data          0x0000000000000000        0x0 /usr/bin/../lib/gcc/arm-none-eabi/7.2.1/../../../../arm-none-eabi/lib/thumb/v7e-m/fpv4-sp/hard/libg_nano.a(lib_a-strrchr.o)
 .bss           0x0000000000000000        0x0 /usr/bin/../lib/gcc/arm-none-eabi/7.2.1/../../../../arm-none-eabi/lib/thumb/v7e-m/fpv4-sp/hard/libg_nano.a(lib_a-strrchr.o)
 .text          0x0000000000000000        0x0 /usr/bin/../lib/gcc/arm-none-eabi/7.2.1/../../../../arm-none-eabi/lib/thumb/v7e-m/fpv4-sp/hard/libg_nano.a(lib_a-mlock.o)
 .data          0x0000000000000000        0x0 /usr/bin/../lib/gcc/arm-none-eabi/7.2.1/../../../../arm-none-eabi/lib/thumb/v7e-m/fpv4-sp/hard/libg_nano.a(lib_a-mlock.o)
 .bss           0x0000000000000000        0x0 /usr/bin/../lib/gcc/arm-none-eabi/7.2.1/../../../../arm-none-eabi/lib/thumb/v7e-m/fpv4-sp/hard/libg_nano.a(lib_a-mlock.o)
 .text          0x0000000000000000        0x0 /usr/bin/../lib/gcc/arm-none-eabi/7.2.1/../../../../arm-none-eabi/lib/thumb/v7e-m/fpv4-sp/hard/libg_nano.a(lib_a-reent.o)
 .data          0x0000000000000000        0x0 /usr/bin/../lib/gcc/arm-none-eabi/7.2.1/../../../../arm-none-eabi/lib/thumb/v7e-m/fpv4-sp/hard/libg_nano.a(lib_a-reent.o)
 .bss           0x0000000000000000        0x0 /usr/bin/../lib/gcc/arm-none-eabi/7.2.1/../../../../arm-none-eabi/lib/thumb/v7e-m/fpv4-sp/hard/libg_nano.a(lib_a-reent.o)
 .text.cleanup_glue
                0x0000000000000000       0x1a /usr/bin/../lib/gcc/arm-none-eabi/7.2.1/../../../../arm-none-eabi/lib/thumb/v7e-m/fpv4-sp/hard/libg_nano.a(lib_a-reent.o)
 .text._reclaim_reent
                0x0000000000000000       0xb8 /usr/bin/../lib/gcc/arm-none-eabi/7.2.1/../../../../arm-none-eabi/lib/thumb/v7e-m/fpv4-sp/hard/libg_nano.a(lib_a-reent.o)
 .text          0x0000000000000000        0x0 /usr/bin/../lib/gcc/arm-none-eabi/7.2.1/../../../../arm-none-eabi/lib/thumb/v7e-m/fpv4-sp/hard/libg_nano.a(lib_a-strchr.o)
 .data          0x0000000000000000        0x0 /usr/bin/../lib/gcc/arm-none-eabi/7.2.1/../../../../arm-none-eabi/lib/thumb/v7e-m/fpv4-sp/hard/libg_nano.a(lib_a-strchr.o)
 .bss           0x0000000000000000        0x0 /usr/bin/../lib/gcc/arm-none-eabi/7.2.1/../../../../arm-none-eabi/lib/thumb/v7e-m/fpv4-sp/hard/libg_nano.a(lib_a-strchr.o)
 .text          0x0000000000000000        0x0 /usr/bin/../lib/gcc/arm-none-eabi/7.2.1/thumb/v7e-m/fpv4-sp/hard/crtend.o
 .data          0x0000000000000000        0x0 /usr/bin/../lib/gcc/arm-none-eabi/7.2.1/thumb/v7e-m/fpv4-sp/hard/crtend.o
 .bss           0x0000000000000000        0x0 /usr/bin/../lib/gcc/arm-none-eabi/7.2.1/thumb/v7e-m/fpv4-sp/hard/crtend.o
 .text          0x0000000000000000        0x0 /usr/bin/../lib/gcc/arm-none-eabi/7.2.1/thumb/v7e-m/fpv4-sp/hard/crtn.o
 .data          0x0000000000000000        0x0 /usr/bin/../lib/gcc/arm-none-eabi/7.2.1/thumb/v7e-m/fpv4-sp/hard/crtn.o
 .bss           0x0000000000000000        0x0 /usr/bin/../lib/gcc/arm-none-eabi/7.2.1/thumb/v7e-m/fpv4-sp/hard/crtn.o
 .text          0x0000000000000000        0x0 /usr/bin/../lib/gcc/arm-none-eabi/7.2.1/../../../../arm-none-eabi/lib/thumb/v7e-m/fpv4-sp/hard/libnosys.a(sbrk.o)
 .data          0x0000000000000000        0x0 /usr/bin/../lib/gcc/arm-none-eabi/7.2.1/../../../../arm-none-eabi/lib/thumb/v7e-m/fpv4-sp/hard/libnosys.a(sbrk.o)
 .bss           0x0000000000000000        0x0 /usr/bin/../lib/gcc/arm-none-eabi/7.2.1/../../../../arm-none-eabi/lib/thumb/v7e-m/fpv4-sp/hard/libnosys.a(sbrk.o)
 .text          0x0000000000000000        0x0 /usr/bin/../lib/gcc/arm-none-eabi/7.2.1/../../../../arm-none-eabi/lib/thumb/v7e-m/fpv4-sp/hard/libnosys.a(_exit.o)
 .data          0x0000000000000000        0x0 /usr/bin/../lib/gcc/arm-none-eabi/7.2.1/../../../../arm-none-eabi/lib/thumb/v7e-m/fpv4-sp/hard/libnosys.a(_exit.o)
 .bss           0x0000000000000000        0x0 /usr/bin/../lib/gcc/arm-none-eabi/7.2.1/../../../../arm-none-eabi/lib/thumb/v7e-m/fpv4-sp/hard/libnosys.a(_exit.o)

Memory Configuration

Name             Origin             Length             Attributes
FLASH            0x0000000000026000 0x00000000000d1000 xr
RAM              0x00000000200032c8 0x000000000003ca38 xrw
*default*        0x0000000000000000 0xffffffffffffffff

Linker script and memory map


.text           0x0000000000026000    0x1eba0
 *(.isr_vector)
 .isr_vector    0x0000000000026000      0x200 CMakeFiles/pb_remote_client_nrf52840_xxAA_s140_6.0.0.dir/home/mazzer/work/nordic/sdk/nRF5_SDK_15.0.0/modules/nrfx/mdk/gcc_startup_nrf52840.S.obj
                0x0000000000026000                __isr_vector
 *(.text*)
 .text          0x0000000000026200       0x40 /usr/bin/../lib/gcc/arm-none-eabi/7.2.1/thumb/v7e-m/fpv4-sp/hard/crtbegin.o
 .text          0x0000000000026240       0x74 /usr/bin/../lib/gcc/arm-none-eabi/7.2.1/../../../../arm-none-eabi/lib/thumb/v7e-m/fpv4-sp/hard/crt0.o
                0x0000000000026240                _mainCRTStartup
                0x0000000000026240                _start
 .text.sd_app_evt_wait
                0x00000000000262b4        0x4 CMakeFiles/pb_remote_client_nrf52840_xxAA_s140_6.0.0.dir/src/main.c.obj
 .text.prov_evt_handler
                0x00000000000262b8      0x3b0 CMakeFiles/pb_remote_client_nrf52840_xxAA_s140_6.0.0.dir/src/main.c.obj
 .text.models_init_cb
                0x0000000000026668       0x74 CMakeFiles/pb_remote_client_nrf52840_xxAA_s140_6.0.0.dir/src/main.c.obj
 .text.remote_client_event_cb
                0x00000000000266dc      0x390 CMakeFiles/pb_remote_client_nrf52840_xxAA_s140_6.0.0.dir/src/main.c.obj
 .text.user_input_handler
                0x0000000000026a6c      0x494 CMakeFiles/pb_remote_client_nrf52840_xxAA_s140_6.0.0.dir/src/main.c.obj
 .text.startup.main
                0x0000000000026f00      0x308 CMakeFiles/pb_remote_client_nrf52840_xxAA_s140_6.0.0.dir/src/main.c.obj
                0x0000000000026f00                main
 .text.mesh_stack_init
                0x0000000000027208       0x94 CMakeFiles/pb_remote_client_nrf52840_xxAA_s140_6.0.0.dir/__/__/__/mesh/stack/src/mesh_stack.c.obj
                0x0000000000027208                mesh_stack_init
 .text.mesh_stack_start
                0x000000000002729c        0x4 CMakeFiles/pb_remote_client_nrf52840_xxAA_s140_6.0.0.dir/__/__/__/mesh/stack/src/mesh_stack.c.obj
                0x000000000002729c                mesh_stack_start
 .text.mesh_stack_config_clear
                0x00000000000272a0       0x14 CMakeFiles/pb_remote_client_nrf52840_xxAA_s140_6.0.0.dir/__/__/__/mesh/stack/src/mesh_stack.c.obj
                0x00000000000272a0                mesh_stack_config_clear
 .text.sd_evt_get
                0x00000000000272b4        0x4 CMakeFiles/pb_remote_client_nrf52840_xxAA_s140_6.0.0.dir/__/__/common/src/mesh_softdevice_init.c.obj
 .text.sd_softdevice_enable
                0x00000000000272b8        0x4 CMakeFiles/pb_remote_client_nrf52840_xxAA_s140_6.0.0.dir/__/__/common/src/mesh_softdevice_init.c.obj
 .text.sd_ble_enable
                0x00000000000272bc        0x4 CMakeFiles/pb_remote_client_nrf52840_xxAA_s140_6.0.0.dir/__/__/common/src/mesh_softdevice_init.c.obj
 .text.SWI2_EGU2_IRQHandler
                0x00000000000272c0       0x1c CMakeFiles/pb_remote_client_nrf52840_xxAA_s140_6.0.0.dir/__/__/common/src/mesh_softdevice_init.c.obj
                0x00000000000272c0                SWI2_EGU2_IRQHandler
 .text.mesh_softdevice_init
                0x00000000000272dc      0x1f8 CMakeFiles/pb_remote_client_nrf52840_xxAA_s140_6.0.0.dir/__/__/common/src/mesh_softdevice_init.c.obj
                0x00000000000272dc                mesh_softdevice_init
 .text.TIMER2_IRQHandler
                0x00000000000274d4       0x3c CMakeFiles/pb_remote_client_nrf52840_xxAA_s140_6.0.0.dir/__/__/common/src/rtt_input.c.obj
                0x00000000000274d4                TIMER2_IRQHandler
 .text.rtt_input_enable
                0x0000000000027510       0x5c CMakeFiles/pb_remote_client_nrf52840_xxAA_s140_6.0.0.dir/__/__/common/src/rtt_input.c.obj
                0x0000000000027510                rtt_input_enable
 .text.hal_led_mask_set
                0x000000000002756c       0x14 CMakeFiles/pb_remote_client_nrf52840_xxAA_s140_6.0.0.dir/__/__/common/src/simple_hal.c.obj
                0x000000000002756c                hal_led_mask_set
 .text.hal_led_blink_ms
                0x0000000000027580       0x50 CMakeFiles/pb_remote_client_nrf52840_xxAA_s140_6.0.0.dir/__/__/common/src/simple_hal.c.obj
                0x0000000000027580                hal_led_blink_ms
 .text.GPIOTE_IRQHandler
                0x00000000000275d0       0x70 CMakeFiles/pb_remote_client_nrf52840_xxAA_s140_6.0.0.dir/__/__/common/src/simple_hal.c.obj
                0x00000000000275d0                GPIOTE_IRQHandler
 .text.pb_remote_client_event_transfer_status_cb
                0x0000000000027640       0xb0 CMakeFiles/pb_remote_client_nrf52840_xxAA_s140_6.0.0.dir/__/__/__/models/pb_remote/src/pb_remote_client.c.obj
 .text.pb_remote_client_event_link_status_cb
                0x00000000000276f0      0x27c CMakeFiles/pb_remote_client_nrf52840_xxAA_s140_6.0.0.dir/__/__/__/models/pb_remote/src/pb_remote_client.c.obj
 .text.pb_remote_client_event_scan_status_cb
                0x000000000002796c      0x198 CMakeFiles/pb_remote_client_nrf52840_xxAA_s140_6.0.0.dir/__/__/__/models/pb_remote/src/pb_remote_client.c.obj
 .text.pb_remote_client_event_unprov_number_cb
                0x0000000000027b04       0x78 CMakeFiles/pb_remote_client_nrf52840_xxAA_s140_6.0.0.dir/__/__/__/models/pb_remote/src/pb_remote_client.c.obj
 .text.pb_remote_client_event_tx_failed_cb
                0x0000000000027b7c       0x60 CMakeFiles/pb_remote_client_nrf52840_xxAA_s140_6.0.0.dir/__/__/__/models/pb_remote/src/pb_remote_client.c.obj
 .text.pb_remote_client_process.part.9
                0x0000000000027bdc      0x128 CMakeFiles/pb_remote_client_nrf52840_xxAA_s140_6.0.0.dir/__/__/__/models/pb_remote/src/pb_remote_client.c.obj
 .text.client_reliable_status_cb
                0x0000000000027d04      0x188 CMakeFiles/pb_remote_client_nrf52840_xxAA_s140_6.0.0.dir/__/__/__/models/pb_remote/src/pb_remote_client.c.obj
 .text.pb_if_link_close_cb
                0x0000000000027e8c       0x48 CMakeFiles/pb_remote_client_nrf52840_xxAA_s140_6.0.0.dir/__/__/__/models/pb_remote/src/pb_remote_client.c.obj
 .text.pb_if_link_open_cb
                0x0000000000027ed4       0x60 CMakeFiles/pb_remote_client_nrf52840_xxAA_s140_6.0.0.dir/__/__/__/models/pb_remote/src/pb_remote_client.c.obj
 .text.pb_if_tx_cb
                0x0000000000027f34       0x54 CMakeFiles/pb_remote_client_nrf52840_xxAA_s140_6.0.0.dir/__/__/__/models/pb_remote/src/pb_remote_client.c.obj
 .text.pb_remote_client_event_prov_start_cb
                0x0000000000027f88       0x5c CMakeFiles/pb_remote_client_nrf52840_xxAA_s140_6.0.0.dir/__/__/__/models/pb_remote/src/pb_remote_client.c.obj
 .text.pb_remote_client_event_local_packet_cb
                0x0000000000027fe4       0xe0 CMakeFiles/pb_remote_client_nrf52840_xxAA_s140_6.0.0.dir/__/__/__/models/pb_remote/src/pb_remote_client.c.obj
 .text.pb_remote_client_event_link_close_cb
                0x00000000000280c4       0xc4 CMakeFiles/pb_remote_client_nrf52840_xxAA_s140_6.0.0.dir/__/__/__/models/pb_remote/src/pb_remote_client.c.obj
 .text.pb_remote_client_event_scan_cancel_cb
                0x0000000000028188       0xc0 CMakeFiles/pb_remote_client_nrf52840_xxAA_s140_6.0.0.dir/__/__/__/models/pb_remote/src/pb_remote_client.c.obj
 .text.pb_remote_client_event_scan_start_cb
                0x0000000000028248       0xc0 CMakeFiles/pb_remote_client_nrf52840_xxAA_s140_6.0.0.dir/__/__/__/models/pb_remote/src/pb_remote_client.c.obj
 .text.pb_remote_client_event_link_status_report_cb
                0x0000000000028308      0x1c4 CMakeFiles/pb_remote_client_nrf52840_xxAA_s140_6.0.0.dir/__/__/__/models/pb_remote/src/pb_remote_client.c.obj
 .text.pb_remote_client_event_packet_transfer_cb
                0x00000000000284cc      0x10c CMakeFiles/pb_remote_client_nrf52840_xxAA_s140_6.0.0.dir/__/__/__/models/pb_remote/src/pb_remote_client.c.obj
 .text.pb_remote_client_event_unprov_uuid_cb
                0x00000000000285d8       0xfc CMakeFiles/pb_remote_client_nrf52840_xxAA_s140_6.0.0.dir/__/__/__/models/pb_remote/src/pb_remote_client.c.obj
 .text.pb_remote_client_event_transfer_status_report_cb
                0x00000000000286d4      0x184 CMakeFiles/pb_remote_client_nrf52840_xxAA_s140_6.0.0.dir/__/__/__/models/pb_remote/src/pb_remote_client.c.obj
 .text.remote_client_access_rx_cb
                0x0000000000028858      0x1f0 CMakeFiles/pb_remote_client_nrf52840_xxAA_s140_6.0.0.dir/__/__/__/models/pb_remote/src/pb_remote_client.c.obj
 .text.pb_remote_client_init
                0x0000000000028a48       0x88 CMakeFiles/pb_remote_client_nrf52840_xxAA_s140_6.0.0.dir/__/__/__/models/pb_remote/src/pb_remote_client.c.obj
                0x0000000000028a48                pb_remote_client_init
 .text.pb_remote_client_remote_scan_start
                0x0000000000028ad0       0x54 CMakeFiles/pb_remote_client_nrf52840_xxAA_s140_6.0.0.dir/__/__/__/models/pb_remote/src/pb_remote_client.c.obj
                0x0000000000028ad0                pb_remote_client_remote_scan_start
 .text.pb_remote_client_remote_scan_cancel
                0x0000000000028b24       0x54 CMakeFiles/pb_remote_client_nrf52840_xxAA_s140_6.0.0.dir/__/__/__/models/pb_remote/src/pb_remote_client.c.obj
                0x0000000000028b24                pb_remote_client_remote_scan_cancel
 .text.pb_remote_client_bearer_interface_get
                0x0000000000028b78       0x20 CMakeFiles/pb_remote_client_nrf52840_xxAA_s140_6.0.0.dir/__/__/__/models/pb_remote/src/pb_remote_client.c.obj
                0x0000000000028b78                pb_remote_client_bearer_interface_get
 .text.prov_provisioner_cb_link_closed
                0x0000000000028b98       0x2c CMakeFiles/pb_remote_client_nrf52840_xxAA_s140_6.0.0.dir/__/__/__/mesh/prov/src/prov_provisioner.c.obj
 .text.prov_provisioner_cb_link_established
                0x0000000000028bc4       0x40 CMakeFiles/pb_remote_client_nrf52840_xxAA_s140_6.0.0.dir/__/__/__/mesh/prov/src/prov_provisioner.c.obj
 .text.request_authentication
                0x0000000000028c04       0xa8 CMakeFiles/pb_remote_client_nrf52840_xxAA_s140_6.0.0.dir/__/__/__/mesh/prov/src/prov_provisioner.c.obj
 .text.prov_provisioner_pkt_in
                0x0000000000028cac      0x298 CMakeFiles/pb_remote_client_nrf52840_xxAA_s140_6.0.0.dir/__/__/__/mesh/prov/src/prov_provisioner.c.obj
 .text.prov_provisioner_cb_ack_received
                0x0000000000028f44       0x90 CMakeFiles/pb_remote_client_nrf52840_xxAA_s140_6.0.0.dir/__/__/__/mesh/prov/src/prov_provisioner.c.obj
 .text.prov_provisioner_provision
                0x0000000000028fd4       0x44 CMakeFiles/pb_remote_client_nrf52840_xxAA_s140_6.0.0.dir/__/__/__/mesh/prov/src/prov_provisioner.c.obj
                0x0000000000028fd4                prov_provisioner_provision
 .text.prov_provisioner_oob_use
                0x0000000000029018       0xac CMakeFiles/pb_remote_client_nrf52840_xxAA_s140_6.0.0.dir/__/__/__/mesh/prov/src/prov_provisioner.c.obj
                0x0000000000029018                prov_provisioner_oob_use
 .text.prov_provisioner_auth_data
                0x00000000000290c4       0xe8 CMakeFiles/pb_remote_client_nrf52840_xxAA_s140_6.0.0.dir/__/__/__/mesh/prov/src/prov_provisioner.c.obj
                0x00000000000290c4                prov_provisioner_auth_data
 .text.bearer_compare_callback
                0x00000000000291ac       0x10 CMakeFiles/pb_remote_client_nrf52840_xxAA_s140_6.0.0.dir/__/__/__/mesh/prov/src/nrf_mesh_prov.c.obj
 .text.nrf_mesh_prov_init
                0x00000000000291bc       0x3c CMakeFiles/pb_remote_client_nrf52840_xxAA_s140_6.0.0.dir/__/__/__/mesh/prov/src/nrf_mesh_prov.c.obj
                0x00000000000291bc                nrf_mesh_prov_init
 .text.nrf_mesh_prov_bearer_add
                0x00000000000291f8       0x2c CMakeFiles/pb_remote_client_nrf52840_xxAA_s140_6.0.0.dir/__/__/__/mesh/prov/src/nrf_mesh_prov.c.obj
                0x00000000000291f8                nrf_mesh_prov_bearer_add
 .text.nrf_mesh_prov_generate_keys
                0x0000000000029224        0x4 CMakeFiles/pb_remote_client_nrf52840_xxAA_s140_6.0.0.dir/__/__/__/mesh/prov/src/nrf_mesh_prov.c.obj
                0x0000000000029224                nrf_mesh_prov_generate_keys
 .text.nrf_mesh_prov_provision
                0x0000000000029228       0x68 CMakeFiles/pb_remote_client_nrf52840_xxAA_s140_6.0.0.dir/__/__/__/mesh/prov/src/nrf_mesh_prov.c.obj
                0x0000000000029228                nrf_mesh_prov_provision
 .text.nrf_mesh_prov_oob_use
                0x0000000000029290       0x18 CMakeFiles/pb_remote_client_nrf52840_xxAA_s140_6.0.0.dir/__/__/__/mesh/prov/src/nrf_mesh_prov.c.obj
                0x0000000000029290                nrf_mesh_prov_oob_use
 .text.nrf_mesh_prov_auth_data_provide
                0x00000000000292a8       0x10 CMakeFiles/pb_remote_client_nrf52840_xxAA_s140_6.0.0.dir/__/__/__/mesh/prov/src/nrf_mesh_prov.c.obj
                0x00000000000292a8                nrf_mesh_prov_auth_data_provide
 .text.nrf_mesh_prov_scan_start
                0x00000000000292b8       0x10 CMakeFiles/pb_remote_client_nrf52840_xxAA_s140_6.0.0.dir/__/__/__/mesh/prov/src/nrf_mesh_prov.c.obj
                0x00000000000292b8                nrf_mesh_prov_scan_start
 .text.prov_packet_length_valid
                0x00000000000292c8       0x20 CMakeFiles/pb_remote_client_nrf52840_xxAA_s140_6.0.0.dir/__/__/__/mesh/prov/src/provisioning.c.obj
                0x00000000000292c8                prov_packet_length_valid
 .text.prov_tx_invite
                0x00000000000292e8       0x38 CMakeFiles/pb_remote_client_nrf52840_xxAA_s140_6.0.0.dir/__/__/__/mesh/prov/src/provisioning.c.obj
                0x00000000000292e8                prov_tx_invite
 .text.prov_tx_start
                0x0000000000029320       0x38 CMakeFiles/pb_remote_client_nrf52840_xxAA_s140_6.0.0.dir/__/__/__/mesh/prov/src/provisioning.c.obj
                0x0000000000029320                prov_tx_start
 .text.prov_tx_public_key
                0x0000000000029358       0x30 CMakeFiles/pb_remote_client_nrf52840_xxAA_s140_6.0.0.dir/__/__/__/mesh/prov/src/provisioning.c.obj
                0x0000000000029358                prov_tx_public_key
 .text.prov_tx_confirmation
                0x0000000000029388       0x30 CMakeFiles/pb_remote_client_nrf52840_xxAA_s140_6.0.0.dir/__/__/__/mesh/prov/src/provisioning.c.obj
                0x0000000000029388                prov_tx_confirmation
 .text.prov_tx_random
                0x00000000000293b8       0x30 CMakeFiles/pb_remote_client_nrf52840_xxAA_s140_6.0.0.dir/__/__/__/mesh/prov/src/provisioning.c.obj
                0x00000000000293b8                prov_tx_random
 .text.prov_tx_data
                0x00000000000293e8       0x34 CMakeFiles/pb_remote_client_nrf52840_xxAA_s140_6.0.0.dir/__/__/__/mesh/prov/src/provisioning.c.obj
                0x00000000000293e8                prov_tx_data
 .text.prov_beacon_unprov_build
                0x000000000002941c       0x54 CMakeFiles/pb_remote_client_nrf52840_xxAA_s140_6.0.0.dir/__/__/__/mesh/prov/src/prov_beacon.c.obj
                0x000000000002941c                prov_beacon_unprov_build
 .text.prov_beacon_unprov_packet_in
                0x0000000000029470       0xd0 CMakeFiles/pb_remote_client_nrf52840_xxAA_s140_6.0.0.dir/__/__/__/mesh/prov/src/prov_beacon.c.obj
                0x0000000000029470                prov_beacon_unprov_packet_in
 .text.prov_beacon_scan_start
                0x0000000000029540       0x1c CMakeFiles/pb_remote_client_nrf52840_xxAA_s140_6.0.0.dir/__/__/__/mesh/prov/src/prov_beacon.c.obj
                0x0000000000029540                prov_beacon_scan_start
 .text.prov_utils_opt_set
                0x000000000002955c       0x24 CMakeFiles/pb_remote_client_nrf52840_xxAA_s140_6.0.0.dir/__/__/__/mesh/prov/src/prov_utils.c.obj
                0x000000000002955c                prov_utils_opt_set
 .text.prov_utils_opt_get
                0x0000000000029580       0x1c CMakeFiles/pb_remote_client_nrf52840_xxAA_s140_6.0.0.dir/__/__/__/mesh/prov/src/prov_utils.c.obj
                0x0000000000029580                prov_utils_opt_get
 .text.prov_utils_use_ecdh_offloading
                0x000000000002959c        0xc CMakeFiles/pb_remote_client_nrf52840_xxAA_s140_6.0.0.dir/__/__/__/mesh/prov/src/prov_utils.c.obj
                0x000000000002959c                prov_utils_use_ecdh_offloading
 .text.prov_utils_authentication_values_derive
                0x00000000000295a8       0xac CMakeFiles/pb_remote_client_nrf52840_xxAA_s140_6.0.0.dir/__/__/__/mesh/prov/src/prov_utils.c.obj
                0x00000000000295a8                prov_utils_authentication_values_derive
 .text.prov_utils_keys_generate
                0x0000000000029654       0x20 CMakeFiles/pb_remote_client_nrf52840_xxAA_s140_6.0.0.dir/__/__/__/mesh/prov/src/prov_utils.c.obj
                0x0000000000029654                prov_utils_keys_generate
 .text.prov_utils_derive_keys
                0x0000000000029674       0xb4 CMakeFiles/pb_remote_client_nrf52840_xxAA_s140_6.0.0.dir/__/__/__/mesh/prov/src/prov_utils.c.obj
                0x0000000000029674                prov_utils_derive_keys
 .text.prov_utils_calculate_shared_secret
                0x0000000000029728       0x34 CMakeFiles/pb_remote_client_nrf52840_xxAA_s140_6.0.0.dir/__/__/__/mesh/prov/src/prov_utils.c.obj
                0x0000000000029728                prov_utils_calculate_shared_secret
 .text.prov_utils_generate_oob_data
                0x000000000002975c      0x1b8 CMakeFiles/pb_remote_client_nrf52840_xxAA_s140_6.0.0.dir/__/__/__/mesh/prov/src/prov_utils.c.obj
                0x000000000002975c                prov_utils_generate_oob_data
 .text.prov_utils_confirmation_check
                0x0000000000029914       0x5c CMakeFiles/pb_remote_client_nrf52840_xxAA_s140_6.0.0.dir/__/__/__/mesh/prov/src/prov_utils.c.obj
                0x0000000000029914                prov_utils_confirmation_check
 .text.link_timeout_cb
                0x0000000000029970       0x10 CMakeFiles/pb_remote_client_nrf52840_xxAA_s140_6.0.0.dir/__/__/__/mesh/prov/src/prov_bearer_adv.c.obj
 .text.prov_bearer_adv_listen_stop
                0x0000000000029980       0x98 CMakeFiles/pb_remote_client_nrf52840_xxAA_s140_6.0.0.dir/__/__/__/mesh/prov/src/prov_bearer_adv.c.obj
 .text.tx_complete_cb
                0x0000000000029a18       0x20 CMakeFiles/pb_remote_client_nrf52840_xxAA_s140_6.0.0.dir/__/__/__/mesh/prov/src/prov_bearer_adv.c.obj
 .text.prov_bearer_adv_listen
                0x0000000000029a38      0x15c CMakeFiles/pb_remote_client_nrf52840_xxAA_s140_6.0.0.dir/__/__/__/mesh/prov/src/prov_bearer_adv.c.obj
 .text.close_link
                0x0000000000029b94       0xd8 CMakeFiles/pb_remote_client_nrf52840_xxAA_s140_6.0.0.dir/__/__/__/mesh/prov/src/prov_bearer_adv.c.obj
 .text.send_link_ack
                0x0000000000029c6c       0x70 CMakeFiles/pb_remote_client_nrf52840_xxAA_s140_6.0.0.dir/__/__/__/mesh/prov/src/prov_bearer_adv.c.obj
 .text.send_transaction_ack
                0x0000000000029cdc       0x68 CMakeFiles/pb_remote_client_nrf52840_xxAA_s140_6.0.0.dir/__/__/__/mesh/prov/src/prov_bearer_adv.c.obj
 .text.prov_buffer_rx
                0x0000000000029d44       0xa0 CMakeFiles/pb_remote_client_nrf52840_xxAA_s140_6.0.0.dir/__/__/__/mesh/prov/src/prov_bearer_adv.c.obj
 .text.prov_bearer_adv_link_open
                0x0000000000029de4      0x1b8 CMakeFiles/pb_remote_client_nrf52840_xxAA_s140_6.0.0.dir/__/__/__/mesh/prov/src/prov_bearer_adv.c.obj
 .text.prov_bearer_adv_link_close
                0x0000000000029f9c       0xcc CMakeFiles/pb_remote_client_nrf52840_xxAA_s140_6.0.0.dir/__/__/__/mesh/prov/src/prov_bearer_adv.c.obj
 .text.prov_buffer_tx
                0x000000000002a068      0x1e4 CMakeFiles/pb_remote_client_nrf52840_xxAA_s140_6.0.0.dir/__/__/__/mesh/prov/src/prov_bearer_adv.c.obj
 .text.tx_retry_cb
                0x000000000002a24c      0x130 CMakeFiles/pb_remote_client_nrf52840_xxAA_s140_6.0.0.dir/__/__/__/mesh/prov/src/prov_bearer_adv.c.obj
 .text.prov_bearer_adv_tx
                0x000000000002a37c       0xe8 CMakeFiles/pb_remote_client_nrf52840_xxAA_s140_6.0.0.dir/__/__/__/mesh/prov/src/prov_bearer_adv.c.obj
 .text.async_process
                0x000000000002a464      0x118 CMakeFiles/pb_remote_client_nrf52840_xxAA_s140_6.0.0.dir/__/__/__/mesh/prov/src/prov_bearer_adv.c.obj
 .text.nrf_mesh_prov_bearer_adv_interface_get
                0x000000000002a57c       0x40 CMakeFiles/pb_remote_client_nrf52840_xxAA_s140_6.0.0.dir/__/__/__/mesh/prov/src/prov_bearer_adv.c.obj
                0x000000000002a57c                nrf_mesh_prov_bearer_adv_interface_get
 .text.prov_bearer_adv_packet_in
                0x000000000002a5bc      0x914 CMakeFiles/pb_remote_client_nrf52840_xxAA_s140_6.0.0.dir/__/__/__/mesh/prov/src/prov_bearer_adv.c.obj
                0x000000000002a5bc                prov_bearer_adv_packet_in
 .text.config_composition_data_get
                0x000000000002aed0      0x1cc CMakeFiles/pb_remote_client_nrf52840_xxAA_s140_6.0.0.dir/__/__/__/models/config/src/composition_data.c.obj
                0x000000000002aed0                config_composition_data_get
 .text.config_server_heartbeat_publication_count_decrement
                0x000000000002b09c       0x1c CMakeFiles/pb_remote_client_nrf52840_xxAA_s140_6.0.0.dir/__/__/__/models/config/src/config_server.c.obj
 .text.config_server_heartbeat_publication_params_get
                0x000000000002b0b8       0x38 CMakeFiles/pb_remote_client_nrf52840_xxAA_s140_6.0.0.dir/__/__/__/models/config/src/config_server.c.obj
 .text.handle_config_network_transmit_set
                0x000000000002b0f0      0x118 CMakeFiles/pb_remote_client_nrf52840_xxAA_s140_6.0.0.dir/__/__/__/models/config/src/config_server.c.obj
 .text.handle_node_reset
                0x000000000002b208       0x30 CMakeFiles/pb_remote_client_nrf52840_xxAA_s140_6.0.0.dir/__/__/__/models/config/src/config_server.c.obj
 .text.handle_config_relay_set
                0x000000000002b238      0x1a8 CMakeFiles/pb_remote_client_nrf52840_xxAA_s140_6.0.0.dir/__/__/__/models/config/src/config_server.c.obj
 .text.send_subscription_status
                0x000000000002b3e0       0x50 CMakeFiles/pb_remote_client_nrf52840_xxAA_s140_6.0.0.dir/__/__/__/models/config/src/config_server.c.obj
 .text.handle_netkey_get
                0x000000000002b430       0x70 CMakeFiles/pb_remote_client_nrf52840_xxAA_s140_6.0.0.dir/__/__/__/models/config/src/config_server.c.obj
 .text.handle_model_app_bind_unbind
                0x000000000002b4a0      0x228 CMakeFiles/pb_remote_client_nrf52840_xxAA_s140_6.0.0.dir/__/__/__/models/config/src/config_server.c.obj
 .text.status_error_sub_send
                0x000000000002b6c8      0x180 CMakeFiles/pb_remote_client_nrf52840_xxAA_s140_6.0.0.dir/__/__/__/models/config/src/config_server.c.obj
 .text.send_publication_status
                0x000000000002b848      0x1a8 CMakeFiles/pb_remote_client_nrf52840_xxAA_s140_6.0.0.dir/__/__/__/models/config/src/config_server.c.obj
 .text.handle_config_key_refresh_phase_set
                0x000000000002b9f0       0xf0 CMakeFiles/pb_remote_client_nrf52840_xxAA_s140_6.0.0.dir/__/__/__/models/config/src/config_server.c.obj
 .text.handle_config_default_ttl_set
                0x000000000002bae0       0x70 CMakeFiles/pb_remote_client_nrf52840_xxAA_s140_6.0.0.dir/__/__/__/models/config/src/config_server.c.obj
 .text.handle_heartbeat_publication_set
                0x000000000002bb50      0x168 CMakeFiles/pb_remote_client_nrf52840_xxAA_s140_6.0.0.dir/__/__/__/models/config/src/config_server.c.obj
 .text.mesh_event_cb
                0x000000000002bcb8       0x70 CMakeFiles/pb_remote_client_nrf52840_xxAA_s140_6.0.0.dir/__/__/__/models/config/src/config_server.c.obj
 .text.handle_node_identity_set
                0x000000000002bd28       0x48 CMakeFiles/pb_remote_client_nrf52840_xxAA_s140_6.0.0.dir/__/__/__/models/config/src/config_server.c.obj
 .text.handle_node_identity_get
                0x000000000002bd70       0x44 CMakeFiles/pb_remote_client_nrf52840_xxAA_s140_6.0.0.dir/__/__/__/models/config/src/config_server.c.obj
 .text.handle_config_gatt_proxy_set
                0x000000000002bdb4       0x40 CMakeFiles/pb_remote_client_nrf52840_xxAA_s140_6.0.0.dir/__/__/__/models/config/src/config_server.c.obj
 .text.handle_config_friend_set
                0x000000000002bdf4       0x40 CMakeFiles/pb_remote_client_nrf52840_xxAA_s140_6.0.0.dir/__/__/__/models/config/src/config_server.c.obj
 .text.status_error_pub_send
                0x000000000002be34       0xc8 CMakeFiles/pb_remote_client_nrf52840_xxAA_s140_6.0.0.dir/__/__/__/models/config/src/config_server.c.obj
 .text.handle_config_key_refresh_phase_get
                0x000000000002befc       0x70 CMakeFiles/pb_remote_client_nrf52840_xxAA_s140_6.0.0.dir/__/__/__/models/config/src/config_server.c.obj
 .text.handle_config_default_ttl_get
                0x000000000002bf6c       0x48 CMakeFiles/pb_remote_client_nrf52840_xxAA_s140_6.0.0.dir/__/__/__/models/config/src/config_server.c.obj
 .text.handle_config_beacon_set
                0x000000000002bfb4       0x80 CMakeFiles/pb_remote_client_nrf52840_xxAA_s140_6.0.0.dir/__/__/__/models/config/src/config_server.c.obj
 .text.handle_composition_data_get
                0x000000000002c034       0x64 CMakeFiles/pb_remote_client_nrf52840_xxAA_s140_6.0.0.dir/__/__/__/models/config/src/config_server.c.obj
 .text.handle_appkey_update
                0x000000000002c098      0x108 CMakeFiles/pb_remote_client_nrf52840_xxAA_s140_6.0.0.dir/__/__/__/models/config/src/config_server.c.obj
 .text.handle_model_app_get
                0x000000000002c1a0      0x240 CMakeFiles/pb_remote_client_nrf52840_xxAA_s140_6.0.0.dir/__/__/__/models/config/src/config_server.c.obj
 .text.handle_appkey_get
                0x000000000002c3e0      0x104 CMakeFiles/pb_remote_client_nrf52840_xxAA_s140_6.0.0.dir/__/__/__/models/config/src/config_server.c.obj
 .text.handle_heartbeat_subscription_get
                0x000000000002c4e4       0xdc CMakeFiles/pb_remote_client_nrf52840_xxAA_s140_6.0.0.dir/__/__/__/models/config/src/config_server.c.obj
 .text.handle_config_gatt_proxy_get
                0x000000000002c5c0       0x38 CMakeFiles/pb_remote_client_nrf52840_xxAA_s140_6.0.0.dir/__/__/__/models/config/src/config_server.c.obj
 .text.handle_config_friend_get
                0x000000000002c5f8       0x38 CMakeFiles/pb_remote_client_nrf52840_xxAA_s140_6.0.0.dir/__/__/__/models/config/src/config_server.c.obj
 .text.handle_heartbeat_subscription_set
                0x000000000002c630      0x114 CMakeFiles/pb_remote_client_nrf52840_xxAA_s140_6.0.0.dir/__/__/__/models/config/src/config_server.c.obj
 .text.handle_heartbeat_publication_get
                0x000000000002c744       0xcc CMakeFiles/pb_remote_client_nrf52840_xxAA_s140_6.0.0.dir/__/__/__/models/config/src/config_server.c.obj
 .text.handle_config_beacon_get
                0x000000000002c810       0x40 CMakeFiles/pb_remote_client_nrf52840_xxAA_s140_6.0.0.dir/__/__/__/models/config/src/config_server.c.obj
 .text.handle_appkey_delete
                0x000000000002c850      0x11c CMakeFiles/pb_remote_client_nrf52840_xxAA_s140_6.0.0.dir/__/__/__/models/config/src/config_server.c.obj
 .text.handle_appkey_add
                0x000000000002c96c      0x124 CMakeFiles/pb_remote_client_nrf52840_xxAA_s140_6.0.0.dir/__/__/__/models/config/src/config_server.c.obj
 .text.handle_config_vendor_model_subscription_get
                0x000000000002ca90      0x180 CMakeFiles/pb_remote_client_nrf52840_xxAA_s140_6.0.0.dir/__/__/__/models/config/src/config_server.c.obj
 .text.handle_netkey_add_update
                0x000000000002cc10       0xec CMakeFiles/pb_remote_client_nrf52840_xxAA_s140_6.0.0.dir/__/__/__/models/config/src/config_server.c.obj
 .text.handle_netkey_delete
                0x000000000002ccfc      0x118 CMakeFiles/pb_remote_client_nrf52840_xxAA_s140_6.0.0.dir/__/__/__/models/config/src/config_server.c.obj
 .text.handle_config_network_transmit_get
                0x000000000002ce14       0x94 CMakeFiles/pb_remote_client_nrf52840_xxAA_s140_6.0.0.dir/__/__/__/models/config/src/config_server.c.obj
 .text.handle_config_model_publication_get
                0x000000000002cea8      0x144 CMakeFiles/pb_remote_client_nrf52840_xxAA_s140_6.0.0.dir/__/__/__/models/config/src/config_server.c.obj
 .text.handle_config_relay_get
                0x000000000002cfec       0xcc CMakeFiles/pb_remote_client_nrf52840_xxAA_s140_6.0.0.dir/__/__/__/models/config/src/config_server.c.obj
 .text.handle_config_model_publication_set
                0x000000000002d0b8      0x3d4 CMakeFiles/pb_remote_client_nrf52840_xxAA_s140_6.0.0.dir/__/__/__/models/config/src/config_server.c.obj
 .text.handle_config_model_subscription_delete_all
                0x000000000002d48c      0x2ec CMakeFiles/pb_remote_client_nrf52840_xxAA_s140_6.0.0.dir/__/__/__/models/config/src/config_server.c.obj
 .text.handle_config_model_subscription_virtual_address_delete
                0x000000000002d778      0x2e0 CMakeFiles/pb_remote_client_nrf52840_xxAA_s140_6.0.0.dir/__/__/__/models/config/src/config_server.c.obj
 .text.handle_config_model_subscription_virtual_address_add
                0x000000000002da58      0x2cc CMakeFiles/pb_remote_client_nrf52840_xxAA_s140_6.0.0.dir/__/__/__/models/config/src/config_server.c.obj
 .text.handle_config_model_subscription_delete
                0x000000000002dd24      0x2dc CMakeFiles/pb_remote_client_nrf52840_xxAA_s140_6.0.0.dir/__/__/__/models/config/src/config_server.c.obj
 .text.handle_config_model_subscription_add
                0x000000000002e000      0x2a8 CMakeFiles/pb_remote_client_nrf52840_xxAA_s140_6.0.0.dir/__/__/__/models/config/src/config_server.c.obj
 .text.handle_config_model_subscription_virtual_address_overwrite
                0x000000000002e2a8      0x354 CMakeFiles/pb_remote_client_nrf52840_xxAA_s140_6.0.0.dir/__/__/__/models/config/src/config_server.c.obj
 .text.handle_config_model_subscription_overwrite
                0x000000000002e5fc      0x334 CMakeFiles/pb_remote_client_nrf52840_xxAA_s140_6.0.0.dir/__/__/__/models/config/src/config_server.c.obj
 .text.handle_config_sig_model_subscription_get
                0x000000000002e930      0x29c CMakeFiles/pb_remote_client_nrf52840_xxAA_s140_6.0.0.dir/__/__/__/models/config/src/config_server.c.obj
 .text.config_server_init
                0x000000000002ebcc       0x70 CMakeFiles/pb_remote_client_nrf52840_xxAA_s140_6.0.0.dir/__/__/__/models/config/src/config_server.c.obj
                0x000000000002ebcc                config_server_init
 .text.packed_index_list_create
                0x000000000002ec3c       0x3c CMakeFiles/pb_remote_client_nrf52840_xxAA_s140_6.0.0.dir/__/__/__/models/config/src/packed_index_list.c.obj
                0x000000000002ec3c                packed_index_list_create
 .text.attention_timer_handler
                0x000000000002ec78       0x6c CMakeFiles/pb_remote_client_nrf52840_xxAA_s140_6.0.0.dir/__/__/__/models/health/src/health_server.c.obj
 .text.handle_attention_get
                0x000000000002ece4       0x40 CMakeFiles/pb_remote_client_nrf52840_xxAA_s140_6.0.0.dir/__/__/__/models/health/src/health_server.c.obj
 .text.handle_period_get
                0x000000000002ed24       0x3c CMakeFiles/pb_remote_client_nrf52840_xxAA_s140_6.0.0.dir/__/__/__/models/health/src/health_server.c.obj
 .text.handle_attention_set
                0x000000000002ed60       0xdc CMakeFiles/pb_remote_client_nrf52840_xxAA_s140_6.0.0.dir/__/__/__/models/health/src/health_server.c.obj
 .text.handle_period_set
                0x000000000002ee3c       0x54 CMakeFiles/pb_remote_client_nrf52840_xxAA_s140_6.0.0.dir/__/__/__/models/health/src/health_server.c.obj
 .text.send_fault_status
                0x000000000002ee90      0x3b4 CMakeFiles/pb_remote_client_nrf52840_xxAA_s140_6.0.0.dir/__/__/__/models/health/src/health_server.c.obj
 .text.health_publish_timeout_handler
                0x000000000002f244        0xc CMakeFiles/pb_remote_client_nrf52840_xxAA_s140_6.0.0.dir/__/__/__/models/health/src/health_server.c.obj
 .text.handle_fault_test
                0x000000000002f250       0x8c CMakeFiles/pb_remote_client_nrf52840_xxAA_s140_6.0.0.dir/__/__/__/models/health/src/health_server.c.obj
 .text.handle_fault_clear
                0x000000000002f2dc       0x54 CMakeFiles/pb_remote_client_nrf52840_xxAA_s140_6.0.0.dir/__/__/__/models/health/src/health_server.c.obj
 .text.handle_fault_get
                0x000000000002f330       0x40 CMakeFiles/pb_remote_client_nrf52840_xxAA_s140_6.0.0.dir/__/__/__/models/health/src/health_server.c.obj
 .text.health_server_init
                0x000000000002f370       0x68 CMakeFiles/pb_remote_client_nrf52840_xxAA_s140_6.0.0.dir/__/__/__/models/health/src/health_server.c.obj
                0x000000000002f370                health_server_init
 .text.schedule_publication_timer
                0x000000000002f3d8      0x2d0 CMakeFiles/pb_remote_client_nrf52840_xxAA_s140_6.0.0.dir/__/__/__/mesh/access/src/access_publish.c.obj
 .text.publish_timer_tick
                0x000000000002f6a8      0x140 CMakeFiles/pb_remote_client_nrf52840_xxAA_s140_6.0.0.dir/__/__/__/mesh/access/src/access_publish.c.obj
 .text.access_publish_init
                0x000000000002f7e8       0x38 CMakeFiles/pb_remote_client_nrf52840_xxAA_s140_6.0.0.dir/__/__/__/mesh/access/src/access_publish.c.obj
                0x000000000002f7e8                access_publish_init
 .text.access_publish_period_set
                0x000000000002f820      0x118 CMakeFiles/pb_remote_client_nrf52840_xxAA_s140_6.0.0.dir/__/__/__/mesh/access/src/access_publish.c.obj
                0x000000000002f820                access_publish_period_set
 .text.access_publish_period_get
                0x000000000002f938       0x2c CMakeFiles/pb_remote_client_nrf52840_xxAA_s140_6.0.0.dir/__/__/__/mesh/access/src/access_publish.c.obj
                0x000000000002f938                access_publish_period_get
 .text.flash_manager_mem_available
                0x000000000002f964        0x4 CMakeFiles/pb_remote_client_nrf52840_xxAA_s140_6.0.0.dir/__/__/__/mesh/access/src/access.c.obj
 .text.flash_invalidate_complete
                0x000000000002f968        0x8 CMakeFiles/pb_remote_client_nrf52840_xxAA_s140_6.0.0.dir/__/__/__/mesh/access/src/access.c.obj
 .text.access_flash_config_clear
                0x000000000002f970       0x28 CMakeFiles/pb_remote_client_nrf52840_xxAA_s140_6.0.0.dir/__/__/__/mesh/access/src/access.c.obj
 .text.handle_incoming
                0x000000000002f998      0x198 CMakeFiles/pb_remote_client_nrf52840_xxAA_s140_6.0.0.dir/__/__/__/mesh/access/src/access.c.obj
 .text.mesh_evt_cb
                0x000000000002fb30      0x158 CMakeFiles/pb_remote_client_nrf52840_xxAA_s140_6.0.0.dir/__/__/__/mesh/access/src/access.c.obj
 .text.add_flash_manager
                0x000000000002fc88       0x58 CMakeFiles/pb_remote_client_nrf52840_xxAA_s140_6.0.0.dir/__/__/__/mesh/access/src/access.c.obj
 .text.flash_write_complete
                0x000000000002fce0       0x4c CMakeFiles/pb_remote_client_nrf52840_xxAA_s140_6.0.0.dir/__/__/__/mesh/access/src/access.c.obj
 .text.access_flash_config_store
                0x000000000002fd2c      0x1ec CMakeFiles/pb_remote_client_nrf52840_xxAA_s140_6.0.0.dir/__/__/__/mesh/access/src/access.c.obj
                0x000000000002fd2c                access_flash_config_store
 .text.flash_remove_complete
                0x000000000002ff18       0xcc CMakeFiles/pb_remote_client_nrf52840_xxAA_s140_6.0.0.dir/__/__/__/mesh/access/src/access.c.obj
 .text.access_flash_config_load
                0x000000000002ffe4      0x290 CMakeFiles/pb_remote_client_nrf52840_xxAA_s140_6.0.0.dir/__/__/__/mesh/access/src/access.c.obj
                0x000000000002ffe4                access_flash_config_load
 .text.access_clear
                0x0000000000030274       0x70 CMakeFiles/pb_remote_client_nrf52840_xxAA_s140_6.0.0.dir/__/__/__/mesh/access/src/access.c.obj
                0x0000000000030274                access_clear
 .text.access_init
                0x00000000000302e4       0xb8 CMakeFiles/pb_remote_client_nrf52840_xxAA_s140_6.0.0.dir/__/__/__/mesh/access/src/access.c.obj
                0x00000000000302e4                access_init
 .text.access_model_add
                0x000000000003039c      0x23c CMakeFiles/pb_remote_client_nrf52840_xxAA_s140_6.0.0.dir/__/__/__/mesh/access/src/access.c.obj
                0x000000000003039c                access_model_add
 .text.access_model_publish
                0x00000000000305d8      0x3c8 CMakeFiles/pb_remote_client_nrf52840_xxAA_s140_6.0.0.dir/__/__/__/mesh/access/src/access.c.obj
                0x00000000000305d8                access_model_publish
 .text.access_model_reply
                0x00000000000309a0      0x3e4 CMakeFiles/pb_remote_client_nrf52840_xxAA_s140_6.0.0.dir/__/__/__/mesh/access/src/access.c.obj
                0x00000000000309a0                access_model_reply
 .text.access_model_publish_address_set
                0x0000000000030d84       0x3c CMakeFiles/pb_remote_client_nrf52840_xxAA_s140_6.0.0.dir/__/__/__/mesh/access/src/access.c.obj
                0x0000000000030d84                access_model_publish_address_set
 .text.access_model_publish_address_get
                0x0000000000030dc0       0x2c CMakeFiles/pb_remote_client_nrf52840_xxAA_s140_6.0.0.dir/__/__/__/mesh/access/src/access.c.obj
                0x0000000000030dc0                access_model_publish_address_get
 .text.access_model_publish_retransmit_set
                0x0000000000030dec       0x58 CMakeFiles/pb_remote_client_nrf52840_xxAA_s140_6.0.0.dir/__/__/__/mesh/access/src/access.c.obj
                0x0000000000030dec                access_model_publish_retransmit_set
 .text.access_model_publish_retransmit_get
                0x0000000000030e44       0x2c CMakeFiles/pb_remote_client_nrf52840_xxAA_s140_6.0.0.dir/__/__/__/mesh/access/src/access.c.obj
                0x0000000000030e44                access_model_publish_retransmit_get
 .text.access_model_publish_period_set
                0x0000000000030e70       0x78 CMakeFiles/pb_remote_client_nrf52840_xxAA_s140_6.0.0.dir/__/__/__/mesh/access/src/access.c.obj
                0x0000000000030e70                access_model_publish_period_set
 .text.access_model_publish_period_get
                0x0000000000030ee8       0x40 CMakeFiles/pb_remote_client_nrf52840_xxAA_s140_6.0.0.dir/__/__/__/mesh/access/src/access.c.obj
                0x0000000000030ee8                access_model_publish_period_get
 .text.access_model_subscription_add
                0x0000000000030f28       0x64 CMakeFiles/pb_remote_client_nrf52840_xxAA_s140_6.0.0.dir/__/__/__/mesh/access/src/access.c.obj
                0x0000000000030f28                access_model_subscription_add
 .text.access_model_subscription_remove
                0x0000000000030f8c       0x60 CMakeFiles/pb_remote_client_nrf52840_xxAA_s140_6.0.0.dir/__/__/__/mesh/access/src/access.c.obj
                0x0000000000030f8c                access_model_subscription_remove
 .text.access_model_subscriptions_get
                0x0000000000030fec      0x134 CMakeFiles/pb_remote_client_nrf52840_xxAA_s140_6.0.0.dir/__/__/__/mesh/access/src/access.c.obj
                0x0000000000030fec                access_model_subscriptions_get
 .text.access_model_application_bind
                0x0000000000031120       0x5c CMakeFiles/pb_remote_client_nrf52840_xxAA_s140_6.0.0.dir/__/__/__/mesh/access/src/access.c.obj
                0x0000000000031120                access_model_application_bind
 .text.access_model_application_unbind
                0x000000000003117c       0x58 CMakeFiles/pb_remote_client_nrf52840_xxAA_s140_6.0.0.dir/__/__/__/mesh/access/src/access.c.obj
                0x000000000003117c                access_model_application_unbind
 .text.access_model_applications_get
                0x00000000000311d4       0x54 CMakeFiles/pb_remote_client_nrf52840_xxAA_s140_6.0.0.dir/__/__/__/mesh/access/src/access.c.obj
                0x00000000000311d4                access_model_applications_get
 .text.access_model_publish_application_set
                0x0000000000031228       0x3c CMakeFiles/pb_remote_client_nrf52840_xxAA_s140_6.0.0.dir/__/__/__/mesh/access/src/access.c.obj
                0x0000000000031228                access_model_publish_application_set
 .text.access_model_publish_application_get
                0x0000000000031264       0x2c CMakeFiles/pb_remote_client_nrf52840_xxAA_s140_6.0.0.dir/__/__/__/mesh/access/src/access.c.obj
                0x0000000000031264                access_model_publish_application_get
 .text.access_default_ttl_set
                0x0000000000031290       0x1c CMakeFiles/pb_remote_client_nrf52840_xxAA_s140_6.0.0.dir/__/__/__/mesh/access/src/access.c.obj
                0x0000000000031290                access_default_ttl_set
 .text.access_default_ttl_get
                0x00000000000312ac        0xc CMakeFiles/pb_remote_client_nrf52840_xxAA_s140_6.0.0.dir/__/__/__/mesh/access/src/access.c.obj
                0x00000000000312ac                access_default_ttl_get
 .text.access_model_publish_ttl_set
                0x00000000000312b8       0x40 CMakeFiles/pb_remote_client_nrf52840_xxAA_s140_6.0.0.dir/__/__/__/mesh/access/src/access.c.obj
                0x00000000000312b8                access_model_publish_ttl_set
 .text.access_model_publish_ttl_get
                0x00000000000312f8       0x2c CMakeFiles/pb_remote_client_nrf52840_xxAA_s140_6.0.0.dir/__/__/__/mesh/access/src/access.c.obj
                0x00000000000312f8                access_model_publish_ttl_get
 .text.access_element_location_get
                0x0000000000031324       0x18 CMakeFiles/pb_remote_client_nrf52840_xxAA_s140_6.0.0.dir/__/__/__/mesh/access/src/access.c.obj
                0x0000000000031324                access_element_location_get
 .text.access_element_sig_model_count_get
                0x000000000003133c       0x18 CMakeFiles/pb_remote_client_nrf52840_xxAA_s140_6.0.0.dir/__/__/__/mesh/access/src/access.c.obj
                0x000000000003133c                access_element_sig_model_count_get
 .text.access_element_vendor_model_count_get
                0x0000000000031354       0x18 CMakeFiles/pb_remote_client_nrf52840_xxAA_s140_6.0.0.dir/__/__/__/mesh/access/src/access.c.obj
                0x0000000000031354                access_element_vendor_model_count_get
 .text.access_model_id_get
                0x000000000003136c       0x40 CMakeFiles/pb_remote_client_nrf52840_xxAA_s140_6.0.0.dir/__/__/__/mesh/access/src/access.c.obj
                0x000000000003136c                access_model_id_get
 .text.access_handle_get
                0x00000000000313ac       0x78 CMakeFiles/pb_remote_client_nrf52840_xxAA_s140_6.0.0.dir/__/__/__/mesh/access/src/access.c.obj
                0x00000000000313ac                access_handle_get
 .text.access_element_models_get
                0x0000000000031424       0x88 CMakeFiles/pb_remote_client_nrf52840_xxAA_s140_6.0.0.dir/__/__/__/mesh/access/src/access.c.obj
                0x0000000000031424                access_element_models_get
 .text.access_model_p_args_get
                0x00000000000314ac       0x2c CMakeFiles/pb_remote_client_nrf52840_xxAA_s140_6.0.0.dir/__/__/__/mesh/access/src/access.c.obj
                0x00000000000314ac                access_model_p_args_get
 .text.access_model_publication_stop
                0x00000000000314d8       0x5c CMakeFiles/pb_remote_client_nrf52840_xxAA_s140_6.0.0.dir/__/__/__/mesh/access/src/access.c.obj
                0x00000000000314d8                access_model_publication_stop
 .text.access_model_publication_by_appkey_stop
                0x0000000000031534       0xdc CMakeFiles/pb_remote_client_nrf52840_xxAA_s140_6.0.0.dir/__/__/__/mesh/access/src/access.c.obj
                0x0000000000031534                access_model_publication_by_appkey_stop
 .text.remove_and_reschedule
                0x0000000000031610       0xf0 CMakeFiles/pb_remote_client_nrf52840_xxAA_s140_6.0.0.dir/__/__/__/mesh/access/src/access_reliable.c.obj
 .text.reliable_timer_cb
                0x0000000000031700      0x260 CMakeFiles/pb_remote_client_nrf52840_xxAA_s140_6.0.0.dir/__/__/__/mesh/access/src/access_reliable.c.obj
 .text.access_reliable_message_rx_cb
                0x0000000000031960       0x80 CMakeFiles/pb_remote_client_nrf52840_xxAA_s140_6.0.0.dir/__/__/__/mesh/access/src/access_reliable.c.obj
                0x0000000000031960                access_reliable_message_rx_cb
 .text.access_reliable_init
                0x00000000000319e0       0x1c CMakeFiles/pb_remote_client_nrf52840_xxAA_s140_6.0.0.dir/__/__/__/mesh/access/src/access_reliable.c.obj
                0x00000000000319e0                access_reliable_init
 .text.access_reliable_cancel_all
                0x00000000000319fc       0xe8 CMakeFiles/pb_remote_client_nrf52840_xxAA_s140_6.0.0.dir/__/__/__/mesh/access/src/access_reliable.c.obj
                0x00000000000319fc                access_reliable_cancel_all
 .text.access_model_reliable_cancel
                0x0000000000031ae4       0x88 CMakeFiles/pb_remote_client_nrf52840_xxAA_s140_6.0.0.dir/__/__/__/mesh/access/src/access_reliable.c.obj
                0x0000000000031ae4                access_model_reliable_cancel
 .text.access_model_reliable_publish
                0x0000000000031b6c      0x228 CMakeFiles/pb_remote_client_nrf52840_xxAA_s140_6.0.0.dir/__/__/__/mesh/access/src/access_reliable.c.obj
                0x0000000000031b6c                access_model_reliable_publish
 .text.addr_nonvirtual_to_dsm_entry
                0x0000000000031d94       0x48 CMakeFiles/pb_remote_client_nrf52840_xxAA_s140_6.0.0.dir/__/__/__/mesh/access/src/device_state_manager.c.obj
 .text.addr_nonvirtual_to_flash_entry
                0x0000000000031ddc       0x10 CMakeFiles/pb_remote_client_nrf52840_xxAA_s140_6.0.0.dir/__/__/__/mesh/access/src/device_state_manager.c.obj
 .text.devkey_to_flash_entry
                0x0000000000031dec       0x28 CMakeFiles/pb_remote_client_nrf52840_xxAA_s140_6.0.0.dir/__/__/__/mesh/access/src/device_state_manager.c.obj
 .text.addr_virtual_to_flash_entry
                0x0000000000031e14       0x18 CMakeFiles/pb_remote_client_nrf52840_xxAA_s140_6.0.0.dir/__/__/__/mesh/access/src/device_state_manager.c.obj
 .text.addr_unicast_to_dsm_entry
                0x0000000000031e2c        0xc CMakeFiles/pb_remote_client_nrf52840_xxAA_s140_6.0.0.dir/__/__/__/mesh/access/src/device_state_manager.c.obj
 .text.addr_unicast_to_flash_entry
                0x0000000000031e38       0x10 CMakeFiles/pb_remote_client_nrf52840_xxAA_s140_6.0.0.dir/__/__/__/mesh/access/src/device_state_manager.c.obj
 .text.flash_mem_listener_callback
                0x0000000000031e48       0x1c CMakeFiles/pb_remote_client_nrf52840_xxAA_s140_6.0.0.dir/__/__/__/mesh/access/src/device_state_manager.c.obj
 .text.appkey_to_flash_entry
                0x0000000000031e64       0x54 CMakeFiles/pb_remote_client_nrf52840_xxAA_s140_6.0.0.dir/__/__/__/mesh/access/src/device_state_manager.c.obj
 .text.subnet_to_flash_entry
                0x0000000000031eb8       0x60 CMakeFiles/pb_remote_client_nrf52840_xxAA_s140_6.0.0.dir/__/__/__/mesh/access/src/device_state_manager.c.obj
 .text.reset_flash_area
                0x0000000000031f18       0x28 CMakeFiles/pb_remote_client_nrf52840_xxAA_s140_6.0.0.dir/__/__/__/mesh/access/src/device_state_manager.c.obj
 .text.build_flash_area
                0x0000000000031f40       0x90 CMakeFiles/pb_remote_client_nrf52840_xxAA_s140_6.0.0.dir/__/__/__/mesh/access/src/device_state_manager.c.obj
 .text.flash_invalidate_complete
                0x0000000000031fd0       0x54 CMakeFiles/pb_remote_client_nrf52840_xxAA_s140_6.0.0.dir/__/__/__/mesh/access/src/device_state_manager.c.obj
 .text.flash_write_complete
                0x0000000000032024       0x50 CMakeFiles/pb_remote_client_nrf52840_xxAA_s140_6.0.0.dir/__/__/__/mesh/access/src/device_state_manager.c.obj
 .text.devkey_to_dsm_entry
                0x0000000000032074       0x70 CMakeFiles/pb_remote_client_nrf52840_xxAA_s140_6.0.0.dir/__/__/__/mesh/access/src/device_state_manager.c.obj
 .text.addr_virtual_to_dsm_entry
                0x00000000000320e4       0x60 CMakeFiles/pb_remote_client_nrf52840_xxAA_s140_6.0.0.dir/__/__/__/mesh/access/src/device_state_manager.c.obj
 .text.appkey_to_dsm_entry
                0x0000000000032144       0xf4 CMakeFiles/pb_remote_client_nrf52840_xxAA_s140_6.0.0.dir/__/__/__/mesh/access/src/device_state_manager.c.obj
 .text.address_delete_if_unused
                0x0000000000032238       0xd8 CMakeFiles/pb_remote_client_nrf52840_xxAA_s140_6.0.0.dir/__/__/__/mesh/access/src/device_state_manager.c.obj
 .text.subnet_to_dsm_entry
                0x0000000000032310      0x11c CMakeFiles/pb_remote_client_nrf52840_xxAA_s140_6.0.0.dir/__/__/__/mesh/access/src/device_state_manager.c.obj
 .text.flash_remove_complete
                0x000000000003242c       0x90 CMakeFiles/pb_remote_client_nrf52840_xxAA_s140_6.0.0.dir/__/__/__/mesh/access/src/device_state_manager.c.obj
 .text.flash_update_all
                0x00000000000324bc      0x184 CMakeFiles/pb_remote_client_nrf52840_xxAA_s140_6.0.0.dir/__/__/__/mesh/access/src/device_state_manager.c.obj
 .text.dsm_flash_config_load
                0x0000000000032640      0x1f8 CMakeFiles/pb_remote_client_nrf52840_xxAA_s140_6.0.0.dir/__/__/__/mesh/access/src/device_state_manager.c.obj
                0x0000000000032640                dsm_flash_config_load
 .text.dsm_flash_area_get
                0x0000000000032838        0xc CMakeFiles/pb_remote_client_nrf52840_xxAA_s140_6.0.0.dir/__/__/__/mesh/access/src/device_state_manager.c.obj
                0x0000000000032838                dsm_flash_area_get
 .text.dsm_clear
                0x0000000000032844       0xd0 CMakeFiles/pb_remote_client_nrf52840_xxAA_s140_6.0.0.dir/__/__/__/mesh/access/src/device_state_manager.c.obj
                0x0000000000032844                dsm_clear
 .text.dsm_init
                0x0000000000032914       0xb8 CMakeFiles/pb_remote_client_nrf52840_xxAA_s140_6.0.0.dir/__/__/__/mesh/access/src/device_state_manager.c.obj
                0x0000000000032914                dsm_init
 .text.dsm_local_unicast_addresses_set
                0x00000000000329cc       0xbc CMakeFiles/pb_remote_client_nrf52840_xxAA_s140_6.0.0.dir/__/__/__/mesh/access/src/device_state_manager.c.obj
                0x00000000000329cc                dsm_local_unicast_addresses_set
 .text.dsm_local_unicast_addresses_get
                0x0000000000032a88       0x20 CMakeFiles/pb_remote_client_nrf52840_xxAA_s140_6.0.0.dir/__/__/__/mesh/access/src/device_state_manager.c.obj
                0x0000000000032a88                dsm_local_unicast_addresses_get
 .text.dsm_address_publish_add
                0x0000000000032aa8      0x138 CMakeFiles/pb_remote_client_nrf52840_xxAA_s140_6.0.0.dir/__/__/__/mesh/access/src/device_state_manager.c.obj
                0x0000000000032aa8                dsm_address_publish_add
 .text.dsm_address_publish_add_handle
                0x0000000000032be0       0x4c CMakeFiles/pb_remote_client_nrf52840_xxAA_s140_6.0.0.dir/__/__/__/mesh/access/src/device_state_manager.c.obj
                0x0000000000032be0                dsm_address_publish_add_handle
 .text.dsm_address_publish_virtual_add
                0x0000000000032c2c       0xc4 CMakeFiles/pb_remote_client_nrf52840_xxAA_s140_6.0.0.dir/__/__/__/mesh/access/src/device_state_manager.c.obj
                0x0000000000032c2c                dsm_address_publish_virtual_add
 .text.dsm_address_publish_remove
                0x0000000000032cf0       0xe4 CMakeFiles/pb_remote_client_nrf52840_xxAA_s140_6.0.0.dir/__/__/__/mesh/access/src/device_state_manager.c.obj
                0x0000000000032cf0                dsm_address_publish_remove
 .text.dsm_address_subscription_add
                0x0000000000032dd4      0x15c CMakeFiles/pb_remote_client_nrf52840_xxAA_s140_6.0.0.dir/__/__/__/mesh/access/src/device_state_manager.c.obj
                0x0000000000032dd4                dsm_address_subscription_add
 .text.dsm_address_subscription_virtual_add
                0x0000000000032f30       0xc4 CMakeFiles/pb_remote_client_nrf52840_xxAA_s140_6.0.0.dir/__/__/__/mesh/access/src/device_state_manager.c.obj
                0x0000000000032f30                dsm_address_subscription_virtual_add
 .text.dsm_address_subscription_add_handle
                0x0000000000032ff4       0x4c CMakeFiles/pb_remote_client_nrf52840_xxAA_s140_6.0.0.dir/__/__/__/mesh/access/src/device_state_manager.c.obj
                0x0000000000032ff4                dsm_address_subscription_add_handle
 .text.dsm_address_subscription_get
                0x0000000000033040       0x50 CMakeFiles/pb_remote_client_nrf52840_xxAA_s140_6.0.0.dir/__/__/__/mesh/access/src/device_state_manager.c.obj
                0x0000000000033040                dsm_address_subscription_get
 .text.dsm_address_subscription_remove
                0x0000000000033090       0x84 CMakeFiles/pb_remote_client_nrf52840_xxAA_s140_6.0.0.dir/__/__/__/mesh/access/src/device_state_manager.c.obj
                0x0000000000033090                dsm_address_subscription_remove
 .text.dsm_address_get
                0x0000000000033114       0x68 CMakeFiles/pb_remote_client_nrf52840_xxAA_s140_6.0.0.dir/__/__/__/mesh/access/src/device_state_manager.c.obj
                0x0000000000033114                dsm_address_get
 .text.dsm_address_handle_get
                0x000000000003317c       0xe8 CMakeFiles/pb_remote_client_nrf52840_xxAA_s140_6.0.0.dir/__/__/__/mesh/access/src/device_state_manager.c.obj
                0x000000000003317c                dsm_address_handle_get
 .text.dsm_net_key_index_to_subnet_handle
                0x0000000000033264       0x28 CMakeFiles/pb_remote_client_nrf52840_xxAA_s140_6.0.0.dir/__/__/__/mesh/access/src/device_state_manager.c.obj
                0x0000000000033264                dsm_net_key_index_to_subnet_handle
 .text.dsm_subnet_handle_get
                0x000000000003328c       0x3c CMakeFiles/pb_remote_client_nrf52840_xxAA_s140_6.0.0.dir/__/__/__/mesh/access/src/device_state_manager.c.obj
                0x000000000003328c                dsm_subnet_handle_get
 .text.dsm_appkey_index_to_appkey_handle
                0x00000000000332c8       0x28 CMakeFiles/pb_remote_client_nrf52840_xxAA_s140_6.0.0.dir/__/__/__/mesh/access/src/device_state_manager.c.obj
                0x00000000000332c8                dsm_appkey_index_to_appkey_handle
 .text.dsm_appkey_handle_get
                0x00000000000332f0       0x3c CMakeFiles/pb_remote_client_nrf52840_xxAA_s140_6.0.0.dir/__/__/__/mesh/access/src/device_state_manager.c.obj
                0x00000000000332f0                dsm_appkey_handle_get
 .text.dsm_appkey_handle_to_appkey_index
                0x000000000003332c       0x24 CMakeFiles/pb_remote_client_nrf52840_xxAA_s140_6.0.0.dir/__/__/__/mesh/access/src/device_state_manager.c.obj
                0x000000000003332c                dsm_appkey_handle_to_appkey_index
 .text.dsm_appkey_handle_to_subnet_handle
                0x0000000000033350       0xb4 CMakeFiles/pb_remote_client_nrf52840_xxAA_s140_6.0.0.dir/__/__/__/mesh/access/src/device_state_manager.c.obj
                0x0000000000033350                dsm_appkey_handle_to_subnet_handle
 .text.dsm_subnet_add
                0x0000000000033404      0x15c CMakeFiles/pb_remote_client_nrf52840_xxAA_s140_6.0.0.dir/__/__/__/mesh/access/src/device_state_manager.c.obj
                0x0000000000033404                dsm_subnet_add
 .text.dsm_subnet_kr_phase_get
                0x0000000000033560       0x20 CMakeFiles/pb_remote_client_nrf52840_xxAA_s140_6.0.0.dir/__/__/__/mesh/access/src/device_state_manager.c.obj
                0x0000000000033560                dsm_subnet_kr_phase_get
 .text.dsm_subnet_update
                0x0000000000033580       0xe4 CMakeFiles/pb_remote_client_nrf52840_xxAA_s140_6.0.0.dir/__/__/__/mesh/access/src/device_state_manager.c.obj
                0x0000000000033580                dsm_subnet_update
 .text.dsm_subnet_update_swap_keys
                0x0000000000033664       0x94 CMakeFiles/pb_remote_client_nrf52840_xxAA_s140_6.0.0.dir/__/__/__/mesh/access/src/device_state_manager.c.obj
                0x0000000000033664                dsm_subnet_update_swap_keys
 .text.dsm_subnet_update_commit
                0x00000000000336f8      0x138 CMakeFiles/pb_remote_client_nrf52840_xxAA_s140_6.0.0.dir/__/__/__/mesh/access/src/device_state_manager.c.obj
                0x00000000000336f8                dsm_subnet_update_commit
 .text.mesh_evt_handler
                0x0000000000033830       0xc4 CMakeFiles/pb_remote_client_nrf52840_xxAA_s140_6.0.0.dir/__/__/__/mesh/access/src/device_state_manager.c.obj
 .text.dsm_subnet_delete
                0x00000000000338f4       0xe8 CMakeFiles/pb_remote_client_nrf52840_xxAA_s140_6.0.0.dir/__/__/__/mesh/access/src/device_state_manager.c.obj
                0x00000000000338f4                dsm_subnet_delete
 .text.dsm_subnet_get_all
                0x00000000000339dc       0x40 CMakeFiles/pb_remote_client_nrf52840_xxAA_s140_6.0.0.dir/__/__/__/mesh/access/src/device_state_manager.c.obj
                0x00000000000339dc                dsm_subnet_get_all
 .text.dsm_devkey_add
                0x0000000000033a1c      0x1a4 CMakeFiles/pb_remote_client_nrf52840_xxAA_s140_6.0.0.dir/__/__/__/mesh/access/src/device_state_manager.c.obj
                0x0000000000033a1c                dsm_devkey_add
 .text.dsm_appkey_add
                0x0000000000033bc0      0x134 CMakeFiles/pb_remote_client_nrf52840_xxAA_s140_6.0.0.dir/__/__/__/mesh/access/src/device_state_manager.c.obj
                0x0000000000033bc0                dsm_appkey_add
 .text.dsm_appkey_update
                0x0000000000033cf4       0xd8 CMakeFiles/pb_remote_client_nrf52840_xxAA_s140_6.0.0.dir/__/__/__/mesh/access/src/device_state_manager.c.obj
                0x0000000000033cf4                dsm_appkey_update
 .text.dsm_appkey_delete
                0x0000000000033dcc       0x60 CMakeFiles/pb_remote_client_nrf52840_xxAA_s140_6.0.0.dir/__/__/__/mesh/access/src/device_state_manager.c.obj
                0x0000000000033dcc                dsm_appkey_delete
 .text.dsm_appkey_get_all
                0x0000000000033e2c       0x58 CMakeFiles/pb_remote_client_nrf52840_xxAA_s140_6.0.0.dir/__/__/__/mesh/access/src/device_state_manager.c.obj
                0x0000000000033e2c                dsm_appkey_get_all
 .text.dsm_tx_secmat_get
                0x0000000000033e84       0xc8 CMakeFiles/pb_remote_client_nrf52840_xxAA_s140_6.0.0.dir/__/__/__/mesh/access/src/device_state_manager.c.obj
                0x0000000000033e84                dsm_tx_secmat_get
 .text.dsm_net_secmat_from_keyindex_get
                0x0000000000033f4c       0x30 CMakeFiles/pb_remote_client_nrf52840_xxAA_s140_6.0.0.dir/__/__/__/mesh/access/src/device_state_manager.c.obj
                0x0000000000033f4c                dsm_net_secmat_from_keyindex_get
 .text.nrf_mesh_net_secmat_next_get
                0x0000000000033f7c       0x80 CMakeFiles/pb_remote_client_nrf52840_xxAA_s140_6.0.0.dir/__/__/__/mesh/access/src/device_state_manager.c.obj
                0x0000000000033f7c                nrf_mesh_net_secmat_next_get
 .text.nrf_mesh_app_secmat_next_get
                0x0000000000033ffc       0x80 CMakeFiles/pb_remote_client_nrf52840_xxAA_s140_6.0.0.dir/__/__/__/mesh/access/src/device_state_manager.c.obj
                0x0000000000033ffc                nrf_mesh_app_secmat_next_get
 .text.nrf_mesh_devkey_secmat_get
                0x000000000003407c       0x68 CMakeFiles/pb_remote_client_nrf52840_xxAA_s140_6.0.0.dir/__/__/__/mesh/access/src/device_state_manager.c.obj
                0x000000000003407c                nrf_mesh_devkey_secmat_get
 .text.nrf_mesh_beacon_info_next_get
                0x00000000000340e4       0xb0 CMakeFiles/pb_remote_client_nrf52840_xxAA_s140_6.0.0.dir/__/__/__/mesh/access/src/device_state_manager.c.obj
                0x00000000000340e4                nrf_mesh_beacon_info_next_get
 .text.nrf_mesh_rx_address_get
                0x0000000000034194      0x118 CMakeFiles/pb_remote_client_nrf52840_xxAA_s140_6.0.0.dir/__/__/__/mesh/access/src/device_state_manager.c.obj
                0x0000000000034194                nrf_mesh_rx_address_get
 .text.nrf_mesh_unicast_address_get
                0x00000000000342ac       0x24 CMakeFiles/pb_remote_client_nrf52840_xxAA_s140_6.0.0.dir/__/__/__/mesh/access/src/device_state_manager.c.obj
                0x00000000000342ac                nrf_mesh_unicast_address_get
 .text._weak_handler
                0x00000000000342d0        0x4 CMakeFiles/pb_remote_client_nrf52840_xxAA_s140_6.0.0.dir/__/__/nrf_mesh_weak.c.obj
                0x00000000000342d0                nrf_mesh_dfu_init
                0x00000000000342d0                nrf_mesh_dfu_jump_to_bootloader
                0x00000000000342d0                nrf_mesh_dfu_rx
                0x00000000000342d0                nrf_mesh_dfu_bank_info_get
                0x00000000000342d0                nrf_mesh_dfu_request
                0x00000000000342d0                nrf_mesh_dfu_bank_flash
                0x00000000000342d0                _weak_handler
                0x00000000000342d0                prov_provisionee_auth_data
                0x00000000000342d0                nrf_mesh_dfu_relay
                0x00000000000342d0                prov_provisionee_shared_secret
                0x00000000000342d0                nrf_mesh_dfu_abort
                0x00000000000342d0                mesh_flash_op_execute
                0x00000000000342d0                prov_provisionee_init
                0x00000000000342d0                nrf_mesh_dfu_state_get
                0x00000000000342d0                prov_provisionee_listen
 .text.app_error_fault_handler
                0x00000000000342d4      0x238 CMakeFiles/pb_remote_client_nrf52840_xxAA_s140_6.0.0.dir/__/__/common/src/app_error_weak.c.obj
                0x00000000000342d4                app_error_fault_handler
 .text.mesh_assertion_handler
                0x000000000003450c       0x24 CMakeFiles/pb_remote_client_nrf52840_xxAA_s140_6.0.0.dir/__/__/common/src/assertion_handler_weak.c.obj
                0x000000000003450c                mesh_assertion_handler
 .text.nrf_mesh_configure_device_uuid_set
                0x0000000000034530       0x10 CMakeFiles/pb_remote_client_nrf52840_xxAA_s140_6.0.0.dir/__/__/__/mesh/core/src/nrf_mesh_configure.c.obj
                0x0000000000034530                nrf_mesh_configure_device_uuid_set
 .text.nrf_mesh_configure_device_uuid_reset
                0x0000000000034540       0x2c CMakeFiles/pb_remote_client_nrf52840_xxAA_s140_6.0.0.dir/__/__/__/mesh/core/src/nrf_mesh_configure.c.obj
                0x0000000000034540                nrf_mesh_configure_device_uuid_reset
 .text.nrf_mesh_configure_device_uuid_get
                0x000000000003456c        0x8 CMakeFiles/pb_remote_client_nrf52840_xxAA_s140_6.0.0.dir/__/__/__/mesh/core/src/nrf_mesh_configure.c.obj
                0x000000000003456c                nrf_mesh_configure_device_uuid_get
 .text.sd_ecb_block_encrypt
                0x0000000000034574        0x4 CMakeFiles/pb_remote_client_nrf52840_xxAA_s140_6.0.0.dir/__/__/__/mesh/core/src/aes.c.obj
 .text.aes_encrypt
                0x0000000000034578       0x34 CMakeFiles/pb_remote_client_nrf52840_xxAA_s140_6.0.0.dir/__/__/__/mesh/core/src/aes.c.obj
                0x0000000000034578                aes_encrypt
 .text.msg_cache_init
                0x00000000000345ac       0x24 CMakeFiles/pb_remote_client_nrf52840_xxAA_s140_6.0.0.dir/__/__/__/mesh/core/src/msg_cache.c.obj
                0x00000000000345ac                msg_cache_init
 .text.msg_cache_entry_exists
                0x00000000000345d0       0x40 CMakeFiles/pb_remote_client_nrf52840_xxAA_s140_6.0.0.dir/__/__/__/mesh/core/src/msg_cache.c.obj
                0x00000000000345d0                msg_cache_entry_exists
 .text.msg_cache_entry_add
                0x0000000000034610       0x2c CMakeFiles/pb_remote_client_nrf52840_xxAA_s140_6.0.0.dir/__/__/__/mesh/core/src/msg_cache.c.obj
                0x0000000000034610                msg_cache_entry_add
 .text.tx_complete
                0x000000000003463c       0x30 CMakeFiles/pb_remote_client_nrf52840_xxAA_s140_6.0.0.dir/__/__/__/mesh/core/src/transport.c.obj
 .text.upper_trs_packet_encrypt
                0x000000000003466c       0xa8 CMakeFiles/pb_remote_client_nrf52840_xxAA_s140_6.0.0.dir/__/__/__/mesh/core/src/transport.c.obj
 .text.trs_sar_packet_out
                0x0000000000034714      0x19c CMakeFiles/pb_remote_client_nrf52840_xxAA_s140_6.0.0.dir/__/__/__/mesh/core/src/transport.c.obj
 .text.upper_transport_access_packet_in
                0x00000000000348b0      0x33c CMakeFiles/pb_remote_client_nrf52840_xxAA_s140_6.0.0.dir/__/__/__/mesh/core/src/transport.c.obj
 .text.sar_ctx_cancel
                0x0000000000034bec      0x148 CMakeFiles/pb_remote_client_nrf52840_xxAA_s140_6.0.0.dir/__/__/__/mesh/core/src/transport.c.obj
 .text.retry_timeout
                0x0000000000034d34       0x98 CMakeFiles/pb_remote_client_nrf52840_xxAA_s140_6.0.0.dir/__/__/__/mesh/core/src/transport.c.obj
 .text.upper_transport_packet_in
                0x0000000000034dcc      0x2a4 CMakeFiles/pb_remote_client_nrf52840_xxAA_s140_6.0.0.dir/__/__/__/mesh/core/src/transport.c.obj
 .text.upper_transport_tx.part.27
                0x0000000000035070      0x370 CMakeFiles/pb_remote_client_nrf52840_xxAA_s140_6.0.0.dir/__/__/__/mesh/core/src/transport.c.obj
 .text.sar_ack_send.part.31
                0x00000000000353e0       0xd4 CMakeFiles/pb_remote_client_nrf52840_xxAA_s140_6.0.0.dir/__/__/__/mesh/core/src/transport.c.obj
 .text.transport_sar_process
                0x00000000000354b4      0x274 CMakeFiles/pb_remote_client_nrf52840_xxAA_s140_6.0.0.dir/__/__/__/mesh/core/src/transport.c.obj
 .text.abort_timeout
                0x0000000000035728      0x138 CMakeFiles/pb_remote_client_nrf52840_xxAA_s140_6.0.0.dir/__/__/__/mesh/core/src/transport.c.obj
 .text.ack_timeout
                0x0000000000035860       0xf8 CMakeFiles/pb_remote_client_nrf52840_xxAA_s140_6.0.0.dir/__/__/__/mesh/core/src/transport.c.obj
 .text.transport_init
                0x0000000000035958       0xac CMakeFiles/pb_remote_client_nrf52840_xxAA_s140_6.0.0.dir/__/__/__/mesh/core/src/transport.c.obj
                0x0000000000035958                transport_init
 .text.transport_packet_in
                0x0000000000035a04      0x778 CMakeFiles/pb_remote_client_nrf52840_xxAA_s140_6.0.0.dir/__/__/__/mesh/core/src/transport.c.obj
                0x0000000000035a04                transport_packet_in
 .text.transport_tx
                0x000000000003617c       0xec CMakeFiles/pb_remote_client_nrf52840_xxAA_s140_6.0.0.dir/__/__/__/mesh/core/src/transport.c.obj
                0x000000000003617c                transport_tx
 .text.transport_control_tx
                0x0000000000036268       0xc4 CMakeFiles/pb_remote_client_nrf52840_xxAA_s140_6.0.0.dir/__/__/__/mesh/core/src/transport.c.obj
                0x0000000000036268                transport_control_tx
 .text.transport_opt_set
                0x000000000003632c       0xdc CMakeFiles/pb_remote_client_nrf52840_xxAA_s140_6.0.0.dir/__/__/__/mesh/core/src/transport.c.obj
                0x000000000003632c                transport_opt_set
 .text.transport_opt_get
                0x0000000000036408       0x84 CMakeFiles/pb_remote_client_nrf52840_xxAA_s140_6.0.0.dir/__/__/__/mesh/core/src/transport.c.obj
                0x0000000000036408                transport_opt_get
 .text.transport_control_packet_consumer_add
                0x000000000003648c       0x68 CMakeFiles/pb_remote_client_nrf52840_xxAA_s140_6.0.0.dir/__/__/__/mesh/core/src/transport.c.obj
                0x000000000003648c                transport_control_packet_consumer_add
 .text.event_handle
                0x00000000000364f4       0x28 CMakeFiles/pb_remote_client_nrf52840_xxAA_s140_6.0.0.dir/__/__/__/mesh/core/src/event.c.obj
                0x00000000000364f4                event_handle
 .text.event_handler_add
                0x000000000003651c       0x28 CMakeFiles/pb_remote_client_nrf52840_xxAA_s140_6.0.0.dir/__/__/__/mesh/core/src/event.c.obj
                0x000000000003651c                event_handler_add
 .text.event_handler_remove
                0x0000000000036544       0x28 CMakeFiles/pb_remote_client_nrf52840_xxAA_s140_6.0.0.dir/__/__/__/mesh/core/src/event.c.obj
                0x0000000000036544                event_handler_remove
 .text.packet_buffer_init
                0x000000000003656c       0xb4 CMakeFiles/pb_remote_client_nrf52840_xxAA_s140_6.0.0.dir/__/__/__/mesh/core/src/packet_buffer.c.obj
                0x000000000003656c                packet_buffer_init
 .text.packet_buffer_flush
                0x0000000000036620       0x6c CMakeFiles/pb_remote_client_nrf52840_xxAA_s140_6.0.0.dir/__/__/__/mesh/core/src/packet_buffer.c.obj
                0x0000000000036620                packet_buffer_flush
 .text.packet_buffer_reserve
                0x000000000003668c       0xa4 CMakeFiles/pb_remote_client_nrf52840_xxAA_s140_6.0.0.dir/__/__/__/mesh/core/src/packet_buffer.c.obj
                0x000000000003668c                packet_buffer_reserve
 .text.packet_buffer_commit
                0x0000000000036730       0x7c CMakeFiles/pb_remote_client_nrf52840_xxAA_s140_6.0.0.dir/__/__/__/mesh/core/src/packet_buffer.c.obj
                0x0000000000036730                packet_buffer_commit
 .text.packet_buffer_pop
                0x00000000000367ac       0x44 CMakeFiles/pb_remote_client_nrf52840_xxAA_s140_6.0.0.dir/__/__/__/mesh/core/src/packet_buffer.c.obj
                0x00000000000367ac                packet_buffer_pop
 .text.packet_buffer_can_pop
                0x00000000000367f0       0x24 CMakeFiles/pb_remote_client_nrf52840_xxAA_s140_6.0.0.dir/__/__/__/mesh/core/src/packet_buffer.c.obj
                0x00000000000367f0                packet_buffer_can_pop
 .text.packet_buffer_packets_ready_to_pop
                0x0000000000036814       0x5c CMakeFiles/pb_remote_client_nrf52840_xxAA_s140_6.0.0.dir/__/__/__/mesh/core/src/packet_buffer.c.obj
                0x0000000000036814                packet_buffer_packets_ready_to_pop
 .text.packet_buffer_free
                0x0000000000036870       0x8c CMakeFiles/pb_remote_client_nrf52840_xxAA_s140_6.0.0.dir/__/__/__/mesh/core/src/packet_buffer.c.obj
                0x0000000000036870                packet_buffer_free
 .text.erase_source
                0x00000000000368fc       0x34 CMakeFiles/pb_remote_client_nrf52840_xxAA_s140_6.0.0.dir/__/__/__/mesh/core/src/flash_manager_defrag.c.obj
 .text.erase_recovery_area
                0x0000000000036930       0x34 CMakeFiles/pb_remote_client_nrf52840_xxAA_s140_6.0.0.dir/__/__/__/mesh/core/src/flash_manager_defrag.c.obj
 .text.write_back
                0x0000000000036964       0x44 CMakeFiles/pb_remote_client_nrf52840_xxAA_s140_6.0.0.dir/__/__/__/mesh/core/src/flash_manager_defrag.c.obj
 .text.write_defrag_start_pointer
                0x00000000000369a8       0x38 CMakeFiles/pb_remote_client_nrf52840_xxAA_s140_6.0.0.dir/__/__/__/mesh/core/src/flash_manager_defrag.c.obj
 .text.copy_metadata
                0x00000000000369e0       0x58 CMakeFiles/pb_remote_client_nrf52840_xxAA_s140_6.0.0.dir/__/__/__/mesh/core/src/flash_manager_defrag.c.obj
 .text.seal_storage_page
                0x0000000000036a38       0x70 CMakeFiles/pb_remote_client_nrf52840_xxAA_s140_6.0.0.dir/__/__/__/mesh/core/src/flash_manager_defrag.c.obj
 .text.post_process
                0x0000000000036aa8       0x64 CMakeFiles/pb_remote_client_nrf52840_xxAA_s140_6.0.0.dir/__/__/__/mesh/core/src/flash_manager_defrag.c.obj
 .text.check_for_invalid_entries
                0x0000000000036b0c       0x40 CMakeFiles/pb_remote_client_nrf52840_xxAA_s140_6.0.0.dir/__/__/__/mesh/core/src/flash_manager_defrag.c.obj
 .text.execute_procedure_step
                0x0000000000036b4c       0x98 CMakeFiles/pb_remote_client_nrf52840_xxAA_s140_6.0.0.dir/__/__/__/mesh/core/src/flash_manager_defrag.c.obj
 .text.on_flash_op_end
                0x0000000000036be4       0x48 CMakeFiles/pb_remote_client_nrf52840_xxAA_s140_6.0.0.dir/__/__/__/mesh/core/src/flash_manager_defrag.c.obj
 .text.invalidate_duplicate_entries
                0x0000000000036c2c      0x150 CMakeFiles/pb_remote_client_nrf52840_xxAA_s140_6.0.0.dir/__/__/__/mesh/core/src/flash_manager_defrag.c.obj
 .text.backup_entries
                0x0000000000036d7c      0x1c8 CMakeFiles/pb_remote_client_nrf52840_xxAA_s140_6.0.0.dir/__/__/__/mesh/core/src/flash_manager_defrag.c.obj
 .text.flash_manager_defrag_init
                0x0000000000036f44       0x6c CMakeFiles/pb_remote_client_nrf52840_xxAA_s140_6.0.0.dir/__/__/__/mesh/core/src/flash_manager_defrag.c.obj
                0x0000000000036f44                flash_manager_defrag_init
 .text.flash_manager_defrag_is_running
                0x0000000000036fb0       0x10 CMakeFiles/pb_remote_client_nrf52840_xxAA_s140_6.0.0.dir/__/__/__/mesh/core/src/flash_manager_defrag.c.obj
                0x0000000000036fb0                flash_manager_defrag_is_running
 .text.flash_manager_defrag
                0x0000000000036fc0       0x48 CMakeFiles/pb_remote_client_nrf52840_xxAA_s140_6.0.0.dir/__/__/__/mesh/core/src/flash_manager_defrag.c.obj
                0x0000000000036fc0                flash_manager_defrag
 .text.flash_manager_defrag_recovery_page_get
                0x0000000000037008        0xc CMakeFiles/pb_remote_client_nrf52840_xxAA_s140_6.0.0.dir/__/__/__/mesh/core/src/flash_manager_defrag.c.obj
                0x0000000000037008                flash_manager_defrag_recovery_page_get
 .text.fifo_init
                0x0000000000037014       0x38 CMakeFiles/pb_remote_client_nrf52840_xxAA_s140_6.0.0.dir/__/__/__/mesh/core/src/fifo.c.obj
                0x0000000000037014                fifo_init
 .text.fifo_push
                0x000000000003704c       0x60 CMakeFiles/pb_remote_client_nrf52840_xxAA_s140_6.0.0.dir/__/__/__/mesh/core/src/fifo.c.obj
                0x000000000003704c                fifo_push
 .text.fifo_pop
                0x00000000000370ac       0x5c CMakeFiles/pb_remote_client_nrf52840_xxAA_s140_6.0.0.dir/__/__/__/mesh/core/src/fifo.c.obj
                0x00000000000370ac                fifo_pop
 .text.nrf_flash_erase
                0x0000000000037108       0x5c CMakeFiles/pb_remote_client_nrf52840_xxAA_s140_6.0.0.dir/__/__/__/mesh/core/src/nrf_flash.c.obj
                0x0000000000037108                nrf_flash_erase
 .text.nrf_flash_write
                0x0000000000037164       0x70 CMakeFiles/pb_remote_client_nrf52840_xxAA_s140_6.0.0.dir/__/__/__/mesh/core/src/nrf_flash.c.obj
                0x0000000000037164                nrf_flash_write
 .text.packet_mgr_init
                0x00000000000371d4       0x48 CMakeFiles/pb_remote_client_nrf52840_xxAA_s140_6.0.0.dir/__/__/__/mesh/core/src/packet_mgr.c.obj
                0x00000000000371d4                packet_mgr_init
 .text.flash_store_iv_index
                0x000000000003721c       0x38 CMakeFiles/pb_remote_client_nrf52840_xxAA_s140_6.0.0.dir/__/__/__/mesh/core/src/net_state.c.obj
 .text.flash_mem_available
                0x0000000000037254       0x1c CMakeFiles/pb_remote_client_nrf52840_xxAA_s140_6.0.0.dir/__/__/__/mesh/core/src/net_state.c.obj
 .text.init_flash_storage
                0x0000000000037270       0x44 CMakeFiles/pb_remote_client_nrf52840_xxAA_s140_6.0.0.dir/__/__/__/mesh/core/src/net_state.c.obj
 .text.flash_write_complete
                0x00000000000372b4       0x6c CMakeFiles/pb_remote_client_nrf52840_xxAA_s140_6.0.0.dir/__/__/__/mesh/core/src/net_state.c.obj
 .text.seqnum_block_allocate
                0x0000000000037320       0x4c CMakeFiles/pb_remote_client_nrf52840_xxAA_s140_6.0.0.dir/__/__/__/mesh/core/src/net_state.c.obj
 .text.net_state_reset
                0x000000000003736c       0x78 CMakeFiles/pb_remote_client_nrf52840_xxAA_s140_6.0.0.dir/__/__/__/mesh/core/src/net_state.c.obj
                0x000000000003736c                net_state_reset
 .text.iv_update_trigger_if_pending
                0x00000000000373e4      0x174 CMakeFiles/pb_remote_client_nrf52840_xxAA_s140_6.0.0.dir/__/__/__/mesh/core/src/net_state.c.obj
 .text.iv_update_timer_handler
                0x0000000000037558       0x70 CMakeFiles/pb_remote_client_nrf52840_xxAA_s140_6.0.0.dir/__/__/__/mesh/core/src/net_state.c.obj
 .text.mesh_evt_handler
                0x00000000000375c8      0x104 CMakeFiles/pb_remote_client_nrf52840_xxAA_s140_6.0.0.dir/__/__/__/mesh/core/src/net_state.c.obj
 .text.net_state_recover_from_flash
                0x00000000000376cc      0x118 CMakeFiles/pb_remote_client_nrf52840_xxAA_s140_6.0.0.dir/__/__/__/mesh/core/src/net_state.c.obj
                0x00000000000376cc                net_state_recover_from_flash
 .text.net_state_flash_area_get
                0x00000000000377e4        0xc CMakeFiles/pb_remote_client_nrf52840_xxAA_s140_6.0.0.dir/__/__/__/mesh/core/src/net_state.c.obj
                0x00000000000377e4                net_state_flash_area_get
 .text.net_state_init
                0x00000000000377f0       0x94 CMakeFiles/pb_remote_client_nrf52840_xxAA_s140_6.0.0.dir/__/__/__/mesh/core/src/net_state.c.obj
                0x00000000000377f0                net_state_init
 .text.net_state_seqnum_alloc
                0x0000000000037884       0xd0 CMakeFiles/pb_remote_client_nrf52840_xxAA_s140_6.0.0.dir/__/__/__/mesh/core/src/net_state.c.obj
                0x0000000000037884                net_state_seqnum_alloc
 .text.net_state_iv_index_lock
                0x0000000000037954      0x188 CMakeFiles/pb_remote_client_nrf52840_xxAA_s140_6.0.0.dir/__/__/__/mesh/core/src/net_state.c.obj
                0x0000000000037954                net_state_iv_index_lock
 .text.net_state_key_refresh_phase_changed
                0x0000000000037adc       0x20 CMakeFiles/pb_remote_client_nrf52840_xxAA_s140_6.0.0.dir/__/__/__/mesh/core/src/net_state.c.obj
                0x0000000000037adc                net_state_key_refresh_phase_changed
 .text.net_state_beacon_iv_index_get
                0x0000000000037afc        0xc CMakeFiles/pb_remote_client_nrf52840_xxAA_s140_6.0.0.dir/__/__/__/mesh/core/src/net_state.c.obj
                0x0000000000037afc                net_state_beacon_iv_index_get
 .text.net_state_tx_iv_index_get
                0x0000000000037b08       0x14 CMakeFiles/pb_remote_client_nrf52840_xxAA_s140_6.0.0.dir/__/__/__/mesh/core/src/net_state.c.obj
                0x0000000000037b08                net_state_tx_iv_index_get
 .text.net_state_rx_iv_index_get
                0x0000000000037b1c       0x18 CMakeFiles/pb_remote_client_nrf52840_xxAA_s140_6.0.0.dir/__/__/__/mesh/core/src/net_state.c.obj
                0x0000000000037b1c                net_state_rx_iv_index_get
 .text.net_state_iv_update_get
                0x0000000000037b34        0xc CMakeFiles/pb_remote_client_nrf52840_xxAA_s140_6.0.0.dir/__/__/__/mesh/core/src/net_state.c.obj
                0x0000000000037b34                net_state_iv_update_get
 .text.send_end_events
                0x0000000000037b40       0x98 CMakeFiles/pb_remote_client_nrf52840_xxAA_s140_6.0.0.dir/__/__/__/mesh/core/src/mesh_flash.c.obj
 .text.flash_op_start
                0x0000000000037bd8      0x214 CMakeFiles/pb_remote_client_nrf52840_xxAA_s140_6.0.0.dir/__/__/__/mesh/core/src/mesh_flash.c.obj
 .text.mesh_flash_init
                0x0000000000037dec       0x78 CMakeFiles/pb_remote_client_nrf52840_xxAA_s140_6.0.0.dir/__/__/__/mesh/core/src/mesh_flash.c.obj
                0x0000000000037dec                mesh_flash_init
 .text.mesh_flash_user_callback_set
                0x0000000000037e64       0x20 CMakeFiles/pb_remote_client_nrf52840_xxAA_s140_6.0.0.dir/__/__/__/mesh/core/src/mesh_flash.c.obj
                0x0000000000037e64                mesh_flash_user_callback_set
 .text.mesh_flash_op_push
                0x0000000000037e84      0x198 CMakeFiles/pb_remote_client_nrf52840_xxAA_s140_6.0.0.dir/__/__/__/mesh/core/src/mesh_flash.c.obj
                0x0000000000037e84                mesh_flash_op_push
 .text.nrf_mesh_address_type_get
                0x000000000003801c       0x10 CMakeFiles/pb_remote_client_nrf52840_xxAA_s140_6.0.0.dir/__/__/__/mesh/core/src/nrf_mesh_utils.c.obj
                0x000000000003801c                nrf_mesh_address_type_get
 .text.sd_softdevice_is_enabled
                0x000000000003802c        0x4 CMakeFiles/pb_remote_client_nrf52840_xxAA_s140_6.0.0.dir/__/__/__/mesh/core/src/nrf_mesh.c.obj
 .text.nrf_mesh_listen
                0x0000000000038030      0x184 CMakeFiles/pb_remote_client_nrf52840_xxAA_s140_6.0.0.dir/__/__/__/mesh/core/src/nrf_mesh.c.obj
 .text.flash_stable_cb
                0x00000000000381b4       0x20 CMakeFiles/pb_remote_client_nrf52840_xxAA_s140_6.0.0.dir/__/__/__/mesh/core/src/nrf_mesh.c.obj
 .text.scanner_packet_process_cb
                0x00000000000381d4       0x88 CMakeFiles/pb_remote_client_nrf52840_xxAA_s140_6.0.0.dir/__/__/__/mesh/core/src/nrf_mesh.c.obj
 .text.nrf_mesh_init
                0x000000000003825c       0xe4 CMakeFiles/pb_remote_client_nrf52840_xxAA_s140_6.0.0.dir/__/__/__/mesh/core/src/nrf_mesh.c.obj
                0x000000000003825c                nrf_mesh_init
 .text.nrf_mesh_enable
                0x0000000000038340       0x48 CMakeFiles/pb_remote_client_nrf52840_xxAA_s140_6.0.0.dir/__/__/__/mesh/core/src/nrf_mesh.c.obj
                0x0000000000038340                nrf_mesh_enable
 .text.nrf_mesh_packet_send
                0x0000000000038388       0x94 CMakeFiles/pb_remote_client_nrf52840_xxAA_s140_6.0.0.dir/__/__/__/mesh/core/src/nrf_mesh.c.obj
                0x0000000000038388                nrf_mesh_packet_send
 .text.nrf_mesh_evt_handler_add
                0x000000000003841c        0x4 CMakeFiles/pb_remote_client_nrf52840_xxAA_s140_6.0.0.dir/__/__/__/mesh/core/src/nrf_mesh.c.obj
                0x000000000003841c                nrf_mesh_evt_handler_add
 .text.nrf_mesh_on_sd_evt
                0x0000000000038420        0xc CMakeFiles/pb_remote_client_nrf52840_xxAA_s140_6.0.0.dir/__/__/__/mesh/core/src/nrf_mesh.c.obj
                0x0000000000038420                nrf_mesh_on_sd_evt
 .text.nrf_mesh_subnet_added
                0x000000000003842c        0x4 CMakeFiles/pb_remote_client_nrf52840_xxAA_s140_6.0.0.dir/__/__/__/mesh/core/src/nrf_mesh.c.obj
                0x000000000003842c                nrf_mesh_subnet_added
 .text.queue_init
                0x0000000000038430       0x1c CMakeFiles/pb_remote_client_nrf52840_xxAA_s140_6.0.0.dir/__/__/__/mesh/core/src/queue.c.obj
                0x0000000000038430                queue_init
 .text.queue_push
                0x000000000003844c       0x3c CMakeFiles/pb_remote_client_nrf52840_xxAA_s140_6.0.0.dir/__/__/__/mesh/core/src/queue.c.obj
                0x000000000003844c                queue_push
 .text.queue_pop
                0x0000000000038488       0x2c CMakeFiles/pb_remote_client_nrf52840_xxAA_s140_6.0.0.dir/__/__/__/mesh/core/src/queue.c.obj
                0x0000000000038488                queue_pop
 .text.queue_peek
                0x00000000000384b4       0x14 CMakeFiles/pb_remote_client_nrf52840_xxAA_s140_6.0.0.dir/__/__/__/mesh/core/src/queue.c.obj
                0x00000000000384b4                queue_peek
 .text.hal_lfclk_ppm_get
                0x00000000000384c8       0x14 CMakeFiles/pb_remote_client_nrf52840_xxAA_s140_6.0.0.dir/__/__/__/mesh/core/src/hal.c.obj
                0x00000000000384c8                hal_lfclk_ppm_get
 .text.aes_cmac_subkey_generate
                0x00000000000384dc      0x294 CMakeFiles/pb_remote_client_nrf52840_xxAA_s140_6.0.0.dir/__/__/__/mesh/core/src/aes_cmac.c.obj
                0x00000000000384dc                aes_cmac_subkey_generate
 .text.aes_cmac
                0x0000000000038770      0x4b8 CMakeFiles/pb_remote_client_nrf52840_xxAA_s140_6.0.0.dir/__/__/__/mesh/core/src/aes_cmac.c.obj
                0x0000000000038770                aes_cmac
 .text.timer_cb
                0x0000000000038c28        0xc CMakeFiles/pb_remote_client_nrf52840_xxAA_s140_6.0.0.dir/__/__/__/mesh/core/src/timer_scheduler.c.obj
 .text.add_evt.constprop.1
                0x0000000000038c34       0x60 CMakeFiles/pb_remote_client_nrf52840_xxAA_s140_6.0.0.dir/__/__/__/mesh/core/src/timer_scheduler.c.obj
 .text.flag_event_cb
                0x0000000000038c94      0x2f0 CMakeFiles/pb_remote_client_nrf52840_xxAA_s140_6.0.0.dir/__/__/__/mesh/core/src/timer_scheduler.c.obj
 .text.timer_sch_init
                0x0000000000038f84       0x24 CMakeFiles/pb_remote_client_nrf52840_xxAA_s140_6.0.0.dir/__/__/__/mesh/core/src/timer_scheduler.c.obj
                0x0000000000038f84                timer_sch_init
 .text.timer_sch_schedule
                0x0000000000038fa8       0x68 CMakeFiles/pb_remote_client_nrf52840_xxAA_s140_6.0.0.dir/__/__/__/mesh/core/src/timer_scheduler.c.obj
                0x0000000000038fa8                timer_sch_schedule
 .text.timer_sch_abort
                0x0000000000039010       0x5c CMakeFiles/pb_remote_client_nrf52840_xxAA_s140_6.0.0.dir/__/__/__/mesh/core/src/timer_scheduler.c.obj
                0x0000000000039010                timer_sch_abort
 .text.timer_sch_reschedule
                0x000000000003906c       0x90 CMakeFiles/pb_remote_client_nrf52840_xxAA_s140_6.0.0.dir/__/__/__/mesh/core/src/timer_scheduler.c.obj
                0x000000000003906c                timer_sch_reschedule
 .text.timer_event_handler
                0x00000000000390fc       0xd0 CMakeFiles/pb_remote_client_nrf52840_xxAA_s140_6.0.0.dir/__/__/__/mesh/core/src/timer.c.obj
                0x00000000000390fc                timer_event_handler
 .text.timer_order_cb
                0x00000000000391cc       0x9c CMakeFiles/pb_remote_client_nrf52840_xxAA_s140_6.0.0.dir/__/__/__/mesh/core/src/timer.c.obj
                0x00000000000391cc                timer_order_cb
 .text.timer_now
                0x0000000000039268       0x58 CMakeFiles/pb_remote_client_nrf52840_xxAA_s140_6.0.0.dir/__/__/__/mesh/core/src/timer.c.obj
                0x0000000000039268                timer_now
 .text.timer_on_ts_begin
                0x00000000000392c0      0x100 CMakeFiles/pb_remote_client_nrf52840_xxAA_s140_6.0.0.dir/__/__/__/mesh/core/src/timer.c.obj
                0x00000000000392c0                timer_on_ts_begin
 .text.timer_on_ts_end
                0x00000000000393c0       0x78 CMakeFiles/pb_remote_client_nrf52840_xxAA_s140_6.0.0.dir/__/__/__/mesh/core/src/timer.c.obj
                0x00000000000393c0                timer_on_ts_end
 .text.timer_cb
                0x0000000000039438       0x10 CMakeFiles/pb_remote_client_nrf52840_xxAA_s140_6.0.0.dir/__/__/__/mesh/core/src/ticker.c.obj
 .text.ticker_init
                0x0000000000039448       0x3c CMakeFiles/pb_remote_client_nrf52840_xxAA_s140_6.0.0.dir/__/__/__/mesh/core/src/ticker.c.obj
                0x0000000000039448                ticker_init
 .text.sd_rand_application_bytes_available_get
                0x0000000000039484        0x4 CMakeFiles/pb_remote_client_nrf52840_xxAA_s140_6.0.0.dir/__/__/__/mesh/core/src/rand.c.obj
 .text.sd_rand_application_vector_get
                0x0000000000039488        0x4 CMakeFiles/pb_remote_client_nrf52840_xxAA_s140_6.0.0.dir/__/__/__/mesh/core/src/rand.c.obj
 .text.rand_prng_seed
                0x000000000003948c       0x78 CMakeFiles/pb_remote_client_nrf52840_xxAA_s140_6.0.0.dir/__/__/__/mesh/core/src/rand.c.obj
                0x000000000003948c                rand_prng_seed
 .text.rand_prng_get
                0x0000000000039504       0x28 CMakeFiles/pb_remote_client_nrf52840_xxAA_s140_6.0.0.dir/__/__/__/mesh/core/src/rand.c.obj
                0x0000000000039504                rand_prng_get
 .text.rand_hw_rng_get
                0x000000000003952c       0x60 CMakeFiles/pb_remote_client_nrf52840_xxAA_s140_6.0.0.dir/__/__/__/mesh/core/src/rand.c.obj
                0x000000000003952c                rand_hw_rng_get
 .text.nrf_mesh_opt_set
                0x000000000003958c       0x28 CMakeFiles/pb_remote_client_nrf52840_xxAA_s140_6.0.0.dir/__/__/__/mesh/core/src/nrf_mesh_opt.c.obj
                0x000000000003958c                nrf_mesh_opt_set
 .text.nrf_mesh_opt_get
                0x00000000000395b4       0x28 CMakeFiles/pb_remote_client_nrf52840_xxAA_s140_6.0.0.dir/__/__/__/mesh/core/src/nrf_mesh_opt.c.obj
                0x00000000000395b4                nrf_mesh_opt_get
 .text.sd_radio_session_open
                0x00000000000395dc        0x4 CMakeFiles/pb_remote_client_nrf52840_xxAA_s140_6.0.0.dir/__/__/__/mesh/core/src/timeslot.c.obj
 .text.sd_radio_session_close
                0x00000000000395e0        0x4 CMakeFiles/pb_remote_client_nrf52840_xxAA_s140_6.0.0.dir/__/__/__/mesh/core/src/timeslot.c.obj
 .text.sd_radio_request
                0x00000000000395e4        0x4 CMakeFiles/pb_remote_client_nrf52840_xxAA_s140_6.0.0.dir/__/__/__/mesh/core/src/timeslot.c.obj
 .text.end_timer_handler
                0x00000000000395e8       0x2c CMakeFiles/pb_remote_client_nrf52840_xxAA_s140_6.0.0.dir/__/__/__/mesh/core/src/timeslot.c.obj
 .text.radio_signal_callback
                0x0000000000039614      0x2b4 CMakeFiles/pb_remote_client_nrf52840_xxAA_s140_6.0.0.dir/__/__/__/mesh/core/src/timeslot.c.obj
 .text.timeslot_sd_event_handler
                0x00000000000398c8       0x44 CMakeFiles/pb_remote_client_nrf52840_xxAA_s140_6.0.0.dir/__/__/__/mesh/core/src/timeslot.c.obj
                0x00000000000398c8                timeslot_sd_event_handler
 .text.timeslot_init
                0x000000000003990c       0x4c CMakeFiles/pb_remote_client_nrf52840_xxAA_s140_6.0.0.dir/__/__/__/mesh/core/src/timeslot.c.obj
                0x000000000003990c                timeslot_init
 .text.timeslot_start
                0x0000000000039958       0x20 CMakeFiles/pb_remote_client_nrf52840_xxAA_s140_6.0.0.dir/__/__/__/mesh/core/src/timeslot.c.obj
                0x0000000000039958                timeslot_start
 .text.timeslot_stop
                0x0000000000039978       0x30 CMakeFiles/pb_remote_client_nrf52840_xxAA_s140_6.0.0.dir/__/__/__/mesh/core/src/timeslot.c.obj
                0x0000000000039978                timeslot_stop
 .text.timeslot_state_lock
                0x00000000000399a8       0x44 CMakeFiles/pb_remote_client_nrf52840_xxAA_s140_6.0.0.dir/__/__/__/mesh/core/src/timeslot.c.obj
                0x00000000000399a8                timeslot_state_lock
 .text.timeslot_end_is_pending
                0x00000000000399ec       0x24 CMakeFiles/pb_remote_client_nrf52840_xxAA_s140_6.0.0.dir/__/__/__/mesh/core/src/timeslot.c.obj
                0x00000000000399ec                timeslot_end_is_pending
 .text.timeslot_start_time_get
                0x0000000000039a10        0xc CMakeFiles/pb_remote_client_nrf52840_xxAA_s140_6.0.0.dir/__/__/__/mesh/core/src/timeslot.c.obj
                0x0000000000039a10                timeslot_start_time_get
 .text.timeslot_remaining_time_get
                0x0000000000039a1c       0x40 CMakeFiles/pb_remote_client_nrf52840_xxAA_s140_6.0.0.dir/__/__/__/mesh/core/src/timeslot.c.obj
                0x0000000000039a1c                timeslot_remaining_time_get
 .text.timeslot_is_in_cb
                0x0000000000039a5c        0xc CMakeFiles/pb_remote_client_nrf52840_xxAA_s140_6.0.0.dir/__/__/__/mesh/core/src/timeslot.c.obj
                0x0000000000039a5c                timeslot_is_in_cb
 .text.timeslot_trigger
                0x0000000000039a68       0x24 CMakeFiles/pb_remote_client_nrf52840_xxAA_s140_6.0.0.dir/__/__/__/mesh/core/src/timeslot.c.obj
                0x0000000000039a68                timeslot_trigger
 .text.bearer_event_init
                0x0000000000039a8c       0x4c CMakeFiles/pb_remote_client_nrf52840_xxAA_s140_6.0.0.dir/__/__/__/mesh/core/src/bearer_event.c.obj
                0x0000000000039a8c                bearer_event_init
 .text.bearer_event_timer_post
                0x0000000000039ad8       0x50 CMakeFiles/pb_remote_client_nrf52840_xxAA_s140_6.0.0.dir/__/__/__/mesh/core/src/bearer_event.c.obj
                0x0000000000039ad8                bearer_event_timer_post
 .text.bearer_event_critical_section_begin
                0x0000000000039b28       0x44 CMakeFiles/pb_remote_client_nrf52840_xxAA_s140_6.0.0.dir/__/__/__/mesh/core/src/bearer_event.c.obj
                0x0000000000039b28                bearer_event_critical_section_begin
 .text.bearer_event_critical_section_end
                0x0000000000039b6c       0x40 CMakeFiles/pb_remote_client_nrf52840_xxAA_s140_6.0.0.dir/__/__/__/mesh/core/src/bearer_event.c.obj
                0x0000000000039b6c                bearer_event_critical_section_end
 .text.bearer_event_flag_add
                0x0000000000039bac       0x40 CMakeFiles/pb_remote_client_nrf52840_xxAA_s140_6.0.0.dir/__/__/__/mesh/core/src/bearer_event.c.obj
                0x0000000000039bac                bearer_event_flag_add
 .text.bearer_event_flag_set
                0x0000000000039bec       0x5c CMakeFiles/pb_remote_client_nrf52840_xxAA_s140_6.0.0.dir/__/__/__/mesh/core/src/bearer_event.c.obj
                0x0000000000039bec                bearer_event_flag_set
 .text.bearer_event_sequential_add
                0x0000000000039c48       0x34 CMakeFiles/pb_remote_client_nrf52840_xxAA_s140_6.0.0.dir/__/__/__/mesh/core/src/bearer_event.c.obj
                0x0000000000039c48                bearer_event_sequential_add
 .text.bearer_event_sequential_post
                0x0000000000039c7c       0x64 CMakeFiles/pb_remote_client_nrf52840_xxAA_s140_6.0.0.dir/__/__/__/mesh/core/src/bearer_event.c.obj
                0x0000000000039c7c                bearer_event_sequential_post
 .text.bearer_event_sequential_pending
                0x0000000000039ce0       0x14 CMakeFiles/pb_remote_client_nrf52840_xxAA_s140_6.0.0.dir/__/__/__/mesh/core/src/bearer_event.c.obj
                0x0000000000039ce0                bearer_event_sequential_pending
 .text.bearer_event_handler
                0x0000000000039cf4      0x16c CMakeFiles/pb_remote_client_nrf52840_xxAA_s140_6.0.0.dir/__/__/__/mesh/core/src/bearer_event.c.obj
                0x0000000000039cf4                bearer_event_handler
 .text.QDEC_IRQHandler
                0x0000000000039e60        0x4 CMakeFiles/pb_remote_client_nrf52840_xxAA_s140_6.0.0.dir/__/__/__/mesh/core/src/bearer_event.c.obj
                0x0000000000039e60                QDEC_IRQHandler
 .text.enc_aes_encrypt
                0x0000000000039e64        0x4 CMakeFiles/pb_remote_client_nrf52840_xxAA_s140_6.0.0.dir/__/__/__/mesh/core/src/enc.c.obj
                0x0000000000039e64                enc_aes_encrypt
 .text.enc_aes_cmac
                0x0000000000039e68        0x4 CMakeFiles/pb_remote_client_nrf52840_xxAA_s140_6.0.0.dir/__/__/__/mesh/core/src/enc.c.obj
                0x0000000000039e68                enc_aes_cmac
 .text.enc_aes_ccm_encrypt
                0x0000000000039e6c        0x4 CMakeFiles/pb_remote_client_nrf52840_xxAA_s140_6.0.0.dir/__/__/__/mesh/core/src/enc.c.obj
                0x0000000000039e6c                enc_aes_ccm_encrypt
 .text.enc_aes_ccm_decrypt
                0x0000000000039e70        0x4 CMakeFiles/pb_remote_client_nrf52840_xxAA_s140_6.0.0.dir/__/__/__/mesh/core/src/enc.c.obj
                0x0000000000039e70                enc_aes_ccm_decrypt
 .text.enc_nonce_generate
                0x0000000000039e74       0xc8 CMakeFiles/pb_remote_client_nrf52840_xxAA_s140_6.0.0.dir/__/__/__/mesh/core/src/enc.c.obj
                0x0000000000039e74                enc_nonce_generate
 .text.enc_s1   0x0000000000039f3c       0x30 CMakeFiles/pb_remote_client_nrf52840_xxAA_s140_6.0.0.dir/__/__/__/mesh/core/src/enc.c.obj
                0x0000000000039f3c                enc_s1
 .text.enc_k1   0x0000000000039f6c       0x40 CMakeFiles/pb_remote_client_nrf52840_xxAA_s140_6.0.0.dir/__/__/__/mesh/core/src/enc.c.obj
                0x0000000000039f6c                enc_k1
 .text.enc_k2   0x0000000000039fac       0xe0 CMakeFiles/pb_remote_client_nrf52840_xxAA_s140_6.0.0.dir/__/__/__/mesh/core/src/enc.c.obj
                0x0000000000039fac                enc_k2
 .text.enc_k3   0x000000000003a08c       0x68 CMakeFiles/pb_remote_client_nrf52840_xxAA_s140_6.0.0.dir/__/__/__/mesh/core/src/enc.c.obj
                0x000000000003a08c                enc_k3
 .text.enc_k4   0x000000000003a0f4       0x60 CMakeFiles/pb_remote_client_nrf52840_xxAA_s140_6.0.0.dir/__/__/__/mesh/core/src/enc.c.obj
                0x000000000003a0f4                enc_k4
 .text.network_init
                0x000000000003a154       0x28 CMakeFiles/pb_remote_client_nrf52840_xxAA_s140_6.0.0.dir/__/__/__/mesh/core/src/network.c.obj
                0x000000000003a154                network_init
 .text.network_opt_set
                0x000000000003a17c       0x84 CMakeFiles/pb_remote_client_nrf52840_xxAA_s140_6.0.0.dir/__/__/__/mesh/core/src/network.c.obj
                0x000000000003a17c                network_opt_set
 .text.network_opt_get
                0x000000000003a200       0x5c CMakeFiles/pb_remote_client_nrf52840_xxAA_s140_6.0.0.dir/__/__/__/mesh/core/src/network.c.obj
                0x000000000003a200                network_opt_get
 .text.network_packet_alloc
                0x000000000003a25c       0xa0 CMakeFiles/pb_remote_client_nrf52840_xxAA_s140_6.0.0.dir/__/__/__/mesh/core/src/network.c.obj
                0x000000000003a25c                network_packet_alloc
 .text.network_packet_send
                0x000000000003a2fc       0x58 CMakeFiles/pb_remote_client_nrf52840_xxAA_s140_6.0.0.dir/__/__/__/mesh/core/src/network.c.obj
                0x000000000003a2fc                network_packet_send
 .text.network_packet_in
                0x000000000003a354      0x1c8 CMakeFiles/pb_remote_client_nrf52840_xxAA_s140_6.0.0.dir/__/__/__/mesh/core/src/network.c.obj
                0x000000000003a354                network_packet_in
 .text.net_packet_decrypt
                0x000000000003a51c      0x2bc CMakeFiles/pb_remote_client_nrf52840_xxAA_s140_6.0.0.dir/__/__/__/mesh/core/src/net_packet.c.obj
                0x000000000003a51c                net_packet_decrypt
 .text.net_packet_encrypt
                0x000000000003a7d8      0x100 CMakeFiles/pb_remote_client_nrf52840_xxAA_s140_6.0.0.dir/__/__/__/mesh/core/src/net_packet.c.obj
                0x000000000003a7d8                net_packet_encrypt
 .text.net_packet_header_set
                0x000000000003a8d8       0xc0 CMakeFiles/pb_remote_client_nrf52840_xxAA_s140_6.0.0.dir/__/__/__/mesh/core/src/net_packet.c.obj
                0x000000000003a8d8                net_packet_header_set
 .text.net_packet_payload_len_get
                0x000000000003a998       0x14 CMakeFiles/pb_remote_client_nrf52840_xxAA_s140_6.0.0.dir/__/__/__/mesh/core/src/net_packet.c.obj
                0x000000000003a998                net_packet_payload_len_get
 .text.net_packet_from_payload
                0x000000000003a9ac        0x4 CMakeFiles/pb_remote_client_nrf52840_xxAA_s140_6.0.0.dir/__/__/__/mesh/core/src/net_packet.c.obj
                0x000000000003a9ac                net_packet_from_payload
 .text.net_packet_obfuscation_start_get
                0x000000000003a9b0        0x4 CMakeFiles/pb_remote_client_nrf52840_xxAA_s140_6.0.0.dir/__/__/__/mesh/core/src/net_packet.c.obj
                0x000000000003a9b0                net_packet_obfuscation_start_get
 .text.msq_init
                0x000000000003a9b4       0x6c CMakeFiles/pb_remote_client_nrf52840_xxAA_s140_6.0.0.dir/__/__/__/mesh/core/src/msqueue.c.obj
                0x000000000003a9b4                msq_init
 .text.msq_get  0x000000000003aa20       0x54 CMakeFiles/pb_remote_client_nrf52840_xxAA_s140_6.0.0.dir/__/__/__/mesh/core/src/msqueue.c.obj
                0x000000000003aa20                msq_get
 .text.msq_move
                0x000000000003aa74       0x4c CMakeFiles/pb_remote_client_nrf52840_xxAA_s140_6.0.0.dir/__/__/__/mesh/core/src/msqueue.c.obj
                0x000000000003aa74                msq_move
 .text.msq_available
                0x000000000003aac0       0x44 CMakeFiles/pb_remote_client_nrf52840_xxAA_s140_6.0.0.dir/__/__/__/mesh/core/src/msqueue.c.obj
                0x000000000003aac0                msq_available
 .text.nrf_mesh_keygen_aid
                0x000000000003ab04       0x18 CMakeFiles/pb_remote_client_nrf52840_xxAA_s140_6.0.0.dir/__/__/__/mesh/core/src/nrf_mesh_keygen.c.obj
                0x000000000003ab04                nrf_mesh_keygen_aid
 .text.nrf_mesh_keygen_network_secmat
                0x000000000003ab1c       0x24 CMakeFiles/pb_remote_client_nrf52840_xxAA_s140_6.0.0.dir/__/__/__/mesh/core/src/nrf_mesh_keygen.c.obj
                0x000000000003ab1c                nrf_mesh_keygen_network_secmat
 .text.nrf_mesh_keygen_beacon_secmat
                0x000000000003ab40       0x50 CMakeFiles/pb_remote_client_nrf52840_xxAA_s140_6.0.0.dir/__/__/__/mesh/core/src/nrf_mesh_keygen.c.obj
                0x000000000003ab40                nrf_mesh_keygen_beacon_secmat
 .text.nrf_mesh_keygen_virtual_address
                0x000000000003ab90       0x50 CMakeFiles/pb_remote_client_nrf52840_xxAA_s140_6.0.0.dir/__/__/__/mesh/core/src/nrf_mesh_keygen.c.obj
                0x000000000003ab90                nrf_mesh_keygen_virtual_address
 .text.list_add
                0x000000000003abe0       0x64 CMakeFiles/pb_remote_client_nrf52840_xxAA_s140_6.0.0.dir/__/__/__/mesh/core/src/list.c.obj
                0x000000000003abe0                list_add
 .text.list_remove
                0x000000000003ac44       0x44 CMakeFiles/pb_remote_client_nrf52840_xxAA_s140_6.0.0.dir/__/__/__/mesh/core/src/list.c.obj
                0x000000000003ac44                list_remove
 .text.list_compare_add
                0x000000000003ac88       0x80 CMakeFiles/pb_remote_client_nrf52840_xxAA_s140_6.0.0.dir/__/__/__/mesh/core/src/list.c.obj
                0x000000000003ac88                list_compare_add
 .text.log_callback_rtt
                0x000000000003ad08       0x2c CMakeFiles/pb_remote_client_nrf52840_xxAA_s140_6.0.0.dir/__/__/__/mesh/core/src/log.c.obj
                0x000000000003ad08                log_callback_rtt
 .text.log_init
                0x000000000003ad34       0x20 CMakeFiles/pb_remote_client_nrf52840_xxAA_s140_6.0.0.dir/__/__/__/mesh/core/src/log.c.obj
                0x000000000003ad34                log_init
 .text.log_printf
                0x000000000003ad54       0x20 CMakeFiles/pb_remote_client_nrf52840_xxAA_s140_6.0.0.dir/__/__/__/mesh/core/src/log.c.obj
                0x000000000003ad54                log_printf
 .text.process_action_queue
                0x000000000003ad74      0x794 CMakeFiles/pb_remote_client_nrf52840_xxAA_s140_6.0.0.dir/__/__/__/mesh/core/src/flash_manager.c.obj
 .text.flash_op_ended_callback
                0x000000000003b508       0x24 CMakeFiles/pb_remote_client_nrf52840_xxAA_s140_6.0.0.dir/__/__/__/mesh/core/src/flash_manager.c.obj
 .text.flash_manager_init
                0x000000000003b52c       0x68 CMakeFiles/pb_remote_client_nrf52840_xxAA_s140_6.0.0.dir/__/__/__/mesh/core/src/flash_manager.c.obj
                0x000000000003b52c                flash_manager_init
 .text.flash_manager_remove
                0x000000000003b594       0x6c CMakeFiles/pb_remote_client_nrf52840_xxAA_s140_6.0.0.dir/__/__/__/mesh/core/src/flash_manager.c.obj
                0x000000000003b594                flash_manager_remove
 .text.flash_manager_entry_get
                0x000000000003b600       0x48 CMakeFiles/pb_remote_client_nrf52840_xxAA_s140_6.0.0.dir/__/__/__/mesh/core/src/flash_manager.c.obj
                0x000000000003b600                flash_manager_entry_get
 .text.flash_manager_entry_next_get
                0x000000000003b648      0x144 CMakeFiles/pb_remote_client_nrf52840_xxAA_s140_6.0.0.dir/__/__/__/mesh/core/src/flash_manager.c.obj
                0x000000000003b648                flash_manager_entry_next_get
 .text.flash_manager_entry_alloc
                0x000000000003b78c       0x80 CMakeFiles/pb_remote_client_nrf52840_xxAA_s140_6.0.0.dir/__/__/__/mesh/core/src/flash_manager.c.obj
                0x000000000003b78c                flash_manager_entry_alloc
 .text.flash_manager_entry_commit
                0x000000000003b80c       0x58 CMakeFiles/pb_remote_client_nrf52840_xxAA_s140_6.0.0.dir/__/__/__/mesh/core/src/flash_manager.c.obj
                0x000000000003b80c                flash_manager_entry_commit
 .text.flash_manager_entry_invalidate
                0x000000000003b864       0x98 CMakeFiles/pb_remote_client_nrf52840_xxAA_s140_6.0.0.dir/__/__/__/mesh/core/src/flash_manager.c.obj
                0x000000000003b864                flash_manager_entry_invalidate
 .text.flash_manager_add
                0x000000000003b8fc      0x3f4 CMakeFiles/pb_remote_client_nrf52840_xxAA_s140_6.0.0.dir/__/__/__/mesh/core/src/flash_manager.c.obj
                0x000000000003b8fc                flash_manager_add
 .text.flash_manager_mem_listener_register
                0x000000000003bcf0       0x38 CMakeFiles/pb_remote_client_nrf52840_xxAA_s140_6.0.0.dir/__/__/__/mesh/core/src/flash_manager.c.obj
                0x000000000003bcf0                flash_manager_mem_listener_register
 .text.flash_manager_is_stable
                0x000000000003bd28       0x20 CMakeFiles/pb_remote_client_nrf52840_xxAA_s140_6.0.0.dir/__/__/__/mesh/core/src/flash_manager.c.obj
                0x000000000003bd28                flash_manager_is_stable
 .text.flash_manager_on_defrag_end
                0x000000000003bd48       0x58 CMakeFiles/pb_remote_client_nrf52840_xxAA_s140_6.0.0.dir/__/__/__/mesh/core/src/flash_manager.c.obj
                0x000000000003bd48                flash_manager_on_defrag_end
 .text.flash_manager_recovery_page_get
                0x000000000003bda0        0x4 CMakeFiles/pb_remote_client_nrf52840_xxAA_s140_6.0.0.dir/__/__/__/mesh/core/src/flash_manager.c.obj
                0x000000000003bda0                flash_manager_recovery_page_get
 .text.flash_manager_action_queue_empty_cb_set
                0x000000000003bda4       0x20 CMakeFiles/pb_remote_client_nrf52840_xxAA_s140_6.0.0.dir/__/__/__/mesh/core/src/flash_manager.c.obj
                0x000000000003bda4                flash_manager_action_queue_empty_cb_set
 .text.ccm_soft_crypt.constprop.0
                0x000000000003bdc4      0x274 CMakeFiles/pb_remote_client_nrf52840_xxAA_s140_6.0.0.dir/__/__/__/mesh/core/src/ccm_soft.c.obj
 .text.ccm_soft_authenticate
                0x000000000003c038      0x308 CMakeFiles/pb_remote_client_nrf52840_xxAA_s140_6.0.0.dir/__/__/__/mesh/core/src/ccm_soft.c.obj
 .text.ccm_soft_encrypt
                0x000000000003c340       0x7c CMakeFiles/pb_remote_client_nrf52840_xxAA_s140_6.0.0.dir/__/__/__/mesh/core/src/ccm_soft.c.obj
                0x000000000003c340                ccm_soft_encrypt
 .text.ccm_soft_decrypt
                0x000000000003c3bc      0x114 CMakeFiles/pb_remote_client_nrf52840_xxAA_s140_6.0.0.dir/__/__/__/mesh/core/src/ccm_soft.c.obj
                0x000000000003c3bc                ccm_soft_decrypt
 .text.replay_cache_init
                0x000000000003c4d0       0x20 CMakeFiles/pb_remote_client_nrf52840_xxAA_s140_6.0.0.dir/__/__/__/mesh/core/src/replay_cache.c.obj
                0x000000000003c4d0                replay_cache_init
 .text.replay_cache_add
                0x000000000003c4f0       0x60 CMakeFiles/pb_remote_client_nrf52840_xxAA_s140_6.0.0.dir/__/__/__/mesh/core/src/replay_cache.c.obj
                0x000000000003c4f0                replay_cache_add
 .text.replay_cache_has_elem
                0x000000000003c550       0x40 CMakeFiles/pb_remote_client_nrf52840_xxAA_s140_6.0.0.dir/__/__/__/mesh/core/src/replay_cache.c.obj
                0x000000000003c550                replay_cache_has_elem
 .text.beacon_create
                0x000000000003c590       0x50 CMakeFiles/pb_remote_client_nrf52840_xxAA_s140_6.0.0.dir/__/__/__/mesh/core/src/beacon.c.obj
                0x000000000003c590                beacon_create
 .text.beacon_packet_in
                0x000000000003c5e0      0x178 CMakeFiles/pb_remote_client_nrf52840_xxAA_s140_6.0.0.dir/__/__/__/mesh/core/src/beacon.c.obj
                0x000000000003c5e0                beacon_packet_in
 .text.entry_get
                0x000000000003c758       0x7c CMakeFiles/pb_remote_client_nrf52840_xxAA_s140_6.0.0.dir/__/__/__/mesh/core/src/flash_manager_internal.c.obj
                0x000000000003c758                entry_get
 .text.core_tx_complete_cb_set
                0x000000000003c7d4        0xc CMakeFiles/pb_remote_client_nrf52840_xxAA_s140_6.0.0.dir/__/__/__/mesh/core/src/core_tx.c.obj
                0x000000000003c7d4                core_tx_complete_cb_set
 .text.core_tx_packet_alloc
                0x000000000003c7e0       0xc0 CMakeFiles/pb_remote_client_nrf52840_xxAA_s140_6.0.0.dir/__/__/__/mesh/core/src/core_tx.c.obj
                0x000000000003c7e0                core_tx_packet_alloc
 .text.core_tx_packet_send
                0x000000000003c8a0       0x5c CMakeFiles/pb_remote_client_nrf52840_xxAA_s140_6.0.0.dir/__/__/__/mesh/core/src/core_tx.c.obj
                0x000000000003c8a0                core_tx_packet_send
 .text.core_tx_packet_discard
                0x000000000003c8fc       0x54 CMakeFiles/pb_remote_client_nrf52840_xxAA_s140_6.0.0.dir/__/__/__/mesh/core/src/core_tx.c.obj
                0x000000000003c8fc                core_tx_packet_discard
 .text.core_tx_complete
                0x000000000003c950       0x38 CMakeFiles/pb_remote_client_nrf52840_xxAA_s140_6.0.0.dir/__/__/__/mesh/core/src/core_tx.c.obj
                0x000000000003c950                core_tx_complete
 .text.core_tx_bearer_add
                0x000000000003c988       0x90 CMakeFiles/pb_remote_client_nrf52840_xxAA_s140_6.0.0.dir/__/__/__/mesh/core/src/core_tx.c.obj
                0x000000000003c988                core_tx_bearer_add
 .text.heartbeat_subscription_timer_cb
                0x000000000003ca18       0x1c CMakeFiles/pb_remote_client_nrf52840_xxAA_s140_6.0.0.dir/__/__/__/mesh/core/src/heartbeat.c.obj
 .text.heartbeat_opcode_handle
                0x000000000003ca34       0x8c CMakeFiles/pb_remote_client_nrf52840_xxAA_s140_6.0.0.dir/__/__/__/mesh/core/src/heartbeat.c.obj
 .text.heartbeat_send
                0x000000000003cac0       0xbc CMakeFiles/pb_remote_client_nrf52840_xxAA_s140_6.0.0.dir/__/__/__/mesh/core/src/heartbeat.c.obj
 .text.heartbeat_core_evt_cb
                0x000000000003cb7c       0x94 CMakeFiles/pb_remote_client_nrf52840_xxAA_s140_6.0.0.dir/__/__/__/mesh/core/src/heartbeat.c.obj
 .text.heartbeat_publication_timer_cb
                0x000000000003cc10       0xb0 CMakeFiles/pb_remote_client_nrf52840_xxAA_s140_6.0.0.dir/__/__/__/mesh/core/src/heartbeat.c.obj
 .text.heartbeat_on_feature_change_trigger
                0x000000000003ccc0       0x48 CMakeFiles/pb_remote_client_nrf52840_xxAA_s140_6.0.0.dir/__/__/__/mesh/core/src/heartbeat.c.obj
                0x000000000003ccc0                heartbeat_on_feature_change_trigger
 .text.heartbeat_init
                0x000000000003cd08       0x7c CMakeFiles/pb_remote_client_nrf52840_xxAA_s140_6.0.0.dir/__/__/__/mesh/core/src/heartbeat.c.obj
                0x000000000003cd08                heartbeat_init
 .text.heartbeat_subscription_set
                0x000000000003cd84       0xa4 CMakeFiles/pb_remote_client_nrf52840_xxAA_s140_6.0.0.dir/__/__/__/mesh/core/src/heartbeat.c.obj
                0x000000000003cd84                heartbeat_subscription_set
 .text.heartbeat_subscription_get
                0x000000000003ce28        0x8 CMakeFiles/pb_remote_client_nrf52840_xxAA_s140_6.0.0.dir/__/__/__/mesh/core/src/heartbeat.c.obj
                0x000000000003ce28                heartbeat_subscription_get
 .text.heartbeat_config_server_cb_set
                0x000000000003ce30       0x30 CMakeFiles/pb_remote_client_nrf52840_xxAA_s140_6.0.0.dir/__/__/__/mesh/core/src/heartbeat.c.obj
                0x000000000003ce30                heartbeat_config_server_cb_set
 .text.heartbeat_publication_state_updated
                0x000000000003ce60       0x78 CMakeFiles/pb_remote_client_nrf52840_xxAA_s140_6.0.0.dir/__/__/__/mesh/core/src/heartbeat.c.obj
                0x000000000003ce60                heartbeat_publication_state_updated
 .text.beacon_tx
                0x000000000003ced8      0x194 CMakeFiles/pb_remote_client_nrf52840_xxAA_s140_6.0.0.dir/__/__/__/mesh/core/src/net_beacon.c.obj
 .text.tx_complete_cb
                0x000000000003d06c       0x10 CMakeFiles/pb_remote_client_nrf52840_xxAA_s140_6.0.0.dir/__/__/__/mesh/core/src/net_beacon.c.obj
 .text.beacon_tx_timeout
                0x000000000003d07c        0x4 CMakeFiles/pb_remote_client_nrf52840_xxAA_s140_6.0.0.dir/__/__/__/mesh/core/src/net_beacon.c.obj
 .text.net_beacon_init
                0x000000000003d080       0x94 CMakeFiles/pb_remote_client_nrf52840_xxAA_s140_6.0.0.dir/__/__/__/mesh/core/src/net_beacon.c.obj
                0x000000000003d080                net_beacon_init
 .text.net_beacon_state_set
                0x000000000003d114       0x3c CMakeFiles/pb_remote_client_nrf52840_xxAA_s140_6.0.0.dir/__/__/__/mesh/core/src/net_beacon.c.obj
                0x000000000003d114                net_beacon_state_set
 .text.net_beacon_state_get
                0x000000000003d150        0xc CMakeFiles/pb_remote_client_nrf52840_xxAA_s140_6.0.0.dir/__/__/__/mesh/core/src/net_beacon.c.obj
                0x000000000003d150                net_beacon_state_get
 .text.net_beacon_packet_in
                0x000000000003d15c      0x134 CMakeFiles/pb_remote_client_nrf52840_xxAA_s140_6.0.0.dir/__/__/__/mesh/core/src/net_beacon.c.obj
                0x000000000003d15c                net_beacon_packet_in
 .text.packet_discard
                0x000000000003d290       0x40 CMakeFiles/pb_remote_client_nrf52840_xxAA_s140_6.0.0.dir/__/__/__/mesh/core/src/core_tx_adv.c.obj
 .text.packet_send
                0x000000000003d2d0       0x58 CMakeFiles/pb_remote_client_nrf52840_xxAA_s140_6.0.0.dir/__/__/__/mesh/core/src/core_tx_adv.c.obj
 .text.packet_alloc
                0x000000000003d328       0x5c CMakeFiles/pb_remote_client_nrf52840_xxAA_s140_6.0.0.dir/__/__/__/mesh/core/src/core_tx_adv.c.obj
 .text.adv_tx_complete_callback
                0x000000000003d384       0x28 CMakeFiles/pb_remote_client_nrf52840_xxAA_s140_6.0.0.dir/__/__/__/mesh/core/src/core_tx_adv.c.obj
 .text.core_tx_adv_init
                0x000000000003d3ac       0x60 CMakeFiles/pb_remote_client_nrf52840_xxAA_s140_6.0.0.dir/__/__/__/mesh/core/src/core_tx_adv.c.obj
                0x000000000003d3ac                core_tx_adv_init
 .text.core_tx_adv_count_set
                0x000000000003d40c       0x2c CMakeFiles/pb_remote_client_nrf52840_xxAA_s140_6.0.0.dir/__/__/__/mesh/core/src/core_tx_adv.c.obj
                0x000000000003d40c                core_tx_adv_count_set
 .text.core_tx_adv_count_get
                0x000000000003d438       0x20 CMakeFiles/pb_remote_client_nrf52840_xxAA_s140_6.0.0.dir/__/__/__/mesh/core/src/core_tx_adv.c.obj
                0x000000000003d438                core_tx_adv_count_get
 .text.core_tx_adv_interval_set
                0x000000000003d458       0x28 CMakeFiles/pb_remote_client_nrf52840_xxAA_s140_6.0.0.dir/__/__/__/mesh/core/src/core_tx_adv.c.obj
                0x000000000003d458                core_tx_adv_interval_set
 .text.core_tx_adv_interval_get
                0x000000000003d480       0x2c CMakeFiles/pb_remote_client_nrf52840_xxAA_s140_6.0.0.dir/__/__/__/mesh/core/src/core_tx_adv.c.obj
                0x000000000003d480                core_tx_adv_interval_get
 .text.ad_listener_subscribe
                0x000000000003d4ac       0x60 CMakeFiles/pb_remote_client_nrf52840_xxAA_s140_6.0.0.dir/__/__/__/mesh/bearer/src/ad_listener.c.obj
                0x000000000003d4ac                ad_listener_subscribe
 .text.ad_listener_process
                0x000000000003d50c       0x84 CMakeFiles/pb_remote_client_nrf52840_xxAA_s140_6.0.0.dir/__/__/__/mesh/bearer/src/ad_listener.c.obj
                0x000000000003d50c                ad_listener_process
 .text.adtype_filter_handle
                0x000000000003d590       0x94 CMakeFiles/pb_remote_client_nrf52840_xxAA_s140_6.0.0.dir/__/__/__/mesh/bearer/src/ad_type_filter.c.obj
 .text.bearer_adtype_filtering_set
                0x000000000003d624       0x1c CMakeFiles/pb_remote_client_nrf52840_xxAA_s140_6.0.0.dir/__/__/__/mesh/bearer/src/ad_type_filter.c.obj
                0x000000000003d624                bearer_adtype_filtering_set
 .text.bearer_adtype_add
                0x000000000003d640       0x24 CMakeFiles/pb_remote_client_nrf52840_xxAA_s140_6.0.0.dir/__/__/__/mesh/bearer/src/ad_type_filter.c.obj
                0x000000000003d640                bearer_adtype_add
 .text.bearer_adtype_mode_set
                0x000000000003d664       0x18 CMakeFiles/pb_remote_client_nrf52840_xxAA_s140_6.0.0.dir/__/__/__/mesh/bearer/src/ad_type_filter.c.obj
                0x000000000003d664                bearer_adtype_mode_set
 .text.tx_complete_event_callback
                0x000000000003d67c       0x34 CMakeFiles/pb_remote_client_nrf52840_xxAA_s140_6.0.0.dir/__/__/__/mesh/bearer/src/advertiser.c.obj
 .text.broadcast_complete_cb
                0x000000000003d6b0       0x48 CMakeFiles/pb_remote_client_nrf52840_xxAA_s140_6.0.0.dir/__/__/__/mesh/bearer/src/advertiser.c.obj
 .text.timeout_event
                0x000000000003d6f8      0x12c CMakeFiles/pb_remote_client_nrf52840_xxAA_s140_6.0.0.dir/__/__/__/mesh/bearer/src/advertiser.c.obj
 .text.advertiser_init
                0x000000000003d824        0xc CMakeFiles/pb_remote_client_nrf52840_xxAA_s140_6.0.0.dir/__/__/__/mesh/bearer/src/advertiser.c.obj
                0x000000000003d824                advertiser_init
 .text.advertiser_instance_init
                0x000000000003d830      0x100 CMakeFiles/pb_remote_client_nrf52840_xxAA_s140_6.0.0.dir/__/__/__/mesh/bearer/src/advertiser.c.obj
                0x000000000003d830                advertiser_instance_init
 .text.advertiser_enable
                0x000000000003d930       0x44 CMakeFiles/pb_remote_client_nrf52840_xxAA_s140_6.0.0.dir/__/__/__/mesh/bearer/src/advertiser.c.obj
                0x000000000003d930                advertiser_enable
 .text.advertiser_packet_alloc
                0x000000000003d974       0x80 CMakeFiles/pb_remote_client_nrf52840_xxAA_s140_6.0.0.dir/__/__/__/mesh/bearer/src/advertiser.c.obj
                0x000000000003d974                advertiser_packet_alloc
 .text.advertiser_packet_send
                0x000000000003d9f4       0x84 CMakeFiles/pb_remote_client_nrf52840_xxAA_s140_6.0.0.dir/__/__/__/mesh/bearer/src/advertiser.c.obj
                0x000000000003d9f4                advertiser_packet_send
 .text.advertiser_packet_discard
                0x000000000003da78       0x2c CMakeFiles/pb_remote_client_nrf52840_xxAA_s140_6.0.0.dir/__/__/__/mesh/bearer/src/advertiser.c.obj
                0x000000000003da78                advertiser_packet_discard
 .text.advertiser_interval_set
                0x000000000003daa4       0x6c CMakeFiles/pb_remote_client_nrf52840_xxAA_s140_6.0.0.dir/__/__/__/mesh/bearer/src/advertiser.c.obj
                0x000000000003daa4                advertiser_interval_set
 .text.advertiser_flush
                0x000000000003db10       0x20 CMakeFiles/pb_remote_client_nrf52840_xxAA_s140_6.0.0.dir/__/__/__/mesh/bearer/src/advertiser.c.obj
                0x000000000003db10                advertiser_flush
 .text.action_switch.part.2
                0x000000000003db30       0xb4 CMakeFiles/pb_remote_client_nrf52840_xxAA_s140_6.0.0.dir/__/__/__/mesh/bearer/src/bearer_handler.c.obj
 .text.bearer_handler_init
                0x000000000003dbe4       0x2c CMakeFiles/pb_remote_client_nrf52840_xxAA_s140_6.0.0.dir/__/__/__/mesh/bearer/src/bearer_handler.c.obj
                0x000000000003dbe4                bearer_handler_init
 .text.bearer_handler_start
                0x000000000003dc10       0x1c CMakeFiles/pb_remote_client_nrf52840_xxAA_s140_6.0.0.dir/__/__/__/mesh/bearer/src/bearer_handler.c.obj
                0x000000000003dc10                bearer_handler_start
 .text.bearer_handler_action_enqueue
                0x000000000003dc2c       0x88 CMakeFiles/pb_remote_client_nrf52840_xxAA_s140_6.0.0.dir/__/__/__/mesh/bearer/src/bearer_handler.c.obj
                0x000000000003dc2c                bearer_handler_action_enqueue
 .text.bearer_handler_action_end
                0x000000000003dcb4       0x68 CMakeFiles/pb_remote_client_nrf52840_xxAA_s140_6.0.0.dir/__/__/__/mesh/bearer/src/bearer_handler.c.obj
                0x000000000003dcb4                bearer_handler_action_end
 .text.bearer_handler_radio_irq_handler
                0x000000000003dd1c       0x58 CMakeFiles/pb_remote_client_nrf52840_xxAA_s140_6.0.0.dir/__/__/__/mesh/bearer/src/bearer_handler.c.obj
                0x000000000003dd1c                bearer_handler_radio_irq_handler
 .text.bearer_handler_timer_irq_handler
                0x000000000003dd74       0x34 CMakeFiles/pb_remote_client_nrf52840_xxAA_s140_6.0.0.dir/__/__/__/mesh/bearer/src/bearer_handler.c.obj
                0x000000000003dd74                bearer_handler_timer_irq_handler
 .text.bearer_handler_on_ts_begin
                0x000000000003dda8       0x3c CMakeFiles/pb_remote_client_nrf52840_xxAA_s140_6.0.0.dir/__/__/__/mesh/bearer/src/bearer_handler.c.obj
                0x000000000003dda8                bearer_handler_on_ts_begin
 .text.bearer_handler_on_ts_end
                0x000000000003dde4       0x38 CMakeFiles/pb_remote_client_nrf52840_xxAA_s140_6.0.0.dir/__/__/__/mesh/bearer/src/bearer_handler.c.obj
                0x000000000003dde4                bearer_handler_on_ts_end
 .text.radio_irq_handler
                0x000000000003de1c       0x98 CMakeFiles/pb_remote_client_nrf52840_xxAA_s140_6.0.0.dir/__/__/__/mesh/bearer/src/broadcast.c.obj
 .text.broadcast_start
                0x000000000003deb4       0x8c CMakeFiles/pb_remote_client_nrf52840_xxAA_s140_6.0.0.dir/__/__/__/mesh/bearer/src/broadcast.c.obj
 .text.broadcast_send
                0x000000000003df40       0x74 CMakeFiles/pb_remote_client_nrf52840_xxAA_s140_6.0.0.dir/__/__/__/mesh/bearer/src/broadcast.c.obj
                0x000000000003df40                broadcast_send
 .text.fen_filter_start
                0x000000000003dfb4       0x38 CMakeFiles/pb_remote_client_nrf52840_xxAA_s140_6.0.0.dir/__/__/__/mesh/bearer/src/filter_engine.c.obj
                0x000000000003dfb4                fen_filter_start
 .text.fen_filter_stop
                0x000000000003dfec       0x2c CMakeFiles/pb_remote_client_nrf52840_xxAA_s140_6.0.0.dir/__/__/__/mesh/bearer/src/filter_engine.c.obj
                0x000000000003dfec                fen_filter_stop
 .text.fen_filters_apply
                0x000000000003e018       0x34 CMakeFiles/pb_remote_client_nrf52840_xxAA_s140_6.0.0.dir/__/__/__/mesh/bearer/src/filter_engine.c.obj
                0x000000000003e018                fen_filters_apply
 .text.radio_config_reset
                0x000000000003e04c       0x38 CMakeFiles/pb_remote_client_nrf52840_xxAA_s140_6.0.0.dir/__/__/__/mesh/bearer/src/radio_config.c.obj
                0x000000000003e04c                radio_config_reset
 .text.radio_config_channel_set
                0x000000000003e084       0x28 CMakeFiles/pb_remote_client_nrf52840_xxAA_s140_6.0.0.dir/__/__/__/mesh/bearer/src/radio_config.c.obj
                0x000000000003e084                radio_config_channel_set
 .text.radio_config_config
                0x000000000003e0ac       0x94 CMakeFiles/pb_remote_client_nrf52840_xxAA_s140_6.0.0.dir/__/__/__/mesh/bearer/src/radio_config.c.obj
                0x000000000003e0ac                radio_config_config
 .text.radio_config_access_addr_set
                0x000000000003e140       0x58 CMakeFiles/pb_remote_client_nrf52840_xxAA_s140_6.0.0.dir/__/__/__/mesh/bearer/src/radio_config.c.obj
                0x000000000003e140                radio_config_access_addr_set
 .text.scan_window_end
                0x000000000003e198       0x28 CMakeFiles/pb_remote_client_nrf52840_xxAA_s140_6.0.0.dir/__/__/__/mesh/bearer/src/scanner.c.obj
 .text.scan_window_start
                0x000000000003e1c0       0x38 CMakeFiles/pb_remote_client_nrf52840_xxAA_s140_6.0.0.dir/__/__/__/mesh/bearer/src/scanner.c.obj
 .text.radio_start
                0x000000000003e1f8      0x1a8 CMakeFiles/pb_remote_client_nrf52840_xxAA_s140_6.0.0.dir/__/__/__/mesh/bearer/src/scanner.c.obj
 .text.scanner_radio_start
                0x000000000003e3a0      0x14c CMakeFiles/pb_remote_client_nrf52840_xxAA_s140_6.0.0.dir/__/__/__/mesh/bearer/src/scanner.c.obj
                0x000000000003e3a0                scanner_radio_start
 .text.scanner_radio_stop
                0x000000000003e4ec       0x34 CMakeFiles/pb_remote_client_nrf52840_xxAA_s140_6.0.0.dir/__/__/__/mesh/bearer/src/scanner.c.obj
                0x000000000003e4ec                scanner_radio_stop
 .text.scanner_radio_irq_handler
                0x000000000003e520      0x200 CMakeFiles/pb_remote_client_nrf52840_xxAA_s140_6.0.0.dir/__/__/__/mesh/bearer/src/scanner.c.obj
                0x000000000003e520                scanner_radio_irq_handler
 .text.scanner_enable
                0x000000000003e720       0x50 CMakeFiles/pb_remote_client_nrf52840_xxAA_s140_6.0.0.dir/__/__/__/mesh/bearer/src/scanner.c.obj
                0x000000000003e720                scanner_enable
 .text.scanner_rx
                0x000000000003e770       0x8c CMakeFiles/pb_remote_client_nrf52840_xxAA_s140_6.0.0.dir/__/__/__/mesh/bearer/src/scanner.c.obj
                0x000000000003e770                scanner_rx
 .text.scanner_packet_release
                0x000000000003e7fc       0x40 CMakeFiles/pb_remote_client_nrf52840_xxAA_s140_6.0.0.dir/__/__/__/mesh/bearer/src/scanner.c.obj
                0x000000000003e7fc                scanner_packet_release
 .text.scanner_rx_pending
                0x000000000003e83c        0xc CMakeFiles/pb_remote_client_nrf52840_xxAA_s140_6.0.0.dir/__/__/__/mesh/bearer/src/scanner.c.obj
                0x000000000003e83c                scanner_rx_pending
 .text.scanner_config_reset
                0x000000000003e848       0xa4 CMakeFiles/pb_remote_client_nrf52840_xxAA_s140_6.0.0.dir/__/__/__/mesh/bearer/src/scanner.c.obj
                0x000000000003e848                scanner_config_reset
 .text.scanner_init
                0x000000000003e8ec       0x54 CMakeFiles/pb_remote_client_nrf52840_xxAA_s140_6.0.0.dir/__/__/__/mesh/bearer/src/scanner.c.obj
                0x000000000003e8ec                scanner_init
 .text.SystemInit
                0x000000000003e940      0x1c4 CMakeFiles/pb_remote_client_nrf52840_xxAA_s140_6.0.0.dir/home/mazzer/work/nordic/sdk/nRF5_SDK_15.0.0/modules/nrfx/mdk/system_nrf52840.c.obj
                0x000000000003e940                SystemInit
 .text          0x000000000003eb04       0x3c CMakeFiles/pb_remote_client_nrf52840_xxAA_s140_6.0.0.dir/home/mazzer/work/nordic/sdk/nRF5_SDK_15.0.0/modules/nrfx/mdk/gcc_startup_nrf52840.S.obj
                0x000000000003eb04                Reset_Handler
                0x000000000003eb2c                NMI_Handler
                0x000000000003eb2e                HardFault_Handler
                0x000000000003eb30                MemoryManagement_Handler
                0x000000000003eb32                BusFault_Handler
                0x000000000003eb34                UsageFault_Handler
                0x000000000003eb36                SVC_Handler
                0x000000000003eb38                DebugMon_Handler
                0x000000000003eb3a                PendSV_Handler
                0x000000000003eb3c                SysTick_Handler
                0x000000000003eb3e                RTC0_IRQHandler
                0x000000000003eb3e                SWI0_EGU0_IRQHandler
                0x000000000003eb3e                PWM1_IRQHandler
                0x000000000003eb3e                POWER_CLOCK_IRQHandler
                0x000000000003eb3e                RADIO_IRQHandler
                0x000000000003eb3e                PDM_IRQHandler
                0x000000000003eb3e                TEMP_IRQHandler
                0x000000000003eb3e                TIMER3_IRQHandler
                0x000000000003eb3e                PWM3_IRQHandler
                0x000000000003eb3e                FPU_IRQHandler
                0x000000000003eb3e                USBD_IRQHandler
                0x000000000003eb3e                SPIM0_SPIS0_TWIM0_TWIS0_SPI0_TWI0_IRQHandler
                0x000000000003eb3e                UARTE0_UART0_IRQHandler
                0x000000000003eb3e                TIMER4_IRQHandler
                0x000000000003eb3e                CRYPTOCELL_IRQHandler
                0x000000000003eb3e                I2S_IRQHandler
                0x000000000003eb3e                SWI4_EGU4_IRQHandler
                0x000000000003eb3e                TIMER0_IRQHandler
                0x000000000003eb3e                UARTE1_IRQHandler
                0x000000000003eb3e                TIMER1_IRQHandler
                0x000000000003eb3e                SPIM3_IRQHandler
                0x000000000003eb3e                PWM2_IRQHandler
                0x000000000003eb3e                ECB_IRQHandler
                0x000000000003eb3e                SPIM1_SPIS1_TWIM1_TWIS1_SPI1_TWI1_IRQHandler
                0x000000000003eb3e                Default_Handler
                0x000000000003eb3e                SAADC_IRQHandler
                0x000000000003eb3e                CCM_AAR_IRQHandler
                0x000000000003eb3e                WDT_IRQHandler
                0x000000000003eb3e                SWI5_EGU5_IRQHandler
                0x000000000003eb3e                RNG_IRQHandler
                0x000000000003eb3e                RTC2_IRQHandler
                0x000000000003eb3e                PWM0_IRQHandler
                0x000000000003eb3e                SWI3_EGU3_IRQHandler
                0x000000000003eb3e                RTC1_IRQHandler
                0x000000000003eb3e                SWI1_EGU1_IRQHandler
                0x000000000003eb3e                SPIM2_SPIS2_SPI2_IRQHandler
                0x000000000003eb3e                NFCT_IRQHandler
                0x000000000003eb3e                MWU_IRQHandler
                0x000000000003eb3e                QSPI_IRQHandler
                0x000000000003eb3e                COMP_LPCOMP_IRQHandler
 .text.app_error_handler
                0x000000000003eb40       0x1c CMakeFiles/pb_remote_client_nrf52840_xxAA_s140_6.0.0.dir/home/mazzer/work/nordic/sdk/nRF5_SDK_15.0.0/components/libraries/util/app_error_handler_gcc.c.obj
                0x000000000003eb40                app_error_handler
 .text.SEGGER_RTT_Write
                0x000000000003eb5c      0x1f4 ../../../external/rtt/librtt_nrf52840_xxAA.a(SEGGER_RTT.c.obj)
                0x000000000003eb5c                SEGGER_RTT_Write
 .text.SEGGER_RTT_GetKey
                0x000000000003ed50       0xf8 ../../../external/rtt/librtt_nrf52840_xxAA.a(SEGGER_RTT.c.obj)
                0x000000000003ed50                SEGGER_RTT_GetKey
 .text._PrintUnsigned
                0x000000000003ee48      0x17c ../../../external/rtt/librtt_nrf52840_xxAA.a(SEGGER_RTT_printf.c.obj)
 .text.SEGGER_RTT_vprintf
                0x000000000003efc4      0x524 ../../../external/rtt/librtt_nrf52840_xxAA.a(SEGGER_RTT_printf.c.obj)
                0x000000000003efc4                SEGGER_RTT_vprintf
 .text.SEGGER_RTT_printf
                0x000000000003f4e8       0x20 ../../../external/rtt/librtt_nrf52840_xxAA.a(SEGGER_RTT_printf.c.obj)
                0x000000000003f4e8                SEGGER_RTT_printf
 .text.default_RNG
                0x000000000003f508        0xc ../../../external/micro-ecc/libuECC_nrf52840_xxAA.a(uECC.c.obj)
 .text.uECC_generate_random_int
                0x000000000003f514      0x17c ../../../external/micro-ecc/libuECC_nrf52840_xxAA.a(uECC.c.obj)
 .text.apply_z  0x000000000003f690      0x1a8 ../../../external/micro-ecc/libuECC_nrf52840_xxAA.a(uECC.c.obj)
 .text.uECC_vli_modAdd
                0x000000000003f838       0xd8 ../../../external/micro-ecc/libuECC_nrf52840_xxAA.a(uECC.c.obj)
 .text.x_side_default
                0x000000000003f910      0x26c ../../../external/micro-ecc/libuECC_nrf52840_xxAA.a(uECC.c.obj)
 .text.vli_mmod_fast_secp256r1
                0x000000000003fb7c      0x514 ../../../external/micro-ecc/libuECC_nrf52840_xxAA.a(uECC.c.obj)
 .text.XYcZ_add
                0x0000000000040090      0x6e0 ../../../external/micro-ecc/libuECC_nrf52840_xxAA.a(uECC.c.obj)
 .text.XYcZ_addC
                0x0000000000040770      0xabc ../../../external/micro-ecc/libuECC_nrf52840_xxAA.a(uECC.c.obj)
 .text.uECC_vli_modInv.part.4
                0x000000000004122c      0x71c ../../../external/micro-ecc/libuECC_nrf52840_xxAA.a(uECC.c.obj)
 .text.EccPoint_mult
                0x0000000000041948      0x4a4 ../../../external/micro-ecc/libuECC_nrf52840_xxAA.a(uECC.c.obj)
 .text.double_jacobian_default
                0x0000000000041dec      0x814 ../../../external/micro-ecc/libuECC_nrf52840_xxAA.a(uECC.c.obj)
 .text.uECC_secp256r1
                0x0000000000042600        0x8 ../../../external/micro-ecc/libuECC_nrf52840_xxAA.a(uECC.c.obj)
                0x0000000000042600                uECC_secp256r1
 .text.uECC_make_key
                0x0000000000042608      0x240 ../../../external/micro-ecc/libuECC_nrf52840_xxAA.a(uECC.c.obj)
                0x0000000000042608                uECC_make_key
 .text.uECC_shared_secret
                0x0000000000042848      0x314 ../../../external/micro-ecc/libuECC_nrf52840_xxAA.a(uECC.c.obj)
                0x0000000000042848                uECC_shared_secret
 .text.uECC_valid_public_key
                0x0000000000042b5c      0x230 ../../../external/micro-ecc/libuECC_nrf52840_xxAA.a(uECC.c.obj)
                0x0000000000042b5c                uECC_valid_public_key
 .text          0x0000000000042d8c       0x30 /usr/bin/../lib/gcc/arm-none-eabi/7.2.1/thumb/v7e-m/fpv4-sp/hard/libgcc.a(_aeabi_uldivmod.o)
                0x0000000000042d8c                __aeabi_uldivmod
 .text          0x0000000000042dbc      0x2cc /usr/bin/../lib/gcc/arm-none-eabi/7.2.1/thumb/v7e-m/fpv4-sp/hard/libgcc.a(_udivmoddi4.o)
                0x0000000000042dbc                __udivmoddi4
 .text          0x0000000000043088        0x4 /usr/bin/../lib/gcc/arm-none-eabi/7.2.1/thumb/v7e-m/fpv4-sp/hard/libgcc.a(_dvmd_tls.o)
                0x0000000000043088                __aeabi_ldiv0
                0x0000000000043088                __aeabi_idiv0
 .text.exit     0x000000000004308c       0x28 /usr/bin/../lib/gcc/arm-none-eabi/7.2.1/../../../../arm-none-eabi/lib/thumb/v7e-m/fpv4-sp/hard/libg_nano.a(lib_a-exit.o)
                0x000000000004308c                exit
 .text.__libc_init_array
                0x00000000000430b4       0x48 /usr/bin/../lib/gcc/arm-none-eabi/7.2.1/../../../../arm-none-eabi/lib/thumb/v7e-m/fpv4-sp/hard/libg_nano.a(lib_a-init.o)
                0x00000000000430b4                __libc_init_array
 .text.malloc   0x00000000000430fc       0x10 /usr/bin/../lib/gcc/arm-none-eabi/7.2.1/../../../../arm-none-eabi/lib/thumb/v7e-m/fpv4-sp/hard/libg_nano.a(lib_a-malloc.o)
                0x00000000000430fc                malloc
 .text.free     0x000000000004310c       0x10 /usr/bin/../lib/gcc/arm-none-eabi/7.2.1/../../../../arm-none-eabi/lib/thumb/v7e-m/fpv4-sp/hard/libg_nano.a(lib_a-malloc.o)
                0x000000000004310c                free
 .text.memcmp   0x000000000004311c       0x1e /usr/bin/../lib/gcc/arm-none-eabi/7.2.1/../../../../arm-none-eabi/lib/thumb/v7e-m/fpv4-sp/hard/libg_nano.a(lib_a-memcmp.o)
                0x000000000004311c                memcmp
 .text.memcpy   0x000000000004313a       0x16 /usr/bin/../lib/gcc/arm-none-eabi/7.2.1/../../../../arm-none-eabi/lib/thumb/v7e-m/fpv4-sp/hard/libg_nano.a(lib_a-memcpy-stub.o)
                0x000000000004313a                memcpy
 .text.memset   0x0000000000043150       0x10 /usr/bin/../lib/gcc/arm-none-eabi/7.2.1/../../../../arm-none-eabi/lib/thumb/v7e-m/fpv4-sp/hard/libg_nano.a(lib_a-memset.o)
                0x0000000000043150                memset
 .text._free_r  0x0000000000043160       0x9c /usr/bin/../lib/gcc/arm-none-eabi/7.2.1/../../../../arm-none-eabi/lib/thumb/v7e-m/fpv4-sp/hard/libg_nano.a(lib_a-nano-freer.o)
                0x0000000000043160                _free_r
 .text._malloc_r
                0x00000000000431fc       0xb4 /usr/bin/../lib/gcc/arm-none-eabi/7.2.1/../../../../arm-none-eabi/lib/thumb/v7e-m/fpv4-sp/hard/libg_nano.a(lib_a-nano-mallocr.o)
                0x00000000000431fc                _malloc_r
 .text._sbrk_r  0x00000000000432b0       0x20 /usr/bin/../lib/gcc/arm-none-eabi/7.2.1/../../../../arm-none-eabi/lib/thumb/v7e-m/fpv4-sp/hard/libg_nano.a(lib_a-sbrkr.o)
                0x00000000000432b0                _sbrk_r
 .text.strcpy   0x00000000000432d0       0x10 /usr/bin/../lib/gcc/arm-none-eabi/7.2.1/../../../../arm-none-eabi/lib/thumb/v7e-m/fpv4-sp/hard/libg_nano.a(lib_a-strcpy.o)
                0x00000000000432d0                strcpy
 .text          0x00000000000432e0       0x10 /usr/bin/../lib/gcc/arm-none-eabi/7.2.1/../../../../arm-none-eabi/lib/thumb/v7e-m/fpv4-sp/hard/libg_nano.a(lib_a-strlen.o)
                0x00000000000432e0                strlen
 .text.strrchr  0x00000000000432f0       0x28 /usr/bin/../lib/gcc/arm-none-eabi/7.2.1/../../../../arm-none-eabi/lib/thumb/v7e-m/fpv4-sp/hard/libg_nano.a(lib_a-strrchr.o)
                0x00000000000432f0                strrchr
 .text.__malloc_lock
                0x0000000000043318        0x2 /usr/bin/../lib/gcc/arm-none-eabi/7.2.1/../../../../arm-none-eabi/lib/thumb/v7e-m/fpv4-sp/hard/libg_nano.a(lib_a-mlock.o)
                0x0000000000043318                __malloc_lock
 .text.__malloc_unlock
                0x000000000004331a        0x2 /usr/bin/../lib/gcc/arm-none-eabi/7.2.1/../../../../arm-none-eabi/lib/thumb/v7e-m/fpv4-sp/hard/libg_nano.a(lib_a-mlock.o)
                0x000000000004331a                __malloc_unlock
 .text.strchr   0x000000000004331c       0x1a /usr/bin/../lib/gcc/arm-none-eabi/7.2.1/../../../../arm-none-eabi/lib/thumb/v7e-m/fpv4-sp/hard/libg_nano.a(lib_a-strchr.o)
                0x000000000004331c                strchr
 *fill*         0x0000000000043336        0x2 
 .text._sbrk    0x0000000000043338       0x1c /usr/bin/../lib/gcc/arm-none-eabi/7.2.1/../../../../arm-none-eabi/lib/thumb/v7e-m/fpv4-sp/hard/libnosys.a(sbrk.o)
                0x0000000000043338                _sbrk
 .text._exit    0x0000000000043354        0x4 /usr/bin/../lib/gcc/arm-none-eabi/7.2.1/../../../../arm-none-eabi/lib/thumb/v7e-m/fpv4-sp/hard/libnosys.a(_exit.o)
                0x0000000000043354                _exit
 *(.init)
 .init          0x0000000000043358        0x4 /usr/bin/../lib/gcc/arm-none-eabi/7.2.1/thumb/v7e-m/fpv4-sp/hard/crti.o
                0x0000000000043358                _init
 .init          0x000000000004335c        0x8 /usr/bin/../lib/gcc/arm-none-eabi/7.2.1/thumb/v7e-m/fpv4-sp/hard/crtn.o
 *(.fini)
 .fini          0x0000000000043364        0x4 /usr/bin/../lib/gcc/arm-none-eabi/7.2.1/thumb/v7e-m/fpv4-sp/hard/crti.o
                0x0000000000043364                _fini
 .fini          0x0000000000043368        0x8 /usr/bin/../lib/gcc/arm-none-eabi/7.2.1/thumb/v7e-m/fpv4-sp/hard/crtn.o
 *crtbegin.o(.ctors)
 *crtbegin?.o(.ctors)
 *(EXCLUDE_FILE(*crtend.o *crtend?.o) .ctors)
 *(SORT_BY_NAME(.ctors.*))
 *(.ctors)
 *crtbegin.o(.dtors)
 *crtbegin?.o(.dtors)
 *(EXCLUDE_FILE(*crtend.o *crtend?.o) .dtors)
 *(SORT_BY_NAME(.dtors.*))
 *(.dtors)
 *(.rodata*)
 .rodata        0x0000000000043370       0x1b CMakeFiles/pb_remote_client_nrf52840_xxAA_s140_6.0.0.dir/src/main.c.obj
 *fill*         0x000000000004338b        0x1 
 .rodata.USAGE_STRING
                0x000000000004338c      0x11b CMakeFiles/pb_remote_client_nrf52840_xxAA_s140_6.0.0.dir/src/main.c.obj
                0x000000000004338c                USAGE_STRING
 *fill*         0x00000000000434a7        0x1 
 .rodata.m_netkey
                0x00000000000434a8       0x10 CMakeFiles/pb_remote_client_nrf52840_xxAA_s140_6.0.0.dir/src/main.c.obj
 .rodata.main.str1.4
                0x00000000000434b8       0x44 CMakeFiles/pb_remote_client_nrf52840_xxAA_s140_6.0.0.dir/src/main.c.obj
 .rodata.prov_evt_handler.str1.4
                0x00000000000434fc      0x151 CMakeFiles/pb_remote_client_nrf52840_xxAA_s140_6.0.0.dir/src/main.c.obj
 *fill*         0x000000000004364d        0x3 
 .rodata.remote_client_event_cb.str1.4
                0x0000000000043650       0x76 CMakeFiles/pb_remote_client_nrf52840_xxAA_s140_6.0.0.dir/src/main.c.obj
 *fill*         0x00000000000436c6        0x2 
 .rodata.user_input_handler.str1.4
                0x00000000000436c8       0xe1 CMakeFiles/pb_remote_client_nrf52840_xxAA_s140_6.0.0.dir/src/main.c.obj
 *fill*         0x00000000000437a9        0x3 
 .rodata.mesh_softdevice_init.str1.4
                0x00000000000437ac       0xe1 CMakeFiles/pb_remote_client_nrf52840_xxAA_s140_6.0.0.dir/__/__/common/src/mesh_softdevice_init.c.obj
 *fill*         0x000000000004388d        0x3 
 .rodata.delay_bytecode.8881
                0x0000000000043890        0x6 CMakeFiles/pb_remote_client_nrf52840_xxAA_s140_6.0.0.dir/__/__/common/src/simple_hal.c.obj
 *fill*         0x0000000000043896        0x2 
 .rodata.m_buttons_list
                0x0000000000043898        0x4 CMakeFiles/pb_remote_client_nrf52840_xxAA_s140_6.0.0.dir/__/__/common/src/simple_hal.c.obj
 .rodata        0x000000000004389c       0x2a CMakeFiles/pb_remote_client_nrf52840_xxAA_s140_6.0.0.dir/__/__/__/models/pb_remote/src/pb_remote_client.c.obj
 *fill*         0x00000000000438c6        0x2 
 .rodata.client_reliable_status_cb.str1.4
                0x00000000000438c8       0x64 CMakeFiles/pb_remote_client_nrf52840_xxAA_s140_6.0.0.dir/__/__/__/models/pb_remote/src/pb_remote_client.c.obj
 .rodata.interface.12345
                0x000000000004392c       0x14 CMakeFiles/pb_remote_client_nrf52840_xxAA_s140_6.0.0.dir/__/__/__/models/pb_remote/src/pb_remote_client.c.obj
 .rodata.m_opcode_handlers
                0x0000000000043940       0x38 CMakeFiles/pb_remote_client_nrf52840_xxAA_s140_6.0.0.dir/__/__/__/models/pb_remote/src/pb_remote_client.c.obj
 .rodata.m_pb_remote_client_event_handler_callbacks
                0x0000000000043978       0x38 CMakeFiles/pb_remote_client_nrf52840_xxAA_s140_6.0.0.dir/__/__/__/models/pb_remote/src/pb_remote_client.c.obj
                0x0000000000043978                m_pb_remote_client_event_handler_callbacks
 .rodata.pb_remote_client_event_link_close_cb.str1.4
                0x00000000000439b0       0x2a CMakeFiles/pb_remote_client_nrf52840_xxAA_s140_6.0.0.dir/__/__/__/models/pb_remote/src/pb_remote_client.c.obj
 *fill*         0x00000000000439da        0x2 
 .rodata.pb_remote_client_event_link_status_cb.str1.4
                0x00000000000439dc       0x68 CMakeFiles/pb_remote_client_nrf52840_xxAA_s140_6.0.0.dir/__/__/__/models/pb_remote/src/pb_remote_client.c.obj
 .rodata.pb_remote_client_event_link_status_report_cb.str1.4
                0x0000000000043a44       0x50 CMakeFiles/pb_remote_client_nrf52840_xxAA_s140_6.0.0.dir/__/__/__/models/pb_remote/src/pb_remote_client.c.obj
 .rodata.pb_remote_client_event_local_packet_cb.str1.4
                0x0000000000043a94       0x1c CMakeFiles/pb_remote_client_nrf52840_xxAA_s140_6.0.0.dir/__/__/__/models/pb_remote/src/pb_remote_client.c.obj
 .rodata.pb_remote_client_event_packet_transfer_cb.str1.4
                0x0000000000043ab0       0x2d CMakeFiles/pb_remote_client_nrf52840_xxAA_s140_6.0.0.dir/__/__/__/models/pb_remote/src/pb_remote_client.c.obj
 *fill*         0x0000000000043add        0x3 
 .rodata.pb_remote_client_event_scan_cancel_cb.str1.4
                0x0000000000043ae0       0x1e CMakeFiles/pb_remote_client_nrf52840_xxAA_s140_6.0.0.dir/__/__/__/models/pb_remote/src/pb_remote_client.c.obj
 *fill*         0x0000000000043afe        0x2 
 .rodata.pb_remote_client_event_scan_start_cb.str1.4
                0x0000000000043b00       0x1d CMakeFiles/pb_remote_client_nrf52840_xxAA_s140_6.0.0.dir/__/__/__/models/pb_remote/src/pb_remote_client.c.obj
 *fill*         0x0000000000043b1d        0x3 
 .rodata.pb_remote_client_event_scan_status_cb.str1.4
                0x0000000000043b20       0x64 CMakeFiles/pb_remote_client_nrf52840_xxAA_s140_6.0.0.dir/__/__/__/models/pb_remote/src/pb_remote_client.c.obj
 .rodata.pb_remote_client_event_transfer_status_cb.str1.4
                0x0000000000043b84       0x89 CMakeFiles/pb_remote_client_nrf52840_xxAA_s140_6.0.0.dir/__/__/__/models/pb_remote/src/pb_remote_client.c.obj
 *fill*         0x0000000000043c0d        0x3 
 .rodata.pb_remote_client_event_transfer_status_report_cb.str1.4
                0x0000000000043c10       0x43 CMakeFiles/pb_remote_client_nrf52840_xxAA_s140_6.0.0.dir/__/__/__/models/pb_remote/src/pb_remote_client.c.obj
 *fill*         0x0000000000043c53        0x1 
 .rodata.pb_remote_client_event_unprov_number_cb.str1.4
                0x0000000000043c54       0x2b CMakeFiles/pb_remote_client_nrf52840_xxAA_s140_6.0.0.dir/__/__/__/models/pb_remote/src/pb_remote_client.c.obj
 *fill*         0x0000000000043c7f        0x1 
 .rodata.pb_remote_client_event_unprov_uuid_cb.str1.4
                0x0000000000043c80       0x24 CMakeFiles/pb_remote_client_nrf52840_xxAA_s140_6.0.0.dir/__/__/__/models/pb_remote/src/pb_remote_client.c.obj
 .rodata.pb_remote_client_process.part.9.str1.4
                0x0000000000043ca4       0x23 CMakeFiles/pb_remote_client_nrf52840_xxAA_s140_6.0.0.dir/__/__/__/models/pb_remote/src/pb_remote_client.c.obj
 *fill*         0x0000000000043cc7        0x1 
 .rodata.m_prov_callbacks
                0x0000000000043cc8       0x10 CMakeFiles/pb_remote_client_nrf52840_xxAA_s140_6.0.0.dir/__/__/__/mesh/prov/src/prov_provisioner.c.obj
 .rodata.pdu_sizes.11728
                0x0000000000043cd8        0xa CMakeFiles/pb_remote_client_nrf52840_xxAA_s140_6.0.0.dir/__/__/__/mesh/prov/src/provisioning.c.obj
 *fill*         0x0000000000043ce2        0x2 
 .rodata.alphanumeric.11833
                0x0000000000043ce4       0x25 CMakeFiles/pb_remote_client_nrf52840_xxAA_s140_6.0.0.dir/__/__/__/mesh/prov/src/prov_utils.c.obj
 *fill*         0x0000000000043d09        0x3 
 .rodata.numeric_max.11827
                0x0000000000043d0c       0x24 CMakeFiles/pb_remote_client_nrf52840_xxAA_s140_6.0.0.dir/__/__/__/mesh/prov/src/prov_utils.c.obj
 .rodata.prov_utils_authentication_values_derive.str1.4
                0x0000000000043d30        0x5 CMakeFiles/pb_remote_client_nrf52840_xxAA_s140_6.0.0.dir/__/__/__/mesh/prov/src/prov_utils.c.obj
 *fill*         0x0000000000043d35        0x3 
 .rodata.prov_utils_derive_keys.str1.4
                0x0000000000043d38       0x15 CMakeFiles/pb_remote_client_nrf52840_xxAA_s140_6.0.0.dir/__/__/__/mesh/prov/src/prov_utils.c.obj
 *fill*         0x0000000000043d4d        0x3 
 .rodata.crctable.11462
                0x0000000000043d50      0x100 CMakeFiles/pb_remote_client_nrf52840_xxAA_s140_6.0.0.dir/__/__/__/mesh/prov/src/prov_bearer_adv.c.obj
 .rodata.interface.11692
                0x0000000000043e50       0x14 CMakeFiles/pb_remote_client_nrf52840_xxAA_s140_6.0.0.dir/__/__/__/mesh/prov/src/prov_bearer_adv.c.obj
 .rodata.prov_bearer_adv_listen.str1.4
                0x0000000000043e64       0x88 CMakeFiles/pb_remote_client_nrf52840_xxAA_s140_6.0.0.dir/__/__/__/mesh/prov/src/prov_bearer_adv.c.obj
 .rodata.prov_bearer_adv_packet_in.str1.4
                0x0000000000043eec      0x283 CMakeFiles/pb_remote_client_nrf52840_xxAA_s140_6.0.0.dir/__/__/__/mesh/prov/src/prov_bearer_adv.c.obj
 *fill*         0x000000000004416f        0x1 
 .rodata.tx_retry_cb.str1.4
                0x0000000000044170       0x14 CMakeFiles/pb_remote_client_nrf52840_xxAA_s140_6.0.0.dir/__/__/__/mesh/prov/src/prov_bearer_adv.c.obj
 .rodata        0x0000000000044184        0x8 CMakeFiles/pb_remote_client_nrf52840_xxAA_s140_6.0.0.dir/__/__/__/models/config/src/config_server.c.obj
 .rodata.CSWTCH.178
                0x000000000004418c       0x10 CMakeFiles/pb_remote_client_nrf52840_xxAA_s140_6.0.0.dir/__/__/__/models/config/src/config_server.c.obj
 .rodata.opcode_handlers
                0x000000000004419c      0x170 CMakeFiles/pb_remote_client_nrf52840_xxAA_s140_6.0.0.dir/__/__/__/models/config/src/config_server.c.obj
 .rodata.m_opcode_handlers
                0x000000000004430c       0x58 CMakeFiles/pb_remote_client_nrf52840_xxAA_s140_6.0.0.dir/__/__/__/models/health/src/health_server.c.obj
 .rodata.multiply_de_bruijn_bit_position.9758
                0x0000000000044364       0x20 CMakeFiles/pb_remote_client_nrf52840_xxAA_s140_6.0.0.dir/__/__/__/models/health/src/health_server.c.obj
 .rodata.access_model_publish.str1.4
                0x0000000000044384       0x1c CMakeFiles/pb_remote_client_nrf52840_xxAA_s140_6.0.0.dir/__/__/__/mesh/access/src/access.c.obj
                                         0x24 (size before relaxing)
 .rodata.mesh_evt_cb.str1.4
                0x00000000000443a0       0x67 CMakeFiles/pb_remote_client_nrf52840_xxAA_s140_6.0.0.dir/__/__/__/mesh/access/src/access.c.obj
 *fill*         0x0000000000044407        0x1 
 .rodata.multiply_de_bruijn_bit_position.9714
                0x0000000000044408       0x20 CMakeFiles/pb_remote_client_nrf52840_xxAA_s140_6.0.0.dir/__/__/__/mesh/access/src/access.c.obj
 .rodata.m_flash_groups
                0x0000000000044428       0xa8 CMakeFiles/pb_remote_client_nrf52840_xxAA_s140_6.0.0.dir/__/__/__/mesh/access/src/device_state_manager.c.obj
 .rodata.multiply_de_bruijn_bit_position.9820
                0x00000000000444d0       0x20 CMakeFiles/pb_remote_client_nrf52840_xxAA_s140_6.0.0.dir/__/__/__/mesh/access/src/device_state_manager.c.obj
 .rodata.app_error_fault_handler.str1.4
                0x00000000000444f0       0xfd CMakeFiles/pb_remote_client_nrf52840_xxAA_s140_6.0.0.dir/__/__/common/src/app_error_weak.c.obj
 .rodata.mesh_assertion_handler.str1.4
                0x00000000000445ed       0xfd CMakeFiles/pb_remote_client_nrf52840_xxAA_s140_6.0.0.dir/__/__/common/src/assertion_handler_weak.c.obj
                                          0x1 (size before relaxing)
 *fill*         0x00000000000445ed        0x3 
 .rodata.sar_ctx_cancel.str1.4
                0x00000000000445f0       0x23 CMakeFiles/pb_remote_client_nrf52840_xxAA_s140_6.0.0.dir/__/__/__/mesh/core/src/transport.c.obj
 *fill*         0x0000000000044613        0x1 
 .rodata.transport_packet_in.str1.4
                0x0000000000044614       0x24 CMakeFiles/pb_remote_client_nrf52840_xxAA_s140_6.0.0.dir/__/__/__/mesh/core/src/transport.c.obj
 .rodata.upper_transport_access_packet_in.str1.4
                0x0000000000044638       0x91 CMakeFiles/pb_remote_client_nrf52840_xxAA_s140_6.0.0.dir/__/__/__/mesh/core/src/transport.c.obj
 *fill*         0x00000000000446c9        0x3 
 .rodata.upper_transport_packet_in.str1.4
                0x00000000000446cc       0x2e CMakeFiles/pb_remote_client_nrf52840_xxAA_s140_6.0.0.dir/__/__/__/mesh/core/src/transport.c.obj
 *fill*         0x00000000000446fa        0x2 
 .rodata.upper_transport_tx.part.27.str1.4
                0x00000000000446fc        0xe CMakeFiles/pb_remote_client_nrf52840_xxAA_s140_6.0.0.dir/__/__/__/mesh/core/src/transport.c.obj
                                         0x18 (size before relaxing)
 *fill*         0x000000000004470a        0x2 
 .rodata.m_procedure_steps
                0x000000000004470c       0x28 CMakeFiles/pb_remote_client_nrf52840_xxAA_s140_6.0.0.dir/__/__/__/mesh/core/src/flash_manager_defrag.c.obj
 .rodata.m_all_operations
                0x0000000000044734       0x10 CMakeFiles/pb_remote_client_nrf52840_xxAA_s140_6.0.0.dir/__/__/__/mesh/core/src/mesh_flash.c.obj
 .rodata.types_lookup.9513
                0x0000000000044744        0x4 CMakeFiles/pb_remote_client_nrf52840_xxAA_s140_6.0.0.dir/__/__/__/mesh/core/src/nrf_mesh_utils.c.obj
 .rodata.__func__.11985
                0x0000000000044748       0x15 CMakeFiles/pb_remote_client_nrf52840_xxAA_s140_6.0.0.dir/__/__/__/mesh/core/src/nrf_mesh.c.obj
 *fill*         0x000000000004475d        0x3 
 .rodata.nrf_mesh_listen.str1.4
                0x0000000000044760       0xab CMakeFiles/pb_remote_client_nrf52840_xxAA_s140_6.0.0.dir/__/__/__/mesh/core/src/nrf_mesh.c.obj
 .rodata.nrf_mesh_packet_send.str1.4
                0x000000000004480b       0xab CMakeFiles/pb_remote_client_nrf52840_xxAA_s140_6.0.0.dir/__/__/__/mesh/core/src/nrf_mesh.c.obj
                                          0x4 (size before relaxing)
 *fill*         0x000000000004480b        0x1 
 .rodata.CSWTCH.7
                0x000000000004480c       0x20 CMakeFiles/pb_remote_client_nrf52840_xxAA_s140_6.0.0.dir/__/__/__/mesh/core/src/hal.c.obj
 .rodata        0x000000000004482c       0x18 CMakeFiles/pb_remote_client_nrf52840_xxAA_s140_6.0.0.dir/__/__/__/mesh/core/src/enc.c.obj
 .rodata.network_packet_in.str1.4
                0x0000000000044844       0x81 CMakeFiles/pb_remote_client_nrf52840_xxAA_s140_6.0.0.dir/__/__/__/mesh/core/src/network.c.obj
 *fill*         0x00000000000448c5        0x3 
 .rodata.net_packet_decrypt.str1.4
                0x00000000000448c8       0x6b CMakeFiles/pb_remote_client_nrf52840_xxAA_s140_6.0.0.dir/__/__/__/mesh/core/src/net_packet.c.obj
                                         0x74 (size before relaxing)
 *fill*         0x0000000000044933        0x1 
 .rodata        0x0000000000044934        0x7 CMakeFiles/pb_remote_client_nrf52840_xxAA_s140_6.0.0.dir/__/__/__/mesh/core/src/nrf_mesh_keygen.c.obj
 *fill*         0x000000000004493b        0x1 
 .rodata.log_callback_rtt.str1.4
                0x000000000004493c       0x15 CMakeFiles/pb_remote_client_nrf52840_xxAA_s140_6.0.0.dir/__/__/__/mesh/core/src/log.c.obj
 *fill*         0x0000000000044951        0x3 
 .rodata.str1.4
                0x0000000000044954       0x11 CMakeFiles/pb_remote_client_nrf52840_xxAA_s140_6.0.0.dir/__/__/__/mesh/core/src/log.c.obj
 *fill*         0x0000000000044965        0x3 
 .rodata.INVALID_HEADER
                0x0000000000044968        0x4 CMakeFiles/pb_remote_client_nrf52840_xxAA_s140_6.0.0.dir/__/__/__/mesh/core/src/flash_manager.c.obj
                0x0000000000044968                INVALID_HEADER
 .rodata.PADDING_HEADER
                0x000000000004496c        0x4 CMakeFiles/pb_remote_client_nrf52840_xxAA_s140_6.0.0.dir/__/__/__/mesh/core/src/flash_manager.c.obj
                0x000000000004496c                PADDING_HEADER
 .rodata.SEAL_HEADER
                0x0000000000044970        0x4 CMakeFiles/pb_remote_client_nrf52840_xxAA_s140_6.0.0.dir/__/__/__/mesh/core/src/flash_manager.c.obj
                0x0000000000044970                SEAL_HEADER
 .rodata.beacon_packet_in.str1.4
                0x0000000000044974       0x8d CMakeFiles/pb_remote_client_nrf52840_xxAA_s140_6.0.0.dir/__/__/__/mesh/core/src/beacon.c.obj
                                         0x98 (size before relaxing)
 *fill*         0x0000000000044a01        0x3 
 .rodata.cp_handler
                0x0000000000044a04        0x8 CMakeFiles/pb_remote_client_nrf52840_xxAA_s140_6.0.0.dir/__/__/__/mesh/core/src/heartbeat.c.obj
 .rodata.beacon_tx.str1.4
                0x0000000000044a0c       0x6f CMakeFiles/pb_remote_client_nrf52840_xxAA_s140_6.0.0.dir/__/__/__/mesh/core/src/net_beacon.c.obj
 *fill*         0x0000000000044a7b        0x1 
 .rodata.net_beacon_init.str1.4
                0x0000000000044a7c        0x5 CMakeFiles/pb_remote_client_nrf52840_xxAA_s140_6.0.0.dir/__/__/__/mesh/core/src/net_beacon.c.obj
 *fill*         0x0000000000044a81        0x3 
 .rodata.m_interface
                0x0000000000044a84        0xc CMakeFiles/pb_remote_client_nrf52840_xxAA_s140_6.0.0.dir/__/__/__/mesh/core/src/core_tx_adv.c.obj
 .rodata.radio_mode_to_us_per_byte.9906
                0x0000000000044a90        0x6 CMakeFiles/pb_remote_client_nrf52840_xxAA_s140_6.0.0.dir/__/__/__/mesh/bearer/src/broadcast.c.obj
 *fill*         0x0000000000044a96        0x2 
 .rodata.channel_rf_offsets.9124
                0x0000000000044a98       0x28 CMakeFiles/pb_remote_client_nrf52840_xxAA_s140_6.0.0.dir/__/__/__/mesh/bearer/src/radio_config.c.obj
 .rodata.SEGGER_RTT_ReadNoLock.str1.4
                0x0000000000044ac0       0x18 ../../../external/rtt/librtt_nrf52840_xxAA.a(SEGGER_RTT.c.obj)
                                         0x17 (size before relaxing)
 .rodata._aV2C.5639
                0x0000000000044ad8       0x10 ../../../external/rtt/librtt_nrf52840_xxAA.a(SEGGER_RTT_printf.c.obj)
 .rodata.curve_secp256r1
                0x0000000000044ae8       0xb0 ../../../external/micro-ecc/libuECC_nrf52840_xxAA.a(uECC.c.obj)
 .rodata._global_impure_ptr
                0x0000000000044b98        0x4 /usr/bin/../lib/gcc/arm-none-eabi/7.2.1/../../../../arm-none-eabi/lib/thumb/v7e-m/fpv4-sp/hard/libg_nano.a(lib_a-impure.o)
                0x0000000000044b98                _global_impure_ptr
 *(.eh_frame*)
 .eh_frame      0x0000000000044b9c        0x0 /usr/bin/../lib/gcc/arm-none-eabi/7.2.1/thumb/v7e-m/fpv4-sp/hard/crtbegin.o
 .eh_frame      0x0000000000044b9c        0x4 /usr/bin/../lib/gcc/arm-none-eabi/7.2.1/thumb/v7e-m/fpv4-sp/hard/crtend.o

.glue_7         0x0000000000044ba0        0x0
 .glue_7        0x0000000000044ba0        0x0 linker stubs

.glue_7t        0x0000000000044ba0        0x0
 .glue_7t       0x0000000000044ba0        0x0 linker stubs

.vfp11_veneer   0x0000000000044ba0        0x0
 .vfp11_veneer  0x0000000000044ba0        0x0 linker stubs

.v4_bx          0x0000000000044ba0        0x0
 .v4_bx         0x0000000000044ba0        0x0 linker stubs

.iplt           0x0000000000044ba0        0x0
 .iplt          0x0000000000044ba0        0x0 /usr/bin/../lib/gcc/arm-none-eabi/7.2.1/thumb/v7e-m/fpv4-sp/hard/crtbegin.o

.pwr_mgmt_data  0x0000000000044ba0        0x0
                [!provide]                        PROVIDE (__start_pwr_mgmt_data, .)
 *(SORT_BY_NAME(.pwr_mgmt_data*))
                [!provide]                        PROVIDE (__stop_pwr_mgmt_data, .)

.log_const_data
                0x0000000000044ba0        0x0
                [!provide]                        PROVIDE (__start_log_const_data, .)
 *(.log_const_data)
                [!provide]                        PROVIDE (__stop_log_const_data, .)

.cli_command    0x0000000000044ba0        0x0
                [!provide]                        PROVIDE (__start_cli_command, .)
 *(.cli_command)
                [!provide]                        PROVIDE (__stop_cli_command, .)

.sdh_stack_observers
                0x0000000000044ba0        0x0
                [!provide]                        PROVIDE (__start_sdh_stack_observers, .)
 *(SORT_BY_NAME(.sdh_stack_observers*))
                [!provide]                        PROVIDE (__stop_sdh_stack_observers, .)

.sdh_req_observers
                0x0000000000044ba0        0x0
                [!provide]                        PROVIDE (__start_sdh_req_observers, .)
 *(SORT_BY_NAME(.sdh_req_observers*))
                [!provide]                        PROVIDE (__stop_sdh_req_observers, .)

.sdh_state_observers
                0x0000000000044ba0        0x0
                [!provide]                        PROVIDE (__start_sdh_state_observers, .)
 *(SORT_BY_NAME(.sdh_state_observers*))
                [!provide]                        PROVIDE (__stop_sdh_state_observers, .)

.sdh_ant_observers
                0x0000000000044ba0        0x0
                [!provide]                        PROVIDE (__start_sdh_ant_observers, .)
 *(SORT_BY_NAME(.sdh_ant_observers*))
                [!provide]                        PROVIDE (__stop_sdh_ant_observers, .)

.sdh_ble_observers
                0x0000000000044ba0        0x0
                [!provide]                        PROVIDE (__start_sdh_ble_observers, .)
 *(SORT_BY_NAME(.sdh_ble_observers*))
                [!provide]                        PROVIDE (__stop_sdh_ble_observers, .)

.sdh_soc_observers
                0x0000000000044ba0        0x0
                [!provide]                        PROVIDE (__start_sdh_soc_observers, .)
 *(SORT_BY_NAME(.sdh_soc_observers*))
                [!provide]                        PROVIDE (__stop_sdh_soc_observers, .)

.ARM.extab
 *(.ARM.extab* .gnu.linkonce.armextab.*)
                0x0000000000044ba0                __exidx_start = .

.ARM.exidx      0x0000000000044ba0        0x8
 *(.ARM.exidx* .gnu.linkonce.armexidx.*)
 .ARM.exidx     0x0000000000044ba0        0x8 /usr/bin/../lib/gcc/arm-none-eabi/7.2.1/../../../../arm-none-eabi/lib/thumb/v7e-m/fpv4-sp/hard/crt0.o
 .ARM.exidx     0x0000000000044ba8        0x0 /usr/bin/../lib/gcc/arm-none-eabi/7.2.1/thumb/v7e-m/fpv4-sp/hard/libgcc.a(_udivmoddi4.o)
                                          0x8 (size before relaxing)
                0x0000000000044ba8                __exidx_end = .
                0x0000000000044ba8                __etext = .

.rel.dyn        0x0000000000044ba8        0x0
 .rel.iplt      0x0000000000044ba8        0x0 /usr/bin/../lib/gcc/arm-none-eabi/7.2.1/thumb/v7e-m/fpv4-sp/hard/crtbegin.o

.data           0x00000000200032c8      0x13c load address 0x0000000000044ba8
                0x00000000200032c8                __data_start__ = .
 *(vtable)
 *(.data*)
 .data.m_next_unprov_address
                0x00000000200032c8        0x2 CMakeFiles/pb_remote_client_nrf52840_xxAA_s140_6.0.0.dir/src/main.c.obj
 *fill*         0x00000000200032ca        0x2 
 .data.m_async_process_flag
                0x00000000200032cc        0x4 CMakeFiles/pb_remote_client_nrf52840_xxAA_s140_6.0.0.dir/__/__/__/mesh/prov/src/prov_bearer_adv.c.obj
 .data.m_config_server_handle
                0x00000000200032d0        0x2 CMakeFiles/pb_remote_client_nrf52840_xxAA_s140_6.0.0.dir/__/__/__/models/config/src/config_server.c.obj
 *fill*         0x00000000200032d2        0x2 
 .data.m_mesh_evt_handler
                0x00000000200032d4        0x8 CMakeFiles/pb_remote_client_nrf52840_xxAA_s140_6.0.0.dir/__/__/__/models/config/src/config_server.c.obj
 .data.flash_add_mem_available_struct.10838
                0x00000000200032dc       0x10 CMakeFiles/pb_remote_client_nrf52840_xxAA_s140_6.0.0.dir/__/__/__/mesh/access/src/access.c.obj
 .data.flash_clear_mem_available_struct.10927
                0x00000000200032ec       0x10 CMakeFiles/pb_remote_client_nrf52840_xxAA_s140_6.0.0.dir/__/__/__/mesh/access/src/access.c.obj
 .data.flash_store_mem_available_struct.10951
                0x00000000200032fc       0x10 CMakeFiles/pb_remote_client_nrf52840_xxAA_s140_6.0.0.dir/__/__/__/mesh/access/src/access.c.obj
 .data.m_default_ttl
                0x000000002000330c        0x1 CMakeFiles/pb_remote_client_nrf52840_xxAA_s140_6.0.0.dir/__/__/__/mesh/access/src/access.c.obj
 *fill*         0x000000002000330d        0x3 
 .data.mem_listener.11127
                0x0000000020003310       0x10 CMakeFiles/pb_remote_client_nrf52840_xxAA_s140_6.0.0.dir/__/__/__/mesh/access/src/device_state_manager.c.obj
 .data.mem_listener.11153
                0x0000000020003320       0x10 CMakeFiles/pb_remote_client_nrf52840_xxAA_s140_6.0.0.dir/__/__/__/mesh/access/src/device_state_manager.c.obj
 .data.wait.9426
                0x0000000020003330        0x1 CMakeFiles/pb_remote_client_nrf52840_xxAA_s140_6.0.0.dir/__/__/common/src/app_error_weak.c.obj
 *fill*         0x0000000020003331        0x3 
 .data.mem_listener.10264
                0x0000000020003334       0x10 CMakeFiles/pb_remote_client_nrf52840_xxAA_s140_6.0.0.dir/__/__/__/mesh/core/src/net_state.c.obj
 .data.mem_listener.10269
                0x0000000020003344       0x10 CMakeFiles/pb_remote_client_nrf52840_xxAA_s140_6.0.0.dir/__/__/__/mesh/core/src/net_state.c.obj
 .data.mem_listener.10283
                0x0000000020003354       0x10 CMakeFiles/pb_remote_client_nrf52840_xxAA_s140_6.0.0.dir/__/__/__/mesh/core/src/net_state.c.obj
 .data.mem_listener.10300
                0x0000000020003364       0x10 CMakeFiles/pb_remote_client_nrf52840_xxAA_s140_6.0.0.dir/__/__/__/mesh/core/src/net_state.c.obj
 .data.m_nrf_mesh_listener
                0x0000000020003374        0xc CMakeFiles/pb_remote_client_nrf52840_xxAA_s140_6.0.0.dir/__/__/__/mesh/core/src/nrf_mesh.c.obj
 .data.g_log_dbg_lvl
                0x0000000020003380        0x4 CMakeFiles/pb_remote_client_nrf52840_xxAA_s140_6.0.0.dir/__/__/__/mesh/core/src/log.c.obj
                0x0000000020003380                g_log_dbg_lvl
 .data.g_log_dbg_msk
                0x0000000020003384        0x4 CMakeFiles/pb_remote_client_nrf52840_xxAA_s140_6.0.0.dir/__/__/__/mesh/core/src/log.c.obj
                0x0000000020003384                g_log_dbg_msk
 .data.g_log_hex_digits
                0x0000000020003388        0x4 CMakeFiles/pb_remote_client_nrf52840_xxAA_s140_6.0.0.dir/__/__/__/mesh/core/src/log.c.obj
                0x0000000020003388                g_log_hex_digits
 .data.m_log_callback
                0x000000002000338c        0x4 CMakeFiles/pb_remote_client_nrf52840_xxAA_s140_6.0.0.dir/__/__/__/mesh/core/src/log.c.obj
                0x000000002000338c                m_log_callback
 .data.SystemCoreClock
                0x0000000020003390        0x4 CMakeFiles/pb_remote_client_nrf52840_xxAA_s140_6.0.0.dir/home/mazzer/work/nordic/sdk/nRF5_SDK_15.0.0/modules/nrfx/mdk/system_nrf52840.c.obj
                0x0000000020003390                SystemCoreClock
 .data.g_rng_function
                0x0000000020003394        0x4 ../../../external/micro-ecc/libuECC_nrf52840_xxAA.a(uECC.c.obj)
 .data._impure_ptr
                0x0000000020003398        0x4 /usr/bin/../lib/gcc/arm-none-eabi/7.2.1/../../../../arm-none-eabi/lib/thumb/v7e-m/fpv4-sp/hard/libg_nano.a(lib_a-impure.o)
                0x0000000020003398                _impure_ptr
 .data.impure_data
                0x000000002000339c       0x60 /usr/bin/../lib/gcc/arm-none-eabi/7.2.1/../../../../arm-none-eabi/lib/thumb/v7e-m/fpv4-sp/hard/libg_nano.a(lib_a-impure.o)
                0x00000000200033fc                . = ALIGN (0x4)
                0x00000000200033fc                PROVIDE (__preinit_array_start, .)
 *(.preinit_array)
                0x00000000200033fc                PROVIDE (__preinit_array_end, .)
                0x00000000200033fc                . = ALIGN (0x4)
                0x00000000200033fc                PROVIDE (__init_array_start, .)
 *(SORT_BY_NAME(.init_array.*))
 *(.init_array)
 .init_array    0x00000000200033fc        0x4 /usr/bin/../lib/gcc/arm-none-eabi/7.2.1/thumb/v7e-m/fpv4-sp/hard/crtbegin.o
                0x0000000020003400                PROVIDE (__init_array_end, .)
                0x0000000020003400                . = ALIGN (0x4)
                [!provide]                        PROVIDE (__fini_array_start, .)
 *(SORT_BY_NAME(.fini_array.*))
 *(.fini_array)
 .fini_array    0x0000000020003400        0x4 /usr/bin/../lib/gcc/arm-none-eabi/7.2.1/thumb/v7e-m/fpv4-sp/hard/crtbegin.o
                [!provide]                        PROVIDE (__fini_array_end, .)
 *(.jcr*)
                0x0000000020003404                . = ALIGN (0x4)
                0x0000000020003404                __data_end__ = .
LOAD /usr/bin/../lib/gcc/arm-none-eabi/7.2.1/thumb/v7e-m/fpv4-sp/hard/crti.o
LOAD /usr/bin/../lib/gcc/arm-none-eabi/7.2.1/thumb/v7e-m/fpv4-sp/hard/crtbegin.o
LOAD /usr/bin/../lib/gcc/arm-none-eabi/7.2.1/../../../../arm-none-eabi/lib/thumb/v7e-m/fpv4-sp/hard/crt0.o
LOAD CMakeFiles/pb_remote_client_nrf52840_xxAA_s140_6.0.0.dir/src/main.c.obj
LOAD CMakeFiles/pb_remote_client_nrf52840_xxAA_s140_6.0.0.dir/__/__/__/mesh/stack/src/mesh_stack.c.obj
LOAD CMakeFiles/pb_remote_client_nrf52840_xxAA_s140_6.0.0.dir/__/__/common/src/mesh_softdevice_init.c.obj
LOAD CMakeFiles/pb_remote_client_nrf52840_xxAA_s140_6.0.0.dir/__/__/common/src/rtt_input.c.obj
LOAD CMakeFiles/pb_remote_client_nrf52840_xxAA_s140_6.0.0.dir/__/__/common/src/simple_hal.c.obj
LOAD CMakeFiles/pb_remote_client_nrf52840_xxAA_s140_6.0.0.dir/__/__/__/models/pb_remote/src/pb_remote_client.c.obj
LOAD CMakeFiles/pb_remote_client_nrf52840_xxAA_s140_6.0.0.dir/__/__/__/mesh/prov/src/prov_provisioner.c.obj
LOAD CMakeFiles/pb_remote_client_nrf52840_xxAA_s140_6.0.0.dir/__/__/__/mesh/prov/src/nrf_mesh_prov.c.obj
LOAD CMakeFiles/pb_remote_client_nrf52840_xxAA_s140_6.0.0.dir/__/__/__/mesh/prov/src/provisioning.c.obj
LOAD CMakeFiles/pb_remote_client_nrf52840_xxAA_s140_6.0.0.dir/__/__/__/mesh/prov/src/prov_beacon.c.obj
LOAD CMakeFiles/pb_remote_client_nrf52840_xxAA_s140_6.0.0.dir/__/__/__/mesh/prov/src/prov_utils.c.obj
LOAD CMakeFiles/pb_remote_client_nrf52840_xxAA_s140_6.0.0.dir/__/__/__/mesh/prov/src/prov_bearer_adv.c.obj
LOAD CMakeFiles/pb_remote_client_nrf52840_xxAA_s140_6.0.0.dir/__/__/__/models/config/src/composition_data.c.obj
LOAD CMakeFiles/pb_remote_client_nrf52840_xxAA_s140_6.0.0.dir/__/__/__/models/config/src/config_server.c.obj
LOAD CMakeFiles/pb_remote_client_nrf52840_xxAA_s140_6.0.0.dir/__/__/__/models/config/src/packed_index_list.c.obj
LOAD CMakeFiles/pb_remote_client_nrf52840_xxAA_s140_6.0.0.dir/__/__/__/models/health/src/health_server.c.obj
LOAD CMakeFiles/pb_remote_client_nrf52840_xxAA_s140_6.0.0.dir/__/__/__/mesh/access/src/access_publish.c.obj
LOAD CMakeFiles/pb_remote_client_nrf52840_xxAA_s140_6.0.0.dir/__/__/__/mesh/access/src/access.c.obj
LOAD CMakeFiles/pb_remote_client_nrf52840_xxAA_s140_6.0.0.dir/__/__/__/mesh/access/src/access_reliable.c.obj
LOAD CMakeFiles/pb_remote_client_nrf52840_xxAA_s140_6.0.0.dir/__/__/__/mesh/access/src/device_state_manager.c.obj
LOAD CMakeFiles/pb_remote_client_nrf52840_xxAA_s140_6.0.0.dir/__/__/nrf_mesh_weak.c.obj
LOAD CMakeFiles/pb_remote_client_nrf52840_xxAA_s140_6.0.0.dir/__/__/common/src/app_error_weak.c.obj
LOAD CMakeFiles/pb_remote_client_nrf52840_xxAA_s140_6.0.0.dir/__/__/common/src/assertion_handler_weak.c.obj
LOAD CMakeFiles/pb_remote_client_nrf52840_xxAA_s140_6.0.0.dir/__/__/__/mesh/core/src/internal_event.c.obj
LOAD CMakeFiles/pb_remote_client_nrf52840_xxAA_s140_6.0.0.dir/__/__/__/mesh/core/src/nrf_mesh_configure.c.obj
LOAD CMakeFiles/pb_remote_client_nrf52840_xxAA_s140_6.0.0.dir/__/__/__/mesh/core/src/aes.c.obj
LOAD CMakeFiles/pb_remote_client_nrf52840_xxAA_s140_6.0.0.dir/__/__/__/mesh/core/src/msg_cache.c.obj
LOAD CMakeFiles/pb_remote_client_nrf52840_xxAA_s140_6.0.0.dir/__/__/__/mesh/core/src/transport.c.obj
LOAD CMakeFiles/pb_remote_client_nrf52840_xxAA_s140_6.0.0.dir/__/__/__/mesh/core/src/event.c.obj
LOAD CMakeFiles/pb_remote_client_nrf52840_xxAA_s140_6.0.0.dir/__/__/__/mesh/core/src/packet_buffer.c.obj
LOAD CMakeFiles/pb_remote_client_nrf52840_xxAA_s140_6.0.0.dir/__/__/__/mesh/core/src/flash_manager_defrag.c.obj
LOAD CMakeFiles/pb_remote_client_nrf52840_xxAA_s140_6.0.0.dir/__/__/__/mesh/core/src/fifo.c.obj
LOAD CMakeFiles/pb_remote_client_nrf52840_xxAA_s140_6.0.0.dir/__/__/__/mesh/core/src/nrf_flash.c.obj
LOAD CMakeFiles/pb_remote_client_nrf52840_xxAA_s140_6.0.0.dir/__/__/__/mesh/core/src/packet_mgr.c.obj
LOAD CMakeFiles/pb_remote_client_nrf52840_xxAA_s140_6.0.0.dir/__/__/__/mesh/core/src/net_state.c.obj
LOAD CMakeFiles/pb_remote_client_nrf52840_xxAA_s140_6.0.0.dir/__/__/__/mesh/core/src/mesh_flash.c.obj
LOAD CMakeFiles/pb_remote_client_nrf52840_xxAA_s140_6.0.0.dir/__/__/__/mesh/core/src/nrf_mesh_utils.c.obj
LOAD CMakeFiles/pb_remote_client_nrf52840_xxAA_s140_6.0.0.dir/__/__/__/mesh/core/src/nrf_mesh.c.obj
LOAD CMakeFiles/pb_remote_client_nrf52840_xxAA_s140_6.0.0.dir/__/__/__/mesh/core/src/queue.c.obj
LOAD CMakeFiles/pb_remote_client_nrf52840_xxAA_s140_6.0.0.dir/__/__/__/mesh/core/src/hal.c.obj
LOAD CMakeFiles/pb_remote_client_nrf52840_xxAA_s140_6.0.0.dir/__/__/__/mesh/core/src/aes_cmac.c.obj
LOAD CMakeFiles/pb_remote_client_nrf52840_xxAA_s140_6.0.0.dir/__/__/__/mesh/core/src/timer_scheduler.c.obj
LOAD CMakeFiles/pb_remote_client_nrf52840_xxAA_s140_6.0.0.dir/__/__/__/mesh/core/src/timer.c.obj
LOAD CMakeFiles/pb_remote_client_nrf52840_xxAA_s140_6.0.0.dir/__/__/__/mesh/core/src/ticker.c.obj
LOAD CMakeFiles/pb_remote_client_nrf52840_xxAA_s140_6.0.0.dir/__/__/__/mesh/core/src/rand.c.obj
LOAD CMakeFiles/pb_remote_client_nrf52840_xxAA_s140_6.0.0.dir/__/__/__/mesh/core/src/nrf_mesh_opt.c.obj
LOAD CMakeFiles/pb_remote_client_nrf52840_xxAA_s140_6.0.0.dir/__/__/__/mesh/core/src/timeslot.c.obj
LOAD CMakeFiles/pb_remote_client_nrf52840_xxAA_s140_6.0.0.dir/__/__/__/mesh/core/src/bearer_event.c.obj
LOAD CMakeFiles/pb_remote_client_nrf52840_xxAA_s140_6.0.0.dir/__/__/__/mesh/core/src/enc.c.obj
LOAD CMakeFiles/pb_remote_client_nrf52840_xxAA_s140_6.0.0.dir/__/__/__/mesh/core/src/network.c.obj
LOAD CMakeFiles/pb_remote_client_nrf52840_xxAA_s140_6.0.0.dir/__/__/__/mesh/core/src/net_packet.c.obj
LOAD CMakeFiles/pb_remote_client_nrf52840_xxAA_s140_6.0.0.dir/__/__/__/mesh/core/src/msqueue.c.obj
LOAD CMakeFiles/pb_remote_client_nrf52840_xxAA_s140_6.0.0.dir/__/__/__/mesh/core/src/nrf_mesh_keygen.c.obj
LOAD CMakeFiles/pb_remote_client_nrf52840_xxAA_s140_6.0.0.dir/__/__/__/mesh/core/src/cache.c.obj
LOAD CMakeFiles/pb_remote_client_nrf52840_xxAA_s140_6.0.0.dir/__/__/__/mesh/core/src/uri.c.obj
LOAD CMakeFiles/pb_remote_client_nrf52840_xxAA_s140_6.0.0.dir/__/__/__/mesh/core/src/list.c.obj
LOAD CMakeFiles/pb_remote_client_nrf52840_xxAA_s140_6.0.0.dir/__/__/__/mesh/core/src/log.c.obj
LOAD CMakeFiles/pb_remote_client_nrf52840_xxAA_s140_6.0.0.dir/__/__/__/mesh/core/src/flash_manager.c.obj
LOAD CMakeFiles/pb_remote_client_nrf52840_xxAA_s140_6.0.0.dir/__/__/__/mesh/core/src/ccm_soft.c.obj
LOAD CMakeFiles/pb_remote_client_nrf52840_xxAA_s140_6.0.0.dir/__/__/__/mesh/core/src/toolchain.c.obj
LOAD CMakeFiles/pb_remote_client_nrf52840_xxAA_s140_6.0.0.dir/__/__/__/mesh/core/src/replay_cache.c.obj
LOAD CMakeFiles/pb_remote_client_nrf52840_xxAA_s140_6.0.0.dir/__/__/__/mesh/core/src/beacon.c.obj
LOAD CMakeFiles/pb_remote_client_nrf52840_xxAA_s140_6.0.0.dir/__/__/__/mesh/core/src/flash_manager_internal.c.obj
LOAD CMakeFiles/pb_remote_client_nrf52840_xxAA_s140_6.0.0.dir/__/__/__/mesh/core/src/core_tx.c.obj
LOAD CMakeFiles/pb_remote_client_nrf52840_xxAA_s140_6.0.0.dir/__/__/__/mesh/core/src/heartbeat.c.obj
LOAD CMakeFiles/pb_remote_client_nrf52840_xxAA_s140_6.0.0.dir/__/__/__/mesh/core/src/net_beacon.c.obj
LOAD CMakeFiles/pb_remote_client_nrf52840_xxAA_s140_6.0.0.dir/__/__/__/mesh/core/src/fsm.c.obj
LOAD CMakeFiles/pb_remote_client_nrf52840_xxAA_s140_6.0.0.dir/__/__/__/mesh/core/src/core_tx_adv.c.obj
LOAD CMakeFiles/pb_remote_client_nrf52840_xxAA_s140_6.0.0.dir/__/__/__/mesh/bearer/src/ad_listener.c.obj
LOAD CMakeFiles/pb_remote_client_nrf52840_xxAA_s140_6.0.0.dir/__/__/__/mesh/bearer/src/ad_type_filter.c.obj
LOAD CMakeFiles/pb_remote_client_nrf52840_xxAA_s140_6.0.0.dir/__/__/__/mesh/bearer/src/adv_packet_filter.c.obj
LOAD CMakeFiles/pb_remote_client_nrf52840_xxAA_s140_6.0.0.dir/__/__/__/mesh/bearer/src/advertiser.c.obj
LOAD CMakeFiles/pb_remote_client_nrf52840_xxAA_s140_6.0.0.dir/__/__/__/mesh/bearer/src/bearer_handler.c.obj
LOAD CMakeFiles/pb_remote_client_nrf52840_xxAA_s140_6.0.0.dir/__/__/__/mesh/bearer/src/broadcast.c.obj
LOAD CMakeFiles/pb_remote_client_nrf52840_xxAA_s140_6.0.0.dir/__/__/__/mesh/bearer/src/filter_engine.c.obj
LOAD CMakeFiles/pb_remote_client_nrf52840_xxAA_s140_6.0.0.dir/__/__/__/mesh/bearer/src/gap_address_filter.c.obj
LOAD CMakeFiles/pb_remote_client_nrf52840_xxAA_s140_6.0.0.dir/__/__/__/mesh/bearer/src/radio_config.c.obj
LOAD CMakeFiles/pb_remote_client_nrf52840_xxAA_s140_6.0.0.dir/__/__/__/mesh/bearer/src/rssi_filter.c.obj
LOAD CMakeFiles/pb_remote_client_nrf52840_xxAA_s140_6.0.0.dir/__/__/__/mesh/bearer/src/scanner.c.obj
LOAD CMakeFiles/pb_remote_client_nrf52840_xxAA_s140_6.0.0.dir/home/mazzer/work/nordic/sdk/nRF5_SDK_15.0.0/modules/nrfx/mdk/system_nrf52840.c.obj
LOAD CMakeFiles/pb_remote_client_nrf52840_xxAA_s140_6.0.0.dir/home/mazzer/work/nordic/sdk/nRF5_SDK_15.0.0/modules/nrfx/mdk/gcc_startup_nrf52840.S.obj
LOAD CMakeFiles/pb_remote_client_nrf52840_xxAA_s140_6.0.0.dir/home/mazzer/work/nordic/sdk/nRF5_SDK_15.0.0/components/libraries/util/app_error.c.obj
LOAD CMakeFiles/pb_remote_client_nrf52840_xxAA_s140_6.0.0.dir/home/mazzer/work/nordic/sdk/nRF5_SDK_15.0.0/components/libraries/util/app_error_handler_gcc.c.obj
LOAD ../../../external/rtt/librtt_nrf52840_xxAA.a
LOAD ../../../external/micro-ecc/libuECC_nrf52840_xxAA.a
START GROUP
LOAD /usr/bin/../lib/gcc/arm-none-eabi/7.2.1/thumb/v7e-m/fpv4-sp/hard/libgcc.a
LOAD /usr/bin/../lib/gcc/arm-none-eabi/7.2.1/../../../../arm-none-eabi/lib/thumb/v7e-m/fpv4-sp/hard/libg_nano.a
LOAD /usr/bin/../lib/gcc/arm-none-eabi/7.2.1/../../../../arm-none-eabi/lib/thumb/v7e-m/fpv4-sp/hard/libc_nano.a
END GROUP
START GROUP
LOAD /usr/bin/../lib/gcc/arm-none-eabi/7.2.1/thumb/v7e-m/fpv4-sp/hard/libgcc.a
LOAD /usr/bin/../lib/gcc/arm-none-eabi/7.2.1/../../../../arm-none-eabi/lib/thumb/v7e-m/fpv4-sp/hard/libc_nano.a
END GROUP
LOAD /usr/bin/../lib/gcc/arm-none-eabi/7.2.1/thumb/v7e-m/fpv4-sp/hard/crtend.o
LOAD /usr/bin/../lib/gcc/arm-none-eabi/7.2.1/thumb/v7e-m/fpv4-sp/hard/crtn.o
START GROUP
LOAD /usr/bin/../lib/gcc/arm-none-eabi/7.2.1/thumb/v7e-m/fpv4-sp/hard/libgcc.a
LOAD /usr/bin/../lib/gcc/arm-none-eabi/7.2.1/../../../../arm-none-eabi/lib/thumb/v7e-m/fpv4-sp/hard/libc.a
LOAD /usr/bin/../lib/gcc/arm-none-eabi/7.2.1/../../../../arm-none-eabi/lib/thumb/v7e-m/fpv4-sp/hard/libnosys.a
END GROUP

.igot.plt       0x0000000020003404        0x0 load address 0x0000000000044ce4
 .igot.plt      0x0000000020003404        0x0 /usr/bin/../lib/gcc/arm-none-eabi/7.2.1/thumb/v7e-m/fpv4-sp/hard/crtbegin.o
                0x0000000020003404                . = ALIGN (0x4)

.svc_data       0x0000000020003404        0x0
                [!provide]                        PROVIDE (__start_svc_data, .)
 *(.svc_data)
                [!provide]                        PROVIDE (__stop_svc_data, .)

.fs_data        0x0000000020003404        0x0
                [!provide]                        PROVIDE (__start_fs_data, .)
 *(.fs_data)
                [!provide]                        PROVIDE (__stop_fs_data, .)

.log_dynamic_data
                0x0000000020003404        0x0
                [!provide]                        PROVIDE (__start_log_dynamic_data, .)
 *(.log_dynamic_data)
                [!provide]                        PROVIDE (__stop_log_dynamic_data, .)

.cli_sorted_cmd_ptrs
                0x0000000020003404        0x0
                [!provide]                        PROVIDE (__start_cli_sorted_cmd_ptrs, .)
 *(.cli_sorted_cmd_ptrs)
                [!provide]                        PROVIDE (__stop_cli_sorted_cmd_ptrs, .)

.bss            0x0000000020003408     0x3118 load address 0x0000000000044ce8
                0x0000000020003408                . = ALIGN (0x4)
                0x0000000020003408                __bss_start__ = .
 *(.bss*)
 .bss           0x0000000020003408       0x1c /usr/bin/../lib/gcc/arm-none-eabi/7.2.1/thumb/v7e-m/fpv4-sp/hard/crtbegin.o
 .bss.m_appkey_handles
                0x0000000020003424        0x2 CMakeFiles/pb_remote_client_nrf52840_xxAA_s140_6.0.0.dir/src/main.c.obj
 *fill*         0x0000000020003426        0x2 
 .bss.m_device_address_handles
                0x0000000020003428        0x8 CMakeFiles/pb_remote_client_nrf52840_xxAA_s140_6.0.0.dir/src/main.c.obj
 .bss.m_device_state
                0x0000000020003430        0x1 CMakeFiles/pb_remote_client_nrf52840_xxAA_s140_6.0.0.dir/src/main.c.obj
 *fill*         0x0000000020003431        0x3 
 .bss.m_devkey_handles
                0x0000000020003434        0xa CMakeFiles/pb_remote_client_nrf52840_xxAA_s140_6.0.0.dir/src/main.c.obj
 *fill*         0x000000002000343e        0x2 
 .bss.m_netkey_handles
                0x0000000020003440        0x2 CMakeFiles/pb_remote_client_nrf52840_xxAA_s140_6.0.0.dir/src/main.c.obj
 .bss.m_next_unprov_index
                0x0000000020003442        0x1 CMakeFiles/pb_remote_client_nrf52840_xxAA_s140_6.0.0.dir/src/main.c.obj
 *fill*         0x0000000020003443        0x1 
 .bss.m_num_elements_of_last_guy
                0x0000000020003444        0x2 CMakeFiles/pb_remote_client_nrf52840_xxAA_s140_6.0.0.dir/src/main.c.obj
 *fill*         0x0000000020003446        0x2 
 .bss.m_private_key
                0x0000000020003448       0x20 CMakeFiles/pb_remote_client_nrf52840_xxAA_s140_6.0.0.dir/src/main.c.obj
 .bss.m_prov_bearer_adv
                0x0000000020003468      0x1c4 CMakeFiles/pb_remote_client_nrf52840_xxAA_s140_6.0.0.dir/src/main.c.obj
 .bss.m_prov_ctx
                0x000000002000362c      0x134 CMakeFiles/pb_remote_client_nrf52840_xxAA_s140_6.0.0.dir/src/main.c.obj
 .bss.m_public_key
                0x0000000020003760       0x40 CMakeFiles/pb_remote_client_nrf52840_xxAA_s140_6.0.0.dir/src/main.c.obj
 .bss.m_remote_client
                0x00000000200037a0       0x40 CMakeFiles/pb_remote_client_nrf52840_xxAA_s140_6.0.0.dir/src/main.c.obj
 .bss.m_uuid_list
                0x00000000200037e0       0x30 CMakeFiles/pb_remote_client_nrf52840_xxAA_s140_6.0.0.dir/src/main.c.obj
 .bss.s_state.13443
                0x0000000020003810        0x1 CMakeFiles/pb_remote_client_nrf52840_xxAA_s140_6.0.0.dir/src/main.c.obj
 *fill*         0x0000000020003811        0x3 
 .bss.m_health_server
                0x0000000020003814       0x5c CMakeFiles/pb_remote_client_nrf52840_xxAA_s140_6.0.0.dir/__/__/__/mesh/stack/src/mesh_stack.c.obj
 .bss.m_init_params
                0x0000000020003870       0x24 CMakeFiles/pb_remote_client_nrf52840_xxAA_s140_6.0.0.dir/__/__/__/mesh/stack/src/mesh_stack.c.obj
 .bss.m_rtt_input_handler
                0x0000000020003894        0x4 CMakeFiles/pb_remote_client_nrf52840_xxAA_s140_6.0.0.dir/__/__/common/src/rtt_input.c.obj
 .bss.m_button_handler_cb
                0x0000000020003898        0x4 CMakeFiles/pb_remote_client_nrf52840_xxAA_s140_6.0.0.dir/__/__/common/src/simple_hal.c.obj
 .bss.m_last_button_press
                0x000000002000389c        0x4 CMakeFiles/pb_remote_client_nrf52840_xxAA_s140_6.0.0.dir/__/__/common/src/simple_hal.c.obj
 .bss.m_is_interrupting
                0x00000000200038a0        0x1 CMakeFiles/pb_remote_client_nrf52840_xxAA_s140_6.0.0.dir/__/__/__/models/pb_remote/src/pb_remote_client.c.obj
 *fill*         0x00000000200038a1        0x3 
 .bss.m_packet  0x00000000200038a4       0x41 CMakeFiles/pb_remote_client_nrf52840_xxAA_s140_6.0.0.dir/__/__/__/models/pb_remote/src/pb_remote_client.c.obj
 *fill*         0x00000000200038e5        0x3 
 .bss.m_pbr_client_event_queue
                0x00000000200038e8       0x14 CMakeFiles/pb_remote_client_nrf52840_xxAA_s140_6.0.0.dir/__/__/__/models/pb_remote/src/pb_remote_client.c.obj
 .bss.m_pbr_client_event_queue_buffer
                0x00000000200038fc       0x90 CMakeFiles/pb_remote_client_nrf52840_xxAA_s140_6.0.0.dir/__/__/__/models/pb_remote/src/pb_remote_client.c.obj
 .bss.mp_pb_remote_client_model
                0x000000002000398c        0x4 CMakeFiles/pb_remote_client_nrf52840_xxAA_s140_6.0.0.dir/__/__/__/models/pb_remote/src/pb_remote_client.c.obj
 .bss.m_event_handler
                0x0000000020003990        0x4 CMakeFiles/pb_remote_client_nrf52840_xxAA_s140_6.0.0.dir/__/__/__/mesh/prov/src/prov_beacon.c.obj
 .bss.m_offload_ecdh
                0x0000000020003994        0x1 CMakeFiles/pb_remote_client_nrf52840_xxAA_s140_6.0.0.dir/__/__/__/mesh/prov/src/prov_utils.c.obj
 *fill*         0x0000000020003995        0x3 
 .bss.mp_bearer_head
                0x0000000020003998        0x4 CMakeFiles/pb_remote_client_nrf52840_xxAA_s140_6.0.0.dir/__/__/__/mesh/prov/src/prov_bearer_adv.c.obj
 .bss.m_evt_cb  0x000000002000399c        0x4 CMakeFiles/pb_remote_client_nrf52840_xxAA_s140_6.0.0.dir/__/__/__/models/config/src/config_server.c.obj
 .bss.m_heartbeat_publication
                0x00000000200039a0       0x14 CMakeFiles/pb_remote_client_nrf52840_xxAA_s140_6.0.0.dir/__/__/__/models/config/src/config_server.c.obj
 .bss.m_node_reset_pending
                0x00000000200039b4        0x1 CMakeFiles/pb_remote_client_nrf52840_xxAA_s140_6.0.0.dir/__/__/__/models/config/src/config_server.c.obj
 *fill*         0x00000000200039b5        0x3 
 .bss.m_attention_timer
                0x00000000200039b8       0x18 CMakeFiles/pb_remote_client_nrf52840_xxAA_s140_6.0.0.dir/__/__/__/models/health/src/health_server.c.obj
 .bss.mp_attention_list
                0x00000000200039d0        0x4 CMakeFiles/pb_remote_client_nrf52840_xxAA_s140_6.0.0.dir/__/__/__/models/health/src/health_server.c.obj
 .bss.m_publish_timer
                0x00000000200039d4       0x18 CMakeFiles/pb_remote_client_nrf52840_xxAA_s140_6.0.0.dir/__/__/__/mesh/access/src/access_publish.c.obj
 .bss.m_publish_timer_counter
                0x00000000200039ec        0x4 CMakeFiles/pb_remote_client_nrf52840_xxAA_s140_6.0.0.dir/__/__/__/mesh/access/src/access_publish.c.obj
 .bss.m_publish_timer_running
                0x00000000200039f0        0x1 CMakeFiles/pb_remote_client_nrf52840_xxAA_s140_6.0.0.dir/__/__/__/mesh/access/src/access_publish.c.obj
 .bss.m_timer_resolution
                0x00000000200039f1        0x1 CMakeFiles/pb_remote_client_nrf52840_xxAA_s140_6.0.0.dir/__/__/__/mesh/access/src/access_publish.c.obj
 *fill*         0x00000000200039f2        0x2 
 .bss.mp_publication_list
                0x00000000200039f4        0x4 CMakeFiles/pb_remote_client_nrf52840_xxAA_s140_6.0.0.dir/__/__/__/mesh/access/src/access_publish.c.obj
 .bss.m_element_pool
                0x00000000200039f8        0x6 CMakeFiles/pb_remote_client_nrf52840_xxAA_s140_6.0.0.dir/__/__/__/mesh/access/src/access.c.obj
 *fill*         0x00000000200039fe        0x2 
 .bss.m_evt_handler
                0x0000000020003a00        0x8 CMakeFiles/pb_remote_client_nrf52840_xxAA_s140_6.0.0.dir/__/__/__/mesh/access/src/access.c.obj
 .bss.m_flash_manager
                0x0000000020003a08       0x24 CMakeFiles/pb_remote_client_nrf52840_xxAA_s140_6.0.0.dir/__/__/__/mesh/access/src/access.c.obj
 .bss.m_flash_not_ready
                0x0000000020003a2c        0x1 CMakeFiles/pb_remote_client_nrf52840_xxAA_s140_6.0.0.dir/__/__/__/mesh/access/src/access.c.obj
 .bss.m_metadata_stored
                0x0000000020003a2d        0x1 CMakeFiles/pb_remote_client_nrf52840_xxAA_s140_6.0.0.dir/__/__/__/mesh/access/src/access.c.obj
 *fill*         0x0000000020003a2e        0x2 
 .bss.m_model_pool
                0x0000000020003a30       0x9c CMakeFiles/pb_remote_client_nrf52840_xxAA_s140_6.0.0.dir/__/__/__/mesh/access/src/access.c.obj
 .bss.m_subscription_list_pool
                0x0000000020003acc       0x18 CMakeFiles/pb_remote_client_nrf52840_xxAA_s140_6.0.0.dir/__/__/__/mesh/access/src/access.c.obj
 .bss.m_reliable
                0x0000000020003ae4       0xa0 CMakeFiles/pb_remote_client_nrf52840_xxAA_s140_6.0.0.dir/__/__/__/mesh/access/src/access_reliable.c.obj
 .bss.m_addr_nonvirtual_allocated
                0x0000000020003b84        0x4 CMakeFiles/pb_remote_client_nrf52840_xxAA_s140_6.0.0.dir/__/__/__/mesh/access/src/device_state_manager.c.obj
 .bss.m_addr_nonvirtual_needs_flashing
                0x0000000020003b88        0x4 CMakeFiles/pb_remote_client_nrf52840_xxAA_s140_6.0.0.dir/__/__/__/mesh/access/src/device_state_manager.c.obj
 .bss.m_addr_unicast_allocated
                0x0000000020003b8c        0x4 CMakeFiles/pb_remote_client_nrf52840_xxAA_s140_6.0.0.dir/__/__/__/mesh/access/src/device_state_manager.c.obj
 .bss.m_addr_unicast_needs_flashing
                0x0000000020003b90        0x4 CMakeFiles/pb_remote_client_nrf52840_xxAA_s140_6.0.0.dir/__/__/__/mesh/access/src/device_state_manager.c.obj
 .bss.m_addr_virtual_allocated
                0x0000000020003b94        0x4 CMakeFiles/pb_remote_client_nrf52840_xxAA_s140_6.0.0.dir/__/__/__/mesh/access/src/device_state_manager.c.obj
 .bss.m_addr_virtual_needs_flashing
                0x0000000020003b98        0x4 CMakeFiles/pb_remote_client_nrf52840_xxAA_s140_6.0.0.dir/__/__/__/mesh/access/src/device_state_manager.c.obj
 .bss.m_addresses
                0x0000000020003b9c       0x10 CMakeFiles/pb_remote_client_nrf52840_xxAA_s140_6.0.0.dir/__/__/__/mesh/access/src/device_state_manager.c.obj
 .bss.m_appkey_allocated
                0x0000000020003bac        0x4 CMakeFiles/pb_remote_client_nrf52840_xxAA_s140_6.0.0.dir/__/__/__/mesh/access/src/device_state_manager.c.obj
 .bss.m_appkey_needs_flashing
                0x0000000020003bb0        0x4 CMakeFiles/pb_remote_client_nrf52840_xxAA_s140_6.0.0.dir/__/__/__/mesh/access/src/device_state_manager.c.obj
 .bss.m_appkeys
                0x0000000020003bb4       0x2a CMakeFiles/pb_remote_client_nrf52840_xxAA_s140_6.0.0.dir/__/__/__/mesh/access/src/device_state_manager.c.obj
 *fill*         0x0000000020003bde        0x2 
 .bss.m_devkey_allocated
                0x0000000020003be0        0x4 CMakeFiles/pb_remote_client_nrf52840_xxAA_s140_6.0.0.dir/__/__/__/mesh/access/src/device_state_manager.c.obj
 .bss.m_devkey_needs_flashing
                0x0000000020003be4        0x4 CMakeFiles/pb_remote_client_nrf52840_xxAA_s140_6.0.0.dir/__/__/__/mesh/access/src/device_state_manager.c.obj
 .bss.m_devkeys
                0x0000000020003be8       0x6e CMakeFiles/pb_remote_client_nrf52840_xxAA_s140_6.0.0.dir/__/__/__/mesh/access/src/device_state_manager.c.obj
 .bss.m_flash_is_available
                0x0000000020003c56        0x1 CMakeFiles/pb_remote_client_nrf52840_xxAA_s140_6.0.0.dir/__/__/__/mesh/access/src/device_state_manager.c.obj
 *fill*         0x0000000020003c57        0x1 
 .bss.m_flash_manager
                0x0000000020003c58       0x24 CMakeFiles/pb_remote_client_nrf52840_xxAA_s140_6.0.0.dir/__/__/__/mesh/access/src/device_state_manager.c.obj
 .bss.m_flash_mem_listener_update_all
                0x0000000020003c7c       0x10 CMakeFiles/pb_remote_client_nrf52840_xxAA_s140_6.0.0.dir/__/__/__/mesh/access/src/device_state_manager.c.obj
 .bss.m_has_primary_subnet
                0x0000000020003c8c        0x1 CMakeFiles/pb_remote_client_nrf52840_xxAA_s140_6.0.0.dir/__/__/__/mesh/access/src/device_state_manager.c.obj
 *fill*         0x0000000020003c8d        0x3 
 .bss.m_local_unicast_addr
                0x0000000020003c90        0x4 CMakeFiles/pb_remote_client_nrf52840_xxAA_s140_6.0.0.dir/__/__/__/mesh/access/src/device_state_manager.c.obj
 .bss.m_mesh_evt_handler
                0x0000000020003c94        0x8 CMakeFiles/pb_remote_client_nrf52840_xxAA_s140_6.0.0.dir/__/__/__/mesh/access/src/device_state_manager.c.obj
 .bss.m_subnet_allocated
                0x0000000020003c9c        0x4 CMakeFiles/pb_remote_client_nrf52840_xxAA_s140_6.0.0.dir/__/__/__/mesh/access/src/device_state_manager.c.obj
 .bss.m_subnet_needs_flashing
                0x0000000020003ca0        0x4 CMakeFiles/pb_remote_client_nrf52840_xxAA_s140_6.0.0.dir/__/__/__/mesh/access/src/device_state_manager.c.obj
 .bss.m_subnets
                0x0000000020003ca4       0xa8 CMakeFiles/pb_remote_client_nrf52840_xxAA_s140_6.0.0.dir/__/__/__/mesh/access/src/device_state_manager.c.obj
 .bss.m_virtual_addresses
                0x0000000020003d4c       0x14 CMakeFiles/pb_remote_client_nrf52840_xxAA_s140_6.0.0.dir/__/__/__/mesh/access/src/device_state_manager.c.obj
 .bss.m_uuid    0x0000000020003d60       0x10 CMakeFiles/pb_remote_client_nrf52840_xxAA_s140_6.0.0.dir/__/__/__/mesh/core/src/nrf_mesh_configure.c.obj
 .bss.m_msg_cache
                0x0000000020003d70      0x100 CMakeFiles/pb_remote_client_nrf52840_xxAA_s140_6.0.0.dir/__/__/__/mesh/core/src/msg_cache.c.obj
 .bss.m_msg_cache_head
                0x0000000020003e70        0x4 CMakeFiles/pb_remote_client_nrf52840_xxAA_s140_6.0.0.dir/__/__/__/mesh/core/src/msg_cache.c.obj
 .bss.m_control_packet_consumer_count
                0x0000000020003e74        0x4 CMakeFiles/pb_remote_client_nrf52840_xxAA_s140_6.0.0.dir/__/__/__/mesh/core/src/transport.c.obj
 .bss.m_control_packet_consumers
                0x0000000020003e78        0x8 CMakeFiles/pb_remote_client_nrf52840_xxAA_s140_6.0.0.dir/__/__/__/mesh/core/src/transport.c.obj
 .bss.m_sar_alloc
                0x0000000020003e80        0x4 CMakeFiles/pb_remote_client_nrf52840_xxAA_s140_6.0.0.dir/__/__/__/mesh/core/src/transport.c.obj
 .bss.m_sar_process_flag
                0x0000000020003e84        0x4 CMakeFiles/pb_remote_client_nrf52840_xxAA_s140_6.0.0.dir/__/__/__/mesh/core/src/transport.c.obj
 .bss.m_sar_release
                0x0000000020003e88        0x4 CMakeFiles/pb_remote_client_nrf52840_xxAA_s140_6.0.0.dir/__/__/__/mesh/core/src/transport.c.obj
 .bss.m_sar_session_cache
                0x0000000020003e8c       0x40 CMakeFiles/pb_remote_client_nrf52840_xxAA_s140_6.0.0.dir/__/__/__/mesh/core/src/transport.c.obj
 .bss.m_sar_session_cache_head
                0x0000000020003ecc        0x4 CMakeFiles/pb_remote_client_nrf52840_xxAA_s140_6.0.0.dir/__/__/__/mesh/core/src/transport.c.obj
 .bss.m_trs_config
                0x0000000020003ed0       0x18 CMakeFiles/pb_remote_client_nrf52840_xxAA_s140_6.0.0.dir/__/__/__/mesh/core/src/transport.c.obj
 .bss.m_trs_sar_sessions
                0x0000000020003ee8      0x1b0 CMakeFiles/pb_remote_client_nrf52840_xxAA_s140_6.0.0.dir/__/__/__/mesh/core/src/transport.c.obj
 .bss.mp_evt_handlers_head
                0x0000000020004098        0x4 CMakeFiles/pb_remote_client_nrf52840_xxAA_s140_6.0.0.dir/__/__/__/mesh/core/src/event.c.obj
 .bss.m_defrag  0x000000002000409c       0x1c CMakeFiles/pb_remote_client_nrf52840_xxAA_s140_6.0.0.dir/__/__/__/mesh/core/src/flash_manager_defrag.c.obj
 .bss.m_token   0x00000000200040b8        0x2 CMakeFiles/pb_remote_client_nrf52840_xxAA_s140_6.0.0.dir/__/__/__/mesh/core/src/flash_manager_defrag.c.obj
 *fill*         0x00000000200040ba        0x2 
 .bss.mp_recovery_area
                0x00000000200040bc        0x4 CMakeFiles/pb_remote_client_nrf52840_xxAA_s140_6.0.0.dir/__/__/__/mesh/core/src/flash_manager_defrag.c.obj
 .bss.p_null_ptr.10695
                0x00000000200040c0        0x4 CMakeFiles/pb_remote_client_nrf52840_xxAA_s140_6.0.0.dir/__/__/__/mesh/core/src/flash_manager_defrag.c.obj
 .bss.m_pool    0x00000000200040c4     0x1000 CMakeFiles/pb_remote_client_nrf52840_xxAA_s140_6.0.0.dir/__/__/__/mesh/core/src/packet_mgr.c.obj
 .bss.mp_free_head
                0x00000000200050c4        0x4 CMakeFiles/pb_remote_client_nrf52840_xxAA_s140_6.0.0.dir/__/__/__/mesh/core/src/packet_mgr.c.obj
 .bss.lock_count.10326
                0x00000000200050c8        0x4 CMakeFiles/pb_remote_client_nrf52840_xxAA_s140_6.0.0.dir/__/__/__/mesh/core/src/net_state.c.obj
 .bss.m_flash_manager
                0x00000000200050cc       0x24 CMakeFiles/pb_remote_client_nrf52840_xxAA_s140_6.0.0.dir/__/__/__/mesh/core/src/net_state.c.obj
 .bss.m_iv_update_timer
                0x00000000200050f0       0x18 CMakeFiles/pb_remote_client_nrf52840_xxAA_s140_6.0.0.dir/__/__/__/mesh/core/src/net_state.c.obj
 .bss.m_mesh_evt_handler
                0x0000000020005108        0x8 CMakeFiles/pb_remote_client_nrf52840_xxAA_s140_6.0.0.dir/__/__/__/mesh/core/src/net_state.c.obj
 .bss.m_net_state
                0x0000000020005110       0x14 CMakeFiles/pb_remote_client_nrf52840_xxAA_s140_6.0.0.dir/__/__/__/mesh/core/src/net_state.c.obj
 .bss.m_seqnum_allocation_in_progress
                0x0000000020005124        0x1 CMakeFiles/pb_remote_client_nrf52840_xxAA_s140_6.0.0.dir/__/__/__/mesh/core/src/net_state.c.obj
 .bss.m_test_mode
                0x0000000020005125        0x1 CMakeFiles/pb_remote_client_nrf52840_xxAA_s140_6.0.0.dir/__/__/__/mesh/core/src/net_state.c.obj
 *fill*         0x0000000020005126        0x2 
 .bss.m_event_flag
                0x0000000020005128        0x4 CMakeFiles/pb_remote_client_nrf52840_xxAA_s140_6.0.0.dir/__/__/__/mesh/core/src/mesh_flash.c.obj
 .bss.m_suspended
                0x000000002000512c        0x1 CMakeFiles/pb_remote_client_nrf52840_xxAA_s140_6.0.0.dir/__/__/__/mesh/core/src/mesh_flash.c.obj
 *fill*         0x000000002000512d        0x3 
 .bss.m_users   0x0000000020005130      0x228 CMakeFiles/pb_remote_client_nrf52840_xxAA_s140_6.0.0.dir/__/__/__/mesh/core/src/mesh_flash.c.obj
 .bss.m_is_enabled
                0x0000000020005358        0x1 CMakeFiles/pb_remote_client_nrf52840_xxAA_s140_6.0.0.dir/__/__/__/mesh/core/src/nrf_mesh.c.obj
 .bss.m_is_initialized
                0x0000000020005359        0x1 CMakeFiles/pb_remote_client_nrf52840_xxAA_s140_6.0.0.dir/__/__/__/mesh/core/src/nrf_mesh.c.obj
 *fill*         0x000000002000535a        0x2 
 .bss.m_rx_cb   0x000000002000535c        0x4 CMakeFiles/pb_remote_client_nrf52840_xxAA_s140_6.0.0.dir/__/__/__/mesh/core/src/nrf_mesh.c.obj
 .bss.m_128buf  0x0000000020005360       0x10 CMakeFiles/pb_remote_client_nrf52840_xxAA_s140_6.0.0.dir/__/__/__/mesh/core/src/aes_cmac.c.obj
 .bss.m_subkey1
                0x0000000020005370       0x10 CMakeFiles/pb_remote_client_nrf52840_xxAA_s140_6.0.0.dir/__/__/__/mesh/core/src/aes_cmac.c.obj
 .bss.m_subkey2
                0x0000000020005380       0x10 CMakeFiles/pb_remote_client_nrf52840_xxAA_s140_6.0.0.dir/__/__/__/mesh/core/src/aes_cmac.c.obj
 .bss.m_event_flag
                0x0000000020005390        0x4 CMakeFiles/pb_remote_client_nrf52840_xxAA_s140_6.0.0.dir/__/__/__/mesh/core/src/timer_scheduler.c.obj
 .bss.m_scheduler
                0x0000000020005394       0x10 CMakeFiles/pb_remote_client_nrf52840_xxAA_s140_6.0.0.dir/__/__/__/mesh/core/src/timer_scheduler.c.obj
 .bss.m_attributes
                0x00000000200053a4        0x3 CMakeFiles/pb_remote_client_nrf52840_xxAA_s140_6.0.0.dir/__/__/__/mesh/core/src/timer.c.obj
 *fill*         0x00000000200053a7        0x1 
 .bss.m_callbacks
                0x00000000200053a8        0xc CMakeFiles/pb_remote_client_nrf52840_xxAA_s140_6.0.0.dir/__/__/__/mesh/core/src/timer.c.obj
 .bss.m_is_in_ts
                0x00000000200053b4        0x1 CMakeFiles/pb_remote_client_nrf52840_xxAA_s140_6.0.0.dir/__/__/__/mesh/core/src/timer.c.obj
 *fill*         0x00000000200053b5        0x3 
 .bss.m_reference_time
                0x00000000200053b8        0x4 CMakeFiles/pb_remote_client_nrf52840_xxAA_s140_6.0.0.dir/__/__/__/mesh/core/src/timer.c.obj
 .bss.m_timeouts
                0x00000000200053bc        0xc CMakeFiles/pb_remote_client_nrf52840_xxAA_s140_6.0.0.dir/__/__/__/mesh/core/src/timer.c.obj
 .bss.m_timer_mut
                0x00000000200053c8        0x4 CMakeFiles/pb_remote_client_nrf52840_xxAA_s140_6.0.0.dir/__/__/__/mesh/core/src/timer.c.obj
 .bss.m_ts_end_time
                0x00000000200053cc        0x4 CMakeFiles/pb_remote_client_nrf52840_xxAA_s140_6.0.0.dir/__/__/__/mesh/core/src/timer.c.obj
 .bss.mp_ppi_tasks
                0x00000000200053d0        0xc CMakeFiles/pb_remote_client_nrf52840_xxAA_s140_6.0.0.dir/__/__/__/mesh/core/src/timer.c.obj
 .bss.m_current_time
                0x00000000200053dc        0x4 CMakeFiles/pb_remote_client_nrf52840_xxAA_s140_6.0.0.dir/__/__/__/mesh/core/src/ticker.c.obj
 .bss.m_timer   0x00000000200053e0       0x18 CMakeFiles/pb_remote_client_nrf52840_xxAA_s140_6.0.0.dir/__/__/__/mesh/core/src/ticker.c.obj
 .bss.m_current_timeslot
                0x00000000200053f8       0x1c CMakeFiles/pb_remote_client_nrf52840_xxAA_s140_6.0.0.dir/__/__/__/mesh/core/src/timeslot.c.obj
 .bss.m_lfclk_ppm
                0x0000000020005414        0x4 CMakeFiles/pb_remote_client_nrf52840_xxAA_s140_6.0.0.dir/__/__/__/mesh/core/src/timeslot.c.obj
 .bss.m_radio_request_earliest
                0x0000000020005418       0x10 CMakeFiles/pb_remote_client_nrf52840_xxAA_s140_6.0.0.dir/__/__/__/mesh/core/src/timeslot.c.obj
 .bss.m_state_lock
                0x0000000020005428        0x1 CMakeFiles/pb_remote_client_nrf52840_xxAA_s140_6.0.0.dir/__/__/__/mesh/core/src/timeslot.c.obj
 .bss.m_timeslot_forced_command
                0x0000000020005429        0x1 CMakeFiles/pb_remote_client_nrf52840_xxAA_s140_6.0.0.dir/__/__/__/mesh/core/src/timeslot.c.obj
 *fill*         0x000000002000542a        0x6 
 .bss.s_last_rtc_value.9753
                0x0000000020005430        0x8 CMakeFiles/pb_remote_client_nrf52840_xxAA_s140_6.0.0.dir/__/__/__/mesh/core/src/timeslot.c.obj
 .bss.m_bearer_event_fifo
                0x0000000020005438       0x14 CMakeFiles/pb_remote_client_nrf52840_xxAA_s140_6.0.0.dir/__/__/__/mesh/core/src/bearer_event.c.obj
 .bss.m_bearer_event_fifo_buffer
                0x000000002000544c      0x100 CMakeFiles/pb_remote_client_nrf52840_xxAA_s140_6.0.0.dir/__/__/__/mesh/core/src/bearer_event.c.obj
 .bss.m_critical
                0x000000002000554c        0x4 CMakeFiles/pb_remote_client_nrf52840_xxAA_s140_6.0.0.dir/__/__/__/mesh/core/src/bearer_event.c.obj
 .bss.m_flag_count
                0x0000000020005550        0x4 CMakeFiles/pb_remote_client_nrf52840_xxAA_s140_6.0.0.dir/__/__/__/mesh/core/src/bearer_event.c.obj
 .bss.m_flag_event_callbacks
                0x0000000020005554       0x20 CMakeFiles/pb_remote_client_nrf52840_xxAA_s140_6.0.0.dir/__/__/__/mesh/core/src/bearer_event.c.obj
 .bss.m_flags   0x0000000020005574        0x4 CMakeFiles/pb_remote_client_nrf52840_xxAA_s140_6.0.0.dir/__/__/__/mesh/core/src/bearer_event.c.obj
 .bss.m_irq_priority
                0x0000000020005578        0x1 CMakeFiles/pb_remote_client_nrf52840_xxAA_s140_6.0.0.dir/__/__/__/mesh/core/src/bearer_event.c.obj
 *fill*         0x0000000020005579        0x3 
 .bss.m_sequential_event_queue
                0x000000002000557c        0x8 CMakeFiles/pb_remote_client_nrf52840_xxAA_s140_6.0.0.dir/__/__/__/mesh/core/src/bearer_event.c.obj
 .bss.s_recursion_guard.9884
                0x0000000020005584        0x1 CMakeFiles/pb_remote_client_nrf52840_xxAA_s140_6.0.0.dir/__/__/__/mesh/core/src/bearer_event.c.obj
 *fill*         0x0000000020005585        0x3 
 .bss.m_relay_check_cb
                0x0000000020005588        0x4 CMakeFiles/pb_remote_client_nrf52840_xxAA_s140_6.0.0.dir/__/__/__/mesh/core/src/network.c.obj
 .bss.m_relay_enable
                0x000000002000558c        0x1 CMakeFiles/pb_remote_client_nrf52840_xxAA_s140_6.0.0.dir/__/__/__/mesh/core/src/network.c.obj
 *fill*         0x000000002000558d        0x3 
 .bss.m_action_queue
                0x0000000020005590        0xc CMakeFiles/pb_remote_client_nrf52840_xxAA_s140_6.0.0.dir/__/__/__/mesh/core/src/flash_manager.c.obj
 .bss.m_action_queue_buffer
                0x000000002000559c      0x104 CMakeFiles/pb_remote_client_nrf52840_xxAA_s140_6.0.0.dir/__/__/__/mesh/core/src/flash_manager.c.obj
 .bss.m_action_state
                0x00000000200056a0        0x1 CMakeFiles/pb_remote_client_nrf52840_xxAA_s140_6.0.0.dir/__/__/__/mesh/core/src/flash_manager.c.obj
 *fill*         0x00000000200056a1        0x3 
 .bss.m_memory_listener_queue
                0x00000000200056a4        0x8 CMakeFiles/pb_remote_client_nrf52840_xxAA_s140_6.0.0.dir/__/__/__/mesh/core/src/flash_manager.c.obj
 .bss.m_processing_flag
                0x00000000200056ac        0x4 CMakeFiles/pb_remote_client_nrf52840_xxAA_s140_6.0.0.dir/__/__/__/mesh/core/src/flash_manager.c.obj
 .bss.m_queue_empty_cb
                0x00000000200056b0        0x4 CMakeFiles/pb_remote_client_nrf52840_xxAA_s140_6.0.0.dir/__/__/__/mesh/core/src/flash_manager.c.obj
 .bss.m_state   0x00000000200056b4        0x1 CMakeFiles/pb_remote_client_nrf52840_xxAA_s140_6.0.0.dir/__/__/__/mesh/core/src/flash_manager.c.obj
 *fill*         0x00000000200056b5        0x1 
 .bss.m_token   0x00000000200056b6        0x2 CMakeFiles/pb_remote_client_nrf52840_xxAA_s140_6.0.0.dir/__/__/__/mesh/core/src/flash_manager.c.obj
 .bss.p_current.11639
                0x00000000200056b8        0x4 CMakeFiles/pb_remote_client_nrf52840_xxAA_s140_6.0.0.dir/__/__/__/mesh/core/src/flash_manager.c.obj
 .bss.result.11640
                0x00000000200056bc        0x1 CMakeFiles/pb_remote_client_nrf52840_xxAA_s140_6.0.0.dir/__/__/__/mesh/core/src/flash_manager.c.obj
 .bss.m_cache_index
                0x00000000200056bd        0x1 CMakeFiles/pb_remote_client_nrf52840_xxAA_s140_6.0.0.dir/__/__/__/mesh/core/src/replay_cache.c.obj
 *fill*         0x00000000200056be        0x2 
 .bss.m_replay_cache
                0x00000000200056c0      0x200 CMakeFiles/pb_remote_client_nrf52840_xxAA_s140_6.0.0.dir/__/__/__/mesh/core/src/replay_cache.c.obj
 .bss.m_bearer_count
                0x00000000200058c0        0x1 CMakeFiles/pb_remote_client_nrf52840_xxAA_s140_6.0.0.dir/__/__/__/mesh/core/src/core_tx.c.obj
 *fill*         0x00000000200058c1        0x3 
 .bss.m_tx_complete_callback
                0x00000000200058c4        0x4 CMakeFiles/pb_remote_client_nrf52840_xxAA_s140_6.0.0.dir/__/__/__/mesh/core/src/core_tx.c.obj
 .bss.mp_bearers
                0x00000000200058c8        0x4 CMakeFiles/pb_remote_client_nrf52840_xxAA_s140_6.0.0.dir/__/__/__/mesh/core/src/core_tx.c.obj
 .bss.m_hb_core_evt_handler
                0x00000000200058cc        0x8 CMakeFiles/pb_remote_client_nrf52840_xxAA_s140_6.0.0.dir/__/__/__/mesh/core/src/heartbeat.c.obj
 .bss.m_hb_pending_feat_msg
                0x00000000200058d4        0x1 CMakeFiles/pb_remote_client_nrf52840_xxAA_s140_6.0.0.dir/__/__/__/mesh/core/src/heartbeat.c.obj
 .bss.m_hb_pending_pub_msg
                0x00000000200058d5        0x1 CMakeFiles/pb_remote_client_nrf52840_xxAA_s140_6.0.0.dir/__/__/__/mesh/core/src/heartbeat.c.obj
 .bss.m_heartbeat_init_done
                0x00000000200058d6        0x1 CMakeFiles/pb_remote_client_nrf52840_xxAA_s140_6.0.0.dir/__/__/__/mesh/core/src/heartbeat.c.obj
 *fill*         0x00000000200058d7        0x1 
 .bss.m_heartbeat_subscription
                0x00000000200058d8       0x10 CMakeFiles/pb_remote_client_nrf52840_xxAA_s140_6.0.0.dir/__/__/__/mesh/core/src/heartbeat.c.obj
 .bss.m_publication_count_decrement_cb
                0x00000000200058e8        0x4 CMakeFiles/pb_remote_client_nrf52840_xxAA_s140_6.0.0.dir/__/__/__/mesh/core/src/heartbeat.c.obj
 .bss.m_publication_get_cb
                0x00000000200058ec        0x4 CMakeFiles/pb_remote_client_nrf52840_xxAA_s140_6.0.0.dir/__/__/__/mesh/core/src/heartbeat.c.obj
 .bss.m_publication_timer
                0x00000000200058f0       0x1c CMakeFiles/pb_remote_client_nrf52840_xxAA_s140_6.0.0.dir/__/__/__/mesh/core/src/heartbeat.c.obj
 .bss.m_subscription_timer
                0x000000002000590c       0x18 CMakeFiles/pb_remote_client_nrf52840_xxAA_s140_6.0.0.dir/__/__/__/mesh/core/src/heartbeat.c.obj
 .bss.m_adv     0x0000000020005924       0x98 CMakeFiles/pb_remote_client_nrf52840_xxAA_s140_6.0.0.dir/__/__/__/mesh/core/src/net_beacon.c.obj
 .bss.m_adv_buf
                0x00000000200059bc       0x34 CMakeFiles/pb_remote_client_nrf52840_xxAA_s140_6.0.0.dir/__/__/__/mesh/core/src/net_beacon.c.obj
 .bss.m_beacon_salt
                0x00000000200059f0       0x10 CMakeFiles/pb_remote_client_nrf52840_xxAA_s140_6.0.0.dir/__/__/__/mesh/core/src/net_beacon.c.obj
 .bss.m_enabled
                0x0000000020005a00        0x1 CMakeFiles/pb_remote_client_nrf52840_xxAA_s140_6.0.0.dir/__/__/__/mesh/core/src/net_beacon.c.obj
 *fill*         0x0000000020005a01        0x3 
 .bss.m_tx_timer
                0x0000000020005a04       0x18 CMakeFiles/pb_remote_client_nrf52840_xxAA_s140_6.0.0.dir/__/__/__/mesh/core/src/net_beacon.c.obj
 .bss.mp_beacon_info
                0x0000000020005a1c        0x4 CMakeFiles/pb_remote_client_nrf52840_xxAA_s140_6.0.0.dir/__/__/__/mesh/core/src/net_beacon.c.obj
 .bss.m_bearer  0x0000000020005a20        0xc CMakeFiles/pb_remote_client_nrf52840_xxAA_s140_6.0.0.dir/__/__/__/mesh/core/src/core_tx_adv.c.obj
 .bss.m_bearer_roles
                0x0000000020005a2c      0x138 CMakeFiles/pb_remote_client_nrf52840_xxAA_s140_6.0.0.dir/__/__/__/mesh/core/src/core_tx_adv.c.obj
 .bss.m_current_alloc
                0x0000000020005b64        0x8 CMakeFiles/pb_remote_client_nrf52840_xxAA_s140_6.0.0.dir/__/__/__/mesh/core/src/core_tx_adv.c.obj
 .bss.m_originator_adv_packet_buffer
                0x0000000020005b6c      0x100 CMakeFiles/pb_remote_client_nrf52840_xxAA_s140_6.0.0.dir/__/__/__/mesh/core/src/core_tx_adv.c.obj
 .bss.m_relay_adv_packet_buffer
                0x0000000020005c6c       0x80 CMakeFiles/pb_remote_client_nrf52840_xxAA_s140_6.0.0.dir/__/__/__/mesh/core/src/core_tx_adv.c.obj
 .bss.m_subscribers
                0x0000000020005cec        0x4 CMakeFiles/pb_remote_client_nrf52840_xxAA_s140_6.0.0.dir/__/__/__/mesh/bearer/src/ad_listener.c.obj
 .bss.m_adtype_filter
                0x0000000020005cf0       0x38 CMakeFiles/pb_remote_client_nrf52840_xxAA_s140_6.0.0.dir/__/__/__/mesh/bearer/src/ad_type_filter.c.obj
 .bss.m_adv_prng
                0x0000000020005d28       0x10 CMakeFiles/pb_remote_client_nrf52840_xxAA_s140_6.0.0.dir/__/__/__/mesh/bearer/src/advertiser.c.obj
 .bss.m_action_queue
                0x0000000020005d38        0x8 CMakeFiles/pb_remote_client_nrf52840_xxAA_s140_6.0.0.dir/__/__/__/mesh/bearer/src/bearer_handler.c.obj
 .bss.m_end_time
                0x0000000020005d40        0x4 CMakeFiles/pb_remote_client_nrf52840_xxAA_s140_6.0.0.dir/__/__/__/mesh/bearer/src/bearer_handler.c.obj
 .bss.m_scanner_is_active
                0x0000000020005d44        0x1 CMakeFiles/pb_remote_client_nrf52840_xxAA_s140_6.0.0.dir/__/__/__/mesh/bearer/src/bearer_handler.c.obj
 .bss.m_stopped
                0x0000000020005d45        0x1 CMakeFiles/pb_remote_client_nrf52840_xxAA_s140_6.0.0.dir/__/__/__/mesh/bearer/src/bearer_handler.c.obj
 *fill*         0x0000000020005d46        0x2 
 .bss.mp_action
                0x0000000020005d48        0x4 CMakeFiles/pb_remote_client_nrf52840_xxAA_s140_6.0.0.dir/__/__/__/mesh/bearer/src/bearer_handler.c.obj
 .bss.m_next_channel_index
                0x0000000020005d4c        0x1 CMakeFiles/pb_remote_client_nrf52840_xxAA_s140_6.0.0.dir/__/__/__/mesh/bearer/src/broadcast.c.obj
 *fill*         0x0000000020005d4d        0x3 
 .bss.m_accepted_amount
                0x0000000020005d50        0x4 CMakeFiles/pb_remote_client_nrf52840_xxAA_s140_6.0.0.dir/__/__/__/mesh/bearer/src/filter_engine.c.obj
 .bss.m_filter_list_head
                0x0000000020005d54        0x4 CMakeFiles/pb_remote_client_nrf52840_xxAA_s140_6.0.0.dir/__/__/__/mesh/bearer/src/filter_engine.c.obj
 .bss.m_scanner
                0x0000000020005d58      0x290 CMakeFiles/pb_remote_client_nrf52840_xxAA_s140_6.0.0.dir/__/__/__/mesh/bearer/src/scanner.c.obj
 .bss._acDownBuffer
                0x0000000020005fe8       0x80 ../../../external/rtt/librtt_nrf52840_xxAA.a(SEGGER_RTT.c.obj)
 .bss._acUpBuffer
                0x0000000020006068      0x400 ../../../external/rtt/librtt_nrf52840_xxAA.a(SEGGER_RTT.c.obj)
 .bss.__malloc_free_list
                0x0000000020006468        0x4 /usr/bin/../lib/gcc/arm-none-eabi/7.2.1/../../../../arm-none-eabi/lib/thumb/v7e-m/fpv4-sp/hard/libg_nano.a(lib_a-nano-mallocr.o)
                0x0000000020006468                __malloc_free_list
 .bss.__malloc_sbrk_start
                0x000000002000646c        0x4 /usr/bin/../lib/gcc/arm-none-eabi/7.2.1/../../../../arm-none-eabi/lib/thumb/v7e-m/fpv4-sp/hard/libg_nano.a(lib_a-nano-mallocr.o)
                0x000000002000646c                __malloc_sbrk_start
 .bss.heap_end.5377
                0x0000000020006470        0x4 /usr/bin/../lib/gcc/arm-none-eabi/7.2.1/../../../../arm-none-eabi/lib/thumb/v7e-m/fpv4-sp/hard/libnosys.a(sbrk.o)
 *(COMMON)
 COMMON         0x0000000020006474        0xc CMakeFiles/pb_remote_client_nrf52840_xxAA_s140_6.0.0.dir/__/__/common/src/mesh_softdevice_init.c.obj
                0x0000000020006474                nrf_nvic_state
 COMMON         0x0000000020006480       0x24 CMakeFiles/pb_remote_client_nrf52840_xxAA_s140_6.0.0.dir/__/__/__/mesh/core/src/core_tx.c.obj
                0x0000000020006480                m_packet
 COMMON         0x00000000200064a4       0x78 ../../../external/rtt/librtt_nrf52840_xxAA.a(SEGGER_RTT.c.obj)
                0x00000000200064a4                _SEGGER_RTT
 COMMON         0x000000002000651c        0x4 /usr/bin/../lib/gcc/arm-none-eabi/7.2.1/../../../../arm-none-eabi/lib/thumb/v7e-m/fpv4-sp/hard/libg_nano.a(lib_a-reent.o)
                0x000000002000651c                errno
                0x0000000020006520                . = ALIGN (0x4)
                0x0000000020006520                __bss_end__ = .

.heap           0x0000000020006520     0x2000
                0x0000000020006520                __HeapBase = .
                0x0000000020006520                __end__ = .
                0x0000000020006520                PROVIDE (end, .)
 *(.heap*)
 .heap          0x0000000020006520     0x2000 CMakeFiles/pb_remote_client_nrf52840_xxAA_s140_6.0.0.dir/home/mazzer/work/nordic/sdk/nRF5_SDK_15.0.0/modules/nrfx/mdk/gcc_startup_nrf52840.S.obj
                0x0000000020008520                __HeapLimit = .

.stack_dummy    0x0000000020006520     0x2000
 *(.stack*)
 .stack         0x0000000020006520     0x2000 CMakeFiles/pb_remote_client_nrf52840_xxAA_s140_6.0.0.dir/home/mazzer/work/nordic/sdk/nRF5_SDK_15.0.0/modules/nrfx/mdk/gcc_startup_nrf52840.S.obj
                0x000000002003fd00                __StackTop = (ORIGIN (RAM) + LENGTH (RAM))
                0x000000002003dd00                __StackLimit = (__StackTop - SIZEOF (.stack_dummy))
                0x000000002003fd00                PROVIDE (__stack, __StackTop)
                0x0000000000000001                ASSERT ((__StackLimit >= __HeapLimit), region RAM overflowed with stack)
                0x0000000000000140                DataInitFlashUsed = (__bss_start__ - __data_start__)
                0x000000000001eba8                CodeFlashUsed = (__etext - ORIGIN (FLASH))
                0x000000000001ece8                TotalFlashUsed = (CodeFlashUsed + DataInitFlashUsed)
                0x0000000000000001                ASSERT ((TotalFlashUsed <= LENGTH (FLASH)), region FLASH overflowed with .data and user data)
OUTPUT(pb_remote_client_nrf52840_xxAA_s140_6.0.0.elf elf32-littlearm)

.ARM.attributes
                0x0000000000000000       0x30
 .ARM.attributes
                0x0000000000000000       0x22 /usr/bin/../lib/gcc/arm-none-eabi/7.2.1/thumb/v7e-m/fpv4-sp/hard/crti.o
 .ARM.attributes
                0x0000000000000022       0x34 /usr/bin/../lib/gcc/arm-none-eabi/7.2.1/thumb/v7e-m/fpv4-sp/hard/crtbegin.o
 .ARM.attributes
                0x0000000000000056       0x20 /usr/bin/../lib/gcc/arm-none-eabi/7.2.1/../../../../arm-none-eabi/lib/thumb/v7e-m/fpv4-sp/hard/crt0.o
 .ARM.attributes
                0x0000000000000076       0x39 CMakeFiles/pb_remote_client_nrf52840_xxAA_s140_6.0.0.dir/src/main.c.obj
 .ARM.attributes
                0x00000000000000af       0x39 CMakeFiles/pb_remote_client_nrf52840_xxAA_s140_6.0.0.dir/__/__/__/mesh/stack/src/mesh_stack.c.obj
 .ARM.attributes
                0x00000000000000e8       0x39 CMakeFiles/pb_remote_client_nrf52840_xxAA_s140_6.0.0.dir/__/__/common/src/mesh_softdevice_init.c.obj
 .ARM.attributes
                0x0000000000000121       0x39 CMakeFiles/pb_remote_client_nrf52840_xxAA_s140_6.0.0.dir/__/__/common/src/rtt_input.c.obj
 .ARM.attributes
                0x000000000000015a       0x39 CMakeFiles/pb_remote_client_nrf52840_xxAA_s140_6.0.0.dir/__/__/common/src/simple_hal.c.obj
 .ARM.attributes
                0x0000000000000193       0x39 CMakeFiles/pb_remote_client_nrf52840_xxAA_s140_6.0.0.dir/__/__/__/models/pb_remote/src/pb_remote_client.c.obj
 .ARM.attributes
                0x00000000000001cc       0x39 CMakeFiles/pb_remote_client_nrf52840_xxAA_s140_6.0.0.dir/__/__/__/mesh/prov/src/prov_provisioner.c.obj
 .ARM.attributes
                0x0000000000000205       0x39 CMakeFiles/pb_remote_client_nrf52840_xxAA_s140_6.0.0.dir/__/__/__/mesh/prov/src/nrf_mesh_prov.c.obj
 .ARM.attributes
                0x000000000000023e       0x39 CMakeFiles/pb_remote_client_nrf52840_xxAA_s140_6.0.0.dir/__/__/__/mesh/prov/src/provisioning.c.obj
 .ARM.attributes
                0x0000000000000277       0x39 CMakeFiles/pb_remote_client_nrf52840_xxAA_s140_6.0.0.dir/__/__/__/mesh/prov/src/prov_beacon.c.obj
 .ARM.attributes
                0x00000000000002b0       0x39 CMakeFiles/pb_remote_client_nrf52840_xxAA_s140_6.0.0.dir/__/__/__/mesh/prov/src/prov_utils.c.obj
 .ARM.attributes
                0x00000000000002e9       0x39 CMakeFiles/pb_remote_client_nrf52840_xxAA_s140_6.0.0.dir/__/__/__/mesh/prov/src/prov_bearer_adv.c.obj
 .ARM.attributes
                0x0000000000000322       0x39 CMakeFiles/pb_remote_client_nrf52840_xxAA_s140_6.0.0.dir/__/__/__/models/config/src/composition_data.c.obj
 .ARM.attributes
                0x000000000000035b       0x39 CMakeFiles/pb_remote_client_nrf52840_xxAA_s140_6.0.0.dir/__/__/__/models/config/src/config_server.c.obj
 .ARM.attributes
                0x0000000000000394       0x39 CMakeFiles/pb_remote_client_nrf52840_xxAA_s140_6.0.0.dir/__/__/__/models/config/src/packed_index_list.c.obj
 .ARM.attributes
                0x00000000000003cd       0x39 CMakeFiles/pb_remote_client_nrf52840_xxAA_s140_6.0.0.dir/__/__/__/models/health/src/health_server.c.obj
 .ARM.attributes
                0x0000000000000406       0x39 CMakeFiles/pb_remote_client_nrf52840_xxAA_s140_6.0.0.dir/__/__/__/mesh/access/src/access_publish.c.obj
 .ARM.attributes
                0x000000000000043f       0x39 CMakeFiles/pb_remote_client_nrf52840_xxAA_s140_6.0.0.dir/__/__/__/mesh/access/src/access.c.obj
 .ARM.attributes
                0x0000000000000478       0x39 CMakeFiles/pb_remote_client_nrf52840_xxAA_s140_6.0.0.dir/__/__/__/mesh/access/src/access_reliable.c.obj
 .ARM.attributes
                0x00000000000004b1       0x39 CMakeFiles/pb_remote_client_nrf52840_xxAA_s140_6.0.0.dir/__/__/__/mesh/access/src/device_state_manager.c.obj
 .ARM.attributes
                0x00000000000004ea       0x39 CMakeFiles/pb_remote_client_nrf52840_xxAA_s140_6.0.0.dir/__/__/nrf_mesh_weak.c.obj
 .ARM.attributes
                0x0000000000000523       0x39 CMakeFiles/pb_remote_client_nrf52840_xxAA_s140_6.0.0.dir/__/__/common/src/app_error_weak.c.obj
 .ARM.attributes
                0x000000000000055c       0x39 CMakeFiles/pb_remote_client_nrf52840_xxAA_s140_6.0.0.dir/__/__/common/src/assertion_handler_weak.c.obj
 .ARM.attributes
                0x0000000000000595       0x39 CMakeFiles/pb_remote_client_nrf52840_xxAA_s140_6.0.0.dir/__/__/__/mesh/core/src/nrf_mesh_configure.c.obj
 .ARM.attributes
                0x00000000000005ce       0x39 CMakeFiles/pb_remote_client_nrf52840_xxAA_s140_6.0.0.dir/__/__/__/mesh/core/src/aes.c.obj
 .ARM.attributes
                0x0000000000000607       0x39 CMakeFiles/pb_remote_client_nrf52840_xxAA_s140_6.0.0.dir/__/__/__/mesh/core/src/msg_cache.c.obj
 .ARM.attributes
                0x0000000000000640       0x39 CMakeFiles/pb_remote_client_nrf52840_xxAA_s140_6.0.0.dir/__/__/__/mesh/core/src/transport.c.obj
 .ARM.attributes
                0x0000000000000679       0x39 CMakeFiles/pb_remote_client_nrf52840_xxAA_s140_6.0.0.dir/__/__/__/mesh/core/src/event.c.obj
 .ARM.attributes
                0x00000000000006b2       0x39 CMakeFiles/pb_remote_client_nrf52840_xxAA_s140_6.0.0.dir/__/__/__/mesh/core/src/packet_buffer.c.obj
 .ARM.attributes
                0x00000000000006eb       0x39 CMakeFiles/pb_remote_client_nrf52840_xxAA_s140_6.0.0.dir/__/__/__/mesh/core/src/flash_manager_defrag.c.obj
 .ARM.attributes
                0x0000000000000724       0x39 CMakeFiles/pb_remote_client_nrf52840_xxAA_s140_6.0.0.dir/__/__/__/mesh/core/src/fifo.c.obj
 .ARM.attributes
                0x000000000000075d       0x39 CMakeFiles/pb_remote_client_nrf52840_xxAA_s140_6.0.0.dir/__/__/__/mesh/core/src/nrf_flash.c.obj
 .ARM.attributes
                0x0000000000000796       0x39 CMakeFiles/pb_remote_client_nrf52840_xxAA_s140_6.0.0.dir/__/__/__/mesh/core/src/packet_mgr.c.obj
 .ARM.attributes
                0x00000000000007cf       0x39 CMakeFiles/pb_remote_client_nrf52840_xxAA_s140_6.0.0.dir/__/__/__/mesh/core/src/net_state.c.obj
 .ARM.attributes
                0x0000000000000808       0x39 CMakeFiles/pb_remote_client_nrf52840_xxAA_s140_6.0.0.dir/__/__/__/mesh/core/src/mesh_flash.c.obj
 .ARM.attributes
                0x0000000000000841       0x39 CMakeFiles/pb_remote_client_nrf52840_xxAA_s140_6.0.0.dir/__/__/__/mesh/core/src/nrf_mesh_utils.c.obj
 .ARM.attributes
                0x000000000000087a       0x39 CMakeFiles/pb_remote_client_nrf52840_xxAA_s140_6.0.0.dir/__/__/__/mesh/core/src/nrf_mesh.c.obj
 .ARM.attributes
                0x00000000000008b3       0x39 CMakeFiles/pb_remote_client_nrf52840_xxAA_s140_6.0.0.dir/__/__/__/mesh/core/src/queue.c.obj
 .ARM.attributes
                0x00000000000008ec       0x39 CMakeFiles/pb_remote_client_nrf52840_xxAA_s140_6.0.0.dir/__/__/__/mesh/core/src/hal.c.obj
 .ARM.attributes
                0x0000000000000925       0x39 CMakeFiles/pb_remote_client_nrf52840_xxAA_s140_6.0.0.dir/__/__/__/mesh/core/src/aes_cmac.c.obj
 .ARM.attributes
                0x000000000000095e       0x39 CMakeFiles/pb_remote_client_nrf52840_xxAA_s140_6.0.0.dir/__/__/__/mesh/core/src/timer_scheduler.c.obj
 .ARM.attributes
                0x0000000000000997       0x39 CMakeFiles/pb_remote_client_nrf52840_xxAA_s140_6.0.0.dir/__/__/__/mesh/core/src/timer.c.obj
 .ARM.attributes
                0x00000000000009d0       0x39 CMakeFiles/pb_remote_client_nrf52840_xxAA_s140_6.0.0.dir/__/__/__/mesh/core/src/ticker.c.obj
 .ARM.attributes
                0x0000000000000a09       0x39 CMakeFiles/pb_remote_client_nrf52840_xxAA_s140_6.0.0.dir/__/__/__/mesh/core/src/rand.c.obj
 .ARM.attributes
                0x0000000000000a42       0x39 CMakeFiles/pb_remote_client_nrf52840_xxAA_s140_6.0.0.dir/__/__/__/mesh/core/src/nrf_mesh_opt.c.obj
 .ARM.attributes
                0x0000000000000a7b       0x39 CMakeFiles/pb_remote_client_nrf52840_xxAA_s140_6.0.0.dir/__/__/__/mesh/core/src/timeslot.c.obj
 .ARM.attributes
                0x0000000000000ab4       0x39 CMakeFiles/pb_remote_client_nrf52840_xxAA_s140_6.0.0.dir/__/__/__/mesh/core/src/bearer_event.c.obj
 .ARM.attributes
                0x0000000000000aed       0x39 CMakeFiles/pb_remote_client_nrf52840_xxAA_s140_6.0.0.dir/__/__/__/mesh/core/src/enc.c.obj
 .ARM.attributes
                0x0000000000000b26       0x39 CMakeFiles/pb_remote_client_nrf52840_xxAA_s140_6.0.0.dir/__/__/__/mesh/core/src/network.c.obj
 .ARM.attributes
                0x0000000000000b5f       0x39 CMakeFiles/pb_remote_client_nrf52840_xxAA_s140_6.0.0.dir/__/__/__/mesh/core/src/net_packet.c.obj
 .ARM.attributes
                0x0000000000000b98       0x39 CMakeFiles/pb_remote_client_nrf52840_xxAA_s140_6.0.0.dir/__/__/__/mesh/core/src/msqueue.c.obj
 .ARM.attributes
                0x0000000000000bd1       0x39 CMakeFiles/pb_remote_client_nrf52840_xxAA_s140_6.0.0.dir/__/__/__/mesh/core/src/nrf_mesh_keygen.c.obj
 .ARM.attributes
                0x0000000000000c0a       0x39 CMakeFiles/pb_remote_client_nrf52840_xxAA_s140_6.0.0.dir/__/__/__/mesh/core/src/list.c.obj
 .ARM.attributes
                0x0000000000000c43       0x39 CMakeFiles/pb_remote_client_nrf52840_xxAA_s140_6.0.0.dir/__/__/__/mesh/core/src/log.c.obj
 .ARM.attributes
                0x0000000000000c7c       0x39 CMakeFiles/pb_remote_client_nrf52840_xxAA_s140_6.0.0.dir/__/__/__/mesh/core/src/flash_manager.c.obj
 .ARM.attributes
                0x0000000000000cb5       0x39 CMakeFiles/pb_remote_client_nrf52840_xxAA_s140_6.0.0.dir/__/__/__/mesh/core/src/ccm_soft.c.obj
 .ARM.attributes
                0x0000000000000cee       0x39 CMakeFiles/pb_remote_client_nrf52840_xxAA_s140_6.0.0.dir/__/__/__/mesh/core/src/replay_cache.c.obj
 .ARM.attributes
                0x0000000000000d27       0x39 CMakeFiles/pb_remote_client_nrf52840_xxAA_s140_6.0.0.dir/__/__/__/mesh/core/src/beacon.c.obj
 .ARM.attributes
                0x0000000000000d60       0x39 CMakeFiles/pb_remote_client_nrf52840_xxAA_s140_6.0.0.dir/__/__/__/mesh/core/src/flash_manager_internal.c.obj
 .ARM.attributes
                0x0000000000000d99       0x39 CMakeFiles/pb_remote_client_nrf52840_xxAA_s140_6.0.0.dir/__/__/__/mesh/core/src/core_tx.c.obj
 .ARM.attributes
                0x0000000000000dd2       0x39 CMakeFiles/pb_remote_client_nrf52840_xxAA_s140_6.0.0.dir/__/__/__/mesh/core/src/heartbeat.c.obj
 .ARM.attributes
                0x0000000000000e0b       0x39 CMakeFiles/pb_remote_client_nrf52840_xxAA_s140_6.0.0.dir/__/__/__/mesh/core/src/net_beacon.c.obj
 .ARM.attributes
                0x0000000000000e44       0x39 CMakeFiles/pb_remote_client_nrf52840_xxAA_s140_6.0.0.dir/__/__/__/mesh/core/src/core_tx_adv.c.obj
 .ARM.attributes
                0x0000000000000e7d       0x39 CMakeFiles/pb_remote_client_nrf52840_xxAA_s140_6.0.0.dir/__/__/__/mesh/bearer/src/ad_listener.c.obj
 .ARM.attributes
                0x0000000000000eb6       0x39 CMakeFiles/pb_remote_client_nrf52840_xxAA_s140_6.0.0.dir/__/__/__/mesh/bearer/src/ad_type_filter.c.obj
 .ARM.attributes
                0x0000000000000eef       0x39 CMakeFiles/pb_remote_client_nrf52840_xxAA_s140_6.0.0.dir/__/__/__/mesh/bearer/src/advertiser.c.obj
 .ARM.attributes
                0x0000000000000f28       0x39 CMakeFiles/pb_remote_client_nrf52840_xxAA_s140_6.0.0.dir/__/__/__/mesh/bearer/src/bearer_handler.c.obj
 .ARM.attributes
                0x0000000000000f61       0x39 CMakeFiles/pb_remote_client_nrf52840_xxAA_s140_6.0.0.dir/__/__/__/mesh/bearer/src/broadcast.c.obj
 .ARM.attributes
                0x0000000000000f9a       0x39 CMakeFiles/pb_remote_client_nrf52840_xxAA_s140_6.0.0.dir/__/__/__/mesh/bearer/src/filter_engine.c.obj
 .ARM.attributes
                0x0000000000000fd3       0x39 CMakeFiles/pb_remote_client_nrf52840_xxAA_s140_6.0.0.dir/__/__/__/mesh/bearer/src/radio_config.c.obj
 .ARM.attributes
                0x000000000000100c       0x39 CMakeFiles/pb_remote_client_nrf52840_xxAA_s140_6.0.0.dir/__/__/__/mesh/bearer/src/scanner.c.obj
 .ARM.attributes
                0x0000000000001045       0x39 CMakeFiles/pb_remote_client_nrf52840_xxAA_s140_6.0.0.dir/home/mazzer/work/nordic/sdk/nRF5_SDK_15.0.0/modules/nrfx/mdk/system_nrf52840.c.obj
 .ARM.attributes
                0x000000000000107e       0x20 CMakeFiles/pb_remote_client_nrf52840_xxAA_s140_6.0.0.dir/home/mazzer/work/nordic/sdk/nRF5_SDK_15.0.0/modules/nrfx/mdk/gcc_startup_nrf52840.S.obj
 .ARM.attributes
                0x000000000000109e       0x39 CMakeFiles/pb_remote_client_nrf52840_xxAA_s140_6.0.0.dir/home/mazzer/work/nordic/sdk/nRF5_SDK_15.0.0/components/libraries/util/app_error_handler_gcc.c.obj
 .ARM.attributes
                0x00000000000010d7       0x39 ../../../external/rtt/librtt_nrf52840_xxAA.a(SEGGER_RTT.c.obj)
 .ARM.attributes
                0x0000000000001110       0x39 ../../../external/rtt/librtt_nrf52840_xxAA.a(SEGGER_RTT_printf.c.obj)
 .ARM.attributes
                0x0000000000001149       0x39 ../../../external/micro-ecc/libuECC_nrf52840_xxAA.a(uECC.c.obj)
 .ARM.attributes
                0x0000000000001182       0x22 /usr/bin/../lib/gcc/arm-none-eabi/7.2.1/thumb/v7e-m/fpv4-sp/hard/libgcc.a(_aeabi_uldivmod.o)
 .ARM.attributes
                0x00000000000011a4       0x34 /usr/bin/../lib/gcc/arm-none-eabi/7.2.1/thumb/v7e-m/fpv4-sp/hard/libgcc.a(_udivmoddi4.o)
 .ARM.attributes
                0x00000000000011d8       0x22 /usr/bin/../lib/gcc/arm-none-eabi/7.2.1/thumb/v7e-m/fpv4-sp/hard/libgcc.a(_dvmd_tls.o)
 .ARM.attributes
                0x00000000000011fa       0x34 /usr/bin/../lib/gcc/arm-none-eabi/7.2.1/../../../../arm-none-eabi/lib/thumb/v7e-m/fpv4-sp/hard/libg_nano.a(lib_a-exit.o)
 .ARM.attributes
                0x000000000000122e       0x34 /usr/bin/../lib/gcc/arm-none-eabi/7.2.1/../../../../arm-none-eabi/lib/thumb/v7e-m/fpv4-sp/hard/libg_nano.a(lib_a-impure.o)
 .ARM.attributes
                0x0000000000001262       0x34 /usr/bin/../lib/gcc/arm-none-eabi/7.2.1/../../../../arm-none-eabi/lib/thumb/v7e-m/fpv4-sp/hard/libg_nano.a(lib_a-init.o)
 .ARM.attributes
                0x0000000000001296       0x34 /usr/bin/../lib/gcc/arm-none-eabi/7.2.1/../../../../arm-none-eabi/lib/thumb/v7e-m/fpv4-sp/hard/libg_nano.a(lib_a-malloc.o)
 .ARM.attributes
                0x00000000000012ca       0x34 /usr/bin/../lib/gcc/arm-none-eabi/7.2.1/../../../../arm-none-eabi/lib/thumb/v7e-m/fpv4-sp/hard/libg_nano.a(lib_a-memcmp.o)
 .ARM.attributes
                0x00000000000012fe       0x34 /usr/bin/../lib/gcc/arm-none-eabi/7.2.1/../../../../arm-none-eabi/lib/thumb/v7e-m/fpv4-sp/hard/libg_nano.a(lib_a-memcpy-stub.o)
 .ARM.attributes
                0x0000000000001332       0x34 /usr/bin/../lib/gcc/arm-none-eabi/7.2.1/../../../../arm-none-eabi/lib/thumb/v7e-m/fpv4-sp/hard/libg_nano.a(lib_a-memset.o)
 .ARM.attributes
                0x0000000000001366       0x34 /usr/bin/../lib/gcc/arm-none-eabi/7.2.1/../../../../arm-none-eabi/lib/thumb/v7e-m/fpv4-sp/hard/libg_nano.a(lib_a-nano-freer.o)
 .ARM.attributes
                0x000000000000139a       0x34 /usr/bin/../lib/gcc/arm-none-eabi/7.2.1/../../../../arm-none-eabi/lib/thumb/v7e-m/fpv4-sp/hard/libg_nano.a(lib_a-nano-mallocr.o)
 .ARM.attributes
                0x00000000000013ce       0x34 /usr/bin/../lib/gcc/arm-none-eabi/7.2.1/../../../../arm-none-eabi/lib/thumb/v7e-m/fpv4-sp/hard/libg_nano.a(lib_a-sbrkr.o)
 .ARM.attributes
                0x0000000000001402       0x34 /usr/bin/../lib/gcc/arm-none-eabi/7.2.1/../../../../arm-none-eabi/lib/thumb/v7e-m/fpv4-sp/hard/libg_nano.a(lib_a-strcpy.o)
 .ARM.attributes
                0x0000000000001436       0x1b /usr/bin/../lib/gcc/arm-none-eabi/7.2.1/../../../../arm-none-eabi/lib/thumb/v7e-m/fpv4-sp/hard/libg_nano.a(lib_a-strlen.o)
 .ARM.attributes
                0x0000000000001451       0x34 /usr/bin/../lib/gcc/arm-none-eabi/7.2.1/../../../../arm-none-eabi/lib/thumb/v7e-m/fpv4-sp/hard/libg_nano.a(lib_a-strrchr.o)
 .ARM.attributes
                0x0000000000001485       0x34 /usr/bin/../lib/gcc/arm-none-eabi/7.2.1/../../../../arm-none-eabi/lib/thumb/v7e-m/fpv4-sp/hard/libg_nano.a(lib_a-mlock.o)
 .ARM.attributes
                0x00000000000014b9       0x34 /usr/bin/../lib/gcc/arm-none-eabi/7.2.1/../../../../arm-none-eabi/lib/thumb/v7e-m/fpv4-sp/hard/libg_nano.a(lib_a-reent.o)
 .ARM.attributes
                0x00000000000014ed       0x34 /usr/bin/../lib/gcc/arm-none-eabi/7.2.1/../../../../arm-none-eabi/lib/thumb/v7e-m/fpv4-sp/hard/libg_nano.a(lib_a-strchr.o)
 .ARM.attributes
                0x0000000000001521       0x34 /usr/bin/../lib/gcc/arm-none-eabi/7.2.1/thumb/v7e-m/fpv4-sp/hard/crtend.o
 .ARM.attributes
                0x0000000000001555       0x22 /usr/bin/../lib/gcc/arm-none-eabi/7.2.1/thumb/v7e-m/fpv4-sp/hard/crtn.o
 .ARM.attributes
                0x0000000000001577       0x34 /usr/bin/../lib/gcc/arm-none-eabi/7.2.1/../../../../arm-none-eabi/lib/thumb/v7e-m/fpv4-sp/hard/libnosys.a(sbrk.o)
 .ARM.attributes
                0x00000000000015ab       0x34 /usr/bin/../lib/gcc/arm-none-eabi/7.2.1/../../../../arm-none-eabi/lib/thumb/v7e-m/fpv4-sp/hard/libnosys.a(_exit.o)

.comment        0x0000000000000000       0x7e
 .comment       0x0000000000000000       0x7e CMakeFiles/pb_remote_client_nrf52840_xxAA_s140_6.0.0.dir/src/main.c.obj
                                         0x7f (size before relaxing)
 .comment       0x000000000000007e       0x7f CMakeFiles/pb_remote_client_nrf52840_xxAA_s140_6.0.0.dir/__/__/__/mesh/stack/src/mesh_stack.c.obj
 .comment       0x000000000000007e       0x7f CMakeFiles/pb_remote_client_nrf52840_xxAA_s140_6.0.0.dir/__/__/common/src/mesh_softdevice_init.c.obj
 .comment       0x000000000000007e       0x7f CMakeFiles/pb_remote_client_nrf52840_xxAA_s140_6.0.0.dir/__/__/common/src/rtt_input.c.obj
 .comment       0x000000000000007e       0x7f CMakeFiles/pb_remote_client_nrf52840_xxAA_s140_6.0.0.dir/__/__/common/src/simple_hal.c.obj
 .comment       0x000000000000007e       0x7f CMakeFiles/pb_remote_client_nrf52840_xxAA_s140_6.0.0.dir/__/__/__/models/pb_remote/src/pb_remote_client.c.obj
 .comment       0x000000000000007e       0x7f CMakeFiles/pb_remote_client_nrf52840_xxAA_s140_6.0.0.dir/__/__/__/mesh/prov/src/prov_provisioner.c.obj
 .comment       0x000000000000007e       0x7f CMakeFiles/pb_remote_client_nrf52840_xxAA_s140_6.0.0.dir/__/__/__/mesh/prov/src/nrf_mesh_prov.c.obj
 .comment       0x000000000000007e       0x7f CMakeFiles/pb_remote_client_nrf52840_xxAA_s140_6.0.0.dir/__/__/__/mesh/prov/src/provisioning.c.obj
 .comment       0x000000000000007e       0x7f CMakeFiles/pb_remote_client_nrf52840_xxAA_s140_6.0.0.dir/__/__/__/mesh/prov/src/prov_beacon.c.obj
 .comment       0x000000000000007e       0x7f CMakeFiles/pb_remote_client_nrf52840_xxAA_s140_6.0.0.dir/__/__/__/mesh/prov/src/prov_utils.c.obj
 .comment       0x000000000000007e       0x7f CMakeFiles/pb_remote_client_nrf52840_xxAA_s140_6.0.0.dir/__/__/__/mesh/prov/src/prov_bearer_adv.c.obj
 .comment       0x000000000000007e       0x7f CMakeFiles/pb_remote_client_nrf52840_xxAA_s140_6.0.0.dir/__/__/__/models/config/src/composition_data.c.obj
 .comment       0x000000000000007e       0x7f CMakeFiles/pb_remote_client_nrf52840_xxAA_s140_6.0.0.dir/__/__/__/models/config/src/config_server.c.obj
 .comment       0x000000000000007e       0x7f CMakeFiles/pb_remote_client_nrf52840_xxAA_s140_6.0.0.dir/__/__/__/models/config/src/packed_index_list.c.obj
 .comment       0x000000000000007e       0x7f CMakeFiles/pb_remote_client_nrf52840_xxAA_s140_6.0.0.dir/__/__/__/models/health/src/health_server.c.obj
 .comment       0x000000000000007e       0x7f CMakeFiles/pb_remote_client_nrf52840_xxAA_s140_6.0.0.dir/__/__/__/mesh/access/src/access_publish.c.obj
 .comment       0x000000000000007e       0x7f CMakeFiles/pb_remote_client_nrf52840_xxAA_s140_6.0.0.dir/__/__/__/mesh/access/src/access.c.obj
 .comment       0x000000000000007e       0x7f CMakeFiles/pb_remote_client_nrf52840_xxAA_s140_6.0.0.dir/__/__/__/mesh/access/src/access_reliable.c.obj
 .comment       0x000000000000007e       0x7f CMakeFiles/pb_remote_client_nrf52840_xxAA_s140_6.0.0.dir/__/__/__/mesh/access/src/device_state_manager.c.obj
 .comment       0x000000000000007e       0x7f CMakeFiles/pb_remote_client_nrf52840_xxAA_s140_6.0.0.dir/__/__/nrf_mesh_weak.c.obj
 .comment       0x000000000000007e       0x7f CMakeFiles/pb_remote_client_nrf52840_xxAA_s140_6.0.0.dir/__/__/common/src/app_error_weak.c.obj
 .comment       0x000000000000007e       0x7f CMakeFiles/pb_remote_client_nrf52840_xxAA_s140_6.0.0.dir/__/__/common/src/assertion_handler_weak.c.obj
 .comment       0x000000000000007e       0x7f CMakeFiles/pb_remote_client_nrf52840_xxAA_s140_6.0.0.dir/__/__/__/mesh/core/src/nrf_mesh_configure.c.obj
 .comment       0x000000000000007e       0x7f CMakeFiles/pb_remote_client_nrf52840_xxAA_s140_6.0.0.dir/__/__/__/mesh/core/src/aes.c.obj
 .comment       0x000000000000007e       0x7f CMakeFiles/pb_remote_client_nrf52840_xxAA_s140_6.0.0.dir/__/__/__/mesh/core/src/msg_cache.c.obj
 .comment       0x000000000000007e       0x7f CMakeFiles/pb_remote_client_nrf52840_xxAA_s140_6.0.0.dir/__/__/__/mesh/core/src/transport.c.obj
 .comment       0x000000000000007e       0x7f CMakeFiles/pb_remote_client_nrf52840_xxAA_s140_6.0.0.dir/__/__/__/mesh/core/src/event.c.obj
 .comment       0x000000000000007e       0x7f CMakeFiles/pb_remote_client_nrf52840_xxAA_s140_6.0.0.dir/__/__/__/mesh/core/src/packet_buffer.c.obj
 .comment       0x000000000000007e       0x7f CMakeFiles/pb_remote_client_nrf52840_xxAA_s140_6.0.0.dir/__/__/__/mesh/core/src/flash_manager_defrag.c.obj
 .comment       0x000000000000007e       0x7f CMakeFiles/pb_remote_client_nrf52840_xxAA_s140_6.0.0.dir/__/__/__/mesh/core/src/fifo.c.obj
 .comment       0x000000000000007e       0x7f CMakeFiles/pb_remote_client_nrf52840_xxAA_s140_6.0.0.dir/__/__/__/mesh/core/src/nrf_flash.c.obj
 .comment       0x000000000000007e       0x7f CMakeFiles/pb_remote_client_nrf52840_xxAA_s140_6.0.0.dir/__/__/__/mesh/core/src/packet_mgr.c.obj
 .comment       0x000000000000007e       0x7f CMakeFiles/pb_remote_client_nrf52840_xxAA_s140_6.0.0.dir/__/__/__/mesh/core/src/net_state.c.obj
 .comment       0x000000000000007e       0x7f CMakeFiles/pb_remote_client_nrf52840_xxAA_s140_6.0.0.dir/__/__/__/mesh/core/src/mesh_flash.c.obj
 .comment       0x000000000000007e       0x7f CMakeFiles/pb_remote_client_nrf52840_xxAA_s140_6.0.0.dir/__/__/__/mesh/core/src/nrf_mesh_utils.c.obj
 .comment       0x000000000000007e       0x7f CMakeFiles/pb_remote_client_nrf52840_xxAA_s140_6.0.0.dir/__/__/__/mesh/core/src/nrf_mesh.c.obj
 .comment       0x000000000000007e       0x7f CMakeFiles/pb_remote_client_nrf52840_xxAA_s140_6.0.0.dir/__/__/__/mesh/core/src/queue.c.obj
 .comment       0x000000000000007e       0x7f CMakeFiles/pb_remote_client_nrf52840_xxAA_s140_6.0.0.dir/__/__/__/mesh/core/src/hal.c.obj
 .comment       0x000000000000007e       0x7f CMakeFiles/pb_remote_client_nrf52840_xxAA_s140_6.0.0.dir/__/__/__/mesh/core/src/aes_cmac.c.obj
 .comment       0x000000000000007e       0x7f CMakeFiles/pb_remote_client_nrf52840_xxAA_s140_6.0.0.dir/__/__/__/mesh/core/src/timer_scheduler.c.obj
 .comment       0x000000000000007e       0x7f CMakeFiles/pb_remote_client_nrf52840_xxAA_s140_6.0.0.dir/__/__/__/mesh/core/src/timer.c.obj
 .comment       0x000000000000007e       0x7f CMakeFiles/pb_remote_client_nrf52840_xxAA_s140_6.0.0.dir/__/__/__/mesh/core/src/ticker.c.obj
 .comment       0x000000000000007e       0x7f CMakeFiles/pb_remote_client_nrf52840_xxAA_s140_6.0.0.dir/__/__/__/mesh/core/src/rand.c.obj
 .comment       0x000000000000007e       0x7f CMakeFiles/pb_remote_client_nrf52840_xxAA_s140_6.0.0.dir/__/__/__/mesh/core/src/nrf_mesh_opt.c.obj
 .comment       0x000000000000007e       0x7f CMakeFiles/pb_remote_client_nrf52840_xxAA_s140_6.0.0.dir/__/__/__/mesh/core/src/timeslot.c.obj
 .comment       0x000000000000007e       0x7f CMakeFiles/pb_remote_client_nrf52840_xxAA_s140_6.0.0.dir/__/__/__/mesh/core/src/bearer_event.c.obj
 .comment       0x000000000000007e       0x7f CMakeFiles/pb_remote_client_nrf52840_xxAA_s140_6.0.0.dir/__/__/__/mesh/core/src/enc.c.obj
 .comment       0x000000000000007e       0x7f CMakeFiles/pb_remote_client_nrf52840_xxAA_s140_6.0.0.dir/__/__/__/mesh/core/src/network.c.obj
 .comment       0x000000000000007e       0x7f CMakeFiles/pb_remote_client_nrf52840_xxAA_s140_6.0.0.dir/__/__/__/mesh/core/src/net_packet.c.obj
 .comment       0x000000000000007e       0x7f CMakeFiles/pb_remote_client_nrf52840_xxAA_s140_6.0.0.dir/__/__/__/mesh/core/src/msqueue.c.obj
 .comment       0x000000000000007e       0x7f CMakeFiles/pb_remote_client_nrf52840_xxAA_s140_6.0.0.dir/__/__/__/mesh/core/src/nrf_mesh_keygen.c.obj
 .comment       0x000000000000007e       0x7f CMakeFiles/pb_remote_client_nrf52840_xxAA_s140_6.0.0.dir/__/__/__/mesh/core/src/list.c.obj
 .comment       0x000000000000007e       0x7f CMakeFiles/pb_remote_client_nrf52840_xxAA_s140_6.0.0.dir/__/__/__/mesh/core/src/log.c.obj
 .comment       0x000000000000007e       0x7f CMakeFiles/pb_remote_client_nrf52840_xxAA_s140_6.0.0.dir/__/__/__/mesh/core/src/flash_manager.c.obj
 .comment       0x000000000000007e       0x7f CMakeFiles/pb_remote_client_nrf52840_xxAA_s140_6.0.0.dir/__/__/__/mesh/core/src/ccm_soft.c.obj
 .comment       0x000000000000007e       0x7f CMakeFiles/pb_remote_client_nrf52840_xxAA_s140_6.0.0.dir/__/__/__/mesh/core/src/replay_cache.c.obj
 .comment       0x000000000000007e       0x7f CMakeFiles/pb_remote_client_nrf52840_xxAA_s140_6.0.0.dir/__/__/__/mesh/core/src/beacon.c.obj
 .comment       0x000000000000007e       0x7f CMakeFiles/pb_remote_client_nrf52840_xxAA_s140_6.0.0.dir/__/__/__/mesh/core/src/flash_manager_internal.c.obj
 .comment       0x000000000000007e       0x7f CMakeFiles/pb_remote_client_nrf52840_xxAA_s140_6.0.0.dir/__/__/__/mesh/core/src/core_tx.c.obj
 .comment       0x000000000000007e       0x7f CMakeFiles/pb_remote_client_nrf52840_xxAA_s140_6.0.0.dir/__/__/__/mesh/core/src/heartbeat.c.obj
 .comment       0x000000000000007e       0x7f CMakeFiles/pb_remote_client_nrf52840_xxAA_s140_6.0.0.dir/__/__/__/mesh/core/src/net_beacon.c.obj
 .comment       0x000000000000007e       0x7f CMakeFiles/pb_remote_client_nrf52840_xxAA_s140_6.0.0.dir/__/__/__/mesh/core/src/core_tx_adv.c.obj
 .comment       0x000000000000007e       0x7f CMakeFiles/pb_remote_client_nrf52840_xxAA_s140_6.0.0.dir/__/__/__/mesh/bearer/src/ad_listener.c.obj
 .comment       0x000000000000007e       0x7f CMakeFiles/pb_remote_client_nrf52840_xxAA_s140_6.0.0.dir/__/__/__/mesh/bearer/src/ad_type_filter.c.obj
 .comment       0x000000000000007e       0x7f CMakeFiles/pb_remote_client_nrf52840_xxAA_s140_6.0.0.dir/__/__/__/mesh/bearer/src/advertiser.c.obj
 .comment       0x000000000000007e       0x7f CMakeFiles/pb_remote_client_nrf52840_xxAA_s140_6.0.0.dir/__/__/__/mesh/bearer/src/bearer_handler.c.obj
 .comment       0x000000000000007e       0x7f CMakeFiles/pb_remote_client_nrf52840_xxAA_s140_6.0.0.dir/__/__/__/mesh/bearer/src/broadcast.c.obj
 .comment       0x000000000000007e       0x7f CMakeFiles/pb_remote_client_nrf52840_xxAA_s140_6.0.0.dir/__/__/__/mesh/bearer/src/filter_engine.c.obj
 .comment       0x000000000000007e       0x7f CMakeFiles/pb_remote_client_nrf52840_xxAA_s140_6.0.0.dir/__/__/__/mesh/bearer/src/radio_config.c.obj
 .comment       0x000000000000007e       0x7f CMakeFiles/pb_remote_client_nrf52840_xxAA_s140_6.0.0.dir/__/__/__/mesh/bearer/src/scanner.c.obj
 .comment       0x000000000000007e       0x7f CMakeFiles/pb_remote_client_nrf52840_xxAA_s140_6.0.0.dir/home/mazzer/work/nordic/sdk/nRF5_SDK_15.0.0/modules/nrfx/mdk/system_nrf52840.c.obj
 .comment       0x000000000000007e       0x7f CMakeFiles/pb_remote_client_nrf52840_xxAA_s140_6.0.0.dir/home/mazzer/work/nordic/sdk/nRF5_SDK_15.0.0/components/libraries/util/app_error_handler_gcc.c.obj
 .comment       0x000000000000007e       0x7f ../../../external/rtt/librtt_nrf52840_xxAA.a(SEGGER_RTT.c.obj)
 .comment       0x000000000000007e       0x7f ../../../external/rtt/librtt_nrf52840_xxAA.a(SEGGER_RTT_printf.c.obj)
 .comment       0x000000000000007e       0x7f ../../../external/micro-ecc/libuECC_nrf52840_xxAA.a(uECC.c.obj)

.debug_info     0x0000000000000000    0x960ac
 .debug_info    0x0000000000000000     0x52ce CMakeFiles/pb_remote_client_nrf52840_xxAA_s140_6.0.0.dir/src/main.c.obj
 .debug_info    0x00000000000052ce     0x2346 CMakeFiles/pb_remote_client_nrf52840_xxAA_s140_6.0.0.dir/__/__/__/mesh/stack/src/mesh_stack.c.obj
 .debug_info    0x0000000000007614     0x17ec CMakeFiles/pb_remote_client_nrf52840_xxAA_s140_6.0.0.dir/__/__/common/src/mesh_softdevice_init.c.obj
 .debug_info    0x0000000000008e00     0x118d CMakeFiles/pb_remote_client_nrf52840_xxAA_s140_6.0.0.dir/__/__/common/src/rtt_input.c.obj
 .debug_info    0x0000000000009f8d     0x1596 CMakeFiles/pb_remote_client_nrf52840_xxAA_s140_6.0.0.dir/__/__/common/src/simple_hal.c.obj
 .debug_info    0x000000000000b523     0x4cfc CMakeFiles/pb_remote_client_nrf52840_xxAA_s140_6.0.0.dir/__/__/__/models/pb_remote/src/pb_remote_client.c.obj
 .debug_info    0x000000000001021f     0x26b6 CMakeFiles/pb_remote_client_nrf52840_xxAA_s140_6.0.0.dir/__/__/__/mesh/prov/src/prov_provisioner.c.obj
 .debug_info    0x00000000000128d5     0x1fa2 CMakeFiles/pb_remote_client_nrf52840_xxAA_s140_6.0.0.dir/__/__/__/mesh/prov/src/nrf_mesh_prov.c.obj
 .debug_info    0x0000000000014877     0x18dc CMakeFiles/pb_remote_client_nrf52840_xxAA_s140_6.0.0.dir/__/__/__/mesh/prov/src/provisioning.c.obj
 .debug_info    0x0000000000016153     0x1a93 CMakeFiles/pb_remote_client_nrf52840_xxAA_s140_6.0.0.dir/__/__/__/mesh/prov/src/prov_beacon.c.obj
 .debug_info    0x0000000000017be6     0x2108 CMakeFiles/pb_remote_client_nrf52840_xxAA_s140_6.0.0.dir/__/__/__/mesh/prov/src/prov_utils.c.obj
 .debug_info    0x0000000000019cee     0x4a03 CMakeFiles/pb_remote_client_nrf52840_xxAA_s140_6.0.0.dir/__/__/__/mesh/prov/src/prov_bearer_adv.c.obj
 .debug_info    0x000000000001e6f1      0xee0 CMakeFiles/pb_remote_client_nrf52840_xxAA_s140_6.0.0.dir/__/__/__/models/config/src/composition_data.c.obj
 .debug_info    0x000000000001f5d1     0xc315 CMakeFiles/pb_remote_client_nrf52840_xxAA_s140_6.0.0.dir/__/__/__/models/config/src/config_server.c.obj
 .debug_info    0x000000000002b8e6      0x126 CMakeFiles/pb_remote_client_nrf52840_xxAA_s140_6.0.0.dir/__/__/__/models/config/src/packed_index_list.c.obj
 .debug_info    0x000000000002ba0c     0x2e65 CMakeFiles/pb_remote_client_nrf52840_xxAA_s140_6.0.0.dir/__/__/__/models/health/src/health_server.c.obj
 .debug_info    0x000000000002e871     0x12cf CMakeFiles/pb_remote_client_nrf52840_xxAA_s140_6.0.0.dir/__/__/__/mesh/access/src/access_publish.c.obj
 .debug_info    0x000000000002fb40     0x55f3 CMakeFiles/pb_remote_client_nrf52840_xxAA_s140_6.0.0.dir/__/__/__/mesh/access/src/access.c.obj
 .debug_info    0x0000000000035133     0x1b15 CMakeFiles/pb_remote_client_nrf52840_xxAA_s140_6.0.0.dir/__/__/__/mesh/access/src/access_reliable.c.obj
 .debug_info    0x0000000000036c48     0x8b99 CMakeFiles/pb_remote_client_nrf52840_xxAA_s140_6.0.0.dir/__/__/__/mesh/access/src/device_state_manager.c.obj
 .debug_info    0x000000000003f7e1      0x91d CMakeFiles/pb_remote_client_nrf52840_xxAA_s140_6.0.0.dir/__/__/nrf_mesh_weak.c.obj
 .debug_info    0x00000000000400fe     0x1170 CMakeFiles/pb_remote_client_nrf52840_xxAA_s140_6.0.0.dir/__/__/common/src/app_error_weak.c.obj
 .debug_info    0x000000000004126e      0x994 CMakeFiles/pb_remote_client_nrf52840_xxAA_s140_6.0.0.dir/__/__/common/src/assertion_handler_weak.c.obj
 .debug_info    0x0000000000041c02      0xdf8 CMakeFiles/pb_remote_client_nrf52840_xxAA_s140_6.0.0.dir/__/__/__/mesh/core/src/nrf_mesh_configure.c.obj
 .debug_info    0x00000000000429fa      0xbea CMakeFiles/pb_remote_client_nrf52840_xxAA_s140_6.0.0.dir/__/__/__/mesh/core/src/aes.c.obj
 .debug_info    0x00000000000435e4      0xa51 CMakeFiles/pb_remote_client_nrf52840_xxAA_s140_6.0.0.dir/__/__/__/mesh/core/src/msg_cache.c.obj
 .debug_info    0x0000000000044035     0x6184 CMakeFiles/pb_remote_client_nrf52840_xxAA_s140_6.0.0.dir/__/__/__/mesh/core/src/transport.c.obj
 .debug_info    0x000000000004a1b9     0x1763 CMakeFiles/pb_remote_client_nrf52840_xxAA_s140_6.0.0.dir/__/__/__/mesh/core/src/event.c.obj
 .debug_info    0x000000000004b91c     0x1aa3 CMakeFiles/pb_remote_client_nrf52840_xxAA_s140_6.0.0.dir/__/__/__/mesh/core/src/packet_buffer.c.obj
 .debug_info    0x000000000004d3bf     0x24b1 CMakeFiles/pb_remote_client_nrf52840_xxAA_s140_6.0.0.dir/__/__/__/mesh/core/src/flash_manager_defrag.c.obj
 .debug_info    0x000000000004f870      0xd9a CMakeFiles/pb_remote_client_nrf52840_xxAA_s140_6.0.0.dir/__/__/__/mesh/core/src/fifo.c.obj
 .debug_info    0x000000000005060a      0xb70 CMakeFiles/pb_remote_client_nrf52840_xxAA_s140_6.0.0.dir/__/__/__/mesh/core/src/nrf_flash.c.obj
 .debug_info    0x000000000005117a     0x118f CMakeFiles/pb_remote_client_nrf52840_xxAA_s140_6.0.0.dir/__/__/__/mesh/core/src/packet_mgr.c.obj
 .debug_info    0x0000000000052309     0x3735 CMakeFiles/pb_remote_client_nrf52840_xxAA_s140_6.0.0.dir/__/__/__/mesh/core/src/net_state.c.obj
 .debug_info    0x0000000000055a3e     0x1be8 CMakeFiles/pb_remote_client_nrf52840_xxAA_s140_6.0.0.dir/__/__/__/mesh/core/src/mesh_flash.c.obj
 .debug_info    0x0000000000057626      0xa72 CMakeFiles/pb_remote_client_nrf52840_xxAA_s140_6.0.0.dir/__/__/__/mesh/core/src/nrf_mesh_utils.c.obj
 .debug_info    0x0000000000058098     0x2678 CMakeFiles/pb_remote_client_nrf52840_xxAA_s140_6.0.0.dir/__/__/__/mesh/core/src/nrf_mesh.c.obj
 .debug_info    0x000000000005a710      0xb10 CMakeFiles/pb_remote_client_nrf52840_xxAA_s140_6.0.0.dir/__/__/__/mesh/core/src/queue.c.obj
 .debug_info    0x000000000005b220      0x514 CMakeFiles/pb_remote_client_nrf52840_xxAA_s140_6.0.0.dir/__/__/__/mesh/core/src/hal.c.obj
 .debug_info    0x000000000005b734      0xe8f CMakeFiles/pb_remote_client_nrf52840_xxAA_s140_6.0.0.dir/__/__/__/mesh/core/src/aes_cmac.c.obj
 .debug_info    0x000000000005c5c3     0x13bd CMakeFiles/pb_remote_client_nrf52840_xxAA_s140_6.0.0.dir/__/__/__/mesh/core/src/timer_scheduler.c.obj
 .debug_info    0x000000000005d980      0xe1e CMakeFiles/pb_remote_client_nrf52840_xxAA_s140_6.0.0.dir/__/__/__/mesh/core/src/timer.c.obj
 .debug_info    0x000000000005e79e      0x20c CMakeFiles/pb_remote_client_nrf52840_xxAA_s140_6.0.0.dir/__/__/__/mesh/core/src/ticker.c.obj
 .debug_info    0x000000000005e9aa      0x4d4 CMakeFiles/pb_remote_client_nrf52840_xxAA_s140_6.0.0.dir/__/__/__/mesh/core/src/rand.c.obj
 .debug_info    0x000000000005ee7e      0xaef CMakeFiles/pb_remote_client_nrf52840_xxAA_s140_6.0.0.dir/__/__/__/mesh/core/src/nrf_mesh_opt.c.obj
 .debug_info    0x000000000005f96d     0x1c1b CMakeFiles/pb_remote_client_nrf52840_xxAA_s140_6.0.0.dir/__/__/__/mesh/core/src/timeslot.c.obj
 .debug_info    0x0000000000061588     0x1c9f CMakeFiles/pb_remote_client_nrf52840_xxAA_s140_6.0.0.dir/__/__/__/mesh/core/src/bearer_event.c.obj
 .debug_info    0x0000000000063227     0x181f CMakeFiles/pb_remote_client_nrf52840_xxAA_s140_6.0.0.dir/__/__/__/mesh/core/src/enc.c.obj
 .debug_info    0x0000000000064a46     0x1cc0 CMakeFiles/pb_remote_client_nrf52840_xxAA_s140_6.0.0.dir/__/__/__/mesh/core/src/network.c.obj
 .debug_info    0x0000000000066706     0x1de3 CMakeFiles/pb_remote_client_nrf52840_xxAA_s140_6.0.0.dir/__/__/__/mesh/core/src/net_packet.c.obj
 .debug_info    0x00000000000684e9      0xe51 CMakeFiles/pb_remote_client_nrf52840_xxAA_s140_6.0.0.dir/__/__/__/mesh/core/src/msqueue.c.obj
 .debug_info    0x000000000006933a      0x4c0 CMakeFiles/pb_remote_client_nrf52840_xxAA_s140_6.0.0.dir/__/__/__/mesh/core/src/nrf_mesh_keygen.c.obj
 .debug_info    0x00000000000697fa      0x573 CMakeFiles/pb_remote_client_nrf52840_xxAA_s140_6.0.0.dir/__/__/__/mesh/core/src/list.c.obj
 .debug_info    0x0000000000069d6d      0xe8b CMakeFiles/pb_remote_client_nrf52840_xxAA_s140_6.0.0.dir/__/__/__/mesh/core/src/log.c.obj
 .debug_info    0x000000000006abf8     0x3cc6 CMakeFiles/pb_remote_client_nrf52840_xxAA_s140_6.0.0.dir/__/__/__/mesh/core/src/flash_manager.c.obj
 .debug_info    0x000000000006e8be     0x120f CMakeFiles/pb_remote_client_nrf52840_xxAA_s140_6.0.0.dir/__/__/__/mesh/core/src/ccm_soft.c.obj
 .debug_info    0x000000000006facd      0xa87 CMakeFiles/pb_remote_client_nrf52840_xxAA_s140_6.0.0.dir/__/__/__/mesh/core/src/replay_cache.c.obj
 .debug_info    0x0000000000070554     0x17c2 CMakeFiles/pb_remote_client_nrf52840_xxAA_s140_6.0.0.dir/__/__/__/mesh/core/src/beacon.c.obj
 .debug_info    0x0000000000071d16      0xb98 CMakeFiles/pb_remote_client_nrf52840_xxAA_s140_6.0.0.dir/__/__/__/mesh/core/src/flash_manager_internal.c.obj
 .debug_info    0x00000000000728ae     0x1264 CMakeFiles/pb_remote_client_nrf52840_xxAA_s140_6.0.0.dir/__/__/__/mesh/core/src/core_tx.c.obj
 .debug_info    0x0000000000073b12     0x24e7 CMakeFiles/pb_remote_client_nrf52840_xxAA_s140_6.0.0.dir/__/__/__/mesh/core/src/heartbeat.c.obj
 .debug_info    0x0000000000075ff9     0x2a3c CMakeFiles/pb_remote_client_nrf52840_xxAA_s140_6.0.0.dir/__/__/__/mesh/core/src/net_beacon.c.obj
 .debug_info    0x0000000000078a35     0x197e CMakeFiles/pb_remote_client_nrf52840_xxAA_s140_6.0.0.dir/__/__/__/mesh/core/src/core_tx_adv.c.obj
 .debug_info    0x000000000007a3b3     0x116a CMakeFiles/pb_remote_client_nrf52840_xxAA_s140_6.0.0.dir/__/__/__/mesh/bearer/src/ad_listener.c.obj
 .debug_info    0x000000000007b51d      0xfc4 CMakeFiles/pb_remote_client_nrf52840_xxAA_s140_6.0.0.dir/__/__/__/mesh/bearer/src/ad_type_filter.c.obj
 .debug_info    0x000000000007c4e1     0x2af6 CMakeFiles/pb_remote_client_nrf52840_xxAA_s140_6.0.0.dir/__/__/__/mesh/bearer/src/advertiser.c.obj
 .debug_info    0x000000000007efd7     0x1bad CMakeFiles/pb_remote_client_nrf52840_xxAA_s140_6.0.0.dir/__/__/__/mesh/bearer/src/bearer_handler.c.obj
 .debug_info    0x0000000000080b84     0x1af7 CMakeFiles/pb_remote_client_nrf52840_xxAA_s140_6.0.0.dir/__/__/__/mesh/bearer/src/broadcast.c.obj
 .debug_info    0x000000000008267b      0xd3e CMakeFiles/pb_remote_client_nrf52840_xxAA_s140_6.0.0.dir/__/__/__/mesh/bearer/src/filter_engine.c.obj
 .debug_info    0x00000000000833b9      0xa28 CMakeFiles/pb_remote_client_nrf52840_xxAA_s140_6.0.0.dir/__/__/__/mesh/bearer/src/radio_config.c.obj
 .debug_info    0x0000000000083de1     0x2df8 CMakeFiles/pb_remote_client_nrf52840_xxAA_s140_6.0.0.dir/__/__/__/mesh/bearer/src/scanner.c.obj
 .debug_info    0x0000000000086bd9     0x137d CMakeFiles/pb_remote_client_nrf52840_xxAA_s140_6.0.0.dir/home/mazzer/work/nordic/sdk/nRF5_SDK_15.0.0/modules/nrfx/mdk/system_nrf52840.c.obj
 .debug_info    0x0000000000087f56       0x26 CMakeFiles/pb_remote_client_nrf52840_xxAA_s140_6.0.0.dir/home/mazzer/work/nordic/sdk/nRF5_SDK_15.0.0/modules/nrfx/mdk/gcc_startup_nrf52840.S.obj
 .debug_info    0x0000000000087f7c      0x96d CMakeFiles/pb_remote_client_nrf52840_xxAA_s140_6.0.0.dir/home/mazzer/work/nordic/sdk/nRF5_SDK_15.0.0/components/libraries/util/app_error_handler_gcc.c.obj
 .debug_info    0x00000000000888e9     0x2b01 ../../../external/rtt/librtt_nrf52840_xxAA.a(SEGGER_RTT.c.obj)
 .debug_info    0x000000000008b3ea     0x11e1 ../../../external/rtt/librtt_nrf52840_xxAA.a(SEGGER_RTT_printf.c.obj)
 .debug_info    0x000000000008c5cb     0x9ae1 ../../../external/micro-ecc/libuECC_nrf52840_xxAA.a(uECC.c.obj)

.debug_abbrev   0x0000000000000000    0x10eb1
 .debug_abbrev  0x0000000000000000      0x5dd CMakeFiles/pb_remote_client_nrf52840_xxAA_s140_6.0.0.dir/src/main.c.obj
 .debug_abbrev  0x00000000000005dd      0x3b3 CMakeFiles/pb_remote_client_nrf52840_xxAA_s140_6.0.0.dir/__/__/__/mesh/stack/src/mesh_stack.c.obj
 .debug_abbrev  0x0000000000000990      0x408 CMakeFiles/pb_remote_client_nrf52840_xxAA_s140_6.0.0.dir/__/__/common/src/mesh_softdevice_init.c.obj
 .debug_abbrev  0x0000000000000d98      0x2ba CMakeFiles/pb_remote_client_nrf52840_xxAA_s140_6.0.0.dir/__/__/common/src/rtt_input.c.obj
 .debug_abbrev  0x0000000000001052      0x372 CMakeFiles/pb_remote_client_nrf52840_xxAA_s140_6.0.0.dir/__/__/common/src/simple_hal.c.obj
 .debug_abbrev  0x00000000000013c4      0x4df CMakeFiles/pb_remote_client_nrf52840_xxAA_s140_6.0.0.dir/__/__/__/models/pb_remote/src/pb_remote_client.c.obj
 .debug_abbrev  0x00000000000018a3      0x404 CMakeFiles/pb_remote_client_nrf52840_xxAA_s140_6.0.0.dir/__/__/__/mesh/prov/src/prov_provisioner.c.obj
 .debug_abbrev  0x0000000000001ca7      0x450 CMakeFiles/pb_remote_client_nrf52840_xxAA_s140_6.0.0.dir/__/__/__/mesh/prov/src/nrf_mesh_prov.c.obj
 .debug_abbrev  0x00000000000020f7      0x2e6 CMakeFiles/pb_remote_client_nrf52840_xxAA_s140_6.0.0.dir/__/__/__/mesh/prov/src/provisioning.c.obj
 .debug_abbrev  0x00000000000023dd      0x2fc CMakeFiles/pb_remote_client_nrf52840_xxAA_s140_6.0.0.dir/__/__/__/mesh/prov/src/prov_beacon.c.obj
 .debug_abbrev  0x00000000000026d9      0x3f3 CMakeFiles/pb_remote_client_nrf52840_xxAA_s140_6.0.0.dir/__/__/__/mesh/prov/src/prov_utils.c.obj
 .debug_abbrev  0x0000000000002acc      0x55d CMakeFiles/pb_remote_client_nrf52840_xxAA_s140_6.0.0.dir/__/__/__/mesh/prov/src/prov_bearer_adv.c.obj
 .debug_abbrev  0x0000000000003029      0x2e4 CMakeFiles/pb_remote_client_nrf52840_xxAA_s140_6.0.0.dir/__/__/__/models/config/src/composition_data.c.obj
 .debug_abbrev  0x000000000000330d      0x56c CMakeFiles/pb_remote_client_nrf52840_xxAA_s140_6.0.0.dir/__/__/__/models/config/src/config_server.c.obj
 .debug_abbrev  0x0000000000003879       0x95 CMakeFiles/pb_remote_client_nrf52840_xxAA_s140_6.0.0.dir/__/__/__/models/config/src/packed_index_list.c.obj
 .debug_abbrev  0x000000000000390e      0x505 CMakeFiles/pb_remote_client_nrf52840_xxAA_s140_6.0.0.dir/__/__/__/models/health/src/health_server.c.obj
 .debug_abbrev  0x0000000000003e13      0x423 CMakeFiles/pb_remote_client_nrf52840_xxAA_s140_6.0.0.dir/__/__/__/mesh/access/src/access_publish.c.obj
 .debug_abbrev  0x0000000000004236      0x66d CMakeFiles/pb_remote_client_nrf52840_xxAA_s140_6.0.0.dir/__/__/__/mesh/access/src/access.c.obj
 .debug_abbrev  0x00000000000048a3      0x448 CMakeFiles/pb_remote_client_nrf52840_xxAA_s140_6.0.0.dir/__/__/__/mesh/access/src/access_reliable.c.obj
 .debug_abbrev  0x0000000000004ceb      0x5a8 CMakeFiles/pb_remote_client_nrf52840_xxAA_s140_6.0.0.dir/__/__/__/mesh/access/src/device_state_manager.c.obj
 .debug_abbrev  0x0000000000005293      0x1ae CMakeFiles/pb_remote_client_nrf52840_xxAA_s140_6.0.0.dir/__/__/nrf_mesh_weak.c.obj
 .debug_abbrev  0x0000000000005441      0x2d5 CMakeFiles/pb_remote_client_nrf52840_xxAA_s140_6.0.0.dir/__/__/common/src/app_error_weak.c.obj
 .debug_abbrev  0x0000000000005716      0x1f6 CMakeFiles/pb_remote_client_nrf52840_xxAA_s140_6.0.0.dir/__/__/common/src/assertion_handler_weak.c.obj
 .debug_abbrev  0x000000000000590c      0x254 CMakeFiles/pb_remote_client_nrf52840_xxAA_s140_6.0.0.dir/__/__/__/mesh/core/src/nrf_mesh_configure.c.obj
 .debug_abbrev  0x0000000000005b60      0x266 CMakeFiles/pb_remote_client_nrf52840_xxAA_s140_6.0.0.dir/__/__/__/mesh/core/src/aes.c.obj
 .debug_abbrev  0x0000000000005dc6      0x24e CMakeFiles/pb_remote_client_nrf52840_xxAA_s140_6.0.0.dir/__/__/__/mesh/core/src/msg_cache.c.obj
 .debug_abbrev  0x0000000000006014      0x5f7 CMakeFiles/pb_remote_client_nrf52840_xxAA_s140_6.0.0.dir/__/__/__/mesh/core/src/transport.c.obj
 .debug_abbrev  0x000000000000660b      0x2d2 CMakeFiles/pb_remote_client_nrf52840_xxAA_s140_6.0.0.dir/__/__/__/mesh/core/src/event.c.obj
 .debug_abbrev  0x00000000000068dd      0x455 CMakeFiles/pb_remote_client_nrf52840_xxAA_s140_6.0.0.dir/__/__/__/mesh/core/src/packet_buffer.c.obj
 .debug_abbrev  0x0000000000006d32      0x526 CMakeFiles/pb_remote_client_nrf52840_xxAA_s140_6.0.0.dir/__/__/__/mesh/core/src/flash_manager_defrag.c.obj
 .debug_abbrev  0x0000000000007258      0x2fc CMakeFiles/pb_remote_client_nrf52840_xxAA_s140_6.0.0.dir/__/__/__/mesh/core/src/fifo.c.obj
 .debug_abbrev  0x0000000000007554      0x22d CMakeFiles/pb_remote_client_nrf52840_xxAA_s140_6.0.0.dir/__/__/__/mesh/core/src/nrf_flash.c.obj
 .debug_abbrev  0x0000000000007781      0x3bf CMakeFiles/pb_remote_client_nrf52840_xxAA_s140_6.0.0.dir/__/__/__/mesh/core/src/packet_mgr.c.obj
 .debug_abbrev  0x0000000000007b40      0x5a6 CMakeFiles/pb_remote_client_nrf52840_xxAA_s140_6.0.0.dir/__/__/__/mesh/core/src/net_state.c.obj
 .debug_abbrev  0x00000000000080e6      0x467 CMakeFiles/pb_remote_client_nrf52840_xxAA_s140_6.0.0.dir/__/__/__/mesh/core/src/mesh_flash.c.obj
 .debug_abbrev  0x000000000000854d      0x244 CMakeFiles/pb_remote_client_nrf52840_xxAA_s140_6.0.0.dir/__/__/__/mesh/core/src/nrf_mesh_utils.c.obj
 .debug_abbrev  0x0000000000008791      0x47a CMakeFiles/pb_remote_client_nrf52840_xxAA_s140_6.0.0.dir/__/__/__/mesh/core/src/nrf_mesh.c.obj
 .debug_abbrev  0x0000000000008c0b      0x247 CMakeFiles/pb_remote_client_nrf52840_xxAA_s140_6.0.0.dir/__/__/__/mesh/core/src/queue.c.obj
 .debug_abbrev  0x0000000000008e52      0x1d1 CMakeFiles/pb_remote_client_nrf52840_xxAA_s140_6.0.0.dir/__/__/__/mesh/core/src/hal.c.obj
 .debug_abbrev  0x0000000000009023      0x2e3 CMakeFiles/pb_remote_client_nrf52840_xxAA_s140_6.0.0.dir/__/__/__/mesh/core/src/aes_cmac.c.obj
 .debug_abbrev  0x0000000000009306      0x3f7 CMakeFiles/pb_remote_client_nrf52840_xxAA_s140_6.0.0.dir/__/__/__/mesh/core/src/timer_scheduler.c.obj
 .debug_abbrev  0x00000000000096fd      0x378 CMakeFiles/pb_remote_client_nrf52840_xxAA_s140_6.0.0.dir/__/__/__/mesh/core/src/timer.c.obj
 .debug_abbrev  0x0000000000009a75      0x154 CMakeFiles/pb_remote_client_nrf52840_xxAA_s140_6.0.0.dir/__/__/__/mesh/core/src/ticker.c.obj
 .debug_abbrev  0x0000000000009bc9      0x22e CMakeFiles/pb_remote_client_nrf52840_xxAA_s140_6.0.0.dir/__/__/__/mesh/core/src/rand.c.obj
 .debug_abbrev  0x0000000000009df7      0x24c CMakeFiles/pb_remote_client_nrf52840_xxAA_s140_6.0.0.dir/__/__/__/mesh/core/src/nrf_mesh_opt.c.obj
 .debug_abbrev  0x000000000000a043      0x4e5 CMakeFiles/pb_remote_client_nrf52840_xxAA_s140_6.0.0.dir/__/__/__/mesh/core/src/timeslot.c.obj
 .debug_abbrev  0x000000000000a528      0x4f9 CMakeFiles/pb_remote_client_nrf52840_xxAA_s140_6.0.0.dir/__/__/__/mesh/core/src/bearer_event.c.obj
 .debug_abbrev  0x000000000000aa21      0x39b CMakeFiles/pb_remote_client_nrf52840_xxAA_s140_6.0.0.dir/__/__/__/mesh/core/src/enc.c.obj
 .debug_abbrev  0x000000000000adbc      0x4e2 CMakeFiles/pb_remote_client_nrf52840_xxAA_s140_6.0.0.dir/__/__/__/mesh/core/src/network.c.obj
 .debug_abbrev  0x000000000000b29e      0x4a1 CMakeFiles/pb_remote_client_nrf52840_xxAA_s140_6.0.0.dir/__/__/__/mesh/core/src/net_packet.c.obj
 .debug_abbrev  0x000000000000b73f      0x2e9 CMakeFiles/pb_remote_client_nrf52840_xxAA_s140_6.0.0.dir/__/__/__/mesh/core/src/msqueue.c.obj
 .debug_abbrev  0x000000000000ba28      0x156 CMakeFiles/pb_remote_client_nrf52840_xxAA_s140_6.0.0.dir/__/__/__/mesh/core/src/nrf_mesh_keygen.c.obj
 .debug_abbrev  0x000000000000bb7e      0x1ec CMakeFiles/pb_remote_client_nrf52840_xxAA_s140_6.0.0.dir/__/__/__/mesh/core/src/list.c.obj
 .debug_abbrev  0x000000000000bd6a      0x2b4 CMakeFiles/pb_remote_client_nrf52840_xxAA_s140_6.0.0.dir/__/__/__/mesh/core/src/log.c.obj
 .debug_abbrev  0x000000000000c01e      0x538 CMakeFiles/pb_remote_client_nrf52840_xxAA_s140_6.0.0.dir/__/__/__/mesh/core/src/flash_manager.c.obj
 .debug_abbrev  0x000000000000c556      0x2f5 CMakeFiles/pb_remote_client_nrf52840_xxAA_s140_6.0.0.dir/__/__/__/mesh/core/src/ccm_soft.c.obj
 .debug_abbrev  0x000000000000c84b      0x29b CMakeFiles/pb_remote_client_nrf52840_xxAA_s140_6.0.0.dir/__/__/__/mesh/core/src/replay_cache.c.obj
 .debug_abbrev  0x000000000000cae6      0x310 CMakeFiles/pb_remote_client_nrf52840_xxAA_s140_6.0.0.dir/__/__/__/mesh/core/src/beacon.c.obj
 .debug_abbrev  0x000000000000cdf6      0x2a4 CMakeFiles/pb_remote_client_nrf52840_xxAA_s140_6.0.0.dir/__/__/__/mesh/core/src/flash_manager_internal.c.obj
 .debug_abbrev  0x000000000000d09a      0x2fc CMakeFiles/pb_remote_client_nrf52840_xxAA_s140_6.0.0.dir/__/__/__/mesh/core/src/core_tx.c.obj
 .debug_abbrev  0x000000000000d396      0x4e3 CMakeFiles/pb_remote_client_nrf52840_xxAA_s140_6.0.0.dir/__/__/__/mesh/core/src/heartbeat.c.obj
 .debug_abbrev  0x000000000000d879      0x512 CMakeFiles/pb_remote_client_nrf52840_xxAA_s140_6.0.0.dir/__/__/__/mesh/core/src/net_beacon.c.obj
 .debug_abbrev  0x000000000000dd8b      0x330 CMakeFiles/pb_remote_client_nrf52840_xxAA_s140_6.0.0.dir/__/__/__/mesh/core/src/core_tx_adv.c.obj
 .debug_abbrev  0x000000000000e0bb      0x340 CMakeFiles/pb_remote_client_nrf52840_xxAA_s140_6.0.0.dir/__/__/__/mesh/bearer/src/ad_listener.c.obj
 .debug_abbrev  0x000000000000e3fb      0x375 CMakeFiles/pb_remote_client_nrf52840_xxAA_s140_6.0.0.dir/__/__/__/mesh/bearer/src/ad_type_filter.c.obj
 .debug_abbrev  0x000000000000e770      0x56a CMakeFiles/pb_remote_client_nrf52840_xxAA_s140_6.0.0.dir/__/__/__/mesh/bearer/src/advertiser.c.obj
 .debug_abbrev  0x000000000000ecda      0x3fa CMakeFiles/pb_remote_client_nrf52840_xxAA_s140_6.0.0.dir/__/__/__/mesh/bearer/src/bearer_handler.c.obj
 .debug_abbrev  0x000000000000f0d4      0x3eb CMakeFiles/pb_remote_client_nrf52840_xxAA_s140_6.0.0.dir/__/__/__/mesh/bearer/src/broadcast.c.obj
 .debug_abbrev  0x000000000000f4bf      0x2af CMakeFiles/pb_remote_client_nrf52840_xxAA_s140_6.0.0.dir/__/__/__/mesh/bearer/src/filter_engine.c.obj
 .debug_abbrev  0x000000000000f76e      0x1e4 CMakeFiles/pb_remote_client_nrf52840_xxAA_s140_6.0.0.dir/__/__/__/mesh/bearer/src/radio_config.c.obj
 .debug_abbrev  0x000000000000f952      0x59f CMakeFiles/pb_remote_client_nrf52840_xxAA_s140_6.0.0.dir/__/__/__/mesh/bearer/src/scanner.c.obj
 .debug_abbrev  0x000000000000fef1      0x1e8 CMakeFiles/pb_remote_client_nrf52840_xxAA_s140_6.0.0.dir/home/mazzer/work/nordic/sdk/nRF5_SDK_15.0.0/modules/nrfx/mdk/system_nrf52840.c.obj
 .debug_abbrev  0x00000000000100d9       0x14 CMakeFiles/pb_remote_client_nrf52840_xxAA_s140_6.0.0.dir/home/mazzer/work/nordic/sdk/nRF5_SDK_15.0.0/modules/nrfx/mdk/gcc_startup_nrf52840.S.obj
 .debug_abbrev  0x00000000000100ed      0x1bd CMakeFiles/pb_remote_client_nrf52840_xxAA_s140_6.0.0.dir/home/mazzer/work/nordic/sdk/nRF5_SDK_15.0.0/components/libraries/util/app_error_handler_gcc.c.obj
 .debug_abbrev  0x00000000000102aa      0x3d2 ../../../external/rtt/librtt_nrf52840_xxAA.a(SEGGER_RTT.c.obj)
 .debug_abbrev  0x000000000001067c      0x353 ../../../external/rtt/librtt_nrf52840_xxAA.a(SEGGER_RTT_printf.c.obj)
 .debug_abbrev  0x00000000000109cf      0x4e2 ../../../external/micro-ecc/libuECC_nrf52840_xxAA.a(uECC.c.obj)

.debug_loc      0x0000000000000000    0x4801c
 .debug_loc     0x0000000000000000      0xa89 CMakeFiles/pb_remote_client_nrf52840_xxAA_s140_6.0.0.dir/src/main.c.obj
 .debug_loc     0x0000000000000a89      0x1a3 CMakeFiles/pb_remote_client_nrf52840_xxAA_s140_6.0.0.dir/__/__/__/mesh/stack/src/mesh_stack.c.obj
 .debug_loc     0x0000000000000c2c      0x1bb CMakeFiles/pb_remote_client_nrf52840_xxAA_s140_6.0.0.dir/__/__/common/src/mesh_softdevice_init.c.obj
 .debug_loc     0x0000000000000de7       0xbf CMakeFiles/pb_remote_client_nrf52840_xxAA_s140_6.0.0.dir/__/__/common/src/rtt_input.c.obj
 .debug_loc     0x0000000000000ea6      0x29c CMakeFiles/pb_remote_client_nrf52840_xxAA_s140_6.0.0.dir/__/__/common/src/simple_hal.c.obj
 .debug_loc     0x0000000000001142     0x2059 CMakeFiles/pb_remote_client_nrf52840_xxAA_s140_6.0.0.dir/__/__/__/models/pb_remote/src/pb_remote_client.c.obj
 .debug_loc     0x000000000000319b      0x919 CMakeFiles/pb_remote_client_nrf52840_xxAA_s140_6.0.0.dir/__/__/__/mesh/prov/src/prov_provisioner.c.obj
 .debug_loc     0x0000000000003ab4      0xaf3 CMakeFiles/pb_remote_client_nrf52840_xxAA_s140_6.0.0.dir/__/__/__/mesh/prov/src/nrf_mesh_prov.c.obj
 .debug_loc     0x00000000000045a7      0xc0a CMakeFiles/pb_remote_client_nrf52840_xxAA_s140_6.0.0.dir/__/__/__/mesh/prov/src/provisioning.c.obj
 .debug_loc     0x00000000000051b1      0x255 CMakeFiles/pb_remote_client_nrf52840_xxAA_s140_6.0.0.dir/__/__/__/mesh/prov/src/prov_beacon.c.obj
 .debug_loc     0x0000000000005406      0x492 CMakeFiles/pb_remote_client_nrf52840_xxAA_s140_6.0.0.dir/__/__/__/mesh/prov/src/prov_utils.c.obj
 .debug_loc     0x0000000000005898     0x2722 CMakeFiles/pb_remote_client_nrf52840_xxAA_s140_6.0.0.dir/__/__/__/mesh/prov/src/prov_bearer_adv.c.obj
 .debug_loc     0x0000000000007fba      0x33c CMakeFiles/pb_remote_client_nrf52840_xxAA_s140_6.0.0.dir/__/__/__/models/config/src/composition_data.c.obj
 .debug_loc     0x00000000000082f6     0xa3f5 CMakeFiles/pb_remote_client_nrf52840_xxAA_s140_6.0.0.dir/__/__/__/models/config/src/config_server.c.obj
 .debug_loc     0x00000000000126eb       0xa8 CMakeFiles/pb_remote_client_nrf52840_xxAA_s140_6.0.0.dir/__/__/__/models/config/src/packed_index_list.c.obj
 .debug_loc     0x0000000000012793     0x3724 CMakeFiles/pb_remote_client_nrf52840_xxAA_s140_6.0.0.dir/__/__/__/models/health/src/health_server.c.obj
 .debug_loc     0x0000000000015eb7      0x939 CMakeFiles/pb_remote_client_nrf52840_xxAA_s140_6.0.0.dir/__/__/__/mesh/access/src/access_publish.c.obj
 .debug_loc     0x00000000000167f0     0x39f9 CMakeFiles/pb_remote_client_nrf52840_xxAA_s140_6.0.0.dir/__/__/__/mesh/access/src/access.c.obj
 .debug_loc     0x000000000001a1e9      0xd3a CMakeFiles/pb_remote_client_nrf52840_xxAA_s140_6.0.0.dir/__/__/__/mesh/access/src/access_reliable.c.obj
 .debug_loc     0x000000000001af23     0x6b88 CMakeFiles/pb_remote_client_nrf52840_xxAA_s140_6.0.0.dir/__/__/__/mesh/access/src/device_state_manager.c.obj
 .debug_loc     0x0000000000021aab      0x1c6 CMakeFiles/pb_remote_client_nrf52840_xxAA_s140_6.0.0.dir/__/__/common/src/app_error_weak.c.obj
 .debug_loc     0x0000000000021c71       0x2c CMakeFiles/pb_remote_client_nrf52840_xxAA_s140_6.0.0.dir/__/__/common/src/assertion_handler_weak.c.obj
 .debug_loc     0x0000000000021c9d       0x2c CMakeFiles/pb_remote_client_nrf52840_xxAA_s140_6.0.0.dir/__/__/__/mesh/core/src/nrf_mesh_configure.c.obj
 .debug_loc     0x0000000000021cc9       0x89 CMakeFiles/pb_remote_client_nrf52840_xxAA_s140_6.0.0.dir/__/__/__/mesh/core/src/aes.c.obj
 .debug_loc     0x0000000000021d52       0xab CMakeFiles/pb_remote_client_nrf52840_xxAA_s140_6.0.0.dir/__/__/__/mesh/core/src/msg_cache.c.obj
 .debug_loc     0x0000000000021dfd     0x41e3 CMakeFiles/pb_remote_client_nrf52840_xxAA_s140_6.0.0.dir/__/__/__/mesh/core/src/transport.c.obj
 .debug_loc     0x0000000000025fe0      0x169 CMakeFiles/pb_remote_client_nrf52840_xxAA_s140_6.0.0.dir/__/__/__/mesh/core/src/event.c.obj
 .debug_loc     0x0000000000026149      0xcfb CMakeFiles/pb_remote_client_nrf52840_xxAA_s140_6.0.0.dir/__/__/__/mesh/core/src/packet_buffer.c.obj
 .debug_loc     0x0000000000026e44      0xbd0 CMakeFiles/pb_remote_client_nrf52840_xxAA_s140_6.0.0.dir/__/__/__/mesh/core/src/flash_manager_defrag.c.obj
 .debug_loc     0x0000000000027a14      0x86b CMakeFiles/pb_remote_client_nrf52840_xxAA_s140_6.0.0.dir/__/__/__/mesh/core/src/fifo.c.obj
 .debug_loc     0x000000000002827f      0x194 CMakeFiles/pb_remote_client_nrf52840_xxAA_s140_6.0.0.dir/__/__/__/mesh/core/src/nrf_flash.c.obj
 .debug_loc     0x0000000000028413      0x788 CMakeFiles/pb_remote_client_nrf52840_xxAA_s140_6.0.0.dir/__/__/__/mesh/core/src/packet_mgr.c.obj
 .debug_loc     0x0000000000028b9b      0xfdf CMakeFiles/pb_remote_client_nrf52840_xxAA_s140_6.0.0.dir/__/__/__/mesh/core/src/net_state.c.obj
 .debug_loc     0x0000000000029b7a      0xfd3 CMakeFiles/pb_remote_client_nrf52840_xxAA_s140_6.0.0.dir/__/__/__/mesh/core/src/mesh_flash.c.obj
 .debug_loc     0x000000000002ab4d      0x185 CMakeFiles/pb_remote_client_nrf52840_xxAA_s140_6.0.0.dir/__/__/__/mesh/core/src/nrf_mesh_utils.c.obj
 .debug_loc     0x000000000002acd2      0x6be CMakeFiles/pb_remote_client_nrf52840_xxAA_s140_6.0.0.dir/__/__/__/mesh/core/src/nrf_mesh.c.obj
 .debug_loc     0x000000000002b390      0x186 CMakeFiles/pb_remote_client_nrf52840_xxAA_s140_6.0.0.dir/__/__/__/mesh/core/src/queue.c.obj
 .debug_loc     0x000000000002b516       0x63 CMakeFiles/pb_remote_client_nrf52840_xxAA_s140_6.0.0.dir/__/__/__/mesh/core/src/hal.c.obj
 .debug_loc     0x000000000002b579      0xb75 CMakeFiles/pb_remote_client_nrf52840_xxAA_s140_6.0.0.dir/__/__/__/mesh/core/src/aes_cmac.c.obj
 .debug_loc     0x000000000002c0ee      0x5b7 CMakeFiles/pb_remote_client_nrf52840_xxAA_s140_6.0.0.dir/__/__/__/mesh/core/src/timer_scheduler.c.obj
 .debug_loc     0x000000000002c6a5      0x608 CMakeFiles/pb_remote_client_nrf52840_xxAA_s140_6.0.0.dir/__/__/__/mesh/core/src/timer.c.obj
 .debug_loc     0x000000000002ccad      0x1c5 CMakeFiles/pb_remote_client_nrf52840_xxAA_s140_6.0.0.dir/__/__/__/mesh/core/src/rand.c.obj
 .debug_loc     0x000000000002ce72      0x194 CMakeFiles/pb_remote_client_nrf52840_xxAA_s140_6.0.0.dir/__/__/__/mesh/core/src/nrf_mesh_opt.c.obj
 .debug_loc     0x000000000002d006      0x4f1 CMakeFiles/pb_remote_client_nrf52840_xxAA_s140_6.0.0.dir/__/__/__/mesh/core/src/timeslot.c.obj
 .debug_loc     0x000000000002d4f7      0x86e CMakeFiles/pb_remote_client_nrf52840_xxAA_s140_6.0.0.dir/__/__/__/mesh/core/src/bearer_event.c.obj
 .debug_loc     0x000000000002dd65      0xb0d CMakeFiles/pb_remote_client_nrf52840_xxAA_s140_6.0.0.dir/__/__/__/mesh/core/src/enc.c.obj
 .debug_loc     0x000000000002e872      0x864 CMakeFiles/pb_remote_client_nrf52840_xxAA_s140_6.0.0.dir/__/__/__/mesh/core/src/network.c.obj
 .debug_loc     0x000000000002f0d6      0x978 CMakeFiles/pb_remote_client_nrf52840_xxAA_s140_6.0.0.dir/__/__/__/mesh/core/src/net_packet.c.obj
 .debug_loc     0x000000000002fa4e      0x438 CMakeFiles/pb_remote_client_nrf52840_xxAA_s140_6.0.0.dir/__/__/__/mesh/core/src/msqueue.c.obj
 .debug_loc     0x000000000002fe86      0x210 CMakeFiles/pb_remote_client_nrf52840_xxAA_s140_6.0.0.dir/__/__/__/mesh/core/src/nrf_mesh_keygen.c.obj
 .debug_loc     0x0000000000030096      0x565 CMakeFiles/pb_remote_client_nrf52840_xxAA_s140_6.0.0.dir/__/__/__/mesh/core/src/list.c.obj
 .debug_loc     0x00000000000305fb      0x3dd CMakeFiles/pb_remote_client_nrf52840_xxAA_s140_6.0.0.dir/__/__/__/mesh/core/src/log.c.obj
 .debug_loc     0x00000000000309d8     0x21f7 CMakeFiles/pb_remote_client_nrf52840_xxAA_s140_6.0.0.dir/__/__/__/mesh/core/src/flash_manager.c.obj
 .debug_loc     0x0000000000032bcf      0xb6e CMakeFiles/pb_remote_client_nrf52840_xxAA_s140_6.0.0.dir/__/__/__/mesh/core/src/ccm_soft.c.obj
 .debug_loc     0x000000000003373d      0x16c CMakeFiles/pb_remote_client_nrf52840_xxAA_s140_6.0.0.dir/__/__/__/mesh/core/src/replay_cache.c.obj
 .debug_loc     0x00000000000338a9      0x416 CMakeFiles/pb_remote_client_nrf52840_xxAA_s140_6.0.0.dir/__/__/__/mesh/core/src/beacon.c.obj
 .debug_loc     0x0000000000033cbf      0x12d CMakeFiles/pb_remote_client_nrf52840_xxAA_s140_6.0.0.dir/__/__/__/mesh/core/src/flash_manager_internal.c.obj
 .debug_loc     0x0000000000033dec      0x4d1 CMakeFiles/pb_remote_client_nrf52840_xxAA_s140_6.0.0.dir/__/__/__/mesh/core/src/core_tx.c.obj
 .debug_loc     0x00000000000342bd      0x6c5 CMakeFiles/pb_remote_client_nrf52840_xxAA_s140_6.0.0.dir/__/__/__/mesh/core/src/heartbeat.c.obj
 .debug_loc     0x0000000000034982      0x6e9 CMakeFiles/pb_remote_client_nrf52840_xxAA_s140_6.0.0.dir/__/__/__/mesh/core/src/net_beacon.c.obj
 .debug_loc     0x000000000003506b      0x3d3 CMakeFiles/pb_remote_client_nrf52840_xxAA_s140_6.0.0.dir/__/__/__/mesh/core/src/core_tx_adv.c.obj
 .debug_loc     0x000000000003543e      0x45f CMakeFiles/pb_remote_client_nrf52840_xxAA_s140_6.0.0.dir/__/__/__/mesh/bearer/src/ad_listener.c.obj
 .debug_loc     0x000000000003589d      0x321 CMakeFiles/pb_remote_client_nrf52840_xxAA_s140_6.0.0.dir/__/__/__/mesh/bearer/src/ad_type_filter.c.obj
 .debug_loc     0x0000000000035bbe     0x12af CMakeFiles/pb_remote_client_nrf52840_xxAA_s140_6.0.0.dir/__/__/__/mesh/bearer/src/advertiser.c.obj
 .debug_loc     0x0000000000036e6d      0x394 CMakeFiles/pb_remote_client_nrf52840_xxAA_s140_6.0.0.dir/__/__/__/mesh/bearer/src/bearer_handler.c.obj
 .debug_loc     0x0000000000037201      0x30e CMakeFiles/pb_remote_client_nrf52840_xxAA_s140_6.0.0.dir/__/__/__/mesh/bearer/src/broadcast.c.obj
 .debug_loc     0x000000000003750f      0x179 CMakeFiles/pb_remote_client_nrf52840_xxAA_s140_6.0.0.dir/__/__/__/mesh/bearer/src/filter_engine.c.obj
 .debug_loc     0x0000000000037688      0x239 CMakeFiles/pb_remote_client_nrf52840_xxAA_s140_6.0.0.dir/__/__/__/mesh/bearer/src/radio_config.c.obj
 .debug_loc     0x00000000000378c1      0x899 CMakeFiles/pb_remote_client_nrf52840_xxAA_s140_6.0.0.dir/__/__/__/mesh/bearer/src/scanner.c.obj
 .debug_loc     0x000000000003815a       0x63 CMakeFiles/pb_remote_client_nrf52840_xxAA_s140_6.0.0.dir/home/mazzer/work/nordic/sdk/nRF5_SDK_15.0.0/components/libraries/util/app_error_handler_gcc.c.obj
 .debug_loc     0x00000000000381bd     0x3e95 ../../../external/rtt/librtt_nrf52840_xxAA.a(SEGGER_RTT.c.obj)
 .debug_loc     0x000000000003c052      0xec5 ../../../external/rtt/librtt_nrf52840_xxAA.a(SEGGER_RTT_printf.c.obj)
 .debug_loc     0x000000000003cf17     0xb105 ../../../external/micro-ecc/libuECC_nrf52840_xxAA.a(uECC.c.obj)

.debug_aranges  0x0000000000000000     0x1e98
 .debug_aranges
                0x0000000000000000       0x48 CMakeFiles/pb_remote_client_nrf52840_xxAA_s140_6.0.0.dir/src/main.c.obj
 .debug_aranges
                0x0000000000000048       0x50 CMakeFiles/pb_remote_client_nrf52840_xxAA_s140_6.0.0.dir/__/__/__/mesh/stack/src/mesh_stack.c.obj
 .debug_aranges
                0x0000000000000098       0x40 CMakeFiles/pb_remote_client_nrf52840_xxAA_s140_6.0.0.dir/__/__/common/src/mesh_softdevice_init.c.obj
 .debug_aranges
                0x00000000000000d8       0x30 CMakeFiles/pb_remote_client_nrf52840_xxAA_s140_6.0.0.dir/__/__/common/src/rtt_input.c.obj
 .debug_aranges
                0x0000000000000108       0x50 CMakeFiles/pb_remote_client_nrf52840_xxAA_s140_6.0.0.dir/__/__/common/src/simple_hal.c.obj
 .debug_aranges
                0x0000000000000158       0xd8 CMakeFiles/pb_remote_client_nrf52840_xxAA_s140_6.0.0.dir/__/__/__/models/pb_remote/src/pb_remote_client.c.obj
 .debug_aranges
                0x0000000000000230       0x68 CMakeFiles/pb_remote_client_nrf52840_xxAA_s140_6.0.0.dir/__/__/__/mesh/prov/src/prov_provisioner.c.obj
 .debug_aranges
                0x0000000000000298       0x80 CMakeFiles/pb_remote_client_nrf52840_xxAA_s140_6.0.0.dir/__/__/__/mesh/prov/src/nrf_mesh_prov.c.obj
 .debug_aranges
                0x0000000000000318       0x78 CMakeFiles/pb_remote_client_nrf52840_xxAA_s140_6.0.0.dir/__/__/__/mesh/prov/src/provisioning.c.obj
 .debug_aranges
                0x0000000000000390       0x38 CMakeFiles/pb_remote_client_nrf52840_xxAA_s140_6.0.0.dir/__/__/__/mesh/prov/src/prov_beacon.c.obj
 .debug_aranges
                0x00000000000003c8       0x60 CMakeFiles/pb_remote_client_nrf52840_xxAA_s140_6.0.0.dir/__/__/__/mesh/prov/src/prov_utils.c.obj
 .debug_aranges
                0x0000000000000428       0xa0 CMakeFiles/pb_remote_client_nrf52840_xxAA_s140_6.0.0.dir/__/__/__/mesh/prov/src/prov_bearer_adv.c.obj
 .debug_aranges
                0x00000000000004c8       0x20 CMakeFiles/pb_remote_client_nrf52840_xxAA_s140_6.0.0.dir/__/__/__/models/config/src/composition_data.c.obj
 .debug_aranges
                0x00000000000004e8      0x1b0 CMakeFiles/pb_remote_client_nrf52840_xxAA_s140_6.0.0.dir/__/__/__/models/config/src/config_server.c.obj
 .debug_aranges
                0x0000000000000698       0x20 CMakeFiles/pb_remote_client_nrf52840_xxAA_s140_6.0.0.dir/__/__/__/models/config/src/packed_index_list.c.obj
 .debug_aranges
                0x00000000000006b8       0xa0 CMakeFiles/pb_remote_client_nrf52840_xxAA_s140_6.0.0.dir/__/__/__/models/health/src/health_server.c.obj
 .debug_aranges
                0x0000000000000758       0x40 CMakeFiles/pb_remote_client_nrf52840_xxAA_s140_6.0.0.dir/__/__/__/mesh/access/src/access_publish.c.obj
 .debug_aranges
                0x0000000000000798      0x180 CMakeFiles/pb_remote_client_nrf52840_xxAA_s140_6.0.0.dir/__/__/__/mesh/access/src/access.c.obj
 .debug_aranges
                0x0000000000000918       0x50 CMakeFiles/pb_remote_client_nrf52840_xxAA_s140_6.0.0.dir/__/__/__/mesh/access/src/access_reliable.c.obj
 .debug_aranges
                0x0000000000000968      0x250 CMakeFiles/pb_remote_client_nrf52840_xxAA_s140_6.0.0.dir/__/__/__/mesh/access/src/device_state_manager.c.obj
 .debug_aranges
                0x0000000000000bb8       0x28 CMakeFiles/pb_remote_client_nrf52840_xxAA_s140_6.0.0.dir/__/__/nrf_mesh_weak.c.obj
 .debug_aranges
                0x0000000000000be0       0x20 CMakeFiles/pb_remote_client_nrf52840_xxAA_s140_6.0.0.dir/__/__/common/src/app_error_weak.c.obj
 .debug_aranges
                0x0000000000000c00       0x20 CMakeFiles/pb_remote_client_nrf52840_xxAA_s140_6.0.0.dir/__/__/common/src/assertion_handler_weak.c.obj
 .debug_aranges
                0x0000000000000c20       0x30 CMakeFiles/pb_remote_client_nrf52840_xxAA_s140_6.0.0.dir/__/__/__/mesh/core/src/nrf_mesh_configure.c.obj
 .debug_aranges
                0x0000000000000c50       0x28 CMakeFiles/pb_remote_client_nrf52840_xxAA_s140_6.0.0.dir/__/__/__/mesh/core/src/aes.c.obj
 .debug_aranges
                0x0000000000000c78       0x38 CMakeFiles/pb_remote_client_nrf52840_xxAA_s140_6.0.0.dir/__/__/__/mesh/core/src/msg_cache.c.obj
 .debug_aranges
                0x0000000000000cb0       0xc0 CMakeFiles/pb_remote_client_nrf52840_xxAA_s140_6.0.0.dir/__/__/__/mesh/core/src/transport.c.obj
 .debug_aranges
                0x0000000000000d70       0x30 CMakeFiles/pb_remote_client_nrf52840_xxAA_s140_6.0.0.dir/__/__/__/mesh/core/src/event.c.obj
 .debug_aranges
                0x0000000000000da0       0x60 CMakeFiles/pb_remote_client_nrf52840_xxAA_s140_6.0.0.dir/__/__/__/mesh/core/src/packet_buffer.c.obj
 .debug_aranges
                0x0000000000000e00       0xa0 CMakeFiles/pb_remote_client_nrf52840_xxAA_s140_6.0.0.dir/__/__/__/mesh/core/src/flash_manager_defrag.c.obj
 .debug_aranges
                0x0000000000000ea0       0x60 CMakeFiles/pb_remote_client_nrf52840_xxAA_s140_6.0.0.dir/__/__/__/mesh/core/src/fifo.c.obj
 .debug_aranges
                0x0000000000000f00       0x28 CMakeFiles/pb_remote_client_nrf52840_xxAA_s140_6.0.0.dir/__/__/__/mesh/core/src/nrf_flash.c.obj
 .debug_aranges
                0x0000000000000f28       0x48 CMakeFiles/pb_remote_client_nrf52840_xxAA_s140_6.0.0.dir/__/__/__/mesh/core/src/packet_mgr.c.obj
 .debug_aranges
                0x0000000000000f70       0xd0 CMakeFiles/pb_remote_client_nrf52840_xxAA_s140_6.0.0.dir/__/__/__/mesh/core/src/net_state.c.obj
 .debug_aranges
                0x0000000000001040       0x58 CMakeFiles/pb_remote_client_nrf52840_xxAA_s140_6.0.0.dir/__/__/__/mesh/core/src/mesh_flash.c.obj
 .debug_aranges
                0x0000000000001098       0x30 CMakeFiles/pb_remote_client_nrf52840_xxAA_s140_6.0.0.dir/__/__/__/mesh/core/src/nrf_mesh_utils.c.obj
 .debug_aranges
                0x00000000000010c8       0x90 CMakeFiles/pb_remote_client_nrf52840_xxAA_s140_6.0.0.dir/__/__/__/mesh/core/src/nrf_mesh.c.obj
 .debug_aranges
                0x0000000000001158       0x38 CMakeFiles/pb_remote_client_nrf52840_xxAA_s140_6.0.0.dir/__/__/__/mesh/core/src/queue.c.obj
 .debug_aranges
                0x0000000000001190       0x30 CMakeFiles/pb_remote_client_nrf52840_xxAA_s140_6.0.0.dir/__/__/__/mesh/core/src/hal.c.obj
 .debug_aranges
                0x00000000000011c0       0x28 CMakeFiles/pb_remote_client_nrf52840_xxAA_s140_6.0.0.dir/__/__/__/mesh/core/src/aes_cmac.c.obj
 .debug_aranges
                0x00000000000011e8       0x50 CMakeFiles/pb_remote_client_nrf52840_xxAA_s140_6.0.0.dir/__/__/__/mesh/core/src/timer_scheduler.c.obj
 .debug_aranges
                0x0000000000001238       0x58 CMakeFiles/pb_remote_client_nrf52840_xxAA_s140_6.0.0.dir/__/__/__/mesh/core/src/timer.c.obj
 .debug_aranges
                0x0000000000001290       0x30 CMakeFiles/pb_remote_client_nrf52840_xxAA_s140_6.0.0.dir/__/__/__/mesh/core/src/ticker.c.obj
 .debug_aranges
                0x00000000000012c0       0x40 CMakeFiles/pb_remote_client_nrf52840_xxAA_s140_6.0.0.dir/__/__/__/mesh/core/src/rand.c.obj
 .debug_aranges
                0x0000000000001300       0x28 CMakeFiles/pb_remote_client_nrf52840_xxAA_s140_6.0.0.dir/__/__/__/mesh/core/src/nrf_mesh_opt.c.obj
 .debug_aranges
                0x0000000000001328       0xa8 CMakeFiles/pb_remote_client_nrf52840_xxAA_s140_6.0.0.dir/__/__/__/mesh/core/src/timeslot.c.obj
 .debug_aranges
                0x00000000000013d0       0x88 CMakeFiles/pb_remote_client_nrf52840_xxAA_s140_6.0.0.dir/__/__/__/mesh/core/src/bearer_event.c.obj
 .debug_aranges
                0x0000000000001458       0x70 CMakeFiles/pb_remote_client_nrf52840_xxAA_s140_6.0.0.dir/__/__/__/mesh/core/src/enc.c.obj
 .debug_aranges
                0x00000000000014c8       0x50 CMakeFiles/pb_remote_client_nrf52840_xxAA_s140_6.0.0.dir/__/__/__/mesh/core/src/network.c.obj
 .debug_aranges
                0x0000000000001518       0x58 CMakeFiles/pb_remote_client_nrf52840_xxAA_s140_6.0.0.dir/__/__/__/mesh/core/src/net_packet.c.obj
 .debug_aranges
                0x0000000000001570       0x40 CMakeFiles/pb_remote_client_nrf52840_xxAA_s140_6.0.0.dir/__/__/__/mesh/core/src/msqueue.c.obj
 .debug_aranges
                0x00000000000015b0       0x40 CMakeFiles/pb_remote_client_nrf52840_xxAA_s140_6.0.0.dir/__/__/__/mesh/core/src/nrf_mesh_keygen.c.obj
 .debug_aranges
                0x00000000000015f0       0x40 CMakeFiles/pb_remote_client_nrf52840_xxAA_s140_6.0.0.dir/__/__/__/mesh/core/src/list.c.obj
 .debug_aranges
                0x0000000000001630       0x48 CMakeFiles/pb_remote_client_nrf52840_xxAA_s140_6.0.0.dir/__/__/__/mesh/core/src/log.c.obj
 .debug_aranges
                0x0000000000001678       0xa0 CMakeFiles/pb_remote_client_nrf52840_xxAA_s140_6.0.0.dir/__/__/__/mesh/core/src/flash_manager.c.obj
 .debug_aranges
                0x0000000000001718       0x38 CMakeFiles/pb_remote_client_nrf52840_xxAA_s140_6.0.0.dir/__/__/__/mesh/core/src/ccm_soft.c.obj
 .debug_aranges
                0x0000000000001750       0x38 CMakeFiles/pb_remote_client_nrf52840_xxAA_s140_6.0.0.dir/__/__/__/mesh/core/src/replay_cache.c.obj
 .debug_aranges
                0x0000000000001788       0x28 CMakeFiles/pb_remote_client_nrf52840_xxAA_s140_6.0.0.dir/__/__/__/mesh/core/src/beacon.c.obj
 .debug_aranges
                0x00000000000017b0       0x20 CMakeFiles/pb_remote_client_nrf52840_xxAA_s140_6.0.0.dir/__/__/__/mesh/core/src/flash_manager_internal.c.obj
 .debug_aranges
                0x00000000000017d0       0x58 CMakeFiles/pb_remote_client_nrf52840_xxAA_s140_6.0.0.dir/__/__/__/mesh/core/src/core_tx.c.obj
 .debug_aranges
                0x0000000000001828       0x70 CMakeFiles/pb_remote_client_nrf52840_xxAA_s140_6.0.0.dir/__/__/__/mesh/core/src/heartbeat.c.obj
 .debug_aranges
                0x0000000000001898       0x58 CMakeFiles/pb_remote_client_nrf52840_xxAA_s140_6.0.0.dir/__/__/__/mesh/core/src/net_beacon.c.obj
 .debug_aranges
                0x00000000000018f0       0x68 CMakeFiles/pb_remote_client_nrf52840_xxAA_s140_6.0.0.dir/__/__/__/mesh/core/src/core_tx_adv.c.obj
 .debug_aranges
                0x0000000000001958       0x30 CMakeFiles/pb_remote_client_nrf52840_xxAA_s140_6.0.0.dir/__/__/__/mesh/bearer/src/ad_listener.c.obj
 .debug_aranges
                0x0000000000001988       0x58 CMakeFiles/pb_remote_client_nrf52840_xxAA_s140_6.0.0.dir/__/__/__/mesh/bearer/src/ad_type_filter.c.obj
 .debug_aranges
                0x00000000000019e0       0xa0 CMakeFiles/pb_remote_client_nrf52840_xxAA_s140_6.0.0.dir/__/__/__/mesh/bearer/src/advertiser.c.obj
 .debug_aranges
                0x0000000000001a80       0x70 CMakeFiles/pb_remote_client_nrf52840_xxAA_s140_6.0.0.dir/__/__/__/mesh/bearer/src/bearer_handler.c.obj
 .debug_aranges
                0x0000000000001af0       0x30 CMakeFiles/pb_remote_client_nrf52840_xxAA_s140_6.0.0.dir/__/__/__/mesh/bearer/src/broadcast.c.obj
 .debug_aranges
                0x0000000000001b20       0x38 CMakeFiles/pb_remote_client_nrf52840_xxAA_s140_6.0.0.dir/__/__/__/mesh/bearer/src/filter_engine.c.obj
 .debug_aranges
                0x0000000000001b58       0x40 CMakeFiles/pb_remote_client_nrf52840_xxAA_s140_6.0.0.dir/__/__/__/mesh/bearer/src/radio_config.c.obj
 .debug_aranges
                0x0000000000001b98       0xb8 CMakeFiles/pb_remote_client_nrf52840_xxAA_s140_6.0.0.dir/__/__/__/mesh/bearer/src/scanner.c.obj
 .debug_aranges
                0x0000000000001c50       0x28 CMakeFiles/pb_remote_client_nrf52840_xxAA_s140_6.0.0.dir/home/mazzer/work/nordic/sdk/nRF5_SDK_15.0.0/modules/nrfx/mdk/system_nrf52840.c.obj
 .debug_aranges
                0x0000000000001c78       0x20 CMakeFiles/pb_remote_client_nrf52840_xxAA_s140_6.0.0.dir/home/mazzer/work/nordic/sdk/nRF5_SDK_15.0.0/modules/nrfx/mdk/gcc_startup_nrf52840.S.obj
 .debug_aranges
                0x0000000000001c98       0x20 CMakeFiles/pb_remote_client_nrf52840_xxAA_s140_6.0.0.dir/home/mazzer/work/nordic/sdk/nRF5_SDK_15.0.0/components/libraries/util/app_error_handler_gcc.c.obj
 .debug_aranges
                0x0000000000001cb8       0xb0 ../../../external/rtt/librtt_nrf52840_xxAA.a(SEGGER_RTT.c.obj)
 .debug_aranges
                0x0000000000001d68       0x30 ../../../external/rtt/librtt_nrf52840_xxAA.a(SEGGER_RTT_printf.c.obj)
 .debug_aranges
                0x0000000000001d98      0x100 ../../../external/micro-ecc/libuECC_nrf52840_xxAA.a(uECC.c.obj)

.debug_ranges   0x0000000000000000     0xd5e8
 .debug_ranges  0x0000000000000000      0x5b8 CMakeFiles/pb_remote_client_nrf52840_xxAA_s140_6.0.0.dir/src/main.c.obj
 .debug_ranges  0x00000000000005b8       0x88 CMakeFiles/pb_remote_client_nrf52840_xxAA_s140_6.0.0.dir/__/__/__/mesh/stack/src/mesh_stack.c.obj
 .debug_ranges  0x0000000000000640       0xe8 CMakeFiles/pb_remote_client_nrf52840_xxAA_s140_6.0.0.dir/__/__/common/src/mesh_softdevice_init.c.obj
 .debug_ranges  0x0000000000000728       0x78 CMakeFiles/pb_remote_client_nrf52840_xxAA_s140_6.0.0.dir/__/__/common/src/rtt_input.c.obj
 .debug_ranges  0x00000000000007a0       0xc0 CMakeFiles/pb_remote_client_nrf52840_xxAA_s140_6.0.0.dir/__/__/common/src/simple_hal.c.obj
 .debug_ranges  0x0000000000000860      0x6a8 CMakeFiles/pb_remote_client_nrf52840_xxAA_s140_6.0.0.dir/__/__/__/models/pb_remote/src/pb_remote_client.c.obj
 .debug_ranges  0x0000000000000f08      0x108 CMakeFiles/pb_remote_client_nrf52840_xxAA_s140_6.0.0.dir/__/__/__/mesh/prov/src/prov_provisioner.c.obj
 .debug_ranges  0x0000000000001010      0x140 CMakeFiles/pb_remote_client_nrf52840_xxAA_s140_6.0.0.dir/__/__/__/mesh/prov/src/nrf_mesh_prov.c.obj
 .debug_ranges  0x0000000000001150      0x170 CMakeFiles/pb_remote_client_nrf52840_xxAA_s140_6.0.0.dir/__/__/__/mesh/prov/src/provisioning.c.obj
 .debug_ranges  0x00000000000012c0       0x40 CMakeFiles/pb_remote_client_nrf52840_xxAA_s140_6.0.0.dir/__/__/__/mesh/prov/src/prov_beacon.c.obj
 .debug_ranges  0x0000000000001300       0x88 CMakeFiles/pb_remote_client_nrf52840_xxAA_s140_6.0.0.dir/__/__/__/mesh/prov/src/prov_utils.c.obj
 .debug_ranges  0x0000000000001388      0x9c8 CMakeFiles/pb_remote_client_nrf52840_xxAA_s140_6.0.0.dir/__/__/__/mesh/prov/src/prov_bearer_adv.c.obj
 .debug_ranges  0x0000000000001d50       0xa8 CMakeFiles/pb_remote_client_nrf52840_xxAA_s140_6.0.0.dir/__/__/__/models/config/src/composition_data.c.obj
 .debug_ranges  0x0000000000001df8     0x15c8 CMakeFiles/pb_remote_client_nrf52840_xxAA_s140_6.0.0.dir/__/__/__/models/config/src/config_server.c.obj
 .debug_ranges  0x00000000000033c0       0x10 CMakeFiles/pb_remote_client_nrf52840_xxAA_s140_6.0.0.dir/__/__/__/models/config/src/packed_index_list.c.obj
 .debug_ranges  0x00000000000033d0      0x6c8 CMakeFiles/pb_remote_client_nrf52840_xxAA_s140_6.0.0.dir/__/__/__/models/health/src/health_server.c.obj
 .debug_ranges  0x0000000000003a98      0x318 CMakeFiles/pb_remote_client_nrf52840_xxAA_s140_6.0.0.dir/__/__/__/mesh/access/src/access_publish.c.obj
 .debug_ranges  0x0000000000003db0      0xc80 CMakeFiles/pb_remote_client_nrf52840_xxAA_s140_6.0.0.dir/__/__/__/mesh/access/src/access.c.obj
 .debug_ranges  0x0000000000004a30      0x260 CMakeFiles/pb_remote_client_nrf52840_xxAA_s140_6.0.0.dir/__/__/__/mesh/access/src/access_reliable.c.obj
 .debug_ranges  0x0000000000004c90     0x1870 CMakeFiles/pb_remote_client_nrf52840_xxAA_s140_6.0.0.dir/__/__/__/mesh/access/src/device_state_manager.c.obj
 .debug_ranges  0x0000000000006500       0x18 CMakeFiles/pb_remote_client_nrf52840_xxAA_s140_6.0.0.dir/__/__/nrf_mesh_weak.c.obj
 .debug_ranges  0x0000000000006518       0xc8 CMakeFiles/pb_remote_client_nrf52840_xxAA_s140_6.0.0.dir/__/__/common/src/app_error_weak.c.obj
 .debug_ranges  0x00000000000065e0       0x10 CMakeFiles/pb_remote_client_nrf52840_xxAA_s140_6.0.0.dir/__/__/common/src/assertion_handler_weak.c.obj
 .debug_ranges  0x00000000000065f0       0x20 CMakeFiles/pb_remote_client_nrf52840_xxAA_s140_6.0.0.dir/__/__/__/mesh/core/src/nrf_mesh_configure.c.obj
 .debug_ranges  0x0000000000006610       0x18 CMakeFiles/pb_remote_client_nrf52840_xxAA_s140_6.0.0.dir/__/__/__/mesh/core/src/aes.c.obj
 .debug_ranges  0x0000000000006628       0x40 CMakeFiles/pb_remote_client_nrf52840_xxAA_s140_6.0.0.dir/__/__/__/mesh/core/src/msg_cache.c.obj
 .debug_ranges  0x0000000000006668      0xf08 CMakeFiles/pb_remote_client_nrf52840_xxAA_s140_6.0.0.dir/__/__/__/mesh/core/src/transport.c.obj
 .debug_ranges  0x0000000000007570       0x20 CMakeFiles/pb_remote_client_nrf52840_xxAA_s140_6.0.0.dir/__/__/__/mesh/core/src/event.c.obj
 .debug_ranges  0x0000000000007590      0x118 CMakeFiles/pb_remote_client_nrf52840_xxAA_s140_6.0.0.dir/__/__/__/mesh/core/src/packet_buffer.c.obj
 .debug_ranges  0x00000000000076a8      0x4c8 CMakeFiles/pb_remote_client_nrf52840_xxAA_s140_6.0.0.dir/__/__/__/mesh/core/src/flash_manager_defrag.c.obj
 .debug_ranges  0x0000000000007b70       0xc0 CMakeFiles/pb_remote_client_nrf52840_xxAA_s140_6.0.0.dir/__/__/__/mesh/core/src/fifo.c.obj
 .debug_ranges  0x0000000000007c30       0x30 CMakeFiles/pb_remote_client_nrf52840_xxAA_s140_6.0.0.dir/__/__/__/mesh/core/src/nrf_flash.c.obj
 .debug_ranges  0x0000000000007c60       0xe8 CMakeFiles/pb_remote_client_nrf52840_xxAA_s140_6.0.0.dir/__/__/__/mesh/core/src/packet_mgr.c.obj
 .debug_ranges  0x0000000000007d48      0x868 CMakeFiles/pb_remote_client_nrf52840_xxAA_s140_6.0.0.dir/__/__/__/mesh/core/src/net_state.c.obj
 .debug_ranges  0x00000000000085b0      0x300 CMakeFiles/pb_remote_client_nrf52840_xxAA_s140_6.0.0.dir/__/__/__/mesh/core/src/mesh_flash.c.obj
 .debug_ranges  0x00000000000088b0       0x20 CMakeFiles/pb_remote_client_nrf52840_xxAA_s140_6.0.0.dir/__/__/__/mesh/core/src/nrf_mesh_utils.c.obj
 .debug_ranges  0x00000000000088d0      0x150 CMakeFiles/pb_remote_client_nrf52840_xxAA_s140_6.0.0.dir/__/__/__/mesh/core/src/nrf_mesh.c.obj
 .debug_ranges  0x0000000000008a20       0x28 CMakeFiles/pb_remote_client_nrf52840_xxAA_s140_6.0.0.dir/__/__/__/mesh/core/src/queue.c.obj
 .debug_ranges  0x0000000000008a48       0x20 CMakeFiles/pb_remote_client_nrf52840_xxAA_s140_6.0.0.dir/__/__/__/mesh/core/src/hal.c.obj
 .debug_ranges  0x0000000000008a68      0x150 CMakeFiles/pb_remote_client_nrf52840_xxAA_s140_6.0.0.dir/__/__/__/mesh/core/src/aes_cmac.c.obj
 .debug_ranges  0x0000000000008bb8      0x288 CMakeFiles/pb_remote_client_nrf52840_xxAA_s140_6.0.0.dir/__/__/__/mesh/core/src/timer_scheduler.c.obj
 .debug_ranges  0x0000000000008e40      0x178 CMakeFiles/pb_remote_client_nrf52840_xxAA_s140_6.0.0.dir/__/__/__/mesh/core/src/timer.c.obj
 .debug_ranges  0x0000000000008fb8       0x20 CMakeFiles/pb_remote_client_nrf52840_xxAA_s140_6.0.0.dir/__/__/__/mesh/core/src/ticker.c.obj
 .debug_ranges  0x0000000000008fd8       0x48 CMakeFiles/pb_remote_client_nrf52840_xxAA_s140_6.0.0.dir/__/__/__/mesh/core/src/rand.c.obj
 .debug_ranges  0x0000000000009020       0x18 CMakeFiles/pb_remote_client_nrf52840_xxAA_s140_6.0.0.dir/__/__/__/mesh/core/src/nrf_mesh_opt.c.obj
 .debug_ranges  0x0000000000009038      0x250 CMakeFiles/pb_remote_client_nrf52840_xxAA_s140_6.0.0.dir/__/__/__/mesh/core/src/timeslot.c.obj
 .debug_ranges  0x0000000000009288      0x288 CMakeFiles/pb_remote_client_nrf52840_xxAA_s140_6.0.0.dir/__/__/__/mesh/core/src/bearer_event.c.obj
 .debug_ranges  0x0000000000009510      0x1b8 CMakeFiles/pb_remote_client_nrf52840_xxAA_s140_6.0.0.dir/__/__/__/mesh/core/src/enc.c.obj
 .debug_ranges  0x00000000000096c8      0x1b8 CMakeFiles/pb_remote_client_nrf52840_xxAA_s140_6.0.0.dir/__/__/__/mesh/core/src/network.c.obj
 .debug_ranges  0x0000000000009880      0x208 CMakeFiles/pb_remote_client_nrf52840_xxAA_s140_6.0.0.dir/__/__/__/mesh/core/src/net_packet.c.obj
 .debug_ranges  0x0000000000009a88       0x78 CMakeFiles/pb_remote_client_nrf52840_xxAA_s140_6.0.0.dir/__/__/__/mesh/core/src/msqueue.c.obj
 .debug_ranges  0x0000000000009b00       0x30 CMakeFiles/pb_remote_client_nrf52840_xxAA_s140_6.0.0.dir/__/__/__/mesh/core/src/nrf_mesh_keygen.c.obj
 .debug_ranges  0x0000000000009b30       0xf0 CMakeFiles/pb_remote_client_nrf52840_xxAA_s140_6.0.0.dir/__/__/__/mesh/core/src/list.c.obj
 .debug_ranges  0x0000000000009c20       0x58 CMakeFiles/pb_remote_client_nrf52840_xxAA_s140_6.0.0.dir/__/__/__/mesh/core/src/log.c.obj
 .debug_ranges  0x0000000000009c78      0xc18 CMakeFiles/pb_remote_client_nrf52840_xxAA_s140_6.0.0.dir/__/__/__/mesh/core/src/flash_manager.c.obj
 .debug_ranges  0x000000000000a890       0xf8 CMakeFiles/pb_remote_client_nrf52840_xxAA_s140_6.0.0.dir/__/__/__/mesh/core/src/ccm_soft.c.obj
 .debug_ranges  0x000000000000a988       0x48 CMakeFiles/pb_remote_client_nrf52840_xxAA_s140_6.0.0.dir/__/__/__/mesh/core/src/replay_cache.c.obj
 .debug_ranges  0x000000000000a9d0       0x90 CMakeFiles/pb_remote_client_nrf52840_xxAA_s140_6.0.0.dir/__/__/__/mesh/core/src/beacon.c.obj
 .debug_ranges  0x000000000000aa60       0x30 CMakeFiles/pb_remote_client_nrf52840_xxAA_s140_6.0.0.dir/__/__/__/mesh/core/src/flash_manager_internal.c.obj
 .debug_ranges  0x000000000000aa90       0xc0 CMakeFiles/pb_remote_client_nrf52840_xxAA_s140_6.0.0.dir/__/__/__/mesh/core/src/core_tx.c.obj
 .debug_ranges  0x000000000000ab50      0x120 CMakeFiles/pb_remote_client_nrf52840_xxAA_s140_6.0.0.dir/__/__/__/mesh/core/src/heartbeat.c.obj
 .debug_ranges  0x000000000000ac70      0x1b8 CMakeFiles/pb_remote_client_nrf52840_xxAA_s140_6.0.0.dir/__/__/__/mesh/core/src/net_beacon.c.obj
 .debug_ranges  0x000000000000ae28       0x58 CMakeFiles/pb_remote_client_nrf52840_xxAA_s140_6.0.0.dir/__/__/__/mesh/core/src/core_tx_adv.c.obj
 .debug_ranges  0x000000000000ae80      0x118 CMakeFiles/pb_remote_client_nrf52840_xxAA_s140_6.0.0.dir/__/__/__/mesh/bearer/src/ad_listener.c.obj
 .debug_ranges  0x000000000000af98       0xc8 CMakeFiles/pb_remote_client_nrf52840_xxAA_s140_6.0.0.dir/__/__/__/mesh/bearer/src/ad_type_filter.c.obj
 .debug_ranges  0x000000000000b060      0x478 CMakeFiles/pb_remote_client_nrf52840_xxAA_s140_6.0.0.dir/__/__/__/mesh/bearer/src/advertiser.c.obj
 .debug_ranges  0x000000000000b4d8      0x188 CMakeFiles/pb_remote_client_nrf52840_xxAA_s140_6.0.0.dir/__/__/__/mesh/bearer/src/bearer_handler.c.obj
 .debug_ranges  0x000000000000b660       0xa0 CMakeFiles/pb_remote_client_nrf52840_xxAA_s140_6.0.0.dir/__/__/__/mesh/bearer/src/broadcast.c.obj
 .debug_ranges  0x000000000000b700       0x28 CMakeFiles/pb_remote_client_nrf52840_xxAA_s140_6.0.0.dir/__/__/__/mesh/bearer/src/filter_engine.c.obj
 .debug_ranges  0x000000000000b728       0x48 CMakeFiles/pb_remote_client_nrf52840_xxAA_s140_6.0.0.dir/__/__/__/mesh/bearer/src/radio_config.c.obj
 .debug_ranges  0x000000000000b770      0x400 CMakeFiles/pb_remote_client_nrf52840_xxAA_s140_6.0.0.dir/__/__/__/mesh/bearer/src/scanner.c.obj
 .debug_ranges  0x000000000000bb70       0x40 CMakeFiles/pb_remote_client_nrf52840_xxAA_s140_6.0.0.dir/home/mazzer/work/nordic/sdk/nRF5_SDK_15.0.0/modules/nrfx/mdk/system_nrf52840.c.obj
 .debug_ranges  0x000000000000bbb0       0x10 CMakeFiles/pb_remote_client_nrf52840_xxAA_s140_6.0.0.dir/home/mazzer/work/nordic/sdk/nRF5_SDK_15.0.0/components/libraries/util/app_error_handler_gcc.c.obj
 .debug_ranges  0x000000000000bbc0      0x5d8 ../../../external/rtt/librtt_nrf52840_xxAA.a(SEGGER_RTT.c.obj)
 .debug_ranges  0x000000000000c198      0x1b8 ../../../external/rtt/librtt_nrf52840_xxAA.a(SEGGER_RTT_printf.c.obj)
 .debug_ranges  0x000000000000c350     0x1298 ../../../external/micro-ecc/libuECC_nrf52840_xxAA.a(uECC.c.obj)

.debug_line     0x0000000000000000    0x209bd
 .debug_line    0x0000000000000000     0x1127 CMakeFiles/pb_remote_client_nrf52840_xxAA_s140_6.0.0.dir/src/main.c.obj
 .debug_line    0x0000000000001127      0x6ac CMakeFiles/pb_remote_client_nrf52840_xxAA_s140_6.0.0.dir/__/__/__/mesh/stack/src/mesh_stack.c.obj
 .debug_line    0x00000000000017d3      0x4a2 CMakeFiles/pb_remote_client_nrf52840_xxAA_s140_6.0.0.dir/__/__/common/src/mesh_softdevice_init.c.obj
 .debug_line    0x0000000000001c75      0x37f CMakeFiles/pb_remote_client_nrf52840_xxAA_s140_6.0.0.dir/__/__/common/src/rtt_input.c.obj
 .debug_line    0x0000000000001ff4      0x578 CMakeFiles/pb_remote_client_nrf52840_xxAA_s140_6.0.0.dir/__/__/common/src/simple_hal.c.obj
 .debug_line    0x000000000000256c     0x1233 CMakeFiles/pb_remote_client_nrf52840_xxAA_s140_6.0.0.dir/__/__/__/models/pb_remote/src/pb_remote_client.c.obj
 .debug_line    0x000000000000379f      0x74c CMakeFiles/pb_remote_client_nrf52840_xxAA_s140_6.0.0.dir/__/__/__/mesh/prov/src/prov_provisioner.c.obj
 .debug_line    0x0000000000003eeb      0x68a CMakeFiles/pb_remote_client_nrf52840_xxAA_s140_6.0.0.dir/__/__/__/mesh/prov/src/nrf_mesh_prov.c.obj
 .debug_line    0x0000000000004575      0x517 CMakeFiles/pb_remote_client_nrf52840_xxAA_s140_6.0.0.dir/__/__/__/mesh/prov/src/provisioning.c.obj
 .debug_line    0x0000000000004a8c      0x5c7 CMakeFiles/pb_remote_client_nrf52840_xxAA_s140_6.0.0.dir/__/__/__/mesh/prov/src/prov_beacon.c.obj
 .debug_line    0x0000000000005053      0x597 CMakeFiles/pb_remote_client_nrf52840_xxAA_s140_6.0.0.dir/__/__/__/mesh/prov/src/prov_utils.c.obj
 .debug_line    0x00000000000055ea      0xf1f CMakeFiles/pb_remote_client_nrf52840_xxAA_s140_6.0.0.dir/__/__/__/mesh/prov/src/prov_bearer_adv.c.obj
 .debug_line    0x0000000000006509      0x3d5 CMakeFiles/pb_remote_client_nrf52840_xxAA_s140_6.0.0.dir/__/__/__/models/config/src/composition_data.c.obj
 .debug_line    0x00000000000068de     0x2174 CMakeFiles/pb_remote_client_nrf52840_xxAA_s140_6.0.0.dir/__/__/__/models/config/src/config_server.c.obj
 .debug_line    0x0000000000008a52      0x10a CMakeFiles/pb_remote_client_nrf52840_xxAA_s140_6.0.0.dir/__/__/__/models/config/src/packed_index_list.c.obj
 .debug_line    0x0000000000008b5c      0xb59 CMakeFiles/pb_remote_client_nrf52840_xxAA_s140_6.0.0.dir/__/__/__/models/health/src/health_server.c.obj
 .debug_line    0x00000000000096b5      0x5cb CMakeFiles/pb_remote_client_nrf52840_xxAA_s140_6.0.0.dir/__/__/__/mesh/access/src/access_publish.c.obj
 .debug_line    0x0000000000009c80     0x1382 CMakeFiles/pb_remote_client_nrf52840_xxAA_s140_6.0.0.dir/__/__/__/mesh/access/src/access.c.obj
 .debug_line    0x000000000000b002      0x6ad CMakeFiles/pb_remote_client_nrf52840_xxAA_s140_6.0.0.dir/__/__/__/mesh/access/src/access_reliable.c.obj
 .debug_line    0x000000000000b6af     0x1f3a CMakeFiles/pb_remote_client_nrf52840_xxAA_s140_6.0.0.dir/__/__/__/mesh/access/src/device_state_manager.c.obj
 .debug_line    0x000000000000d5e9      0x252 CMakeFiles/pb_remote_client_nrf52840_xxAA_s140_6.0.0.dir/__/__/nrf_mesh_weak.c.obj
 .debug_line    0x000000000000d83b      0x4ec CMakeFiles/pb_remote_client_nrf52840_xxAA_s140_6.0.0.dir/__/__/common/src/app_error_weak.c.obj
 .debug_line    0x000000000000dd27      0x275 CMakeFiles/pb_remote_client_nrf52840_xxAA_s140_6.0.0.dir/__/__/common/src/assertion_handler_weak.c.obj
 .debug_line    0x000000000000df9c      0x250 CMakeFiles/pb_remote_client_nrf52840_xxAA_s140_6.0.0.dir/__/__/__/mesh/core/src/nrf_mesh_configure.c.obj
 .debug_line    0x000000000000e1ec      0x285 CMakeFiles/pb_remote_client_nrf52840_xxAA_s140_6.0.0.dir/__/__/__/mesh/core/src/aes.c.obj
 .debug_line    0x000000000000e471      0x2c2 CMakeFiles/pb_remote_client_nrf52840_xxAA_s140_6.0.0.dir/__/__/__/mesh/core/src/msg_cache.c.obj
 .debug_line    0x000000000000e733     0x125e CMakeFiles/pb_remote_client_nrf52840_xxAA_s140_6.0.0.dir/__/__/__/mesh/core/src/transport.c.obj
 .debug_line    0x000000000000f991      0x3e2 CMakeFiles/pb_remote_client_nrf52840_xxAA_s140_6.0.0.dir/__/__/__/mesh/core/src/event.c.obj
 .debug_line    0x000000000000fd73      0x560 CMakeFiles/pb_remote_client_nrf52840_xxAA_s140_6.0.0.dir/__/__/__/mesh/core/src/packet_buffer.c.obj
 .debug_line    0x00000000000102d3      0x8c0 CMakeFiles/pb_remote_client_nrf52840_xxAA_s140_6.0.0.dir/__/__/__/mesh/core/src/flash_manager_defrag.c.obj
 .debug_line    0x0000000000010b93      0x46b CMakeFiles/pb_remote_client_nrf52840_xxAA_s140_6.0.0.dir/__/__/__/mesh/core/src/fifo.c.obj
 .debug_line    0x0000000000010ffe      0x280 CMakeFiles/pb_remote_client_nrf52840_xxAA_s140_6.0.0.dir/__/__/__/mesh/core/src/nrf_flash.c.obj
 .debug_line    0x000000000001127e      0x4cf CMakeFiles/pb_remote_client_nrf52840_xxAA_s140_6.0.0.dir/__/__/__/mesh/core/src/packet_mgr.c.obj
 .debug_line    0x000000000001174d      0xae3 CMakeFiles/pb_remote_client_nrf52840_xxAA_s140_6.0.0.dir/__/__/__/mesh/core/src/net_state.c.obj
 .debug_line    0x0000000000012230      0x67d CMakeFiles/pb_remote_client_nrf52840_xxAA_s140_6.0.0.dir/__/__/__/mesh/core/src/mesh_flash.c.obj
 .debug_line    0x00000000000128ad      0x2fb CMakeFiles/pb_remote_client_nrf52840_xxAA_s140_6.0.0.dir/__/__/__/mesh/core/src/nrf_mesh_utils.c.obj
 .debug_line    0x0000000000012ba8      0x935 CMakeFiles/pb_remote_client_nrf52840_xxAA_s140_6.0.0.dir/__/__/__/mesh/core/src/nrf_mesh.c.obj
 .debug_line    0x00000000000134dd      0x33a CMakeFiles/pb_remote_client_nrf52840_xxAA_s140_6.0.0.dir/__/__/__/mesh/core/src/queue.c.obj
 .debug_line    0x0000000000013817      0x24e CMakeFiles/pb_remote_client_nrf52840_xxAA_s140_6.0.0.dir/__/__/__/mesh/core/src/hal.c.obj
 .debug_line    0x0000000000013a65      0x468 CMakeFiles/pb_remote_client_nrf52840_xxAA_s140_6.0.0.dir/__/__/__/mesh/core/src/aes_cmac.c.obj
 .debug_line    0x0000000000013ecd      0x506 CMakeFiles/pb_remote_client_nrf52840_xxAA_s140_6.0.0.dir/__/__/__/mesh/core/src/timer_scheduler.c.obj
 .debug_line    0x00000000000143d3      0x55d CMakeFiles/pb_remote_client_nrf52840_xxAA_s140_6.0.0.dir/__/__/__/mesh/core/src/timer.c.obj
 .debug_line    0x0000000000014930      0x17f CMakeFiles/pb_remote_client_nrf52840_xxAA_s140_6.0.0.dir/__/__/__/mesh/core/src/ticker.c.obj
 .debug_line    0x0000000000014aaf      0x344 CMakeFiles/pb_remote_client_nrf52840_xxAA_s140_6.0.0.dir/__/__/__/mesh/core/src/rand.c.obj
 .debug_line    0x0000000000014df3      0x339 CMakeFiles/pb_remote_client_nrf52840_xxAA_s140_6.0.0.dir/__/__/__/mesh/core/src/nrf_mesh_opt.c.obj
 .debug_line    0x000000000001512c      0x714 CMakeFiles/pb_remote_client_nrf52840_xxAA_s140_6.0.0.dir/__/__/__/mesh/core/src/timeslot.c.obj
 .debug_line    0x0000000000015840      0x6a1 CMakeFiles/pb_remote_client_nrf52840_xxAA_s140_6.0.0.dir/__/__/__/mesh/core/src/bearer_event.c.obj
 .debug_line    0x0000000000015ee1      0x524 CMakeFiles/pb_remote_client_nrf52840_xxAA_s140_6.0.0.dir/__/__/__/mesh/core/src/enc.c.obj
 .debug_line    0x0000000000016405      0x633 CMakeFiles/pb_remote_client_nrf52840_xxAA_s140_6.0.0.dir/__/__/__/mesh/core/src/network.c.obj
 .debug_line    0x0000000000016a38      0x625 CMakeFiles/pb_remote_client_nrf52840_xxAA_s140_6.0.0.dir/__/__/__/mesh/core/src/net_packet.c.obj
 .debug_line    0x000000000001705d      0x38d CMakeFiles/pb_remote_client_nrf52840_xxAA_s140_6.0.0.dir/__/__/__/mesh/core/src/msqueue.c.obj
 .debug_line    0x00000000000173ea      0x2f5 CMakeFiles/pb_remote_client_nrf52840_xxAA_s140_6.0.0.dir/__/__/__/mesh/core/src/nrf_mesh_keygen.c.obj
 .debug_line    0x00000000000176df      0x3e9 CMakeFiles/pb_remote_client_nrf52840_xxAA_s140_6.0.0.dir/__/__/__/mesh/core/src/list.c.obj
 .debug_line    0x0000000000017ac8      0x334 CMakeFiles/pb_remote_client_nrf52840_xxAA_s140_6.0.0.dir/__/__/__/mesh/core/src/log.c.obj
 .debug_line    0x0000000000017dfc      0xc3d CMakeFiles/pb_remote_client_nrf52840_xxAA_s140_6.0.0.dir/__/__/__/mesh/core/src/flash_manager.c.obj
 .debug_line    0x0000000000018a39      0x4ac CMakeFiles/pb_remote_client_nrf52840_xxAA_s140_6.0.0.dir/__/__/__/mesh/core/src/ccm_soft.c.obj
 .debug_line    0x0000000000018ee5      0x1dc CMakeFiles/pb_remote_client_nrf52840_xxAA_s140_6.0.0.dir/__/__/__/mesh/core/src/replay_cache.c.obj
 .debug_line    0x00000000000190c1      0x5cb CMakeFiles/pb_remote_client_nrf52840_xxAA_s140_6.0.0.dir/__/__/__/mesh/core/src/beacon.c.obj
 .debug_line    0x000000000001968c      0x31e CMakeFiles/pb_remote_client_nrf52840_xxAA_s140_6.0.0.dir/__/__/__/mesh/core/src/flash_manager_internal.c.obj
 .debug_line    0x00000000000199aa      0x431 CMakeFiles/pb_remote_client_nrf52840_xxAA_s140_6.0.0.dir/__/__/__/mesh/core/src/core_tx.c.obj
 .debug_line    0x0000000000019ddb      0x6bb CMakeFiles/pb_remote_client_nrf52840_xxAA_s140_6.0.0.dir/__/__/__/mesh/core/src/heartbeat.c.obj
 .debug_line    0x000000000001a496      0x75c CMakeFiles/pb_remote_client_nrf52840_xxAA_s140_6.0.0.dir/__/__/__/mesh/core/src/net_beacon.c.obj
 .debug_line    0x000000000001abf2      0x5cf CMakeFiles/pb_remote_client_nrf52840_xxAA_s140_6.0.0.dir/__/__/__/mesh/core/src/core_tx_adv.c.obj
 .debug_line    0x000000000001b1c1      0x43e CMakeFiles/pb_remote_client_nrf52840_xxAA_s140_6.0.0.dir/__/__/__/mesh/bearer/src/ad_listener.c.obj
 .debug_line    0x000000000001b5ff      0x512 CMakeFiles/pb_remote_client_nrf52840_xxAA_s140_6.0.0.dir/__/__/__/mesh/bearer/src/ad_type_filter.c.obj
 .debug_line    0x000000000001bb11      0x8d3 CMakeFiles/pb_remote_client_nrf52840_xxAA_s140_6.0.0.dir/__/__/__/mesh/bearer/src/advertiser.c.obj
 .debug_line    0x000000000001c3e4      0x61d CMakeFiles/pb_remote_client_nrf52840_xxAA_s140_6.0.0.dir/__/__/__/mesh/bearer/src/bearer_handler.c.obj
 .debug_line    0x000000000001ca01      0x435 CMakeFiles/pb_remote_client_nrf52840_xxAA_s140_6.0.0.dir/__/__/__/mesh/bearer/src/broadcast.c.obj
 .debug_line    0x000000000001ce36      0x453 CMakeFiles/pb_remote_client_nrf52840_xxAA_s140_6.0.0.dir/__/__/__/mesh/bearer/src/filter_engine.c.obj
 .debug_line    0x000000000001d289      0x34c CMakeFiles/pb_remote_client_nrf52840_xxAA_s140_6.0.0.dir/__/__/__/mesh/bearer/src/radio_config.c.obj
 .debug_line    0x000000000001d5d5      0x8f5 CMakeFiles/pb_remote_client_nrf52840_xxAA_s140_6.0.0.dir/__/__/__/mesh/bearer/src/scanner.c.obj
 .debug_line    0x000000000001deca      0x22d CMakeFiles/pb_remote_client_nrf52840_xxAA_s140_6.0.0.dir/home/mazzer/work/nordic/sdk/nRF5_SDK_15.0.0/modules/nrfx/mdk/system_nrf52840.c.obj
 .debug_line    0x000000000001e0f7       0xa4 CMakeFiles/pb_remote_client_nrf52840_xxAA_s140_6.0.0.dir/home/mazzer/work/nordic/sdk/nRF5_SDK_15.0.0/modules/nrfx/mdk/gcc_startup_nrf52840.S.obj
 .debug_line    0x000000000001e19b      0x217 CMakeFiles/pb_remote_client_nrf52840_xxAA_s140_6.0.0.dir/home/mazzer/work/nordic/sdk/nRF5_SDK_15.0.0/components/libraries/util/app_error_handler_gcc.c.obj
 .debug_line    0x000000000001e3b2      0xaaf ../../../external/rtt/librtt_nrf52840_xxAA.a(SEGGER_RTT.c.obj)
 .debug_line    0x000000000001ee61      0x401 ../../../external/rtt/librtt_nrf52840_xxAA.a(SEGGER_RTT_printf.c.obj)
 .debug_line    0x000000000001f262     0x175b ../../../external/micro-ecc/libuECC_nrf52840_xxAA.a(uECC.c.obj)

.debug_str      0x0000000000000000    0x15643
 .debug_str     0x0000000000000000     0x4208 CMakeFiles/pb_remote_client_nrf52840_xxAA_s140_6.0.0.dir/src/main.c.obj
                                       0x487f (size before relaxing)
 .debug_str     0x0000000000004208      0xe97 CMakeFiles/pb_remote_client_nrf52840_xxAA_s140_6.0.0.dir/__/__/__/mesh/stack/src/mesh_stack.c.obj
                                       0x279b (size before relaxing)
 .debug_str     0x000000000000509f      0x34e CMakeFiles/pb_remote_client_nrf52840_xxAA_s140_6.0.0.dir/__/__/common/src/mesh_softdevice_init.c.obj
                                       0x12bf (size before relaxing)
 .debug_str     0x00000000000053ed      0x132 CMakeFiles/pb_remote_client_nrf52840_xxAA_s140_6.0.0.dir/__/__/common/src/rtt_input.c.obj
                                        0xc1b (size before relaxing)
 .debug_str     0x000000000000551f      0x1ca CMakeFiles/pb_remote_client_nrf52840_xxAA_s140_6.0.0.dir/__/__/common/src/simple_hal.c.obj
                                        0xd9d (size before relaxing)
 .debug_str     0x00000000000056e9     0x1321 CMakeFiles/pb_remote_client_nrf52840_xxAA_s140_6.0.0.dir/__/__/__/models/pb_remote/src/pb_remote_client.c.obj
                                       0x278f (size before relaxing)
 .debug_str     0x0000000000006a0a      0x5a3 CMakeFiles/pb_remote_client_nrf52840_xxAA_s140_6.0.0.dir/__/__/__/mesh/prov/src/prov_provisioner.c.obj
                                       0x1fe1 (size before relaxing)
 .debug_str     0x0000000000006fad      0x2a7 CMakeFiles/pb_remote_client_nrf52840_xxAA_s140_6.0.0.dir/__/__/__/mesh/prov/src/nrf_mesh_prov.c.obj
                                       0x1e47 (size before relaxing)
 .debug_str     0x0000000000007254      0x146 CMakeFiles/pb_remote_client_nrf52840_xxAA_s140_6.0.0.dir/__/__/__/mesh/prov/src/provisioning.c.obj
                                        0xf98 (size before relaxing)
 .debug_str     0x000000000000739a      0x14a CMakeFiles/pb_remote_client_nrf52840_xxAA_s140_6.0.0.dir/__/__/__/mesh/prov/src/prov_beacon.c.obj
                                       0x19c9 (size before relaxing)
 .debug_str     0x00000000000074e4      0x477 CMakeFiles/pb_remote_client_nrf52840_xxAA_s140_6.0.0.dir/__/__/__/mesh/prov/src/prov_utils.c.obj
                                       0x1f96 (size before relaxing)
 .debug_str     0x000000000000795b      0x585 CMakeFiles/pb_remote_client_nrf52840_xxAA_s140_6.0.0.dir/__/__/__/mesh/prov/src/prov_bearer_adv.c.obj
                                       0x1c2d (size before relaxing)
 .debug_str     0x0000000000007ee0      0x262 CMakeFiles/pb_remote_client_nrf52840_xxAA_s140_6.0.0.dir/__/__/__/models/config/src/composition_data.c.obj
                                        0x94a (size before relaxing)
 .debug_str     0x0000000000008142     0x26e8 CMakeFiles/pb_remote_client_nrf52840_xxAA_s140_6.0.0.dir/__/__/__/models/config/src/config_server.c.obj
                                       0x5072 (size before relaxing)
 .debug_str     0x000000000000a82a       0xa0 CMakeFiles/pb_remote_client_nrf52840_xxAA_s140_6.0.0.dir/__/__/__/models/config/src/packed_index_list.c.obj
                                        0x2c3 (size before relaxing)
 .debug_str     0x000000000000a8ca      0x6c3 CMakeFiles/pb_remote_client_nrf52840_xxAA_s140_6.0.0.dir/__/__/__/models/health/src/health_server.c.obj
                                       0x170c (size before relaxing)
 .debug_str     0x000000000000af8d      0x29b CMakeFiles/pb_remote_client_nrf52840_xxAA_s140_6.0.0.dir/__/__/__/mesh/access/src/access_publish.c.obj
                                        0xc39 (size before relaxing)
 .debug_str     0x000000000000b228      0xcc7 CMakeFiles/pb_remote_client_nrf52840_xxAA_s140_6.0.0.dir/__/__/__/mesh/access/src/access.c.obj
                                       0x2fe3 (size before relaxing)
 .debug_str     0x000000000000beef      0x16e CMakeFiles/pb_remote_client_nrf52840_xxAA_s140_6.0.0.dir/__/__/__/mesh/access/src/access_reliable.c.obj
                                       0x1073 (size before relaxing)
 .debug_str     0x000000000000c05d      0xeaa CMakeFiles/pb_remote_client_nrf52840_xxAA_s140_6.0.0.dir/__/__/__/mesh/access/src/device_state_manager.c.obj
                                       0x30e6 (size before relaxing)
 .debug_str     0x000000000000cf07       0x73 CMakeFiles/pb_remote_client_nrf52840_xxAA_s140_6.0.0.dir/__/__/nrf_mesh_weak.c.obj
                                        0x689 (size before relaxing)
 .debug_str     0x000000000000cf7a       0xce CMakeFiles/pb_remote_client_nrf52840_xxAA_s140_6.0.0.dir/__/__/common/src/app_error_weak.c.obj
                                        0x8ca (size before relaxing)
 .debug_str     0x000000000000d048       0x73 CMakeFiles/pb_remote_client_nrf52840_xxAA_s140_6.0.0.dir/__/__/common/src/assertion_handler_weak.c.obj
                                        0x6df (size before relaxing)
 .debug_str     0x000000000000d0bb      0x1d2 CMakeFiles/pb_remote_client_nrf52840_xxAA_s140_6.0.0.dir/__/__/__/mesh/core/src/nrf_mesh_configure.c.obj
                                        0x85a (size before relaxing)
 .debug_str     0x000000000000d28d       0xf8 CMakeFiles/pb_remote_client_nrf52840_xxAA_s140_6.0.0.dir/__/__/__/mesh/core/src/aes.c.obj
                                        0xb87 (size before relaxing)
 .debug_str     0x000000000000d385       0xf2 CMakeFiles/pb_remote_client_nrf52840_xxAA_s140_6.0.0.dir/__/__/__/mesh/core/src/msg_cache.c.obj
                                        0x726 (size before relaxing)
 .debug_str     0x000000000000d477     0x11d1 CMakeFiles/pb_remote_client_nrf52840_xxAA_s140_6.0.0.dir/__/__/__/mesh/core/src/transport.c.obj
                                       0x3184 (size before relaxing)
 .debug_str     0x000000000000e648       0xb9 CMakeFiles/pb_remote_client_nrf52840_xxAA_s140_6.0.0.dir/__/__/__/mesh/core/src/event.c.obj
                                       0x1720 (size before relaxing)
 .debug_str     0x000000000000e701      0x33c CMakeFiles/pb_remote_client_nrf52840_xxAA_s140_6.0.0.dir/__/__/__/mesh/core/src/packet_buffer.c.obj
                                        0xb88 (size before relaxing)
 .debug_str     0x000000000000ea3d      0x689 CMakeFiles/pb_remote_client_nrf52840_xxAA_s140_6.0.0.dir/__/__/__/mesh/core/src/flash_manager_defrag.c.obj
                                       0x11fa (size before relaxing)
 .debug_str     0x000000000000f0c6       0xa7 CMakeFiles/pb_remote_client_nrf52840_xxAA_s140_6.0.0.dir/__/__/__/mesh/core/src/fifo.c.obj
                                        0x748 (size before relaxing)
 .debug_str     0x000000000000f16d      0x110 CMakeFiles/pb_remote_client_nrf52840_xxAA_s140_6.0.0.dir/__/__/__/mesh/core/src/nrf_flash.c.obj
                                        0x761 (size before relaxing)
 .debug_str     0x000000000000f27d      0x2ad CMakeFiles/pb_remote_client_nrf52840_xxAA_s140_6.0.0.dir/__/__/__/mesh/core/src/packet_mgr.c.obj
                                        0xa12 (size before relaxing)
 .debug_str     0x000000000000f52a      0x406 CMakeFiles/pb_remote_client_nrf52840_xxAA_s140_6.0.0.dir/__/__/__/mesh/core/src/net_state.c.obj
                                       0x21c6 (size before relaxing)
 .debug_str     0x000000000000f930      0x3be CMakeFiles/pb_remote_client_nrf52840_xxAA_s140_6.0.0.dir/__/__/__/mesh/core/src/mesh_flash.c.obj
                                        0xd49 (size before relaxing)
 .debug_str     0x000000000000fcee       0xc2 CMakeFiles/pb_remote_client_nrf52840_xxAA_s140_6.0.0.dir/__/__/__/mesh/core/src/nrf_mesh_utils.c.obj
                                        0x7be (size before relaxing)
 .debug_str     0x000000000000fdb0      0x5c8 CMakeFiles/pb_remote_client_nrf52840_xxAA_s140_6.0.0.dir/__/__/__/mesh/core/src/nrf_mesh.c.obj
                                       0x21a4 (size before relaxing)
 .debug_str     0x0000000000010378       0x92 CMakeFiles/pb_remote_client_nrf52840_xxAA_s140_6.0.0.dir/__/__/__/mesh/core/src/queue.c.obj
                                        0x6f0 (size before relaxing)
 .debug_str     0x000000000001040a       0xbd CMakeFiles/pb_remote_client_nrf52840_xxAA_s140_6.0.0.dir/__/__/__/mesh/core/src/hal.c.obj
                                        0x818 (size before relaxing)
 .debug_str     0x00000000000104c7      0x101 CMakeFiles/pb_remote_client_nrf52840_xxAA_s140_6.0.0.dir/__/__/__/mesh/core/src/aes_cmac.c.obj
                                        0x782 (size before relaxing)
 .debug_str     0x00000000000105c8      0x174 CMakeFiles/pb_remote_client_nrf52840_xxAA_s140_6.0.0.dir/__/__/__/mesh/core/src/timer_scheduler.c.obj
                                        0x9a1 (size before relaxing)
 .debug_str     0x000000000001073c      0x212 CMakeFiles/pb_remote_client_nrf52840_xxAA_s140_6.0.0.dir/__/__/__/mesh/core/src/timer.c.obj
                                        0x91b (size before relaxing)
 .debug_str     0x000000000001094e       0x73 CMakeFiles/pb_remote_client_nrf52840_xxAA_s140_6.0.0.dir/__/__/__/mesh/core/src/ticker.c.obj
                                        0x3c2 (size before relaxing)
 .debug_str     0x00000000000109c1       0xe3 CMakeFiles/pb_remote_client_nrf52840_xxAA_s140_6.0.0.dir/__/__/__/mesh/core/src/rand.c.obj
                                        0x7db (size before relaxing)
 .debug_str     0x0000000000010aa4       0x77 CMakeFiles/pb_remote_client_nrf52840_xxAA_s140_6.0.0.dir/__/__/__/mesh/core/src/nrf_mesh_opt.c.obj
                                        0x95d (size before relaxing)
 .debug_str     0x0000000000010b1b      0x939 CMakeFiles/pb_remote_client_nrf52840_xxAA_s140_6.0.0.dir/__/__/__/mesh/core/src/timeslot.c.obj
                                       0x198c (size before relaxing)
 .debug_str     0x0000000000011454      0x2c9 CMakeFiles/pb_remote_client_nrf52840_xxAA_s140_6.0.0.dir/__/__/__/mesh/core/src/bearer_event.c.obj
                                        0xf6b (size before relaxing)
 .debug_str     0x000000000001171d      0x18a CMakeFiles/pb_remote_client_nrf52840_xxAA_s140_6.0.0.dir/__/__/__/mesh/core/src/enc.c.obj
                                        0xa55 (size before relaxing)
 .debug_str     0x00000000000118a7      0x330 CMakeFiles/pb_remote_client_nrf52840_xxAA_s140_6.0.0.dir/__/__/__/mesh/core/src/network.c.obj
                                       0x1355 (size before relaxing)
 .debug_str     0x0000000000011bd7      0x329 CMakeFiles/pb_remote_client_nrf52840_xxAA_s140_6.0.0.dir/__/__/__/mesh/core/src/net_packet.c.obj
                                        0xef3 (size before relaxing)
 .debug_str     0x0000000000011f00       0x8a CMakeFiles/pb_remote_client_nrf52840_xxAA_s140_6.0.0.dir/__/__/__/mesh/core/src/msqueue.c.obj
                                        0x72c (size before relaxing)
 .debug_str     0x0000000000011f8a       0x8e CMakeFiles/pb_remote_client_nrf52840_xxAA_s140_6.0.0.dir/__/__/__/mesh/core/src/nrf_mesh_keygen.c.obj
                                        0x404 (size before relaxing)
 .debug_str     0x0000000000012018       0x9c CMakeFiles/pb_remote_client_nrf52840_xxAA_s140_6.0.0.dir/__/__/__/mesh/core/src/list.c.obj
                                        0x32b (size before relaxing)
 .debug_str     0x00000000000120b4      0x12e CMakeFiles/pb_remote_client_nrf52840_xxAA_s140_6.0.0.dir/__/__/__/mesh/core/src/log.c.obj
                                        0x83d (size before relaxing)
 .debug_str     0x00000000000121e2      0x51b CMakeFiles/pb_remote_client_nrf52840_xxAA_s140_6.0.0.dir/__/__/__/mesh/core/src/flash_manager.c.obj
                                       0x15e5 (size before relaxing)
 .debug_str     0x00000000000126fd       0xbc CMakeFiles/pb_remote_client_nrf52840_xxAA_s140_6.0.0.dir/__/__/__/mesh/core/src/ccm_soft.c.obj
                                        0x7ca (size before relaxing)
 .debug_str     0x00000000000127b9       0xc9 CMakeFiles/pb_remote_client_nrf52840_xxAA_s140_6.0.0.dir/__/__/__/mesh/core/src/replay_cache.c.obj
                                        0x6fa (size before relaxing)
 .debug_str     0x0000000000012882       0xc2 CMakeFiles/pb_remote_client_nrf52840_xxAA_s140_6.0.0.dir/__/__/__/mesh/core/src/beacon.c.obj
                                       0x1170 (size before relaxing)
 .debug_str     0x0000000000012944       0x6f CMakeFiles/pb_remote_client_nrf52840_xxAA_s140_6.0.0.dir/__/__/__/mesh/core/src/flash_manager_internal.c.obj
                                        0x811 (size before relaxing)
 .debug_str     0x00000000000129b3      0x2ec CMakeFiles/pb_remote_client_nrf52840_xxAA_s140_6.0.0.dir/__/__/__/mesh/core/src/core_tx.c.obj
                                        0xc5c (size before relaxing)
 .debug_str     0x0000000000012c9f      0x397 CMakeFiles/pb_remote_client_nrf52840_xxAA_s140_6.0.0.dir/__/__/__/mesh/core/src/heartbeat.c.obj
                                       0x22ad (size before relaxing)
 .debug_str     0x0000000000013036      0x1e5 CMakeFiles/pb_remote_client_nrf52840_xxAA_s140_6.0.0.dir/__/__/__/mesh/core/src/net_beacon.c.obj
                                       0x210d (size before relaxing)
 .debug_str     0x000000000001321b      0x13e CMakeFiles/pb_remote_client_nrf52840_xxAA_s140_6.0.0.dir/__/__/__/mesh/core/src/core_tx_adv.c.obj
                                       0x1346 (size before relaxing)
 .debug_str     0x0000000000013359      0x1b5 CMakeFiles/pb_remote_client_nrf52840_xxAA_s140_6.0.0.dir/__/__/__/mesh/bearer/src/ad_listener.c.obj
                                        0xc4f (size before relaxing)
 .debug_str     0x000000000001350e      0x186 CMakeFiles/pb_remote_client_nrf52840_xxAA_s140_6.0.0.dir/__/__/__/mesh/bearer/src/ad_type_filter.c.obj
                                        0xa0c (size before relaxing)
 .debug_str     0x0000000000013694      0x347 CMakeFiles/pb_remote_client_nrf52840_xxAA_s140_6.0.0.dir/__/__/__/mesh/bearer/src/advertiser.c.obj
                                       0x15ce (size before relaxing)
 .debug_str     0x00000000000139db      0x493 CMakeFiles/pb_remote_client_nrf52840_xxAA_s140_6.0.0.dir/__/__/__/mesh/bearer/src/bearer_handler.c.obj
                                       0x115d (size before relaxing)
 .debug_str     0x0000000000013e6e      0x1e3 CMakeFiles/pb_remote_client_nrf52840_xxAA_s140_6.0.0.dir/__/__/__/mesh/bearer/src/broadcast.c.obj
                                       0x10cf (size before relaxing)
 .debug_str     0x0000000000014051       0xa9 CMakeFiles/pb_remote_client_nrf52840_xxAA_s140_6.0.0.dir/__/__/__/mesh/bearer/src/filter_engine.c.obj
                                        0x879 (size before relaxing)
 .debug_str     0x00000000000140fa       0xb0 CMakeFiles/pb_remote_client_nrf52840_xxAA_s140_6.0.0.dir/__/__/__/mesh/bearer/src/radio_config.c.obj
                                        0x91d (size before relaxing)
 .debug_str     0x00000000000141aa      0x494 CMakeFiles/pb_remote_client_nrf52840_xxAA_s140_6.0.0.dir/__/__/__/mesh/bearer/src/scanner.c.obj
                                       0x1aa6 (size before relaxing)
 .debug_str     0x000000000001463e      0x3cb CMakeFiles/pb_remote_client_nrf52840_xxAA_s140_6.0.0.dir/home/mazzer/work/nordic/sdk/nRF5_SDK_15.0.0/modules/nrfx/mdk/system_nrf52840.c.obj
                                        0x96e (size before relaxing)
 .debug_str     0x0000000000014a09       0x64 CMakeFiles/pb_remote_client_nrf52840_xxAA_s140_6.0.0.dir/home/mazzer/work/nordic/sdk/nRF5_SDK_15.0.0/modules/nrfx/mdk/gcc_startup_nrf52840.S.obj
                                         0xba (size before relaxing)
 .debug_str     0x0000000000014a6d       0x6a CMakeFiles/pb_remote_client_nrf52840_xxAA_s140_6.0.0.dir/home/mazzer/work/nordic/sdk/nRF5_SDK_15.0.0/components/libraries/util/app_error_handler_gcc.c.obj
                                        0x6cf (size before relaxing)
 .debug_str     0x0000000000014ad7      0x33f ../../../external/rtt/librtt_nrf52840_xxAA.a(SEGGER_RTT.c.obj)
                                        0x982 (size before relaxing)
 .debug_str     0x0000000000014e16      0x116 ../../../external/rtt/librtt_nrf52840_xxAA.a(SEGGER_RTT_printf.c.obj)
                                        0x7f2 (size before relaxing)
 .debug_str     0x0000000000014f2c      0x717 ../../../external/micro-ecc/libuECC_nrf52840_xxAA.a(uECC.c.obj)
                                        0x8df (size before relaxing)

.debug_frame    0x0000000000000000     0x6d7c
 .debug_frame   0x0000000000000000       0xf8 CMakeFiles/pb_remote_client_nrf52840_xxAA_s140_6.0.0.dir/src/main.c.obj
 .debug_frame   0x00000000000000f8       0xdc CMakeFiles/pb_remote_client_nrf52840_xxAA_s140_6.0.0.dir/__/__/__/mesh/stack/src/mesh_stack.c.obj
 .debug_frame   0x00000000000001d4       0x88 CMakeFiles/pb_remote_client_nrf52840_xxAA_s140_6.0.0.dir/__/__/common/src/mesh_softdevice_init.c.obj
 .debug_frame   0x000000000000025c       0x60 CMakeFiles/pb_remote_client_nrf52840_xxAA_s140_6.0.0.dir/__/__/common/src/rtt_input.c.obj
 .debug_frame   0x00000000000002bc       0xbc CMakeFiles/pb_remote_client_nrf52840_xxAA_s140_6.0.0.dir/__/__/common/src/simple_hal.c.obj
 .debug_frame   0x0000000000000378      0x404 CMakeFiles/pb_remote_client_nrf52840_xxAA_s140_6.0.0.dir/__/__/__/models/pb_remote/src/pb_remote_client.c.obj
 .debug_frame   0x000000000000077c      0x1a8 CMakeFiles/pb_remote_client_nrf52840_xxAA_s140_6.0.0.dir/__/__/__/mesh/prov/src/prov_provisioner.c.obj
 .debug_frame   0x0000000000000924      0x1c8 CMakeFiles/pb_remote_client_nrf52840_xxAA_s140_6.0.0.dir/__/__/__/mesh/prov/src/nrf_mesh_prov.c.obj
 .debug_frame   0x0000000000000aec      0x1a0 CMakeFiles/pb_remote_client_nrf52840_xxAA_s140_6.0.0.dir/__/__/__/mesh/prov/src/provisioning.c.obj
 .debug_frame   0x0000000000000c8c       0x88 CMakeFiles/pb_remote_client_nrf52840_xxAA_s140_6.0.0.dir/__/__/__/mesh/prov/src/prov_beacon.c.obj
 .debug_frame   0x0000000000000d14      0x11c CMakeFiles/pb_remote_client_nrf52840_xxAA_s140_6.0.0.dir/__/__/__/mesh/prov/src/prov_utils.c.obj
 .debug_frame   0x0000000000000e30      0x2d8 CMakeFiles/pb_remote_client_nrf52840_xxAA_s140_6.0.0.dir/__/__/__/mesh/prov/src/prov_bearer_adv.c.obj
 .debug_frame   0x0000000000001108       0x48 CMakeFiles/pb_remote_client_nrf52840_xxAA_s140_6.0.0.dir/__/__/__/models/config/src/composition_data.c.obj
 .debug_frame   0x0000000000001150      0x854 CMakeFiles/pb_remote_client_nrf52840_xxAA_s140_6.0.0.dir/__/__/__/models/config/src/config_server.c.obj
 .debug_frame   0x00000000000019a4       0x30 CMakeFiles/pb_remote_client_nrf52840_xxAA_s140_6.0.0.dir/__/__/__/models/config/src/packed_index_list.c.obj
 .debug_frame   0x00000000000019d4      0x27c CMakeFiles/pb_remote_client_nrf52840_xxAA_s140_6.0.0.dir/__/__/__/models/health/src/health_server.c.obj
 .debug_frame   0x0000000000001c50       0xf4 CMakeFiles/pb_remote_client_nrf52840_xxAA_s140_6.0.0.dir/__/__/__/mesh/access/src/access_publish.c.obj
 .debug_frame   0x0000000000001d44      0x660 CMakeFiles/pb_remote_client_nrf52840_xxAA_s140_6.0.0.dir/__/__/__/mesh/access/src/access.c.obj
 .debug_frame   0x00000000000023a4      0x148 CMakeFiles/pb_remote_client_nrf52840_xxAA_s140_6.0.0.dir/__/__/__/mesh/access/src/access_reliable.c.obj
 .debug_frame   0x00000000000024ec      0xab8 CMakeFiles/pb_remote_client_nrf52840_xxAA_s140_6.0.0.dir/__/__/__/mesh/access/src/device_state_manager.c.obj
 .debug_frame   0x0000000000002fa4       0x30 CMakeFiles/pb_remote_client_nrf52840_xxAA_s140_6.0.0.dir/__/__/nrf_mesh_weak.c.obj
 .debug_frame   0x0000000000002fd4       0x34 CMakeFiles/pb_remote_client_nrf52840_xxAA_s140_6.0.0.dir/__/__/common/src/app_error_weak.c.obj
 .debug_frame   0x0000000000003008       0x2c CMakeFiles/pb_remote_client_nrf52840_xxAA_s140_6.0.0.dir/__/__/common/src/assertion_handler_weak.c.obj
 .debug_frame   0x0000000000003034       0x4c CMakeFiles/pb_remote_client_nrf52840_xxAA_s140_6.0.0.dir/__/__/__/mesh/core/src/nrf_mesh_configure.c.obj
 .debug_frame   0x0000000000003080       0x40 CMakeFiles/pb_remote_client_nrf52840_xxAA_s140_6.0.0.dir/__/__/__/mesh/core/src/aes.c.obj
 .debug_frame   0x00000000000030c0       0x7c CMakeFiles/pb_remote_client_nrf52840_xxAA_s140_6.0.0.dir/__/__/__/mesh/core/src/msg_cache.c.obj
 .debug_frame   0x000000000000313c      0x3fc CMakeFiles/pb_remote_client_nrf52840_xxAA_s140_6.0.0.dir/__/__/__/mesh/core/src/transport.c.obj
 .debug_frame   0x0000000000003538       0x74 CMakeFiles/pb_remote_client_nrf52840_xxAA_s140_6.0.0.dir/__/__/__/mesh/core/src/event.c.obj
 .debug_frame   0x00000000000035ac      0x10c CMakeFiles/pb_remote_client_nrf52840_xxAA_s140_6.0.0.dir/__/__/__/mesh/core/src/packet_buffer.c.obj
 .debug_frame   0x00000000000036b8      0x268 CMakeFiles/pb_remote_client_nrf52840_xxAA_s140_6.0.0.dir/__/__/__/mesh/core/src/flash_manager_defrag.c.obj
 .debug_frame   0x0000000000003920       0xd8 CMakeFiles/pb_remote_client_nrf52840_xxAA_s140_6.0.0.dir/__/__/__/mesh/core/src/fifo.c.obj
 .debug_frame   0x00000000000039f8       0x3c CMakeFiles/pb_remote_client_nrf52840_xxAA_s140_6.0.0.dir/__/__/__/mesh/core/src/nrf_flash.c.obj
 .debug_frame   0x0000000000003a34       0xac CMakeFiles/pb_remote_client_nrf52840_xxAA_s140_6.0.0.dir/__/__/__/mesh/core/src/packet_mgr.c.obj
 .debug_frame   0x0000000000003ae0      0x31c CMakeFiles/pb_remote_client_nrf52840_xxAA_s140_6.0.0.dir/__/__/__/mesh/core/src/net_state.c.obj
 .debug_frame   0x0000000000003dfc      0x130 CMakeFiles/pb_remote_client_nrf52840_xxAA_s140_6.0.0.dir/__/__/__/mesh/core/src/mesh_flash.c.obj
 .debug_frame   0x0000000000003f2c       0x60 CMakeFiles/pb_remote_client_nrf52840_xxAA_s140_6.0.0.dir/__/__/__/mesh/core/src/nrf_mesh_utils.c.obj
 .debug_frame   0x0000000000003f8c      0x200 CMakeFiles/pb_remote_client_nrf52840_xxAA_s140_6.0.0.dir/__/__/__/mesh/core/src/nrf_mesh.c.obj
 .debug_frame   0x000000000000418c       0x74 CMakeFiles/pb_remote_client_nrf52840_xxAA_s140_6.0.0.dir/__/__/__/mesh/core/src/queue.c.obj
 .debug_frame   0x0000000000004200       0x48 CMakeFiles/pb_remote_client_nrf52840_xxAA_s140_6.0.0.dir/__/__/__/mesh/core/src/hal.c.obj
 .debug_frame   0x0000000000004248       0x60 CMakeFiles/pb_remote_client_nrf52840_xxAA_s140_6.0.0.dir/__/__/__/mesh/core/src/aes_cmac.c.obj
 .debug_frame   0x00000000000042a8       0xe4 CMakeFiles/pb_remote_client_nrf52840_xxAA_s140_6.0.0.dir/__/__/__/mesh/core/src/timer_scheduler.c.obj
 .debug_frame   0x000000000000438c      0x158 CMakeFiles/pb_remote_client_nrf52840_xxAA_s140_6.0.0.dir/__/__/__/mesh/core/src/timer.c.obj
 .debug_frame   0x00000000000044e4       0x4c CMakeFiles/pb_remote_client_nrf52840_xxAA_s140_6.0.0.dir/__/__/__/mesh/core/src/ticker.c.obj
 .debug_frame   0x0000000000004530       0x9c CMakeFiles/pb_remote_client_nrf52840_xxAA_s140_6.0.0.dir/__/__/__/mesh/core/src/rand.c.obj
 .debug_frame   0x00000000000045cc       0x30 CMakeFiles/pb_remote_client_nrf52840_xxAA_s140_6.0.0.dir/__/__/__/mesh/core/src/nrf_mesh_opt.c.obj
 .debug_frame   0x00000000000045fc      0x190 CMakeFiles/pb_remote_client_nrf52840_xxAA_s140_6.0.0.dir/__/__/__/mesh/core/src/timeslot.c.obj
 .debug_frame   0x000000000000478c      0x1ac CMakeFiles/pb_remote_client_nrf52840_xxAA_s140_6.0.0.dir/__/__/__/mesh/core/src/bearer_event.c.obj
 .debug_frame   0x0000000000004938      0x158 CMakeFiles/pb_remote_client_nrf52840_xxAA_s140_6.0.0.dir/__/__/__/mesh/core/src/enc.c.obj
 .debug_frame   0x0000000000004a90      0x10c CMakeFiles/pb_remote_client_nrf52840_xxAA_s140_6.0.0.dir/__/__/__/mesh/core/src/network.c.obj
 .debug_frame   0x0000000000004b9c       0xec CMakeFiles/pb_remote_client_nrf52840_xxAA_s140_6.0.0.dir/__/__/__/mesh/core/src/net_packet.c.obj
 .debug_frame   0x0000000000004c88       0x94 CMakeFiles/pb_remote_client_nrf52840_xxAA_s140_6.0.0.dir/__/__/__/mesh/core/src/msqueue.c.obj
 .debug_frame   0x0000000000004d1c       0xc8 CMakeFiles/pb_remote_client_nrf52840_xxAA_s140_6.0.0.dir/__/__/__/mesh/core/src/nrf_mesh_keygen.c.obj
 .debug_frame   0x0000000000004de4       0x98 CMakeFiles/pb_remote_client_nrf52840_xxAA_s140_6.0.0.dir/__/__/__/mesh/core/src/list.c.obj
 .debug_frame   0x0000000000004e7c       0xc0 CMakeFiles/pb_remote_client_nrf52840_xxAA_s140_6.0.0.dir/__/__/__/mesh/core/src/log.c.obj
 .debug_frame   0x0000000000004f3c      0x258 CMakeFiles/pb_remote_client_nrf52840_xxAA_s140_6.0.0.dir/__/__/__/mesh/core/src/flash_manager.c.obj
 .debug_frame   0x0000000000005194       0xcc CMakeFiles/pb_remote_client_nrf52840_xxAA_s140_6.0.0.dir/__/__/__/mesh/core/src/ccm_soft.c.obj
 .debug_frame   0x0000000000005260       0xb8 CMakeFiles/pb_remote_client_nrf52840_xxAA_s140_6.0.0.dir/__/__/__/mesh/core/src/replay_cache.c.obj
 .debug_frame   0x0000000000005318       0x7c CMakeFiles/pb_remote_client_nrf52840_xxAA_s140_6.0.0.dir/__/__/__/mesh/core/src/beacon.c.obj
 .debug_frame   0x0000000000005394       0x34 CMakeFiles/pb_remote_client_nrf52840_xxAA_s140_6.0.0.dir/__/__/__/mesh/core/src/flash_manager_internal.c.obj
 .debug_frame   0x00000000000053c8       0xf8 CMakeFiles/pb_remote_client_nrf52840_xxAA_s140_6.0.0.dir/__/__/__/mesh/core/src/core_tx.c.obj
 .debug_frame   0x00000000000054c0      0x184 CMakeFiles/pb_remote_client_nrf52840_xxAA_s140_6.0.0.dir/__/__/__/mesh/core/src/heartbeat.c.obj
 .debug_frame   0x0000000000005644      0x114 CMakeFiles/pb_remote_client_nrf52840_xxAA_s140_6.0.0.dir/__/__/__/mesh/core/src/net_beacon.c.obj
 .debug_frame   0x0000000000005758      0x138 CMakeFiles/pb_remote_client_nrf52840_xxAA_s140_6.0.0.dir/__/__/__/mesh/core/src/core_tx_adv.c.obj
 .debug_frame   0x0000000000005890       0x94 CMakeFiles/pb_remote_client_nrf52840_xxAA_s140_6.0.0.dir/__/__/__/mesh/bearer/src/ad_listener.c.obj
 .debug_frame   0x0000000000005924       0xc0 CMakeFiles/pb_remote_client_nrf52840_xxAA_s140_6.0.0.dir/__/__/__/mesh/bearer/src/ad_type_filter.c.obj
 .debug_frame   0x00000000000059e4      0x278 CMakeFiles/pb_remote_client_nrf52840_xxAA_s140_6.0.0.dir/__/__/__/mesh/bearer/src/advertiser.c.obj
 .debug_frame   0x0000000000005c5c      0x170 CMakeFiles/pb_remote_client_nrf52840_xxAA_s140_6.0.0.dir/__/__/__/mesh/bearer/src/bearer_handler.c.obj
 .debug_frame   0x0000000000005dcc       0x74 CMakeFiles/pb_remote_client_nrf52840_xxAA_s140_6.0.0.dir/__/__/__/mesh/bearer/src/broadcast.c.obj
 .debug_frame   0x0000000000005e40       0x88 CMakeFiles/pb_remote_client_nrf52840_xxAA_s140_6.0.0.dir/__/__/__/mesh/bearer/src/filter_engine.c.obj
 .debug_frame   0x0000000000005ec8       0x98 CMakeFiles/pb_remote_client_nrf52840_xxAA_s140_6.0.0.dir/__/__/__/mesh/bearer/src/radio_config.c.obj
 .debug_frame   0x0000000000005f60      0x244 CMakeFiles/pb_remote_client_nrf52840_xxAA_s140_6.0.0.dir/__/__/__/mesh/bearer/src/scanner.c.obj
 .debug_frame   0x00000000000061a4       0x40 CMakeFiles/pb_remote_client_nrf52840_xxAA_s140_6.0.0.dir/home/mazzer/work/nordic/sdk/nRF5_SDK_15.0.0/modules/nrfx/mdk/system_nrf52840.c.obj
 .debug_frame   0x00000000000061e4       0x20 CMakeFiles/pb_remote_client_nrf52840_xxAA_s140_6.0.0.dir/home/mazzer/work/nordic/sdk/nRF5_SDK_15.0.0/components/libraries/util/app_error_handler_gcc.c.obj
 .debug_frame   0x0000000000006204      0x2e4 ../../../external/rtt/librtt_nrf52840_xxAA.a(SEGGER_RTT.c.obj)
 .debug_frame   0x00000000000064e8       0xa0 ../../../external/rtt/librtt_nrf52840_xxAA.a(SEGGER_RTT_printf.c.obj)
 .debug_frame   0x0000000000006588      0x4c8 ../../../external/micro-ecc/libuECC_nrf52840_xxAA.a(uECC.c.obj)
 .debug_frame   0x0000000000006a50       0x2c /usr/bin/../lib/gcc/arm-none-eabi/7.2.1/thumb/v7e-m/fpv4-sp/hard/libgcc.a(_aeabi_uldivmod.o)
 .debug_frame   0x0000000000006a7c       0x34 /usr/bin/../lib/gcc/arm-none-eabi/7.2.1/thumb/v7e-m/fpv4-sp/hard/libgcc.a(_udivmoddi4.o)
 .debug_frame   0x0000000000006ab0       0x28 /usr/bin/../lib/gcc/arm-none-eabi/7.2.1/../../../../arm-none-eabi/lib/thumb/v7e-m/fpv4-sp/hard/libg_nano.a(lib_a-exit.o)
 .debug_frame   0x0000000000006ad8       0x2c /usr/bin/../lib/gcc/arm-none-eabi/7.2.1/../../../../arm-none-eabi/lib/thumb/v7e-m/fpv4-sp/hard/libg_nano.a(lib_a-init.o)
 .debug_frame   0x0000000000006b04       0x30 /usr/bin/../lib/gcc/arm-none-eabi/7.2.1/../../../../arm-none-eabi/lib/thumb/v7e-m/fpv4-sp/hard/libg_nano.a(lib_a-malloc.o)
 .debug_frame   0x0000000000006b34       0x2c /usr/bin/../lib/gcc/arm-none-eabi/7.2.1/../../../../arm-none-eabi/lib/thumb/v7e-m/fpv4-sp/hard/libg_nano.a(lib_a-memcmp.o)
 .debug_frame   0x0000000000006b60       0x28 /usr/bin/../lib/gcc/arm-none-eabi/7.2.1/../../../../arm-none-eabi/lib/thumb/v7e-m/fpv4-sp/hard/libg_nano.a(lib_a-memcpy-stub.o)
 .debug_frame   0x0000000000006b88       0x20 /usr/bin/../lib/gcc/arm-none-eabi/7.2.1/../../../../arm-none-eabi/lib/thumb/v7e-m/fpv4-sp/hard/libg_nano.a(lib_a-memset.o)
 .debug_frame   0x0000000000006ba8       0x38 /usr/bin/../lib/gcc/arm-none-eabi/7.2.1/../../../../arm-none-eabi/lib/thumb/v7e-m/fpv4-sp/hard/libg_nano.a(lib_a-nano-freer.o)
 .debug_frame   0x0000000000006be0       0x2c /usr/bin/../lib/gcc/arm-none-eabi/7.2.1/../../../../arm-none-eabi/lib/thumb/v7e-m/fpv4-sp/hard/libg_nano.a(lib_a-nano-mallocr.o)
 .debug_frame   0x0000000000006c0c       0x2c /usr/bin/../lib/gcc/arm-none-eabi/7.2.1/../../../../arm-none-eabi/lib/thumb/v7e-m/fpv4-sp/hard/libg_nano.a(lib_a-sbrkr.o)
 .debug_frame   0x0000000000006c38       0x20 /usr/bin/../lib/gcc/arm-none-eabi/7.2.1/../../../../arm-none-eabi/lib/thumb/v7e-m/fpv4-sp/hard/libg_nano.a(lib_a-strcpy.o)
 .debug_frame   0x0000000000006c58       0x38 /usr/bin/../lib/gcc/arm-none-eabi/7.2.1/../../../../arm-none-eabi/lib/thumb/v7e-m/fpv4-sp/hard/libg_nano.a(lib_a-strrchr.o)
 .debug_frame   0x0000000000006c90       0x30 /usr/bin/../lib/gcc/arm-none-eabi/7.2.1/../../../../arm-none-eabi/lib/thumb/v7e-m/fpv4-sp/hard/libg_nano.a(lib_a-mlock.o)
 .debug_frame   0x0000000000006cc0       0x5c /usr/bin/../lib/gcc/arm-none-eabi/7.2.1/../../../../arm-none-eabi/lib/thumb/v7e-m/fpv4-sp/hard/libg_nano.a(lib_a-reent.o)
 .debug_frame   0x0000000000006d1c       0x20 /usr/bin/../lib/gcc/arm-none-eabi/7.2.1/../../../../arm-none-eabi/lib/thumb/v7e-m/fpv4-sp/hard/libg_nano.a(lib_a-strchr.o)
 .debug_frame   0x0000000000006d3c       0x20 /usr/bin/../lib/gcc/arm-none-eabi/7.2.1/../../../../arm-none-eabi/lib/thumb/v7e-m/fpv4-sp/hard/libnosys.a(sbrk.o)
 .debug_frame   0x0000000000006d5c       0x20 /usr/bin/../lib/gcc/arm-none-eabi/7.2.1/../../../../arm-none-eabi/lib/thumb/v7e-m/fpv4-sp/hard/libnosys.a(_exit.o)
