Archive member included to satisfy reference by file (symbol)

../../external/rtt/librtt_nrf52840_xxAA.a(SEGGER_RTT.c.obj)
                              CMakeFiles/dfu_nrf52840_xxAA_s140_6.0.0.dir/__/__/mesh/core/src/log.c.obj (SEGGER_RTT_Write)
../../external/rtt/librtt_nrf52840_xxAA.a(SEGGER_RTT_printf.c.obj)
                              CMakeFiles/dfu_nrf52840_xxAA_s140_6.0.0.dir/__/__/mesh/core/src/log.c.obj (SEGGER_RTT_vprintf)
../../external/micro-ecc/libuECC_nrf52840_xxAA.a(uECC.c.obj)
                              CMakeFiles/dfu_nrf52840_xxAA_s140_6.0.0.dir/__/__/mesh/prov/src/prov_utils.c.obj (uECC_secp256r1)
/usr/bin/../lib/gcc/arm-none-eabi/7.2.1/../../../../arm-none-eabi/lib/thumb/v7e-m/fpv4-sp/hard/libg_nano.a(lib_a-exit.o)
                              /usr/bin/../lib/gcc/arm-none-eabi/7.2.1/../../../../arm-none-eabi/lib/thumb/v7e-m/fpv4-sp/hard/crt0.o (exit)
/usr/bin/../lib/gcc/arm-none-eabi/7.2.1/../../../../arm-none-eabi/lib/thumb/v7e-m/fpv4-sp/hard/libg_nano.a(lib_a-impure.o)
                              /usr/bin/../lib/gcc/arm-none-eabi/7.2.1/../../../../arm-none-eabi/lib/thumb/v7e-m/fpv4-sp/hard/libg_nano.a(lib_a-exit.o) (_global_impure_ptr)
/usr/bin/../lib/gcc/arm-none-eabi/7.2.1/../../../../arm-none-eabi/lib/thumb/v7e-m/fpv4-sp/hard/libg_nano.a(lib_a-init.o)
                              /usr/bin/../lib/gcc/arm-none-eabi/7.2.1/../../../../arm-none-eabi/lib/thumb/v7e-m/fpv4-sp/hard/crt0.o (__libc_init_array)
/usr/bin/../lib/gcc/arm-none-eabi/7.2.1/../../../../arm-none-eabi/lib/thumb/v7e-m/fpv4-sp/hard/libg_nano.a(lib_a-malloc.o)
                              CMakeFiles/dfu_nrf52840_xxAA_s140_6.0.0.dir/__/__/mesh/core/src/transport.c.obj (malloc)
/usr/bin/../lib/gcc/arm-none-eabi/7.2.1/../../../../arm-none-eabi/lib/thumb/v7e-m/fpv4-sp/hard/libg_nano.a(lib_a-memcmp.o)
                              CMakeFiles/dfu_nrf52840_xxAA_s140_6.0.0.dir/__/__/mesh/access/src/device_state_manager.c.obj (memcmp)
/usr/bin/../lib/gcc/arm-none-eabi/7.2.1/../../../../arm-none-eabi/lib/thumb/v7e-m/fpv4-sp/hard/libg_nano.a(lib_a-memcpy-stub.o)
                              CMakeFiles/dfu_nrf52840_xxAA_s140_6.0.0.dir/__/__/mesh/access/src/access.c.obj (memcpy)
/usr/bin/../lib/gcc/arm-none-eabi/7.2.1/../../../../arm-none-eabi/lib/thumb/v7e-m/fpv4-sp/hard/libg_nano.a(lib_a-memset.o)
                              /usr/bin/../lib/gcc/arm-none-eabi/7.2.1/../../../../arm-none-eabi/lib/thumb/v7e-m/fpv4-sp/hard/crt0.o (memset)
/usr/bin/../lib/gcc/arm-none-eabi/7.2.1/../../../../arm-none-eabi/lib/thumb/v7e-m/fpv4-sp/hard/libg_nano.a(lib_a-nano-freer.o)
                              /usr/bin/../lib/gcc/arm-none-eabi/7.2.1/../../../../arm-none-eabi/lib/thumb/v7e-m/fpv4-sp/hard/libg_nano.a(lib_a-malloc.o) (_free_r)
/usr/bin/../lib/gcc/arm-none-eabi/7.2.1/../../../../arm-none-eabi/lib/thumb/v7e-m/fpv4-sp/hard/libg_nano.a(lib_a-nano-mallocr.o)
                              /usr/bin/../lib/gcc/arm-none-eabi/7.2.1/../../../../arm-none-eabi/lib/thumb/v7e-m/fpv4-sp/hard/libg_nano.a(lib_a-malloc.o) (_malloc_r)
/usr/bin/../lib/gcc/arm-none-eabi/7.2.1/../../../../arm-none-eabi/lib/thumb/v7e-m/fpv4-sp/hard/libg_nano.a(lib_a-sbrkr.o)
                              /usr/bin/../lib/gcc/arm-none-eabi/7.2.1/../../../../arm-none-eabi/lib/thumb/v7e-m/fpv4-sp/hard/libg_nano.a(lib_a-nano-mallocr.o) (_sbrk_r)
/usr/bin/../lib/gcc/arm-none-eabi/7.2.1/../../../../arm-none-eabi/lib/thumb/v7e-m/fpv4-sp/hard/libg_nano.a(lib_a-strcpy.o)
                              ../../external/rtt/librtt_nrf52840_xxAA.a(SEGGER_RTT.c.obj) (strcpy)
/usr/bin/../lib/gcc/arm-none-eabi/7.2.1/../../../../arm-none-eabi/lib/thumb/v7e-m/fpv4-sp/hard/libg_nano.a(lib_a-strlen.o)
                              CMakeFiles/dfu_nrf52840_xxAA_s140_6.0.0.dir/__/__/mesh/prov/src/prov_beacon.c.obj (strlen)
/usr/bin/../lib/gcc/arm-none-eabi/7.2.1/../../../../arm-none-eabi/lib/thumb/v7e-m/fpv4-sp/hard/libg_nano.a(lib_a-strrchr.o)
                              CMakeFiles/dfu_nrf52840_xxAA_s140_6.0.0.dir/src/main.c.obj (strrchr)
/usr/bin/../lib/gcc/arm-none-eabi/7.2.1/../../../../arm-none-eabi/lib/thumb/v7e-m/fpv4-sp/hard/libg_nano.a(lib_a-mlock.o)
                              /usr/bin/../lib/gcc/arm-none-eabi/7.2.1/../../../../arm-none-eabi/lib/thumb/v7e-m/fpv4-sp/hard/libg_nano.a(lib_a-nano-freer.o) (__malloc_lock)
/usr/bin/../lib/gcc/arm-none-eabi/7.2.1/../../../../arm-none-eabi/lib/thumb/v7e-m/fpv4-sp/hard/libg_nano.a(lib_a-reent.o)
                              /usr/bin/../lib/gcc/arm-none-eabi/7.2.1/../../../../arm-none-eabi/lib/thumb/v7e-m/fpv4-sp/hard/libg_nano.a(lib_a-sbrkr.o) (errno)
/usr/bin/../lib/gcc/arm-none-eabi/7.2.1/../../../../arm-none-eabi/lib/thumb/v7e-m/fpv4-sp/hard/libg_nano.a(lib_a-strchr.o)
                              /usr/bin/../lib/gcc/arm-none-eabi/7.2.1/../../../../arm-none-eabi/lib/thumb/v7e-m/fpv4-sp/hard/libg_nano.a(lib_a-strrchr.o) (strchr)
/usr/bin/../lib/gcc/arm-none-eabi/7.2.1/../../../../arm-none-eabi/lib/thumb/v7e-m/fpv4-sp/hard/libnosys.a(sbrk.o)
                              /usr/bin/../lib/gcc/arm-none-eabi/7.2.1/../../../../arm-none-eabi/lib/thumb/v7e-m/fpv4-sp/hard/libg_nano.a(lib_a-sbrkr.o) (_sbrk)
/usr/bin/../lib/gcc/arm-none-eabi/7.2.1/../../../../arm-none-eabi/lib/thumb/v7e-m/fpv4-sp/hard/libnosys.a(_exit.o)
                              /usr/bin/../lib/gcc/arm-none-eabi/7.2.1/../../../../arm-none-eabi/lib/thumb/v7e-m/fpv4-sp/hard/libg_nano.a(lib_a-exit.o) (_exit)

Allocating common symbols
Common symbol       size              file

nrf_nvic_state      0xc               CMakeFiles/dfu_nrf52840_xxAA_s140_6.0.0.dir/__/common/src/mesh_softdevice_init.c.obj
m_packet            0x24              CMakeFiles/dfu_nrf52840_xxAA_s140_6.0.0.dir/__/__/mesh/core/src/core_tx.c.obj
bank_addr           0x4               CMakeFiles/dfu_nrf52840_xxAA_s140_6.0.0.dir/src/main.c.obj
rom_length          0x4               CMakeFiles/dfu_nrf52840_xxAA_s140_6.0.0.dir/src/main.c.obj
m_cmd_handler       0x4               CMakeFiles/dfu_nrf52840_xxAA_s140_6.0.0.dir/__/__/mesh/dfu/src/nrf_mesh_dfu.c.obj
errno               0x4               /usr/bin/../lib/gcc/arm-none-eabi/7.2.1/../../../../arm-none-eabi/lib/thumb/v7e-m/fpv4-sp/hard/libg_nano.a(lib_a-reent.o)
_SEGGER_RTT         0x78              ../../external/rtt/librtt_nrf52840_xxAA.a(SEGGER_RTT.c.obj)

Discarded input sections

 .text          0x0000000000000000        0x0 /usr/bin/../lib/gcc/arm-none-eabi/7.2.1/thumb/v7e-m/fpv4-sp/hard/crti.o
 .data          0x0000000000000000        0x0 /usr/bin/../lib/gcc/arm-none-eabi/7.2.1/thumb/v7e-m/fpv4-sp/hard/crti.o
 .bss           0x0000000000000000        0x0 /usr/bin/../lib/gcc/arm-none-eabi/7.2.1/thumb/v7e-m/fpv4-sp/hard/crti.o
 .data          0x0000000000000000        0x4 /usr/bin/../lib/gcc/arm-none-eabi/7.2.1/thumb/v7e-m/fpv4-sp/hard/crtbegin.o
 .data          0x0000000000000000        0x0 /usr/bin/../lib/gcc/arm-none-eabi/7.2.1/../../../../arm-none-eabi/lib/thumb/v7e-m/fpv4-sp/hard/crt0.o
 .bss           0x0000000000000000        0x0 /usr/bin/../lib/gcc/arm-none-eabi/7.2.1/../../../../arm-none-eabi/lib/thumb/v7e-m/fpv4-sp/hard/crt0.o
 .ARM.extab     0x0000000000000000        0x0 /usr/bin/../lib/gcc/arm-none-eabi/7.2.1/../../../../arm-none-eabi/lib/thumb/v7e-m/fpv4-sp/hard/crt0.o
 .text          0x0000000000000000        0x0 CMakeFiles/dfu_nrf52840_xxAA_s140_6.0.0.dir/src/main.c.obj
 .data          0x0000000000000000        0x0 CMakeFiles/dfu_nrf52840_xxAA_s140_6.0.0.dir/src/main.c.obj
 .bss           0x0000000000000000        0x0 CMakeFiles/dfu_nrf52840_xxAA_s140_6.0.0.dir/src/main.c.obj
 .text          0x0000000000000000        0x0 CMakeFiles/dfu_nrf52840_xxAA_s140_6.0.0.dir/__/__/mesh/stack/src/mesh_stack.c.obj
 .data          0x0000000000000000        0x0 CMakeFiles/dfu_nrf52840_xxAA_s140_6.0.0.dir/__/__/mesh/stack/src/mesh_stack.c.obj
 .bss           0x0000000000000000        0x0 CMakeFiles/dfu_nrf52840_xxAA_s140_6.0.0.dir/__/__/mesh/stack/src/mesh_stack.c.obj
 .text.mesh_stack_is_device_provisioned
                0x0000000000000000       0x1c CMakeFiles/dfu_nrf52840_xxAA_s140_6.0.0.dir/__/__/mesh/stack/src/mesh_stack.c.obj
 .text          0x0000000000000000        0x0 CMakeFiles/dfu_nrf52840_xxAA_s140_6.0.0.dir/__/common/src/mesh_softdevice_init.c.obj
 .data          0x0000000000000000        0x0 CMakeFiles/dfu_nrf52840_xxAA_s140_6.0.0.dir/__/common/src/mesh_softdevice_init.c.obj
 .bss           0x0000000000000000        0x0 CMakeFiles/dfu_nrf52840_xxAA_s140_6.0.0.dir/__/common/src/mesh_softdevice_init.c.obj
 .text          0x0000000000000000        0x0 CMakeFiles/dfu_nrf52840_xxAA_s140_6.0.0.dir/__/common/src/mesh_provisionee.c.obj
 .data          0x0000000000000000        0x0 CMakeFiles/dfu_nrf52840_xxAA_s140_6.0.0.dir/__/common/src/mesh_provisionee.c.obj
 .bss           0x0000000000000000        0x0 CMakeFiles/dfu_nrf52840_xxAA_s140_6.0.0.dir/__/common/src/mesh_provisionee.c.obj
 .text          0x0000000000000000        0x0 CMakeFiles/dfu_nrf52840_xxAA_s140_6.0.0.dir/__/common/src/simple_hal.c.obj
 .data          0x0000000000000000        0x0 CMakeFiles/dfu_nrf52840_xxAA_s140_6.0.0.dir/__/common/src/simple_hal.c.obj
 .bss           0x0000000000000000        0x0 CMakeFiles/dfu_nrf52840_xxAA_s140_6.0.0.dir/__/common/src/simple_hal.c.obj
 .text.hal_led_pin_get
                0x0000000000000000       0x18 CMakeFiles/dfu_nrf52840_xxAA_s140_6.0.0.dir/__/common/src/simple_hal.c.obj
 .text.hal_led_pin_set
                0x0000000000000000       0x18 CMakeFiles/dfu_nrf52840_xxAA_s140_6.0.0.dir/__/common/src/simple_hal.c.obj
 .text.hal_buttons_init
                0x0000000000000000       0x54 CMakeFiles/dfu_nrf52840_xxAA_s140_6.0.0.dir/__/common/src/simple_hal.c.obj
 .text          0x0000000000000000        0x0 CMakeFiles/dfu_nrf52840_xxAA_s140_6.0.0.dir/__/__/mesh/access/src/access_publish.c.obj
 .data          0x0000000000000000        0x0 CMakeFiles/dfu_nrf52840_xxAA_s140_6.0.0.dir/__/__/mesh/access/src/access_publish.c.obj
 .bss           0x0000000000000000        0x0 CMakeFiles/dfu_nrf52840_xxAA_s140_6.0.0.dir/__/__/mesh/access/src/access_publish.c.obj
 .text          0x0000000000000000        0x0 CMakeFiles/dfu_nrf52840_xxAA_s140_6.0.0.dir/__/__/mesh/access/src/access.c.obj
 .data          0x0000000000000000        0x0 CMakeFiles/dfu_nrf52840_xxAA_s140_6.0.0.dir/__/__/mesh/access/src/access.c.obj
 .bss           0x0000000000000000        0x0 CMakeFiles/dfu_nrf52840_xxAA_s140_6.0.0.dir/__/__/mesh/access/src/access.c.obj
 .text.access_model_subscription_list_alloc
                0x0000000000000000       0x60 CMakeFiles/dfu_nrf52840_xxAA_s140_6.0.0.dir/__/__/mesh/access/src/access.c.obj
 .text.access_model_subscription_lists_share
                0x0000000000000000       0x60 CMakeFiles/dfu_nrf52840_xxAA_s140_6.0.0.dir/__/__/mesh/access/src/access.c.obj
 .text          0x0000000000000000        0x0 CMakeFiles/dfu_nrf52840_xxAA_s140_6.0.0.dir/__/__/mesh/access/src/access_reliable.c.obj
 .data          0x0000000000000000        0x0 CMakeFiles/dfu_nrf52840_xxAA_s140_6.0.0.dir/__/__/mesh/access/src/access_reliable.c.obj
 .bss           0x0000000000000000        0x0 CMakeFiles/dfu_nrf52840_xxAA_s140_6.0.0.dir/__/__/mesh/access/src/access_reliable.c.obj
 .text.access_model_reliable_publish
                0x0000000000000000      0x1d8 CMakeFiles/dfu_nrf52840_xxAA_s140_6.0.0.dir/__/__/mesh/access/src/access_reliable.c.obj
 .text          0x0000000000000000        0x0 CMakeFiles/dfu_nrf52840_xxAA_s140_6.0.0.dir/__/__/mesh/access/src/device_state_manager.c.obj
 .data          0x0000000000000000        0x0 CMakeFiles/dfu_nrf52840_xxAA_s140_6.0.0.dir/__/__/mesh/access/src/device_state_manager.c.obj
 .bss           0x0000000000000000        0x0 CMakeFiles/dfu_nrf52840_xxAA_s140_6.0.0.dir/__/__/mesh/access/src/device_state_manager.c.obj
 .text.dsm_has_unflashed_data
                0x0000000000000000       0x58 CMakeFiles/dfu_nrf52840_xxAA_s140_6.0.0.dir/__/__/mesh/access/src/device_state_manager.c.obj
 .text.dsm_address_subscription_count_get
                0x0000000000000000       0x80 CMakeFiles/dfu_nrf52840_xxAA_s140_6.0.0.dir/__/__/mesh/access/src/device_state_manager.c.obj
 .text.dsm_subnet_handle_to_netkey_index
                0x0000000000000000       0x34 CMakeFiles/dfu_nrf52840_xxAA_s140_6.0.0.dir/__/__/mesh/access/src/device_state_manager.c.obj
 .text.dsm_devkey_handle_get
                0x0000000000000000       0x3c CMakeFiles/dfu_nrf52840_xxAA_s140_6.0.0.dir/__/__/mesh/access/src/device_state_manager.c.obj
 .text.dsm_beacon_info_get
                0x0000000000000000       0x34 CMakeFiles/dfu_nrf52840_xxAA_s140_6.0.0.dir/__/__/mesh/access/src/device_state_manager.c.obj
 .text          0x0000000000000000        0x0 CMakeFiles/dfu_nrf52840_xxAA_s140_6.0.0.dir/__/__/mesh/serial/src/serial_uart.c.obj
 .data          0x0000000000000000        0x0 CMakeFiles/dfu_nrf52840_xxAA_s140_6.0.0.dir/__/__/mesh/serial/src/serial_uart.c.obj
 .bss           0x0000000000000000        0x0 CMakeFiles/dfu_nrf52840_xxAA_s140_6.0.0.dir/__/__/mesh/serial/src/serial_uart.c.obj
 .text          0x0000000000000000        0x0 CMakeFiles/dfu_nrf52840_xxAA_s140_6.0.0.dir/__/__/mesh/serial/src/serial_bearer.c.obj
 .data          0x0000000000000000        0x0 CMakeFiles/dfu_nrf52840_xxAA_s140_6.0.0.dir/__/__/mesh/serial/src/serial_bearer.c.obj
 .bss           0x0000000000000000        0x0 CMakeFiles/dfu_nrf52840_xxAA_s140_6.0.0.dir/__/__/mesh/serial/src/serial_bearer.c.obj
 .text.serial_bearer_packet_buffer_get
                0x0000000000000000       0x28 CMakeFiles/dfu_nrf52840_xxAA_s140_6.0.0.dir/__/__/mesh/serial/src/serial_bearer.c.obj
 .text.serial_bearer_rx_pending
                0x0000000000000000        0xc CMakeFiles/dfu_nrf52840_xxAA_s140_6.0.0.dir/__/__/mesh/serial/src/serial_bearer.c.obj
 .text          0x0000000000000000        0x0 CMakeFiles/dfu_nrf52840_xxAA_s140_6.0.0.dir/__/__/mesh/serial/src/serial_handler_common.c.obj
 .data          0x0000000000000000        0x0 CMakeFiles/dfu_nrf52840_xxAA_s140_6.0.0.dir/__/__/mesh/serial/src/serial_handler_common.c.obj
 .bss           0x0000000000000000        0x0 CMakeFiles/dfu_nrf52840_xxAA_s140_6.0.0.dir/__/__/mesh/serial/src/serial_handler_common.c.obj
 .text          0x0000000000000000        0x0 CMakeFiles/dfu_nrf52840_xxAA_s140_6.0.0.dir/__/__/mesh/serial/src/serial_handler_access.c.obj
 .data          0x0000000000000000        0x0 CMakeFiles/dfu_nrf52840_xxAA_s140_6.0.0.dir/__/__/mesh/serial/src/serial_handler_access.c.obj
 .bss           0x0000000000000000        0x0 CMakeFiles/dfu_nrf52840_xxAA_s140_6.0.0.dir/__/__/mesh/serial/src/serial_handler_access.c.obj
 .text          0x0000000000000000        0x0 CMakeFiles/dfu_nrf52840_xxAA_s140_6.0.0.dir/__/__/mesh/serial/src/serial_handler_config.c.obj
 .data          0x0000000000000000        0x0 CMakeFiles/dfu_nrf52840_xxAA_s140_6.0.0.dir/__/__/mesh/serial/src/serial_handler_config.c.obj
 .bss           0x0000000000000000        0x0 CMakeFiles/dfu_nrf52840_xxAA_s140_6.0.0.dir/__/__/mesh/serial/src/serial_handler_config.c.obj
 .text          0x0000000000000000        0x0 CMakeFiles/dfu_nrf52840_xxAA_s140_6.0.0.dir/__/__/mesh/serial/src/serial_handler_openmesh.c.obj
 .data          0x0000000000000000        0x0 CMakeFiles/dfu_nrf52840_xxAA_s140_6.0.0.dir/__/__/mesh/serial/src/serial_handler_openmesh.c.obj
 .bss           0x0000000000000000        0x0 CMakeFiles/dfu_nrf52840_xxAA_s140_6.0.0.dir/__/__/mesh/serial/src/serial_handler_openmesh.c.obj
 .text          0x0000000000000000        0x0 CMakeFiles/dfu_nrf52840_xxAA_s140_6.0.0.dir/__/__/mesh/serial/src/serial.c.obj
 .data          0x0000000000000000        0x0 CMakeFiles/dfu_nrf52840_xxAA_s140_6.0.0.dir/__/__/mesh/serial/src/serial.c.obj
 .bss           0x0000000000000000        0x0 CMakeFiles/dfu_nrf52840_xxAA_s140_6.0.0.dir/__/__/mesh/serial/src/serial.c.obj
 .text          0x0000000000000000        0x0 CMakeFiles/dfu_nrf52840_xxAA_s140_6.0.0.dir/__/__/mesh/serial/src/serial_handler_prov.c.obj
 .data          0x0000000000000000        0x0 CMakeFiles/dfu_nrf52840_xxAA_s140_6.0.0.dir/__/__/mesh/serial/src/serial_handler_prov.c.obj
 .bss           0x0000000000000000        0x0 CMakeFiles/dfu_nrf52840_xxAA_s140_6.0.0.dir/__/__/mesh/serial/src/serial_handler_prov.c.obj
 .text.serial_handler_prov_context_get
                0x0000000000000000       0x1c CMakeFiles/dfu_nrf52840_xxAA_s140_6.0.0.dir/__/__/mesh/serial/src/serial_handler_prov.c.obj
 .text.serial_handler_prov_keys_get
                0x0000000000000000       0x14 CMakeFiles/dfu_nrf52840_xxAA_s140_6.0.0.dir/__/__/mesh/serial/src/serial_handler_prov.c.obj
 .text.serial_handler_prov_oob_caps_get
                0x0000000000000000        0xc CMakeFiles/dfu_nrf52840_xxAA_s140_6.0.0.dir/__/__/mesh/serial/src/serial_handler_prov.c.obj
 .text          0x0000000000000000        0x0 CMakeFiles/dfu_nrf52840_xxAA_s140_6.0.0.dir/__/__/mesh/serial/src/serial_handler_dfu.c.obj
 .data          0x0000000000000000        0x0 CMakeFiles/dfu_nrf52840_xxAA_s140_6.0.0.dir/__/__/mesh/serial/src/serial_handler_dfu.c.obj
 .bss           0x0000000000000000        0x0 CMakeFiles/dfu_nrf52840_xxAA_s140_6.0.0.dir/__/__/mesh/serial/src/serial_handler_dfu.c.obj
 .text          0x0000000000000000        0x0 CMakeFiles/dfu_nrf52840_xxAA_s140_6.0.0.dir/__/__/mesh/serial/src/serial_handler_mesh.c.obj
 .data          0x0000000000000000        0x0 CMakeFiles/dfu_nrf52840_xxAA_s140_6.0.0.dir/__/__/mesh/serial/src/serial_handler_mesh.c.obj
 .bss           0x0000000000000000        0x0 CMakeFiles/dfu_nrf52840_xxAA_s140_6.0.0.dir/__/__/mesh/serial/src/serial_handler_mesh.c.obj
 .text          0x0000000000000000        0x0 CMakeFiles/dfu_nrf52840_xxAA_s140_6.0.0.dir/__/__/mesh/serial/src/serial_handler_models.c.obj
 .data          0x0000000000000000        0x0 CMakeFiles/dfu_nrf52840_xxAA_s140_6.0.0.dir/__/__/mesh/serial/src/serial_handler_models.c.obj
 .bss           0x0000000000000000        0x0 CMakeFiles/dfu_nrf52840_xxAA_s140_6.0.0.dir/__/__/mesh/serial/src/serial_handler_models.c.obj
 .text.serial_handler_models_register
                0x0000000000000000       0x38 CMakeFiles/dfu_nrf52840_xxAA_s140_6.0.0.dir/__/__/mesh/serial/src/serial_handler_models.c.obj
 .text          0x0000000000000000        0x0 CMakeFiles/dfu_nrf52840_xxAA_s140_6.0.0.dir/__/__/mesh/serial/src/serial_handler_device.c.obj
 .data          0x0000000000000000        0x0 CMakeFiles/dfu_nrf52840_xxAA_s140_6.0.0.dir/__/__/mesh/serial/src/serial_handler_device.c.obj
 .bss           0x0000000000000000        0x0 CMakeFiles/dfu_nrf52840_xxAA_s140_6.0.0.dir/__/__/mesh/serial/src/serial_handler_device.c.obj
 .text          0x0000000000000000        0x0 CMakeFiles/dfu_nrf52840_xxAA_s140_6.0.0.dir/__/__/mesh/serial/src/nrf_mesh_serial.c.obj
 .data          0x0000000000000000        0x0 CMakeFiles/dfu_nrf52840_xxAA_s140_6.0.0.dir/__/__/mesh/serial/src/nrf_mesh_serial.c.obj
 .bss           0x0000000000000000        0x0 CMakeFiles/dfu_nrf52840_xxAA_s140_6.0.0.dir/__/__/mesh/serial/src/nrf_mesh_serial.c.obj
 .text.nrf_mesh_serial_state_get
                0x0000000000000000        0x4 CMakeFiles/dfu_nrf52840_xxAA_s140_6.0.0.dir/__/__/mesh/serial/src/nrf_mesh_serial.c.obj
 .text.nrf_mesh_serial_tx
                0x0000000000000000       0x5c CMakeFiles/dfu_nrf52840_xxAA_s140_6.0.0.dir/__/__/mesh/serial/src/nrf_mesh_serial.c.obj
 .text          0x0000000000000000        0x0 CMakeFiles/dfu_nrf52840_xxAA_s140_6.0.0.dir/__/__/mesh/serial/src/serial_handler_app.c.obj
 .data          0x0000000000000000        0x0 CMakeFiles/dfu_nrf52840_xxAA_s140_6.0.0.dir/__/__/mesh/serial/src/serial_handler_app.c.obj
 .bss           0x0000000000000000        0x0 CMakeFiles/dfu_nrf52840_xxAA_s140_6.0.0.dir/__/__/mesh/serial/src/serial_handler_app.c.obj
 .text          0x0000000000000000        0x0 CMakeFiles/dfu_nrf52840_xxAA_s140_6.0.0.dir/__/__/models/config/src/composition_data.c.obj
 .data          0x0000000000000000        0x0 CMakeFiles/dfu_nrf52840_xxAA_s140_6.0.0.dir/__/__/models/config/src/composition_data.c.obj
 .bss           0x0000000000000000        0x0 CMakeFiles/dfu_nrf52840_xxAA_s140_6.0.0.dir/__/__/models/config/src/composition_data.c.obj
 .text          0x0000000000000000        0x0 CMakeFiles/dfu_nrf52840_xxAA_s140_6.0.0.dir/__/__/models/config/src/config_server.c.obj
 .data          0x0000000000000000        0x0 CMakeFiles/dfu_nrf52840_xxAA_s140_6.0.0.dir/__/__/models/config/src/config_server.c.obj
 .bss           0x0000000000000000        0x0 CMakeFiles/dfu_nrf52840_xxAA_s140_6.0.0.dir/__/__/models/config/src/config_server.c.obj
 .text          0x0000000000000000        0x0 CMakeFiles/dfu_nrf52840_xxAA_s140_6.0.0.dir/__/__/models/config/src/packed_index_list.c.obj
 .data          0x0000000000000000        0x0 CMakeFiles/dfu_nrf52840_xxAA_s140_6.0.0.dir/__/__/models/config/src/packed_index_list.c.obj
 .bss           0x0000000000000000        0x0 CMakeFiles/dfu_nrf52840_xxAA_s140_6.0.0.dir/__/__/models/config/src/packed_index_list.c.obj
 .text          0x0000000000000000        0x0 CMakeFiles/dfu_nrf52840_xxAA_s140_6.0.0.dir/__/__/models/health/src/health_server.c.obj
 .data          0x0000000000000000        0x0 CMakeFiles/dfu_nrf52840_xxAA_s140_6.0.0.dir/__/__/models/health/src/health_server.c.obj
 .bss           0x0000000000000000        0x0 CMakeFiles/dfu_nrf52840_xxAA_s140_6.0.0.dir/__/__/models/health/src/health_server.c.obj
 .text.health_server_fault_register
                0x0000000000000000      0x23c CMakeFiles/dfu_nrf52840_xxAA_s140_6.0.0.dir/__/__/models/health/src/health_server.c.obj
 .text.health_server_fault_clear
                0x0000000000000000      0x2d8 CMakeFiles/dfu_nrf52840_xxAA_s140_6.0.0.dir/__/__/models/health/src/health_server.c.obj
 .text.health_server_fault_is_set
                0x0000000000000000       0x1c CMakeFiles/dfu_nrf52840_xxAA_s140_6.0.0.dir/__/__/models/health/src/health_server.c.obj
 .text.health_server_fault_count_get
                0x0000000000000000      0x14c CMakeFiles/dfu_nrf52840_xxAA_s140_6.0.0.dir/__/__/models/health/src/health_server.c.obj
 .text.health_server_attention_get
                0x0000000000000000        0x8 CMakeFiles/dfu_nrf52840_xxAA_s140_6.0.0.dir/__/__/models/health/src/health_server.c.obj
 .text.health_server_attention_set
                0x0000000000000000       0x90 CMakeFiles/dfu_nrf52840_xxAA_s140_6.0.0.dir/__/__/models/health/src/health_server.c.obj
 .text          0x0000000000000000        0x0 CMakeFiles/dfu_nrf52840_xxAA_s140_6.0.0.dir/__/__/mesh/prov/src/prov_provisioner.c.obj
 .data          0x0000000000000000        0x0 CMakeFiles/dfu_nrf52840_xxAA_s140_6.0.0.dir/__/__/mesh/prov/src/prov_provisioner.c.obj
 .bss           0x0000000000000000        0x0 CMakeFiles/dfu_nrf52840_xxAA_s140_6.0.0.dir/__/__/mesh/prov/src/prov_provisioner.c.obj
 .text.prov_provisioner_oob_pubkey
                0x0000000000000000       0x30 CMakeFiles/dfu_nrf52840_xxAA_s140_6.0.0.dir/__/__/mesh/prov/src/prov_provisioner.c.obj
 .text          0x0000000000000000        0x0 CMakeFiles/dfu_nrf52840_xxAA_s140_6.0.0.dir/__/__/mesh/prov/src/prov_provisionee.c.obj
 .data          0x0000000000000000        0x0 CMakeFiles/dfu_nrf52840_xxAA_s140_6.0.0.dir/__/__/mesh/prov/src/prov_provisionee.c.obj
 .bss           0x0000000000000000        0x0 CMakeFiles/dfu_nrf52840_xxAA_s140_6.0.0.dir/__/__/mesh/prov/src/prov_provisionee.c.obj
 .text          0x0000000000000000        0x0 CMakeFiles/dfu_nrf52840_xxAA_s140_6.0.0.dir/__/__/mesh/prov/src/nrf_mesh_prov.c.obj
 .data          0x0000000000000000        0x0 CMakeFiles/dfu_nrf52840_xxAA_s140_6.0.0.dir/__/__/mesh/prov/src/nrf_mesh_prov.c.obj
 .bss           0x0000000000000000        0x0 CMakeFiles/dfu_nrf52840_xxAA_s140_6.0.0.dir/__/__/mesh/prov/src/nrf_mesh_prov.c.obj
 .text.nrf_mesh_prov_listen_stop
                0x0000000000000000       0x30 CMakeFiles/dfu_nrf52840_xxAA_s140_6.0.0.dir/__/__/mesh/prov/src/nrf_mesh_prov.c.obj
 .text.nrf_mesh_prov_pubkey_provide
                0x0000000000000000       0x10 CMakeFiles/dfu_nrf52840_xxAA_s140_6.0.0.dir/__/__/mesh/prov/src/nrf_mesh_prov.c.obj
 .text          0x0000000000000000        0x0 CMakeFiles/dfu_nrf52840_xxAA_s140_6.0.0.dir/__/__/mesh/prov/src/provisioning.c.obj
 .data          0x0000000000000000        0x0 CMakeFiles/dfu_nrf52840_xxAA_s140_6.0.0.dir/__/__/mesh/prov/src/provisioning.c.obj
 .bss           0x0000000000000000        0x0 CMakeFiles/dfu_nrf52840_xxAA_s140_6.0.0.dir/__/__/mesh/prov/src/provisioning.c.obj
 .text.prov_tx  0x0000000000000000       0x3c CMakeFiles/dfu_nrf52840_xxAA_s140_6.0.0.dir/__/__/mesh/prov/src/provisioning.c.obj
 .text          0x0000000000000000        0x0 CMakeFiles/dfu_nrf52840_xxAA_s140_6.0.0.dir/__/__/mesh/prov/src/prov_beacon.c.obj
 .data          0x0000000000000000        0x0 CMakeFiles/dfu_nrf52840_xxAA_s140_6.0.0.dir/__/__/mesh/prov/src/prov_beacon.c.obj
 .bss           0x0000000000000000        0x0 CMakeFiles/dfu_nrf52840_xxAA_s140_6.0.0.dir/__/__/mesh/prov/src/prov_beacon.c.obj
 .text          0x0000000000000000        0x0 CMakeFiles/dfu_nrf52840_xxAA_s140_6.0.0.dir/__/__/mesh/prov/src/prov_utils.c.obj
 .data          0x0000000000000000        0x0 CMakeFiles/dfu_nrf52840_xxAA_s140_6.0.0.dir/__/__/mesh/prov/src/prov_utils.c.obj
 .bss           0x0000000000000000        0x0 CMakeFiles/dfu_nrf52840_xxAA_s140_6.0.0.dir/__/__/mesh/prov/src/prov_utils.c.obj
 .text          0x0000000000000000        0x0 CMakeFiles/dfu_nrf52840_xxAA_s140_6.0.0.dir/__/__/mesh/prov/src/prov_bearer_adv.c.obj
 .data          0x0000000000000000        0x0 CMakeFiles/dfu_nrf52840_xxAA_s140_6.0.0.dir/__/__/mesh/prov/src/prov_bearer_adv.c.obj
 .bss           0x0000000000000000        0x0 CMakeFiles/dfu_nrf52840_xxAA_s140_6.0.0.dir/__/__/mesh/prov/src/prov_bearer_adv.c.obj
 .text.calculate_3GPP_CRC
                0x0000000000000000       0x28 CMakeFiles/dfu_nrf52840_xxAA_s140_6.0.0.dir/__/__/mesh/prov/src/prov_bearer_adv.c.obj
 .text          0x0000000000000000        0x0 CMakeFiles/dfu_nrf52840_xxAA_s140_6.0.0.dir/__/__/mesh/dfu/src/nrf_mesh_dfu.c.obj
 .data          0x0000000000000000        0x0 CMakeFiles/dfu_nrf52840_xxAA_s140_6.0.0.dir/__/__/mesh/dfu/src/nrf_mesh_dfu.c.obj
 .bss           0x0000000000000000        0x0 CMakeFiles/dfu_nrf52840_xxAA_s140_6.0.0.dir/__/__/mesh/dfu/src/nrf_mesh_dfu.c.obj
 .text          0x0000000000000000        0x0 CMakeFiles/dfu_nrf52840_xxAA_s140_6.0.0.dir/__/nrf_mesh_weak.c.obj
 .data          0x0000000000000000        0x0 CMakeFiles/dfu_nrf52840_xxAA_s140_6.0.0.dir/__/nrf_mesh_weak.c.obj
 .bss           0x0000000000000000        0x0 CMakeFiles/dfu_nrf52840_xxAA_s140_6.0.0.dir/__/nrf_mesh_weak.c.obj
 .text._weak_handler
                0x0000000000000000        0x4 CMakeFiles/dfu_nrf52840_xxAA_s140_6.0.0.dir/__/nrf_mesh_weak.c.obj
 .text._weak_handler_ptr
                0x0000000000000000        0x4 CMakeFiles/dfu_nrf52840_xxAA_s140_6.0.0.dir/__/nrf_mesh_weak.c.obj
 .debug_info    0x0000000000000000      0x91d CMakeFiles/dfu_nrf52840_xxAA_s140_6.0.0.dir/__/nrf_mesh_weak.c.obj
 .debug_abbrev  0x0000000000000000      0x1ae CMakeFiles/dfu_nrf52840_xxAA_s140_6.0.0.dir/__/nrf_mesh_weak.c.obj
 .debug_aranges
                0x0000000000000000       0x28 CMakeFiles/dfu_nrf52840_xxAA_s140_6.0.0.dir/__/nrf_mesh_weak.c.obj
 .debug_ranges  0x0000000000000000       0x18 CMakeFiles/dfu_nrf52840_xxAA_s140_6.0.0.dir/__/nrf_mesh_weak.c.obj
 .debug_line    0x0000000000000000      0x252 CMakeFiles/dfu_nrf52840_xxAA_s140_6.0.0.dir/__/nrf_mesh_weak.c.obj
 .debug_str     0x0000000000000000      0x67c CMakeFiles/dfu_nrf52840_xxAA_s140_6.0.0.dir/__/nrf_mesh_weak.c.obj
 .comment       0x0000000000000000       0x7f CMakeFiles/dfu_nrf52840_xxAA_s140_6.0.0.dir/__/nrf_mesh_weak.c.obj
 .debug_frame   0x0000000000000000       0x30 CMakeFiles/dfu_nrf52840_xxAA_s140_6.0.0.dir/__/nrf_mesh_weak.c.obj
 .ARM.attributes
                0x0000000000000000       0x39 CMakeFiles/dfu_nrf52840_xxAA_s140_6.0.0.dir/__/nrf_mesh_weak.c.obj
 .text          0x0000000000000000        0x0 CMakeFiles/dfu_nrf52840_xxAA_s140_6.0.0.dir/__/common/src/app_error_weak.c.obj
 .data          0x0000000000000000        0x0 CMakeFiles/dfu_nrf52840_xxAA_s140_6.0.0.dir/__/common/src/app_error_weak.c.obj
 .bss           0x0000000000000000        0x0 CMakeFiles/dfu_nrf52840_xxAA_s140_6.0.0.dir/__/common/src/app_error_weak.c.obj
 .text          0x0000000000000000        0x0 CMakeFiles/dfu_nrf52840_xxAA_s140_6.0.0.dir/__/common/src/assertion_handler_weak.c.obj
 .data          0x0000000000000000        0x0 CMakeFiles/dfu_nrf52840_xxAA_s140_6.0.0.dir/__/common/src/assertion_handler_weak.c.obj
 .bss           0x0000000000000000        0x0 CMakeFiles/dfu_nrf52840_xxAA_s140_6.0.0.dir/__/common/src/assertion_handler_weak.c.obj
 .text          0x0000000000000000        0x0 CMakeFiles/dfu_nrf52840_xxAA_s140_6.0.0.dir/__/__/mesh/core/src/internal_event.c.obj
 .data          0x0000000000000000        0x0 CMakeFiles/dfu_nrf52840_xxAA_s140_6.0.0.dir/__/__/mesh/core/src/internal_event.c.obj
 .bss           0x0000000000000000        0x0 CMakeFiles/dfu_nrf52840_xxAA_s140_6.0.0.dir/__/__/mesh/core/src/internal_event.c.obj
 .debug_info    0x0000000000000000      0x8eb CMakeFiles/dfu_nrf52840_xxAA_s140_6.0.0.dir/__/__/mesh/core/src/internal_event.c.obj
 .debug_abbrev  0x0000000000000000      0x192 CMakeFiles/dfu_nrf52840_xxAA_s140_6.0.0.dir/__/__/mesh/core/src/internal_event.c.obj
 .debug_aranges
                0x0000000000000000       0x18 CMakeFiles/dfu_nrf52840_xxAA_s140_6.0.0.dir/__/__/mesh/core/src/internal_event.c.obj
 .debug_line    0x0000000000000000      0x1dc CMakeFiles/dfu_nrf52840_xxAA_s140_6.0.0.dir/__/__/mesh/core/src/internal_event.c.obj
 .debug_str     0x0000000000000000      0x662 CMakeFiles/dfu_nrf52840_xxAA_s140_6.0.0.dir/__/__/mesh/core/src/internal_event.c.obj
 .comment       0x0000000000000000       0x7f CMakeFiles/dfu_nrf52840_xxAA_s140_6.0.0.dir/__/__/mesh/core/src/internal_event.c.obj
 .ARM.attributes
                0x0000000000000000       0x39 CMakeFiles/dfu_nrf52840_xxAA_s140_6.0.0.dir/__/__/mesh/core/src/internal_event.c.obj
 .text          0x0000000000000000        0x0 CMakeFiles/dfu_nrf52840_xxAA_s140_6.0.0.dir/__/__/mesh/core/src/nrf_mesh_configure.c.obj
 .data          0x0000000000000000        0x0 CMakeFiles/dfu_nrf52840_xxAA_s140_6.0.0.dir/__/__/mesh/core/src/nrf_mesh_configure.c.obj
 .bss           0x0000000000000000        0x0 CMakeFiles/dfu_nrf52840_xxAA_s140_6.0.0.dir/__/__/mesh/core/src/nrf_mesh_configure.c.obj
 .text          0x0000000000000000        0x0 CMakeFiles/dfu_nrf52840_xxAA_s140_6.0.0.dir/__/__/mesh/core/src/aes.c.obj
 .data          0x0000000000000000        0x0 CMakeFiles/dfu_nrf52840_xxAA_s140_6.0.0.dir/__/__/mesh/core/src/aes.c.obj
 .bss           0x0000000000000000        0x0 CMakeFiles/dfu_nrf52840_xxAA_s140_6.0.0.dir/__/__/mesh/core/src/aes.c.obj
 .text          0x0000000000000000        0x0 CMakeFiles/dfu_nrf52840_xxAA_s140_6.0.0.dir/__/__/mesh/core/src/msg_cache.c.obj
 .data          0x0000000000000000        0x0 CMakeFiles/dfu_nrf52840_xxAA_s140_6.0.0.dir/__/__/mesh/core/src/msg_cache.c.obj
 .bss           0x0000000000000000        0x0 CMakeFiles/dfu_nrf52840_xxAA_s140_6.0.0.dir/__/__/mesh/core/src/msg_cache.c.obj
 .text.msg_cache_clear
                0x0000000000000000       0x18 CMakeFiles/dfu_nrf52840_xxAA_s140_6.0.0.dir/__/__/mesh/core/src/msg_cache.c.obj
 .text          0x0000000000000000        0x0 CMakeFiles/dfu_nrf52840_xxAA_s140_6.0.0.dir/__/__/mesh/core/src/transport.c.obj
 .data          0x0000000000000000        0x0 CMakeFiles/dfu_nrf52840_xxAA_s140_6.0.0.dir/__/__/mesh/core/src/transport.c.obj
 .bss           0x0000000000000000        0x0 CMakeFiles/dfu_nrf52840_xxAA_s140_6.0.0.dir/__/__/mesh/core/src/transport.c.obj
 .text.transport_sar_mem_funcs_set
                0x0000000000000000       0x64 CMakeFiles/dfu_nrf52840_xxAA_s140_6.0.0.dir/__/__/mesh/core/src/transport.c.obj
 .text.transport_sar_mem_funcs_reset
                0x0000000000000000       0x30 CMakeFiles/dfu_nrf52840_xxAA_s140_6.0.0.dir/__/__/mesh/core/src/transport.c.obj
 .text          0x0000000000000000        0x0 CMakeFiles/dfu_nrf52840_xxAA_s140_6.0.0.dir/__/__/mesh/core/src/event.c.obj
 .data          0x0000000000000000        0x0 CMakeFiles/dfu_nrf52840_xxAA_s140_6.0.0.dir/__/__/mesh/core/src/event.c.obj
 .bss           0x0000000000000000        0x0 CMakeFiles/dfu_nrf52840_xxAA_s140_6.0.0.dir/__/__/mesh/core/src/event.c.obj
 .text          0x0000000000000000        0x0 CMakeFiles/dfu_nrf52840_xxAA_s140_6.0.0.dir/__/__/mesh/core/src/packet_buffer.c.obj
 .data          0x0000000000000000        0x0 CMakeFiles/dfu_nrf52840_xxAA_s140_6.0.0.dir/__/__/mesh/core/src/packet_buffer.c.obj
 .bss           0x0000000000000000        0x0 CMakeFiles/dfu_nrf52840_xxAA_s140_6.0.0.dir/__/__/mesh/core/src/packet_buffer.c.obj
 .text          0x0000000000000000        0x0 CMakeFiles/dfu_nrf52840_xxAA_s140_6.0.0.dir/__/__/mesh/core/src/flash_manager_defrag.c.obj
 .data          0x0000000000000000        0x0 CMakeFiles/dfu_nrf52840_xxAA_s140_6.0.0.dir/__/__/mesh/core/src/flash_manager_defrag.c.obj
 .bss           0x0000000000000000        0x0 CMakeFiles/dfu_nrf52840_xxAA_s140_6.0.0.dir/__/__/mesh/core/src/flash_manager_defrag.c.obj
 .text.flash_manager_defragging
                0x0000000000000000       0x44 CMakeFiles/dfu_nrf52840_xxAA_s140_6.0.0.dir/__/__/mesh/core/src/flash_manager_defrag.c.obj
 .text          0x0000000000000000        0x0 CMakeFiles/dfu_nrf52840_xxAA_s140_6.0.0.dir/__/__/mesh/core/src/fifo.c.obj
 .data          0x0000000000000000        0x0 CMakeFiles/dfu_nrf52840_xxAA_s140_6.0.0.dir/__/__/mesh/core/src/fifo.c.obj
 .bss           0x0000000000000000        0x0 CMakeFiles/dfu_nrf52840_xxAA_s140_6.0.0.dir/__/__/mesh/core/src/fifo.c.obj
 .text.fifo_peek_at
                0x0000000000000000       0x58 CMakeFiles/dfu_nrf52840_xxAA_s140_6.0.0.dir/__/__/mesh/core/src/fifo.c.obj
 .text.fifo_peek
                0x0000000000000000       0x54 CMakeFiles/dfu_nrf52840_xxAA_s140_6.0.0.dir/__/__/mesh/core/src/fifo.c.obj
 .text.fifo_flush
                0x0000000000000000        0x8 CMakeFiles/dfu_nrf52840_xxAA_s140_6.0.0.dir/__/__/mesh/core/src/fifo.c.obj
 .text.fifo_get_len
                0x0000000000000000        0x8 CMakeFiles/dfu_nrf52840_xxAA_s140_6.0.0.dir/__/__/mesh/core/src/fifo.c.obj
 .text.fifo_is_full
                0x0000000000000000       0x14 CMakeFiles/dfu_nrf52840_xxAA_s140_6.0.0.dir/__/__/mesh/core/src/fifo.c.obj
 .text.fifo_is_empty
                0x0000000000000000       0x10 CMakeFiles/dfu_nrf52840_xxAA_s140_6.0.0.dir/__/__/mesh/core/src/fifo.c.obj
 .text          0x0000000000000000        0x0 CMakeFiles/dfu_nrf52840_xxAA_s140_6.0.0.dir/__/__/mesh/core/src/nrf_flash.c.obj
 .data          0x0000000000000000        0x0 CMakeFiles/dfu_nrf52840_xxAA_s140_6.0.0.dir/__/__/mesh/core/src/nrf_flash.c.obj
 .bss           0x0000000000000000        0x0 CMakeFiles/dfu_nrf52840_xxAA_s140_6.0.0.dir/__/__/mesh/core/src/nrf_flash.c.obj
 .text          0x0000000000000000        0x0 CMakeFiles/dfu_nrf52840_xxAA_s140_6.0.0.dir/__/__/mesh/core/src/packet_mgr.c.obj
 .data          0x0000000000000000        0x0 CMakeFiles/dfu_nrf52840_xxAA_s140_6.0.0.dir/__/__/mesh/core/src/packet_mgr.c.obj
 .bss           0x0000000000000000        0x0 CMakeFiles/dfu_nrf52840_xxAA_s140_6.0.0.dir/__/__/mesh/core/src/packet_mgr.c.obj
 .text.packet_mgr_alloc
                0x0000000000000000      0x1a4 CMakeFiles/dfu_nrf52840_xxAA_s140_6.0.0.dir/__/__/mesh/core/src/packet_mgr.c.obj
 .text.packet_mgr_free
                0x0000000000000000       0x5c CMakeFiles/dfu_nrf52840_xxAA_s140_6.0.0.dir/__/__/mesh/core/src/packet_mgr.c.obj
 .text.packet_mgr_get_free_space
                0x0000000000000000       0x1c CMakeFiles/dfu_nrf52840_xxAA_s140_6.0.0.dir/__/__/mesh/core/src/packet_mgr.c.obj
 .text.packet_mgr_refcount_get
                0x0000000000000000        0x8 CMakeFiles/dfu_nrf52840_xxAA_s140_6.0.0.dir/__/__/mesh/core/src/packet_mgr.c.obj
 .text.packet_mgr_size_get
                0x0000000000000000        0x8 CMakeFiles/dfu_nrf52840_xxAA_s140_6.0.0.dir/__/__/mesh/core/src/packet_mgr.c.obj
 .text          0x0000000000000000        0x0 CMakeFiles/dfu_nrf52840_xxAA_s140_6.0.0.dir/__/__/mesh/core/src/net_state.c.obj
 .data          0x0000000000000000        0x0 CMakeFiles/dfu_nrf52840_xxAA_s140_6.0.0.dir/__/__/mesh/core/src/net_state.c.obj
 .bss           0x0000000000000000        0x0 CMakeFiles/dfu_nrf52840_xxAA_s140_6.0.0.dir/__/__/mesh/core/src/net_state.c.obj
 .text.net_state_iv_update_start
                0x0000000000000000       0x94 CMakeFiles/dfu_nrf52840_xxAA_s140_6.0.0.dir/__/__/mesh/core/src/net_state.c.obj
 .text.net_state_iv_update_test_mode_set
                0x0000000000000000        0xc CMakeFiles/dfu_nrf52840_xxAA_s140_6.0.0.dir/__/__/mesh/core/src/net_state.c.obj
 .text.net_state_test_mode_transition_run
                0x0000000000000000      0x170 CMakeFiles/dfu_nrf52840_xxAA_s140_6.0.0.dir/__/__/mesh/core/src/net_state.c.obj
 .text          0x0000000000000000        0x0 CMakeFiles/dfu_nrf52840_xxAA_s140_6.0.0.dir/__/__/mesh/core/src/mesh_flash.c.obj
 .data          0x0000000000000000        0x0 CMakeFiles/dfu_nrf52840_xxAA_s140_6.0.0.dir/__/__/mesh/core/src/mesh_flash.c.obj
 .bss           0x0000000000000000        0x0 CMakeFiles/dfu_nrf52840_xxAA_s140_6.0.0.dir/__/__/mesh/core/src/mesh_flash.c.obj
 .text.mesh_flash_op_available_slots
                0x0000000000000000       0x2c CMakeFiles/dfu_nrf52840_xxAA_s140_6.0.0.dir/__/__/mesh/core/src/mesh_flash.c.obj
 .text          0x0000000000000000        0x0 CMakeFiles/dfu_nrf52840_xxAA_s140_6.0.0.dir/__/__/mesh/core/src/nrf_mesh_utils.c.obj
 .data          0x0000000000000000        0x0 CMakeFiles/dfu_nrf52840_xxAA_s140_6.0.0.dir/__/__/mesh/core/src/nrf_mesh_utils.c.obj
 .bss           0x0000000000000000        0x0 CMakeFiles/dfu_nrf52840_xxAA_s140_6.0.0.dir/__/__/mesh/core/src/nrf_mesh_utils.c.obj
 .text.nrf_mesh_rand_get
                0x0000000000000000       0x10 CMakeFiles/dfu_nrf52840_xxAA_s140_6.0.0.dir/__/__/mesh/core/src/nrf_mesh_utils.c.obj
 .text.nrf_mesh_gap_address_type_get
                0x0000000000000000       0x34 CMakeFiles/dfu_nrf52840_xxAA_s140_6.0.0.dir/__/__/mesh/core/src/nrf_mesh_utils.c.obj
 .text          0x0000000000000000        0x0 CMakeFiles/dfu_nrf52840_xxAA_s140_6.0.0.dir/__/__/mesh/core/src/nrf_mesh.c.obj
 .data          0x0000000000000000        0x0 CMakeFiles/dfu_nrf52840_xxAA_s140_6.0.0.dir/__/__/mesh/core/src/nrf_mesh.c.obj
 .bss           0x0000000000000000        0x0 CMakeFiles/dfu_nrf52840_xxAA_s140_6.0.0.dir/__/__/mesh/core/src/nrf_mesh.c.obj
 .text.nrf_mesh_process
                0x0000000000000000        0x4 CMakeFiles/dfu_nrf52840_xxAA_s140_6.0.0.dir/__/__/mesh/core/src/nrf_mesh.c.obj
 .text.nrf_mesh_evt_handler_remove
                0x0000000000000000        0x4 CMakeFiles/dfu_nrf52840_xxAA_s140_6.0.0.dir/__/__/mesh/core/src/nrf_mesh.c.obj
 .text.nrf_mesh_rx_cb_set
                0x0000000000000000        0xc CMakeFiles/dfu_nrf52840_xxAA_s140_6.0.0.dir/__/__/mesh/core/src/nrf_mesh.c.obj
 .text.nrf_mesh_rx_cb_clear
                0x0000000000000000        0xc CMakeFiles/dfu_nrf52840_xxAA_s140_6.0.0.dir/__/__/mesh/core/src/nrf_mesh.c.obj
 .text          0x0000000000000000        0x0 CMakeFiles/dfu_nrf52840_xxAA_s140_6.0.0.dir/__/__/mesh/core/src/queue.c.obj
 .data          0x0000000000000000        0x0 CMakeFiles/dfu_nrf52840_xxAA_s140_6.0.0.dir/__/__/mesh/core/src/queue.c.obj
 .bss           0x0000000000000000        0x0 CMakeFiles/dfu_nrf52840_xxAA_s140_6.0.0.dir/__/__/mesh/core/src/queue.c.obj
 .text          0x0000000000000000        0x0 CMakeFiles/dfu_nrf52840_xxAA_s140_6.0.0.dir/__/__/mesh/core/src/hal.c.obj
 .data          0x0000000000000000        0x0 CMakeFiles/dfu_nrf52840_xxAA_s140_6.0.0.dir/__/__/mesh/core/src/hal.c.obj
 .bss           0x0000000000000000        0x0 CMakeFiles/dfu_nrf52840_xxAA_s140_6.0.0.dir/__/__/mesh/core/src/hal.c.obj
 .text          0x0000000000000000        0x0 CMakeFiles/dfu_nrf52840_xxAA_s140_6.0.0.dir/__/__/mesh/core/src/aes_cmac.c.obj
 .data          0x0000000000000000        0x0 CMakeFiles/dfu_nrf52840_xxAA_s140_6.0.0.dir/__/__/mesh/core/src/aes_cmac.c.obj
 .bss           0x0000000000000000        0x0 CMakeFiles/dfu_nrf52840_xxAA_s140_6.0.0.dir/__/__/mesh/core/src/aes_cmac.c.obj
 .text          0x0000000000000000        0x0 CMakeFiles/dfu_nrf52840_xxAA_s140_6.0.0.dir/__/__/mesh/core/src/timer_scheduler.c.obj
 .data          0x0000000000000000        0x0 CMakeFiles/dfu_nrf52840_xxAA_s140_6.0.0.dir/__/__/mesh/core/src/timer_scheduler.c.obj
 .bss           0x0000000000000000        0x0 CMakeFiles/dfu_nrf52840_xxAA_s140_6.0.0.dir/__/__/mesh/core/src/timer_scheduler.c.obj
 .text          0x0000000000000000        0x0 CMakeFiles/dfu_nrf52840_xxAA_s140_6.0.0.dir/__/__/mesh/core/src/timer.c.obj
 .data          0x0000000000000000        0x0 CMakeFiles/dfu_nrf52840_xxAA_s140_6.0.0.dir/__/__/mesh/core/src/timer.c.obj
 .bss           0x0000000000000000        0x0 CMakeFiles/dfu_nrf52840_xxAA_s140_6.0.0.dir/__/__/mesh/core/src/timer.c.obj
 .text.timer_order_cb_ppi
                0x0000000000000000       0xd8 CMakeFiles/dfu_nrf52840_xxAA_s140_6.0.0.dir/__/__/mesh/core/src/timer.c.obj
 .text.timer_order_ppi
                0x0000000000000000       0xcc CMakeFiles/dfu_nrf52840_xxAA_s140_6.0.0.dir/__/__/mesh/core/src/timer.c.obj
 .text.timer_abort
                0x0000000000000000       0x84 CMakeFiles/dfu_nrf52840_xxAA_s140_6.0.0.dir/__/__/mesh/core/src/timer.c.obj
 .text          0x0000000000000000        0x0 CMakeFiles/dfu_nrf52840_xxAA_s140_6.0.0.dir/__/__/mesh/core/src/ticker.c.obj
 .data          0x0000000000000000        0x0 CMakeFiles/dfu_nrf52840_xxAA_s140_6.0.0.dir/__/__/mesh/core/src/ticker.c.obj
 .bss           0x0000000000000000        0x0 CMakeFiles/dfu_nrf52840_xxAA_s140_6.0.0.dir/__/__/mesh/core/src/ticker.c.obj
 .text.ticker_get
                0x0000000000000000        0xc CMakeFiles/dfu_nrf52840_xxAA_s140_6.0.0.dir/__/__/mesh/core/src/ticker.c.obj
 .text          0x0000000000000000        0x0 CMakeFiles/dfu_nrf52840_xxAA_s140_6.0.0.dir/__/__/mesh/core/src/rand.c.obj
 .data          0x0000000000000000        0x0 CMakeFiles/dfu_nrf52840_xxAA_s140_6.0.0.dir/__/__/mesh/core/src/rand.c.obj
 .bss           0x0000000000000000        0x0 CMakeFiles/dfu_nrf52840_xxAA_s140_6.0.0.dir/__/__/mesh/core/src/rand.c.obj
 .text          0x0000000000000000        0x0 CMakeFiles/dfu_nrf52840_xxAA_s140_6.0.0.dir/__/__/mesh/core/src/nrf_mesh_opt.c.obj
 .data          0x0000000000000000        0x0 CMakeFiles/dfu_nrf52840_xxAA_s140_6.0.0.dir/__/__/mesh/core/src/nrf_mesh_opt.c.obj
 .bss           0x0000000000000000        0x0 CMakeFiles/dfu_nrf52840_xxAA_s140_6.0.0.dir/__/__/mesh/core/src/nrf_mesh_opt.c.obj
 .text          0x0000000000000000        0x0 CMakeFiles/dfu_nrf52840_xxAA_s140_6.0.0.dir/__/__/mesh/core/src/timeslot.c.obj
 .data          0x0000000000000000        0x0 CMakeFiles/dfu_nrf52840_xxAA_s140_6.0.0.dir/__/__/mesh/core/src/timeslot.c.obj
 .bss           0x0000000000000000        0x0 CMakeFiles/dfu_nrf52840_xxAA_s140_6.0.0.dir/__/__/mesh/core/src/timeslot.c.obj
 .text.timeslot_restart
                0x0000000000000000       0x30 CMakeFiles/dfu_nrf52840_xxAA_s140_6.0.0.dir/__/__/mesh/core/src/timeslot.c.obj
 .text.timeslot_end_time_get
                0x0000000000000000       0x30 CMakeFiles/dfu_nrf52840_xxAA_s140_6.0.0.dir/__/__/mesh/core/src/timeslot.c.obj
 .text.timeslot_is_in_ts
                0x0000000000000000        0xc CMakeFiles/dfu_nrf52840_xxAA_s140_6.0.0.dir/__/__/mesh/core/src/timeslot.c.obj
 .text          0x0000000000000000        0x0 CMakeFiles/dfu_nrf52840_xxAA_s140_6.0.0.dir/__/__/mesh/core/src/bearer_event.c.obj
 .data          0x0000000000000000        0x0 CMakeFiles/dfu_nrf52840_xxAA_s140_6.0.0.dir/__/__/mesh/core/src/bearer_event.c.obj
 .bss           0x0000000000000000        0x0 CMakeFiles/dfu_nrf52840_xxAA_s140_6.0.0.dir/__/__/mesh/core/src/bearer_event.c.obj
 .text.bearer_event_timer_sch_post
                0x0000000000000000       0x54 CMakeFiles/dfu_nrf52840_xxAA_s140_6.0.0.dir/__/__/mesh/core/src/bearer_event.c.obj
 .text.bearer_event_in_correct_irq_priority
                0x0000000000000000       0x58 CMakeFiles/dfu_nrf52840_xxAA_s140_6.0.0.dir/__/__/mesh/core/src/bearer_event.c.obj
 .text          0x0000000000000000        0x0 CMakeFiles/dfu_nrf52840_xxAA_s140_6.0.0.dir/__/__/mesh/core/src/enc.c.obj
 .data          0x0000000000000000        0x0 CMakeFiles/dfu_nrf52840_xxAA_s140_6.0.0.dir/__/__/mesh/core/src/enc.c.obj
 .bss           0x0000000000000000        0x0 CMakeFiles/dfu_nrf52840_xxAA_s140_6.0.0.dir/__/__/mesh/core/src/enc.c.obj
 .text.enc_key_generate
                0x0000000000000000        0x8 CMakeFiles/dfu_nrf52840_xxAA_s140_6.0.0.dir/__/__/mesh/core/src/enc.c.obj
 .text          0x0000000000000000        0x0 CMakeFiles/dfu_nrf52840_xxAA_s140_6.0.0.dir/__/__/mesh/core/src/network.c.obj
 .data          0x0000000000000000        0x0 CMakeFiles/dfu_nrf52840_xxAA_s140_6.0.0.dir/__/__/mesh/core/src/network.c.obj
 .bss           0x0000000000000000        0x0 CMakeFiles/dfu_nrf52840_xxAA_s140_6.0.0.dir/__/__/mesh/core/src/network.c.obj
 .text.network_packet_discard
                0x0000000000000000       0x28 CMakeFiles/dfu_nrf52840_xxAA_s140_6.0.0.dir/__/__/mesh/core/src/network.c.obj
 .text          0x0000000000000000        0x0 CMakeFiles/dfu_nrf52840_xxAA_s140_6.0.0.dir/__/__/mesh/core/src/net_packet.c.obj
 .data          0x0000000000000000        0x0 CMakeFiles/dfu_nrf52840_xxAA_s140_6.0.0.dir/__/__/mesh/core/src/net_packet.c.obj
 .bss           0x0000000000000000        0x0 CMakeFiles/dfu_nrf52840_xxAA_s140_6.0.0.dir/__/__/mesh/core/src/net_packet.c.obj
 .text.net_packet_enc_start_get
                0x0000000000000000        0x4 CMakeFiles/dfu_nrf52840_xxAA_s140_6.0.0.dir/__/__/mesh/core/src/net_packet.c.obj
 .text.net_packet_payload_get
                0x0000000000000000        0x4 CMakeFiles/dfu_nrf52840_xxAA_s140_6.0.0.dir/__/__/mesh/core/src/net_packet.c.obj
 .text          0x0000000000000000        0x0 CMakeFiles/dfu_nrf52840_xxAA_s140_6.0.0.dir/__/__/mesh/core/src/msqueue.c.obj
 .data          0x0000000000000000        0x0 CMakeFiles/dfu_nrf52840_xxAA_s140_6.0.0.dir/__/__/mesh/core/src/msqueue.c.obj
 .bss           0x0000000000000000        0x0 CMakeFiles/dfu_nrf52840_xxAA_s140_6.0.0.dir/__/__/mesh/core/src/msqueue.c.obj
 .text.msq_reset
                0x0000000000000000       0x24 CMakeFiles/dfu_nrf52840_xxAA_s140_6.0.0.dir/__/__/mesh/core/src/msqueue.c.obj
 .text          0x0000000000000000        0x0 CMakeFiles/dfu_nrf52840_xxAA_s140_6.0.0.dir/__/__/mesh/core/src/nrf_mesh_keygen.c.obj
 .data          0x0000000000000000        0x0 CMakeFiles/dfu_nrf52840_xxAA_s140_6.0.0.dir/__/__/mesh/core/src/nrf_mesh_keygen.c.obj
 .bss           0x0000000000000000        0x0 CMakeFiles/dfu_nrf52840_xxAA_s140_6.0.0.dir/__/__/mesh/core/src/nrf_mesh_keygen.c.obj
 .text.nrf_mesh_keygen_identitykey
                0x0000000000000000       0x4c CMakeFiles/dfu_nrf52840_xxAA_s140_6.0.0.dir/__/__/mesh/core/src/nrf_mesh_keygen.c.obj
 .text          0x0000000000000000        0x0 CMakeFiles/dfu_nrf52840_xxAA_s140_6.0.0.dir/__/__/mesh/core/src/cache.c.obj
 .data          0x0000000000000000        0x0 CMakeFiles/dfu_nrf52840_xxAA_s140_6.0.0.dir/__/__/mesh/core/src/cache.c.obj
 .bss           0x0000000000000000        0x0 CMakeFiles/dfu_nrf52840_xxAA_s140_6.0.0.dir/__/__/mesh/core/src/cache.c.obj
 .text.cache_init
                0x0000000000000000       0x40 CMakeFiles/dfu_nrf52840_xxAA_s140_6.0.0.dir/__/__/mesh/core/src/cache.c.obj
 .text.cache_has_elem
                0x0000000000000000       0x54 CMakeFiles/dfu_nrf52840_xxAA_s140_6.0.0.dir/__/__/mesh/core/src/cache.c.obj
 .text.cache_put
                0x0000000000000000       0x2c CMakeFiles/dfu_nrf52840_xxAA_s140_6.0.0.dir/__/__/mesh/core/src/cache.c.obj
 .text.cache_erase_elem
                0x0000000000000000       0x6c CMakeFiles/dfu_nrf52840_xxAA_s140_6.0.0.dir/__/__/mesh/core/src/cache.c.obj
 .debug_info    0x0000000000000000      0xbf9 CMakeFiles/dfu_nrf52840_xxAA_s140_6.0.0.dir/__/__/mesh/core/src/cache.c.obj
 .debug_abbrev  0x0000000000000000      0x2e2 CMakeFiles/dfu_nrf52840_xxAA_s140_6.0.0.dir/__/__/mesh/core/src/cache.c.obj
 .debug_loc     0x0000000000000000      0x3dc CMakeFiles/dfu_nrf52840_xxAA_s140_6.0.0.dir/__/__/mesh/core/src/cache.c.obj
 .debug_aranges
                0x0000000000000000       0x38 CMakeFiles/dfu_nrf52840_xxAA_s140_6.0.0.dir/__/__/mesh/core/src/cache.c.obj
 .debug_ranges  0x0000000000000000       0xb0 CMakeFiles/dfu_nrf52840_xxAA_s140_6.0.0.dir/__/__/mesh/core/src/cache.c.obj
 .debug_line    0x0000000000000000      0x255 CMakeFiles/dfu_nrf52840_xxAA_s140_6.0.0.dir/__/__/mesh/core/src/cache.c.obj
 .debug_str     0x0000000000000000      0x70f CMakeFiles/dfu_nrf52840_xxAA_s140_6.0.0.dir/__/__/mesh/core/src/cache.c.obj
 .comment       0x0000000000000000       0x7f CMakeFiles/dfu_nrf52840_xxAA_s140_6.0.0.dir/__/__/mesh/core/src/cache.c.obj
 .debug_frame   0x0000000000000000       0x90 CMakeFiles/dfu_nrf52840_xxAA_s140_6.0.0.dir/__/__/mesh/core/src/cache.c.obj
 .ARM.attributes
                0x0000000000000000       0x39 CMakeFiles/dfu_nrf52840_xxAA_s140_6.0.0.dir/__/__/mesh/core/src/cache.c.obj
 .text          0x0000000000000000        0x0 CMakeFiles/dfu_nrf52840_xxAA_s140_6.0.0.dir/__/__/mesh/core/src/uri.c.obj
 .data          0x0000000000000000        0x0 CMakeFiles/dfu_nrf52840_xxAA_s140_6.0.0.dir/__/__/mesh/core/src/uri.c.obj
 .bss           0x0000000000000000        0x0 CMakeFiles/dfu_nrf52840_xxAA_s140_6.0.0.dir/__/__/mesh/core/src/uri.c.obj
 .text.uri_data_generate
                0x0000000000000000       0x88 CMakeFiles/dfu_nrf52840_xxAA_s140_6.0.0.dir/__/__/mesh/core/src/uri.c.obj
 .text.uri_data_parse
                0x0000000000000000       0x84 CMakeFiles/dfu_nrf52840_xxAA_s140_6.0.0.dir/__/__/mesh/core/src/uri.c.obj
 .text.uri_scheme_name_code_point
                0x0000000000000000       0x5c CMakeFiles/dfu_nrf52840_xxAA_s140_6.0.0.dir/__/__/mesh/core/src/uri.c.obj
 .text.uri_scheme_name_string
                0x0000000000000000       0x14 CMakeFiles/dfu_nrf52840_xxAA_s140_6.0.0.dir/__/__/mesh/core/src/uri.c.obj
 .rodata.m_code_point_strings
                0x0000000000000000      0x2ec CMakeFiles/dfu_nrf52840_xxAA_s140_6.0.0.dir/__/__/mesh/core/src/uri.c.obj
 .rodata.str1.4
                0x0000000000000000      0x6ba CMakeFiles/dfu_nrf52840_xxAA_s140_6.0.0.dir/__/__/mesh/core/src/uri.c.obj
 .debug_info    0x0000000000000000      0xd55 CMakeFiles/dfu_nrf52840_xxAA_s140_6.0.0.dir/__/__/mesh/core/src/uri.c.obj
 .debug_abbrev  0x0000000000000000      0x331 CMakeFiles/dfu_nrf52840_xxAA_s140_6.0.0.dir/__/__/mesh/core/src/uri.c.obj
 .debug_loc     0x0000000000000000      0x38d CMakeFiles/dfu_nrf52840_xxAA_s140_6.0.0.dir/__/__/mesh/core/src/uri.c.obj
 .debug_aranges
                0x0000000000000000       0x38 CMakeFiles/dfu_nrf52840_xxAA_s140_6.0.0.dir/__/__/mesh/core/src/uri.c.obj
 .debug_ranges  0x0000000000000000       0x58 CMakeFiles/dfu_nrf52840_xxAA_s140_6.0.0.dir/__/__/mesh/core/src/uri.c.obj
 .debug_line    0x0000000000000000      0x322 CMakeFiles/dfu_nrf52840_xxAA_s140_6.0.0.dir/__/__/mesh/core/src/uri.c.obj
 .debug_str     0x0000000000000000      0x73d CMakeFiles/dfu_nrf52840_xxAA_s140_6.0.0.dir/__/__/mesh/core/src/uri.c.obj
 .comment       0x0000000000000000       0x7f CMakeFiles/dfu_nrf52840_xxAA_s140_6.0.0.dir/__/__/mesh/core/src/uri.c.obj
 .debug_frame   0x0000000000000000       0x8c CMakeFiles/dfu_nrf52840_xxAA_s140_6.0.0.dir/__/__/mesh/core/src/uri.c.obj
 .ARM.attributes
                0x0000000000000000       0x39 CMakeFiles/dfu_nrf52840_xxAA_s140_6.0.0.dir/__/__/mesh/core/src/uri.c.obj
 .text          0x0000000000000000        0x0 CMakeFiles/dfu_nrf52840_xxAA_s140_6.0.0.dir/__/__/mesh/core/src/list.c.obj
 .data          0x0000000000000000        0x0 CMakeFiles/dfu_nrf52840_xxAA_s140_6.0.0.dir/__/__/mesh/core/src/list.c.obj
 .bss           0x0000000000000000        0x0 CMakeFiles/dfu_nrf52840_xxAA_s140_6.0.0.dir/__/__/mesh/core/src/list.c.obj
 .text.list_size_get
                0x0000000000000000       0x14 CMakeFiles/dfu_nrf52840_xxAA_s140_6.0.0.dir/__/__/mesh/core/src/list.c.obj
 .text.list_sorted_add
                0x0000000000000000       0x88 CMakeFiles/dfu_nrf52840_xxAA_s140_6.0.0.dir/__/__/mesh/core/src/list.c.obj
 .text          0x0000000000000000        0x0 CMakeFiles/dfu_nrf52840_xxAA_s140_6.0.0.dir/__/__/mesh/core/src/log.c.obj
 .data          0x0000000000000000        0x0 CMakeFiles/dfu_nrf52840_xxAA_s140_6.0.0.dir/__/__/mesh/core/src/log.c.obj
 .bss           0x0000000000000000        0x0 CMakeFiles/dfu_nrf52840_xxAA_s140_6.0.0.dir/__/__/mesh/core/src/log.c.obj
 .text.log_callback_logview
                0x0000000000000000       0x38 CMakeFiles/dfu_nrf52840_xxAA_s140_6.0.0.dir/__/__/mesh/core/src/log.c.obj
 .text.log_set_callback
                0x0000000000000000        0xc CMakeFiles/dfu_nrf52840_xxAA_s140_6.0.0.dir/__/__/mesh/core/src/log.c.obj
 .text.log_vprintf
                0x0000000000000000       0x1c CMakeFiles/dfu_nrf52840_xxAA_s140_6.0.0.dir/__/__/mesh/core/src/log.c.obj
 .rodata.log_callback_logview.str1.4
                0x0000000000000000       0x12 CMakeFiles/dfu_nrf52840_xxAA_s140_6.0.0.dir/__/__/mesh/core/src/log.c.obj
 .text          0x0000000000000000        0x0 CMakeFiles/dfu_nrf52840_xxAA_s140_6.0.0.dir/__/__/mesh/core/src/flash_manager.c.obj
 .data          0x0000000000000000        0x0 CMakeFiles/dfu_nrf52840_xxAA_s140_6.0.0.dir/__/__/mesh/core/src/flash_manager.c.obj
 .bss           0x0000000000000000        0x0 CMakeFiles/dfu_nrf52840_xxAA_s140_6.0.0.dir/__/__/mesh/core/src/flash_manager.c.obj
 .text.flash_manager_entry_count_get
                0x0000000000000000       0xfc CMakeFiles/dfu_nrf52840_xxAA_s140_6.0.0.dir/__/__/mesh/core/src/flash_manager.c.obj
 .text.flash_manager_entry_release
                0x0000000000000000       0x74 CMakeFiles/dfu_nrf52840_xxAA_s140_6.0.0.dir/__/__/mesh/core/src/flash_manager.c.obj
 .text          0x0000000000000000        0x0 CMakeFiles/dfu_nrf52840_xxAA_s140_6.0.0.dir/__/__/mesh/core/src/ccm_soft.c.obj
 .data          0x0000000000000000        0x0 CMakeFiles/dfu_nrf52840_xxAA_s140_6.0.0.dir/__/__/mesh/core/src/ccm_soft.c.obj
 .bss           0x0000000000000000        0x0 CMakeFiles/dfu_nrf52840_xxAA_s140_6.0.0.dir/__/__/mesh/core/src/ccm_soft.c.obj
 .text          0x0000000000000000        0x0 CMakeFiles/dfu_nrf52840_xxAA_s140_6.0.0.dir/__/__/mesh/core/src/toolchain.c.obj
 .data          0x0000000000000000        0x0 CMakeFiles/dfu_nrf52840_xxAA_s140_6.0.0.dir/__/__/mesh/core/src/toolchain.c.obj
 .bss           0x0000000000000000        0x0 CMakeFiles/dfu_nrf52840_xxAA_s140_6.0.0.dir/__/__/mesh/core/src/toolchain.c.obj
 .debug_info    0x0000000000000000       0xac CMakeFiles/dfu_nrf52840_xxAA_s140_6.0.0.dir/__/__/mesh/core/src/toolchain.c.obj
 .debug_abbrev  0x0000000000000000       0x5c CMakeFiles/dfu_nrf52840_xxAA_s140_6.0.0.dir/__/__/mesh/core/src/toolchain.c.obj
 .debug_aranges
                0x0000000000000000       0x18 CMakeFiles/dfu_nrf52840_xxAA_s140_6.0.0.dir/__/__/mesh/core/src/toolchain.c.obj
 .debug_line    0x0000000000000000      0x131 CMakeFiles/dfu_nrf52840_xxAA_s140_6.0.0.dir/__/__/mesh/core/src/toolchain.c.obj
 .debug_str     0x0000000000000000      0x25a CMakeFiles/dfu_nrf52840_xxAA_s140_6.0.0.dir/__/__/mesh/core/src/toolchain.c.obj
 .comment       0x0000000000000000       0x7f CMakeFiles/dfu_nrf52840_xxAA_s140_6.0.0.dir/__/__/mesh/core/src/toolchain.c.obj
 .ARM.attributes
                0x0000000000000000       0x39 CMakeFiles/dfu_nrf52840_xxAA_s140_6.0.0.dir/__/__/mesh/core/src/toolchain.c.obj
 .text          0x0000000000000000        0x0 CMakeFiles/dfu_nrf52840_xxAA_s140_6.0.0.dir/__/__/mesh/core/src/replay_cache.c.obj
 .data          0x0000000000000000        0x0 CMakeFiles/dfu_nrf52840_xxAA_s140_6.0.0.dir/__/__/mesh/core/src/replay_cache.c.obj
 .bss           0x0000000000000000        0x0 CMakeFiles/dfu_nrf52840_xxAA_s140_6.0.0.dir/__/__/mesh/core/src/replay_cache.c.obj
 .text.replay_cache_on_iv_update
                0x0000000000000000       0x2c CMakeFiles/dfu_nrf52840_xxAA_s140_6.0.0.dir/__/__/mesh/core/src/replay_cache.c.obj
 .text.replay_cache_clear
                0x0000000000000000       0x20 CMakeFiles/dfu_nrf52840_xxAA_s140_6.0.0.dir/__/__/mesh/core/src/replay_cache.c.obj
 .text          0x0000000000000000        0x0 CMakeFiles/dfu_nrf52840_xxAA_s140_6.0.0.dir/__/__/mesh/core/src/beacon.c.obj
 .data          0x0000000000000000        0x0 CMakeFiles/dfu_nrf52840_xxAA_s140_6.0.0.dir/__/__/mesh/core/src/beacon.c.obj
 .bss           0x0000000000000000        0x0 CMakeFiles/dfu_nrf52840_xxAA_s140_6.0.0.dir/__/__/mesh/core/src/beacon.c.obj
 .text          0x0000000000000000        0x0 CMakeFiles/dfu_nrf52840_xxAA_s140_6.0.0.dir/__/__/mesh/core/src/flash_manager_internal.c.obj
 .data          0x0000000000000000        0x0 CMakeFiles/dfu_nrf52840_xxAA_s140_6.0.0.dir/__/__/mesh/core/src/flash_manager_internal.c.obj
 .bss           0x0000000000000000        0x0 CMakeFiles/dfu_nrf52840_xxAA_s140_6.0.0.dir/__/__/mesh/core/src/flash_manager_internal.c.obj
 .text          0x0000000000000000        0x0 CMakeFiles/dfu_nrf52840_xxAA_s140_6.0.0.dir/__/__/mesh/core/src/core_tx.c.obj
 .data          0x0000000000000000        0x0 CMakeFiles/dfu_nrf52840_xxAA_s140_6.0.0.dir/__/__/mesh/core/src/core_tx.c.obj
 .bss           0x0000000000000000        0x0 CMakeFiles/dfu_nrf52840_xxAA_s140_6.0.0.dir/__/__/mesh/core/src/core_tx.c.obj
 .text.core_tx_bearer_type_get
                0x0000000000000000       0x2c CMakeFiles/dfu_nrf52840_xxAA_s140_6.0.0.dir/__/__/mesh/core/src/core_tx.c.obj
 .text.core_tx_bearer_count_get
                0x0000000000000000        0xc CMakeFiles/dfu_nrf52840_xxAA_s140_6.0.0.dir/__/__/mesh/core/src/core_tx.c.obj
 .text          0x0000000000000000        0x0 CMakeFiles/dfu_nrf52840_xxAA_s140_6.0.0.dir/__/__/mesh/core/src/heartbeat.c.obj
 .data          0x0000000000000000        0x0 CMakeFiles/dfu_nrf52840_xxAA_s140_6.0.0.dir/__/__/mesh/core/src/heartbeat.c.obj
 .bss           0x0000000000000000        0x0 CMakeFiles/dfu_nrf52840_xxAA_s140_6.0.0.dir/__/__/mesh/core/src/heartbeat.c.obj
 .text          0x0000000000000000        0x0 CMakeFiles/dfu_nrf52840_xxAA_s140_6.0.0.dir/__/__/mesh/core/src/net_beacon.c.obj
 .data          0x0000000000000000        0x0 CMakeFiles/dfu_nrf52840_xxAA_s140_6.0.0.dir/__/__/mesh/core/src/net_beacon.c.obj
 .bss           0x0000000000000000        0x0 CMakeFiles/dfu_nrf52840_xxAA_s140_6.0.0.dir/__/__/mesh/core/src/net_beacon.c.obj
 .text.net_beacon_build
                0x0000000000000000       0x68 CMakeFiles/dfu_nrf52840_xxAA_s140_6.0.0.dir/__/__/mesh/core/src/net_beacon.c.obj
 .text          0x0000000000000000        0x0 CMakeFiles/dfu_nrf52840_xxAA_s140_6.0.0.dir/__/__/mesh/core/src/fsm.c.obj
 .data          0x0000000000000000        0x0 CMakeFiles/dfu_nrf52840_xxAA_s140_6.0.0.dir/__/__/mesh/core/src/fsm.c.obj
 .bss           0x0000000000000000        0x0 CMakeFiles/dfu_nrf52840_xxAA_s140_6.0.0.dir/__/__/mesh/core/src/fsm.c.obj
 .text.fsm_event_post_try
                0x0000000000000000      0x24c CMakeFiles/dfu_nrf52840_xxAA_s140_6.0.0.dir/__/__/mesh/core/src/fsm.c.obj
 .text.fsm_init
                0x0000000000000000      0x100 CMakeFiles/dfu_nrf52840_xxAA_s140_6.0.0.dir/__/__/mesh/core/src/fsm.c.obj
 .text.fsm_event_post
                0x0000000000000000       0xbc CMakeFiles/dfu_nrf52840_xxAA_s140_6.0.0.dir/__/__/mesh/core/src/fsm.c.obj
 .text.fsm_is_processing
                0x0000000000000000        0xc CMakeFiles/dfu_nrf52840_xxAA_s140_6.0.0.dir/__/__/mesh/core/src/fsm.c.obj
 .rodata.fsm_event_post.str1.4
                0x0000000000000000        0xb CMakeFiles/dfu_nrf52840_xxAA_s140_6.0.0.dir/__/__/mesh/core/src/fsm.c.obj
 .rodata.fsm_event_post_try.str1.4
                0x0000000000000000       0x7c CMakeFiles/dfu_nrf52840_xxAA_s140_6.0.0.dir/__/__/mesh/core/src/fsm.c.obj
 .rodata.fsm_init.str1.4
                0x0000000000000000        0xa CMakeFiles/dfu_nrf52840_xxAA_s140_6.0.0.dir/__/__/mesh/core/src/fsm.c.obj
 .debug_info    0x0000000000000000     0x13e3 CMakeFiles/dfu_nrf52840_xxAA_s140_6.0.0.dir/__/__/mesh/core/src/fsm.c.obj
 .debug_abbrev  0x0000000000000000      0x35d CMakeFiles/dfu_nrf52840_xxAA_s140_6.0.0.dir/__/__/mesh/core/src/fsm.c.obj
 .debug_loc     0x0000000000000000      0x4f3 CMakeFiles/dfu_nrf52840_xxAA_s140_6.0.0.dir/__/__/mesh/core/src/fsm.c.obj
 .debug_aranges
                0x0000000000000000       0x38 CMakeFiles/dfu_nrf52840_xxAA_s140_6.0.0.dir/__/__/mesh/core/src/fsm.c.obj
 .debug_ranges  0x0000000000000000       0xd8 CMakeFiles/dfu_nrf52840_xxAA_s140_6.0.0.dir/__/__/mesh/core/src/fsm.c.obj
 .debug_line    0x0000000000000000      0x48d CMakeFiles/dfu_nrf52840_xxAA_s140_6.0.0.dir/__/__/mesh/core/src/fsm.c.obj
 .debug_str     0x0000000000000000      0x9e4 CMakeFiles/dfu_nrf52840_xxAA_s140_6.0.0.dir/__/__/mesh/core/src/fsm.c.obj
 .comment       0x0000000000000000       0x7f CMakeFiles/dfu_nrf52840_xxAA_s140_6.0.0.dir/__/__/mesh/core/src/fsm.c.obj
 .debug_frame   0x0000000000000000       0xb0 CMakeFiles/dfu_nrf52840_xxAA_s140_6.0.0.dir/__/__/mesh/core/src/fsm.c.obj
 .ARM.attributes
                0x0000000000000000       0x39 CMakeFiles/dfu_nrf52840_xxAA_s140_6.0.0.dir/__/__/mesh/core/src/fsm.c.obj
 .text          0x0000000000000000        0x0 CMakeFiles/dfu_nrf52840_xxAA_s140_6.0.0.dir/__/__/mesh/core/src/core_tx_adv.c.obj
 .data          0x0000000000000000        0x0 CMakeFiles/dfu_nrf52840_xxAA_s140_6.0.0.dir/__/__/mesh/core/src/core_tx_adv.c.obj
 .bss           0x0000000000000000        0x0 CMakeFiles/dfu_nrf52840_xxAA_s140_6.0.0.dir/__/__/mesh/core/src/core_tx_adv.c.obj
 .text.core_tx_adv_address_set
                0x0000000000000000       0x28 CMakeFiles/dfu_nrf52840_xxAA_s140_6.0.0.dir/__/__/mesh/core/src/core_tx_adv.c.obj
 .text          0x0000000000000000        0x0 CMakeFiles/dfu_nrf52840_xxAA_s140_6.0.0.dir/__/__/mesh/bearer/src/ad_listener.c.obj
 .data          0x0000000000000000        0x0 CMakeFiles/dfu_nrf52840_xxAA_s140_6.0.0.dir/__/__/mesh/bearer/src/ad_listener.c.obj
 .bss           0x0000000000000000        0x0 CMakeFiles/dfu_nrf52840_xxAA_s140_6.0.0.dir/__/__/mesh/bearer/src/ad_listener.c.obj
 .text.ad_listener_unsubscribe
                0x0000000000000000       0x78 CMakeFiles/dfu_nrf52840_xxAA_s140_6.0.0.dir/__/__/mesh/bearer/src/ad_listener.c.obj
 .text          0x0000000000000000        0x0 CMakeFiles/dfu_nrf52840_xxAA_s140_6.0.0.dir/__/__/mesh/bearer/src/ad_type_filter.c.obj
 .data          0x0000000000000000        0x0 CMakeFiles/dfu_nrf52840_xxAA_s140_6.0.0.dir/__/__/mesh/bearer/src/ad_type_filter.c.obj
 .bss           0x0000000000000000        0x0 CMakeFiles/dfu_nrf52840_xxAA_s140_6.0.0.dir/__/__/mesh/bearer/src/ad_type_filter.c.obj
 .text.bearer_adtype_remove
                0x0000000000000000       0x28 CMakeFiles/dfu_nrf52840_xxAA_s140_6.0.0.dir/__/__/mesh/bearer/src/ad_type_filter.c.obj
 .text.bearer_adtype_clear
                0x0000000000000000       0x10 CMakeFiles/dfu_nrf52840_xxAA_s140_6.0.0.dir/__/__/mesh/bearer/src/ad_type_filter.c.obj
 .text.bearer_invalid_length_amount_get
                0x0000000000000000        0xc CMakeFiles/dfu_nrf52840_xxAA_s140_6.0.0.dir/__/__/mesh/bearer/src/ad_type_filter.c.obj
 .text.bearer_adtype_filtered_amount_get
                0x0000000000000000        0xc CMakeFiles/dfu_nrf52840_xxAA_s140_6.0.0.dir/__/__/mesh/bearer/src/ad_type_filter.c.obj
 .text          0x0000000000000000        0x0 CMakeFiles/dfu_nrf52840_xxAA_s140_6.0.0.dir/__/__/mesh/bearer/src/adv_packet_filter.c.obj
 .data          0x0000000000000000        0x0 CMakeFiles/dfu_nrf52840_xxAA_s140_6.0.0.dir/__/__/mesh/bearer/src/adv_packet_filter.c.obj
 .bss           0x0000000000000000        0x0 CMakeFiles/dfu_nrf52840_xxAA_s140_6.0.0.dir/__/__/mesh/bearer/src/adv_packet_filter.c.obj
 .text.adv_filter_handle
                0x0000000000000000       0x40 CMakeFiles/dfu_nrf52840_xxAA_s140_6.0.0.dir/__/__/mesh/bearer/src/adv_packet_filter.c.obj
 .text.bearer_adv_packet_filtering_set
                0x0000000000000000       0x1c CMakeFiles/dfu_nrf52840_xxAA_s140_6.0.0.dir/__/__/mesh/bearer/src/adv_packet_filter.c.obj
 .text.bearer_adv_packet_remove
                0x0000000000000000       0x18 CMakeFiles/dfu_nrf52840_xxAA_s140_6.0.0.dir/__/__/mesh/bearer/src/adv_packet_filter.c.obj
 .text.bearer_adv_packet_add
                0x0000000000000000       0x14 CMakeFiles/dfu_nrf52840_xxAA_s140_6.0.0.dir/__/__/mesh/bearer/src/adv_packet_filter.c.obj
 .text.bearer_adv_packet_clear
                0x0000000000000000        0xc CMakeFiles/dfu_nrf52840_xxAA_s140_6.0.0.dir/__/__/mesh/bearer/src/adv_packet_filter.c.obj
 .text.bearer_adv_packet_filter_mode_set
                0x0000000000000000       0x18 CMakeFiles/dfu_nrf52840_xxAA_s140_6.0.0.dir/__/__/mesh/bearer/src/adv_packet_filter.c.obj
 .text.bearer_adv_packet_filtered_amount_get
                0x0000000000000000        0xc CMakeFiles/dfu_nrf52840_xxAA_s140_6.0.0.dir/__/__/mesh/bearer/src/adv_packet_filter.c.obj
 .bss.m_adv_packet_filter
                0x0000000000000000       0x14 CMakeFiles/dfu_nrf52840_xxAA_s140_6.0.0.dir/__/__/mesh/bearer/src/adv_packet_filter.c.obj
 .debug_info    0x0000000000000000      0xd92 CMakeFiles/dfu_nrf52840_xxAA_s140_6.0.0.dir/__/__/mesh/bearer/src/adv_packet_filter.c.obj
 .debug_abbrev  0x0000000000000000      0x2cb CMakeFiles/dfu_nrf52840_xxAA_s140_6.0.0.dir/__/__/mesh/bearer/src/adv_packet_filter.c.obj
 .debug_loc     0x0000000000000000      0x1b2 CMakeFiles/dfu_nrf52840_xxAA_s140_6.0.0.dir/__/__/mesh/bearer/src/adv_packet_filter.c.obj
 .debug_aranges
                0x0000000000000000       0x50 CMakeFiles/dfu_nrf52840_xxAA_s140_6.0.0.dir/__/__/mesh/bearer/src/adv_packet_filter.c.obj
 .debug_ranges  0x0000000000000000       0x40 CMakeFiles/dfu_nrf52840_xxAA_s140_6.0.0.dir/__/__/mesh/bearer/src/adv_packet_filter.c.obj
 .debug_line    0x0000000000000000      0x489 CMakeFiles/dfu_nrf52840_xxAA_s140_6.0.0.dir/__/__/mesh/bearer/src/adv_packet_filter.c.obj
 .debug_str     0x0000000000000000      0xa88 CMakeFiles/dfu_nrf52840_xxAA_s140_6.0.0.dir/__/__/mesh/bearer/src/adv_packet_filter.c.obj
 .comment       0x0000000000000000       0x7f CMakeFiles/dfu_nrf52840_xxAA_s140_6.0.0.dir/__/__/mesh/bearer/src/adv_packet_filter.c.obj
 .debug_frame   0x0000000000000000       0x88 CMakeFiles/dfu_nrf52840_xxAA_s140_6.0.0.dir/__/__/mesh/bearer/src/adv_packet_filter.c.obj
 .ARM.attributes
                0x0000000000000000       0x39 CMakeFiles/dfu_nrf52840_xxAA_s140_6.0.0.dir/__/__/mesh/bearer/src/adv_packet_filter.c.obj
 .text          0x0000000000000000        0x0 CMakeFiles/dfu_nrf52840_xxAA_s140_6.0.0.dir/__/__/mesh/bearer/src/advertiser.c.obj
 .data          0x0000000000000000        0x0 CMakeFiles/dfu_nrf52840_xxAA_s140_6.0.0.dir/__/__/mesh/bearer/src/advertiser.c.obj
 .bss           0x0000000000000000        0x0 CMakeFiles/dfu_nrf52840_xxAA_s140_6.0.0.dir/__/__/mesh/bearer/src/advertiser.c.obj
 .text.advertiser_disable
                0x0000000000000000        0xc CMakeFiles/dfu_nrf52840_xxAA_s140_6.0.0.dir/__/__/mesh/bearer/src/advertiser.c.obj
 .text.advertiser_config_set
                0x0000000000000000      0x184 CMakeFiles/dfu_nrf52840_xxAA_s140_6.0.0.dir/__/__/mesh/bearer/src/advertiser.c.obj
 .text.advertiser_address_set
                0x0000000000000000       0x74 CMakeFiles/dfu_nrf52840_xxAA_s140_6.0.0.dir/__/__/mesh/bearer/src/advertiser.c.obj
 .text.advertiser_config_get
                0x0000000000000000       0x24 CMakeFiles/dfu_nrf52840_xxAA_s140_6.0.0.dir/__/__/mesh/bearer/src/advertiser.c.obj
 .text          0x0000000000000000        0x0 CMakeFiles/dfu_nrf52840_xxAA_s140_6.0.0.dir/__/__/mesh/bearer/src/bearer_handler.c.obj
 .data          0x0000000000000000        0x0 CMakeFiles/dfu_nrf52840_xxAA_s140_6.0.0.dir/__/__/mesh/bearer/src/bearer_handler.c.obj
 .bss           0x0000000000000000        0x0 CMakeFiles/dfu_nrf52840_xxAA_s140_6.0.0.dir/__/__/mesh/bearer/src/bearer_handler.c.obj
 .text.bearer_handler_action_fire
                0x0000000000000000       0xa0 CMakeFiles/dfu_nrf52840_xxAA_s140_6.0.0.dir/__/__/mesh/bearer/src/bearer_handler.c.obj
 .text          0x0000000000000000        0x0 CMakeFiles/dfu_nrf52840_xxAA_s140_6.0.0.dir/__/__/mesh/bearer/src/broadcast.c.obj
 .data          0x0000000000000000        0x0 CMakeFiles/dfu_nrf52840_xxAA_s140_6.0.0.dir/__/__/mesh/bearer/src/broadcast.c.obj
 .bss           0x0000000000000000        0x0 CMakeFiles/dfu_nrf52840_xxAA_s140_6.0.0.dir/__/__/mesh/bearer/src/broadcast.c.obj
 .text          0x0000000000000000        0x0 CMakeFiles/dfu_nrf52840_xxAA_s140_6.0.0.dir/__/__/mesh/bearer/src/filter_engine.c.obj
 .data          0x0000000000000000        0x0 CMakeFiles/dfu_nrf52840_xxAA_s140_6.0.0.dir/__/__/mesh/bearer/src/filter_engine.c.obj
 .bss           0x0000000000000000        0x0 CMakeFiles/dfu_nrf52840_xxAA_s140_6.0.0.dir/__/__/mesh/bearer/src/filter_engine.c.obj
 .text.fen_accepted_amount_get
                0x0000000000000000        0xc CMakeFiles/dfu_nrf52840_xxAA_s140_6.0.0.dir/__/__/mesh/bearer/src/filter_engine.c.obj
 .text          0x0000000000000000        0x0 CMakeFiles/dfu_nrf52840_xxAA_s140_6.0.0.dir/__/__/mesh/bearer/src/gap_address_filter.c.obj
 .data          0x0000000000000000        0x0 CMakeFiles/dfu_nrf52840_xxAA_s140_6.0.0.dir/__/__/mesh/bearer/src/gap_address_filter.c.obj
 .bss           0x0000000000000000        0x0 CMakeFiles/dfu_nrf52840_xxAA_s140_6.0.0.dir/__/__/mesh/bearer/src/gap_address_filter.c.obj
 .text.gap_address_filter_handle
                0x0000000000000000       0xb8 CMakeFiles/dfu_nrf52840_xxAA_s140_6.0.0.dir/__/__/mesh/bearer/src/gap_address_filter.c.obj
 .text.bearer_filter_gap_addr_whitelist_set
                0x0000000000000000       0x48 CMakeFiles/dfu_nrf52840_xxAA_s140_6.0.0.dir/__/__/mesh/bearer/src/gap_address_filter.c.obj
 .text.bearer_filter_gap_addr_blacklist_set
                0x0000000000000000       0x4c CMakeFiles/dfu_nrf52840_xxAA_s140_6.0.0.dir/__/__/mesh/bearer/src/gap_address_filter.c.obj
 .text.bearer_filter_gap_addr_range_set
                0x0000000000000000       0x64 CMakeFiles/dfu_nrf52840_xxAA_s140_6.0.0.dir/__/__/mesh/bearer/src/gap_address_filter.c.obj
 .text.bearer_filter_gap_addr_clear
                0x0000000000000000       0x24 CMakeFiles/dfu_nrf52840_xxAA_s140_6.0.0.dir/__/__/mesh/bearer/src/gap_address_filter.c.obj
 .text.bearer_gap_addr_filtered_amount_get
                0x0000000000000000        0xc CMakeFiles/dfu_nrf52840_xxAA_s140_6.0.0.dir/__/__/mesh/bearer/src/gap_address_filter.c.obj
 .bss.m_addr_filter
                0x0000000000000000       0x18 CMakeFiles/dfu_nrf52840_xxAA_s140_6.0.0.dir/__/__/mesh/bearer/src/gap_address_filter.c.obj
 .debug_info    0x0000000000000000      0xf34 CMakeFiles/dfu_nrf52840_xxAA_s140_6.0.0.dir/__/__/mesh/bearer/src/gap_address_filter.c.obj
 .debug_abbrev  0x0000000000000000      0x2f8 CMakeFiles/dfu_nrf52840_xxAA_s140_6.0.0.dir/__/__/mesh/bearer/src/gap_address_filter.c.obj
 .debug_loc     0x0000000000000000      0x823 CMakeFiles/dfu_nrf52840_xxAA_s140_6.0.0.dir/__/__/mesh/bearer/src/gap_address_filter.c.obj
 .debug_aranges
                0x0000000000000000       0x48 CMakeFiles/dfu_nrf52840_xxAA_s140_6.0.0.dir/__/__/mesh/bearer/src/gap_address_filter.c.obj
 .debug_ranges  0x0000000000000000      0x100 CMakeFiles/dfu_nrf52840_xxAA_s140_6.0.0.dir/__/__/mesh/bearer/src/gap_address_filter.c.obj
 .debug_line    0x0000000000000000      0x519 CMakeFiles/dfu_nrf52840_xxAA_s140_6.0.0.dir/__/__/mesh/bearer/src/gap_address_filter.c.obj
 .debug_str     0x0000000000000000      0x9e2 CMakeFiles/dfu_nrf52840_xxAA_s140_6.0.0.dir/__/__/mesh/bearer/src/gap_address_filter.c.obj
 .comment       0x0000000000000000       0x7f CMakeFiles/dfu_nrf52840_xxAA_s140_6.0.0.dir/__/__/mesh/bearer/src/gap_address_filter.c.obj
 .debug_frame   0x0000000000000000       0xd4 CMakeFiles/dfu_nrf52840_xxAA_s140_6.0.0.dir/__/__/mesh/bearer/src/gap_address_filter.c.obj
 .ARM.attributes
                0x0000000000000000       0x39 CMakeFiles/dfu_nrf52840_xxAA_s140_6.0.0.dir/__/__/mesh/bearer/src/gap_address_filter.c.obj
 .text          0x0000000000000000        0x0 CMakeFiles/dfu_nrf52840_xxAA_s140_6.0.0.dir/__/__/mesh/bearer/src/radio_config.c.obj
 .data          0x0000000000000000        0x0 CMakeFiles/dfu_nrf52840_xxAA_s140_6.0.0.dir/__/__/mesh/bearer/src/radio_config.c.obj
 .bss           0x0000000000000000        0x0 CMakeFiles/dfu_nrf52840_xxAA_s140_6.0.0.dir/__/__/mesh/bearer/src/radio_config.c.obj
 .text.radio_config_access_addr_get
                0x0000000000000000       0x58 CMakeFiles/dfu_nrf52840_xxAA_s140_6.0.0.dir/__/__/mesh/bearer/src/radio_config.c.obj
 .text          0x0000000000000000        0x0 CMakeFiles/dfu_nrf52840_xxAA_s140_6.0.0.dir/__/__/mesh/bearer/src/rssi_filter.c.obj
 .data          0x0000000000000000        0x0 CMakeFiles/dfu_nrf52840_xxAA_s140_6.0.0.dir/__/__/mesh/bearer/src/rssi_filter.c.obj
 .bss           0x0000000000000000        0x0 CMakeFiles/dfu_nrf52840_xxAA_s140_6.0.0.dir/__/__/mesh/bearer/src/rssi_filter.c.obj
 .text.rssi_filter_handle
                0x0000000000000000       0x20 CMakeFiles/dfu_nrf52840_xxAA_s140_6.0.0.dir/__/__/mesh/bearer/src/rssi_filter.c.obj
 .text.bearer_rssi_filtering_set
                0x0000000000000000       0x38 CMakeFiles/dfu_nrf52840_xxAA_s140_6.0.0.dir/__/__/mesh/bearer/src/rssi_filter.c.obj
 .text.bearer_rssi_filtered_amount_get
                0x0000000000000000        0xc CMakeFiles/dfu_nrf52840_xxAA_s140_6.0.0.dir/__/__/mesh/bearer/src/rssi_filter.c.obj
 .bss.m_rssi_filter
                0x0000000000000000       0x18 CMakeFiles/dfu_nrf52840_xxAA_s140_6.0.0.dir/__/__/mesh/bearer/src/rssi_filter.c.obj
 .debug_info    0x0000000000000000      0xc70 CMakeFiles/dfu_nrf52840_xxAA_s140_6.0.0.dir/__/__/mesh/bearer/src/rssi_filter.c.obj
 .debug_abbrev  0x0000000000000000      0x290 CMakeFiles/dfu_nrf52840_xxAA_s140_6.0.0.dir/__/__/mesh/bearer/src/rssi_filter.c.obj
 .debug_loc     0x0000000000000000       0xbe CMakeFiles/dfu_nrf52840_xxAA_s140_6.0.0.dir/__/__/mesh/bearer/src/rssi_filter.c.obj
 .debug_aranges
                0x0000000000000000       0x30 CMakeFiles/dfu_nrf52840_xxAA_s140_6.0.0.dir/__/__/mesh/bearer/src/rssi_filter.c.obj
 .debug_ranges  0x0000000000000000       0x20 CMakeFiles/dfu_nrf52840_xxAA_s140_6.0.0.dir/__/__/mesh/bearer/src/rssi_filter.c.obj
 .debug_line    0x0000000000000000      0x3fb CMakeFiles/dfu_nrf52840_xxAA_s140_6.0.0.dir/__/__/mesh/bearer/src/rssi_filter.c.obj
 .debug_str     0x0000000000000000      0x89d CMakeFiles/dfu_nrf52840_xxAA_s140_6.0.0.dir/__/__/mesh/bearer/src/rssi_filter.c.obj
 .comment       0x0000000000000000       0x7f CMakeFiles/dfu_nrf52840_xxAA_s140_6.0.0.dir/__/__/mesh/bearer/src/rssi_filter.c.obj
 .debug_frame   0x0000000000000000       0x58 CMakeFiles/dfu_nrf52840_xxAA_s140_6.0.0.dir/__/__/mesh/bearer/src/rssi_filter.c.obj
 .ARM.attributes
                0x0000000000000000       0x39 CMakeFiles/dfu_nrf52840_xxAA_s140_6.0.0.dir/__/__/mesh/bearer/src/rssi_filter.c.obj
 .text          0x0000000000000000        0x0 CMakeFiles/dfu_nrf52840_xxAA_s140_6.0.0.dir/__/__/mesh/bearer/src/scanner.c.obj
 .data          0x0000000000000000        0x0 CMakeFiles/dfu_nrf52840_xxAA_s140_6.0.0.dir/__/__/mesh/bearer/src/scanner.c.obj
 .bss           0x0000000000000000        0x0 CMakeFiles/dfu_nrf52840_xxAA_s140_6.0.0.dir/__/__/mesh/bearer/src/scanner.c.obj
 .text.scanner_rx_callback_set
                0x0000000000000000       0x20 CMakeFiles/dfu_nrf52840_xxAA_s140_6.0.0.dir/__/__/mesh/bearer/src/scanner.c.obj
 .text.scanner_is_enabled
                0x0000000000000000       0x14 CMakeFiles/dfu_nrf52840_xxAA_s140_6.0.0.dir/__/__/mesh/bearer/src/scanner.c.obj
 .text.scanner_stats_get
                0x0000000000000000        0x8 CMakeFiles/dfu_nrf52840_xxAA_s140_6.0.0.dir/__/__/mesh/bearer/src/scanner.c.obj
 .text.scanner_config_radio_mode_set
                0x0000000000000000       0x10 CMakeFiles/dfu_nrf52840_xxAA_s140_6.0.0.dir/__/__/mesh/bearer/src/scanner.c.obj
 .text.scanner_config_scan_time_set
                0x0000000000000000       0x88 CMakeFiles/dfu_nrf52840_xxAA_s140_6.0.0.dir/__/__/mesh/bearer/src/scanner.c.obj
 .text.scanner_config_channels_set
                0x0000000000000000       0x50 CMakeFiles/dfu_nrf52840_xxAA_s140_6.0.0.dir/__/__/mesh/bearer/src/scanner.c.obj
 .text.scanner_config_access_addresses_set
                0x0000000000000000       0x38 CMakeFiles/dfu_nrf52840_xxAA_s140_6.0.0.dir/__/__/mesh/bearer/src/scanner.c.obj
 .text          0x0000000000000000        0x0 CMakeFiles/dfu_nrf52840_xxAA_s140_6.0.0.dir/home/mazzer/work/nordic/sdk/nRF5_SDK_15.0.0/modules/nrfx/mdk/system_nrf52840.c.obj
 .data          0x0000000000000000        0x0 CMakeFiles/dfu_nrf52840_xxAA_s140_6.0.0.dir/home/mazzer/work/nordic/sdk/nRF5_SDK_15.0.0/modules/nrfx/mdk/system_nrf52840.c.obj
 .bss           0x0000000000000000        0x0 CMakeFiles/dfu_nrf52840_xxAA_s140_6.0.0.dir/home/mazzer/work/nordic/sdk/nRF5_SDK_15.0.0/modules/nrfx/mdk/system_nrf52840.c.obj
 .text.SystemCoreClockUpdate
                0x0000000000000000       0x10 CMakeFiles/dfu_nrf52840_xxAA_s140_6.0.0.dir/home/mazzer/work/nordic/sdk/nRF5_SDK_15.0.0/modules/nrfx/mdk/system_nrf52840.c.obj
 .data          0x0000000000000000        0x0 CMakeFiles/dfu_nrf52840_xxAA_s140_6.0.0.dir/home/mazzer/work/nordic/sdk/nRF5_SDK_15.0.0/modules/nrfx/mdk/gcc_startup_nrf52840.S.obj
 .bss           0x0000000000000000        0x0 CMakeFiles/dfu_nrf52840_xxAA_s140_6.0.0.dir/home/mazzer/work/nordic/sdk/nRF5_SDK_15.0.0/modules/nrfx/mdk/gcc_startup_nrf52840.S.obj
 .text          0x0000000000000000        0x0 CMakeFiles/dfu_nrf52840_xxAA_s140_6.0.0.dir/home/mazzer/work/nordic/sdk/nRF5_SDK_15.0.0/components/libraries/util/app_error.c.obj
 .data          0x0000000000000000        0x0 CMakeFiles/dfu_nrf52840_xxAA_s140_6.0.0.dir/home/mazzer/work/nordic/sdk/nRF5_SDK_15.0.0/components/libraries/util/app_error.c.obj
 .bss           0x0000000000000000        0x0 CMakeFiles/dfu_nrf52840_xxAA_s140_6.0.0.dir/home/mazzer/work/nordic/sdk/nRF5_SDK_15.0.0/components/libraries/util/app_error.c.obj
 .text.app_error_save_and_stop
                0x0000000000000000       0x64 CMakeFiles/dfu_nrf52840_xxAA_s140_6.0.0.dir/home/mazzer/work/nordic/sdk/nRF5_SDK_15.0.0/components/libraries/util/app_error.c.obj
 .bss.m_error_data.8293
                0x0000000000000000       0x20 CMakeFiles/dfu_nrf52840_xxAA_s140_6.0.0.dir/home/mazzer/work/nordic/sdk/nRF5_SDK_15.0.0/components/libraries/util/app_error.c.obj
 .text          0x0000000000000000        0x0 CMakeFiles/dfu_nrf52840_xxAA_s140_6.0.0.dir/home/mazzer/work/nordic/sdk/nRF5_SDK_15.0.0/components/libraries/util/app_error_handler_gcc.c.obj
 .data          0x0000000000000000        0x0 CMakeFiles/dfu_nrf52840_xxAA_s140_6.0.0.dir/home/mazzer/work/nordic/sdk/nRF5_SDK_15.0.0/components/libraries/util/app_error_handler_gcc.c.obj
 .bss           0x0000000000000000        0x0 CMakeFiles/dfu_nrf52840_xxAA_s140_6.0.0.dir/home/mazzer/work/nordic/sdk/nRF5_SDK_15.0.0/components/libraries/util/app_error_handler_gcc.c.obj
 .text          0x0000000000000000        0x0 ../../external/rtt/librtt_nrf52840_xxAA.a(SEGGER_RTT.c.obj)
 .data          0x0000000000000000        0x0 ../../external/rtt/librtt_nrf52840_xxAA.a(SEGGER_RTT.c.obj)
 .bss           0x0000000000000000        0x0 ../../external/rtt/librtt_nrf52840_xxAA.a(SEGGER_RTT.c.obj)
 .text.SEGGER_RTT_ReadNoLock
                0x0000000000000000       0xfc ../../external/rtt/librtt_nrf52840_xxAA.a(SEGGER_RTT.c.obj)
 .text.SEGGER_RTT_Read
                0x0000000000000000      0x118 ../../external/rtt/librtt_nrf52840_xxAA.a(SEGGER_RTT.c.obj)
 .text.SEGGER_RTT_WriteSkipNoLock
                0x0000000000000000      0x1a8 ../../external/rtt/librtt_nrf52840_xxAA.a(SEGGER_RTT.c.obj)
 .text.SEGGER_RTT_WriteNoLock
                0x0000000000000000      0x168 ../../external/rtt/librtt_nrf52840_xxAA.a(SEGGER_RTT.c.obj)
 .text.SEGGER_RTT_WriteString
                0x0000000000000000      0x1f8 ../../external/rtt/librtt_nrf52840_xxAA.a(SEGGER_RTT.c.obj)
 .text.SEGGER_RTT_GetKey
                0x0000000000000000       0xf8 ../../external/rtt/librtt_nrf52840_xxAA.a(SEGGER_RTT.c.obj)
 .text.SEGGER_RTT_WaitKey
                0x0000000000000000       0xfc ../../external/rtt/librtt_nrf52840_xxAA.a(SEGGER_RTT.c.obj)
 .text.SEGGER_RTT_HasKey
                0x0000000000000000       0x6c ../../external/rtt/librtt_nrf52840_xxAA.a(SEGGER_RTT.c.obj)
 .text.SEGGER_RTT_HasData
                0x0000000000000000       0x18 ../../external/rtt/librtt_nrf52840_xxAA.a(SEGGER_RTT.c.obj)
 .text.SEGGER_RTT_AllocDownBuffer
                0x0000000000000000       0xb8 ../../external/rtt/librtt_nrf52840_xxAA.a(SEGGER_RTT.c.obj)
 .text.SEGGER_RTT_AllocUpBuffer
                0x0000000000000000       0xd4 ../../external/rtt/librtt_nrf52840_xxAA.a(SEGGER_RTT.c.obj)
 .text.SEGGER_RTT_ConfigUpBuffer
                0x0000000000000000       0xd0 ../../external/rtt/librtt_nrf52840_xxAA.a(SEGGER_RTT.c.obj)
 .text.SEGGER_RTT_ConfigDownBuffer
                0x0000000000000000       0xb4 ../../external/rtt/librtt_nrf52840_xxAA.a(SEGGER_RTT.c.obj)
 .text.SEGGER_RTT_SetNameUpBuffer
                0x0000000000000000       0x90 ../../external/rtt/librtt_nrf52840_xxAA.a(SEGGER_RTT.c.obj)
 .text.SEGGER_RTT_SetNameDownBuffer
                0x0000000000000000       0x90 ../../external/rtt/librtt_nrf52840_xxAA.a(SEGGER_RTT.c.obj)
 .text.SEGGER_RTT_Init
                0x0000000000000000       0x64 ../../external/rtt/librtt_nrf52840_xxAA.a(SEGGER_RTT.c.obj)
 .text.SEGGER_RTT_SetTerminal
                0x0000000000000000      0x16c ../../external/rtt/librtt_nrf52840_xxAA.a(SEGGER_RTT.c.obj)
 .text.SEGGER_RTT_TerminalOut
                0x0000000000000000      0x4d8 ../../external/rtt/librtt_nrf52840_xxAA.a(SEGGER_RTT.c.obj)
 .bss._ActiveTerminal
                0x0000000000000000        0x1 ../../external/rtt/librtt_nrf52840_xxAA.a(SEGGER_RTT.c.obj)
 .rodata._aTerminalId
                0x0000000000000000       0x10 ../../external/rtt/librtt_nrf52840_xxAA.a(SEGGER_RTT.c.obj)
 .text          0x0000000000000000        0x0 ../../external/rtt/librtt_nrf52840_xxAA.a(SEGGER_RTT_printf.c.obj)
 .data          0x0000000000000000        0x0 ../../external/rtt/librtt_nrf52840_xxAA.a(SEGGER_RTT_printf.c.obj)
 .bss           0x0000000000000000        0x0 ../../external/rtt/librtt_nrf52840_xxAA.a(SEGGER_RTT_printf.c.obj)
 .text          0x0000000000000000        0x0 ../../external/micro-ecc/libuECC_nrf52840_xxAA.a(uECC.c.obj)
 .data          0x0000000000000000        0x0 ../../external/micro-ecc/libuECC_nrf52840_xxAA.a(uECC.c.obj)
 .bss           0x0000000000000000        0x0 ../../external/micro-ecc/libuECC_nrf52840_xxAA.a(uECC.c.obj)
 .text.HMAC_finish
                0x0000000000000000       0x70 ../../external/micro-ecc/libuECC_nrf52840_xxAA.a(uECC.c.obj)
 .text.uECC_vli_mmod
                0x0000000000000000      0x418 ../../external/micro-ecc/libuECC_nrf52840_xxAA.a(uECC.c.obj)
 .text.uECC_vli_modSub.isra.2
                0x0000000000000000       0x98 ../../external/micro-ecc/libuECC_nrf52840_xxAA.a(uECC.c.obj)
 .text.bits2int
                0x0000000000000000      0x160 ../../external/micro-ecc/libuECC_nrf52840_xxAA.a(uECC.c.obj)
 .text.uECC_sign_with_k
                0x0000000000000000      0x630 ../../external/micro-ecc/libuECC_nrf52840_xxAA.a(uECC.c.obj)
 .text.uECC_set_rng
                0x0000000000000000        0xc ../../external/micro-ecc/libuECC_nrf52840_xxAA.a(uECC.c.obj)
 .text.uECC_get_rng
                0x0000000000000000        0xc ../../external/micro-ecc/libuECC_nrf52840_xxAA.a(uECC.c.obj)
 .text.uECC_curve_private_key_size
                0x0000000000000000       0x10 ../../external/micro-ecc/libuECC_nrf52840_xxAA.a(uECC.c.obj)
 .text.uECC_curve_public_key_size
                0x0000000000000000        0x8 ../../external/micro-ecc/libuECC_nrf52840_xxAA.a(uECC.c.obj)
 .text.uECC_valid_point
                0x0000000000000000      0x154 ../../external/micro-ecc/libuECC_nrf52840_xxAA.a(uECC.c.obj)
 .text.uECC_compute_public_key
                0x0000000000000000      0x2e8 ../../external/micro-ecc/libuECC_nrf52840_xxAA.a(uECC.c.obj)
 .text.uECC_sign
                0x0000000000000000       0x5c ../../external/micro-ecc/libuECC_nrf52840_xxAA.a(uECC.c.obj)
 .text.uECC_sign_deterministic
                0x0000000000000000      0x414 ../../external/micro-ecc/libuECC_nrf52840_xxAA.a(uECC.c.obj)
 .text.uECC_verify
                0x0000000000000000      0x960 ../../external/micro-ecc/libuECC_nrf52840_xxAA.a(uECC.c.obj)
 .text          0x0000000000000000        0x0 /usr/bin/../lib/gcc/arm-none-eabi/7.2.1/../../../../arm-none-eabi/lib/thumb/v7e-m/fpv4-sp/hard/libg_nano.a(lib_a-exit.o)
 .data          0x0000000000000000        0x0 /usr/bin/../lib/gcc/arm-none-eabi/7.2.1/../../../../arm-none-eabi/lib/thumb/v7e-m/fpv4-sp/hard/libg_nano.a(lib_a-exit.o)
 .bss           0x0000000000000000        0x0 /usr/bin/../lib/gcc/arm-none-eabi/7.2.1/../../../../arm-none-eabi/lib/thumb/v7e-m/fpv4-sp/hard/libg_nano.a(lib_a-exit.o)
 .text          0x0000000000000000        0x0 /usr/bin/../lib/gcc/arm-none-eabi/7.2.1/../../../../arm-none-eabi/lib/thumb/v7e-m/fpv4-sp/hard/libg_nano.a(lib_a-impure.o)
 .data          0x0000000000000000        0x0 /usr/bin/../lib/gcc/arm-none-eabi/7.2.1/../../../../arm-none-eabi/lib/thumb/v7e-m/fpv4-sp/hard/libg_nano.a(lib_a-impure.o)
 .bss           0x0000000000000000        0x0 /usr/bin/../lib/gcc/arm-none-eabi/7.2.1/../../../../arm-none-eabi/lib/thumb/v7e-m/fpv4-sp/hard/libg_nano.a(lib_a-impure.o)
 .text          0x0000000000000000        0x0 /usr/bin/../lib/gcc/arm-none-eabi/7.2.1/../../../../arm-none-eabi/lib/thumb/v7e-m/fpv4-sp/hard/libg_nano.a(lib_a-init.o)
 .data          0x0000000000000000        0x0 /usr/bin/../lib/gcc/arm-none-eabi/7.2.1/../../../../arm-none-eabi/lib/thumb/v7e-m/fpv4-sp/hard/libg_nano.a(lib_a-init.o)
 .bss           0x0000000000000000        0x0 /usr/bin/../lib/gcc/arm-none-eabi/7.2.1/../../../../arm-none-eabi/lib/thumb/v7e-m/fpv4-sp/hard/libg_nano.a(lib_a-init.o)
 .text          0x0000000000000000        0x0 /usr/bin/../lib/gcc/arm-none-eabi/7.2.1/../../../../arm-none-eabi/lib/thumb/v7e-m/fpv4-sp/hard/libg_nano.a(lib_a-malloc.o)
 .data          0x0000000000000000        0x0 /usr/bin/../lib/gcc/arm-none-eabi/7.2.1/../../../../arm-none-eabi/lib/thumb/v7e-m/fpv4-sp/hard/libg_nano.a(lib_a-malloc.o)
 .bss           0x0000000000000000        0x0 /usr/bin/../lib/gcc/arm-none-eabi/7.2.1/../../../../arm-none-eabi/lib/thumb/v7e-m/fpv4-sp/hard/libg_nano.a(lib_a-malloc.o)
 .text          0x0000000000000000        0x0 /usr/bin/../lib/gcc/arm-none-eabi/7.2.1/../../../../arm-none-eabi/lib/thumb/v7e-m/fpv4-sp/hard/libg_nano.a(lib_a-memcmp.o)
 .data          0x0000000000000000        0x0 /usr/bin/../lib/gcc/arm-none-eabi/7.2.1/../../../../arm-none-eabi/lib/thumb/v7e-m/fpv4-sp/hard/libg_nano.a(lib_a-memcmp.o)
 .bss           0x0000000000000000        0x0 /usr/bin/../lib/gcc/arm-none-eabi/7.2.1/../../../../arm-none-eabi/lib/thumb/v7e-m/fpv4-sp/hard/libg_nano.a(lib_a-memcmp.o)
 .text          0x0000000000000000        0x0 /usr/bin/../lib/gcc/arm-none-eabi/7.2.1/../../../../arm-none-eabi/lib/thumb/v7e-m/fpv4-sp/hard/libg_nano.a(lib_a-memcpy-stub.o)
 .data          0x0000000000000000        0x0 /usr/bin/../lib/gcc/arm-none-eabi/7.2.1/../../../../arm-none-eabi/lib/thumb/v7e-m/fpv4-sp/hard/libg_nano.a(lib_a-memcpy-stub.o)
 .bss           0x0000000000000000        0x0 /usr/bin/../lib/gcc/arm-none-eabi/7.2.1/../../../../arm-none-eabi/lib/thumb/v7e-m/fpv4-sp/hard/libg_nano.a(lib_a-memcpy-stub.o)
 .text          0x0000000000000000        0x0 /usr/bin/../lib/gcc/arm-none-eabi/7.2.1/../../../../arm-none-eabi/lib/thumb/v7e-m/fpv4-sp/hard/libg_nano.a(lib_a-memset.o)
 .data          0x0000000000000000        0x0 /usr/bin/../lib/gcc/arm-none-eabi/7.2.1/../../../../arm-none-eabi/lib/thumb/v7e-m/fpv4-sp/hard/libg_nano.a(lib_a-memset.o)
 .bss           0x0000000000000000        0x0 /usr/bin/../lib/gcc/arm-none-eabi/7.2.1/../../../../arm-none-eabi/lib/thumb/v7e-m/fpv4-sp/hard/libg_nano.a(lib_a-memset.o)
 .text          0x0000000000000000        0x0 /usr/bin/../lib/gcc/arm-none-eabi/7.2.1/../../../../arm-none-eabi/lib/thumb/v7e-m/fpv4-sp/hard/libg_nano.a(lib_a-nano-freer.o)
 .data          0x0000000000000000        0x0 /usr/bin/../lib/gcc/arm-none-eabi/7.2.1/../../../../arm-none-eabi/lib/thumb/v7e-m/fpv4-sp/hard/libg_nano.a(lib_a-nano-freer.o)
 .bss           0x0000000000000000        0x0 /usr/bin/../lib/gcc/arm-none-eabi/7.2.1/../../../../arm-none-eabi/lib/thumb/v7e-m/fpv4-sp/hard/libg_nano.a(lib_a-nano-freer.o)
 .text          0x0000000000000000        0x0 /usr/bin/../lib/gcc/arm-none-eabi/7.2.1/../../../../arm-none-eabi/lib/thumb/v7e-m/fpv4-sp/hard/libg_nano.a(lib_a-nano-mallocr.o)
 .data          0x0000000000000000        0x0 /usr/bin/../lib/gcc/arm-none-eabi/7.2.1/../../../../arm-none-eabi/lib/thumb/v7e-m/fpv4-sp/hard/libg_nano.a(lib_a-nano-mallocr.o)
 .bss           0x0000000000000000        0x0 /usr/bin/../lib/gcc/arm-none-eabi/7.2.1/../../../../arm-none-eabi/lib/thumb/v7e-m/fpv4-sp/hard/libg_nano.a(lib_a-nano-mallocr.o)
 .text          0x0000000000000000        0x0 /usr/bin/../lib/gcc/arm-none-eabi/7.2.1/../../../../arm-none-eabi/lib/thumb/v7e-m/fpv4-sp/hard/libg_nano.a(lib_a-sbrkr.o)
 .data          0x0000000000000000        0x0 /usr/bin/../lib/gcc/arm-none-eabi/7.2.1/../../../../arm-none-eabi/lib/thumb/v7e-m/fpv4-sp/hard/libg_nano.a(lib_a-sbrkr.o)
 .bss           0x0000000000000000        0x0 /usr/bin/../lib/gcc/arm-none-eabi/7.2.1/../../../../arm-none-eabi/lib/thumb/v7e-m/fpv4-sp/hard/libg_nano.a(lib_a-sbrkr.o)
 .text          0x0000000000000000        0x0 /usr/bin/../lib/gcc/arm-none-eabi/7.2.1/../../../../arm-none-eabi/lib/thumb/v7e-m/fpv4-sp/hard/libg_nano.a(lib_a-strcpy.o)
 .data          0x0000000000000000        0x0 /usr/bin/../lib/gcc/arm-none-eabi/7.2.1/../../../../arm-none-eabi/lib/thumb/v7e-m/fpv4-sp/hard/libg_nano.a(lib_a-strcpy.o)
 .bss           0x0000000000000000        0x0 /usr/bin/../lib/gcc/arm-none-eabi/7.2.1/../../../../arm-none-eabi/lib/thumb/v7e-m/fpv4-sp/hard/libg_nano.a(lib_a-strcpy.o)
 .data          0x0000000000000000        0x0 /usr/bin/../lib/gcc/arm-none-eabi/7.2.1/../../../../arm-none-eabi/lib/thumb/v7e-m/fpv4-sp/hard/libg_nano.a(lib_a-strlen.o)
 .bss           0x0000000000000000        0x0 /usr/bin/../lib/gcc/arm-none-eabi/7.2.1/../../../../arm-none-eabi/lib/thumb/v7e-m/fpv4-sp/hard/libg_nano.a(lib_a-strlen.o)
 .text          0x0000000000000000        0x0 /usr/bin/../lib/gcc/arm-none-eabi/7.2.1/../../../../arm-none-eabi/lib/thumb/v7e-m/fpv4-sp/hard/libg_nano.a(lib_a-strrchr.o)
 .data          0x0000000000000000        0x0 /usr/bin/../lib/gcc/arm-none-eabi/7.2.1/../../../../arm-none-eabi/lib/thumb/v7e-m/fpv4-sp/hard/libg_nano.a(lib_a-strrchr.o)
 .bss           0x0000000000000000        0x0 /usr/bin/../lib/gcc/arm-none-eabi/7.2.1/../../../../arm-none-eabi/lib/thumb/v7e-m/fpv4-sp/hard/libg_nano.a(lib_a-strrchr.o)
 .text          0x0000000000000000        0x0 /usr/bin/../lib/gcc/arm-none-eabi/7.2.1/../../../../arm-none-eabi/lib/thumb/v7e-m/fpv4-sp/hard/libg_nano.a(lib_a-mlock.o)
 .data          0x0000000000000000        0x0 /usr/bin/../lib/gcc/arm-none-eabi/7.2.1/../../../../arm-none-eabi/lib/thumb/v7e-m/fpv4-sp/hard/libg_nano.a(lib_a-mlock.o)
 .bss           0x0000000000000000        0x0 /usr/bin/../lib/gcc/arm-none-eabi/7.2.1/../../../../arm-none-eabi/lib/thumb/v7e-m/fpv4-sp/hard/libg_nano.a(lib_a-mlock.o)
 .text          0x0000000000000000        0x0 /usr/bin/../lib/gcc/arm-none-eabi/7.2.1/../../../../arm-none-eabi/lib/thumb/v7e-m/fpv4-sp/hard/libg_nano.a(lib_a-reent.o)
 .data          0x0000000000000000        0x0 /usr/bin/../lib/gcc/arm-none-eabi/7.2.1/../../../../arm-none-eabi/lib/thumb/v7e-m/fpv4-sp/hard/libg_nano.a(lib_a-reent.o)
 .bss           0x0000000000000000        0x0 /usr/bin/../lib/gcc/arm-none-eabi/7.2.1/../../../../arm-none-eabi/lib/thumb/v7e-m/fpv4-sp/hard/libg_nano.a(lib_a-reent.o)
 .text.cleanup_glue
                0x0000000000000000       0x1a /usr/bin/../lib/gcc/arm-none-eabi/7.2.1/../../../../arm-none-eabi/lib/thumb/v7e-m/fpv4-sp/hard/libg_nano.a(lib_a-reent.o)
 .text._reclaim_reent
                0x0000000000000000       0xb8 /usr/bin/../lib/gcc/arm-none-eabi/7.2.1/../../../../arm-none-eabi/lib/thumb/v7e-m/fpv4-sp/hard/libg_nano.a(lib_a-reent.o)
 .text          0x0000000000000000        0x0 /usr/bin/../lib/gcc/arm-none-eabi/7.2.1/../../../../arm-none-eabi/lib/thumb/v7e-m/fpv4-sp/hard/libg_nano.a(lib_a-strchr.o)
 .data          0x0000000000000000        0x0 /usr/bin/../lib/gcc/arm-none-eabi/7.2.1/../../../../arm-none-eabi/lib/thumb/v7e-m/fpv4-sp/hard/libg_nano.a(lib_a-strchr.o)
 .bss           0x0000000000000000        0x0 /usr/bin/../lib/gcc/arm-none-eabi/7.2.1/../../../../arm-none-eabi/lib/thumb/v7e-m/fpv4-sp/hard/libg_nano.a(lib_a-strchr.o)
 .text          0x0000000000000000        0x0 /usr/bin/../lib/gcc/arm-none-eabi/7.2.1/thumb/v7e-m/fpv4-sp/hard/crtend.o
 .data          0x0000000000000000        0x0 /usr/bin/../lib/gcc/arm-none-eabi/7.2.1/thumb/v7e-m/fpv4-sp/hard/crtend.o
 .bss           0x0000000000000000        0x0 /usr/bin/../lib/gcc/arm-none-eabi/7.2.1/thumb/v7e-m/fpv4-sp/hard/crtend.o
 .text          0x0000000000000000        0x0 /usr/bin/../lib/gcc/arm-none-eabi/7.2.1/thumb/v7e-m/fpv4-sp/hard/crtn.o
 .data          0x0000000000000000        0x0 /usr/bin/../lib/gcc/arm-none-eabi/7.2.1/thumb/v7e-m/fpv4-sp/hard/crtn.o
 .bss           0x0000000000000000        0x0 /usr/bin/../lib/gcc/arm-none-eabi/7.2.1/thumb/v7e-m/fpv4-sp/hard/crtn.o
 .text          0x0000000000000000        0x0 /usr/bin/../lib/gcc/arm-none-eabi/7.2.1/../../../../arm-none-eabi/lib/thumb/v7e-m/fpv4-sp/hard/libnosys.a(sbrk.o)
 .data          0x0000000000000000        0x0 /usr/bin/../lib/gcc/arm-none-eabi/7.2.1/../../../../arm-none-eabi/lib/thumb/v7e-m/fpv4-sp/hard/libnosys.a(sbrk.o)
 .bss           0x0000000000000000        0x0 /usr/bin/../lib/gcc/arm-none-eabi/7.2.1/../../../../arm-none-eabi/lib/thumb/v7e-m/fpv4-sp/hard/libnosys.a(sbrk.o)
 .text          0x0000000000000000        0x0 /usr/bin/../lib/gcc/arm-none-eabi/7.2.1/../../../../arm-none-eabi/lib/thumb/v7e-m/fpv4-sp/hard/libnosys.a(_exit.o)
 .data          0x0000000000000000        0x0 /usr/bin/../lib/gcc/arm-none-eabi/7.2.1/../../../../arm-none-eabi/lib/thumb/v7e-m/fpv4-sp/hard/libnosys.a(_exit.o)
 .bss           0x0000000000000000        0x0 /usr/bin/../lib/gcc/arm-none-eabi/7.2.1/../../../../arm-none-eabi/lib/thumb/v7e-m/fpv4-sp/hard/libnosys.a(_exit.o)

Memory Configuration

Name             Origin             Length             Attributes
FLASH            0x0000000000026000 0x00000000000d1000 xr
RAM              0x00000000200032c8 0x000000000003ca38 xrw
*default*        0x0000000000000000 0xffffffffffffffff

Linker script and memory map


.text           0x0000000000026000    0x2350c
 *(.isr_vector)
 .isr_vector    0x0000000000026000      0x200 CMakeFiles/dfu_nrf52840_xxAA_s140_6.0.0.dir/home/mazzer/work/nordic/sdk/nRF5_SDK_15.0.0/modules/nrfx/mdk/gcc_startup_nrf52840.S.obj
                0x0000000000026000                __isr_vector
 *(.text*)
 .text          0x0000000000026200       0x40 /usr/bin/../lib/gcc/arm-none-eabi/7.2.1/thumb/v7e-m/fpv4-sp/hard/crtbegin.o
 .text          0x0000000000026240       0x74 /usr/bin/../lib/gcc/arm-none-eabi/7.2.1/../../../../arm-none-eabi/lib/thumb/v7e-m/fpv4-sp/hard/crt0.o
                0x0000000000026240                _mainCRTStartup
                0x0000000000026240                _start
 .text.sd_app_evt_wait
                0x00000000000262b4        0x4 CMakeFiles/dfu_nrf52840_xxAA_s140_6.0.0.dir/src/main.c.obj
 .text.config_server_evt_cb
                0x00000000000262b8       0x88 CMakeFiles/dfu_nrf52840_xxAA_s140_6.0.0.dir/src/main.c.obj
 .text.mesh_evt_handler
                0x0000000000026340       0xe0 CMakeFiles/dfu_nrf52840_xxAA_s140_6.0.0.dir/src/main.c.obj
 .text.startup.main
                0x0000000000026420      0x4d8 CMakeFiles/dfu_nrf52840_xxAA_s140_6.0.0.dir/src/main.c.obj
                0x0000000000026420                main
 .text.mesh_evt_handler
                0x00000000000268f8       0x10 CMakeFiles/dfu_nrf52840_xxAA_s140_6.0.0.dir/__/__/mesh/stack/src/mesh_stack.c.obj
 .text.mesh_stack_init
                0x0000000000026908       0x94 CMakeFiles/dfu_nrf52840_xxAA_s140_6.0.0.dir/__/__/mesh/stack/src/mesh_stack.c.obj
                0x0000000000026908                mesh_stack_init
 .text.mesh_stack_start
                0x000000000002699c        0x4 CMakeFiles/dfu_nrf52840_xxAA_s140_6.0.0.dir/__/__/mesh/stack/src/mesh_stack.c.obj
                0x000000000002699c                mesh_stack_start
 .text.mesh_stack_provisioning_data_store
                0x00000000000269a0       0x78 CMakeFiles/dfu_nrf52840_xxAA_s140_6.0.0.dir/__/__/mesh/stack/src/mesh_stack.c.obj
                0x00000000000269a0                mesh_stack_provisioning_data_store
 .text.mesh_stack_config_clear
                0x0000000000026a18       0x14 CMakeFiles/dfu_nrf52840_xxAA_s140_6.0.0.dir/__/__/mesh/stack/src/mesh_stack.c.obj
                0x0000000000026a18                mesh_stack_config_clear
 .text.mesh_stack_device_reset
                0x0000000000026a2c       0x20 CMakeFiles/dfu_nrf52840_xxAA_s140_6.0.0.dir/__/__/mesh/stack/src/mesh_stack.c.obj
                0x0000000000026a2c                mesh_stack_device_reset
 .text.sd_evt_get
                0x0000000000026a4c        0x4 CMakeFiles/dfu_nrf52840_xxAA_s140_6.0.0.dir/__/common/src/mesh_softdevice_init.c.obj
 .text.sd_softdevice_enable
                0x0000000000026a50        0x4 CMakeFiles/dfu_nrf52840_xxAA_s140_6.0.0.dir/__/common/src/mesh_softdevice_init.c.obj
 .text.sd_ble_enable
                0x0000000000026a54        0x4 CMakeFiles/dfu_nrf52840_xxAA_s140_6.0.0.dir/__/common/src/mesh_softdevice_init.c.obj
 .text.SWI2_EGU2_IRQHandler
                0x0000000000026a58       0x1c CMakeFiles/dfu_nrf52840_xxAA_s140_6.0.0.dir/__/common/src/mesh_softdevice_init.c.obj
                0x0000000000026a58                SWI2_EGU2_IRQHandler
 .text.mesh_softdevice_init
                0x0000000000026a74      0x1f8 CMakeFiles/dfu_nrf52840_xxAA_s140_6.0.0.dir/__/common/src/mesh_softdevice_init.c.obj
                0x0000000000026a74                mesh_softdevice_init
 .text.prov_evt_handler
                0x0000000000026c6c       0x70 CMakeFiles/dfu_nrf52840_xxAA_s140_6.0.0.dir/__/common/src/mesh_provisionee.c.obj
 .text.mesh_provisionee_prov_start
                0x0000000000026cdc       0x88 CMakeFiles/dfu_nrf52840_xxAA_s140_6.0.0.dir/__/common/src/mesh_provisionee.c.obj
                0x0000000000026cdc                mesh_provisionee_prov_start
 .text.hal_led_mask_set
                0x0000000000026d64       0x14 CMakeFiles/dfu_nrf52840_xxAA_s140_6.0.0.dir/__/common/src/simple_hal.c.obj
                0x0000000000026d64                hal_led_mask_set
 .text.hal_led_blink_ms
                0x0000000000026d78       0x50 CMakeFiles/dfu_nrf52840_xxAA_s140_6.0.0.dir/__/common/src/simple_hal.c.obj
                0x0000000000026d78                hal_led_blink_ms
 .text.hal_leds_init
                0x0000000000026dc8       0x3c CMakeFiles/dfu_nrf52840_xxAA_s140_6.0.0.dir/__/common/src/simple_hal.c.obj
                0x0000000000026dc8                hal_leds_init
 .text.GPIOTE_IRQHandler
                0x0000000000026e04       0x70 CMakeFiles/dfu_nrf52840_xxAA_s140_6.0.0.dir/__/common/src/simple_hal.c.obj
                0x0000000000026e04                GPIOTE_IRQHandler
 .text.schedule_publication_timer
                0x0000000000026e74      0x2d0 CMakeFiles/dfu_nrf52840_xxAA_s140_6.0.0.dir/__/__/mesh/access/src/access_publish.c.obj
 .text.publish_timer_tick
                0x0000000000027144      0x140 CMakeFiles/dfu_nrf52840_xxAA_s140_6.0.0.dir/__/__/mesh/access/src/access_publish.c.obj
 .text.access_publish_init
                0x0000000000027284       0x38 CMakeFiles/dfu_nrf52840_xxAA_s140_6.0.0.dir/__/__/mesh/access/src/access_publish.c.obj
                0x0000000000027284                access_publish_init
 .text.access_publish_period_set
                0x00000000000272bc      0x118 CMakeFiles/dfu_nrf52840_xxAA_s140_6.0.0.dir/__/__/mesh/access/src/access_publish.c.obj
                0x00000000000272bc                access_publish_period_set
 .text.access_publish_period_get
                0x00000000000273d4       0x2c CMakeFiles/dfu_nrf52840_xxAA_s140_6.0.0.dir/__/__/mesh/access/src/access_publish.c.obj
                0x00000000000273d4                access_publish_period_get
 .text.flash_manager_mem_available
                0x0000000000027400        0x4 CMakeFiles/dfu_nrf52840_xxAA_s140_6.0.0.dir/__/__/mesh/access/src/access.c.obj
 .text.flash_invalidate_complete
                0x0000000000027404        0x8 CMakeFiles/dfu_nrf52840_xxAA_s140_6.0.0.dir/__/__/mesh/access/src/access.c.obj
 .text.access_flash_config_clear
                0x000000000002740c       0x28 CMakeFiles/dfu_nrf52840_xxAA_s140_6.0.0.dir/__/__/mesh/access/src/access.c.obj
 .text.handle_incoming
                0x0000000000027434      0x19c CMakeFiles/dfu_nrf52840_xxAA_s140_6.0.0.dir/__/__/mesh/access/src/access.c.obj
 .text.mesh_evt_cb
                0x00000000000275d0      0x158 CMakeFiles/dfu_nrf52840_xxAA_s140_6.0.0.dir/__/__/mesh/access/src/access.c.obj
 .text.add_flash_manager
                0x0000000000027728       0x58 CMakeFiles/dfu_nrf52840_xxAA_s140_6.0.0.dir/__/__/mesh/access/src/access.c.obj
 .text.flash_write_complete
                0x0000000000027780       0x4c CMakeFiles/dfu_nrf52840_xxAA_s140_6.0.0.dir/__/__/mesh/access/src/access.c.obj
 .text.access_flash_config_store
                0x00000000000277cc      0x158 CMakeFiles/dfu_nrf52840_xxAA_s140_6.0.0.dir/__/__/mesh/access/src/access.c.obj
                0x00000000000277cc                access_flash_config_store
 .text.flash_remove_complete
                0x0000000000027924       0xb0 CMakeFiles/dfu_nrf52840_xxAA_s140_6.0.0.dir/__/__/mesh/access/src/access.c.obj
 .text.access_flash_config_load
                0x00000000000279d4      0x290 CMakeFiles/dfu_nrf52840_xxAA_s140_6.0.0.dir/__/__/mesh/access/src/access.c.obj
                0x00000000000279d4                access_flash_config_load
 .text.access_clear
                0x0000000000027c64       0x6c CMakeFiles/dfu_nrf52840_xxAA_s140_6.0.0.dir/__/__/mesh/access/src/access.c.obj
                0x0000000000027c64                access_clear
 .text.access_init
                0x0000000000027cd0       0xb4 CMakeFiles/dfu_nrf52840_xxAA_s140_6.0.0.dir/__/__/mesh/access/src/access.c.obj
                0x0000000000027cd0                access_init
 .text.access_model_add
                0x0000000000027d84      0x20c CMakeFiles/dfu_nrf52840_xxAA_s140_6.0.0.dir/__/__/mesh/access/src/access.c.obj
                0x0000000000027d84                access_model_add
 .text.access_model_publish
                0x0000000000027f90      0x3b8 CMakeFiles/dfu_nrf52840_xxAA_s140_6.0.0.dir/__/__/mesh/access/src/access.c.obj
                0x0000000000027f90                access_model_publish
 .text.access_model_reply
                0x0000000000028348      0x3d4 CMakeFiles/dfu_nrf52840_xxAA_s140_6.0.0.dir/__/__/mesh/access/src/access.c.obj
                0x0000000000028348                access_model_reply
 .text.access_model_publish_address_set
                0x000000000002871c       0x3c CMakeFiles/dfu_nrf52840_xxAA_s140_6.0.0.dir/__/__/mesh/access/src/access.c.obj
                0x000000000002871c                access_model_publish_address_set
 .text.access_model_publish_address_get
                0x0000000000028758       0x2c CMakeFiles/dfu_nrf52840_xxAA_s140_6.0.0.dir/__/__/mesh/access/src/access.c.obj
                0x0000000000028758                access_model_publish_address_get
 .text.access_model_publish_retransmit_set
                0x0000000000028784       0x58 CMakeFiles/dfu_nrf52840_xxAA_s140_6.0.0.dir/__/__/mesh/access/src/access.c.obj
                0x0000000000028784                access_model_publish_retransmit_set
 .text.access_model_publish_retransmit_get
                0x00000000000287dc       0x2c CMakeFiles/dfu_nrf52840_xxAA_s140_6.0.0.dir/__/__/mesh/access/src/access.c.obj
                0x00000000000287dc                access_model_publish_retransmit_get
 .text.access_model_publish_period_set
                0x0000000000028808       0x78 CMakeFiles/dfu_nrf52840_xxAA_s140_6.0.0.dir/__/__/mesh/access/src/access.c.obj
                0x0000000000028808                access_model_publish_period_set
 .text.access_model_publish_period_get
                0x0000000000028880       0x40 CMakeFiles/dfu_nrf52840_xxAA_s140_6.0.0.dir/__/__/mesh/access/src/access.c.obj
                0x0000000000028880                access_model_publish_period_get
 .text.access_model_subscription_add
                0x00000000000288c0       0x64 CMakeFiles/dfu_nrf52840_xxAA_s140_6.0.0.dir/__/__/mesh/access/src/access.c.obj
                0x00000000000288c0                access_model_subscription_add
 .text.access_model_subscription_remove
                0x0000000000028924       0x60 CMakeFiles/dfu_nrf52840_xxAA_s140_6.0.0.dir/__/__/mesh/access/src/access.c.obj
                0x0000000000028924                access_model_subscription_remove
 .text.access_model_subscriptions_get
                0x0000000000028984       0x80 CMakeFiles/dfu_nrf52840_xxAA_s140_6.0.0.dir/__/__/mesh/access/src/access.c.obj
                0x0000000000028984                access_model_subscriptions_get
 .text.access_model_application_bind
                0x0000000000028a04       0x58 CMakeFiles/dfu_nrf52840_xxAA_s140_6.0.0.dir/__/__/mesh/access/src/access.c.obj
                0x0000000000028a04                access_model_application_bind
 .text.access_model_application_unbind
                0x0000000000028a5c       0x58 CMakeFiles/dfu_nrf52840_xxAA_s140_6.0.0.dir/__/__/mesh/access/src/access.c.obj
                0x0000000000028a5c                access_model_application_unbind
 .text.access_model_applications_get
                0x0000000000028ab4      0x100 CMakeFiles/dfu_nrf52840_xxAA_s140_6.0.0.dir/__/__/mesh/access/src/access.c.obj
                0x0000000000028ab4                access_model_applications_get
 .text.access_model_publish_application_set
                0x0000000000028bb4       0x3c CMakeFiles/dfu_nrf52840_xxAA_s140_6.0.0.dir/__/__/mesh/access/src/access.c.obj
                0x0000000000028bb4                access_model_publish_application_set
 .text.access_model_publish_application_get
                0x0000000000028bf0       0x2c CMakeFiles/dfu_nrf52840_xxAA_s140_6.0.0.dir/__/__/mesh/access/src/access.c.obj
                0x0000000000028bf0                access_model_publish_application_get
 .text.access_default_ttl_set
                0x0000000000028c1c       0x1c CMakeFiles/dfu_nrf52840_xxAA_s140_6.0.0.dir/__/__/mesh/access/src/access.c.obj
                0x0000000000028c1c                access_default_ttl_set
 .text.access_default_ttl_get
                0x0000000000028c38        0xc CMakeFiles/dfu_nrf52840_xxAA_s140_6.0.0.dir/__/__/mesh/access/src/access.c.obj
                0x0000000000028c38                access_default_ttl_get
 .text.access_model_publish_ttl_set
                0x0000000000028c44       0x40 CMakeFiles/dfu_nrf52840_xxAA_s140_6.0.0.dir/__/__/mesh/access/src/access.c.obj
                0x0000000000028c44                access_model_publish_ttl_set
 .text.access_model_publish_ttl_get
                0x0000000000028c84       0x2c CMakeFiles/dfu_nrf52840_xxAA_s140_6.0.0.dir/__/__/mesh/access/src/access.c.obj
                0x0000000000028c84                access_model_publish_ttl_get
 .text.access_element_location_set
                0x0000000000028cb0       0x20 CMakeFiles/dfu_nrf52840_xxAA_s140_6.0.0.dir/__/__/mesh/access/src/access.c.obj
                0x0000000000028cb0                access_element_location_set
 .text.access_element_location_get
                0x0000000000028cd0       0x18 CMakeFiles/dfu_nrf52840_xxAA_s140_6.0.0.dir/__/__/mesh/access/src/access.c.obj
                0x0000000000028cd0                access_element_location_get
 .text.access_element_sig_model_count_get
                0x0000000000028ce8       0x18 CMakeFiles/dfu_nrf52840_xxAA_s140_6.0.0.dir/__/__/mesh/access/src/access.c.obj
                0x0000000000028ce8                access_element_sig_model_count_get
 .text.access_element_vendor_model_count_get
                0x0000000000028d00       0x18 CMakeFiles/dfu_nrf52840_xxAA_s140_6.0.0.dir/__/__/mesh/access/src/access.c.obj
                0x0000000000028d00                access_element_vendor_model_count_get
 .text.access_model_id_get
                0x0000000000028d18       0x40 CMakeFiles/dfu_nrf52840_xxAA_s140_6.0.0.dir/__/__/mesh/access/src/access.c.obj
                0x0000000000028d18                access_model_id_get
 .text.access_handle_get
                0x0000000000028d58       0x5c CMakeFiles/dfu_nrf52840_xxAA_s140_6.0.0.dir/__/__/mesh/access/src/access.c.obj
                0x0000000000028d58                access_handle_get
 .text.access_element_models_get
                0x0000000000028db4       0x60 CMakeFiles/dfu_nrf52840_xxAA_s140_6.0.0.dir/__/__/mesh/access/src/access.c.obj
                0x0000000000028db4                access_element_models_get
 .text.access_model_p_args_get
                0x0000000000028e14       0x2c CMakeFiles/dfu_nrf52840_xxAA_s140_6.0.0.dir/__/__/mesh/access/src/access.c.obj
                0x0000000000028e14                access_model_p_args_get
 .text.access_model_publication_stop
                0x0000000000028e40       0x5c CMakeFiles/dfu_nrf52840_xxAA_s140_6.0.0.dir/__/__/mesh/access/src/access.c.obj
                0x0000000000028e40                access_model_publication_stop
 .text.access_model_publication_by_appkey_stop
                0x0000000000028e9c       0x98 CMakeFiles/dfu_nrf52840_xxAA_s140_6.0.0.dir/__/__/mesh/access/src/access.c.obj
                0x0000000000028e9c                access_model_publication_by_appkey_stop
 .text.remove_and_reschedule
                0x0000000000028f34       0xc8 CMakeFiles/dfu_nrf52840_xxAA_s140_6.0.0.dir/__/__/mesh/access/src/access_reliable.c.obj
 .text.reliable_timer_cb
                0x0000000000028ffc      0x1a0 CMakeFiles/dfu_nrf52840_xxAA_s140_6.0.0.dir/__/__/mesh/access/src/access_reliable.c.obj
 .text.access_reliable_message_rx_cb
                0x000000000002919c       0x70 CMakeFiles/dfu_nrf52840_xxAA_s140_6.0.0.dir/__/__/mesh/access/src/access_reliable.c.obj
                0x000000000002919c                access_reliable_message_rx_cb
 .text.access_reliable_init
                0x000000000002920c       0x1c CMakeFiles/dfu_nrf52840_xxAA_s140_6.0.0.dir/__/__/mesh/access/src/access_reliable.c.obj
                0x000000000002920c                access_reliable_init
 .text.access_reliable_cancel_all
                0x0000000000029228       0xa8 CMakeFiles/dfu_nrf52840_xxAA_s140_6.0.0.dir/__/__/mesh/access/src/access_reliable.c.obj
                0x0000000000029228                access_reliable_cancel_all
 .text.access_model_reliable_cancel
                0x00000000000292d0       0x78 CMakeFiles/dfu_nrf52840_xxAA_s140_6.0.0.dir/__/__/mesh/access/src/access_reliable.c.obj
                0x00000000000292d0                access_model_reliable_cancel
 .text.addr_nonvirtual_to_dsm_entry
                0x0000000000029348       0x48 CMakeFiles/dfu_nrf52840_xxAA_s140_6.0.0.dir/__/__/mesh/access/src/device_state_manager.c.obj
 .text.addr_nonvirtual_to_flash_entry
                0x0000000000029390       0x10 CMakeFiles/dfu_nrf52840_xxAA_s140_6.0.0.dir/__/__/mesh/access/src/device_state_manager.c.obj
 .text.devkey_to_flash_entry
                0x00000000000293a0       0x28 CMakeFiles/dfu_nrf52840_xxAA_s140_6.0.0.dir/__/__/mesh/access/src/device_state_manager.c.obj
 .text.addr_virtual_to_flash_entry
                0x00000000000293c8       0x18 CMakeFiles/dfu_nrf52840_xxAA_s140_6.0.0.dir/__/__/mesh/access/src/device_state_manager.c.obj
 .text.addr_unicast_to_dsm_entry
                0x00000000000293e0        0xc CMakeFiles/dfu_nrf52840_xxAA_s140_6.0.0.dir/__/__/mesh/access/src/device_state_manager.c.obj
 .text.addr_unicast_to_flash_entry
                0x00000000000293ec       0x10 CMakeFiles/dfu_nrf52840_xxAA_s140_6.0.0.dir/__/__/mesh/access/src/device_state_manager.c.obj
 .text.flash_mem_listener_callback
                0x00000000000293fc       0x1c CMakeFiles/dfu_nrf52840_xxAA_s140_6.0.0.dir/__/__/mesh/access/src/device_state_manager.c.obj
 .text.appkey_to_flash_entry
                0x0000000000029418       0x54 CMakeFiles/dfu_nrf52840_xxAA_s140_6.0.0.dir/__/__/mesh/access/src/device_state_manager.c.obj
 .text.subnet_to_flash_entry
                0x000000000002946c       0x60 CMakeFiles/dfu_nrf52840_xxAA_s140_6.0.0.dir/__/__/mesh/access/src/device_state_manager.c.obj
 .text.reset_flash_area
                0x00000000000294cc       0x28 CMakeFiles/dfu_nrf52840_xxAA_s140_6.0.0.dir/__/__/mesh/access/src/device_state_manager.c.obj
 .text.build_flash_area
                0x00000000000294f4       0x90 CMakeFiles/dfu_nrf52840_xxAA_s140_6.0.0.dir/__/__/mesh/access/src/device_state_manager.c.obj
 .text.flash_invalidate_complete
                0x0000000000029584       0x54 CMakeFiles/dfu_nrf52840_xxAA_s140_6.0.0.dir/__/__/mesh/access/src/device_state_manager.c.obj
 .text.flash_write_complete
                0x00000000000295d8       0x50 CMakeFiles/dfu_nrf52840_xxAA_s140_6.0.0.dir/__/__/mesh/access/src/device_state_manager.c.obj
 .text.devkey_to_dsm_entry
                0x0000000000029628       0x70 CMakeFiles/dfu_nrf52840_xxAA_s140_6.0.0.dir/__/__/mesh/access/src/device_state_manager.c.obj
 .text.addr_virtual_to_dsm_entry
                0x0000000000029698       0x60 CMakeFiles/dfu_nrf52840_xxAA_s140_6.0.0.dir/__/__/mesh/access/src/device_state_manager.c.obj
 .text.appkey_to_dsm_entry
                0x00000000000296f8       0xf4 CMakeFiles/dfu_nrf52840_xxAA_s140_6.0.0.dir/__/__/mesh/access/src/device_state_manager.c.obj
 .text.subnet_to_dsm_entry
                0x00000000000297ec      0x11c CMakeFiles/dfu_nrf52840_xxAA_s140_6.0.0.dir/__/__/mesh/access/src/device_state_manager.c.obj
 .text.flash_remove_complete
                0x0000000000029908       0x90 CMakeFiles/dfu_nrf52840_xxAA_s140_6.0.0.dir/__/__/mesh/access/src/device_state_manager.c.obj
 .text.address_delete_if_unused
                0x0000000000029998       0xf4 CMakeFiles/dfu_nrf52840_xxAA_s140_6.0.0.dir/__/__/mesh/access/src/device_state_manager.c.obj
 .text.flash_update_all
                0x0000000000029a8c      0x184 CMakeFiles/dfu_nrf52840_xxAA_s140_6.0.0.dir/__/__/mesh/access/src/device_state_manager.c.obj
 .text.mesh_evt_handler
                0x0000000000029c10      0x258 CMakeFiles/dfu_nrf52840_xxAA_s140_6.0.0.dir/__/__/mesh/access/src/device_state_manager.c.obj
 .text.dsm_flash_config_load
                0x0000000000029e68      0x1f8 CMakeFiles/dfu_nrf52840_xxAA_s140_6.0.0.dir/__/__/mesh/access/src/device_state_manager.c.obj
                0x0000000000029e68                dsm_flash_config_load
 .text.dsm_flash_area_get
                0x000000000002a060        0xc CMakeFiles/dfu_nrf52840_xxAA_s140_6.0.0.dir/__/__/mesh/access/src/device_state_manager.c.obj
                0x000000000002a060                dsm_flash_area_get
 .text.dsm_clear
                0x000000000002a06c      0x100 CMakeFiles/dfu_nrf52840_xxAA_s140_6.0.0.dir/__/__/mesh/access/src/device_state_manager.c.obj
                0x000000000002a06c                dsm_clear
 .text.dsm_init
                0x000000000002a16c       0xbc CMakeFiles/dfu_nrf52840_xxAA_s140_6.0.0.dir/__/__/mesh/access/src/device_state_manager.c.obj
                0x000000000002a16c                dsm_init
 .text.dsm_local_unicast_addresses_set
                0x000000000002a228       0xbc CMakeFiles/dfu_nrf52840_xxAA_s140_6.0.0.dir/__/__/mesh/access/src/device_state_manager.c.obj
                0x000000000002a228                dsm_local_unicast_addresses_set
 .text.dsm_local_unicast_addresses_get
                0x000000000002a2e4       0x20 CMakeFiles/dfu_nrf52840_xxAA_s140_6.0.0.dir/__/__/mesh/access/src/device_state_manager.c.obj
                0x000000000002a2e4                dsm_local_unicast_addresses_get
 .text.dsm_address_publish_add
                0x000000000002a304      0x318 CMakeFiles/dfu_nrf52840_xxAA_s140_6.0.0.dir/__/__/mesh/access/src/device_state_manager.c.obj
                0x000000000002a304                dsm_address_publish_add
 .text.dsm_address_publish_add_handle
                0x000000000002a61c       0x54 CMakeFiles/dfu_nrf52840_xxAA_s140_6.0.0.dir/__/__/mesh/access/src/device_state_manager.c.obj
                0x000000000002a61c                dsm_address_publish_add_handle
 .text.dsm_address_publish_virtual_add
                0x000000000002a670      0x2b4 CMakeFiles/dfu_nrf52840_xxAA_s140_6.0.0.dir/__/__/mesh/access/src/device_state_manager.c.obj
                0x000000000002a670                dsm_address_publish_virtual_add
 .text.dsm_address_publish_remove
                0x000000000002a924       0xcc CMakeFiles/dfu_nrf52840_xxAA_s140_6.0.0.dir/__/__/mesh/access/src/device_state_manager.c.obj
                0x000000000002a924                dsm_address_publish_remove
 .text.dsm_address_subscription_add
                0x000000000002a9f0      0x354 CMakeFiles/dfu_nrf52840_xxAA_s140_6.0.0.dir/__/__/mesh/access/src/device_state_manager.c.obj
                0x000000000002a9f0                dsm_address_subscription_add
 .text.dsm_address_subscription_virtual_add
                0x000000000002ad44      0x2b4 CMakeFiles/dfu_nrf52840_xxAA_s140_6.0.0.dir/__/__/mesh/access/src/device_state_manager.c.obj
                0x000000000002ad44                dsm_address_subscription_virtual_add
 .text.dsm_address_subscription_add_handle
                0x000000000002aff8       0x54 CMakeFiles/dfu_nrf52840_xxAA_s140_6.0.0.dir/__/__/mesh/access/src/device_state_manager.c.obj
                0x000000000002aff8                dsm_address_subscription_add_handle
 .text.dsm_address_subscription_get
                0x000000000002b04c       0x5c CMakeFiles/dfu_nrf52840_xxAA_s140_6.0.0.dir/__/__/mesh/access/src/device_state_manager.c.obj
                0x000000000002b04c                dsm_address_subscription_get
 .text.dsm_address_subscription_remove
                0x000000000002b0a8       0x90 CMakeFiles/dfu_nrf52840_xxAA_s140_6.0.0.dir/__/__/mesh/access/src/device_state_manager.c.obj
                0x000000000002b0a8                dsm_address_subscription_remove
 .text.dsm_address_get
                0x000000000002b138       0x78 CMakeFiles/dfu_nrf52840_xxAA_s140_6.0.0.dir/__/__/mesh/access/src/device_state_manager.c.obj
                0x000000000002b138                dsm_address_get
 .text.dsm_address_get_all
                0x000000000002b1b0      0x258 CMakeFiles/dfu_nrf52840_xxAA_s140_6.0.0.dir/__/__/mesh/access/src/device_state_manager.c.obj
                0x000000000002b1b0                dsm_address_get_all
 .text.dsm_address_handle_get
                0x000000000002b408      0x3a4 CMakeFiles/dfu_nrf52840_xxAA_s140_6.0.0.dir/__/__/mesh/access/src/device_state_manager.c.obj
                0x000000000002b408                dsm_address_handle_get
 .text.dsm_net_key_index_to_subnet_handle
                0x000000000002b7ac       0x5c CMakeFiles/dfu_nrf52840_xxAA_s140_6.0.0.dir/__/__/mesh/access/src/device_state_manager.c.obj
                0x000000000002b7ac                dsm_net_key_index_to_subnet_handle
 .text.dsm_subnet_handle_get
                0x000000000002b808       0xa8 CMakeFiles/dfu_nrf52840_xxAA_s140_6.0.0.dir/__/__/mesh/access/src/device_state_manager.c.obj
                0x000000000002b808                dsm_subnet_handle_get
 .text.dsm_appkey_index_to_appkey_handle
                0x000000000002b8b0       0xa0 CMakeFiles/dfu_nrf52840_xxAA_s140_6.0.0.dir/__/__/mesh/access/src/device_state_manager.c.obj
                0x000000000002b8b0                dsm_appkey_index_to_appkey_handle
 .text.dsm_appkey_handle_get
                0x000000000002b950       0x44 CMakeFiles/dfu_nrf52840_xxAA_s140_6.0.0.dir/__/__/mesh/access/src/device_state_manager.c.obj
                0x000000000002b950                dsm_appkey_handle_get
 .text.dsm_appkey_handle_to_appkey_index
                0x000000000002b994       0x34 CMakeFiles/dfu_nrf52840_xxAA_s140_6.0.0.dir/__/__/mesh/access/src/device_state_manager.c.obj
                0x000000000002b994                dsm_appkey_handle_to_appkey_index
 .text.dsm_appkey_handle_to_subnet_handle
                0x000000000002b9c8       0xb8 CMakeFiles/dfu_nrf52840_xxAA_s140_6.0.0.dir/__/__/mesh/access/src/device_state_manager.c.obj
                0x000000000002b9c8                dsm_appkey_handle_to_subnet_handle
 .text.dsm_subnet_add
                0x000000000002ba80      0x210 CMakeFiles/dfu_nrf52840_xxAA_s140_6.0.0.dir/__/__/mesh/access/src/device_state_manager.c.obj
                0x000000000002ba80                dsm_subnet_add
 .text.dsm_subnet_kr_phase_get
                0x000000000002bc90       0x30 CMakeFiles/dfu_nrf52840_xxAA_s140_6.0.0.dir/__/__/mesh/access/src/device_state_manager.c.obj
                0x000000000002bc90                dsm_subnet_kr_phase_get
 .text.dsm_subnet_update
                0x000000000002bcc0      0x118 CMakeFiles/dfu_nrf52840_xxAA_s140_6.0.0.dir/__/__/mesh/access/src/device_state_manager.c.obj
                0x000000000002bcc0                dsm_subnet_update
 .text.dsm_subnet_update_swap_keys
                0x000000000002bdd8       0xa8 CMakeFiles/dfu_nrf52840_xxAA_s140_6.0.0.dir/__/__/mesh/access/src/device_state_manager.c.obj
                0x000000000002bdd8                dsm_subnet_update_swap_keys
 .text.dsm_subnet_update_commit
                0x000000000002be80      0x1b8 CMakeFiles/dfu_nrf52840_xxAA_s140_6.0.0.dir/__/__/mesh/access/src/device_state_manager.c.obj
                0x000000000002be80                dsm_subnet_update_commit
 .text.dsm_subnet_delete
                0x000000000002c038      0x330 CMakeFiles/dfu_nrf52840_xxAA_s140_6.0.0.dir/__/__/mesh/access/src/device_state_manager.c.obj
                0x000000000002c038                dsm_subnet_delete
 .text.dsm_subnet_get_all
                0x000000000002c368       0x90 CMakeFiles/dfu_nrf52840_xxAA_s140_6.0.0.dir/__/__/mesh/access/src/device_state_manager.c.obj
                0x000000000002c368                dsm_subnet_get_all
 .text.dsm_devkey_add
                0x000000000002c3f8      0x108 CMakeFiles/dfu_nrf52840_xxAA_s140_6.0.0.dir/__/__/mesh/access/src/device_state_manager.c.obj
                0x000000000002c3f8                dsm_devkey_add
 .text.dsm_devkey_delete
                0x000000000002c500       0x6c CMakeFiles/dfu_nrf52840_xxAA_s140_6.0.0.dir/__/__/mesh/access/src/device_state_manager.c.obj
                0x000000000002c500                dsm_devkey_delete
 .text.dsm_appkey_add
                0x000000000002c56c      0x288 CMakeFiles/dfu_nrf52840_xxAA_s140_6.0.0.dir/__/__/mesh/access/src/device_state_manager.c.obj
                0x000000000002c56c                dsm_appkey_add
 .text.dsm_appkey_update
                0x000000000002c7f4       0xf8 CMakeFiles/dfu_nrf52840_xxAA_s140_6.0.0.dir/__/__/mesh/access/src/device_state_manager.c.obj
                0x000000000002c7f4                dsm_appkey_update
 .text.dsm_appkey_delete
                0x000000000002c8ec       0x68 CMakeFiles/dfu_nrf52840_xxAA_s140_6.0.0.dir/__/__/mesh/access/src/device_state_manager.c.obj
                0x000000000002c8ec                dsm_appkey_delete
 .text.dsm_appkey_get_all
                0x000000000002c954      0x15c CMakeFiles/dfu_nrf52840_xxAA_s140_6.0.0.dir/__/__/mesh/access/src/device_state_manager.c.obj
                0x000000000002c954                dsm_appkey_get_all
 .text.dsm_tx_secmat_get
                0x000000000002cab0       0xdc CMakeFiles/dfu_nrf52840_xxAA_s140_6.0.0.dir/__/__/mesh/access/src/device_state_manager.c.obj
                0x000000000002cab0                dsm_tx_secmat_get
 .text.dsm_net_secmat_from_keyindex_get
                0x000000000002cb8c       0x7c CMakeFiles/dfu_nrf52840_xxAA_s140_6.0.0.dir/__/__/mesh/access/src/device_state_manager.c.obj
                0x000000000002cb8c                dsm_net_secmat_from_keyindex_get
 .text.nrf_mesh_net_secmat_next_get
                0x000000000002cc08      0x230 CMakeFiles/dfu_nrf52840_xxAA_s140_6.0.0.dir/__/__/mesh/access/src/device_state_manager.c.obj
                0x000000000002cc08                nrf_mesh_net_secmat_next_get
 .text.nrf_mesh_app_secmat_next_get
                0x000000000002ce38      0x278 CMakeFiles/dfu_nrf52840_xxAA_s140_6.0.0.dir/__/__/mesh/access/src/device_state_manager.c.obj
                0x000000000002ce38                nrf_mesh_app_secmat_next_get
 .text.nrf_mesh_devkey_secmat_get
                0x000000000002d0b0       0x30 CMakeFiles/dfu_nrf52840_xxAA_s140_6.0.0.dir/__/__/mesh/access/src/device_state_manager.c.obj
                0x000000000002d0b0                nrf_mesh_devkey_secmat_get
 .text.nrf_mesh_beacon_info_next_get
                0x000000000002d0e0      0x170 CMakeFiles/dfu_nrf52840_xxAA_s140_6.0.0.dir/__/__/mesh/access/src/device_state_manager.c.obj
                0x000000000002d0e0                nrf_mesh_beacon_info_next_get
 .text.nrf_mesh_rx_address_get
                0x000000000002d250      0x570 CMakeFiles/dfu_nrf52840_xxAA_s140_6.0.0.dir/__/__/mesh/access/src/device_state_manager.c.obj
                0x000000000002d250                nrf_mesh_rx_address_get
 .text.nrf_mesh_unicast_address_get
                0x000000000002d7c0       0x24 CMakeFiles/dfu_nrf52840_xxAA_s140_6.0.0.dir/__/__/mesh/access/src/device_state_manager.c.obj
                0x000000000002d7c0                nrf_mesh_unicast_address_get
 .text.UARTE0_UART0_IRQHandler
                0x000000000002d7e4       0x74 CMakeFiles/dfu_nrf52840_xxAA_s140_6.0.0.dir/__/__/mesh/serial/src/serial_uart.c.obj
                0x000000000002d7e4                UARTE0_UART0_IRQHandler
 .text.serial_uart_init
                0x000000000002d858       0xa4 CMakeFiles/dfu_nrf52840_xxAA_s140_6.0.0.dir/__/__/mesh/serial/src/serial_uart.c.obj
                0x000000000002d858                serial_uart_init
 .text.serial_uart_process
                0x000000000002d8fc       0x74 CMakeFiles/dfu_nrf52840_xxAA_s140_6.0.0.dir/__/__/mesh/serial/src/serial_uart.c.obj
                0x000000000002d8fc                serial_uart_process
 .text.serial_uart_receive_set
                0x000000000002d970        0xc CMakeFiles/dfu_nrf52840_xxAA_s140_6.0.0.dir/__/__/mesh/serial/src/serial_uart.c.obj
                0x000000000002d970                serial_uart_receive_set
 .text.do_transmit
                0x000000000002d97c       0x4c CMakeFiles/dfu_nrf52840_xxAA_s140_6.0.0.dir/__/__/mesh/serial/src/serial_bearer.c.obj
 .text.char_tx  0x000000000002d9c8       0x8c CMakeFiles/dfu_nrf52840_xxAA_s140_6.0.0.dir/__/__/mesh/serial/src/serial_bearer.c.obj
 .text.char_rx  0x000000000002da54      0x128 CMakeFiles/dfu_nrf52840_xxAA_s140_6.0.0.dir/__/__/mesh/serial/src/serial_bearer.c.obj
 .text.serial_bearer_init
                0x000000000002db7c       0x74 CMakeFiles/dfu_nrf52840_xxAA_s140_6.0.0.dir/__/__/mesh/serial/src/serial_bearer.c.obj
                0x000000000002db7c                serial_bearer_init
 .text.serial_bearer_blocking_buffer_get
                0x000000000002dbf0       0x90 CMakeFiles/dfu_nrf52840_xxAA_s140_6.0.0.dir/__/__/mesh/serial/src/serial_bearer.c.obj
                0x000000000002dbf0                serial_bearer_blocking_buffer_get
 .text.serial_bearer_tx
                0x000000000002dc80       0x54 CMakeFiles/dfu_nrf52840_xxAA_s140_6.0.0.dir/__/__/mesh/serial/src/serial_bearer.c.obj
                0x000000000002dc80                serial_bearer_tx
 .text.serial_bearer_rx_get
                0x000000000002dcd4       0x3c CMakeFiles/dfu_nrf52840_xxAA_s140_6.0.0.dir/__/__/mesh/serial/src/serial_bearer.c.obj
                0x000000000002dcd4                serial_bearer_rx_get
 .text.serial_handler_common_cmd_rsp_nodata_on_error
                0x000000000002dd10       0x38 CMakeFiles/dfu_nrf52840_xxAA_s140_6.0.0.dir/__/__/mesh/serial/src/serial_handler_common.c.obj
                0x000000000002dd10                serial_handler_common_cmd_rsp_nodata_on_error
 .text.serial_handler_common_rx
                0x000000000002dd48       0x60 CMakeFiles/dfu_nrf52840_xxAA_s140_6.0.0.dir/__/__/mesh/serial/src/serial_handler_common.c.obj
                0x000000000002dd48                serial_handler_common_rx
 .text.access_flash_store
                0x000000000002dda8       0x18 CMakeFiles/dfu_nrf52840_xxAA_s140_6.0.0.dir/__/__/mesh/serial/src/serial_handler_access.c.obj
 .text.elem_models_get
                0x000000000002ddc0       0x50 CMakeFiles/dfu_nrf52840_xxAA_s140_6.0.0.dir/__/__/mesh/serial/src/serial_handler_access.c.obj
 .text.handle_get
                0x000000000002de10       0x20 CMakeFiles/dfu_nrf52840_xxAA_s140_6.0.0.dir/__/__/mesh/serial/src/serial_handler_access.c.obj
 .text.model_id_get
                0x000000000002de30       0x20 CMakeFiles/dfu_nrf52840_xxAA_s140_6.0.0.dir/__/__/mesh/serial/src/serial_handler_access.c.obj
 .text.elem_vendor_model_cnt_get
                0x000000000002de50       0x20 CMakeFiles/dfu_nrf52840_xxAA_s140_6.0.0.dir/__/__/mesh/serial/src/serial_handler_access.c.obj
 .text.elem_sig_model_cnt_get
                0x000000000002de70       0x20 CMakeFiles/dfu_nrf52840_xxAA_s140_6.0.0.dir/__/__/mesh/serial/src/serial_handler_access.c.obj
 .text.elem_loc_get
                0x000000000002de90       0x20 CMakeFiles/dfu_nrf52840_xxAA_s140_6.0.0.dir/__/__/mesh/serial/src/serial_handler_access.c.obj
 .text.elem_loc_set
                0x000000000002deb0       0x24 CMakeFiles/dfu_nrf52840_xxAA_s140_6.0.0.dir/__/__/mesh/serial/src/serial_handler_access.c.obj
 .text.model_pub_ttl_get
                0x000000000002ded4       0x20 CMakeFiles/dfu_nrf52840_xxAA_s140_6.0.0.dir/__/__/mesh/serial/src/serial_handler_access.c.obj
 .text.model_pub_ttl_set
                0x000000000002def4       0x24 CMakeFiles/dfu_nrf52840_xxAA_s140_6.0.0.dir/__/__/mesh/serial/src/serial_handler_access.c.obj
 .text.model_pub_app_get
                0x000000000002df18       0x20 CMakeFiles/dfu_nrf52840_xxAA_s140_6.0.0.dir/__/__/mesh/serial/src/serial_handler_access.c.obj
 .text.model_pub_app_set
                0x000000000002df38       0x24 CMakeFiles/dfu_nrf52840_xxAA_s140_6.0.0.dir/__/__/mesh/serial/src/serial_handler_access.c.obj
 .text.model_app_get
                0x000000000002df5c       0x50 CMakeFiles/dfu_nrf52840_xxAA_s140_6.0.0.dir/__/__/mesh/serial/src/serial_handler_access.c.obj
 .text.model_app_unbind
                0x000000000002dfac       0x24 CMakeFiles/dfu_nrf52840_xxAA_s140_6.0.0.dir/__/__/mesh/serial/src/serial_handler_access.c.obj
 .text.model_app_bind
                0x000000000002dfd0       0x24 CMakeFiles/dfu_nrf52840_xxAA_s140_6.0.0.dir/__/__/mesh/serial/src/serial_handler_access.c.obj
 .text.model_subs_get
                0x000000000002dff4       0x50 CMakeFiles/dfu_nrf52840_xxAA_s140_6.0.0.dir/__/__/mesh/serial/src/serial_handler_access.c.obj
 .text.model_subs_remove
                0x000000000002e044       0x24 CMakeFiles/dfu_nrf52840_xxAA_s140_6.0.0.dir/__/__/mesh/serial/src/serial_handler_access.c.obj
 .text.model_subs_add
                0x000000000002e068       0x24 CMakeFiles/dfu_nrf52840_xxAA_s140_6.0.0.dir/__/__/mesh/serial/src/serial_handler_access.c.obj
 .text.model_pub_period_get
                0x000000000002e08c       0x24 CMakeFiles/dfu_nrf52840_xxAA_s140_6.0.0.dir/__/__/mesh/serial/src/serial_handler_access.c.obj
 .text.model_pub_period_set
                0x000000000002e0b0       0x24 CMakeFiles/dfu_nrf52840_xxAA_s140_6.0.0.dir/__/__/mesh/serial/src/serial_handler_access.c.obj
 .text.model_pub_addr_get
                0x000000000002e0d4       0x20 CMakeFiles/dfu_nrf52840_xxAA_s140_6.0.0.dir/__/__/mesh/serial/src/serial_handler_access.c.obj
 .text.model_pub_addr_set
                0x000000000002e0f4       0x24 CMakeFiles/dfu_nrf52840_xxAA_s140_6.0.0.dir/__/__/mesh/serial/src/serial_handler_access.c.obj
 .text.serial_handler_access_rx
                0x000000000002e118       0x24 CMakeFiles/dfu_nrf52840_xxAA_s140_6.0.0.dir/__/__/mesh/serial/src/serial_handler_access.c.obj
                0x000000000002e118                serial_handler_access_rx
 .text.serial_handler_config_rx
                0x000000000002e13c       0xe8 CMakeFiles/dfu_nrf52840_xxAA_s140_6.0.0.dir/__/__/mesh/serial/src/serial_handler_config.c.obj
                0x000000000002e13c                serial_handler_config_rx
 .text.serial_handler_openmesh_rx
                0x000000000002e224       0x38 CMakeFiles/dfu_nrf52840_xxAA_s140_6.0.0.dir/__/__/mesh/serial/src/serial_handler_openmesh.c.obj
                0x000000000002e224                serial_handler_openmesh_rx
 .text.serial_process_cmd
                0x000000000002e25c      0x1e0 CMakeFiles/dfu_nrf52840_xxAA_s140_6.0.0.dir/__/__/mesh/serial/src/serial.c.obj
 .text.serial_init
                0x000000000002e43c       0x1c CMakeFiles/dfu_nrf52840_xxAA_s140_6.0.0.dir/__/__/mesh/serial/src/serial.c.obj
                0x000000000002e43c                serial_init
 .text.serial_start
                0x000000000002e458      0x12c CMakeFiles/dfu_nrf52840_xxAA_s140_6.0.0.dir/__/__/mesh/serial/src/serial.c.obj
                0x000000000002e458                serial_start
 .text.serial_packet_buffer_get
                0x000000000002e584       0x14 CMakeFiles/dfu_nrf52840_xxAA_s140_6.0.0.dir/__/__/mesh/serial/src/serial.c.obj
                0x000000000002e584                serial_packet_buffer_get
 .text.serial_tx
                0x000000000002e598       0x20 CMakeFiles/dfu_nrf52840_xxAA_s140_6.0.0.dir/__/__/mesh/serial/src/serial.c.obj
                0x000000000002e598                serial_tx
 .text.serial_process
                0x000000000002e5b8       0x34 CMakeFiles/dfu_nrf52840_xxAA_s140_6.0.0.dir/__/__/mesh/serial/src/serial.c.obj
                0x000000000002e5b8                serial_process
 .text.serial_translate_error
                0x000000000002e5ec       0x64 CMakeFiles/dfu_nrf52840_xxAA_s140_6.0.0.dir/__/__/mesh/serial/src/serial.c.obj
                0x000000000002e5ec                serial_translate_error
 .text.serial_state_get
                0x000000000002e650        0xc CMakeFiles/dfu_nrf52840_xxAA_s140_6.0.0.dir/__/__/mesh/serial/src/serial.c.obj
                0x000000000002e650                serial_state_get
 .text.serial_cmd_rsp_send
                0x000000000002e65c       0x7c CMakeFiles/dfu_nrf52840_xxAA_s140_6.0.0.dir/__/__/mesh/serial/src/serial.c.obj
                0x000000000002e65c                serial_cmd_rsp_send
 .text.serial_handler_prov_evt_in
                0x000000000002e6d8      0x350 CMakeFiles/dfu_nrf52840_xxAA_s140_6.0.0.dir/__/__/mesh/serial/src/serial_handler_prov.c.obj
 .text.serial_handler_prov_init
                0x000000000002ea28       0xd4 CMakeFiles/dfu_nrf52840_xxAA_s140_6.0.0.dir/__/__/mesh/serial/src/serial_handler_prov.c.obj
                0x000000000002ea28                serial_handler_prov_init
 .text.serial_handler_prov_pkt_in
                0x000000000002eafc      0x27c CMakeFiles/dfu_nrf52840_xxAA_s140_6.0.0.dir/__/__/mesh/serial/src/serial_handler_prov.c.obj
                0x000000000002eafc                serial_handler_prov_pkt_in
 .text.serial_handler_mesh_evt_handle
                0x000000000002ed78      0x1bc CMakeFiles/dfu_nrf52840_xxAA_s140_6.0.0.dir/__/__/mesh/serial/src/serial_handler_dfu.c.obj
 .text.serial_handler_dfu_init
                0x000000000002ef34       0x14 CMakeFiles/dfu_nrf52840_xxAA_s140_6.0.0.dir/__/__/mesh/serial/src/serial_handler_dfu.c.obj
                0x000000000002ef34                serial_handler_dfu_init
 .text.serial_handler_dfu_rx
                0x000000000002ef48      0x16c CMakeFiles/dfu_nrf52840_xxAA_s140_6.0.0.dir/__/__/mesh/serial/src/serial_handler_dfu.c.obj
                0x000000000002ef48                serial_handler_dfu_rx
 .text.serial_handler_mesh_evt_handle
                0x000000000002f0b4      0x11c CMakeFiles/dfu_nrf52840_xxAA_s140_6.0.0.dir/__/__/mesh/serial/src/serial_handler_mesh.c.obj
 .text.handle_cmd_clear
                0x000000000002f1d0       0x20 CMakeFiles/dfu_nrf52840_xxAA_s140_6.0.0.dir/__/__/mesh/serial/src/serial_handler_mesh.c.obj
 .text.handle_cmd_packet_send
                0x000000000002f1f0       0xa4 CMakeFiles/dfu_nrf52840_xxAA_s140_6.0.0.dir/__/__/mesh/serial/src/serial_handler_mesh.c.obj
 .text.handle_cmd_addr_nonvirtual_count_max_get
                0x000000000002f294       0x1c CMakeFiles/dfu_nrf52840_xxAA_s140_6.0.0.dir/__/__/mesh/serial/src/serial_handler_mesh.c.obj
 .text.handle_cmd_addr_local_unicast_get
                0x000000000002f2b0       0x24 CMakeFiles/dfu_nrf52840_xxAA_s140_6.0.0.dir/__/__/mesh/serial/src/serial_handler_mesh.c.obj
 .text.handle_cmd_devkey_count_max_get
                0x000000000002f2d4       0x1c CMakeFiles/dfu_nrf52840_xxAA_s140_6.0.0.dir/__/__/mesh/serial/src/serial_handler_mesh.c.obj
 .text.handle_cmd_appkey_count_max_get
                0x000000000002f2f0       0x1c CMakeFiles/dfu_nrf52840_xxAA_s140_6.0.0.dir/__/__/mesh/serial/src/serial_handler_mesh.c.obj
 .text.handle_cmd_subnet_count_max_get
                0x000000000002f30c       0x1c CMakeFiles/dfu_nrf52840_xxAA_s140_6.0.0.dir/__/__/mesh/serial/src/serial_handler_mesh.c.obj
 .text.handle_cmd_addr_get_all
                0x000000000002f328       0x38 CMakeFiles/dfu_nrf52840_xxAA_s140_6.0.0.dir/__/__/mesh/serial/src/serial_handler_mesh.c.obj
 .text.handle_cmd_addr_get
                0x000000000002f360       0x68 CMakeFiles/dfu_nrf52840_xxAA_s140_6.0.0.dir/__/__/mesh/serial/src/serial_handler_mesh.c.obj
 .text.handle_cmd_addr_publication_remove
                0x000000000002f3c8       0x28 CMakeFiles/dfu_nrf52840_xxAA_s140_6.0.0.dir/__/__/mesh/serial/src/serial_handler_mesh.c.obj
 .text.handle_cmd_addr_publication_add_virtual
                0x000000000002f3f0       0x28 CMakeFiles/dfu_nrf52840_xxAA_s140_6.0.0.dir/__/__/mesh/serial/src/serial_handler_mesh.c.obj
 .text.handle_cmd_addr_publication_add
                0x000000000002f418       0x28 CMakeFiles/dfu_nrf52840_xxAA_s140_6.0.0.dir/__/__/mesh/serial/src/serial_handler_mesh.c.obj
 .text.handle_cmd_addr_subscription_remove
                0x000000000002f440       0x28 CMakeFiles/dfu_nrf52840_xxAA_s140_6.0.0.dir/__/__/mesh/serial/src/serial_handler_mesh.c.obj
 .text.handle_cmd_addr_subscription_add_virtual
                0x000000000002f468       0x28 CMakeFiles/dfu_nrf52840_xxAA_s140_6.0.0.dir/__/__/mesh/serial/src/serial_handler_mesh.c.obj
 .text.handle_cmd_addr_subscription_add
                0x000000000002f490       0x28 CMakeFiles/dfu_nrf52840_xxAA_s140_6.0.0.dir/__/__/mesh/serial/src/serial_handler_mesh.c.obj
 .text.handle_cmd_addr_local_unicast_set
                0x000000000002f4b8       0x24 CMakeFiles/dfu_nrf52840_xxAA_s140_6.0.0.dir/__/__/mesh/serial/src/serial_handler_mesh.c.obj
 .text.handle_cmd_devkey_delete
                0x000000000002f4dc       0x28 CMakeFiles/dfu_nrf52840_xxAA_s140_6.0.0.dir/__/__/mesh/serial/src/serial_handler_mesh.c.obj
 .text.handle_cmd_devkey_add
                0x000000000002f504       0x24 CMakeFiles/dfu_nrf52840_xxAA_s140_6.0.0.dir/__/__/mesh/serial/src/serial_handler_mesh.c.obj
 .text.handle_cmd_appkey_get_all
                0x000000000002f528       0x40 CMakeFiles/dfu_nrf52840_xxAA_s140_6.0.0.dir/__/__/mesh/serial/src/serial_handler_mesh.c.obj
 .text.handle_cmd_appkey_delete
                0x000000000002f568       0x28 CMakeFiles/dfu_nrf52840_xxAA_s140_6.0.0.dir/__/__/mesh/serial/src/serial_handler_mesh.c.obj
 .text.handle_cmd_appkey_update
                0x000000000002f590       0x2c CMakeFiles/dfu_nrf52840_xxAA_s140_6.0.0.dir/__/__/mesh/serial/src/serial_handler_mesh.c.obj
 .text.handle_cmd_appkey_add
                0x000000000002f5bc       0x2c CMakeFiles/dfu_nrf52840_xxAA_s140_6.0.0.dir/__/__/mesh/serial/src/serial_handler_mesh.c.obj
 .text.handle_cmd_subnet_get_all
                0x000000000002f5e8       0x38 CMakeFiles/dfu_nrf52840_xxAA_s140_6.0.0.dir/__/__/mesh/serial/src/serial_handler_mesh.c.obj
 .text.handle_cmd_subnet_delete
                0x000000000002f620       0x28 CMakeFiles/dfu_nrf52840_xxAA_s140_6.0.0.dir/__/__/mesh/serial/src/serial_handler_mesh.c.obj
 .text.handle_cmd_subnet_update
                0x000000000002f648       0x2c CMakeFiles/dfu_nrf52840_xxAA_s140_6.0.0.dir/__/__/mesh/serial/src/serial_handler_mesh.c.obj
 .text.handle_cmd_subnet_add
                0x000000000002f674       0x2c CMakeFiles/dfu_nrf52840_xxAA_s140_6.0.0.dir/__/__/mesh/serial/src/serial_handler_mesh.c.obj
 .text.handle_cmd_disable
                0x000000000002f6a0       0x18 CMakeFiles/dfu_nrf52840_xxAA_s140_6.0.0.dir/__/__/mesh/serial/src/serial_handler_mesh.c.obj
 .text.handle_cmd_enable
                0x000000000002f6b8       0x18 CMakeFiles/dfu_nrf52840_xxAA_s140_6.0.0.dir/__/__/mesh/serial/src/serial_handler_mesh.c.obj
 .text.handle_cmd_addr_virtual_count_max_get
                0x000000000002f6d0       0x1c CMakeFiles/dfu_nrf52840_xxAA_s140_6.0.0.dir/__/__/mesh/serial/src/serial_handler_mesh.c.obj
 .text.serial_handler_mesh_init
                0x000000000002f6ec       0x14 CMakeFiles/dfu_nrf52840_xxAA_s140_6.0.0.dir/__/__/mesh/serial/src/serial_handler_mesh.c.obj
                0x000000000002f6ec                serial_handler_mesh_init
 .text.serial_handler_mesh_rx
                0x000000000002f700       0x84 CMakeFiles/dfu_nrf52840_xxAA_s140_6.0.0.dir/__/__/mesh/serial/src/serial_handler_mesh.c.obj
                0x000000000002f700                serial_handler_mesh_rx
 .text.model_command
                0x000000000002f784       0x94 CMakeFiles/dfu_nrf52840_xxAA_s140_6.0.0.dir/__/__/mesh/serial/src/serial_handler_models.c.obj
 .text.models_get
                0x000000000002f818       0x74 CMakeFiles/dfu_nrf52840_xxAA_s140_6.0.0.dir/__/__/mesh/serial/src/serial_handler_models.c.obj
 .text.model_init
                0x000000000002f88c       0x6c CMakeFiles/dfu_nrf52840_xxAA_s140_6.0.0.dir/__/__/mesh/serial/src/serial_handler_models.c.obj
 .text.serial_handler_models_rx
                0x000000000002f8f8       0x24 CMakeFiles/dfu_nrf52840_xxAA_s140_6.0.0.dir/__/__/mesh/serial/src/serial_handler_models.c.obj
                0x000000000002f8f8                serial_handler_models_rx
 .text.handle_cmd_device_serial_version_get
                0x000000000002f91c       0x1c CMakeFiles/dfu_nrf52840_xxAA_s140_6.0.0.dir/__/__/mesh/serial/src/serial_handler_device.c.obj
 .text.handle_cmd_device_internal_events_report
                0x000000000002f938        0xc CMakeFiles/dfu_nrf52840_xxAA_s140_6.0.0.dir/__/__/mesh/serial/src/serial_handler_device.c.obj
 .text.handle_cmd_device_beacon_params_set
                0x000000000002f944       0x88 CMakeFiles/dfu_nrf52840_xxAA_s140_6.0.0.dir/__/__/mesh/serial/src/serial_handler_device.c.obj
 .text.handle_cmd_device_beacon_stop
                0x000000000002f9cc       0x48 CMakeFiles/dfu_nrf52840_xxAA_s140_6.0.0.dir/__/__/mesh/serial/src/serial_handler_device.c.obj
 .text.handle_cmd_device_beacon_start
                0x000000000002fa14       0x70 CMakeFiles/dfu_nrf52840_xxAA_s140_6.0.0.dir/__/__/mesh/serial/src/serial_handler_device.c.obj
 .text.handle_cmd_device_radio_reset
                0x000000000002fa84       0x1c CMakeFiles/dfu_nrf52840_xxAA_s140_6.0.0.dir/__/__/mesh/serial/src/serial_handler_device.c.obj
 .text.handle_cmd_device_echo
                0x000000000002faa0       0x34 CMakeFiles/dfu_nrf52840_xxAA_s140_6.0.0.dir/__/__/mesh/serial/src/serial_handler_device.c.obj
 .text.handle_cmd_device_beacon_params_get
                0x000000000002fad4       0xf4 CMakeFiles/dfu_nrf52840_xxAA_s140_6.0.0.dir/__/__/mesh/serial/src/serial_handler_device.c.obj
 .text.handle_cmd_device_fw_info_get
                0x000000000002fbc8        0xc CMakeFiles/dfu_nrf52840_xxAA_s140_6.0.0.dir/__/__/mesh/serial/src/serial_handler_device.c.obj
 .text.serial_handler_device_init
                0x000000000002fbd4       0x20 CMakeFiles/dfu_nrf52840_xxAA_s140_6.0.0.dir/__/__/mesh/serial/src/serial_handler_device.c.obj
                0x000000000002fbd4                serial_handler_device_init
 .text.serial_handler_device_rx
                0x000000000002fbf4       0x24 CMakeFiles/dfu_nrf52840_xxAA_s140_6.0.0.dir/__/__/mesh/serial/src/serial_handler_device.c.obj
                0x000000000002fbf4                serial_handler_device_rx
 .text.nrf_mesh_serial_init
                0x000000000002fc18       0x40 CMakeFiles/dfu_nrf52840_xxAA_s140_6.0.0.dir/__/__/mesh/serial/src/nrf_mesh_serial.c.obj
                0x000000000002fc18                nrf_mesh_serial_init
 .text.nrf_mesh_serial_enable
                0x000000000002fc58        0x4 CMakeFiles/dfu_nrf52840_xxAA_s140_6.0.0.dir/__/__/mesh/serial/src/nrf_mesh_serial.c.obj
                0x000000000002fc58                nrf_mesh_serial_enable
 .text.serial_handler_app_cb_set
                0x000000000002fc5c        0xc CMakeFiles/dfu_nrf52840_xxAA_s140_6.0.0.dir/__/__/mesh/serial/src/serial_handler_app.c.obj
                0x000000000002fc5c                serial_handler_app_cb_set
 .text.serial_handler_app_rx
                0x000000000002fc68       0x30 CMakeFiles/dfu_nrf52840_xxAA_s140_6.0.0.dir/__/__/mesh/serial/src/serial_handler_app.c.obj
                0x000000000002fc68                serial_handler_app_rx
 .text.config_composition_data_get
                0x000000000002fc98      0x1cc CMakeFiles/dfu_nrf52840_xxAA_s140_6.0.0.dir/__/__/models/config/src/composition_data.c.obj
                0x000000000002fc98                config_composition_data_get
 .text.config_server_heartbeat_publication_count_decrement
                0x000000000002fe64       0x1c CMakeFiles/dfu_nrf52840_xxAA_s140_6.0.0.dir/__/__/models/config/src/config_server.c.obj
 .text.config_server_heartbeat_publication_params_get
                0x000000000002fe80       0x38 CMakeFiles/dfu_nrf52840_xxAA_s140_6.0.0.dir/__/__/models/config/src/config_server.c.obj
 .text.handle_config_network_transmit_set
                0x000000000002feb8      0x118 CMakeFiles/dfu_nrf52840_xxAA_s140_6.0.0.dir/__/__/models/config/src/config_server.c.obj
 .text.handle_node_reset
                0x000000000002ffd0       0x30 CMakeFiles/dfu_nrf52840_xxAA_s140_6.0.0.dir/__/__/models/config/src/config_server.c.obj
 .text.handle_config_relay_set
                0x0000000000030000      0x1a8 CMakeFiles/dfu_nrf52840_xxAA_s140_6.0.0.dir/__/__/models/config/src/config_server.c.obj
 .text.send_subscription_status
                0x00000000000301a8       0x50 CMakeFiles/dfu_nrf52840_xxAA_s140_6.0.0.dir/__/__/models/config/src/config_server.c.obj
 .text.handle_netkey_get
                0x00000000000301f8       0x70 CMakeFiles/dfu_nrf52840_xxAA_s140_6.0.0.dir/__/__/models/config/src/config_server.c.obj
 .text.handle_model_app_bind_unbind
                0x0000000000030268      0x228 CMakeFiles/dfu_nrf52840_xxAA_s140_6.0.0.dir/__/__/models/config/src/config_server.c.obj
 .text.status_error_sub_send
                0x0000000000030490      0x180 CMakeFiles/dfu_nrf52840_xxAA_s140_6.0.0.dir/__/__/models/config/src/config_server.c.obj
 .text.send_publication_status
                0x0000000000030610      0x1a8 CMakeFiles/dfu_nrf52840_xxAA_s140_6.0.0.dir/__/__/models/config/src/config_server.c.obj
 .text.handle_config_key_refresh_phase_set
                0x00000000000307b8       0xf0 CMakeFiles/dfu_nrf52840_xxAA_s140_6.0.0.dir/__/__/models/config/src/config_server.c.obj
 .text.handle_config_default_ttl_set
                0x00000000000308a8       0x70 CMakeFiles/dfu_nrf52840_xxAA_s140_6.0.0.dir/__/__/models/config/src/config_server.c.obj
 .text.handle_heartbeat_publication_set
                0x0000000000030918      0x168 CMakeFiles/dfu_nrf52840_xxAA_s140_6.0.0.dir/__/__/models/config/src/config_server.c.obj
 .text.mesh_event_cb
                0x0000000000030a80       0x70 CMakeFiles/dfu_nrf52840_xxAA_s140_6.0.0.dir/__/__/models/config/src/config_server.c.obj
 .text.handle_node_identity_set
                0x0000000000030af0       0x48 CMakeFiles/dfu_nrf52840_xxAA_s140_6.0.0.dir/__/__/models/config/src/config_server.c.obj
 .text.handle_node_identity_get
                0x0000000000030b38       0x44 CMakeFiles/dfu_nrf52840_xxAA_s140_6.0.0.dir/__/__/models/config/src/config_server.c.obj
 .text.handle_config_gatt_proxy_set
                0x0000000000030b7c       0x40 CMakeFiles/dfu_nrf52840_xxAA_s140_6.0.0.dir/__/__/models/config/src/config_server.c.obj
 .text.handle_config_friend_set
                0x0000000000030bbc       0x40 CMakeFiles/dfu_nrf52840_xxAA_s140_6.0.0.dir/__/__/models/config/src/config_server.c.obj
 .text.status_error_pub_send
                0x0000000000030bfc       0xc8 CMakeFiles/dfu_nrf52840_xxAA_s140_6.0.0.dir/__/__/models/config/src/config_server.c.obj
 .text.handle_config_key_refresh_phase_get
                0x0000000000030cc4       0x70 CMakeFiles/dfu_nrf52840_xxAA_s140_6.0.0.dir/__/__/models/config/src/config_server.c.obj
 .text.handle_config_default_ttl_get
                0x0000000000030d34       0x48 CMakeFiles/dfu_nrf52840_xxAA_s140_6.0.0.dir/__/__/models/config/src/config_server.c.obj
 .text.handle_config_beacon_set
                0x0000000000030d7c       0x80 CMakeFiles/dfu_nrf52840_xxAA_s140_6.0.0.dir/__/__/models/config/src/config_server.c.obj
 .text.handle_composition_data_get
                0x0000000000030dfc       0x64 CMakeFiles/dfu_nrf52840_xxAA_s140_6.0.0.dir/__/__/models/config/src/config_server.c.obj
 .text.handle_appkey_update
                0x0000000000030e60      0x108 CMakeFiles/dfu_nrf52840_xxAA_s140_6.0.0.dir/__/__/models/config/src/config_server.c.obj
 .text.handle_model_app_get
                0x0000000000030f68      0x230 CMakeFiles/dfu_nrf52840_xxAA_s140_6.0.0.dir/__/__/models/config/src/config_server.c.obj
 .text.handle_appkey_get
                0x0000000000031198      0x100 CMakeFiles/dfu_nrf52840_xxAA_s140_6.0.0.dir/__/__/models/config/src/config_server.c.obj
 .text.handle_heartbeat_subscription_get
                0x0000000000031298       0xdc CMakeFiles/dfu_nrf52840_xxAA_s140_6.0.0.dir/__/__/models/config/src/config_server.c.obj
 .text.handle_config_gatt_proxy_get
                0x0000000000031374       0x38 CMakeFiles/dfu_nrf52840_xxAA_s140_6.0.0.dir/__/__/models/config/src/config_server.c.obj
 .text.handle_config_friend_get
                0x00000000000313ac       0x38 CMakeFiles/dfu_nrf52840_xxAA_s140_6.0.0.dir/__/__/models/config/src/config_server.c.obj
 .text.handle_heartbeat_subscription_set
                0x00000000000313e4      0x114 CMakeFiles/dfu_nrf52840_xxAA_s140_6.0.0.dir/__/__/models/config/src/config_server.c.obj
 .text.handle_heartbeat_publication_get
                0x00000000000314f8       0xcc CMakeFiles/dfu_nrf52840_xxAA_s140_6.0.0.dir/__/__/models/config/src/config_server.c.obj
 .text.handle_config_beacon_get
                0x00000000000315c4       0x40 CMakeFiles/dfu_nrf52840_xxAA_s140_6.0.0.dir/__/__/models/config/src/config_server.c.obj
 .text.handle_appkey_delete
                0x0000000000031604      0x11c CMakeFiles/dfu_nrf52840_xxAA_s140_6.0.0.dir/__/__/models/config/src/config_server.c.obj
 .text.handle_appkey_add
                0x0000000000031720      0x124 CMakeFiles/dfu_nrf52840_xxAA_s140_6.0.0.dir/__/__/models/config/src/config_server.c.obj
 .text.handle_config_vendor_model_subscription_get
                0x0000000000031844      0x188 CMakeFiles/dfu_nrf52840_xxAA_s140_6.0.0.dir/__/__/models/config/src/config_server.c.obj
 .text.handle_netkey_add_update
                0x00000000000319cc       0xec CMakeFiles/dfu_nrf52840_xxAA_s140_6.0.0.dir/__/__/models/config/src/config_server.c.obj
 .text.handle_netkey_delete
                0x0000000000031ab8      0x14c CMakeFiles/dfu_nrf52840_xxAA_s140_6.0.0.dir/__/__/models/config/src/config_server.c.obj
 .text.handle_config_network_transmit_get
                0x0000000000031c04       0x94 CMakeFiles/dfu_nrf52840_xxAA_s140_6.0.0.dir/__/__/models/config/src/config_server.c.obj
 .text.handle_config_model_publication_get
                0x0000000000031c98      0x144 CMakeFiles/dfu_nrf52840_xxAA_s140_6.0.0.dir/__/__/models/config/src/config_server.c.obj
 .text.handle_config_relay_get
                0x0000000000031ddc       0xcc CMakeFiles/dfu_nrf52840_xxAA_s140_6.0.0.dir/__/__/models/config/src/config_server.c.obj
 .text.handle_config_model_publication_set
                0x0000000000031ea8      0x3d4 CMakeFiles/dfu_nrf52840_xxAA_s140_6.0.0.dir/__/__/models/config/src/config_server.c.obj
 .text.handle_config_model_subscription_delete_all
                0x000000000003227c      0x2ec CMakeFiles/dfu_nrf52840_xxAA_s140_6.0.0.dir/__/__/models/config/src/config_server.c.obj
 .text.handle_config_model_subscription_virtual_address_delete
                0x0000000000032568      0x2e0 CMakeFiles/dfu_nrf52840_xxAA_s140_6.0.0.dir/__/__/models/config/src/config_server.c.obj
 .text.handle_config_model_subscription_virtual_address_add
                0x0000000000032848      0x2cc CMakeFiles/dfu_nrf52840_xxAA_s140_6.0.0.dir/__/__/models/config/src/config_server.c.obj
 .text.handle_config_model_subscription_delete
                0x0000000000032b14      0x2dc CMakeFiles/dfu_nrf52840_xxAA_s140_6.0.0.dir/__/__/models/config/src/config_server.c.obj
 .text.handle_config_model_subscription_add
                0x0000000000032df0      0x2a8 CMakeFiles/dfu_nrf52840_xxAA_s140_6.0.0.dir/__/__/models/config/src/config_server.c.obj
 .text.handle_config_model_subscription_virtual_address_overwrite
                0x0000000000033098      0x354 CMakeFiles/dfu_nrf52840_xxAA_s140_6.0.0.dir/__/__/models/config/src/config_server.c.obj
 .text.handle_config_model_subscription_overwrite
                0x00000000000333ec      0x334 CMakeFiles/dfu_nrf52840_xxAA_s140_6.0.0.dir/__/__/models/config/src/config_server.c.obj
 .text.handle_config_sig_model_subscription_get
                0x0000000000033720      0x29c CMakeFiles/dfu_nrf52840_xxAA_s140_6.0.0.dir/__/__/models/config/src/config_server.c.obj
 .text.config_server_init
                0x00000000000339bc       0x70 CMakeFiles/dfu_nrf52840_xxAA_s140_6.0.0.dir/__/__/models/config/src/config_server.c.obj
                0x00000000000339bc                config_server_init
 .text.config_server_bind
                0x0000000000033a2c       0x10 CMakeFiles/dfu_nrf52840_xxAA_s140_6.0.0.dir/__/__/models/config/src/config_server.c.obj
                0x0000000000033a2c                config_server_bind
 .text.packed_index_list_create
                0x0000000000033a3c       0x3c CMakeFiles/dfu_nrf52840_xxAA_s140_6.0.0.dir/__/__/models/config/src/packed_index_list.c.obj
                0x0000000000033a3c                packed_index_list_create
 .text.attention_timer_handler
                0x0000000000033a78       0x6c CMakeFiles/dfu_nrf52840_xxAA_s140_6.0.0.dir/__/__/models/health/src/health_server.c.obj
 .text.handle_attention_get
                0x0000000000033ae4       0x40 CMakeFiles/dfu_nrf52840_xxAA_s140_6.0.0.dir/__/__/models/health/src/health_server.c.obj
 .text.handle_period_get
                0x0000000000033b24       0x3c CMakeFiles/dfu_nrf52840_xxAA_s140_6.0.0.dir/__/__/models/health/src/health_server.c.obj
 .text.handle_attention_set
                0x0000000000033b60       0xdc CMakeFiles/dfu_nrf52840_xxAA_s140_6.0.0.dir/__/__/models/health/src/health_server.c.obj
 .text.handle_period_set
                0x0000000000033c3c       0x54 CMakeFiles/dfu_nrf52840_xxAA_s140_6.0.0.dir/__/__/models/health/src/health_server.c.obj
 .text.send_fault_status
                0x0000000000033c90      0x3b4 CMakeFiles/dfu_nrf52840_xxAA_s140_6.0.0.dir/__/__/models/health/src/health_server.c.obj
 .text.health_publish_timeout_handler
                0x0000000000034044        0xc CMakeFiles/dfu_nrf52840_xxAA_s140_6.0.0.dir/__/__/models/health/src/health_server.c.obj
 .text.handle_fault_test
                0x0000000000034050       0x8c CMakeFiles/dfu_nrf52840_xxAA_s140_6.0.0.dir/__/__/models/health/src/health_server.c.obj
 .text.handle_fault_clear
                0x00000000000340dc       0x54 CMakeFiles/dfu_nrf52840_xxAA_s140_6.0.0.dir/__/__/models/health/src/health_server.c.obj
 .text.handle_fault_get
                0x0000000000034130       0x40 CMakeFiles/dfu_nrf52840_xxAA_s140_6.0.0.dir/__/__/models/health/src/health_server.c.obj
 .text.health_server_init
                0x0000000000034170       0x68 CMakeFiles/dfu_nrf52840_xxAA_s140_6.0.0.dir/__/__/models/health/src/health_server.c.obj
                0x0000000000034170                health_server_init
 .text.prov_provisioner_cb_link_closed
                0x00000000000341d8       0x2c CMakeFiles/dfu_nrf52840_xxAA_s140_6.0.0.dir/__/__/mesh/prov/src/prov_provisioner.c.obj
 .text.prov_provisioner_cb_link_established
                0x0000000000034204       0x40 CMakeFiles/dfu_nrf52840_xxAA_s140_6.0.0.dir/__/__/mesh/prov/src/prov_provisioner.c.obj
 .text.request_authentication
                0x0000000000034244       0xa8 CMakeFiles/dfu_nrf52840_xxAA_s140_6.0.0.dir/__/__/mesh/prov/src/prov_provisioner.c.obj
 .text.prov_provisioner_pkt_in
                0x00000000000342ec      0x298 CMakeFiles/dfu_nrf52840_xxAA_s140_6.0.0.dir/__/__/mesh/prov/src/prov_provisioner.c.obj
 .text.prov_provisioner_cb_ack_received
                0x0000000000034584       0x90 CMakeFiles/dfu_nrf52840_xxAA_s140_6.0.0.dir/__/__/mesh/prov/src/prov_provisioner.c.obj
 .text.prov_provisioner_provision
                0x0000000000034614       0x44 CMakeFiles/dfu_nrf52840_xxAA_s140_6.0.0.dir/__/__/mesh/prov/src/prov_provisioner.c.obj
                0x0000000000034614                prov_provisioner_provision
 .text.prov_provisioner_oob_use
                0x0000000000034658       0xac CMakeFiles/dfu_nrf52840_xxAA_s140_6.0.0.dir/__/__/mesh/prov/src/prov_provisioner.c.obj
                0x0000000000034658                prov_provisioner_oob_use
 .text.prov_provisioner_auth_data
                0x0000000000034704       0xe8 CMakeFiles/dfu_nrf52840_xxAA_s140_6.0.0.dir/__/__/mesh/prov/src/prov_provisioner.c.obj
                0x0000000000034704                prov_provisioner_auth_data
 .text.prov_provisioner_shared_secret
                0x00000000000347ec       0xb8 CMakeFiles/dfu_nrf52840_xxAA_s140_6.0.0.dir/__/__/mesh/prov/src/prov_provisioner.c.obj
                0x00000000000347ec                prov_provisioner_shared_secret
 .text.prov_provisionee_cb_link_established
                0x00000000000348a4       0x40 CMakeFiles/dfu_nrf52840_xxAA_s140_6.0.0.dir/__/__/mesh/prov/src/prov_provisionee.c.obj
 .text.prov_provisionee_cb_link_closed
                0x00000000000348e4       0x50 CMakeFiles/dfu_nrf52840_xxAA_s140_6.0.0.dir/__/__/mesh/prov/src/prov_provisionee.c.obj
 .text.request_authentication
                0x0000000000034934       0x90 CMakeFiles/dfu_nrf52840_xxAA_s140_6.0.0.dir/__/__/mesh/prov/src/prov_provisionee.c.obj
 .text.send_failed
                0x00000000000349c4       0x38 CMakeFiles/dfu_nrf52840_xxAA_s140_6.0.0.dir/__/__/mesh/prov/src/prov_provisionee.c.obj
 .text.prov_provisionee_cb_ack_received
                0x00000000000349fc      0x174 CMakeFiles/dfu_nrf52840_xxAA_s140_6.0.0.dir/__/__/mesh/prov/src/prov_provisionee.c.obj
 .text.prov_provisionee_pkt_in
                0x0000000000034b70      0x428 CMakeFiles/dfu_nrf52840_xxAA_s140_6.0.0.dir/__/__/mesh/prov/src/prov_provisionee.c.obj
 .text.prov_provisionee_listen
                0x0000000000034f98       0x34 CMakeFiles/dfu_nrf52840_xxAA_s140_6.0.0.dir/__/__/mesh/prov/src/prov_provisionee.c.obj
                0x0000000000034f98                prov_provisionee_listen
 .text.prov_provisionee_auth_data
                0x0000000000034fcc      0x100 CMakeFiles/dfu_nrf52840_xxAA_s140_6.0.0.dir/__/__/mesh/prov/src/prov_provisionee.c.obj
                0x0000000000034fcc                prov_provisionee_auth_data
 .text.prov_provisionee_shared_secret
                0x00000000000350cc       0xa0 CMakeFiles/dfu_nrf52840_xxAA_s140_6.0.0.dir/__/__/mesh/prov/src/prov_provisionee.c.obj
                0x00000000000350cc                prov_provisionee_shared_secret
 .text.bearer_compare_callback
                0x000000000003516c       0x10 CMakeFiles/dfu_nrf52840_xxAA_s140_6.0.0.dir/__/__/mesh/prov/src/nrf_mesh_prov.c.obj
 .text.nrf_mesh_prov_init
                0x000000000003517c       0x3c CMakeFiles/dfu_nrf52840_xxAA_s140_6.0.0.dir/__/__/mesh/prov/src/nrf_mesh_prov.c.obj
                0x000000000003517c                nrf_mesh_prov_init
 .text.nrf_mesh_prov_bearer_add
                0x00000000000351b8       0x2c CMakeFiles/dfu_nrf52840_xxAA_s140_6.0.0.dir/__/__/mesh/prov/src/nrf_mesh_prov.c.obj
                0x00000000000351b8                nrf_mesh_prov_bearer_add
 .text.nrf_mesh_prov_generate_keys
                0x00000000000351e4        0x4 CMakeFiles/dfu_nrf52840_xxAA_s140_6.0.0.dir/__/__/mesh/prov/src/nrf_mesh_prov.c.obj
                0x00000000000351e4                nrf_mesh_prov_generate_keys
 .text.nrf_mesh_prov_listen
                0x00000000000351e8       0xf0 CMakeFiles/dfu_nrf52840_xxAA_s140_6.0.0.dir/__/__/mesh/prov/src/nrf_mesh_prov.c.obj
                0x00000000000351e8                nrf_mesh_prov_listen
 .text.nrf_mesh_prov_provision
                0x00000000000352d8       0x68 CMakeFiles/dfu_nrf52840_xxAA_s140_6.0.0.dir/__/__/mesh/prov/src/nrf_mesh_prov.c.obj
                0x00000000000352d8                nrf_mesh_prov_provision
 .text.nrf_mesh_prov_oob_use
                0x0000000000035340       0x18 CMakeFiles/dfu_nrf52840_xxAA_s140_6.0.0.dir/__/__/mesh/prov/src/nrf_mesh_prov.c.obj
                0x0000000000035340                nrf_mesh_prov_oob_use
 .text.nrf_mesh_prov_auth_data_provide
                0x0000000000035358       0x10 CMakeFiles/dfu_nrf52840_xxAA_s140_6.0.0.dir/__/__/mesh/prov/src/nrf_mesh_prov.c.obj
                0x0000000000035358                nrf_mesh_prov_auth_data_provide
 .text.nrf_mesh_prov_shared_secret_provide
                0x0000000000035368       0x10 CMakeFiles/dfu_nrf52840_xxAA_s140_6.0.0.dir/__/__/mesh/prov/src/nrf_mesh_prov.c.obj
                0x0000000000035368                nrf_mesh_prov_shared_secret_provide
 .text.nrf_mesh_prov_scan_start
                0x0000000000035378       0x10 CMakeFiles/dfu_nrf52840_xxAA_s140_6.0.0.dir/__/__/mesh/prov/src/nrf_mesh_prov.c.obj
                0x0000000000035378                nrf_mesh_prov_scan_start
 .text.nrf_mesh_prov_scan_stop
                0x0000000000035388        0x4 CMakeFiles/dfu_nrf52840_xxAA_s140_6.0.0.dir/__/__/mesh/prov/src/nrf_mesh_prov.c.obj
                0x0000000000035388                nrf_mesh_prov_scan_stop
 .text.prov_packet_length_valid
                0x000000000003538c       0x20 CMakeFiles/dfu_nrf52840_xxAA_s140_6.0.0.dir/__/__/mesh/prov/src/provisioning.c.obj
                0x000000000003538c                prov_packet_length_valid
 .text.prov_tx_invite
                0x00000000000353ac       0x38 CMakeFiles/dfu_nrf52840_xxAA_s140_6.0.0.dir/__/__/mesh/prov/src/provisioning.c.obj
                0x00000000000353ac                prov_tx_invite
 .text.prov_tx_capabilities
                0x00000000000353e4       0x38 CMakeFiles/dfu_nrf52840_xxAA_s140_6.0.0.dir/__/__/mesh/prov/src/provisioning.c.obj
                0x00000000000353e4                prov_tx_capabilities
 .text.prov_tx_start
                0x000000000003541c       0x38 CMakeFiles/dfu_nrf52840_xxAA_s140_6.0.0.dir/__/__/mesh/prov/src/provisioning.c.obj
                0x000000000003541c                prov_tx_start
 .text.prov_tx_public_key
                0x0000000000035454       0x30 CMakeFiles/dfu_nrf52840_xxAA_s140_6.0.0.dir/__/__/mesh/prov/src/provisioning.c.obj
                0x0000000000035454                prov_tx_public_key
 .text.prov_tx_input_complete
                0x0000000000035484       0x28 CMakeFiles/dfu_nrf52840_xxAA_s140_6.0.0.dir/__/__/mesh/prov/src/provisioning.c.obj
                0x0000000000035484                prov_tx_input_complete
 .text.prov_tx_confirmation
                0x00000000000354ac       0x30 CMakeFiles/dfu_nrf52840_xxAA_s140_6.0.0.dir/__/__/mesh/prov/src/provisioning.c.obj
                0x00000000000354ac                prov_tx_confirmation
 .text.prov_tx_random
                0x00000000000354dc       0x30 CMakeFiles/dfu_nrf52840_xxAA_s140_6.0.0.dir/__/__/mesh/prov/src/provisioning.c.obj
                0x00000000000354dc                prov_tx_random
 .text.prov_tx_complete
                0x000000000003550c       0x28 CMakeFiles/dfu_nrf52840_xxAA_s140_6.0.0.dir/__/__/mesh/prov/src/provisioning.c.obj
                0x000000000003550c                prov_tx_complete
 .text.prov_tx_failed
                0x0000000000035534       0x2c CMakeFiles/dfu_nrf52840_xxAA_s140_6.0.0.dir/__/__/mesh/prov/src/provisioning.c.obj
                0x0000000000035534                prov_tx_failed
 .text.prov_tx_data
                0x0000000000035560       0x34 CMakeFiles/dfu_nrf52840_xxAA_s140_6.0.0.dir/__/__/mesh/prov/src/provisioning.c.obj
                0x0000000000035560                prov_tx_data
 .text.prov_beacon_unprov_build
                0x0000000000035594       0x54 CMakeFiles/dfu_nrf52840_xxAA_s140_6.0.0.dir/__/__/mesh/prov/src/prov_beacon.c.obj
                0x0000000000035594                prov_beacon_unprov_build
 .text.prov_beacon_unprov_packet_in
                0x00000000000355e8       0xd0 CMakeFiles/dfu_nrf52840_xxAA_s140_6.0.0.dir/__/__/mesh/prov/src/prov_beacon.c.obj
                0x00000000000355e8                prov_beacon_unprov_packet_in
 .text.prov_beacon_scan_start
                0x00000000000356b8       0x1c CMakeFiles/dfu_nrf52840_xxAA_s140_6.0.0.dir/__/__/mesh/prov/src/prov_beacon.c.obj
                0x00000000000356b8                prov_beacon_scan_start
 .text.prov_beacon_scan_stop
                0x00000000000356d4        0xc CMakeFiles/dfu_nrf52840_xxAA_s140_6.0.0.dir/__/__/mesh/prov/src/prov_beacon.c.obj
                0x00000000000356d4                prov_beacon_scan_stop
 .text.prov_utils_opt_set
                0x00000000000356e0       0x24 CMakeFiles/dfu_nrf52840_xxAA_s140_6.0.0.dir/__/__/mesh/prov/src/prov_utils.c.obj
                0x00000000000356e0                prov_utils_opt_set
 .text.prov_utils_opt_get
                0x0000000000035704       0x1c CMakeFiles/dfu_nrf52840_xxAA_s140_6.0.0.dir/__/__/mesh/prov/src/prov_utils.c.obj
                0x0000000000035704                prov_utils_opt_get
 .text.prov_utils_use_ecdh_offloading
                0x0000000000035720        0xc CMakeFiles/dfu_nrf52840_xxAA_s140_6.0.0.dir/__/__/mesh/prov/src/prov_utils.c.obj
                0x0000000000035720                prov_utils_use_ecdh_offloading
 .text.prov_utils_authentication_values_derive
                0x000000000003572c       0xac CMakeFiles/dfu_nrf52840_xxAA_s140_6.0.0.dir/__/__/mesh/prov/src/prov_utils.c.obj
                0x000000000003572c                prov_utils_authentication_values_derive
 .text.prov_utils_keys_generate
                0x00000000000357d8       0x20 CMakeFiles/dfu_nrf52840_xxAA_s140_6.0.0.dir/__/__/mesh/prov/src/prov_utils.c.obj
                0x00000000000357d8                prov_utils_keys_generate
 .text.prov_utils_derive_keys
                0x00000000000357f8       0xb4 CMakeFiles/dfu_nrf52840_xxAA_s140_6.0.0.dir/__/__/mesh/prov/src/prov_utils.c.obj
                0x00000000000357f8                prov_utils_derive_keys
 .text.prov_utils_calculate_shared_secret
                0x00000000000358ac       0x34 CMakeFiles/dfu_nrf52840_xxAA_s140_6.0.0.dir/__/__/mesh/prov/src/prov_utils.c.obj
                0x00000000000358ac                prov_utils_calculate_shared_secret
 .text.prov_utils_generate_oob_data
                0x00000000000358e0      0x1b8 CMakeFiles/dfu_nrf52840_xxAA_s140_6.0.0.dir/__/__/mesh/prov/src/prov_utils.c.obj
                0x00000000000358e0                prov_utils_generate_oob_data
 .text.prov_utils_confirmation_check
                0x0000000000035a98       0x5c CMakeFiles/dfu_nrf52840_xxAA_s140_6.0.0.dir/__/__/mesh/prov/src/prov_utils.c.obj
                0x0000000000035a98                prov_utils_confirmation_check
 .text.link_timeout_cb
                0x0000000000035af4       0x10 CMakeFiles/dfu_nrf52840_xxAA_s140_6.0.0.dir/__/__/mesh/prov/src/prov_bearer_adv.c.obj
 .text.prov_bearer_adv_listen_stop
                0x0000000000035b04       0x98 CMakeFiles/dfu_nrf52840_xxAA_s140_6.0.0.dir/__/__/mesh/prov/src/prov_bearer_adv.c.obj
 .text.tx_complete_cb
                0x0000000000035b9c       0x20 CMakeFiles/dfu_nrf52840_xxAA_s140_6.0.0.dir/__/__/mesh/prov/src/prov_bearer_adv.c.obj
 .text.prov_bearer_adv_listen
                0x0000000000035bbc      0x15c CMakeFiles/dfu_nrf52840_xxAA_s140_6.0.0.dir/__/__/mesh/prov/src/prov_bearer_adv.c.obj
 .text.close_link
                0x0000000000035d18       0xd8 CMakeFiles/dfu_nrf52840_xxAA_s140_6.0.0.dir/__/__/mesh/prov/src/prov_bearer_adv.c.obj
 .text.send_link_ack
                0x0000000000035df0       0x70 CMakeFiles/dfu_nrf52840_xxAA_s140_6.0.0.dir/__/__/mesh/prov/src/prov_bearer_adv.c.obj
 .text.send_transaction_ack
                0x0000000000035e60       0x68 CMakeFiles/dfu_nrf52840_xxAA_s140_6.0.0.dir/__/__/mesh/prov/src/prov_bearer_adv.c.obj
 .text.prov_buffer_rx
                0x0000000000035ec8       0xa0 CMakeFiles/dfu_nrf52840_xxAA_s140_6.0.0.dir/__/__/mesh/prov/src/prov_bearer_adv.c.obj
 .text.prov_bearer_adv_link_open
                0x0000000000035f68      0x1b8 CMakeFiles/dfu_nrf52840_xxAA_s140_6.0.0.dir/__/__/mesh/prov/src/prov_bearer_adv.c.obj
 .text.prov_bearer_adv_link_close
                0x0000000000036120       0xcc CMakeFiles/dfu_nrf52840_xxAA_s140_6.0.0.dir/__/__/mesh/prov/src/prov_bearer_adv.c.obj
 .text.prov_buffer_tx
                0x00000000000361ec      0x1e4 CMakeFiles/dfu_nrf52840_xxAA_s140_6.0.0.dir/__/__/mesh/prov/src/prov_bearer_adv.c.obj
 .text.tx_retry_cb
                0x00000000000363d0      0x130 CMakeFiles/dfu_nrf52840_xxAA_s140_6.0.0.dir/__/__/mesh/prov/src/prov_bearer_adv.c.obj
 .text.prov_bearer_adv_tx
                0x0000000000036500       0xe8 CMakeFiles/dfu_nrf52840_xxAA_s140_6.0.0.dir/__/__/mesh/prov/src/prov_bearer_adv.c.obj
 .text.async_process
                0x00000000000365e8      0x118 CMakeFiles/dfu_nrf52840_xxAA_s140_6.0.0.dir/__/__/mesh/prov/src/prov_bearer_adv.c.obj
 .text.nrf_mesh_prov_bearer_adv_interface_get
                0x0000000000036700       0x40 CMakeFiles/dfu_nrf52840_xxAA_s140_6.0.0.dir/__/__/mesh/prov/src/prov_bearer_adv.c.obj
                0x0000000000036700                nrf_mesh_prov_bearer_adv_interface_get
 .text.prov_bearer_adv_packet_in
                0x0000000000036740      0x914 CMakeFiles/dfu_nrf52840_xxAA_s140_6.0.0.dir/__/__/mesh/prov/src/prov_bearer_adv.c.obj
                0x0000000000036740                prov_bearer_adv_packet_in
 .text.tx_complete_cb
                0x0000000000037054        0x4 CMakeFiles/dfu_nrf52840_xxAA_s140_6.0.0.dir/__/__/mesh/dfu/src/nrf_mesh_dfu.c.obj
 .text.tx_timeout
                0x0000000000037058      0x21c CMakeFiles/dfu_nrf52840_xxAA_s140_6.0.0.dir/__/__/mesh/dfu/src/nrf_mesh_dfu.c.obj
 .text.abort_timeout
                0x0000000000037274      0x140 CMakeFiles/dfu_nrf52840_xxAA_s140_6.0.0.dir/__/__/mesh/dfu/src/nrf_mesh_dfu.c.obj
 .text.timer_timeout
                0x00000000000373b4       0xf4 CMakeFiles/dfu_nrf52840_xxAA_s140_6.0.0.dir/__/__/mesh/dfu/src/nrf_mesh_dfu.c.obj
 .text.flash_op_complete
                0x00000000000374a8      0x1fc CMakeFiles/dfu_nrf52840_xxAA_s140_6.0.0.dir/__/__/mesh/dfu/src/nrf_mesh_dfu.c.obj
 .text.dfu_evt_handler
                0x00000000000376a4      0xa98 CMakeFiles/dfu_nrf52840_xxAA_s140_6.0.0.dir/__/__/mesh/dfu/src/nrf_mesh_dfu.c.obj
 .text.nrf_mesh_dfu_jump_to_bootloader
                0x000000000003813c       0x40 CMakeFiles/dfu_nrf52840_xxAA_s140_6.0.0.dir/__/__/mesh/dfu/src/nrf_mesh_dfu.c.obj
                0x000000000003813c                nrf_mesh_dfu_jump_to_bootloader
 .text.nrf_mesh_dfu_rx
                0x000000000003817c      0x2e8 CMakeFiles/dfu_nrf52840_xxAA_s140_6.0.0.dir/__/__/mesh/dfu/src/nrf_mesh_dfu.c.obj
                0x000000000003817c                nrf_mesh_dfu_rx
 .text.nrf_mesh_dfu_request
                0x0000000000038464      0x12c CMakeFiles/dfu_nrf52840_xxAA_s140_6.0.0.dir/__/__/mesh/dfu/src/nrf_mesh_dfu.c.obj
                0x0000000000038464                nrf_mesh_dfu_request
 .text.nrf_mesh_dfu_relay
                0x0000000000038590      0x10c CMakeFiles/dfu_nrf52840_xxAA_s140_6.0.0.dir/__/__/mesh/dfu/src/nrf_mesh_dfu.c.obj
                0x0000000000038590                nrf_mesh_dfu_relay
 .text.nrf_mesh_dfu_abort
                0x000000000003869c       0xcc CMakeFiles/dfu_nrf52840_xxAA_s140_6.0.0.dir/__/__/mesh/dfu/src/nrf_mesh_dfu.c.obj
                0x000000000003869c                nrf_mesh_dfu_abort
 .text.nrf_mesh_dfu_bank_info_get
                0x0000000000038768       0xc4 CMakeFiles/dfu_nrf52840_xxAA_s140_6.0.0.dir/__/__/mesh/dfu/src/nrf_mesh_dfu.c.obj
                0x0000000000038768                nrf_mesh_dfu_bank_info_get
 .text.nrf_mesh_dfu_bank_flash
                0x000000000003882c       0xb8 CMakeFiles/dfu_nrf52840_xxAA_s140_6.0.0.dir/__/__/mesh/dfu/src/nrf_mesh_dfu.c.obj
                0x000000000003882c                nrf_mesh_dfu_bank_flash
 .text.nrf_mesh_dfu_state_get
                0x00000000000388e4       0x50 CMakeFiles/dfu_nrf52840_xxAA_s140_6.0.0.dir/__/__/mesh/dfu/src/nrf_mesh_dfu.c.obj
                0x00000000000388e4                nrf_mesh_dfu_state_get
 .text.nrf_mesh_dfu_cmd_send
                0x0000000000038934       0xa8 CMakeFiles/dfu_nrf52840_xxAA_s140_6.0.0.dir/__/__/mesh/dfu/src/nrf_mesh_dfu.c.obj
                0x0000000000038934                nrf_mesh_dfu_cmd_send
 .text.nrf_mesh_dfu_init
                0x00000000000389dc      0x1f4 CMakeFiles/dfu_nrf52840_xxAA_s140_6.0.0.dir/__/__/mesh/dfu/src/nrf_mesh_dfu.c.obj
                0x00000000000389dc                nrf_mesh_dfu_init
 .text.app_error_fault_handler
                0x0000000000038bd0      0x238 CMakeFiles/dfu_nrf52840_xxAA_s140_6.0.0.dir/__/common/src/app_error_weak.c.obj
                0x0000000000038bd0                app_error_fault_handler
 .text.mesh_assertion_handler
                0x0000000000038e08       0x24 CMakeFiles/dfu_nrf52840_xxAA_s140_6.0.0.dir/__/common/src/assertion_handler_weak.c.obj
                0x0000000000038e08                mesh_assertion_handler
 .text.nrf_mesh_configure_device_uuid_set
                0x0000000000038e2c       0x10 CMakeFiles/dfu_nrf52840_xxAA_s140_6.0.0.dir/__/__/mesh/core/src/nrf_mesh_configure.c.obj
                0x0000000000038e2c                nrf_mesh_configure_device_uuid_set
 .text.nrf_mesh_configure_device_uuid_reset
                0x0000000000038e3c       0x2c CMakeFiles/dfu_nrf52840_xxAA_s140_6.0.0.dir/__/__/mesh/core/src/nrf_mesh_configure.c.obj
                0x0000000000038e3c                nrf_mesh_configure_device_uuid_reset
 .text.nrf_mesh_configure_device_uuid_get
                0x0000000000038e68        0x8 CMakeFiles/dfu_nrf52840_xxAA_s140_6.0.0.dir/__/__/mesh/core/src/nrf_mesh_configure.c.obj
                0x0000000000038e68                nrf_mesh_configure_device_uuid_get
 .text.sd_ecb_block_encrypt
                0x0000000000038e70        0x4 CMakeFiles/dfu_nrf52840_xxAA_s140_6.0.0.dir/__/__/mesh/core/src/aes.c.obj
 .text.aes_encrypt
                0x0000000000038e74       0x34 CMakeFiles/dfu_nrf52840_xxAA_s140_6.0.0.dir/__/__/mesh/core/src/aes.c.obj
                0x0000000000038e74                aes_encrypt
 .text.msg_cache_init
                0x0000000000038ea8       0x24 CMakeFiles/dfu_nrf52840_xxAA_s140_6.0.0.dir/__/__/mesh/core/src/msg_cache.c.obj
                0x0000000000038ea8                msg_cache_init
 .text.msg_cache_entry_exists
                0x0000000000038ecc       0x40 CMakeFiles/dfu_nrf52840_xxAA_s140_6.0.0.dir/__/__/mesh/core/src/msg_cache.c.obj
                0x0000000000038ecc                msg_cache_entry_exists
 .text.msg_cache_entry_add
                0x0000000000038f0c       0x2c CMakeFiles/dfu_nrf52840_xxAA_s140_6.0.0.dir/__/__/mesh/core/src/msg_cache.c.obj
                0x0000000000038f0c                msg_cache_entry_add
 .text.tx_complete
                0x0000000000038f38       0x30 CMakeFiles/dfu_nrf52840_xxAA_s140_6.0.0.dir/__/__/mesh/core/src/transport.c.obj
 .text.upper_trs_packet_encrypt
                0x0000000000038f68       0xa8 CMakeFiles/dfu_nrf52840_xxAA_s140_6.0.0.dir/__/__/mesh/core/src/transport.c.obj
 .text.trs_sar_packet_out
                0x0000000000039010      0x19c CMakeFiles/dfu_nrf52840_xxAA_s140_6.0.0.dir/__/__/mesh/core/src/transport.c.obj
 .text.upper_transport_access_packet_in
                0x00000000000391ac      0x33c CMakeFiles/dfu_nrf52840_xxAA_s140_6.0.0.dir/__/__/mesh/core/src/transport.c.obj
 .text.sar_ctx_cancel
                0x00000000000394e8      0x148 CMakeFiles/dfu_nrf52840_xxAA_s140_6.0.0.dir/__/__/mesh/core/src/transport.c.obj
 .text.retry_timeout
                0x0000000000039630       0x98 CMakeFiles/dfu_nrf52840_xxAA_s140_6.0.0.dir/__/__/mesh/core/src/transport.c.obj
 .text.upper_transport_packet_in
                0x00000000000396c8      0x2a4 CMakeFiles/dfu_nrf52840_xxAA_s140_6.0.0.dir/__/__/mesh/core/src/transport.c.obj
 .text.upper_transport_tx.part.27
                0x000000000003996c      0x370 CMakeFiles/dfu_nrf52840_xxAA_s140_6.0.0.dir/__/__/mesh/core/src/transport.c.obj
 .text.sar_ack_send.part.31
                0x0000000000039cdc       0xd4 CMakeFiles/dfu_nrf52840_xxAA_s140_6.0.0.dir/__/__/mesh/core/src/transport.c.obj
 .text.transport_sar_process
                0x0000000000039db0      0x274 CMakeFiles/dfu_nrf52840_xxAA_s140_6.0.0.dir/__/__/mesh/core/src/transport.c.obj
 .text.abort_timeout
                0x000000000003a024      0x138 CMakeFiles/dfu_nrf52840_xxAA_s140_6.0.0.dir/__/__/mesh/core/src/transport.c.obj
 .text.ack_timeout
                0x000000000003a15c       0xf8 CMakeFiles/dfu_nrf52840_xxAA_s140_6.0.0.dir/__/__/mesh/core/src/transport.c.obj
 .text.transport_init
                0x000000000003a254       0xac CMakeFiles/dfu_nrf52840_xxAA_s140_6.0.0.dir/__/__/mesh/core/src/transport.c.obj
                0x000000000003a254                transport_init
 .text.transport_packet_in
                0x000000000003a300      0x778 CMakeFiles/dfu_nrf52840_xxAA_s140_6.0.0.dir/__/__/mesh/core/src/transport.c.obj
                0x000000000003a300                transport_packet_in
 .text.transport_tx
                0x000000000003aa78       0xec CMakeFiles/dfu_nrf52840_xxAA_s140_6.0.0.dir/__/__/mesh/core/src/transport.c.obj
                0x000000000003aa78                transport_tx
 .text.transport_control_tx
                0x000000000003ab64       0xc4 CMakeFiles/dfu_nrf52840_xxAA_s140_6.0.0.dir/__/__/mesh/core/src/transport.c.obj
                0x000000000003ab64                transport_control_tx
 .text.transport_opt_set
                0x000000000003ac28       0xdc CMakeFiles/dfu_nrf52840_xxAA_s140_6.0.0.dir/__/__/mesh/core/src/transport.c.obj
                0x000000000003ac28                transport_opt_set
 .text.transport_opt_get
                0x000000000003ad04       0x84 CMakeFiles/dfu_nrf52840_xxAA_s140_6.0.0.dir/__/__/mesh/core/src/transport.c.obj
                0x000000000003ad04                transport_opt_get
 .text.transport_control_packet_consumer_add
                0x000000000003ad88       0x68 CMakeFiles/dfu_nrf52840_xxAA_s140_6.0.0.dir/__/__/mesh/core/src/transport.c.obj
                0x000000000003ad88                transport_control_packet_consumer_add
 .text.event_handle
                0x000000000003adf0       0x28 CMakeFiles/dfu_nrf52840_xxAA_s140_6.0.0.dir/__/__/mesh/core/src/event.c.obj
                0x000000000003adf0                event_handle
 .text.event_handler_add
                0x000000000003ae18       0x28 CMakeFiles/dfu_nrf52840_xxAA_s140_6.0.0.dir/__/__/mesh/core/src/event.c.obj
                0x000000000003ae18                event_handler_add
 .text.event_handler_remove
                0x000000000003ae40       0x28 CMakeFiles/dfu_nrf52840_xxAA_s140_6.0.0.dir/__/__/mesh/core/src/event.c.obj
                0x000000000003ae40                event_handler_remove
 .text.packet_buffer_max_packet_len_get
                0x000000000003ae68       0x24 CMakeFiles/dfu_nrf52840_xxAA_s140_6.0.0.dir/__/__/mesh/core/src/packet_buffer.c.obj
                0x000000000003ae68                packet_buffer_max_packet_len_get
 .text.packet_buffer_init
                0x000000000003ae8c       0xb4 CMakeFiles/dfu_nrf52840_xxAA_s140_6.0.0.dir/__/__/mesh/core/src/packet_buffer.c.obj
                0x000000000003ae8c                packet_buffer_init
 .text.packet_buffer_flush
                0x000000000003af40       0x6c CMakeFiles/dfu_nrf52840_xxAA_s140_6.0.0.dir/__/__/mesh/core/src/packet_buffer.c.obj
                0x000000000003af40                packet_buffer_flush
 .text.packet_buffer_reserve
                0x000000000003afac       0xa4 CMakeFiles/dfu_nrf52840_xxAA_s140_6.0.0.dir/__/__/mesh/core/src/packet_buffer.c.obj
                0x000000000003afac                packet_buffer_reserve
 .text.packet_buffer_commit
                0x000000000003b050       0x7c CMakeFiles/dfu_nrf52840_xxAA_s140_6.0.0.dir/__/__/mesh/core/src/packet_buffer.c.obj
                0x000000000003b050                packet_buffer_commit
 .text.packet_buffer_pop
                0x000000000003b0cc       0x44 CMakeFiles/dfu_nrf52840_xxAA_s140_6.0.0.dir/__/__/mesh/core/src/packet_buffer.c.obj
                0x000000000003b0cc                packet_buffer_pop
 .text.packet_buffer_can_pop
                0x000000000003b110       0x24 CMakeFiles/dfu_nrf52840_xxAA_s140_6.0.0.dir/__/__/mesh/core/src/packet_buffer.c.obj
                0x000000000003b110                packet_buffer_can_pop
 .text.packet_buffer_packets_ready_to_pop
                0x000000000003b134       0x5c CMakeFiles/dfu_nrf52840_xxAA_s140_6.0.0.dir/__/__/mesh/core/src/packet_buffer.c.obj
                0x000000000003b134                packet_buffer_packets_ready_to_pop
 .text.packet_buffer_free
                0x000000000003b190       0x8c CMakeFiles/dfu_nrf52840_xxAA_s140_6.0.0.dir/__/__/mesh/core/src/packet_buffer.c.obj
                0x000000000003b190                packet_buffer_free
 .text.erase_source
                0x000000000003b21c       0x34 CMakeFiles/dfu_nrf52840_xxAA_s140_6.0.0.dir/__/__/mesh/core/src/flash_manager_defrag.c.obj
 .text.erase_recovery_area
                0x000000000003b250       0x34 CMakeFiles/dfu_nrf52840_xxAA_s140_6.0.0.dir/__/__/mesh/core/src/flash_manager_defrag.c.obj
 .text.write_back
                0x000000000003b284       0x44 CMakeFiles/dfu_nrf52840_xxAA_s140_6.0.0.dir/__/__/mesh/core/src/flash_manager_defrag.c.obj
 .text.write_defrag_start_pointer
                0x000000000003b2c8       0x38 CMakeFiles/dfu_nrf52840_xxAA_s140_6.0.0.dir/__/__/mesh/core/src/flash_manager_defrag.c.obj
 .text.copy_metadata
                0x000000000003b300       0x58 CMakeFiles/dfu_nrf52840_xxAA_s140_6.0.0.dir/__/__/mesh/core/src/flash_manager_defrag.c.obj
 .text.seal_storage_page
                0x000000000003b358       0x70 CMakeFiles/dfu_nrf52840_xxAA_s140_6.0.0.dir/__/__/mesh/core/src/flash_manager_defrag.c.obj
 .text.post_process
                0x000000000003b3c8       0x64 CMakeFiles/dfu_nrf52840_xxAA_s140_6.0.0.dir/__/__/mesh/core/src/flash_manager_defrag.c.obj
 .text.check_for_invalid_entries
                0x000000000003b42c       0x40 CMakeFiles/dfu_nrf52840_xxAA_s140_6.0.0.dir/__/__/mesh/core/src/flash_manager_defrag.c.obj
 .text.execute_procedure_step
                0x000000000003b46c       0x98 CMakeFiles/dfu_nrf52840_xxAA_s140_6.0.0.dir/__/__/mesh/core/src/flash_manager_defrag.c.obj
 .text.on_flash_op_end
                0x000000000003b504       0x48 CMakeFiles/dfu_nrf52840_xxAA_s140_6.0.0.dir/__/__/mesh/core/src/flash_manager_defrag.c.obj
 .text.invalidate_duplicate_entries
                0x000000000003b54c      0x150 CMakeFiles/dfu_nrf52840_xxAA_s140_6.0.0.dir/__/__/mesh/core/src/flash_manager_defrag.c.obj
 .text.backup_entries
                0x000000000003b69c      0x1c8 CMakeFiles/dfu_nrf52840_xxAA_s140_6.0.0.dir/__/__/mesh/core/src/flash_manager_defrag.c.obj
 .text.flash_manager_defrag_init
                0x000000000003b864       0x6c CMakeFiles/dfu_nrf52840_xxAA_s140_6.0.0.dir/__/__/mesh/core/src/flash_manager_defrag.c.obj
                0x000000000003b864                flash_manager_defrag_init
 .text.flash_manager_defrag_is_running
                0x000000000003b8d0       0x10 CMakeFiles/dfu_nrf52840_xxAA_s140_6.0.0.dir/__/__/mesh/core/src/flash_manager_defrag.c.obj
                0x000000000003b8d0                flash_manager_defrag_is_running
 .text.flash_manager_defrag
                0x000000000003b8e0       0x48 CMakeFiles/dfu_nrf52840_xxAA_s140_6.0.0.dir/__/__/mesh/core/src/flash_manager_defrag.c.obj
                0x000000000003b8e0                flash_manager_defrag
 .text.flash_manager_defrag_recovery_page_get
                0x000000000003b928        0xc CMakeFiles/dfu_nrf52840_xxAA_s140_6.0.0.dir/__/__/mesh/core/src/flash_manager_defrag.c.obj
                0x000000000003b928                flash_manager_defrag_recovery_page_get
 .text.fifo_init
                0x000000000003b934       0x38 CMakeFiles/dfu_nrf52840_xxAA_s140_6.0.0.dir/__/__/mesh/core/src/fifo.c.obj
                0x000000000003b934                fifo_init
 .text.fifo_push
                0x000000000003b96c       0x60 CMakeFiles/dfu_nrf52840_xxAA_s140_6.0.0.dir/__/__/mesh/core/src/fifo.c.obj
                0x000000000003b96c                fifo_push
 .text.fifo_pop
                0x000000000003b9cc       0x5c CMakeFiles/dfu_nrf52840_xxAA_s140_6.0.0.dir/__/__/mesh/core/src/fifo.c.obj
                0x000000000003b9cc                fifo_pop
 .text.nrf_flash_erase
                0x000000000003ba28       0x5c CMakeFiles/dfu_nrf52840_xxAA_s140_6.0.0.dir/__/__/mesh/core/src/nrf_flash.c.obj
                0x000000000003ba28                nrf_flash_erase
 .text.nrf_flash_write
                0x000000000003ba84       0x70 CMakeFiles/dfu_nrf52840_xxAA_s140_6.0.0.dir/__/__/mesh/core/src/nrf_flash.c.obj
                0x000000000003ba84                nrf_flash_write
 .text.packet_mgr_init
                0x000000000003baf4       0x48 CMakeFiles/dfu_nrf52840_xxAA_s140_6.0.0.dir/__/__/mesh/core/src/packet_mgr.c.obj
                0x000000000003baf4                packet_mgr_init
 .text.flash_store_iv_index
                0x000000000003bb3c       0x38 CMakeFiles/dfu_nrf52840_xxAA_s140_6.0.0.dir/__/__/mesh/core/src/net_state.c.obj
 .text.flash_mem_available
                0x000000000003bb74       0x1c CMakeFiles/dfu_nrf52840_xxAA_s140_6.0.0.dir/__/__/mesh/core/src/net_state.c.obj
 .text.init_flash_storage
                0x000000000003bb90       0x44 CMakeFiles/dfu_nrf52840_xxAA_s140_6.0.0.dir/__/__/mesh/core/src/net_state.c.obj
 .text.flash_write_complete
                0x000000000003bbd4       0x6c CMakeFiles/dfu_nrf52840_xxAA_s140_6.0.0.dir/__/__/mesh/core/src/net_state.c.obj
 .text.seqnum_block_allocate
                0x000000000003bc40       0x4c CMakeFiles/dfu_nrf52840_xxAA_s140_6.0.0.dir/__/__/mesh/core/src/net_state.c.obj
 .text.net_state_reset
                0x000000000003bc8c       0x78 CMakeFiles/dfu_nrf52840_xxAA_s140_6.0.0.dir/__/__/mesh/core/src/net_state.c.obj
                0x000000000003bc8c                net_state_reset
 .text.iv_update_trigger_if_pending
                0x000000000003bd04      0x174 CMakeFiles/dfu_nrf52840_xxAA_s140_6.0.0.dir/__/__/mesh/core/src/net_state.c.obj
 .text.iv_update_timer_handler
                0x000000000003be78       0x70 CMakeFiles/dfu_nrf52840_xxAA_s140_6.0.0.dir/__/__/mesh/core/src/net_state.c.obj
 .text.mesh_evt_handler
                0x000000000003bee8      0x104 CMakeFiles/dfu_nrf52840_xxAA_s140_6.0.0.dir/__/__/mesh/core/src/net_state.c.obj
 .text.net_state_recover_from_flash
                0x000000000003bfec      0x118 CMakeFiles/dfu_nrf52840_xxAA_s140_6.0.0.dir/__/__/mesh/core/src/net_state.c.obj
                0x000000000003bfec                net_state_recover_from_flash
 .text.net_state_flash_area_get
                0x000000000003c104        0xc CMakeFiles/dfu_nrf52840_xxAA_s140_6.0.0.dir/__/__/mesh/core/src/net_state.c.obj
                0x000000000003c104                net_state_flash_area_get
 .text.net_state_init
                0x000000000003c110       0x94 CMakeFiles/dfu_nrf52840_xxAA_s140_6.0.0.dir/__/__/mesh/core/src/net_state.c.obj
                0x000000000003c110                net_state_init
 .text.net_state_seqnum_alloc
                0x000000000003c1a4       0xd0 CMakeFiles/dfu_nrf52840_xxAA_s140_6.0.0.dir/__/__/mesh/core/src/net_state.c.obj
                0x000000000003c1a4                net_state_seqnum_alloc
 .text.net_state_iv_index_lock
                0x000000000003c274      0x188 CMakeFiles/dfu_nrf52840_xxAA_s140_6.0.0.dir/__/__/mesh/core/src/net_state.c.obj
                0x000000000003c274                net_state_iv_index_lock
 .text.net_state_key_refresh_phase_changed
                0x000000000003c3fc       0x20 CMakeFiles/dfu_nrf52840_xxAA_s140_6.0.0.dir/__/__/mesh/core/src/net_state.c.obj
                0x000000000003c3fc                net_state_key_refresh_phase_changed
 .text.net_state_beacon_iv_index_get
                0x000000000003c41c        0xc CMakeFiles/dfu_nrf52840_xxAA_s140_6.0.0.dir/__/__/mesh/core/src/net_state.c.obj
                0x000000000003c41c                net_state_beacon_iv_index_get
 .text.net_state_tx_iv_index_get
                0x000000000003c428       0x14 CMakeFiles/dfu_nrf52840_xxAA_s140_6.0.0.dir/__/__/mesh/core/src/net_state.c.obj
                0x000000000003c428                net_state_tx_iv_index_get
 .text.net_state_rx_iv_index_get
                0x000000000003c43c       0x18 CMakeFiles/dfu_nrf52840_xxAA_s140_6.0.0.dir/__/__/mesh/core/src/net_state.c.obj
                0x000000000003c43c                net_state_rx_iv_index_get
 .text.net_state_iv_update_get
                0x000000000003c454        0xc CMakeFiles/dfu_nrf52840_xxAA_s140_6.0.0.dir/__/__/mesh/core/src/net_state.c.obj
                0x000000000003c454                net_state_iv_update_get
 .text.net_state_iv_index_set
                0x000000000003c460       0x88 CMakeFiles/dfu_nrf52840_xxAA_s140_6.0.0.dir/__/__/mesh/core/src/net_state.c.obj
                0x000000000003c460                net_state_iv_index_set
 .text.send_end_events
                0x000000000003c4e8       0x98 CMakeFiles/dfu_nrf52840_xxAA_s140_6.0.0.dir/__/__/mesh/core/src/mesh_flash.c.obj
 .text.flash_op_start
                0x000000000003c580      0x214 CMakeFiles/dfu_nrf52840_xxAA_s140_6.0.0.dir/__/__/mesh/core/src/mesh_flash.c.obj
 .text.mesh_flash_init
                0x000000000003c794       0x78 CMakeFiles/dfu_nrf52840_xxAA_s140_6.0.0.dir/__/__/mesh/core/src/mesh_flash.c.obj
                0x000000000003c794                mesh_flash_init
 .text.mesh_flash_user_callback_set
                0x000000000003c80c       0x20 CMakeFiles/dfu_nrf52840_xxAA_s140_6.0.0.dir/__/__/mesh/core/src/mesh_flash.c.obj
                0x000000000003c80c                mesh_flash_user_callback_set
 .text.mesh_flash_op_push
                0x000000000003c82c      0x198 CMakeFiles/dfu_nrf52840_xxAA_s140_6.0.0.dir/__/__/mesh/core/src/mesh_flash.c.obj
                0x000000000003c82c                mesh_flash_op_push
 .text.mesh_flash_in_progress
                0x000000000003c9c4       0x34 CMakeFiles/dfu_nrf52840_xxAA_s140_6.0.0.dir/__/__/mesh/core/src/mesh_flash.c.obj
                0x000000000003c9c4                mesh_flash_in_progress
 .text.mesh_flash_set_suspended
                0x000000000003c9f8      0x21c CMakeFiles/dfu_nrf52840_xxAA_s140_6.0.0.dir/__/__/mesh/core/src/mesh_flash.c.obj
                0x000000000003c9f8                mesh_flash_set_suspended
 .text.nrf_mesh_address_type_get
                0x000000000003cc14       0x10 CMakeFiles/dfu_nrf52840_xxAA_s140_6.0.0.dir/__/__/mesh/core/src/nrf_mesh_utils.c.obj
                0x000000000003cc14                nrf_mesh_address_type_get
 .text.sd_softdevice_is_enabled
                0x000000000003cc24        0x4 CMakeFiles/dfu_nrf52840_xxAA_s140_6.0.0.dir/__/__/mesh/core/src/nrf_mesh.c.obj
 .text.nrf_mesh_listen
                0x000000000003cc28      0x184 CMakeFiles/dfu_nrf52840_xxAA_s140_6.0.0.dir/__/__/mesh/core/src/nrf_mesh.c.obj
 .text.flash_stable_cb
                0x000000000003cdac       0x20 CMakeFiles/dfu_nrf52840_xxAA_s140_6.0.0.dir/__/__/mesh/core/src/nrf_mesh.c.obj
 .text.scanner_packet_process_cb
                0x000000000003cdcc       0x88 CMakeFiles/dfu_nrf52840_xxAA_s140_6.0.0.dir/__/__/mesh/core/src/nrf_mesh.c.obj
 .text.nrf_mesh_init
                0x000000000003ce54       0xe4 CMakeFiles/dfu_nrf52840_xxAA_s140_6.0.0.dir/__/__/mesh/core/src/nrf_mesh.c.obj
                0x000000000003ce54                nrf_mesh_init
 .text.nrf_mesh_enable
                0x000000000003cf38       0x48 CMakeFiles/dfu_nrf52840_xxAA_s140_6.0.0.dir/__/__/mesh/core/src/nrf_mesh.c.obj
                0x000000000003cf38                nrf_mesh_enable
 .text.nrf_mesh_disable
                0x000000000003cf80       0x30 CMakeFiles/dfu_nrf52840_xxAA_s140_6.0.0.dir/__/__/mesh/core/src/nrf_mesh.c.obj
                0x000000000003cf80                nrf_mesh_disable
 .text.nrf_mesh_packet_send
                0x000000000003cfb0       0x94 CMakeFiles/dfu_nrf52840_xxAA_s140_6.0.0.dir/__/__/mesh/core/src/nrf_mesh.c.obj
                0x000000000003cfb0                nrf_mesh_packet_send
 .text.nrf_mesh_evt_handler_add
                0x000000000003d044        0x4 CMakeFiles/dfu_nrf52840_xxAA_s140_6.0.0.dir/__/__/mesh/core/src/nrf_mesh.c.obj
                0x000000000003d044                nrf_mesh_evt_handler_add
 .text.nrf_mesh_on_sd_evt
                0x000000000003d048        0xc CMakeFiles/dfu_nrf52840_xxAA_s140_6.0.0.dir/__/__/mesh/core/src/nrf_mesh.c.obj
                0x000000000003d048                nrf_mesh_on_sd_evt
 .text.nrf_mesh_subnet_added
                0x000000000003d054        0x4 CMakeFiles/dfu_nrf52840_xxAA_s140_6.0.0.dir/__/__/mesh/core/src/nrf_mesh.c.obj
                0x000000000003d054                nrf_mesh_subnet_added
 .text.queue_init
                0x000000000003d058       0x1c CMakeFiles/dfu_nrf52840_xxAA_s140_6.0.0.dir/__/__/mesh/core/src/queue.c.obj
                0x000000000003d058                queue_init
 .text.queue_push
                0x000000000003d074       0x3c CMakeFiles/dfu_nrf52840_xxAA_s140_6.0.0.dir/__/__/mesh/core/src/queue.c.obj
                0x000000000003d074                queue_push
 .text.queue_pop
                0x000000000003d0b0       0x2c CMakeFiles/dfu_nrf52840_xxAA_s140_6.0.0.dir/__/__/mesh/core/src/queue.c.obj
                0x000000000003d0b0                queue_pop
 .text.queue_peek
                0x000000000003d0dc       0x14 CMakeFiles/dfu_nrf52840_xxAA_s140_6.0.0.dir/__/__/mesh/core/src/queue.c.obj
                0x000000000003d0dc                queue_peek
 .text.sd_power_reset_reason_clr
                0x000000000003d0f0        0x4 CMakeFiles/dfu_nrf52840_xxAA_s140_6.0.0.dir/__/__/mesh/core/src/hal.c.obj
 .text.hal_device_reset
                0x000000000003d0f4       0x2c CMakeFiles/dfu_nrf52840_xxAA_s140_6.0.0.dir/__/__/mesh/core/src/hal.c.obj
                0x000000000003d0f4                hal_device_reset
 .text.hal_lfclk_ppm_get
                0x000000000003d120       0x14 CMakeFiles/dfu_nrf52840_xxAA_s140_6.0.0.dir/__/__/mesh/core/src/hal.c.obj
                0x000000000003d120                hal_lfclk_ppm_get
 .text.aes_cmac_subkey_generate
                0x000000000003d134      0x294 CMakeFiles/dfu_nrf52840_xxAA_s140_6.0.0.dir/__/__/mesh/core/src/aes_cmac.c.obj
                0x000000000003d134                aes_cmac_subkey_generate
 .text.aes_cmac
                0x000000000003d3c8      0x4b8 CMakeFiles/dfu_nrf52840_xxAA_s140_6.0.0.dir/__/__/mesh/core/src/aes_cmac.c.obj
                0x000000000003d3c8                aes_cmac
 .text.timer_cb
                0x000000000003d880        0xc CMakeFiles/dfu_nrf52840_xxAA_s140_6.0.0.dir/__/__/mesh/core/src/timer_scheduler.c.obj
 .text.add_evt.constprop.1
                0x000000000003d88c       0x60 CMakeFiles/dfu_nrf52840_xxAA_s140_6.0.0.dir/__/__/mesh/core/src/timer_scheduler.c.obj
 .text.flag_event_cb
                0x000000000003d8ec      0x2f0 CMakeFiles/dfu_nrf52840_xxAA_s140_6.0.0.dir/__/__/mesh/core/src/timer_scheduler.c.obj
 .text.timer_sch_init
                0x000000000003dbdc       0x24 CMakeFiles/dfu_nrf52840_xxAA_s140_6.0.0.dir/__/__/mesh/core/src/timer_scheduler.c.obj
                0x000000000003dbdc                timer_sch_init
 .text.timer_sch_schedule
                0x000000000003dc00       0x68 CMakeFiles/dfu_nrf52840_xxAA_s140_6.0.0.dir/__/__/mesh/core/src/timer_scheduler.c.obj
                0x000000000003dc00                timer_sch_schedule
 .text.timer_sch_abort
                0x000000000003dc68       0x5c CMakeFiles/dfu_nrf52840_xxAA_s140_6.0.0.dir/__/__/mesh/core/src/timer_scheduler.c.obj
                0x000000000003dc68                timer_sch_abort
 .text.timer_sch_reschedule
                0x000000000003dcc4       0x90 CMakeFiles/dfu_nrf52840_xxAA_s140_6.0.0.dir/__/__/mesh/core/src/timer_scheduler.c.obj
                0x000000000003dcc4                timer_sch_reschedule
 .text.timer_event_handler
                0x000000000003dd54       0xd0 CMakeFiles/dfu_nrf52840_xxAA_s140_6.0.0.dir/__/__/mesh/core/src/timer.c.obj
                0x000000000003dd54                timer_event_handler
 .text.timer_order_cb
                0x000000000003de24       0x9c CMakeFiles/dfu_nrf52840_xxAA_s140_6.0.0.dir/__/__/mesh/core/src/timer.c.obj
                0x000000000003de24                timer_order_cb
 .text.timer_now
                0x000000000003dec0       0x58 CMakeFiles/dfu_nrf52840_xxAA_s140_6.0.0.dir/__/__/mesh/core/src/timer.c.obj
                0x000000000003dec0                timer_now
 .text.timer_on_ts_begin
                0x000000000003df18      0x100 CMakeFiles/dfu_nrf52840_xxAA_s140_6.0.0.dir/__/__/mesh/core/src/timer.c.obj
                0x000000000003df18                timer_on_ts_begin
 .text.timer_on_ts_end
                0x000000000003e018       0x78 CMakeFiles/dfu_nrf52840_xxAA_s140_6.0.0.dir/__/__/mesh/core/src/timer.c.obj
                0x000000000003e018                timer_on_ts_end
 .text.timer_cb
                0x000000000003e090       0x10 CMakeFiles/dfu_nrf52840_xxAA_s140_6.0.0.dir/__/__/mesh/core/src/ticker.c.obj
 .text.ticker_init
                0x000000000003e0a0       0x3c CMakeFiles/dfu_nrf52840_xxAA_s140_6.0.0.dir/__/__/mesh/core/src/ticker.c.obj
                0x000000000003e0a0                ticker_init
 .text.sd_rand_application_bytes_available_get
                0x000000000003e0dc        0x4 CMakeFiles/dfu_nrf52840_xxAA_s140_6.0.0.dir/__/__/mesh/core/src/rand.c.obj
 .text.sd_rand_application_vector_get
                0x000000000003e0e0        0x4 CMakeFiles/dfu_nrf52840_xxAA_s140_6.0.0.dir/__/__/mesh/core/src/rand.c.obj
 .text.rand_prng_seed
                0x000000000003e0e4       0x78 CMakeFiles/dfu_nrf52840_xxAA_s140_6.0.0.dir/__/__/mesh/core/src/rand.c.obj
                0x000000000003e0e4                rand_prng_seed
 .text.rand_prng_get
                0x000000000003e15c       0x28 CMakeFiles/dfu_nrf52840_xxAA_s140_6.0.0.dir/__/__/mesh/core/src/rand.c.obj
                0x000000000003e15c                rand_prng_get
 .text.rand_hw_rng_get
                0x000000000003e184       0x60 CMakeFiles/dfu_nrf52840_xxAA_s140_6.0.0.dir/__/__/mesh/core/src/rand.c.obj
                0x000000000003e184                rand_hw_rng_get
 .text.nrf_mesh_opt_set
                0x000000000003e1e4       0x28 CMakeFiles/dfu_nrf52840_xxAA_s140_6.0.0.dir/__/__/mesh/core/src/nrf_mesh_opt.c.obj
                0x000000000003e1e4                nrf_mesh_opt_set
 .text.nrf_mesh_opt_get
                0x000000000003e20c       0x28 CMakeFiles/dfu_nrf52840_xxAA_s140_6.0.0.dir/__/__/mesh/core/src/nrf_mesh_opt.c.obj
                0x000000000003e20c                nrf_mesh_opt_get
 .text.sd_radio_session_open
                0x000000000003e234        0x4 CMakeFiles/dfu_nrf52840_xxAA_s140_6.0.0.dir/__/__/mesh/core/src/timeslot.c.obj
 .text.sd_radio_session_close
                0x000000000003e238        0x4 CMakeFiles/dfu_nrf52840_xxAA_s140_6.0.0.dir/__/__/mesh/core/src/timeslot.c.obj
 .text.sd_radio_request
                0x000000000003e23c        0x4 CMakeFiles/dfu_nrf52840_xxAA_s140_6.0.0.dir/__/__/mesh/core/src/timeslot.c.obj
 .text.end_timer_handler
                0x000000000003e240       0x2c CMakeFiles/dfu_nrf52840_xxAA_s140_6.0.0.dir/__/__/mesh/core/src/timeslot.c.obj
 .text.radio_signal_callback
                0x000000000003e26c      0x2b4 CMakeFiles/dfu_nrf52840_xxAA_s140_6.0.0.dir/__/__/mesh/core/src/timeslot.c.obj
 .text.timeslot_sd_event_handler
                0x000000000003e520       0x44 CMakeFiles/dfu_nrf52840_xxAA_s140_6.0.0.dir/__/__/mesh/core/src/timeslot.c.obj
                0x000000000003e520                timeslot_sd_event_handler
 .text.timeslot_init
                0x000000000003e564       0x4c CMakeFiles/dfu_nrf52840_xxAA_s140_6.0.0.dir/__/__/mesh/core/src/timeslot.c.obj
                0x000000000003e564                timeslot_init
 .text.timeslot_start
                0x000000000003e5b0       0x20 CMakeFiles/dfu_nrf52840_xxAA_s140_6.0.0.dir/__/__/mesh/core/src/timeslot.c.obj
                0x000000000003e5b0                timeslot_start
 .text.timeslot_stop
                0x000000000003e5d0       0x30 CMakeFiles/dfu_nrf52840_xxAA_s140_6.0.0.dir/__/__/mesh/core/src/timeslot.c.obj
                0x000000000003e5d0                timeslot_stop
 .text.timeslot_state_lock
                0x000000000003e600       0x44 CMakeFiles/dfu_nrf52840_xxAA_s140_6.0.0.dir/__/__/mesh/core/src/timeslot.c.obj
                0x000000000003e600                timeslot_state_lock
 .text.timeslot_end_is_pending
                0x000000000003e644       0x24 CMakeFiles/dfu_nrf52840_xxAA_s140_6.0.0.dir/__/__/mesh/core/src/timeslot.c.obj
                0x000000000003e644                timeslot_end_is_pending
 .text.timeslot_start_time_get
                0x000000000003e668        0xc CMakeFiles/dfu_nrf52840_xxAA_s140_6.0.0.dir/__/__/mesh/core/src/timeslot.c.obj
                0x000000000003e668                timeslot_start_time_get
 .text.timeslot_remaining_time_get
                0x000000000003e674       0x40 CMakeFiles/dfu_nrf52840_xxAA_s140_6.0.0.dir/__/__/mesh/core/src/timeslot.c.obj
                0x000000000003e674                timeslot_remaining_time_get
 .text.timeslot_is_in_cb
                0x000000000003e6b4        0xc CMakeFiles/dfu_nrf52840_xxAA_s140_6.0.0.dir/__/__/mesh/core/src/timeslot.c.obj
                0x000000000003e6b4                timeslot_is_in_cb
 .text.timeslot_trigger
                0x000000000003e6c0       0x24 CMakeFiles/dfu_nrf52840_xxAA_s140_6.0.0.dir/__/__/mesh/core/src/timeslot.c.obj
                0x000000000003e6c0                timeslot_trigger
 .text.bearer_event_init
                0x000000000003e6e4       0x4c CMakeFiles/dfu_nrf52840_xxAA_s140_6.0.0.dir/__/__/mesh/core/src/bearer_event.c.obj
                0x000000000003e6e4                bearer_event_init
 .text.bearer_event_generic_post
                0x000000000003e730       0x50 CMakeFiles/dfu_nrf52840_xxAA_s140_6.0.0.dir/__/__/mesh/core/src/bearer_event.c.obj
                0x000000000003e730                bearer_event_generic_post
 .text.bearer_event_timer_post
                0x000000000003e780       0x50 CMakeFiles/dfu_nrf52840_xxAA_s140_6.0.0.dir/__/__/mesh/core/src/bearer_event.c.obj
                0x000000000003e780                bearer_event_timer_post
 .text.bearer_event_critical_section_begin
                0x000000000003e7d0       0x44 CMakeFiles/dfu_nrf52840_xxAA_s140_6.0.0.dir/__/__/mesh/core/src/bearer_event.c.obj
                0x000000000003e7d0                bearer_event_critical_section_begin
 .text.bearer_event_critical_section_end
                0x000000000003e814       0x40 CMakeFiles/dfu_nrf52840_xxAA_s140_6.0.0.dir/__/__/mesh/core/src/bearer_event.c.obj
                0x000000000003e814                bearer_event_critical_section_end
 .text.bearer_event_flag_add
                0x000000000003e854       0x40 CMakeFiles/dfu_nrf52840_xxAA_s140_6.0.0.dir/__/__/mesh/core/src/bearer_event.c.obj
                0x000000000003e854                bearer_event_flag_add
 .text.bearer_event_flag_set
                0x000000000003e894       0x5c CMakeFiles/dfu_nrf52840_xxAA_s140_6.0.0.dir/__/__/mesh/core/src/bearer_event.c.obj
                0x000000000003e894                bearer_event_flag_set
 .text.bearer_event_sequential_add
                0x000000000003e8f0       0x34 CMakeFiles/dfu_nrf52840_xxAA_s140_6.0.0.dir/__/__/mesh/core/src/bearer_event.c.obj
                0x000000000003e8f0                bearer_event_sequential_add
 .text.bearer_event_sequential_post
                0x000000000003e924       0x64 CMakeFiles/dfu_nrf52840_xxAA_s140_6.0.0.dir/__/__/mesh/core/src/bearer_event.c.obj
                0x000000000003e924                bearer_event_sequential_post
 .text.bearer_event_sequential_pending
                0x000000000003e988       0x14 CMakeFiles/dfu_nrf52840_xxAA_s140_6.0.0.dir/__/__/mesh/core/src/bearer_event.c.obj
                0x000000000003e988                bearer_event_sequential_pending
 .text.bearer_event_handler
                0x000000000003e99c      0x16c CMakeFiles/dfu_nrf52840_xxAA_s140_6.0.0.dir/__/__/mesh/core/src/bearer_event.c.obj
                0x000000000003e99c                bearer_event_handler
 .text.QDEC_IRQHandler
                0x000000000003eb08        0x4 CMakeFiles/dfu_nrf52840_xxAA_s140_6.0.0.dir/__/__/mesh/core/src/bearer_event.c.obj
                0x000000000003eb08                QDEC_IRQHandler
 .text.enc_aes_encrypt
                0x000000000003eb0c        0x4 CMakeFiles/dfu_nrf52840_xxAA_s140_6.0.0.dir/__/__/mesh/core/src/enc.c.obj
                0x000000000003eb0c                enc_aes_encrypt
 .text.enc_aes_cmac
                0x000000000003eb10        0x4 CMakeFiles/dfu_nrf52840_xxAA_s140_6.0.0.dir/__/__/mesh/core/src/enc.c.obj
                0x000000000003eb10                enc_aes_cmac
 .text.enc_aes_ccm_encrypt
                0x000000000003eb14        0x4 CMakeFiles/dfu_nrf52840_xxAA_s140_6.0.0.dir/__/__/mesh/core/src/enc.c.obj
                0x000000000003eb14                enc_aes_ccm_encrypt
 .text.enc_aes_ccm_decrypt
                0x000000000003eb18        0x4 CMakeFiles/dfu_nrf52840_xxAA_s140_6.0.0.dir/__/__/mesh/core/src/enc.c.obj
                0x000000000003eb18                enc_aes_ccm_decrypt
 .text.enc_nonce_generate
                0x000000000003eb1c       0xc8 CMakeFiles/dfu_nrf52840_xxAA_s140_6.0.0.dir/__/__/mesh/core/src/enc.c.obj
                0x000000000003eb1c                enc_nonce_generate
 .text.enc_s1   0x000000000003ebe4       0x30 CMakeFiles/dfu_nrf52840_xxAA_s140_6.0.0.dir/__/__/mesh/core/src/enc.c.obj
                0x000000000003ebe4                enc_s1
 .text.enc_k1   0x000000000003ec14       0x40 CMakeFiles/dfu_nrf52840_xxAA_s140_6.0.0.dir/__/__/mesh/core/src/enc.c.obj
                0x000000000003ec14                enc_k1
 .text.enc_k2   0x000000000003ec54       0xe0 CMakeFiles/dfu_nrf52840_xxAA_s140_6.0.0.dir/__/__/mesh/core/src/enc.c.obj
                0x000000000003ec54                enc_k2
 .text.enc_k3   0x000000000003ed34       0x68 CMakeFiles/dfu_nrf52840_xxAA_s140_6.0.0.dir/__/__/mesh/core/src/enc.c.obj
                0x000000000003ed34                enc_k3
 .text.enc_k4   0x000000000003ed9c       0x60 CMakeFiles/dfu_nrf52840_xxAA_s140_6.0.0.dir/__/__/mesh/core/src/enc.c.obj
                0x000000000003ed9c                enc_k4
 .text.network_init
                0x000000000003edfc       0x28 CMakeFiles/dfu_nrf52840_xxAA_s140_6.0.0.dir/__/__/mesh/core/src/network.c.obj
                0x000000000003edfc                network_init
 .text.network_opt_set
                0x000000000003ee24       0x84 CMakeFiles/dfu_nrf52840_xxAA_s140_6.0.0.dir/__/__/mesh/core/src/network.c.obj
                0x000000000003ee24                network_opt_set
 .text.network_opt_get
                0x000000000003eea8       0x5c CMakeFiles/dfu_nrf52840_xxAA_s140_6.0.0.dir/__/__/mesh/core/src/network.c.obj
                0x000000000003eea8                network_opt_get
 .text.network_packet_alloc
                0x000000000003ef04       0xa0 CMakeFiles/dfu_nrf52840_xxAA_s140_6.0.0.dir/__/__/mesh/core/src/network.c.obj
                0x000000000003ef04                network_packet_alloc
 .text.network_packet_send
                0x000000000003efa4       0x58 CMakeFiles/dfu_nrf52840_xxAA_s140_6.0.0.dir/__/__/mesh/core/src/network.c.obj
                0x000000000003efa4                network_packet_send
 .text.network_packet_in
                0x000000000003effc      0x1c8 CMakeFiles/dfu_nrf52840_xxAA_s140_6.0.0.dir/__/__/mesh/core/src/network.c.obj
                0x000000000003effc                network_packet_in
 .text.net_packet_decrypt
                0x000000000003f1c4      0x2bc CMakeFiles/dfu_nrf52840_xxAA_s140_6.0.0.dir/__/__/mesh/core/src/net_packet.c.obj
                0x000000000003f1c4                net_packet_decrypt
 .text.net_packet_encrypt
                0x000000000003f480      0x100 CMakeFiles/dfu_nrf52840_xxAA_s140_6.0.0.dir/__/__/mesh/core/src/net_packet.c.obj
                0x000000000003f480                net_packet_encrypt
 .text.net_packet_header_set
                0x000000000003f580       0xc0 CMakeFiles/dfu_nrf52840_xxAA_s140_6.0.0.dir/__/__/mesh/core/src/net_packet.c.obj
                0x000000000003f580                net_packet_header_set
 .text.net_packet_payload_len_get
                0x000000000003f640       0x14 CMakeFiles/dfu_nrf52840_xxAA_s140_6.0.0.dir/__/__/mesh/core/src/net_packet.c.obj
                0x000000000003f640                net_packet_payload_len_get
 .text.net_packet_from_payload
                0x000000000003f654        0x4 CMakeFiles/dfu_nrf52840_xxAA_s140_6.0.0.dir/__/__/mesh/core/src/net_packet.c.obj
                0x000000000003f654                net_packet_from_payload
 .text.net_packet_obfuscation_start_get
                0x000000000003f658        0x4 CMakeFiles/dfu_nrf52840_xxAA_s140_6.0.0.dir/__/__/mesh/core/src/net_packet.c.obj
                0x000000000003f658                net_packet_obfuscation_start_get
 .text.msq_init
                0x000000000003f65c       0x6c CMakeFiles/dfu_nrf52840_xxAA_s140_6.0.0.dir/__/__/mesh/core/src/msqueue.c.obj
                0x000000000003f65c                msq_init
 .text.msq_get  0x000000000003f6c8       0x54 CMakeFiles/dfu_nrf52840_xxAA_s140_6.0.0.dir/__/__/mesh/core/src/msqueue.c.obj
                0x000000000003f6c8                msq_get
 .text.msq_move
                0x000000000003f71c       0x4c CMakeFiles/dfu_nrf52840_xxAA_s140_6.0.0.dir/__/__/mesh/core/src/msqueue.c.obj
                0x000000000003f71c                msq_move
 .text.msq_available
                0x000000000003f768       0x44 CMakeFiles/dfu_nrf52840_xxAA_s140_6.0.0.dir/__/__/mesh/core/src/msqueue.c.obj
                0x000000000003f768                msq_available
 .text.nrf_mesh_keygen_aid
                0x000000000003f7ac       0x18 CMakeFiles/dfu_nrf52840_xxAA_s140_6.0.0.dir/__/__/mesh/core/src/nrf_mesh_keygen.c.obj
                0x000000000003f7ac                nrf_mesh_keygen_aid
 .text.nrf_mesh_keygen_network_secmat
                0x000000000003f7c4       0x24 CMakeFiles/dfu_nrf52840_xxAA_s140_6.0.0.dir/__/__/mesh/core/src/nrf_mesh_keygen.c.obj
                0x000000000003f7c4                nrf_mesh_keygen_network_secmat
 .text.nrf_mesh_keygen_beacon_secmat
                0x000000000003f7e8       0x50 CMakeFiles/dfu_nrf52840_xxAA_s140_6.0.0.dir/__/__/mesh/core/src/nrf_mesh_keygen.c.obj
                0x000000000003f7e8                nrf_mesh_keygen_beacon_secmat
 .text.nrf_mesh_keygen_virtual_address
                0x000000000003f838       0x50 CMakeFiles/dfu_nrf52840_xxAA_s140_6.0.0.dir/__/__/mesh/core/src/nrf_mesh_keygen.c.obj
                0x000000000003f838                nrf_mesh_keygen_virtual_address
 .text.list_add
                0x000000000003f888       0x64 CMakeFiles/dfu_nrf52840_xxAA_s140_6.0.0.dir/__/__/mesh/core/src/list.c.obj
                0x000000000003f888                list_add
 .text.list_remove
                0x000000000003f8ec       0x44 CMakeFiles/dfu_nrf52840_xxAA_s140_6.0.0.dir/__/__/mesh/core/src/list.c.obj
                0x000000000003f8ec                list_remove
 .text.list_compare_add
                0x000000000003f930       0x80 CMakeFiles/dfu_nrf52840_xxAA_s140_6.0.0.dir/__/__/mesh/core/src/list.c.obj
                0x000000000003f930                list_compare_add
 .text.log_callback_rtt
                0x000000000003f9b0       0x2c CMakeFiles/dfu_nrf52840_xxAA_s140_6.0.0.dir/__/__/mesh/core/src/log.c.obj
                0x000000000003f9b0                log_callback_rtt
 .text.log_init
                0x000000000003f9dc       0x20 CMakeFiles/dfu_nrf52840_xxAA_s140_6.0.0.dir/__/__/mesh/core/src/log.c.obj
                0x000000000003f9dc                log_init
 .text.log_printf
                0x000000000003f9fc       0x20 CMakeFiles/dfu_nrf52840_xxAA_s140_6.0.0.dir/__/__/mesh/core/src/log.c.obj
                0x000000000003f9fc                log_printf
 .text.process_action_queue
                0x000000000003fa1c      0x794 CMakeFiles/dfu_nrf52840_xxAA_s140_6.0.0.dir/__/__/mesh/core/src/flash_manager.c.obj
 .text.flash_op_ended_callback
                0x00000000000401b0       0x24 CMakeFiles/dfu_nrf52840_xxAA_s140_6.0.0.dir/__/__/mesh/core/src/flash_manager.c.obj
 .text.flash_manager_init
                0x00000000000401d4       0x68 CMakeFiles/dfu_nrf52840_xxAA_s140_6.0.0.dir/__/__/mesh/core/src/flash_manager.c.obj
                0x00000000000401d4                flash_manager_init
 .text.flash_manager_remove
                0x000000000004023c       0x6c CMakeFiles/dfu_nrf52840_xxAA_s140_6.0.0.dir/__/__/mesh/core/src/flash_manager.c.obj
                0x000000000004023c                flash_manager_remove
 .text.flash_manager_entry_get
                0x00000000000402a8       0x48 CMakeFiles/dfu_nrf52840_xxAA_s140_6.0.0.dir/__/__/mesh/core/src/flash_manager.c.obj
                0x00000000000402a8                flash_manager_entry_get
 .text.flash_manager_entry_next_get
                0x00000000000402f0      0x144 CMakeFiles/dfu_nrf52840_xxAA_s140_6.0.0.dir/__/__/mesh/core/src/flash_manager.c.obj
                0x00000000000402f0                flash_manager_entry_next_get
 .text.flash_manager_entry_alloc
                0x0000000000040434       0x80 CMakeFiles/dfu_nrf52840_xxAA_s140_6.0.0.dir/__/__/mesh/core/src/flash_manager.c.obj
                0x0000000000040434                flash_manager_entry_alloc
 .text.flash_manager_entry_commit
                0x00000000000404b4       0x58 CMakeFiles/dfu_nrf52840_xxAA_s140_6.0.0.dir/__/__/mesh/core/src/flash_manager.c.obj
                0x00000000000404b4                flash_manager_entry_commit
 .text.flash_manager_entry_invalidate
                0x000000000004050c       0x98 CMakeFiles/dfu_nrf52840_xxAA_s140_6.0.0.dir/__/__/mesh/core/src/flash_manager.c.obj
                0x000000000004050c                flash_manager_entry_invalidate
 .text.flash_manager_add
                0x00000000000405a4      0x3f4 CMakeFiles/dfu_nrf52840_xxAA_s140_6.0.0.dir/__/__/mesh/core/src/flash_manager.c.obj
                0x00000000000405a4                flash_manager_add
 .text.flash_manager_mem_listener_register
                0x0000000000040998       0x38 CMakeFiles/dfu_nrf52840_xxAA_s140_6.0.0.dir/__/__/mesh/core/src/flash_manager.c.obj
                0x0000000000040998                flash_manager_mem_listener_register
 .text.flash_manager_is_stable
                0x00000000000409d0       0x20 CMakeFiles/dfu_nrf52840_xxAA_s140_6.0.0.dir/__/__/mesh/core/src/flash_manager.c.obj
                0x00000000000409d0                flash_manager_is_stable
 .text.flash_manager_on_defrag_end
                0x00000000000409f0       0x58 CMakeFiles/dfu_nrf52840_xxAA_s140_6.0.0.dir/__/__/mesh/core/src/flash_manager.c.obj
                0x00000000000409f0                flash_manager_on_defrag_end
 .text.flash_manager_recovery_page_get
                0x0000000000040a48        0x4 CMakeFiles/dfu_nrf52840_xxAA_s140_6.0.0.dir/__/__/mesh/core/src/flash_manager.c.obj
                0x0000000000040a48                flash_manager_recovery_page_get
 .text.flash_manager_action_queue_empty_cb_set
                0x0000000000040a4c       0x20 CMakeFiles/dfu_nrf52840_xxAA_s140_6.0.0.dir/__/__/mesh/core/src/flash_manager.c.obj
                0x0000000000040a4c                flash_manager_action_queue_empty_cb_set
 .text.ccm_soft_crypt.constprop.0
                0x0000000000040a6c      0x274 CMakeFiles/dfu_nrf52840_xxAA_s140_6.0.0.dir/__/__/mesh/core/src/ccm_soft.c.obj
 .text.ccm_soft_authenticate
                0x0000000000040ce0      0x308 CMakeFiles/dfu_nrf52840_xxAA_s140_6.0.0.dir/__/__/mesh/core/src/ccm_soft.c.obj
 .text.ccm_soft_encrypt
                0x0000000000040fe8       0x7c CMakeFiles/dfu_nrf52840_xxAA_s140_6.0.0.dir/__/__/mesh/core/src/ccm_soft.c.obj
                0x0000000000040fe8                ccm_soft_encrypt
 .text.ccm_soft_decrypt
                0x0000000000041064      0x114 CMakeFiles/dfu_nrf52840_xxAA_s140_6.0.0.dir/__/__/mesh/core/src/ccm_soft.c.obj
                0x0000000000041064                ccm_soft_decrypt
 .text.replay_cache_init
                0x0000000000041178       0x20 CMakeFiles/dfu_nrf52840_xxAA_s140_6.0.0.dir/__/__/mesh/core/src/replay_cache.c.obj
                0x0000000000041178                replay_cache_init
 .text.replay_cache_add
                0x0000000000041198       0x60 CMakeFiles/dfu_nrf52840_xxAA_s140_6.0.0.dir/__/__/mesh/core/src/replay_cache.c.obj
                0x0000000000041198                replay_cache_add
 .text.replay_cache_has_elem
                0x00000000000411f8       0x40 CMakeFiles/dfu_nrf52840_xxAA_s140_6.0.0.dir/__/__/mesh/core/src/replay_cache.c.obj
                0x00000000000411f8                replay_cache_has_elem
 .text.beacon_create
                0x0000000000041238       0x50 CMakeFiles/dfu_nrf52840_xxAA_s140_6.0.0.dir/__/__/mesh/core/src/beacon.c.obj
                0x0000000000041238                beacon_create
 .text.beacon_packet_in
                0x0000000000041288      0x178 CMakeFiles/dfu_nrf52840_xxAA_s140_6.0.0.dir/__/__/mesh/core/src/beacon.c.obj
                0x0000000000041288                beacon_packet_in
 .text.entry_get
                0x0000000000041400       0x7c CMakeFiles/dfu_nrf52840_xxAA_s140_6.0.0.dir/__/__/mesh/core/src/flash_manager_internal.c.obj
                0x0000000000041400                entry_get
 .text.core_tx_complete_cb_set
                0x000000000004147c        0xc CMakeFiles/dfu_nrf52840_xxAA_s140_6.0.0.dir/__/__/mesh/core/src/core_tx.c.obj
                0x000000000004147c                core_tx_complete_cb_set
 .text.core_tx_packet_alloc
                0x0000000000041488       0xc0 CMakeFiles/dfu_nrf52840_xxAA_s140_6.0.0.dir/__/__/mesh/core/src/core_tx.c.obj
                0x0000000000041488                core_tx_packet_alloc
 .text.core_tx_packet_send
                0x0000000000041548       0x5c CMakeFiles/dfu_nrf52840_xxAA_s140_6.0.0.dir/__/__/mesh/core/src/core_tx.c.obj
                0x0000000000041548                core_tx_packet_send
 .text.core_tx_packet_discard
                0x00000000000415a4       0x54 CMakeFiles/dfu_nrf52840_xxAA_s140_6.0.0.dir/__/__/mesh/core/src/core_tx.c.obj
                0x00000000000415a4                core_tx_packet_discard
 .text.core_tx_complete
                0x00000000000415f8       0x38 CMakeFiles/dfu_nrf52840_xxAA_s140_6.0.0.dir/__/__/mesh/core/src/core_tx.c.obj
                0x00000000000415f8                core_tx_complete
 .text.core_tx_bearer_add
                0x0000000000041630       0x90 CMakeFiles/dfu_nrf52840_xxAA_s140_6.0.0.dir/__/__/mesh/core/src/core_tx.c.obj
                0x0000000000041630                core_tx_bearer_add
 .text.heartbeat_subscription_timer_cb
                0x00000000000416c0       0x1c CMakeFiles/dfu_nrf52840_xxAA_s140_6.0.0.dir/__/__/mesh/core/src/heartbeat.c.obj
 .text.heartbeat_opcode_handle
                0x00000000000416dc       0x8c CMakeFiles/dfu_nrf52840_xxAA_s140_6.0.0.dir/__/__/mesh/core/src/heartbeat.c.obj
 .text.heartbeat_send
                0x0000000000041768       0xbc CMakeFiles/dfu_nrf52840_xxAA_s140_6.0.0.dir/__/__/mesh/core/src/heartbeat.c.obj
 .text.heartbeat_core_evt_cb
                0x0000000000041824       0x94 CMakeFiles/dfu_nrf52840_xxAA_s140_6.0.0.dir/__/__/mesh/core/src/heartbeat.c.obj
 .text.heartbeat_publication_timer_cb
                0x00000000000418b8       0xb0 CMakeFiles/dfu_nrf52840_xxAA_s140_6.0.0.dir/__/__/mesh/core/src/heartbeat.c.obj
 .text.heartbeat_on_feature_change_trigger
                0x0000000000041968       0x48 CMakeFiles/dfu_nrf52840_xxAA_s140_6.0.0.dir/__/__/mesh/core/src/heartbeat.c.obj
                0x0000000000041968                heartbeat_on_feature_change_trigger
 .text.heartbeat_init
                0x00000000000419b0       0x7c CMakeFiles/dfu_nrf52840_xxAA_s140_6.0.0.dir/__/__/mesh/core/src/heartbeat.c.obj
                0x00000000000419b0                heartbeat_init
 .text.heartbeat_subscription_set
                0x0000000000041a2c       0xa4 CMakeFiles/dfu_nrf52840_xxAA_s140_6.0.0.dir/__/__/mesh/core/src/heartbeat.c.obj
                0x0000000000041a2c                heartbeat_subscription_set
 .text.heartbeat_subscription_get
                0x0000000000041ad0        0x8 CMakeFiles/dfu_nrf52840_xxAA_s140_6.0.0.dir/__/__/mesh/core/src/heartbeat.c.obj
                0x0000000000041ad0                heartbeat_subscription_get
 .text.heartbeat_config_server_cb_set
                0x0000000000041ad8       0x30 CMakeFiles/dfu_nrf52840_xxAA_s140_6.0.0.dir/__/__/mesh/core/src/heartbeat.c.obj
                0x0000000000041ad8                heartbeat_config_server_cb_set
 .text.heartbeat_publication_state_updated
                0x0000000000041b08       0x78 CMakeFiles/dfu_nrf52840_xxAA_s140_6.0.0.dir/__/__/mesh/core/src/heartbeat.c.obj
                0x0000000000041b08                heartbeat_publication_state_updated
 .text.beacon_tx
                0x0000000000041b80      0x194 CMakeFiles/dfu_nrf52840_xxAA_s140_6.0.0.dir/__/__/mesh/core/src/net_beacon.c.obj
 .text.tx_complete_cb
                0x0000000000041d14       0x10 CMakeFiles/dfu_nrf52840_xxAA_s140_6.0.0.dir/__/__/mesh/core/src/net_beacon.c.obj
 .text.beacon_tx_timeout
                0x0000000000041d24        0x4 CMakeFiles/dfu_nrf52840_xxAA_s140_6.0.0.dir/__/__/mesh/core/src/net_beacon.c.obj
 .text.net_beacon_init
                0x0000000000041d28       0x94 CMakeFiles/dfu_nrf52840_xxAA_s140_6.0.0.dir/__/__/mesh/core/src/net_beacon.c.obj
                0x0000000000041d28                net_beacon_init
 .text.net_beacon_state_set
                0x0000000000041dbc       0x3c CMakeFiles/dfu_nrf52840_xxAA_s140_6.0.0.dir/__/__/mesh/core/src/net_beacon.c.obj
                0x0000000000041dbc                net_beacon_state_set
 .text.net_beacon_state_get
                0x0000000000041df8        0xc CMakeFiles/dfu_nrf52840_xxAA_s140_6.0.0.dir/__/__/mesh/core/src/net_beacon.c.obj
                0x0000000000041df8                net_beacon_state_get
 .text.net_beacon_packet_in
                0x0000000000041e04      0x134 CMakeFiles/dfu_nrf52840_xxAA_s140_6.0.0.dir/__/__/mesh/core/src/net_beacon.c.obj
                0x0000000000041e04                net_beacon_packet_in
 .text.packet_discard
                0x0000000000041f38       0x40 CMakeFiles/dfu_nrf52840_xxAA_s140_6.0.0.dir/__/__/mesh/core/src/core_tx_adv.c.obj
 .text.packet_send
                0x0000000000041f78       0x58 CMakeFiles/dfu_nrf52840_xxAA_s140_6.0.0.dir/__/__/mesh/core/src/core_tx_adv.c.obj
 .text.packet_alloc
                0x0000000000041fd0       0x5c CMakeFiles/dfu_nrf52840_xxAA_s140_6.0.0.dir/__/__/mesh/core/src/core_tx_adv.c.obj
 .text.adv_tx_complete_callback
                0x000000000004202c       0x28 CMakeFiles/dfu_nrf52840_xxAA_s140_6.0.0.dir/__/__/mesh/core/src/core_tx_adv.c.obj
 .text.core_tx_adv_init
                0x0000000000042054       0x60 CMakeFiles/dfu_nrf52840_xxAA_s140_6.0.0.dir/__/__/mesh/core/src/core_tx_adv.c.obj
                0x0000000000042054                core_tx_adv_init
 .text.core_tx_adv_count_set
                0x00000000000420b4       0x2c CMakeFiles/dfu_nrf52840_xxAA_s140_6.0.0.dir/__/__/mesh/core/src/core_tx_adv.c.obj
                0x00000000000420b4                core_tx_adv_count_set
 .text.core_tx_adv_count_get
                0x00000000000420e0       0x20 CMakeFiles/dfu_nrf52840_xxAA_s140_6.0.0.dir/__/__/mesh/core/src/core_tx_adv.c.obj
                0x00000000000420e0                core_tx_adv_count_get
 .text.core_tx_adv_interval_set
                0x0000000000042100       0x28 CMakeFiles/dfu_nrf52840_xxAA_s140_6.0.0.dir/__/__/mesh/core/src/core_tx_adv.c.obj
                0x0000000000042100                core_tx_adv_interval_set
 .text.core_tx_adv_interval_get
                0x0000000000042128       0x2c CMakeFiles/dfu_nrf52840_xxAA_s140_6.0.0.dir/__/__/mesh/core/src/core_tx_adv.c.obj
                0x0000000000042128                core_tx_adv_interval_get
 .text.ad_listener_subscribe
                0x0000000000042154       0x60 CMakeFiles/dfu_nrf52840_xxAA_s140_6.0.0.dir/__/__/mesh/bearer/src/ad_listener.c.obj
                0x0000000000042154                ad_listener_subscribe
 .text.ad_listener_process
                0x00000000000421b4       0x84 CMakeFiles/dfu_nrf52840_xxAA_s140_6.0.0.dir/__/__/mesh/bearer/src/ad_listener.c.obj
                0x00000000000421b4                ad_listener_process
 .text.adtype_filter_handle
                0x0000000000042238       0x94 CMakeFiles/dfu_nrf52840_xxAA_s140_6.0.0.dir/__/__/mesh/bearer/src/ad_type_filter.c.obj
 .text.bearer_adtype_filtering_set
                0x00000000000422cc       0x1c CMakeFiles/dfu_nrf52840_xxAA_s140_6.0.0.dir/__/__/mesh/bearer/src/ad_type_filter.c.obj
                0x00000000000422cc                bearer_adtype_filtering_set
 .text.bearer_adtype_add
                0x00000000000422e8       0x24 CMakeFiles/dfu_nrf52840_xxAA_s140_6.0.0.dir/__/__/mesh/bearer/src/ad_type_filter.c.obj
                0x00000000000422e8                bearer_adtype_add
 .text.bearer_adtype_mode_set
                0x000000000004230c       0x18 CMakeFiles/dfu_nrf52840_xxAA_s140_6.0.0.dir/__/__/mesh/bearer/src/ad_type_filter.c.obj
                0x000000000004230c                bearer_adtype_mode_set
 .text.tx_complete_event_callback
                0x0000000000042324       0x34 CMakeFiles/dfu_nrf52840_xxAA_s140_6.0.0.dir/__/__/mesh/bearer/src/advertiser.c.obj
 .text.broadcast_complete_cb
                0x0000000000042358       0x48 CMakeFiles/dfu_nrf52840_xxAA_s140_6.0.0.dir/__/__/mesh/bearer/src/advertiser.c.obj
 .text.timeout_event
                0x00000000000423a0      0x12c CMakeFiles/dfu_nrf52840_xxAA_s140_6.0.0.dir/__/__/mesh/bearer/src/advertiser.c.obj
 .text.advertiser_init
                0x00000000000424cc        0xc CMakeFiles/dfu_nrf52840_xxAA_s140_6.0.0.dir/__/__/mesh/bearer/src/advertiser.c.obj
                0x00000000000424cc                advertiser_init
 .text.advertiser_instance_init
                0x00000000000424d8      0x100 CMakeFiles/dfu_nrf52840_xxAA_s140_6.0.0.dir/__/__/mesh/bearer/src/advertiser.c.obj
                0x00000000000424d8                advertiser_instance_init
 .text.advertiser_enable
                0x00000000000425d8       0x44 CMakeFiles/dfu_nrf52840_xxAA_s140_6.0.0.dir/__/__/mesh/bearer/src/advertiser.c.obj
                0x00000000000425d8                advertiser_enable
 .text.advertiser_packet_alloc
                0x000000000004261c       0x80 CMakeFiles/dfu_nrf52840_xxAA_s140_6.0.0.dir/__/__/mesh/bearer/src/advertiser.c.obj
                0x000000000004261c                advertiser_packet_alloc
 .text.advertiser_packet_send
                0x000000000004269c       0x84 CMakeFiles/dfu_nrf52840_xxAA_s140_6.0.0.dir/__/__/mesh/bearer/src/advertiser.c.obj
                0x000000000004269c                advertiser_packet_send
 .text.advertiser_packet_discard
                0x0000000000042720       0x2c CMakeFiles/dfu_nrf52840_xxAA_s140_6.0.0.dir/__/__/mesh/bearer/src/advertiser.c.obj
                0x0000000000042720                advertiser_packet_discard
 .text.advertiser_channels_set
                0x000000000004274c       0x98 CMakeFiles/dfu_nrf52840_xxAA_s140_6.0.0.dir/__/__/mesh/bearer/src/advertiser.c.obj
                0x000000000004274c                advertiser_channels_set
 .text.advertiser_interval_set
                0x00000000000427e4       0x6c CMakeFiles/dfu_nrf52840_xxAA_s140_6.0.0.dir/__/__/mesh/bearer/src/advertiser.c.obj
                0x00000000000427e4                advertiser_interval_set
 .text.advertiser_flush
                0x0000000000042850       0x20 CMakeFiles/dfu_nrf52840_xxAA_s140_6.0.0.dir/__/__/mesh/bearer/src/advertiser.c.obj
                0x0000000000042850                advertiser_flush
 .text.advertiser_address_default_get
                0x0000000000042870       0x5c CMakeFiles/dfu_nrf52840_xxAA_s140_6.0.0.dir/__/__/mesh/bearer/src/advertiser.c.obj
                0x0000000000042870                advertiser_address_default_get
 .text.action_switch.part.2
                0x00000000000428cc       0xb4 CMakeFiles/dfu_nrf52840_xxAA_s140_6.0.0.dir/__/__/mesh/bearer/src/bearer_handler.c.obj
 .text.bearer_handler_init
                0x0000000000042980       0x2c CMakeFiles/dfu_nrf52840_xxAA_s140_6.0.0.dir/__/__/mesh/bearer/src/bearer_handler.c.obj
                0x0000000000042980                bearer_handler_init
 .text.bearer_handler_start
                0x00000000000429ac       0x1c CMakeFiles/dfu_nrf52840_xxAA_s140_6.0.0.dir/__/__/mesh/bearer/src/bearer_handler.c.obj
                0x00000000000429ac                bearer_handler_start
 .text.bearer_handler_stop
                0x00000000000429c8       0x20 CMakeFiles/dfu_nrf52840_xxAA_s140_6.0.0.dir/__/__/mesh/bearer/src/bearer_handler.c.obj
                0x00000000000429c8                bearer_handler_stop
 .text.bearer_handler_action_enqueue
                0x00000000000429e8       0x88 CMakeFiles/dfu_nrf52840_xxAA_s140_6.0.0.dir/__/__/mesh/bearer/src/bearer_handler.c.obj
                0x00000000000429e8                bearer_handler_action_enqueue
 .text.bearer_handler_action_end
                0x0000000000042a70       0x68 CMakeFiles/dfu_nrf52840_xxAA_s140_6.0.0.dir/__/__/mesh/bearer/src/bearer_handler.c.obj
                0x0000000000042a70                bearer_handler_action_end
 .text.bearer_handler_radio_irq_handler
                0x0000000000042ad8       0x58 CMakeFiles/dfu_nrf52840_xxAA_s140_6.0.0.dir/__/__/mesh/bearer/src/bearer_handler.c.obj
                0x0000000000042ad8                bearer_handler_radio_irq_handler
 .text.bearer_handler_timer_irq_handler
                0x0000000000042b30       0x34 CMakeFiles/dfu_nrf52840_xxAA_s140_6.0.0.dir/__/__/mesh/bearer/src/bearer_handler.c.obj
                0x0000000000042b30                bearer_handler_timer_irq_handler
 .text.bearer_handler_on_ts_begin
                0x0000000000042b64       0x3c CMakeFiles/dfu_nrf52840_xxAA_s140_6.0.0.dir/__/__/mesh/bearer/src/bearer_handler.c.obj
                0x0000000000042b64                bearer_handler_on_ts_begin
 .text.bearer_handler_on_ts_end
                0x0000000000042ba0       0x38 CMakeFiles/dfu_nrf52840_xxAA_s140_6.0.0.dir/__/__/mesh/bearer/src/bearer_handler.c.obj
                0x0000000000042ba0                bearer_handler_on_ts_end
 .text.radio_irq_handler
                0x0000000000042bd8       0x98 CMakeFiles/dfu_nrf52840_xxAA_s140_6.0.0.dir/__/__/mesh/bearer/src/broadcast.c.obj
 .text.broadcast_start
                0x0000000000042c70       0x8c CMakeFiles/dfu_nrf52840_xxAA_s140_6.0.0.dir/__/__/mesh/bearer/src/broadcast.c.obj
 .text.broadcast_send
                0x0000000000042cfc       0x74 CMakeFiles/dfu_nrf52840_xxAA_s140_6.0.0.dir/__/__/mesh/bearer/src/broadcast.c.obj
                0x0000000000042cfc                broadcast_send
 .text.fen_filter_start
                0x0000000000042d70       0x38 CMakeFiles/dfu_nrf52840_xxAA_s140_6.0.0.dir/__/__/mesh/bearer/src/filter_engine.c.obj
                0x0000000000042d70                fen_filter_start
 .text.fen_filter_stop
                0x0000000000042da8       0x2c CMakeFiles/dfu_nrf52840_xxAA_s140_6.0.0.dir/__/__/mesh/bearer/src/filter_engine.c.obj
                0x0000000000042da8                fen_filter_stop
 .text.fen_filters_apply
                0x0000000000042dd4       0x34 CMakeFiles/dfu_nrf52840_xxAA_s140_6.0.0.dir/__/__/mesh/bearer/src/filter_engine.c.obj
                0x0000000000042dd4                fen_filters_apply
 .text.radio_config_reset
                0x0000000000042e08       0x38 CMakeFiles/dfu_nrf52840_xxAA_s140_6.0.0.dir/__/__/mesh/bearer/src/radio_config.c.obj
                0x0000000000042e08                radio_config_reset
 .text.radio_config_channel_set
                0x0000000000042e40       0x28 CMakeFiles/dfu_nrf52840_xxAA_s140_6.0.0.dir/__/__/mesh/bearer/src/radio_config.c.obj
                0x0000000000042e40                radio_config_channel_set
 .text.radio_config_config
                0x0000000000042e68       0x94 CMakeFiles/dfu_nrf52840_xxAA_s140_6.0.0.dir/__/__/mesh/bearer/src/radio_config.c.obj
                0x0000000000042e68                radio_config_config
 .text.radio_config_access_addr_set
                0x0000000000042efc       0x58 CMakeFiles/dfu_nrf52840_xxAA_s140_6.0.0.dir/__/__/mesh/bearer/src/radio_config.c.obj
                0x0000000000042efc                radio_config_access_addr_set
 .text.scan_window_end
                0x0000000000042f54       0x28 CMakeFiles/dfu_nrf52840_xxAA_s140_6.0.0.dir/__/__/mesh/bearer/src/scanner.c.obj
 .text.scan_window_start
                0x0000000000042f7c       0x38 CMakeFiles/dfu_nrf52840_xxAA_s140_6.0.0.dir/__/__/mesh/bearer/src/scanner.c.obj
 .text.radio_start
                0x0000000000042fb4      0x1a8 CMakeFiles/dfu_nrf52840_xxAA_s140_6.0.0.dir/__/__/mesh/bearer/src/scanner.c.obj
 .text.scanner_radio_start
                0x000000000004315c      0x14c CMakeFiles/dfu_nrf52840_xxAA_s140_6.0.0.dir/__/__/mesh/bearer/src/scanner.c.obj
                0x000000000004315c                scanner_radio_start
 .text.scanner_radio_stop
                0x00000000000432a8       0x34 CMakeFiles/dfu_nrf52840_xxAA_s140_6.0.0.dir/__/__/mesh/bearer/src/scanner.c.obj
                0x00000000000432a8                scanner_radio_stop
 .text.scanner_radio_irq_handler
                0x00000000000432dc      0x200 CMakeFiles/dfu_nrf52840_xxAA_s140_6.0.0.dir/__/__/mesh/bearer/src/scanner.c.obj
                0x00000000000432dc                scanner_radio_irq_handler
 .text.scanner_enable
                0x00000000000434dc       0x50 CMakeFiles/dfu_nrf52840_xxAA_s140_6.0.0.dir/__/__/mesh/bearer/src/scanner.c.obj
                0x00000000000434dc                scanner_enable
 .text.scanner_disable
                0x000000000004352c       0x50 CMakeFiles/dfu_nrf52840_xxAA_s140_6.0.0.dir/__/__/mesh/bearer/src/scanner.c.obj
                0x000000000004352c                scanner_disable
 .text.scanner_rx
                0x000000000004357c       0x8c CMakeFiles/dfu_nrf52840_xxAA_s140_6.0.0.dir/__/__/mesh/bearer/src/scanner.c.obj
                0x000000000004357c                scanner_rx
 .text.scanner_packet_release
                0x0000000000043608       0x40 CMakeFiles/dfu_nrf52840_xxAA_s140_6.0.0.dir/__/__/mesh/bearer/src/scanner.c.obj
                0x0000000000043608                scanner_packet_release
 .text.scanner_rx_pending
                0x0000000000043648        0xc CMakeFiles/dfu_nrf52840_xxAA_s140_6.0.0.dir/__/__/mesh/bearer/src/scanner.c.obj
                0x0000000000043648                scanner_rx_pending
 .text.scanner_config_reset
                0x0000000000043654       0xa4 CMakeFiles/dfu_nrf52840_xxAA_s140_6.0.0.dir/__/__/mesh/bearer/src/scanner.c.obj
                0x0000000000043654                scanner_config_reset
 .text.scanner_init
                0x00000000000436f8       0x54 CMakeFiles/dfu_nrf52840_xxAA_s140_6.0.0.dir/__/__/mesh/bearer/src/scanner.c.obj
                0x00000000000436f8                scanner_init
 .text.SystemInit
                0x000000000004374c      0x1c4 CMakeFiles/dfu_nrf52840_xxAA_s140_6.0.0.dir/home/mazzer/work/nordic/sdk/nRF5_SDK_15.0.0/modules/nrfx/mdk/system_nrf52840.c.obj
                0x000000000004374c                SystemInit
 .text          0x0000000000043910       0x3c CMakeFiles/dfu_nrf52840_xxAA_s140_6.0.0.dir/home/mazzer/work/nordic/sdk/nRF5_SDK_15.0.0/modules/nrfx/mdk/gcc_startup_nrf52840.S.obj
                0x0000000000043910                Reset_Handler
                0x0000000000043938                NMI_Handler
                0x000000000004393a                HardFault_Handler
                0x000000000004393c                MemoryManagement_Handler
                0x000000000004393e                BusFault_Handler
                0x0000000000043940                UsageFault_Handler
                0x0000000000043942                SVC_Handler
                0x0000000000043944                DebugMon_Handler
                0x0000000000043946                PendSV_Handler
                0x0000000000043948                SysTick_Handler
                0x000000000004394a                TIMER2_IRQHandler
                0x000000000004394a                RTC0_IRQHandler
                0x000000000004394a                SWI0_EGU0_IRQHandler
                0x000000000004394a                PWM1_IRQHandler
                0x000000000004394a                POWER_CLOCK_IRQHandler
                0x000000000004394a                RADIO_IRQHandler
                0x000000000004394a                PDM_IRQHandler
                0x000000000004394a                TEMP_IRQHandler
                0x000000000004394a                TIMER3_IRQHandler
                0x000000000004394a                PWM3_IRQHandler
                0x000000000004394a                FPU_IRQHandler
                0x000000000004394a                USBD_IRQHandler
                0x000000000004394a                SPIM0_SPIS0_TWIM0_TWIS0_SPI0_TWI0_IRQHandler
                0x000000000004394a                TIMER4_IRQHandler
                0x000000000004394a                CRYPTOCELL_IRQHandler
                0x000000000004394a                I2S_IRQHandler
                0x000000000004394a                SWI4_EGU4_IRQHandler
                0x000000000004394a                TIMER0_IRQHandler
                0x000000000004394a                UARTE1_IRQHandler
                0x000000000004394a                TIMER1_IRQHandler
                0x000000000004394a                SPIM3_IRQHandler
                0x000000000004394a                PWM2_IRQHandler
                0x000000000004394a                ECB_IRQHandler
                0x000000000004394a                SPIM1_SPIS1_TWIM1_TWIS1_SPI1_TWI1_IRQHandler
                0x000000000004394a                Default_Handler
                0x000000000004394a                SAADC_IRQHandler
                0x000000000004394a                CCM_AAR_IRQHandler
                0x000000000004394a                WDT_IRQHandler
                0x000000000004394a                SWI5_EGU5_IRQHandler
                0x000000000004394a                RNG_IRQHandler
                0x000000000004394a                RTC2_IRQHandler
                0x000000000004394a                PWM0_IRQHandler
                0x000000000004394a                SWI3_EGU3_IRQHandler
                0x000000000004394a                RTC1_IRQHandler
                0x000000000004394a                SWI1_EGU1_IRQHandler
                0x000000000004394a                SPIM2_SPIS2_SPI2_IRQHandler
                0x000000000004394a                NFCT_IRQHandler
                0x000000000004394a                MWU_IRQHandler
                0x000000000004394a                QSPI_IRQHandler
                0x000000000004394a                COMP_LPCOMP_IRQHandler
 .text.app_error_handler_bare
                0x000000000004394c       0x20 CMakeFiles/dfu_nrf52840_xxAA_s140_6.0.0.dir/home/mazzer/work/nordic/sdk/nRF5_SDK_15.0.0/components/libraries/util/app_error.c.obj
                0x000000000004394c                app_error_handler_bare
 .text.app_error_handler
                0x000000000004396c       0x1c CMakeFiles/dfu_nrf52840_xxAA_s140_6.0.0.dir/home/mazzer/work/nordic/sdk/nRF5_SDK_15.0.0/components/libraries/util/app_error_handler_gcc.c.obj
                0x000000000004396c                app_error_handler
 .text.SEGGER_RTT_Write
                0x0000000000043988      0x1f4 ../../external/rtt/librtt_nrf52840_xxAA.a(SEGGER_RTT.c.obj)
                0x0000000000043988                SEGGER_RTT_Write
 .text._PrintUnsigned
                0x0000000000043b7c      0x17c ../../external/rtt/librtt_nrf52840_xxAA.a(SEGGER_RTT_printf.c.obj)
 .text.SEGGER_RTT_vprintf
                0x0000000000043cf8      0x524 ../../external/rtt/librtt_nrf52840_xxAA.a(SEGGER_RTT_printf.c.obj)
                0x0000000000043cf8                SEGGER_RTT_vprintf
 .text.SEGGER_RTT_printf
                0x000000000004421c       0x20 ../../external/rtt/librtt_nrf52840_xxAA.a(SEGGER_RTT_printf.c.obj)
                0x000000000004421c                SEGGER_RTT_printf
 .text.default_RNG
                0x000000000004423c        0xc ../../external/micro-ecc/libuECC_nrf52840_xxAA.a(uECC.c.obj)
 .text.uECC_generate_random_int
                0x0000000000044248      0x17c ../../external/micro-ecc/libuECC_nrf52840_xxAA.a(uECC.c.obj)
 .text.apply_z  0x00000000000443c4      0x1a8 ../../external/micro-ecc/libuECC_nrf52840_xxAA.a(uECC.c.obj)
 .text.uECC_vli_modAdd
                0x000000000004456c       0xd8 ../../external/micro-ecc/libuECC_nrf52840_xxAA.a(uECC.c.obj)
 .text.x_side_default
                0x0000000000044644      0x26c ../../external/micro-ecc/libuECC_nrf52840_xxAA.a(uECC.c.obj)
 .text.vli_mmod_fast_secp256r1
                0x00000000000448b0      0x514 ../../external/micro-ecc/libuECC_nrf52840_xxAA.a(uECC.c.obj)
 .text.XYcZ_add
                0x0000000000044dc4      0x6e0 ../../external/micro-ecc/libuECC_nrf52840_xxAA.a(uECC.c.obj)
 .text.XYcZ_addC
                0x00000000000454a4      0xabc ../../external/micro-ecc/libuECC_nrf52840_xxAA.a(uECC.c.obj)
 .text.uECC_vli_modInv.part.4
                0x0000000000045f60      0x71c ../../external/micro-ecc/libuECC_nrf52840_xxAA.a(uECC.c.obj)
 .text.EccPoint_mult
                0x000000000004667c      0x4a4 ../../external/micro-ecc/libuECC_nrf52840_xxAA.a(uECC.c.obj)
 .text.double_jacobian_default
                0x0000000000046b20      0x814 ../../external/micro-ecc/libuECC_nrf52840_xxAA.a(uECC.c.obj)
 .text.uECC_secp256r1
                0x0000000000047334        0x8 ../../external/micro-ecc/libuECC_nrf52840_xxAA.a(uECC.c.obj)
                0x0000000000047334                uECC_secp256r1
 .text.uECC_make_key
                0x000000000004733c      0x240 ../../external/micro-ecc/libuECC_nrf52840_xxAA.a(uECC.c.obj)
                0x000000000004733c                uECC_make_key
 .text.uECC_shared_secret
                0x000000000004757c      0x314 ../../external/micro-ecc/libuECC_nrf52840_xxAA.a(uECC.c.obj)
                0x000000000004757c                uECC_shared_secret
 .text.uECC_valid_public_key
                0x0000000000047890      0x230 ../../external/micro-ecc/libuECC_nrf52840_xxAA.a(uECC.c.obj)
                0x0000000000047890                uECC_valid_public_key
 .text.exit     0x0000000000047ac0       0x28 /usr/bin/../lib/gcc/arm-none-eabi/7.2.1/../../../../arm-none-eabi/lib/thumb/v7e-m/fpv4-sp/hard/libg_nano.a(lib_a-exit.o)
                0x0000000000047ac0                exit
 .text.__libc_init_array
                0x0000000000047ae8       0x48 /usr/bin/../lib/gcc/arm-none-eabi/7.2.1/../../../../arm-none-eabi/lib/thumb/v7e-m/fpv4-sp/hard/libg_nano.a(lib_a-init.o)
                0x0000000000047ae8                __libc_init_array
 .text.malloc   0x0000000000047b30       0x10 /usr/bin/../lib/gcc/arm-none-eabi/7.2.1/../../../../arm-none-eabi/lib/thumb/v7e-m/fpv4-sp/hard/libg_nano.a(lib_a-malloc.o)
                0x0000000000047b30                malloc
 .text.free     0x0000000000047b40       0x10 /usr/bin/../lib/gcc/arm-none-eabi/7.2.1/../../../../arm-none-eabi/lib/thumb/v7e-m/fpv4-sp/hard/libg_nano.a(lib_a-malloc.o)
                0x0000000000047b40                free
 .text.memcmp   0x0000000000047b50       0x1e /usr/bin/../lib/gcc/arm-none-eabi/7.2.1/../../../../arm-none-eabi/lib/thumb/v7e-m/fpv4-sp/hard/libg_nano.a(lib_a-memcmp.o)
                0x0000000000047b50                memcmp
 .text.memcpy   0x0000000000047b6e       0x16 /usr/bin/../lib/gcc/arm-none-eabi/7.2.1/../../../../arm-none-eabi/lib/thumb/v7e-m/fpv4-sp/hard/libg_nano.a(lib_a-memcpy-stub.o)
                0x0000000000047b6e                memcpy
 .text.memset   0x0000000000047b84       0x10 /usr/bin/../lib/gcc/arm-none-eabi/7.2.1/../../../../arm-none-eabi/lib/thumb/v7e-m/fpv4-sp/hard/libg_nano.a(lib_a-memset.o)
                0x0000000000047b84                memset
 .text._free_r  0x0000000000047b94       0x9c /usr/bin/../lib/gcc/arm-none-eabi/7.2.1/../../../../arm-none-eabi/lib/thumb/v7e-m/fpv4-sp/hard/libg_nano.a(lib_a-nano-freer.o)
                0x0000000000047b94                _free_r
 .text._malloc_r
                0x0000000000047c30       0xb4 /usr/bin/../lib/gcc/arm-none-eabi/7.2.1/../../../../arm-none-eabi/lib/thumb/v7e-m/fpv4-sp/hard/libg_nano.a(lib_a-nano-mallocr.o)
                0x0000000000047c30                _malloc_r
 .text._sbrk_r  0x0000000000047ce4       0x20 /usr/bin/../lib/gcc/arm-none-eabi/7.2.1/../../../../arm-none-eabi/lib/thumb/v7e-m/fpv4-sp/hard/libg_nano.a(lib_a-sbrkr.o)
                0x0000000000047ce4                _sbrk_r
 .text.strcpy   0x0000000000047d04       0x10 /usr/bin/../lib/gcc/arm-none-eabi/7.2.1/../../../../arm-none-eabi/lib/thumb/v7e-m/fpv4-sp/hard/libg_nano.a(lib_a-strcpy.o)
                0x0000000000047d04                strcpy
 .text          0x0000000000047d14       0x10 /usr/bin/../lib/gcc/arm-none-eabi/7.2.1/../../../../arm-none-eabi/lib/thumb/v7e-m/fpv4-sp/hard/libg_nano.a(lib_a-strlen.o)
                0x0000000000047d14                strlen
 .text.strrchr  0x0000000000047d24       0x28 /usr/bin/../lib/gcc/arm-none-eabi/7.2.1/../../../../arm-none-eabi/lib/thumb/v7e-m/fpv4-sp/hard/libg_nano.a(lib_a-strrchr.o)
                0x0000000000047d24                strrchr
 .text.__malloc_lock
                0x0000000000047d4c        0x2 /usr/bin/../lib/gcc/arm-none-eabi/7.2.1/../../../../arm-none-eabi/lib/thumb/v7e-m/fpv4-sp/hard/libg_nano.a(lib_a-mlock.o)
                0x0000000000047d4c                __malloc_lock
 .text.__malloc_unlock
                0x0000000000047d4e        0x2 /usr/bin/../lib/gcc/arm-none-eabi/7.2.1/../../../../arm-none-eabi/lib/thumb/v7e-m/fpv4-sp/hard/libg_nano.a(lib_a-mlock.o)
                0x0000000000047d4e                __malloc_unlock
 .text.strchr   0x0000000000047d50       0x1a /usr/bin/../lib/gcc/arm-none-eabi/7.2.1/../../../../arm-none-eabi/lib/thumb/v7e-m/fpv4-sp/hard/libg_nano.a(lib_a-strchr.o)
                0x0000000000047d50                strchr
 *fill*         0x0000000000047d6a        0x2 
 .text._sbrk    0x0000000000047d6c       0x1c /usr/bin/../lib/gcc/arm-none-eabi/7.2.1/../../../../arm-none-eabi/lib/thumb/v7e-m/fpv4-sp/hard/libnosys.a(sbrk.o)
                0x0000000000047d6c                _sbrk
 .text._exit    0x0000000000047d88        0x4 /usr/bin/../lib/gcc/arm-none-eabi/7.2.1/../../../../arm-none-eabi/lib/thumb/v7e-m/fpv4-sp/hard/libnosys.a(_exit.o)
                0x0000000000047d88                _exit
 *(.init)
 .init          0x0000000000047d8c        0x4 /usr/bin/../lib/gcc/arm-none-eabi/7.2.1/thumb/v7e-m/fpv4-sp/hard/crti.o
                0x0000000000047d8c                _init
 .init          0x0000000000047d90        0x8 /usr/bin/../lib/gcc/arm-none-eabi/7.2.1/thumb/v7e-m/fpv4-sp/hard/crtn.o
 *(.fini)
 .fini          0x0000000000047d98        0x4 /usr/bin/../lib/gcc/arm-none-eabi/7.2.1/thumb/v7e-m/fpv4-sp/hard/crti.o
                0x0000000000047d98                _fini
 .fini          0x0000000000047d9c        0x8 /usr/bin/../lib/gcc/arm-none-eabi/7.2.1/thumb/v7e-m/fpv4-sp/hard/crtn.o
 *crtbegin.o(.ctors)
 *crtbegin?.o(.ctors)
 *(EXCLUDE_FILE(*crtend.o *crtend?.o) .ctors)
 *(SORT_BY_NAME(.ctors.*))
 *(.ctors)
 *crtbegin.o(.dtors)
 *crtbegin?.o(.dtors)
 *(EXCLUDE_FILE(*crtend.o *crtend?.o) .dtors)
 *(SORT_BY_NAME(.dtors.*))
 *(.dtors)
 *(.rodata*)
 .rodata.config_server_evt_cb.str1.4
                0x0000000000047da4       0x6d CMakeFiles/dfu_nrf52840_xxAA_s140_6.0.0.dir/src/main.c.obj
 *fill*         0x0000000000047e11        0x3 
 .rodata.main.str1.4
                0x0000000000047e14       0xba CMakeFiles/dfu_nrf52840_xxAA_s140_6.0.0.dir/src/main.c.obj
 *fill*         0x0000000000047ece        0x2 
 .rodata.static_auth_data.13062
                0x0000000000047ed0       0x10 CMakeFiles/dfu_nrf52840_xxAA_s140_6.0.0.dir/src/main.c.obj
 .rodata.mesh_softdevice_init.str1.4
                0x0000000000047ee0       0xe1 CMakeFiles/dfu_nrf52840_xxAA_s140_6.0.0.dir/__/common/src/mesh_softdevice_init.c.obj
 *fill*         0x0000000000047fc1        0x3 
 .rodata        0x0000000000047fc4        0xb CMakeFiles/dfu_nrf52840_xxAA_s140_6.0.0.dir/__/common/src/mesh_provisionee.c.obj
 *fill*         0x0000000000047fcf        0x1 
 .rodata.delay_bytecode.8881
                0x0000000000047fd0        0x6 CMakeFiles/dfu_nrf52840_xxAA_s140_6.0.0.dir/__/common/src/simple_hal.c.obj
 *fill*         0x0000000000047fd6        0x2 
 .rodata.m_buttons_list
                0x0000000000047fd8        0x4 CMakeFiles/dfu_nrf52840_xxAA_s140_6.0.0.dir/__/common/src/simple_hal.c.obj
 .rodata.access_model_publish.str1.4
                0x0000000000047fdc       0x24 CMakeFiles/dfu_nrf52840_xxAA_s140_6.0.0.dir/__/__/mesh/access/src/access.c.obj
 .rodata.mesh_evt_cb.str1.4
                0x0000000000048000       0x67 CMakeFiles/dfu_nrf52840_xxAA_s140_6.0.0.dir/__/__/mesh/access/src/access.c.obj
 *fill*         0x0000000000048067        0x1 
 .rodata.multiply_de_bruijn_bit_position.9714
                0x0000000000048068       0x20 CMakeFiles/dfu_nrf52840_xxAA_s140_6.0.0.dir/__/__/mesh/access/src/access.c.obj
 .rodata.m_flash_groups
                0x0000000000048088       0xa8 CMakeFiles/dfu_nrf52840_xxAA_s140_6.0.0.dir/__/__/mesh/access/src/device_state_manager.c.obj
 .rodata.multiply_de_bruijn_bit_position.9820
                0x0000000000048130       0x20 CMakeFiles/dfu_nrf52840_xxAA_s140_6.0.0.dir/__/__/mesh/access/src/device_state_manager.c.obj
 .rodata.m_cmd_handlers
                0x0000000000048150       0xb0 CMakeFiles/dfu_nrf52840_xxAA_s140_6.0.0.dir/__/__/mesh/serial/src/serial_handler_access.c.obj
 .rodata.serial_process_cmd.str1.4
                0x0000000000048200       0xa2 CMakeFiles/dfu_nrf52840_xxAA_s140_6.0.0.dir/__/__/mesh/serial/src/serial.c.obj
 *fill*         0x00000000000482a2        0x2 
 .rodata.serial_start.str1.4
                0x00000000000482a4       0x11 CMakeFiles/dfu_nrf52840_xxAA_s140_6.0.0.dir/__/__/mesh/serial/src/serial.c.obj
 *fill*         0x00000000000482b5        0x3 
 .rodata.serial_handler_prov_init.str1.4
                0x00000000000482b8       0x82 CMakeFiles/dfu_nrf52840_xxAA_s140_6.0.0.dir/__/__/mesh/serial/src/serial_handler_prov.c.obj
 *fill*         0x000000000004833a        0x2 
 .rodata.lengths.11768
                0x000000000004833c        0x7 CMakeFiles/dfu_nrf52840_xxAA_s140_6.0.0.dir/__/__/mesh/serial/src/serial_handler_dfu.c.obj
 *fill*         0x0000000000048343        0x1 
 .rodata.m_handlers
                0x0000000000048344       0xe8 CMakeFiles/dfu_nrf52840_xxAA_s140_6.0.0.dir/__/__/mesh/serial/src/serial_handler_mesh.c.obj
 .rodata.m_cmd_handlers
                0x000000000004842c       0x18 CMakeFiles/dfu_nrf52840_xxAA_s140_6.0.0.dir/__/__/mesh/serial/src/serial_handler_models.c.obj
 .rodata.m_cmd_handlers
                0x0000000000048444       0x48 CMakeFiles/dfu_nrf52840_xxAA_s140_6.0.0.dir/__/__/mesh/serial/src/serial_handler_device.c.obj
 .rodata        0x000000000004848c        0x8 CMakeFiles/dfu_nrf52840_xxAA_s140_6.0.0.dir/__/__/models/config/src/config_server.c.obj
 .rodata.CSWTCH.178
                0x0000000000048494       0x10 CMakeFiles/dfu_nrf52840_xxAA_s140_6.0.0.dir/__/__/models/config/src/config_server.c.obj
 .rodata.opcode_handlers
                0x00000000000484a4      0x170 CMakeFiles/dfu_nrf52840_xxAA_s140_6.0.0.dir/__/__/models/config/src/config_server.c.obj
 .rodata.m_opcode_handlers
                0x0000000000048614       0x58 CMakeFiles/dfu_nrf52840_xxAA_s140_6.0.0.dir/__/__/models/health/src/health_server.c.obj
 .rodata.multiply_de_bruijn_bit_position.9758
                0x000000000004866c       0x20 CMakeFiles/dfu_nrf52840_xxAA_s140_6.0.0.dir/__/__/models/health/src/health_server.c.obj
 .rodata.m_prov_callbacks
                0x000000000004868c       0x10 CMakeFiles/dfu_nrf52840_xxAA_s140_6.0.0.dir/__/__/mesh/prov/src/prov_provisioner.c.obj
 .rodata.m_prov_callbacks
                0x000000000004869c       0x10 CMakeFiles/dfu_nrf52840_xxAA_s140_6.0.0.dir/__/__/mesh/prov/src/prov_provisionee.c.obj
 .rodata.prov_provisionee_cb_ack_received.str1.4
                0x00000000000486ac       0x8b CMakeFiles/dfu_nrf52840_xxAA_s140_6.0.0.dir/__/__/mesh/prov/src/prov_provisionee.c.obj
 *fill*         0x0000000000048737        0x1 
 .rodata.multiply_de_bruijn_bit_position.9767
                0x0000000000048738       0x20 CMakeFiles/dfu_nrf52840_xxAA_s140_6.0.0.dir/__/__/mesh/prov/src/nrf_mesh_prov.c.obj
 .rodata.pdu_sizes.11728
                0x0000000000048758        0xa CMakeFiles/dfu_nrf52840_xxAA_s140_6.0.0.dir/__/__/mesh/prov/src/provisioning.c.obj
 *fill*         0x0000000000048762        0x2 
 .rodata.alphanumeric.11833
                0x0000000000048764       0x25 CMakeFiles/dfu_nrf52840_xxAA_s140_6.0.0.dir/__/__/mesh/prov/src/prov_utils.c.obj
 *fill*         0x0000000000048789        0x3 
 .rodata.numeric_max.11827
                0x000000000004878c       0x24 CMakeFiles/dfu_nrf52840_xxAA_s140_6.0.0.dir/__/__/mesh/prov/src/prov_utils.c.obj
 .rodata.prov_utils_authentication_values_derive.str1.4
                0x00000000000487b0        0x5 CMakeFiles/dfu_nrf52840_xxAA_s140_6.0.0.dir/__/__/mesh/prov/src/prov_utils.c.obj
 *fill*         0x00000000000487b5        0x3 
 .rodata.prov_utils_derive_keys.str1.4
                0x00000000000487b8       0x15 CMakeFiles/dfu_nrf52840_xxAA_s140_6.0.0.dir/__/__/mesh/prov/src/prov_utils.c.obj
 *fill*         0x00000000000487cd        0x3 
 .rodata.crctable.11462
                0x00000000000487d0      0x100 CMakeFiles/dfu_nrf52840_xxAA_s140_6.0.0.dir/__/__/mesh/prov/src/prov_bearer_adv.c.obj
 .rodata.interface.11692
                0x00000000000488d0       0x14 CMakeFiles/dfu_nrf52840_xxAA_s140_6.0.0.dir/__/__/mesh/prov/src/prov_bearer_adv.c.obj
 .rodata.prov_bearer_adv_listen.str1.4
                0x00000000000488e4       0x88 CMakeFiles/dfu_nrf52840_xxAA_s140_6.0.0.dir/__/__/mesh/prov/src/prov_bearer_adv.c.obj
 .rodata.prov_bearer_adv_packet_in.str1.4
                0x000000000004896c      0x283 CMakeFiles/dfu_nrf52840_xxAA_s140_6.0.0.dir/__/__/mesh/prov/src/prov_bearer_adv.c.obj
 *fill*         0x0000000000048bef        0x1 
 .rodata.tx_retry_cb.str1.4
                0x0000000000048bf0       0x14 CMakeFiles/dfu_nrf52840_xxAA_s140_6.0.0.dir/__/__/mesh/prov/src/prov_bearer_adv.c.obj
 .rodata.abort_timeout.str1.4
                0x0000000000048c04       0x8c CMakeFiles/dfu_nrf52840_xxAA_s140_6.0.0.dir/__/__/mesh/dfu/src/nrf_mesh_dfu.c.obj
 .rodata.dfu_evt_handler.str1.4
                0x0000000000048c90      0x174 CMakeFiles/dfu_nrf52840_xxAA_s140_6.0.0.dir/__/__/mesh/dfu/src/nrf_mesh_dfu.c.obj
 .rodata.flash_op_complete.str1.4
                0x0000000000048e04       0x3d CMakeFiles/dfu_nrf52840_xxAA_s140_6.0.0.dir/__/__/mesh/dfu/src/nrf_mesh_dfu.c.obj
 *fill*         0x0000000000048e41        0x3 
 .rodata.m_adv_channels
                0x0000000000048e44        0x3 CMakeFiles/dfu_nrf52840_xxAA_s140_6.0.0.dir/__/__/mesh/dfu/src/nrf_mesh_dfu.c.obj
 *fill*         0x0000000000048e47        0x1 
 .rodata.timer_timeout.str1.4
                0x0000000000048e48       0x13 CMakeFiles/dfu_nrf52840_xxAA_s140_6.0.0.dir/__/__/mesh/dfu/src/nrf_mesh_dfu.c.obj
 *fill*         0x0000000000048e5b        0x1 
 .rodata.app_error_fault_handler.str1.4
                0x0000000000048e5c       0xfd CMakeFiles/dfu_nrf52840_xxAA_s140_6.0.0.dir/__/common/src/app_error_weak.c.obj
 .rodata.mesh_assertion_handler.str1.4
                0x0000000000048f59       0xfd CMakeFiles/dfu_nrf52840_xxAA_s140_6.0.0.dir/__/common/src/assertion_handler_weak.c.obj
                                          0x1 (size before relaxing)
 *fill*         0x0000000000048f59        0x3 
 .rodata.sar_ctx_cancel.str1.4
                0x0000000000048f5c       0x23 CMakeFiles/dfu_nrf52840_xxAA_s140_6.0.0.dir/__/__/mesh/core/src/transport.c.obj
 *fill*         0x0000000000048f7f        0x1 
 .rodata.transport_packet_in.str1.4
                0x0000000000048f80       0x24 CMakeFiles/dfu_nrf52840_xxAA_s140_6.0.0.dir/__/__/mesh/core/src/transport.c.obj
 .rodata.upper_transport_access_packet_in.str1.4
                0x0000000000048fa4       0x91 CMakeFiles/dfu_nrf52840_xxAA_s140_6.0.0.dir/__/__/mesh/core/src/transport.c.obj
 *fill*         0x0000000000049035        0x3 
 .rodata.upper_transport_packet_in.str1.4
                0x0000000000049038       0x2e CMakeFiles/dfu_nrf52840_xxAA_s140_6.0.0.dir/__/__/mesh/core/src/transport.c.obj
 *fill*         0x0000000000049066        0x2 
 .rodata.upper_transport_tx.part.27.str1.4
                0x0000000000049068        0xe CMakeFiles/dfu_nrf52840_xxAA_s140_6.0.0.dir/__/__/mesh/core/src/transport.c.obj
                                         0x18 (size before relaxing)
 *fill*         0x0000000000049076        0x2 
 .rodata.m_procedure_steps
                0x0000000000049078       0x28 CMakeFiles/dfu_nrf52840_xxAA_s140_6.0.0.dir/__/__/mesh/core/src/flash_manager_defrag.c.obj
 .rodata.m_all_operations
                0x00000000000490a0       0x10 CMakeFiles/dfu_nrf52840_xxAA_s140_6.0.0.dir/__/__/mesh/core/src/mesh_flash.c.obj
 .rodata.types_lookup.9513
                0x00000000000490b0        0x4 CMakeFiles/dfu_nrf52840_xxAA_s140_6.0.0.dir/__/__/mesh/core/src/nrf_mesh_utils.c.obj
 .rodata.__func__.11985
                0x00000000000490b4       0x15 CMakeFiles/dfu_nrf52840_xxAA_s140_6.0.0.dir/__/__/mesh/core/src/nrf_mesh.c.obj
 *fill*         0x00000000000490c9        0x3 
 .rodata.nrf_mesh_listen.str1.4
                0x00000000000490cc       0xab CMakeFiles/dfu_nrf52840_xxAA_s140_6.0.0.dir/__/__/mesh/core/src/nrf_mesh.c.obj
 .rodata.nrf_mesh_packet_send.str1.4
                0x0000000000049177       0xab CMakeFiles/dfu_nrf52840_xxAA_s140_6.0.0.dir/__/__/mesh/core/src/nrf_mesh.c.obj
                                          0x4 (size before relaxing)
 *fill*         0x0000000000049177        0x1 
 .rodata.CSWTCH.7
                0x0000000000049178       0x20 CMakeFiles/dfu_nrf52840_xxAA_s140_6.0.0.dir/__/__/mesh/core/src/hal.c.obj
 .rodata        0x0000000000049198       0x18 CMakeFiles/dfu_nrf52840_xxAA_s140_6.0.0.dir/__/__/mesh/core/src/enc.c.obj
 .rodata.network_packet_in.str1.4
                0x00000000000491b0       0x81 CMakeFiles/dfu_nrf52840_xxAA_s140_6.0.0.dir/__/__/mesh/core/src/network.c.obj
 *fill*         0x0000000000049231        0x3 
 .rodata.net_packet_decrypt.str1.4
                0x0000000000049234       0x6b CMakeFiles/dfu_nrf52840_xxAA_s140_6.0.0.dir/__/__/mesh/core/src/net_packet.c.obj
                                         0x74 (size before relaxing)
 *fill*         0x000000000004929f        0x1 
 .rodata        0x00000000000492a0        0x7 CMakeFiles/dfu_nrf52840_xxAA_s140_6.0.0.dir/__/__/mesh/core/src/nrf_mesh_keygen.c.obj
 *fill*         0x00000000000492a7        0x1 
 .rodata.log_callback_rtt.str1.4
                0x00000000000492a8       0x15 CMakeFiles/dfu_nrf52840_xxAA_s140_6.0.0.dir/__/__/mesh/core/src/log.c.obj
 *fill*         0x00000000000492bd        0x3 
 .rodata.str1.4
                0x00000000000492c0       0x11 CMakeFiles/dfu_nrf52840_xxAA_s140_6.0.0.dir/__/__/mesh/core/src/log.c.obj
 *fill*         0x00000000000492d1        0x3 
 .rodata.INVALID_HEADER
                0x00000000000492d4        0x4 CMakeFiles/dfu_nrf52840_xxAA_s140_6.0.0.dir/__/__/mesh/core/src/flash_manager.c.obj
                0x00000000000492d4                INVALID_HEADER
 .rodata.PADDING_HEADER
                0x00000000000492d8        0x4 CMakeFiles/dfu_nrf52840_xxAA_s140_6.0.0.dir/__/__/mesh/core/src/flash_manager.c.obj
                0x00000000000492d8                PADDING_HEADER
 .rodata.SEAL_HEADER
                0x00000000000492dc        0x4 CMakeFiles/dfu_nrf52840_xxAA_s140_6.0.0.dir/__/__/mesh/core/src/flash_manager.c.obj
                0x00000000000492dc                SEAL_HEADER
 .rodata.beacon_packet_in.str1.4
                0x00000000000492e0       0x8d CMakeFiles/dfu_nrf52840_xxAA_s140_6.0.0.dir/__/__/mesh/core/src/beacon.c.obj
                                         0x98 (size before relaxing)
 *fill*         0x000000000004936d        0x3 
 .rodata.cp_handler
                0x0000000000049370        0x8 CMakeFiles/dfu_nrf52840_xxAA_s140_6.0.0.dir/__/__/mesh/core/src/heartbeat.c.obj
 .rodata.beacon_tx.str1.4
                0x0000000000049378       0x6f CMakeFiles/dfu_nrf52840_xxAA_s140_6.0.0.dir/__/__/mesh/core/src/net_beacon.c.obj
 *fill*         0x00000000000493e7        0x1 
 .rodata.net_beacon_init.str1.4
                0x00000000000493e8        0x5 CMakeFiles/dfu_nrf52840_xxAA_s140_6.0.0.dir/__/__/mesh/core/src/net_beacon.c.obj
 *fill*         0x00000000000493ed        0x3 
 .rodata.m_interface
                0x00000000000493f0        0xc CMakeFiles/dfu_nrf52840_xxAA_s140_6.0.0.dir/__/__/mesh/core/src/core_tx_adv.c.obj
 .rodata.radio_mode_to_us_per_byte.9906
                0x00000000000493fc        0x6 CMakeFiles/dfu_nrf52840_xxAA_s140_6.0.0.dir/__/__/mesh/bearer/src/broadcast.c.obj
 *fill*         0x0000000000049402        0x2 
 .rodata.channel_rf_offsets.9124
                0x0000000000049404       0x28 CMakeFiles/dfu_nrf52840_xxAA_s140_6.0.0.dir/__/__/mesh/bearer/src/radio_config.c.obj
 .rodata.SEGGER_RTT_ReadNoLock.str1.4
                0x000000000004942c       0x18 ../../external/rtt/librtt_nrf52840_xxAA.a(SEGGER_RTT.c.obj)
                                         0x17 (size before relaxing)
 .rodata._aV2C.5639
                0x0000000000049444       0x10 ../../external/rtt/librtt_nrf52840_xxAA.a(SEGGER_RTT_printf.c.obj)
 .rodata.curve_secp256r1
                0x0000000000049454       0xb0 ../../external/micro-ecc/libuECC_nrf52840_xxAA.a(uECC.c.obj)
 .rodata._global_impure_ptr
                0x0000000000049504        0x4 /usr/bin/../lib/gcc/arm-none-eabi/7.2.1/../../../../arm-none-eabi/lib/thumb/v7e-m/fpv4-sp/hard/libg_nano.a(lib_a-impure.o)
                0x0000000000049504                _global_impure_ptr
 *(.eh_frame*)
 .eh_frame      0x0000000000049508        0x0 /usr/bin/../lib/gcc/arm-none-eabi/7.2.1/thumb/v7e-m/fpv4-sp/hard/crtbegin.o
 .eh_frame      0x0000000000049508        0x4 /usr/bin/../lib/gcc/arm-none-eabi/7.2.1/thumb/v7e-m/fpv4-sp/hard/crtend.o

.glue_7         0x000000000004950c        0x0
 .glue_7        0x000000000004950c        0x0 linker stubs

.glue_7t        0x000000000004950c        0x0
 .glue_7t       0x000000000004950c        0x0 linker stubs

.vfp11_veneer   0x000000000004950c        0x0
 .vfp11_veneer  0x000000000004950c        0x0 linker stubs

.v4_bx          0x000000000004950c        0x0
 .v4_bx         0x000000000004950c        0x0 linker stubs

.iplt           0x000000000004950c        0x0
 .iplt          0x000000000004950c        0x0 /usr/bin/../lib/gcc/arm-none-eabi/7.2.1/thumb/v7e-m/fpv4-sp/hard/crtbegin.o

.pwr_mgmt_data  0x000000000004950c        0x0
                [!provide]                        PROVIDE (__start_pwr_mgmt_data, .)
 *(SORT_BY_NAME(.pwr_mgmt_data*))
                [!provide]                        PROVIDE (__stop_pwr_mgmt_data, .)

.log_const_data
                0x000000000004950c        0x0
                [!provide]                        PROVIDE (__start_log_const_data, .)
 *(.log_const_data)
                [!provide]                        PROVIDE (__stop_log_const_data, .)

.cli_command    0x000000000004950c        0x0
                [!provide]                        PROVIDE (__start_cli_command, .)
 *(.cli_command)
                [!provide]                        PROVIDE (__stop_cli_command, .)

.sdh_stack_observers
                0x000000000004950c        0x0
                [!provide]                        PROVIDE (__start_sdh_stack_observers, .)
 *(SORT_BY_NAME(.sdh_stack_observers*))
                [!provide]                        PROVIDE (__stop_sdh_stack_observers, .)

.sdh_req_observers
                0x000000000004950c        0x0
                [!provide]                        PROVIDE (__start_sdh_req_observers, .)
 *(SORT_BY_NAME(.sdh_req_observers*))
                [!provide]                        PROVIDE (__stop_sdh_req_observers, .)

.sdh_state_observers
                0x000000000004950c        0x0
                [!provide]                        PROVIDE (__start_sdh_state_observers, .)
 *(SORT_BY_NAME(.sdh_state_observers*))
                [!provide]                        PROVIDE (__stop_sdh_state_observers, .)

.sdh_ant_observers
                0x000000000004950c        0x0
                [!provide]                        PROVIDE (__start_sdh_ant_observers, .)
 *(SORT_BY_NAME(.sdh_ant_observers*))
                [!provide]                        PROVIDE (__stop_sdh_ant_observers, .)

.sdh_ble_observers
                0x000000000004950c        0x0
                [!provide]                        PROVIDE (__start_sdh_ble_observers, .)
 *(SORT_BY_NAME(.sdh_ble_observers*))
                [!provide]                        PROVIDE (__stop_sdh_ble_observers, .)

.sdh_soc_observers
                0x000000000004950c        0x0
                [!provide]                        PROVIDE (__start_sdh_soc_observers, .)
 *(SORT_BY_NAME(.sdh_soc_observers*))
                [!provide]                        PROVIDE (__stop_sdh_soc_observers, .)

.ARM.extab
 *(.ARM.extab* .gnu.linkonce.armextab.*)
                0x000000000004950c                __exidx_start = .

.ARM.exidx      0x000000000004950c        0x8
 *(.ARM.exidx* .gnu.linkonce.armexidx.*)
 .ARM.exidx     0x000000000004950c        0x8 /usr/bin/../lib/gcc/arm-none-eabi/7.2.1/../../../../arm-none-eabi/lib/thumb/v7e-m/fpv4-sp/hard/crt0.o
                0x0000000000049514                __exidx_end = .
                0x0000000000049514                __etext = .

.rel.dyn        0x0000000000049514        0x0
 .rel.iplt      0x0000000000049514        0x0 /usr/bin/../lib/gcc/arm-none-eabi/7.2.1/thumb/v7e-m/fpv4-sp/hard/crtbegin.o

.data           0x00000000200032c8      0x148 load address 0x0000000000049514
                0x00000000200032c8                __data_start__ = .
 *(vtable)
 *(.data*)
 .data.rom_base
                0x00000000200032c8        0x4 CMakeFiles/dfu_nrf52840_xxAA_s140_6.0.0.dir/src/main.c.obj
                0x00000000200032c8                rom_base
 .data.rom_end  0x00000000200032cc        0x4 CMakeFiles/dfu_nrf52840_xxAA_s140_6.0.0.dir/src/main.c.obj
                0x00000000200032cc                rom_end
 .data.s_evt_handler.11509
                0x00000000200032d0        0x8 CMakeFiles/dfu_nrf52840_xxAA_s140_6.0.0.dir/__/__/mesh/stack/src/mesh_stack.c.obj
 .data.flash_add_mem_available_struct.10838
                0x00000000200032d8       0x10 CMakeFiles/dfu_nrf52840_xxAA_s140_6.0.0.dir/__/__/mesh/access/src/access.c.obj
 .data.flash_clear_mem_available_struct.10927
                0x00000000200032e8       0x10 CMakeFiles/dfu_nrf52840_xxAA_s140_6.0.0.dir/__/__/mesh/access/src/access.c.obj
 .data.flash_store_mem_available_struct.10951
                0x00000000200032f8       0x10 CMakeFiles/dfu_nrf52840_xxAA_s140_6.0.0.dir/__/__/mesh/access/src/access.c.obj
 .data.m_default_ttl
                0x0000000020003308        0x1 CMakeFiles/dfu_nrf52840_xxAA_s140_6.0.0.dir/__/__/mesh/access/src/access.c.obj
 *fill*         0x0000000020003309        0x3 
 .data.mem_listener.11127
                0x000000002000330c       0x10 CMakeFiles/dfu_nrf52840_xxAA_s140_6.0.0.dir/__/__/mesh/access/src/device_state_manager.c.obj
 .data.mem_listener.11153
                0x000000002000331c       0x10 CMakeFiles/dfu_nrf52840_xxAA_s140_6.0.0.dir/__/__/mesh/access/src/device_state_manager.c.obj
 .data.m_config_server_handle
                0x000000002000332c        0x2 CMakeFiles/dfu_nrf52840_xxAA_s140_6.0.0.dir/__/__/models/config/src/config_server.c.obj
 *fill*         0x000000002000332e        0x2 
 .data.m_mesh_evt_handler
                0x0000000020003330        0x8 CMakeFiles/dfu_nrf52840_xxAA_s140_6.0.0.dir/__/__/models/config/src/config_server.c.obj
 .data.m_async_process_flag
                0x0000000020003338        0x4 CMakeFiles/dfu_nrf52840_xxAA_s140_6.0.0.dir/__/__/mesh/prov/src/prov_bearer_adv.c.obj
 .data.wait.9426
                0x000000002000333c        0x1 CMakeFiles/dfu_nrf52840_xxAA_s140_6.0.0.dir/__/common/src/app_error_weak.c.obj
 *fill*         0x000000002000333d        0x3 
 .data.mem_listener.10264
                0x0000000020003340       0x10 CMakeFiles/dfu_nrf52840_xxAA_s140_6.0.0.dir/__/__/mesh/core/src/net_state.c.obj
 .data.mem_listener.10269
                0x0000000020003350       0x10 CMakeFiles/dfu_nrf52840_xxAA_s140_6.0.0.dir/__/__/mesh/core/src/net_state.c.obj
 .data.mem_listener.10283
                0x0000000020003360       0x10 CMakeFiles/dfu_nrf52840_xxAA_s140_6.0.0.dir/__/__/mesh/core/src/net_state.c.obj
 .data.mem_listener.10300
                0x0000000020003370       0x10 CMakeFiles/dfu_nrf52840_xxAA_s140_6.0.0.dir/__/__/mesh/core/src/net_state.c.obj
 .data.m_nrf_mesh_listener
                0x0000000020003380        0xc CMakeFiles/dfu_nrf52840_xxAA_s140_6.0.0.dir/__/__/mesh/core/src/nrf_mesh.c.obj
 .data.g_log_dbg_lvl
                0x000000002000338c        0x4 CMakeFiles/dfu_nrf52840_xxAA_s140_6.0.0.dir/__/__/mesh/core/src/log.c.obj
                0x000000002000338c                g_log_dbg_lvl
 .data.g_log_dbg_msk
                0x0000000020003390        0x4 CMakeFiles/dfu_nrf52840_xxAA_s140_6.0.0.dir/__/__/mesh/core/src/log.c.obj
                0x0000000020003390                g_log_dbg_msk
 .data.g_log_hex_digits
                0x0000000020003394        0x4 CMakeFiles/dfu_nrf52840_xxAA_s140_6.0.0.dir/__/__/mesh/core/src/log.c.obj
                0x0000000020003394                g_log_hex_digits
 .data.m_log_callback
                0x0000000020003398        0x4 CMakeFiles/dfu_nrf52840_xxAA_s140_6.0.0.dir/__/__/mesh/core/src/log.c.obj
                0x0000000020003398                m_log_callback
 .data.SystemCoreClock
                0x000000002000339c        0x4 CMakeFiles/dfu_nrf52840_xxAA_s140_6.0.0.dir/home/mazzer/work/nordic/sdk/nRF5_SDK_15.0.0/modules/nrfx/mdk/system_nrf52840.c.obj
                0x000000002000339c                SystemCoreClock
 .data.g_rng_function
                0x00000000200033a0        0x4 ../../external/micro-ecc/libuECC_nrf52840_xxAA.a(uECC.c.obj)
 .data._impure_ptr
                0x00000000200033a4        0x4 /usr/bin/../lib/gcc/arm-none-eabi/7.2.1/../../../../arm-none-eabi/lib/thumb/v7e-m/fpv4-sp/hard/libg_nano.a(lib_a-impure.o)
                0x00000000200033a4                _impure_ptr
 .data.impure_data
                0x00000000200033a8       0x60 /usr/bin/../lib/gcc/arm-none-eabi/7.2.1/../../../../arm-none-eabi/lib/thumb/v7e-m/fpv4-sp/hard/libg_nano.a(lib_a-impure.o)
                0x0000000020003408                . = ALIGN (0x4)
                0x0000000020003408                PROVIDE (__preinit_array_start, .)
 *(.preinit_array)
                0x0000000020003408                PROVIDE (__preinit_array_end, .)
                0x0000000020003408                . = ALIGN (0x4)
                0x0000000020003408                PROVIDE (__init_array_start, .)
 *(SORT_BY_NAME(.init_array.*))
 *(.init_array)
 .init_array    0x0000000020003408        0x4 /usr/bin/../lib/gcc/arm-none-eabi/7.2.1/thumb/v7e-m/fpv4-sp/hard/crtbegin.o
                0x000000002000340c                PROVIDE (__init_array_end, .)
                0x000000002000340c                . = ALIGN (0x4)
                [!provide]                        PROVIDE (__fini_array_start, .)
 *(SORT_BY_NAME(.fini_array.*))
 *(.fini_array)
 .fini_array    0x000000002000340c        0x4 /usr/bin/../lib/gcc/arm-none-eabi/7.2.1/thumb/v7e-m/fpv4-sp/hard/crtbegin.o
                [!provide]                        PROVIDE (__fini_array_end, .)
 *(.jcr*)
                0x0000000020003410                . = ALIGN (0x4)
                0x0000000020003410                __data_end__ = .
LOAD /usr/bin/../lib/gcc/arm-none-eabi/7.2.1/thumb/v7e-m/fpv4-sp/hard/crti.o
LOAD /usr/bin/../lib/gcc/arm-none-eabi/7.2.1/thumb/v7e-m/fpv4-sp/hard/crtbegin.o
LOAD /usr/bin/../lib/gcc/arm-none-eabi/7.2.1/../../../../arm-none-eabi/lib/thumb/v7e-m/fpv4-sp/hard/crt0.o
LOAD CMakeFiles/dfu_nrf52840_xxAA_s140_6.0.0.dir/src/main.c.obj
LOAD CMakeFiles/dfu_nrf52840_xxAA_s140_6.0.0.dir/__/__/mesh/stack/src/mesh_stack.c.obj
LOAD CMakeFiles/dfu_nrf52840_xxAA_s140_6.0.0.dir/__/common/src/mesh_softdevice_init.c.obj
LOAD CMakeFiles/dfu_nrf52840_xxAA_s140_6.0.0.dir/__/common/src/mesh_provisionee.c.obj
LOAD CMakeFiles/dfu_nrf52840_xxAA_s140_6.0.0.dir/__/common/src/simple_hal.c.obj
LOAD CMakeFiles/dfu_nrf52840_xxAA_s140_6.0.0.dir/__/__/mesh/access/src/access_publish.c.obj
LOAD CMakeFiles/dfu_nrf52840_xxAA_s140_6.0.0.dir/__/__/mesh/access/src/access.c.obj
LOAD CMakeFiles/dfu_nrf52840_xxAA_s140_6.0.0.dir/__/__/mesh/access/src/access_reliable.c.obj
LOAD CMakeFiles/dfu_nrf52840_xxAA_s140_6.0.0.dir/__/__/mesh/access/src/device_state_manager.c.obj
LOAD CMakeFiles/dfu_nrf52840_xxAA_s140_6.0.0.dir/__/__/mesh/serial/src/serial_uart.c.obj
LOAD CMakeFiles/dfu_nrf52840_xxAA_s140_6.0.0.dir/__/__/mesh/serial/src/serial_bearer.c.obj
LOAD CMakeFiles/dfu_nrf52840_xxAA_s140_6.0.0.dir/__/__/mesh/serial/src/serial_handler_common.c.obj
LOAD CMakeFiles/dfu_nrf52840_xxAA_s140_6.0.0.dir/__/__/mesh/serial/src/serial_handler_access.c.obj
LOAD CMakeFiles/dfu_nrf52840_xxAA_s140_6.0.0.dir/__/__/mesh/serial/src/serial_handler_config.c.obj
LOAD CMakeFiles/dfu_nrf52840_xxAA_s140_6.0.0.dir/__/__/mesh/serial/src/serial_handler_openmesh.c.obj
LOAD CMakeFiles/dfu_nrf52840_xxAA_s140_6.0.0.dir/__/__/mesh/serial/src/serial.c.obj
LOAD CMakeFiles/dfu_nrf52840_xxAA_s140_6.0.0.dir/__/__/mesh/serial/src/serial_handler_prov.c.obj
LOAD CMakeFiles/dfu_nrf52840_xxAA_s140_6.0.0.dir/__/__/mesh/serial/src/serial_handler_dfu.c.obj
LOAD CMakeFiles/dfu_nrf52840_xxAA_s140_6.0.0.dir/__/__/mesh/serial/src/serial_handler_mesh.c.obj
LOAD CMakeFiles/dfu_nrf52840_xxAA_s140_6.0.0.dir/__/__/mesh/serial/src/serial_handler_models.c.obj
LOAD CMakeFiles/dfu_nrf52840_xxAA_s140_6.0.0.dir/__/__/mesh/serial/src/serial_handler_device.c.obj
LOAD CMakeFiles/dfu_nrf52840_xxAA_s140_6.0.0.dir/__/__/mesh/serial/src/nrf_mesh_serial.c.obj
LOAD CMakeFiles/dfu_nrf52840_xxAA_s140_6.0.0.dir/__/__/mesh/serial/src/serial_handler_app.c.obj
LOAD CMakeFiles/dfu_nrf52840_xxAA_s140_6.0.0.dir/__/__/models/config/src/composition_data.c.obj
LOAD CMakeFiles/dfu_nrf52840_xxAA_s140_6.0.0.dir/__/__/models/config/src/config_server.c.obj
LOAD CMakeFiles/dfu_nrf52840_xxAA_s140_6.0.0.dir/__/__/models/config/src/packed_index_list.c.obj
LOAD CMakeFiles/dfu_nrf52840_xxAA_s140_6.0.0.dir/__/__/models/health/src/health_server.c.obj
LOAD CMakeFiles/dfu_nrf52840_xxAA_s140_6.0.0.dir/__/__/mesh/prov/src/prov_provisioner.c.obj
LOAD CMakeFiles/dfu_nrf52840_xxAA_s140_6.0.0.dir/__/__/mesh/prov/src/prov_provisionee.c.obj
LOAD CMakeFiles/dfu_nrf52840_xxAA_s140_6.0.0.dir/__/__/mesh/prov/src/nrf_mesh_prov.c.obj
LOAD CMakeFiles/dfu_nrf52840_xxAA_s140_6.0.0.dir/__/__/mesh/prov/src/provisioning.c.obj
LOAD CMakeFiles/dfu_nrf52840_xxAA_s140_6.0.0.dir/__/__/mesh/prov/src/prov_beacon.c.obj
LOAD CMakeFiles/dfu_nrf52840_xxAA_s140_6.0.0.dir/__/__/mesh/prov/src/prov_utils.c.obj
LOAD CMakeFiles/dfu_nrf52840_xxAA_s140_6.0.0.dir/__/__/mesh/prov/src/prov_bearer_adv.c.obj
LOAD CMakeFiles/dfu_nrf52840_xxAA_s140_6.0.0.dir/__/__/mesh/dfu/src/nrf_mesh_dfu.c.obj
LOAD CMakeFiles/dfu_nrf52840_xxAA_s140_6.0.0.dir/__/nrf_mesh_weak.c.obj
LOAD CMakeFiles/dfu_nrf52840_xxAA_s140_6.0.0.dir/__/common/src/app_error_weak.c.obj
LOAD CMakeFiles/dfu_nrf52840_xxAA_s140_6.0.0.dir/__/common/src/assertion_handler_weak.c.obj
LOAD CMakeFiles/dfu_nrf52840_xxAA_s140_6.0.0.dir/__/__/mesh/core/src/internal_event.c.obj
LOAD CMakeFiles/dfu_nrf52840_xxAA_s140_6.0.0.dir/__/__/mesh/core/src/nrf_mesh_configure.c.obj
LOAD CMakeFiles/dfu_nrf52840_xxAA_s140_6.0.0.dir/__/__/mesh/core/src/aes.c.obj
LOAD CMakeFiles/dfu_nrf52840_xxAA_s140_6.0.0.dir/__/__/mesh/core/src/msg_cache.c.obj
LOAD CMakeFiles/dfu_nrf52840_xxAA_s140_6.0.0.dir/__/__/mesh/core/src/transport.c.obj
LOAD CMakeFiles/dfu_nrf52840_xxAA_s140_6.0.0.dir/__/__/mesh/core/src/event.c.obj
LOAD CMakeFiles/dfu_nrf52840_xxAA_s140_6.0.0.dir/__/__/mesh/core/src/packet_buffer.c.obj
LOAD CMakeFiles/dfu_nrf52840_xxAA_s140_6.0.0.dir/__/__/mesh/core/src/flash_manager_defrag.c.obj
LOAD CMakeFiles/dfu_nrf52840_xxAA_s140_6.0.0.dir/__/__/mesh/core/src/fifo.c.obj
LOAD CMakeFiles/dfu_nrf52840_xxAA_s140_6.0.0.dir/__/__/mesh/core/src/nrf_flash.c.obj
LOAD CMakeFiles/dfu_nrf52840_xxAA_s140_6.0.0.dir/__/__/mesh/core/src/packet_mgr.c.obj
LOAD CMakeFiles/dfu_nrf52840_xxAA_s140_6.0.0.dir/__/__/mesh/core/src/net_state.c.obj
LOAD CMakeFiles/dfu_nrf52840_xxAA_s140_6.0.0.dir/__/__/mesh/core/src/mesh_flash.c.obj
LOAD CMakeFiles/dfu_nrf52840_xxAA_s140_6.0.0.dir/__/__/mesh/core/src/nrf_mesh_utils.c.obj
LOAD CMakeFiles/dfu_nrf52840_xxAA_s140_6.0.0.dir/__/__/mesh/core/src/nrf_mesh.c.obj
LOAD CMakeFiles/dfu_nrf52840_xxAA_s140_6.0.0.dir/__/__/mesh/core/src/queue.c.obj
LOAD CMakeFiles/dfu_nrf52840_xxAA_s140_6.0.0.dir/__/__/mesh/core/src/hal.c.obj
LOAD CMakeFiles/dfu_nrf52840_xxAA_s140_6.0.0.dir/__/__/mesh/core/src/aes_cmac.c.obj
LOAD CMakeFiles/dfu_nrf52840_xxAA_s140_6.0.0.dir/__/__/mesh/core/src/timer_scheduler.c.obj
LOAD CMakeFiles/dfu_nrf52840_xxAA_s140_6.0.0.dir/__/__/mesh/core/src/timer.c.obj
LOAD CMakeFiles/dfu_nrf52840_xxAA_s140_6.0.0.dir/__/__/mesh/core/src/ticker.c.obj
LOAD CMakeFiles/dfu_nrf52840_xxAA_s140_6.0.0.dir/__/__/mesh/core/src/rand.c.obj
LOAD CMakeFiles/dfu_nrf52840_xxAA_s140_6.0.0.dir/__/__/mesh/core/src/nrf_mesh_opt.c.obj
LOAD CMakeFiles/dfu_nrf52840_xxAA_s140_6.0.0.dir/__/__/mesh/core/src/timeslot.c.obj
LOAD CMakeFiles/dfu_nrf52840_xxAA_s140_6.0.0.dir/__/__/mesh/core/src/bearer_event.c.obj
LOAD CMakeFiles/dfu_nrf52840_xxAA_s140_6.0.0.dir/__/__/mesh/core/src/enc.c.obj
LOAD CMakeFiles/dfu_nrf52840_xxAA_s140_6.0.0.dir/__/__/mesh/core/src/network.c.obj
LOAD CMakeFiles/dfu_nrf52840_xxAA_s140_6.0.0.dir/__/__/mesh/core/src/net_packet.c.obj
LOAD CMakeFiles/dfu_nrf52840_xxAA_s140_6.0.0.dir/__/__/mesh/core/src/msqueue.c.obj
LOAD CMakeFiles/dfu_nrf52840_xxAA_s140_6.0.0.dir/__/__/mesh/core/src/nrf_mesh_keygen.c.obj
LOAD CMakeFiles/dfu_nrf52840_xxAA_s140_6.0.0.dir/__/__/mesh/core/src/cache.c.obj
LOAD CMakeFiles/dfu_nrf52840_xxAA_s140_6.0.0.dir/__/__/mesh/core/src/uri.c.obj
LOAD CMakeFiles/dfu_nrf52840_xxAA_s140_6.0.0.dir/__/__/mesh/core/src/list.c.obj
LOAD CMakeFiles/dfu_nrf52840_xxAA_s140_6.0.0.dir/__/__/mesh/core/src/log.c.obj
LOAD CMakeFiles/dfu_nrf52840_xxAA_s140_6.0.0.dir/__/__/mesh/core/src/flash_manager.c.obj
LOAD CMakeFiles/dfu_nrf52840_xxAA_s140_6.0.0.dir/__/__/mesh/core/src/ccm_soft.c.obj
LOAD CMakeFiles/dfu_nrf52840_xxAA_s140_6.0.0.dir/__/__/mesh/core/src/toolchain.c.obj
LOAD CMakeFiles/dfu_nrf52840_xxAA_s140_6.0.0.dir/__/__/mesh/core/src/replay_cache.c.obj
LOAD CMakeFiles/dfu_nrf52840_xxAA_s140_6.0.0.dir/__/__/mesh/core/src/beacon.c.obj
LOAD CMakeFiles/dfu_nrf52840_xxAA_s140_6.0.0.dir/__/__/mesh/core/src/flash_manager_internal.c.obj
LOAD CMakeFiles/dfu_nrf52840_xxAA_s140_6.0.0.dir/__/__/mesh/core/src/core_tx.c.obj
LOAD CMakeFiles/dfu_nrf52840_xxAA_s140_6.0.0.dir/__/__/mesh/core/src/heartbeat.c.obj
LOAD CMakeFiles/dfu_nrf52840_xxAA_s140_6.0.0.dir/__/__/mesh/core/src/net_beacon.c.obj
LOAD CMakeFiles/dfu_nrf52840_xxAA_s140_6.0.0.dir/__/__/mesh/core/src/fsm.c.obj
LOAD CMakeFiles/dfu_nrf52840_xxAA_s140_6.0.0.dir/__/__/mesh/core/src/core_tx_adv.c.obj
LOAD CMakeFiles/dfu_nrf52840_xxAA_s140_6.0.0.dir/__/__/mesh/bearer/src/ad_listener.c.obj
LOAD CMakeFiles/dfu_nrf52840_xxAA_s140_6.0.0.dir/__/__/mesh/bearer/src/ad_type_filter.c.obj
LOAD CMakeFiles/dfu_nrf52840_xxAA_s140_6.0.0.dir/__/__/mesh/bearer/src/adv_packet_filter.c.obj
LOAD CMakeFiles/dfu_nrf52840_xxAA_s140_6.0.0.dir/__/__/mesh/bearer/src/advertiser.c.obj
LOAD CMakeFiles/dfu_nrf52840_xxAA_s140_6.0.0.dir/__/__/mesh/bearer/src/bearer_handler.c.obj
LOAD CMakeFiles/dfu_nrf52840_xxAA_s140_6.0.0.dir/__/__/mesh/bearer/src/broadcast.c.obj
LOAD CMakeFiles/dfu_nrf52840_xxAA_s140_6.0.0.dir/__/__/mesh/bearer/src/filter_engine.c.obj
LOAD CMakeFiles/dfu_nrf52840_xxAA_s140_6.0.0.dir/__/__/mesh/bearer/src/gap_address_filter.c.obj
LOAD CMakeFiles/dfu_nrf52840_xxAA_s140_6.0.0.dir/__/__/mesh/bearer/src/radio_config.c.obj
LOAD CMakeFiles/dfu_nrf52840_xxAA_s140_6.0.0.dir/__/__/mesh/bearer/src/rssi_filter.c.obj
LOAD CMakeFiles/dfu_nrf52840_xxAA_s140_6.0.0.dir/__/__/mesh/bearer/src/scanner.c.obj
LOAD CMakeFiles/dfu_nrf52840_xxAA_s140_6.0.0.dir/home/mazzer/work/nordic/sdk/nRF5_SDK_15.0.0/modules/nrfx/mdk/system_nrf52840.c.obj
LOAD CMakeFiles/dfu_nrf52840_xxAA_s140_6.0.0.dir/home/mazzer/work/nordic/sdk/nRF5_SDK_15.0.0/modules/nrfx/mdk/gcc_startup_nrf52840.S.obj
LOAD CMakeFiles/dfu_nrf52840_xxAA_s140_6.0.0.dir/home/mazzer/work/nordic/sdk/nRF5_SDK_15.0.0/components/libraries/util/app_error.c.obj
LOAD CMakeFiles/dfu_nrf52840_xxAA_s140_6.0.0.dir/home/mazzer/work/nordic/sdk/nRF5_SDK_15.0.0/components/libraries/util/app_error_handler_gcc.c.obj
LOAD ../../external/rtt/librtt_nrf52840_xxAA.a
LOAD ../../external/micro-ecc/libuECC_nrf52840_xxAA.a
START GROUP
LOAD /usr/bin/../lib/gcc/arm-none-eabi/7.2.1/thumb/v7e-m/fpv4-sp/hard/libgcc.a
LOAD /usr/bin/../lib/gcc/arm-none-eabi/7.2.1/../../../../arm-none-eabi/lib/thumb/v7e-m/fpv4-sp/hard/libg_nano.a
LOAD /usr/bin/../lib/gcc/arm-none-eabi/7.2.1/../../../../arm-none-eabi/lib/thumb/v7e-m/fpv4-sp/hard/libc_nano.a
END GROUP
START GROUP
LOAD /usr/bin/../lib/gcc/arm-none-eabi/7.2.1/thumb/v7e-m/fpv4-sp/hard/libgcc.a
LOAD /usr/bin/../lib/gcc/arm-none-eabi/7.2.1/../../../../arm-none-eabi/lib/thumb/v7e-m/fpv4-sp/hard/libc_nano.a
END GROUP
LOAD /usr/bin/../lib/gcc/arm-none-eabi/7.2.1/thumb/v7e-m/fpv4-sp/hard/crtend.o
LOAD /usr/bin/../lib/gcc/arm-none-eabi/7.2.1/thumb/v7e-m/fpv4-sp/hard/crtn.o
START GROUP
LOAD /usr/bin/../lib/gcc/arm-none-eabi/7.2.1/thumb/v7e-m/fpv4-sp/hard/libgcc.a
LOAD /usr/bin/../lib/gcc/arm-none-eabi/7.2.1/../../../../arm-none-eabi/lib/thumb/v7e-m/fpv4-sp/hard/libc.a
LOAD /usr/bin/../lib/gcc/arm-none-eabi/7.2.1/../../../../arm-none-eabi/lib/thumb/v7e-m/fpv4-sp/hard/libnosys.a
END GROUP

.igot.plt       0x0000000020003410        0x0 load address 0x000000000004965c
 .igot.plt      0x0000000020003410        0x0 /usr/bin/../lib/gcc/arm-none-eabi/7.2.1/thumb/v7e-m/fpv4-sp/hard/crtbegin.o
                0x0000000020003410                . = ALIGN (0x4)

.svc_data       0x0000000020003410        0x0
                [!provide]                        PROVIDE (__start_svc_data, .)
 *(.svc_data)
                [!provide]                        PROVIDE (__stop_svc_data, .)

.fs_data        0x0000000020003410        0x0
                [!provide]                        PROVIDE (__start_fs_data, .)
 *(.fs_data)
                [!provide]                        PROVIDE (__stop_fs_data, .)

.log_dynamic_data
                0x0000000020003410        0x0
                [!provide]                        PROVIDE (__start_log_dynamic_data, .)
 *(.log_dynamic_data)
                [!provide]                        PROVIDE (__stop_log_dynamic_data, .)

.cli_sorted_cmd_ptrs
                0x0000000020003410        0x0
                [!provide]                        PROVIDE (__start_cli_sorted_cmd_ptrs, .)
 *(.cli_sorted_cmd_ptrs)
                [!provide]                        PROVIDE (__stop_cli_sorted_cmd_ptrs, .)

.bss            0x0000000020003410     0x3e54 load address 0x0000000000049660
                0x0000000020003410                . = ALIGN (0x4)
                0x0000000020003410                __bss_start__ = .
 *(.bss*)
 .bss           0x0000000020003410       0x1c /usr/bin/../lib/gcc/arm-none-eabi/7.2.1/thumb/v7e-m/fpv4-sp/hard/crtbegin.o
 .bss.m_device_provisioned
                0x000000002000342c        0x1 CMakeFiles/dfu_nrf52840_xxAA_s140_6.0.0.dir/src/main.c.obj
 *fill*         0x000000002000342d        0x3 
 .bss.m_evt_handler
                0x0000000020003430        0x8 CMakeFiles/dfu_nrf52840_xxAA_s140_6.0.0.dir/src/main.c.obj
 .bss.m_health_server
                0x0000000020003438       0x5c CMakeFiles/dfu_nrf52840_xxAA_s140_6.0.0.dir/__/__/mesh/stack/src/mesh_stack.c.obj
 .bss.m_init_params
                0x0000000020003494       0x24 CMakeFiles/dfu_nrf52840_xxAA_s140_6.0.0.dir/__/__/mesh/stack/src/mesh_stack.c.obj
 .bss.m_device_provisioned
                0x00000000200034b8        0x1 CMakeFiles/dfu_nrf52840_xxAA_s140_6.0.0.dir/__/common/src/mesh_provisionee.c.obj
 *fill*         0x00000000200034b9        0x3 
 .bss.m_params  0x00000000200034bc        0xc CMakeFiles/dfu_nrf52840_xxAA_s140_6.0.0.dir/__/common/src/mesh_provisionee.c.obj
 .bss.m_private_key
                0x00000000200034c8       0x20 CMakeFiles/dfu_nrf52840_xxAA_s140_6.0.0.dir/__/common/src/mesh_provisionee.c.obj
 .bss.m_prov_bearer_adv
                0x00000000200034e8      0x1c4 CMakeFiles/dfu_nrf52840_xxAA_s140_6.0.0.dir/__/common/src/mesh_provisionee.c.obj
 .bss.m_prov_ctx
                0x00000000200036ac      0x134 CMakeFiles/dfu_nrf52840_xxAA_s140_6.0.0.dir/__/common/src/mesh_provisionee.c.obj
 .bss.m_public_key
                0x00000000200037e0       0x40 CMakeFiles/dfu_nrf52840_xxAA_s140_6.0.0.dir/__/common/src/mesh_provisionee.c.obj
 .bss.m_button_handler_cb
                0x0000000020003820        0x4 CMakeFiles/dfu_nrf52840_xxAA_s140_6.0.0.dir/__/common/src/simple_hal.c.obj
 .bss.m_last_button_press
                0x0000000020003824        0x4 CMakeFiles/dfu_nrf52840_xxAA_s140_6.0.0.dir/__/common/src/simple_hal.c.obj
 .bss.m_publish_timer
                0x0000000020003828       0x18 CMakeFiles/dfu_nrf52840_xxAA_s140_6.0.0.dir/__/__/mesh/access/src/access_publish.c.obj
 .bss.m_publish_timer_counter
                0x0000000020003840        0x4 CMakeFiles/dfu_nrf52840_xxAA_s140_6.0.0.dir/__/__/mesh/access/src/access_publish.c.obj
 .bss.m_publish_timer_running
                0x0000000020003844        0x1 CMakeFiles/dfu_nrf52840_xxAA_s140_6.0.0.dir/__/__/mesh/access/src/access_publish.c.obj
 .bss.m_timer_resolution
                0x0000000020003845        0x1 CMakeFiles/dfu_nrf52840_xxAA_s140_6.0.0.dir/__/__/mesh/access/src/access_publish.c.obj
 *fill*         0x0000000020003846        0x2 
 .bss.mp_publication_list
                0x0000000020003848        0x4 CMakeFiles/dfu_nrf52840_xxAA_s140_6.0.0.dir/__/__/mesh/access/src/access_publish.c.obj
 .bss.m_element_pool
                0x000000002000384c        0x6 CMakeFiles/dfu_nrf52840_xxAA_s140_6.0.0.dir/__/__/mesh/access/src/access.c.obj
 *fill*         0x0000000020003852        0x2 
 .bss.m_evt_handler
                0x0000000020003854        0x8 CMakeFiles/dfu_nrf52840_xxAA_s140_6.0.0.dir/__/__/mesh/access/src/access.c.obj
 .bss.m_flash_manager
                0x000000002000385c       0x24 CMakeFiles/dfu_nrf52840_xxAA_s140_6.0.0.dir/__/__/mesh/access/src/access.c.obj
 .bss.m_flash_not_ready
                0x0000000020003880        0x1 CMakeFiles/dfu_nrf52840_xxAA_s140_6.0.0.dir/__/__/mesh/access/src/access.c.obj
 .bss.m_metadata_stored
                0x0000000020003881        0x1 CMakeFiles/dfu_nrf52840_xxAA_s140_6.0.0.dir/__/__/mesh/access/src/access.c.obj
 *fill*         0x0000000020003882        0x2 
 .bss.m_model_pool
                0x0000000020003884       0x68 CMakeFiles/dfu_nrf52840_xxAA_s140_6.0.0.dir/__/__/mesh/access/src/access.c.obj
 .bss.m_subscription_list_pool
                0x00000000200038ec       0x10 CMakeFiles/dfu_nrf52840_xxAA_s140_6.0.0.dir/__/__/mesh/access/src/access.c.obj
 .bss.m_reliable
                0x00000000200038fc       0x74 CMakeFiles/dfu_nrf52840_xxAA_s140_6.0.0.dir/__/__/mesh/access/src/access_reliable.c.obj
 .bss.m_addr_nonvirtual_allocated
                0x0000000020003970        0x4 CMakeFiles/dfu_nrf52840_xxAA_s140_6.0.0.dir/__/__/mesh/access/src/device_state_manager.c.obj
 .bss.m_addr_nonvirtual_needs_flashing
                0x0000000020003974        0x4 CMakeFiles/dfu_nrf52840_xxAA_s140_6.0.0.dir/__/__/mesh/access/src/device_state_manager.c.obj
 .bss.m_addr_unicast_allocated
                0x0000000020003978        0x4 CMakeFiles/dfu_nrf52840_xxAA_s140_6.0.0.dir/__/__/mesh/access/src/device_state_manager.c.obj
 .bss.m_addr_unicast_needs_flashing
                0x000000002000397c        0x4 CMakeFiles/dfu_nrf52840_xxAA_s140_6.0.0.dir/__/__/mesh/access/src/device_state_manager.c.obj
 .bss.m_addr_virtual_allocated
                0x0000000020003980        0x4 CMakeFiles/dfu_nrf52840_xxAA_s140_6.0.0.dir/__/__/mesh/access/src/device_state_manager.c.obj
 .bss.m_addr_virtual_needs_flashing
                0x0000000020003984        0x4 CMakeFiles/dfu_nrf52840_xxAA_s140_6.0.0.dir/__/__/mesh/access/src/device_state_manager.c.obj
 .bss.m_addresses
                0x0000000020003988       0x40 CMakeFiles/dfu_nrf52840_xxAA_s140_6.0.0.dir/__/__/mesh/access/src/device_state_manager.c.obj
 .bss.m_appkey_allocated
                0x00000000200039c8        0x4 CMakeFiles/dfu_nrf52840_xxAA_s140_6.0.0.dir/__/__/mesh/access/src/device_state_manager.c.obj
 .bss.m_appkey_needs_flashing
                0x00000000200039cc        0x4 CMakeFiles/dfu_nrf52840_xxAA_s140_6.0.0.dir/__/__/mesh/access/src/device_state_manager.c.obj
 .bss.m_appkeys
                0x00000000200039d0      0x150 CMakeFiles/dfu_nrf52840_xxAA_s140_6.0.0.dir/__/__/mesh/access/src/device_state_manager.c.obj
 .bss.m_devkey_allocated
                0x0000000020003b20        0x4 CMakeFiles/dfu_nrf52840_xxAA_s140_6.0.0.dir/__/__/mesh/access/src/device_state_manager.c.obj
 .bss.m_devkey_needs_flashing
                0x0000000020003b24        0x4 CMakeFiles/dfu_nrf52840_xxAA_s140_6.0.0.dir/__/__/mesh/access/src/device_state_manager.c.obj
 .bss.m_devkeys
                0x0000000020003b28       0x16 CMakeFiles/dfu_nrf52840_xxAA_s140_6.0.0.dir/__/__/mesh/access/src/device_state_manager.c.obj
 .bss.m_flash_is_available
                0x0000000020003b3e        0x1 CMakeFiles/dfu_nrf52840_xxAA_s140_6.0.0.dir/__/__/mesh/access/src/device_state_manager.c.obj
 *fill*         0x0000000020003b3f        0x1 
 .bss.m_flash_manager
                0x0000000020003b40       0x24 CMakeFiles/dfu_nrf52840_xxAA_s140_6.0.0.dir/__/__/mesh/access/src/device_state_manager.c.obj
 .bss.m_flash_mem_listener_update_all
                0x0000000020003b64       0x10 CMakeFiles/dfu_nrf52840_xxAA_s140_6.0.0.dir/__/__/mesh/access/src/device_state_manager.c.obj
 .bss.m_has_primary_subnet
                0x0000000020003b74        0x1 CMakeFiles/dfu_nrf52840_xxAA_s140_6.0.0.dir/__/__/mesh/access/src/device_state_manager.c.obj
 *fill*         0x0000000020003b75        0x3 
 .bss.m_local_unicast_addr
                0x0000000020003b78        0x4 CMakeFiles/dfu_nrf52840_xxAA_s140_6.0.0.dir/__/__/mesh/access/src/device_state_manager.c.obj
 .bss.m_mesh_evt_handler
                0x0000000020003b7c        0x8 CMakeFiles/dfu_nrf52840_xxAA_s140_6.0.0.dir/__/__/mesh/access/src/device_state_manager.c.obj
 .bss.m_subnet_allocated
                0x0000000020003b84        0x4 CMakeFiles/dfu_nrf52840_xxAA_s140_6.0.0.dir/__/__/mesh/access/src/device_state_manager.c.obj
 .bss.m_subnet_needs_flashing
                0x0000000020003b88        0x4 CMakeFiles/dfu_nrf52840_xxAA_s140_6.0.0.dir/__/__/mesh/access/src/device_state_manager.c.obj
 .bss.m_subnets
                0x0000000020003b8c      0x2a0 CMakeFiles/dfu_nrf52840_xxAA_s140_6.0.0.dir/__/__/mesh/access/src/device_state_manager.c.obj
 .bss.m_virtual_addresses
                0x0000000020003e2c       0xa0 CMakeFiles/dfu_nrf52840_xxAA_s140_6.0.0.dir/__/__/mesh/access/src/device_state_manager.c.obj
 .bss.m_can_receive
                0x0000000020003ecc        0x1 CMakeFiles/dfu_nrf52840_xxAA_s140_6.0.0.dir/__/__/mesh/serial/src/serial_uart.c.obj
 *fill*         0x0000000020003ecd        0x3 
 .bss.m_char_rx_cb
                0x0000000020003ed0        0x4 CMakeFiles/dfu_nrf52840_xxAA_s140_6.0.0.dir/__/__/mesh/serial/src/serial_uart.c.obj
 .bss.m_char_tx_cb
                0x0000000020003ed4        0x4 CMakeFiles/dfu_nrf52840_xxAA_s140_6.0.0.dir/__/__/mesh/serial/src/serial_uart.c.obj
 .bss.m_cur_tx_packet_index
                0x0000000020003ed8        0x2 CMakeFiles/dfu_nrf52840_xxAA_s140_6.0.0.dir/__/__/mesh/serial/src/serial_bearer.c.obj
 *fill*         0x0000000020003eda        0x2 
 .bss.m_event_flag
                0x0000000020003edc        0x4 CMakeFiles/dfu_nrf52840_xxAA_s140_6.0.0.dir/__/__/mesh/serial/src/serial_bearer.c.obj
 .bss.m_ignore_rx_count
                0x0000000020003ee0        0x2 CMakeFiles/dfu_nrf52840_xxAA_s140_6.0.0.dir/__/__/mesh/serial/src/serial_bearer.c.obj
 *fill*         0x0000000020003ee2        0x2 
 .bss.m_rx_buffer
                0x0000000020003ee4       0xd0 CMakeFiles/dfu_nrf52840_xxAA_s140_6.0.0.dir/__/__/mesh/serial/src/serial_bearer.c.obj
 .bss.m_rx_packet_buf
                0x0000000020003fb4        0xc CMakeFiles/dfu_nrf52840_xxAA_s140_6.0.0.dir/__/__/mesh/serial/src/serial_bearer.c.obj
 .bss.m_serial_state
                0x0000000020003fc0        0x1 CMakeFiles/dfu_nrf52840_xxAA_s140_6.0.0.dir/__/__/mesh/serial/src/serial_bearer.c.obj
 *fill*         0x0000000020003fc1        0x1 
 .bss.m_stored_pac_len
                0x0000000020003fc2        0x2 CMakeFiles/dfu_nrf52840_xxAA_s140_6.0.0.dir/__/__/mesh/serial/src/serial_bearer.c.obj
 .bss.m_tx_buffer
                0x0000000020003fc4       0xd0 CMakeFiles/dfu_nrf52840_xxAA_s140_6.0.0.dir/__/__/mesh/serial/src/serial_bearer.c.obj
 .bss.m_tx_packet_buf
                0x0000000020004094        0xc CMakeFiles/dfu_nrf52840_xxAA_s140_6.0.0.dir/__/__/mesh/serial/src/serial_bearer.c.obj
 .bss.mp_current_rx_packet
                0x00000000200040a0        0x4 CMakeFiles/dfu_nrf52840_xxAA_s140_6.0.0.dir/__/__/mesh/serial/src/serial_bearer.c.obj
 .bss.mp_current_tx_packet
                0x00000000200040a4        0x4 CMakeFiles/dfu_nrf52840_xxAA_s140_6.0.0.dir/__/__/mesh/serial/src/serial_bearer.c.obj
 .bss.rx_index.11781
                0x00000000200040a8        0x2 CMakeFiles/dfu_nrf52840_xxAA_s140_6.0.0.dir/__/__/mesh/serial/src/serial_bearer.c.obj
 .bss.m_cmd_handler_scheduled
                0x00000000200040aa        0x1 CMakeFiles/dfu_nrf52840_xxAA_s140_6.0.0.dir/__/__/mesh/serial/src/serial.c.obj
 .bss.m_state   0x00000000200040ab        0x1 CMakeFiles/dfu_nrf52840_xxAA_s140_6.0.0.dir/__/__/mesh/serial/src/serial.c.obj
 .bss.m_pb_adv_contexts
                0x00000000200040ac      0x388 CMakeFiles/dfu_nrf52840_xxAA_s140_6.0.0.dir/__/__/mesh/serial/src/serial_handler_prov.c.obj
 .bss.m_private_key
                0x0000000020004434       0x20 CMakeFiles/dfu_nrf52840_xxAA_s140_6.0.0.dir/__/__/mesh/serial/src/serial_handler_prov.c.obj
 .bss.m_prov_contexts
                0x0000000020004454      0x268 CMakeFiles/dfu_nrf52840_xxAA_s140_6.0.0.dir/__/__/mesh/serial/src/serial_handler_prov.c.obj
 .bss.m_provisioning_caps
                0x00000000200046bc        0xb CMakeFiles/dfu_nrf52840_xxAA_s140_6.0.0.dir/__/__/mesh/serial/src/serial_handler_prov.c.obj
 *fill*         0x00000000200046c7        0x1 
 .bss.m_public_key
                0x00000000200046c8       0x40 CMakeFiles/dfu_nrf52840_xxAA_s140_6.0.0.dir/__/__/mesh/serial/src/serial_handler_prov.c.obj
 .bss.m_scanning_running
                0x0000000020004708        0x1 CMakeFiles/dfu_nrf52840_xxAA_s140_6.0.0.dir/__/__/mesh/serial/src/serial_handler_prov.c.obj
 *fill*         0x0000000020004709        0x3 
 .bss.m_evt_handler
                0x000000002000470c        0x8 CMakeFiles/dfu_nrf52840_xxAA_s140_6.0.0.dir/__/__/mesh/serial/src/serial_handler_dfu.c.obj
 .bss.m_evt_handler
                0x0000000020004714        0x8 CMakeFiles/dfu_nrf52840_xxAA_s140_6.0.0.dir/__/__/mesh/serial/src/serial_handler_mesh.c.obj
 .bss.p_serial_evt.11967
                0x000000002000471c        0x4 CMakeFiles/dfu_nrf52840_xxAA_s140_6.0.0.dir/__/__/mesh/serial/src/serial_handler_mesh.c.obj
 .bss.m_models_list
                0x0000000020004720       0x18 CMakeFiles/dfu_nrf52840_xxAA_s140_6.0.0.dir/__/__/mesh/serial/src/serial_handler_models.c.obj
 .bss.m_beacons
                0x0000000020004738      0x138 CMakeFiles/dfu_nrf52840_xxAA_s140_6.0.0.dir/__/__/mesh/serial/src/serial_handler_device.c.obj
 .bss.m_app_rx_cb
                0x0000000020004870        0x4 CMakeFiles/dfu_nrf52840_xxAA_s140_6.0.0.dir/__/__/mesh/serial/src/serial_handler_app.c.obj
 .bss.m_evt_cb  0x0000000020004874        0x4 CMakeFiles/dfu_nrf52840_xxAA_s140_6.0.0.dir/__/__/models/config/src/config_server.c.obj
 .bss.m_heartbeat_publication
                0x0000000020004878       0x14 CMakeFiles/dfu_nrf52840_xxAA_s140_6.0.0.dir/__/__/models/config/src/config_server.c.obj
 .bss.m_node_reset_pending
                0x000000002000488c        0x1 CMakeFiles/dfu_nrf52840_xxAA_s140_6.0.0.dir/__/__/models/config/src/config_server.c.obj
 *fill*         0x000000002000488d        0x3 
 .bss.m_attention_timer
                0x0000000020004890       0x18 CMakeFiles/dfu_nrf52840_xxAA_s140_6.0.0.dir/__/__/models/health/src/health_server.c.obj
 .bss.mp_attention_list
                0x00000000200048a8        0x4 CMakeFiles/dfu_nrf52840_xxAA_s140_6.0.0.dir/__/__/models/health/src/health_server.c.obj
 .bss.m_event_handler
                0x00000000200048ac        0x4 CMakeFiles/dfu_nrf52840_xxAA_s140_6.0.0.dir/__/__/mesh/prov/src/prov_beacon.c.obj
 .bss.m_offload_ecdh
                0x00000000200048b0        0x1 CMakeFiles/dfu_nrf52840_xxAA_s140_6.0.0.dir/__/__/mesh/prov/src/prov_utils.c.obj
 *fill*         0x00000000200048b1        0x3 
 .bss.mp_bearer_head
                0x00000000200048b4        0x4 CMakeFiles/dfu_nrf52840_xxAA_s140_6.0.0.dir/__/__/mesh/prov/src/prov_bearer_adv.c.obj
 .bss.m_adv_packet
                0x00000000200048b8       0x28 CMakeFiles/dfu_nrf52840_xxAA_s140_6.0.0.dir/__/__/mesh/dfu/src/nrf_mesh_dfu.c.obj
 .bss.m_broadcast
                0x00000000200048e0       0x38 CMakeFiles/dfu_nrf52840_xxAA_s140_6.0.0.dir/__/__/mesh/dfu/src/nrf_mesh_dfu.c.obj
 .bss.m_prng    0x0000000020004918       0x10 CMakeFiles/dfu_nrf52840_xxAA_s140_6.0.0.dir/__/__/mesh/dfu/src/nrf_mesh_dfu.c.obj
 .bss.m_timer_evt
                0x0000000020004928       0x18 CMakeFiles/dfu_nrf52840_xxAA_s140_6.0.0.dir/__/__/mesh/dfu/src/nrf_mesh_dfu.c.obj
 .bss.m_transfer_state
                0x0000000020004940       0x12 CMakeFiles/dfu_nrf52840_xxAA_s140_6.0.0.dir/__/__/mesh/dfu/src/nrf_mesh_dfu.c.obj
 *fill*         0x0000000020004952        0x2 
 .bss.m_tx_slots
                0x0000000020004954      0x120 CMakeFiles/dfu_nrf52840_xxAA_s140_6.0.0.dir/__/__/mesh/dfu/src/nrf_mesh_dfu.c.obj
 .bss.m_tx_timer_evt
                0x0000000020004a74       0x18 CMakeFiles/dfu_nrf52840_xxAA_s140_6.0.0.dir/__/__/mesh/dfu/src/nrf_mesh_dfu.c.obj
 .bss.mp_curr_fwid
                0x0000000020004a8c        0x4 CMakeFiles/dfu_nrf52840_xxAA_s140_6.0.0.dir/__/__/mesh/dfu/src/nrf_mesh_dfu.c.obj
 .bss.m_uuid    0x0000000020004a90       0x10 CMakeFiles/dfu_nrf52840_xxAA_s140_6.0.0.dir/__/__/mesh/core/src/nrf_mesh_configure.c.obj
 .bss.m_msg_cache
                0x0000000020004aa0      0x100 CMakeFiles/dfu_nrf52840_xxAA_s140_6.0.0.dir/__/__/mesh/core/src/msg_cache.c.obj
 .bss.m_msg_cache_head
                0x0000000020004ba0        0x4 CMakeFiles/dfu_nrf52840_xxAA_s140_6.0.0.dir/__/__/mesh/core/src/msg_cache.c.obj
 .bss.m_control_packet_consumer_count
                0x0000000020004ba4        0x4 CMakeFiles/dfu_nrf52840_xxAA_s140_6.0.0.dir/__/__/mesh/core/src/transport.c.obj
 .bss.m_control_packet_consumers
                0x0000000020004ba8        0x8 CMakeFiles/dfu_nrf52840_xxAA_s140_6.0.0.dir/__/__/mesh/core/src/transport.c.obj
 .bss.m_sar_alloc
                0x0000000020004bb0        0x4 CMakeFiles/dfu_nrf52840_xxAA_s140_6.0.0.dir/__/__/mesh/core/src/transport.c.obj
 .bss.m_sar_process_flag
                0x0000000020004bb4        0x4 CMakeFiles/dfu_nrf52840_xxAA_s140_6.0.0.dir/__/__/mesh/core/src/transport.c.obj
 .bss.m_sar_release
                0x0000000020004bb8        0x4 CMakeFiles/dfu_nrf52840_xxAA_s140_6.0.0.dir/__/__/mesh/core/src/transport.c.obj
 .bss.m_sar_session_cache
                0x0000000020004bbc       0x40 CMakeFiles/dfu_nrf52840_xxAA_s140_6.0.0.dir/__/__/mesh/core/src/transport.c.obj
 .bss.m_sar_session_cache_head
                0x0000000020004bfc        0x4 CMakeFiles/dfu_nrf52840_xxAA_s140_6.0.0.dir/__/__/mesh/core/src/transport.c.obj
 .bss.m_trs_config
                0x0000000020004c00       0x18 CMakeFiles/dfu_nrf52840_xxAA_s140_6.0.0.dir/__/__/mesh/core/src/transport.c.obj
 .bss.m_trs_sar_sessions
                0x0000000020004c18      0x1b0 CMakeFiles/dfu_nrf52840_xxAA_s140_6.0.0.dir/__/__/mesh/core/src/transport.c.obj
 .bss.mp_evt_handlers_head
                0x0000000020004dc8        0x4 CMakeFiles/dfu_nrf52840_xxAA_s140_6.0.0.dir/__/__/mesh/core/src/event.c.obj
 .bss.m_defrag  0x0000000020004dcc       0x1c CMakeFiles/dfu_nrf52840_xxAA_s140_6.0.0.dir/__/__/mesh/core/src/flash_manager_defrag.c.obj
 .bss.m_token   0x0000000020004de8        0x2 CMakeFiles/dfu_nrf52840_xxAA_s140_6.0.0.dir/__/__/mesh/core/src/flash_manager_defrag.c.obj
 *fill*         0x0000000020004dea        0x2 
 .bss.mp_recovery_area
                0x0000000020004dec        0x4 CMakeFiles/dfu_nrf52840_xxAA_s140_6.0.0.dir/__/__/mesh/core/src/flash_manager_defrag.c.obj
 .bss.p_null_ptr.10695
                0x0000000020004df0        0x4 CMakeFiles/dfu_nrf52840_xxAA_s140_6.0.0.dir/__/__/mesh/core/src/flash_manager_defrag.c.obj
 .bss.m_pool    0x0000000020004df4     0x1000 CMakeFiles/dfu_nrf52840_xxAA_s140_6.0.0.dir/__/__/mesh/core/src/packet_mgr.c.obj
 .bss.mp_free_head
                0x0000000020005df4        0x4 CMakeFiles/dfu_nrf52840_xxAA_s140_6.0.0.dir/__/__/mesh/core/src/packet_mgr.c.obj
 .bss.iv_state_set.10350
                0x0000000020005df8        0x1 CMakeFiles/dfu_nrf52840_xxAA_s140_6.0.0.dir/__/__/mesh/core/src/net_state.c.obj
 *fill*         0x0000000020005df9        0x3 
 .bss.lock_count.10326
                0x0000000020005dfc        0x4 CMakeFiles/dfu_nrf52840_xxAA_s140_6.0.0.dir/__/__/mesh/core/src/net_state.c.obj
 .bss.m_flash_manager
                0x0000000020005e00       0x24 CMakeFiles/dfu_nrf52840_xxAA_s140_6.0.0.dir/__/__/mesh/core/src/net_state.c.obj
 .bss.m_iv_update_timer
                0x0000000020005e24       0x18 CMakeFiles/dfu_nrf52840_xxAA_s140_6.0.0.dir/__/__/mesh/core/src/net_state.c.obj
 .bss.m_mesh_evt_handler
                0x0000000020005e3c        0x8 CMakeFiles/dfu_nrf52840_xxAA_s140_6.0.0.dir/__/__/mesh/core/src/net_state.c.obj
 .bss.m_net_state
                0x0000000020005e44       0x14 CMakeFiles/dfu_nrf52840_xxAA_s140_6.0.0.dir/__/__/mesh/core/src/net_state.c.obj
 .bss.m_seqnum_allocation_in_progress
                0x0000000020005e58        0x1 CMakeFiles/dfu_nrf52840_xxAA_s140_6.0.0.dir/__/__/mesh/core/src/net_state.c.obj
 .bss.m_test_mode
                0x0000000020005e59        0x1 CMakeFiles/dfu_nrf52840_xxAA_s140_6.0.0.dir/__/__/mesh/core/src/net_state.c.obj
 *fill*         0x0000000020005e5a        0x2 
 .bss.m_event_flag
                0x0000000020005e5c        0x4 CMakeFiles/dfu_nrf52840_xxAA_s140_6.0.0.dir/__/__/mesh/core/src/mesh_flash.c.obj
 .bss.m_suspended
                0x0000000020005e60        0x1 CMakeFiles/dfu_nrf52840_xxAA_s140_6.0.0.dir/__/__/mesh/core/src/mesh_flash.c.obj
 *fill*         0x0000000020005e61        0x3 
 .bss.m_users   0x0000000020005e64      0x228 CMakeFiles/dfu_nrf52840_xxAA_s140_6.0.0.dir/__/__/mesh/core/src/mesh_flash.c.obj
 .bss.suspend_count.10577
                0x000000002000608c        0x4 CMakeFiles/dfu_nrf52840_xxAA_s140_6.0.0.dir/__/__/mesh/core/src/mesh_flash.c.obj
 .bss.m_is_enabled
                0x0000000020006090        0x1 CMakeFiles/dfu_nrf52840_xxAA_s140_6.0.0.dir/__/__/mesh/core/src/nrf_mesh.c.obj
 .bss.m_is_initialized
                0x0000000020006091        0x1 CMakeFiles/dfu_nrf52840_xxAA_s140_6.0.0.dir/__/__/mesh/core/src/nrf_mesh.c.obj
 *fill*         0x0000000020006092        0x2 
 .bss.m_rx_cb   0x0000000020006094        0x4 CMakeFiles/dfu_nrf52840_xxAA_s140_6.0.0.dir/__/__/mesh/core/src/nrf_mesh.c.obj
 .bss.m_128buf  0x0000000020006098       0x10 CMakeFiles/dfu_nrf52840_xxAA_s140_6.0.0.dir/__/__/mesh/core/src/aes_cmac.c.obj
 .bss.m_subkey1
                0x00000000200060a8       0x10 CMakeFiles/dfu_nrf52840_xxAA_s140_6.0.0.dir/__/__/mesh/core/src/aes_cmac.c.obj
 .bss.m_subkey2
                0x00000000200060b8       0x10 CMakeFiles/dfu_nrf52840_xxAA_s140_6.0.0.dir/__/__/mesh/core/src/aes_cmac.c.obj
 .bss.m_event_flag
                0x00000000200060c8        0x4 CMakeFiles/dfu_nrf52840_xxAA_s140_6.0.0.dir/__/__/mesh/core/src/timer_scheduler.c.obj
 .bss.m_scheduler
                0x00000000200060cc       0x10 CMakeFiles/dfu_nrf52840_xxAA_s140_6.0.0.dir/__/__/mesh/core/src/timer_scheduler.c.obj
 .bss.m_attributes
                0x00000000200060dc        0x3 CMakeFiles/dfu_nrf52840_xxAA_s140_6.0.0.dir/__/__/mesh/core/src/timer.c.obj
 *fill*         0x00000000200060df        0x1 
 .bss.m_callbacks
                0x00000000200060e0        0xc CMakeFiles/dfu_nrf52840_xxAA_s140_6.0.0.dir/__/__/mesh/core/src/timer.c.obj
 .bss.m_is_in_ts
                0x00000000200060ec        0x1 CMakeFiles/dfu_nrf52840_xxAA_s140_6.0.0.dir/__/__/mesh/core/src/timer.c.obj
 *fill*         0x00000000200060ed        0x3 
 .bss.m_reference_time
                0x00000000200060f0        0x4 CMakeFiles/dfu_nrf52840_xxAA_s140_6.0.0.dir/__/__/mesh/core/src/timer.c.obj
 .bss.m_timeouts
                0x00000000200060f4        0xc CMakeFiles/dfu_nrf52840_xxAA_s140_6.0.0.dir/__/__/mesh/core/src/timer.c.obj
 .bss.m_timer_mut
                0x0000000020006100        0x4 CMakeFiles/dfu_nrf52840_xxAA_s140_6.0.0.dir/__/__/mesh/core/src/timer.c.obj
 .bss.m_ts_end_time
                0x0000000020006104        0x4 CMakeFiles/dfu_nrf52840_xxAA_s140_6.0.0.dir/__/__/mesh/core/src/timer.c.obj
 .bss.mp_ppi_tasks
                0x0000000020006108        0xc CMakeFiles/dfu_nrf52840_xxAA_s140_6.0.0.dir/__/__/mesh/core/src/timer.c.obj
 .bss.m_current_time
                0x0000000020006114        0x4 CMakeFiles/dfu_nrf52840_xxAA_s140_6.0.0.dir/__/__/mesh/core/src/ticker.c.obj
 .bss.m_timer   0x0000000020006118       0x18 CMakeFiles/dfu_nrf52840_xxAA_s140_6.0.0.dir/__/__/mesh/core/src/ticker.c.obj
 .bss.m_current_timeslot
                0x0000000020006130       0x1c CMakeFiles/dfu_nrf52840_xxAA_s140_6.0.0.dir/__/__/mesh/core/src/timeslot.c.obj
 .bss.m_lfclk_ppm
                0x000000002000614c        0x4 CMakeFiles/dfu_nrf52840_xxAA_s140_6.0.0.dir/__/__/mesh/core/src/timeslot.c.obj
 .bss.m_radio_request_earliest
                0x0000000020006150       0x10 CMakeFiles/dfu_nrf52840_xxAA_s140_6.0.0.dir/__/__/mesh/core/src/timeslot.c.obj
 .bss.m_state_lock
                0x0000000020006160        0x1 CMakeFiles/dfu_nrf52840_xxAA_s140_6.0.0.dir/__/__/mesh/core/src/timeslot.c.obj
 .bss.m_timeslot_forced_command
                0x0000000020006161        0x1 CMakeFiles/dfu_nrf52840_xxAA_s140_6.0.0.dir/__/__/mesh/core/src/timeslot.c.obj
 *fill*         0x0000000020006162        0x6 
 .bss.s_last_rtc_value.9753
                0x0000000020006168        0x8 CMakeFiles/dfu_nrf52840_xxAA_s140_6.0.0.dir/__/__/mesh/core/src/timeslot.c.obj
 .bss.m_bearer_event_fifo
                0x0000000020006170       0x14 CMakeFiles/dfu_nrf52840_xxAA_s140_6.0.0.dir/__/__/mesh/core/src/bearer_event.c.obj
 .bss.m_bearer_event_fifo_buffer
                0x0000000020006184      0x100 CMakeFiles/dfu_nrf52840_xxAA_s140_6.0.0.dir/__/__/mesh/core/src/bearer_event.c.obj
 .bss.m_critical
                0x0000000020006284        0x4 CMakeFiles/dfu_nrf52840_xxAA_s140_6.0.0.dir/__/__/mesh/core/src/bearer_event.c.obj
 .bss.m_flag_count
                0x0000000020006288        0x4 CMakeFiles/dfu_nrf52840_xxAA_s140_6.0.0.dir/__/__/mesh/core/src/bearer_event.c.obj
 .bss.m_flag_event_callbacks
                0x000000002000628c       0x20 CMakeFiles/dfu_nrf52840_xxAA_s140_6.0.0.dir/__/__/mesh/core/src/bearer_event.c.obj
 .bss.m_flags   0x00000000200062ac        0x4 CMakeFiles/dfu_nrf52840_xxAA_s140_6.0.0.dir/__/__/mesh/core/src/bearer_event.c.obj
 .bss.m_irq_priority
                0x00000000200062b0        0x1 CMakeFiles/dfu_nrf52840_xxAA_s140_6.0.0.dir/__/__/mesh/core/src/bearer_event.c.obj
 *fill*         0x00000000200062b1        0x3 
 .bss.m_sequential_event_queue
                0x00000000200062b4        0x8 CMakeFiles/dfu_nrf52840_xxAA_s140_6.0.0.dir/__/__/mesh/core/src/bearer_event.c.obj
 .bss.s_recursion_guard.9884
                0x00000000200062bc        0x1 CMakeFiles/dfu_nrf52840_xxAA_s140_6.0.0.dir/__/__/mesh/core/src/bearer_event.c.obj
 *fill*         0x00000000200062bd        0x3 
 .bss.m_relay_check_cb
                0x00000000200062c0        0x4 CMakeFiles/dfu_nrf52840_xxAA_s140_6.0.0.dir/__/__/mesh/core/src/network.c.obj
 .bss.m_relay_enable
                0x00000000200062c4        0x1 CMakeFiles/dfu_nrf52840_xxAA_s140_6.0.0.dir/__/__/mesh/core/src/network.c.obj
 *fill*         0x00000000200062c5        0x3 
 .bss.m_action_queue
                0x00000000200062c8        0xc CMakeFiles/dfu_nrf52840_xxAA_s140_6.0.0.dir/__/__/mesh/core/src/flash_manager.c.obj
 .bss.m_action_queue_buffer
                0x00000000200062d4      0x104 CMakeFiles/dfu_nrf52840_xxAA_s140_6.0.0.dir/__/__/mesh/core/src/flash_manager.c.obj
 .bss.m_action_state
                0x00000000200063d8        0x1 CMakeFiles/dfu_nrf52840_xxAA_s140_6.0.0.dir/__/__/mesh/core/src/flash_manager.c.obj
 *fill*         0x00000000200063d9        0x3 
 .bss.m_memory_listener_queue
                0x00000000200063dc        0x8 CMakeFiles/dfu_nrf52840_xxAA_s140_6.0.0.dir/__/__/mesh/core/src/flash_manager.c.obj
 .bss.m_processing_flag
                0x00000000200063e4        0x4 CMakeFiles/dfu_nrf52840_xxAA_s140_6.0.0.dir/__/__/mesh/core/src/flash_manager.c.obj
 .bss.m_queue_empty_cb
                0x00000000200063e8        0x4 CMakeFiles/dfu_nrf52840_xxAA_s140_6.0.0.dir/__/__/mesh/core/src/flash_manager.c.obj
 .bss.m_state   0x00000000200063ec        0x1 CMakeFiles/dfu_nrf52840_xxAA_s140_6.0.0.dir/__/__/mesh/core/src/flash_manager.c.obj
 *fill*         0x00000000200063ed        0x1 
 .bss.m_token   0x00000000200063ee        0x2 CMakeFiles/dfu_nrf52840_xxAA_s140_6.0.0.dir/__/__/mesh/core/src/flash_manager.c.obj
 .bss.p_current.11639
                0x00000000200063f0        0x4 CMakeFiles/dfu_nrf52840_xxAA_s140_6.0.0.dir/__/__/mesh/core/src/flash_manager.c.obj
 .bss.result.11640
                0x00000000200063f4        0x1 CMakeFiles/dfu_nrf52840_xxAA_s140_6.0.0.dir/__/__/mesh/core/src/flash_manager.c.obj
 .bss.m_cache_index
                0x00000000200063f5        0x1 CMakeFiles/dfu_nrf52840_xxAA_s140_6.0.0.dir/__/__/mesh/core/src/replay_cache.c.obj
 *fill*         0x00000000200063f6        0x2 
 .bss.m_replay_cache
                0x00000000200063f8      0x200 CMakeFiles/dfu_nrf52840_xxAA_s140_6.0.0.dir/__/__/mesh/core/src/replay_cache.c.obj
 .bss.m_bearer_count
                0x00000000200065f8        0x1 CMakeFiles/dfu_nrf52840_xxAA_s140_6.0.0.dir/__/__/mesh/core/src/core_tx.c.obj
 *fill*         0x00000000200065f9        0x3 
 .bss.m_tx_complete_callback
                0x00000000200065fc        0x4 CMakeFiles/dfu_nrf52840_xxAA_s140_6.0.0.dir/__/__/mesh/core/src/core_tx.c.obj
 .bss.mp_bearers
                0x0000000020006600        0x4 CMakeFiles/dfu_nrf52840_xxAA_s140_6.0.0.dir/__/__/mesh/core/src/core_tx.c.obj
 .bss.m_hb_core_evt_handler
                0x0000000020006604        0x8 CMakeFiles/dfu_nrf52840_xxAA_s140_6.0.0.dir/__/__/mesh/core/src/heartbeat.c.obj
 .bss.m_hb_pending_feat_msg
                0x000000002000660c        0x1 CMakeFiles/dfu_nrf52840_xxAA_s140_6.0.0.dir/__/__/mesh/core/src/heartbeat.c.obj
 .bss.m_hb_pending_pub_msg
                0x000000002000660d        0x1 CMakeFiles/dfu_nrf52840_xxAA_s140_6.0.0.dir/__/__/mesh/core/src/heartbeat.c.obj
 .bss.m_heartbeat_init_done
                0x000000002000660e        0x1 CMakeFiles/dfu_nrf52840_xxAA_s140_6.0.0.dir/__/__/mesh/core/src/heartbeat.c.obj
 *fill*         0x000000002000660f        0x1 
 .bss.m_heartbeat_subscription
                0x0000000020006610       0x10 CMakeFiles/dfu_nrf52840_xxAA_s140_6.0.0.dir/__/__/mesh/core/src/heartbeat.c.obj
 .bss.m_publication_count_decrement_cb
                0x0000000020006620        0x4 CMakeFiles/dfu_nrf52840_xxAA_s140_6.0.0.dir/__/__/mesh/core/src/heartbeat.c.obj
 .bss.m_publication_get_cb
                0x0000000020006624        0x4 CMakeFiles/dfu_nrf52840_xxAA_s140_6.0.0.dir/__/__/mesh/core/src/heartbeat.c.obj
 .bss.m_publication_timer
                0x0000000020006628       0x1c CMakeFiles/dfu_nrf52840_xxAA_s140_6.0.0.dir/__/__/mesh/core/src/heartbeat.c.obj
 .bss.m_subscription_timer
                0x0000000020006644       0x18 CMakeFiles/dfu_nrf52840_xxAA_s140_6.0.0.dir/__/__/mesh/core/src/heartbeat.c.obj
 .bss.m_adv     0x000000002000665c       0x98 CMakeFiles/dfu_nrf52840_xxAA_s140_6.0.0.dir/__/__/mesh/core/src/net_beacon.c.obj
 .bss.m_adv_buf
                0x00000000200066f4       0x34 CMakeFiles/dfu_nrf52840_xxAA_s140_6.0.0.dir/__/__/mesh/core/src/net_beacon.c.obj
 .bss.m_beacon_salt
                0x0000000020006728       0x10 CMakeFiles/dfu_nrf52840_xxAA_s140_6.0.0.dir/__/__/mesh/core/src/net_beacon.c.obj
 .bss.m_enabled
                0x0000000020006738        0x1 CMakeFiles/dfu_nrf52840_xxAA_s140_6.0.0.dir/__/__/mesh/core/src/net_beacon.c.obj
 *fill*         0x0000000020006739        0x3 
 .bss.m_tx_timer
                0x000000002000673c       0x18 CMakeFiles/dfu_nrf52840_xxAA_s140_6.0.0.dir/__/__/mesh/core/src/net_beacon.c.obj
 .bss.mp_beacon_info
                0x0000000020006754        0x4 CMakeFiles/dfu_nrf52840_xxAA_s140_6.0.0.dir/__/__/mesh/core/src/net_beacon.c.obj
 .bss.m_bearer  0x0000000020006758        0xc CMakeFiles/dfu_nrf52840_xxAA_s140_6.0.0.dir/__/__/mesh/core/src/core_tx_adv.c.obj
 .bss.m_bearer_roles
                0x0000000020006764      0x138 CMakeFiles/dfu_nrf52840_xxAA_s140_6.0.0.dir/__/__/mesh/core/src/core_tx_adv.c.obj
 .bss.m_current_alloc
                0x000000002000689c        0x8 CMakeFiles/dfu_nrf52840_xxAA_s140_6.0.0.dir/__/__/mesh/core/src/core_tx_adv.c.obj
 .bss.m_originator_adv_packet_buffer
                0x00000000200068a4      0x100 CMakeFiles/dfu_nrf52840_xxAA_s140_6.0.0.dir/__/__/mesh/core/src/core_tx_adv.c.obj
 .bss.m_relay_adv_packet_buffer
                0x00000000200069a4       0x80 CMakeFiles/dfu_nrf52840_xxAA_s140_6.0.0.dir/__/__/mesh/core/src/core_tx_adv.c.obj
 .bss.m_subscribers
                0x0000000020006a24        0x4 CMakeFiles/dfu_nrf52840_xxAA_s140_6.0.0.dir/__/__/mesh/bearer/src/ad_listener.c.obj
 .bss.m_adtype_filter
                0x0000000020006a28       0x38 CMakeFiles/dfu_nrf52840_xxAA_s140_6.0.0.dir/__/__/mesh/bearer/src/ad_type_filter.c.obj
 .bss.m_adv_prng
                0x0000000020006a60       0x10 CMakeFiles/dfu_nrf52840_xxAA_s140_6.0.0.dir/__/__/mesh/bearer/src/advertiser.c.obj
 .bss.m_action_queue
                0x0000000020006a70        0x8 CMakeFiles/dfu_nrf52840_xxAA_s140_6.0.0.dir/__/__/mesh/bearer/src/bearer_handler.c.obj
 .bss.m_end_time
                0x0000000020006a78        0x4 CMakeFiles/dfu_nrf52840_xxAA_s140_6.0.0.dir/__/__/mesh/bearer/src/bearer_handler.c.obj
 .bss.m_scanner_is_active
                0x0000000020006a7c        0x1 CMakeFiles/dfu_nrf52840_xxAA_s140_6.0.0.dir/__/__/mesh/bearer/src/bearer_handler.c.obj
 .bss.m_stopped
                0x0000000020006a7d        0x1 CMakeFiles/dfu_nrf52840_xxAA_s140_6.0.0.dir/__/__/mesh/bearer/src/bearer_handler.c.obj
 *fill*         0x0000000020006a7e        0x2 
 .bss.mp_action
                0x0000000020006a80        0x4 CMakeFiles/dfu_nrf52840_xxAA_s140_6.0.0.dir/__/__/mesh/bearer/src/bearer_handler.c.obj
 .bss.m_next_channel_index
                0x0000000020006a84        0x1 CMakeFiles/dfu_nrf52840_xxAA_s140_6.0.0.dir/__/__/mesh/bearer/src/broadcast.c.obj
 *fill*         0x0000000020006a85        0x3 
 .bss.m_accepted_amount
                0x0000000020006a88        0x4 CMakeFiles/dfu_nrf52840_xxAA_s140_6.0.0.dir/__/__/mesh/bearer/src/filter_engine.c.obj
 .bss.m_filter_list_head
                0x0000000020006a8c        0x4 CMakeFiles/dfu_nrf52840_xxAA_s140_6.0.0.dir/__/__/mesh/bearer/src/filter_engine.c.obj
 .bss.m_scanner
                0x0000000020006a90      0x290 CMakeFiles/dfu_nrf52840_xxAA_s140_6.0.0.dir/__/__/mesh/bearer/src/scanner.c.obj
 .bss._acDownBuffer
                0x0000000020006d20       0x80 ../../external/rtt/librtt_nrf52840_xxAA.a(SEGGER_RTT.c.obj)
 .bss._acUpBuffer
                0x0000000020006da0      0x400 ../../external/rtt/librtt_nrf52840_xxAA.a(SEGGER_RTT.c.obj)
 .bss.__malloc_free_list
                0x00000000200071a0        0x4 /usr/bin/../lib/gcc/arm-none-eabi/7.2.1/../../../../arm-none-eabi/lib/thumb/v7e-m/fpv4-sp/hard/libg_nano.a(lib_a-nano-mallocr.o)
                0x00000000200071a0                __malloc_free_list
 .bss.__malloc_sbrk_start
                0x00000000200071a4        0x4 /usr/bin/../lib/gcc/arm-none-eabi/7.2.1/../../../../arm-none-eabi/lib/thumb/v7e-m/fpv4-sp/hard/libg_nano.a(lib_a-nano-mallocr.o)
                0x00000000200071a4                __malloc_sbrk_start
 .bss.heap_end.5377
                0x00000000200071a8        0x4 /usr/bin/../lib/gcc/arm-none-eabi/7.2.1/../../../../arm-none-eabi/lib/thumb/v7e-m/fpv4-sp/hard/libnosys.a(sbrk.o)
 *(COMMON)
 COMMON         0x00000000200071ac        0x8 CMakeFiles/dfu_nrf52840_xxAA_s140_6.0.0.dir/src/main.c.obj
                0x00000000200071ac                bank_addr
                0x00000000200071b0                rom_length
 COMMON         0x00000000200071b4        0xc CMakeFiles/dfu_nrf52840_xxAA_s140_6.0.0.dir/__/common/src/mesh_softdevice_init.c.obj
                0x00000000200071b4                nrf_nvic_state
 COMMON         0x00000000200071c0        0x4 CMakeFiles/dfu_nrf52840_xxAA_s140_6.0.0.dir/__/__/mesh/dfu/src/nrf_mesh_dfu.c.obj
                0x00000000200071c0                m_cmd_handler
 COMMON         0x00000000200071c4       0x24 CMakeFiles/dfu_nrf52840_xxAA_s140_6.0.0.dir/__/__/mesh/core/src/core_tx.c.obj
                0x00000000200071c4                m_packet
 COMMON         0x00000000200071e8       0x78 ../../external/rtt/librtt_nrf52840_xxAA.a(SEGGER_RTT.c.obj)
                0x00000000200071e8                _SEGGER_RTT
 COMMON         0x0000000020007260        0x4 /usr/bin/../lib/gcc/arm-none-eabi/7.2.1/../../../../arm-none-eabi/lib/thumb/v7e-m/fpv4-sp/hard/libg_nano.a(lib_a-reent.o)
                0x0000000020007260                errno
                0x0000000020007264                . = ALIGN (0x4)
                0x0000000020007264                __bss_end__ = .

.heap           0x0000000020007268     0x2000
                0x0000000020007268                __HeapBase = .
                0x0000000020007268                __end__ = .
                0x0000000020007268                PROVIDE (end, .)
 *(.heap*)
 .heap          0x0000000020007268     0x2000 CMakeFiles/dfu_nrf52840_xxAA_s140_6.0.0.dir/home/mazzer/work/nordic/sdk/nRF5_SDK_15.0.0/modules/nrfx/mdk/gcc_startup_nrf52840.S.obj
                0x0000000020009268                __HeapLimit = .

.stack_dummy    0x0000000020007268     0x2000
 *(.stack*)
 .stack         0x0000000020007268     0x2000 CMakeFiles/dfu_nrf52840_xxAA_s140_6.0.0.dir/home/mazzer/work/nordic/sdk/nRF5_SDK_15.0.0/modules/nrfx/mdk/gcc_startup_nrf52840.S.obj
                0x000000002003fd00                __StackTop = (ORIGIN (RAM) + LENGTH (RAM))
                0x000000002003dd00                __StackLimit = (__StackTop - SIZEOF (.stack_dummy))
                0x000000002003fd00                PROVIDE (__stack, __StackTop)
                0x0000000000000001                ASSERT ((__StackLimit >= __HeapLimit), region RAM overflowed with stack)
                0x0000000000000148                DataInitFlashUsed = (__bss_start__ - __data_start__)
                0x0000000000023514                CodeFlashUsed = (__etext - ORIGIN (FLASH))
                0x000000000002365c                TotalFlashUsed = (CodeFlashUsed + DataInitFlashUsed)
                0x0000000000000001                ASSERT ((TotalFlashUsed <= LENGTH (FLASH)), region FLASH overflowed with .data and user data)
OUTPUT(dfu_nrf52840_xxAA_s140_6.0.0.elf elf32-littlearm)

.ARM.attributes
                0x0000000000000000       0x30
 .ARM.attributes
                0x0000000000000000       0x22 /usr/bin/../lib/gcc/arm-none-eabi/7.2.1/thumb/v7e-m/fpv4-sp/hard/crti.o
 .ARM.attributes
                0x0000000000000022       0x34 /usr/bin/../lib/gcc/arm-none-eabi/7.2.1/thumb/v7e-m/fpv4-sp/hard/crtbegin.o
 .ARM.attributes
                0x0000000000000056       0x20 /usr/bin/../lib/gcc/arm-none-eabi/7.2.1/../../../../arm-none-eabi/lib/thumb/v7e-m/fpv4-sp/hard/crt0.o
 .ARM.attributes
                0x0000000000000076       0x39 CMakeFiles/dfu_nrf52840_xxAA_s140_6.0.0.dir/src/main.c.obj
 .ARM.attributes
                0x00000000000000af       0x39 CMakeFiles/dfu_nrf52840_xxAA_s140_6.0.0.dir/__/__/mesh/stack/src/mesh_stack.c.obj
 .ARM.attributes
                0x00000000000000e8       0x39 CMakeFiles/dfu_nrf52840_xxAA_s140_6.0.0.dir/__/common/src/mesh_softdevice_init.c.obj
 .ARM.attributes
                0x0000000000000121       0x39 CMakeFiles/dfu_nrf52840_xxAA_s140_6.0.0.dir/__/common/src/mesh_provisionee.c.obj
 .ARM.attributes
                0x000000000000015a       0x39 CMakeFiles/dfu_nrf52840_xxAA_s140_6.0.0.dir/__/common/src/simple_hal.c.obj
 .ARM.attributes
                0x0000000000000193       0x39 CMakeFiles/dfu_nrf52840_xxAA_s140_6.0.0.dir/__/__/mesh/access/src/access_publish.c.obj
 .ARM.attributes
                0x00000000000001cc       0x39 CMakeFiles/dfu_nrf52840_xxAA_s140_6.0.0.dir/__/__/mesh/access/src/access.c.obj
 .ARM.attributes
                0x0000000000000205       0x39 CMakeFiles/dfu_nrf52840_xxAA_s140_6.0.0.dir/__/__/mesh/access/src/access_reliable.c.obj
 .ARM.attributes
                0x000000000000023e       0x39 CMakeFiles/dfu_nrf52840_xxAA_s140_6.0.0.dir/__/__/mesh/access/src/device_state_manager.c.obj
 .ARM.attributes
                0x0000000000000277       0x39 CMakeFiles/dfu_nrf52840_xxAA_s140_6.0.0.dir/__/__/mesh/serial/src/serial_uart.c.obj
 .ARM.attributes
                0x00000000000002b0       0x39 CMakeFiles/dfu_nrf52840_xxAA_s140_6.0.0.dir/__/__/mesh/serial/src/serial_bearer.c.obj
 .ARM.attributes
                0x00000000000002e9       0x39 CMakeFiles/dfu_nrf52840_xxAA_s140_6.0.0.dir/__/__/mesh/serial/src/serial_handler_common.c.obj
 .ARM.attributes
                0x0000000000000322       0x39 CMakeFiles/dfu_nrf52840_xxAA_s140_6.0.0.dir/__/__/mesh/serial/src/serial_handler_access.c.obj
 .ARM.attributes
                0x000000000000035b       0x39 CMakeFiles/dfu_nrf52840_xxAA_s140_6.0.0.dir/__/__/mesh/serial/src/serial_handler_config.c.obj
 .ARM.attributes
                0x0000000000000394       0x39 CMakeFiles/dfu_nrf52840_xxAA_s140_6.0.0.dir/__/__/mesh/serial/src/serial_handler_openmesh.c.obj
 .ARM.attributes
                0x00000000000003cd       0x39 CMakeFiles/dfu_nrf52840_xxAA_s140_6.0.0.dir/__/__/mesh/serial/src/serial.c.obj
 .ARM.attributes
                0x0000000000000406       0x39 CMakeFiles/dfu_nrf52840_xxAA_s140_6.0.0.dir/__/__/mesh/serial/src/serial_handler_prov.c.obj
 .ARM.attributes
                0x000000000000043f       0x39 CMakeFiles/dfu_nrf52840_xxAA_s140_6.0.0.dir/__/__/mesh/serial/src/serial_handler_dfu.c.obj
 .ARM.attributes
                0x0000000000000478       0x39 CMakeFiles/dfu_nrf52840_xxAA_s140_6.0.0.dir/__/__/mesh/serial/src/serial_handler_mesh.c.obj
 .ARM.attributes
                0x00000000000004b1       0x39 CMakeFiles/dfu_nrf52840_xxAA_s140_6.0.0.dir/__/__/mesh/serial/src/serial_handler_models.c.obj
 .ARM.attributes
                0x00000000000004ea       0x39 CMakeFiles/dfu_nrf52840_xxAA_s140_6.0.0.dir/__/__/mesh/serial/src/serial_handler_device.c.obj
 .ARM.attributes
                0x0000000000000523       0x39 CMakeFiles/dfu_nrf52840_xxAA_s140_6.0.0.dir/__/__/mesh/serial/src/nrf_mesh_serial.c.obj
 .ARM.attributes
                0x000000000000055c       0x39 CMakeFiles/dfu_nrf52840_xxAA_s140_6.0.0.dir/__/__/mesh/serial/src/serial_handler_app.c.obj
 .ARM.attributes
                0x0000000000000595       0x39 CMakeFiles/dfu_nrf52840_xxAA_s140_6.0.0.dir/__/__/models/config/src/composition_data.c.obj
 .ARM.attributes
                0x00000000000005ce       0x39 CMakeFiles/dfu_nrf52840_xxAA_s140_6.0.0.dir/__/__/models/config/src/config_server.c.obj
 .ARM.attributes
                0x0000000000000607       0x39 CMakeFiles/dfu_nrf52840_xxAA_s140_6.0.0.dir/__/__/models/config/src/packed_index_list.c.obj
 .ARM.attributes
                0x0000000000000640       0x39 CMakeFiles/dfu_nrf52840_xxAA_s140_6.0.0.dir/__/__/models/health/src/health_server.c.obj
 .ARM.attributes
                0x0000000000000679       0x39 CMakeFiles/dfu_nrf52840_xxAA_s140_6.0.0.dir/__/__/mesh/prov/src/prov_provisioner.c.obj
 .ARM.attributes
                0x00000000000006b2       0x39 CMakeFiles/dfu_nrf52840_xxAA_s140_6.0.0.dir/__/__/mesh/prov/src/prov_provisionee.c.obj
 .ARM.attributes
                0x00000000000006eb       0x39 CMakeFiles/dfu_nrf52840_xxAA_s140_6.0.0.dir/__/__/mesh/prov/src/nrf_mesh_prov.c.obj
 .ARM.attributes
                0x0000000000000724       0x39 CMakeFiles/dfu_nrf52840_xxAA_s140_6.0.0.dir/__/__/mesh/prov/src/provisioning.c.obj
 .ARM.attributes
                0x000000000000075d       0x39 CMakeFiles/dfu_nrf52840_xxAA_s140_6.0.0.dir/__/__/mesh/prov/src/prov_beacon.c.obj
 .ARM.attributes
                0x0000000000000796       0x39 CMakeFiles/dfu_nrf52840_xxAA_s140_6.0.0.dir/__/__/mesh/prov/src/prov_utils.c.obj
 .ARM.attributes
                0x00000000000007cf       0x39 CMakeFiles/dfu_nrf52840_xxAA_s140_6.0.0.dir/__/__/mesh/prov/src/prov_bearer_adv.c.obj
 .ARM.attributes
                0x0000000000000808       0x39 CMakeFiles/dfu_nrf52840_xxAA_s140_6.0.0.dir/__/__/mesh/dfu/src/nrf_mesh_dfu.c.obj
 .ARM.attributes
                0x0000000000000841       0x39 CMakeFiles/dfu_nrf52840_xxAA_s140_6.0.0.dir/__/common/src/app_error_weak.c.obj
 .ARM.attributes
                0x000000000000087a       0x39 CMakeFiles/dfu_nrf52840_xxAA_s140_6.0.0.dir/__/common/src/assertion_handler_weak.c.obj
 .ARM.attributes
                0x00000000000008b3       0x39 CMakeFiles/dfu_nrf52840_xxAA_s140_6.0.0.dir/__/__/mesh/core/src/nrf_mesh_configure.c.obj
 .ARM.attributes
                0x00000000000008ec       0x39 CMakeFiles/dfu_nrf52840_xxAA_s140_6.0.0.dir/__/__/mesh/core/src/aes.c.obj
 .ARM.attributes
                0x0000000000000925       0x39 CMakeFiles/dfu_nrf52840_xxAA_s140_6.0.0.dir/__/__/mesh/core/src/msg_cache.c.obj
 .ARM.attributes
                0x000000000000095e       0x39 CMakeFiles/dfu_nrf52840_xxAA_s140_6.0.0.dir/__/__/mesh/core/src/transport.c.obj
 .ARM.attributes
                0x0000000000000997       0x39 CMakeFiles/dfu_nrf52840_xxAA_s140_6.0.0.dir/__/__/mesh/core/src/event.c.obj
 .ARM.attributes
                0x00000000000009d0       0x39 CMakeFiles/dfu_nrf52840_xxAA_s140_6.0.0.dir/__/__/mesh/core/src/packet_buffer.c.obj
 .ARM.attributes
                0x0000000000000a09       0x39 CMakeFiles/dfu_nrf52840_xxAA_s140_6.0.0.dir/__/__/mesh/core/src/flash_manager_defrag.c.obj
 .ARM.attributes
                0x0000000000000a42       0x39 CMakeFiles/dfu_nrf52840_xxAA_s140_6.0.0.dir/__/__/mesh/core/src/fifo.c.obj
 .ARM.attributes
                0x0000000000000a7b       0x39 CMakeFiles/dfu_nrf52840_xxAA_s140_6.0.0.dir/__/__/mesh/core/src/nrf_flash.c.obj
 .ARM.attributes
                0x0000000000000ab4       0x39 CMakeFiles/dfu_nrf52840_xxAA_s140_6.0.0.dir/__/__/mesh/core/src/packet_mgr.c.obj
 .ARM.attributes
                0x0000000000000aed       0x39 CMakeFiles/dfu_nrf52840_xxAA_s140_6.0.0.dir/__/__/mesh/core/src/net_state.c.obj
 .ARM.attributes
                0x0000000000000b26       0x39 CMakeFiles/dfu_nrf52840_xxAA_s140_6.0.0.dir/__/__/mesh/core/src/mesh_flash.c.obj
 .ARM.attributes
                0x0000000000000b5f       0x39 CMakeFiles/dfu_nrf52840_xxAA_s140_6.0.0.dir/__/__/mesh/core/src/nrf_mesh_utils.c.obj
 .ARM.attributes
                0x0000000000000b98       0x39 CMakeFiles/dfu_nrf52840_xxAA_s140_6.0.0.dir/__/__/mesh/core/src/nrf_mesh.c.obj
 .ARM.attributes
                0x0000000000000bd1       0x39 CMakeFiles/dfu_nrf52840_xxAA_s140_6.0.0.dir/__/__/mesh/core/src/queue.c.obj
 .ARM.attributes
                0x0000000000000c0a       0x39 CMakeFiles/dfu_nrf52840_xxAA_s140_6.0.0.dir/__/__/mesh/core/src/hal.c.obj
 .ARM.attributes
                0x0000000000000c43       0x39 CMakeFiles/dfu_nrf52840_xxAA_s140_6.0.0.dir/__/__/mesh/core/src/aes_cmac.c.obj
 .ARM.attributes
                0x0000000000000c7c       0x39 CMakeFiles/dfu_nrf52840_xxAA_s140_6.0.0.dir/__/__/mesh/core/src/timer_scheduler.c.obj
 .ARM.attributes
                0x0000000000000cb5       0x39 CMakeFiles/dfu_nrf52840_xxAA_s140_6.0.0.dir/__/__/mesh/core/src/timer.c.obj
 .ARM.attributes
                0x0000000000000cee       0x39 CMakeFiles/dfu_nrf52840_xxAA_s140_6.0.0.dir/__/__/mesh/core/src/ticker.c.obj
 .ARM.attributes
                0x0000000000000d27       0x39 CMakeFiles/dfu_nrf52840_xxAA_s140_6.0.0.dir/__/__/mesh/core/src/rand.c.obj
 .ARM.attributes
                0x0000000000000d60       0x39 CMakeFiles/dfu_nrf52840_xxAA_s140_6.0.0.dir/__/__/mesh/core/src/nrf_mesh_opt.c.obj
 .ARM.attributes
                0x0000000000000d99       0x39 CMakeFiles/dfu_nrf52840_xxAA_s140_6.0.0.dir/__/__/mesh/core/src/timeslot.c.obj
 .ARM.attributes
                0x0000000000000dd2       0x39 CMakeFiles/dfu_nrf52840_xxAA_s140_6.0.0.dir/__/__/mesh/core/src/bearer_event.c.obj
 .ARM.attributes
                0x0000000000000e0b       0x39 CMakeFiles/dfu_nrf52840_xxAA_s140_6.0.0.dir/__/__/mesh/core/src/enc.c.obj
 .ARM.attributes
                0x0000000000000e44       0x39 CMakeFiles/dfu_nrf52840_xxAA_s140_6.0.0.dir/__/__/mesh/core/src/network.c.obj
 .ARM.attributes
                0x0000000000000e7d       0x39 CMakeFiles/dfu_nrf52840_xxAA_s140_6.0.0.dir/__/__/mesh/core/src/net_packet.c.obj
 .ARM.attributes
                0x0000000000000eb6       0x39 CMakeFiles/dfu_nrf52840_xxAA_s140_6.0.0.dir/__/__/mesh/core/src/msqueue.c.obj
 .ARM.attributes
                0x0000000000000eef       0x39 CMakeFiles/dfu_nrf52840_xxAA_s140_6.0.0.dir/__/__/mesh/core/src/nrf_mesh_keygen.c.obj
 .ARM.attributes
                0x0000000000000f28       0x39 CMakeFiles/dfu_nrf52840_xxAA_s140_6.0.0.dir/__/__/mesh/core/src/list.c.obj
 .ARM.attributes
                0x0000000000000f61       0x39 CMakeFiles/dfu_nrf52840_xxAA_s140_6.0.0.dir/__/__/mesh/core/src/log.c.obj
 .ARM.attributes
                0x0000000000000f9a       0x39 CMakeFiles/dfu_nrf52840_xxAA_s140_6.0.0.dir/__/__/mesh/core/src/flash_manager.c.obj
 .ARM.attributes
                0x0000000000000fd3       0x39 CMakeFiles/dfu_nrf52840_xxAA_s140_6.0.0.dir/__/__/mesh/core/src/ccm_soft.c.obj
 .ARM.attributes
                0x000000000000100c       0x39 CMakeFiles/dfu_nrf52840_xxAA_s140_6.0.0.dir/__/__/mesh/core/src/replay_cache.c.obj
 .ARM.attributes
                0x0000000000001045       0x39 CMakeFiles/dfu_nrf52840_xxAA_s140_6.0.0.dir/__/__/mesh/core/src/beacon.c.obj
 .ARM.attributes
                0x000000000000107e       0x39 CMakeFiles/dfu_nrf52840_xxAA_s140_6.0.0.dir/__/__/mesh/core/src/flash_manager_internal.c.obj
 .ARM.attributes
                0x00000000000010b7       0x39 CMakeFiles/dfu_nrf52840_xxAA_s140_6.0.0.dir/__/__/mesh/core/src/core_tx.c.obj
 .ARM.attributes
                0x00000000000010f0       0x39 CMakeFiles/dfu_nrf52840_xxAA_s140_6.0.0.dir/__/__/mesh/core/src/heartbeat.c.obj
 .ARM.attributes
                0x0000000000001129       0x39 CMakeFiles/dfu_nrf52840_xxAA_s140_6.0.0.dir/__/__/mesh/core/src/net_beacon.c.obj
 .ARM.attributes
                0x0000000000001162       0x39 CMakeFiles/dfu_nrf52840_xxAA_s140_6.0.0.dir/__/__/mesh/core/src/core_tx_adv.c.obj
 .ARM.attributes
                0x000000000000119b       0x39 CMakeFiles/dfu_nrf52840_xxAA_s140_6.0.0.dir/__/__/mesh/bearer/src/ad_listener.c.obj
 .ARM.attributes
                0x00000000000011d4       0x39 CMakeFiles/dfu_nrf52840_xxAA_s140_6.0.0.dir/__/__/mesh/bearer/src/ad_type_filter.c.obj
 .ARM.attributes
                0x000000000000120d       0x39 CMakeFiles/dfu_nrf52840_xxAA_s140_6.0.0.dir/__/__/mesh/bearer/src/advertiser.c.obj
 .ARM.attributes
                0x0000000000001246       0x39 CMakeFiles/dfu_nrf52840_xxAA_s140_6.0.0.dir/__/__/mesh/bearer/src/bearer_handler.c.obj
 .ARM.attributes
                0x000000000000127f       0x39 CMakeFiles/dfu_nrf52840_xxAA_s140_6.0.0.dir/__/__/mesh/bearer/src/broadcast.c.obj
 .ARM.attributes
                0x00000000000012b8       0x39 CMakeFiles/dfu_nrf52840_xxAA_s140_6.0.0.dir/__/__/mesh/bearer/src/filter_engine.c.obj
 .ARM.attributes
                0x00000000000012f1       0x39 CMakeFiles/dfu_nrf52840_xxAA_s140_6.0.0.dir/__/__/mesh/bearer/src/radio_config.c.obj
 .ARM.attributes
                0x000000000000132a       0x39 CMakeFiles/dfu_nrf52840_xxAA_s140_6.0.0.dir/__/__/mesh/bearer/src/scanner.c.obj
 .ARM.attributes
                0x0000000000001363       0x39 CMakeFiles/dfu_nrf52840_xxAA_s140_6.0.0.dir/home/mazzer/work/nordic/sdk/nRF5_SDK_15.0.0/modules/nrfx/mdk/system_nrf52840.c.obj
 .ARM.attributes
                0x000000000000139c       0x20 CMakeFiles/dfu_nrf52840_xxAA_s140_6.0.0.dir/home/mazzer/work/nordic/sdk/nRF5_SDK_15.0.0/modules/nrfx/mdk/gcc_startup_nrf52840.S.obj
 .ARM.attributes
                0x00000000000013bc       0x39 CMakeFiles/dfu_nrf52840_xxAA_s140_6.0.0.dir/home/mazzer/work/nordic/sdk/nRF5_SDK_15.0.0/components/libraries/util/app_error.c.obj
 .ARM.attributes
                0x00000000000013f5       0x39 CMakeFiles/dfu_nrf52840_xxAA_s140_6.0.0.dir/home/mazzer/work/nordic/sdk/nRF5_SDK_15.0.0/components/libraries/util/app_error_handler_gcc.c.obj
 .ARM.attributes
                0x000000000000142e       0x39 ../../external/rtt/librtt_nrf52840_xxAA.a(SEGGER_RTT.c.obj)
 .ARM.attributes
                0x0000000000001467       0x39 ../../external/rtt/librtt_nrf52840_xxAA.a(SEGGER_RTT_printf.c.obj)
 .ARM.attributes
                0x00000000000014a0       0x39 ../../external/micro-ecc/libuECC_nrf52840_xxAA.a(uECC.c.obj)
 .ARM.attributes
                0x00000000000014d9       0x34 /usr/bin/../lib/gcc/arm-none-eabi/7.2.1/../../../../arm-none-eabi/lib/thumb/v7e-m/fpv4-sp/hard/libg_nano.a(lib_a-exit.o)
 .ARM.attributes
                0x000000000000150d       0x34 /usr/bin/../lib/gcc/arm-none-eabi/7.2.1/../../../../arm-none-eabi/lib/thumb/v7e-m/fpv4-sp/hard/libg_nano.a(lib_a-impure.o)
 .ARM.attributes
                0x0000000000001541       0x34 /usr/bin/../lib/gcc/arm-none-eabi/7.2.1/../../../../arm-none-eabi/lib/thumb/v7e-m/fpv4-sp/hard/libg_nano.a(lib_a-init.o)
 .ARM.attributes
                0x0000000000001575       0x34 /usr/bin/../lib/gcc/arm-none-eabi/7.2.1/../../../../arm-none-eabi/lib/thumb/v7e-m/fpv4-sp/hard/libg_nano.a(lib_a-malloc.o)
 .ARM.attributes
                0x00000000000015a9       0x34 /usr/bin/../lib/gcc/arm-none-eabi/7.2.1/../../../../arm-none-eabi/lib/thumb/v7e-m/fpv4-sp/hard/libg_nano.a(lib_a-memcmp.o)
 .ARM.attributes
                0x00000000000015dd       0x34 /usr/bin/../lib/gcc/arm-none-eabi/7.2.1/../../../../arm-none-eabi/lib/thumb/v7e-m/fpv4-sp/hard/libg_nano.a(lib_a-memcpy-stub.o)
 .ARM.attributes
                0x0000000000001611       0x34 /usr/bin/../lib/gcc/arm-none-eabi/7.2.1/../../../../arm-none-eabi/lib/thumb/v7e-m/fpv4-sp/hard/libg_nano.a(lib_a-memset.o)
 .ARM.attributes
                0x0000000000001645       0x34 /usr/bin/../lib/gcc/arm-none-eabi/7.2.1/../../../../arm-none-eabi/lib/thumb/v7e-m/fpv4-sp/hard/libg_nano.a(lib_a-nano-freer.o)
 .ARM.attributes
                0x0000000000001679       0x34 /usr/bin/../lib/gcc/arm-none-eabi/7.2.1/../../../../arm-none-eabi/lib/thumb/v7e-m/fpv4-sp/hard/libg_nano.a(lib_a-nano-mallocr.o)
 .ARM.attributes
                0x00000000000016ad       0x34 /usr/bin/../lib/gcc/arm-none-eabi/7.2.1/../../../../arm-none-eabi/lib/thumb/v7e-m/fpv4-sp/hard/libg_nano.a(lib_a-sbrkr.o)
 .ARM.attributes
                0x00000000000016e1       0x34 /usr/bin/../lib/gcc/arm-none-eabi/7.2.1/../../../../arm-none-eabi/lib/thumb/v7e-m/fpv4-sp/hard/libg_nano.a(lib_a-strcpy.o)
 .ARM.attributes
                0x0000000000001715       0x1b /usr/bin/../lib/gcc/arm-none-eabi/7.2.1/../../../../arm-none-eabi/lib/thumb/v7e-m/fpv4-sp/hard/libg_nano.a(lib_a-strlen.o)
 .ARM.attributes
                0x0000000000001730       0x34 /usr/bin/../lib/gcc/arm-none-eabi/7.2.1/../../../../arm-none-eabi/lib/thumb/v7e-m/fpv4-sp/hard/libg_nano.a(lib_a-strrchr.o)
 .ARM.attributes
                0x0000000000001764       0x34 /usr/bin/../lib/gcc/arm-none-eabi/7.2.1/../../../../arm-none-eabi/lib/thumb/v7e-m/fpv4-sp/hard/libg_nano.a(lib_a-mlock.o)
 .ARM.attributes
                0x0000000000001798       0x34 /usr/bin/../lib/gcc/arm-none-eabi/7.2.1/../../../../arm-none-eabi/lib/thumb/v7e-m/fpv4-sp/hard/libg_nano.a(lib_a-reent.o)
 .ARM.attributes
                0x00000000000017cc       0x34 /usr/bin/../lib/gcc/arm-none-eabi/7.2.1/../../../../arm-none-eabi/lib/thumb/v7e-m/fpv4-sp/hard/libg_nano.a(lib_a-strchr.o)
 .ARM.attributes
                0x0000000000001800       0x34 /usr/bin/../lib/gcc/arm-none-eabi/7.2.1/thumb/v7e-m/fpv4-sp/hard/crtend.o
 .ARM.attributes
                0x0000000000001834       0x22 /usr/bin/../lib/gcc/arm-none-eabi/7.2.1/thumb/v7e-m/fpv4-sp/hard/crtn.o
 .ARM.attributes
                0x0000000000001856       0x34 /usr/bin/../lib/gcc/arm-none-eabi/7.2.1/../../../../arm-none-eabi/lib/thumb/v7e-m/fpv4-sp/hard/libnosys.a(sbrk.o)
 .ARM.attributes
                0x000000000000188a       0x34 /usr/bin/../lib/gcc/arm-none-eabi/7.2.1/../../../../arm-none-eabi/lib/thumb/v7e-m/fpv4-sp/hard/libnosys.a(_exit.o)

.comment        0x0000000000000000       0x7e
 .comment       0x0000000000000000       0x7e CMakeFiles/dfu_nrf52840_xxAA_s140_6.0.0.dir/src/main.c.obj
                                         0x7f (size before relaxing)
 .comment       0x000000000000007e       0x7f CMakeFiles/dfu_nrf52840_xxAA_s140_6.0.0.dir/__/__/mesh/stack/src/mesh_stack.c.obj
 .comment       0x000000000000007e       0x7f CMakeFiles/dfu_nrf52840_xxAA_s140_6.0.0.dir/__/common/src/mesh_softdevice_init.c.obj
 .comment       0x000000000000007e       0x7f CMakeFiles/dfu_nrf52840_xxAA_s140_6.0.0.dir/__/common/src/mesh_provisionee.c.obj
 .comment       0x000000000000007e       0x7f CMakeFiles/dfu_nrf52840_xxAA_s140_6.0.0.dir/__/common/src/simple_hal.c.obj
 .comment       0x000000000000007e       0x7f CMakeFiles/dfu_nrf52840_xxAA_s140_6.0.0.dir/__/__/mesh/access/src/access_publish.c.obj
 .comment       0x000000000000007e       0x7f CMakeFiles/dfu_nrf52840_xxAA_s140_6.0.0.dir/__/__/mesh/access/src/access.c.obj
 .comment       0x000000000000007e       0x7f CMakeFiles/dfu_nrf52840_xxAA_s140_6.0.0.dir/__/__/mesh/access/src/access_reliable.c.obj
 .comment       0x000000000000007e       0x7f CMakeFiles/dfu_nrf52840_xxAA_s140_6.0.0.dir/__/__/mesh/access/src/device_state_manager.c.obj
 .comment       0x000000000000007e       0x7f CMakeFiles/dfu_nrf52840_xxAA_s140_6.0.0.dir/__/__/mesh/serial/src/serial_uart.c.obj
 .comment       0x000000000000007e       0x7f CMakeFiles/dfu_nrf52840_xxAA_s140_6.0.0.dir/__/__/mesh/serial/src/serial_bearer.c.obj
 .comment       0x000000000000007e       0x7f CMakeFiles/dfu_nrf52840_xxAA_s140_6.0.0.dir/__/__/mesh/serial/src/serial_handler_common.c.obj
 .comment       0x000000000000007e       0x7f CMakeFiles/dfu_nrf52840_xxAA_s140_6.0.0.dir/__/__/mesh/serial/src/serial_handler_access.c.obj
 .comment       0x000000000000007e       0x7f CMakeFiles/dfu_nrf52840_xxAA_s140_6.0.0.dir/__/__/mesh/serial/src/serial_handler_config.c.obj
 .comment       0x000000000000007e       0x7f CMakeFiles/dfu_nrf52840_xxAA_s140_6.0.0.dir/__/__/mesh/serial/src/serial_handler_openmesh.c.obj
 .comment       0x000000000000007e       0x7f CMakeFiles/dfu_nrf52840_xxAA_s140_6.0.0.dir/__/__/mesh/serial/src/serial.c.obj
 .comment       0x000000000000007e       0x7f CMakeFiles/dfu_nrf52840_xxAA_s140_6.0.0.dir/__/__/mesh/serial/src/serial_handler_prov.c.obj
 .comment       0x000000000000007e       0x7f CMakeFiles/dfu_nrf52840_xxAA_s140_6.0.0.dir/__/__/mesh/serial/src/serial_handler_dfu.c.obj
 .comment       0x000000000000007e       0x7f CMakeFiles/dfu_nrf52840_xxAA_s140_6.0.0.dir/__/__/mesh/serial/src/serial_handler_mesh.c.obj
 .comment       0x000000000000007e       0x7f CMakeFiles/dfu_nrf52840_xxAA_s140_6.0.0.dir/__/__/mesh/serial/src/serial_handler_models.c.obj
 .comment       0x000000000000007e       0x7f CMakeFiles/dfu_nrf52840_xxAA_s140_6.0.0.dir/__/__/mesh/serial/src/serial_handler_device.c.obj
 .comment       0x000000000000007e       0x7f CMakeFiles/dfu_nrf52840_xxAA_s140_6.0.0.dir/__/__/mesh/serial/src/nrf_mesh_serial.c.obj
 .comment       0x000000000000007e       0x7f CMakeFiles/dfu_nrf52840_xxAA_s140_6.0.0.dir/__/__/mesh/serial/src/serial_handler_app.c.obj
 .comment       0x000000000000007e       0x7f CMakeFiles/dfu_nrf52840_xxAA_s140_6.0.0.dir/__/__/models/config/src/composition_data.c.obj
 .comment       0x000000000000007e       0x7f CMakeFiles/dfu_nrf52840_xxAA_s140_6.0.0.dir/__/__/models/config/src/config_server.c.obj
 .comment       0x000000000000007e       0x7f CMakeFiles/dfu_nrf52840_xxAA_s140_6.0.0.dir/__/__/models/config/src/packed_index_list.c.obj
 .comment       0x000000000000007e       0x7f CMakeFiles/dfu_nrf52840_xxAA_s140_6.0.0.dir/__/__/models/health/src/health_server.c.obj
 .comment       0x000000000000007e       0x7f CMakeFiles/dfu_nrf52840_xxAA_s140_6.0.0.dir/__/__/mesh/prov/src/prov_provisioner.c.obj
 .comment       0x000000000000007e       0x7f CMakeFiles/dfu_nrf52840_xxAA_s140_6.0.0.dir/__/__/mesh/prov/src/prov_provisionee.c.obj
 .comment       0x000000000000007e       0x7f CMakeFiles/dfu_nrf52840_xxAA_s140_6.0.0.dir/__/__/mesh/prov/src/nrf_mesh_prov.c.obj
 .comment       0x000000000000007e       0x7f CMakeFiles/dfu_nrf52840_xxAA_s140_6.0.0.dir/__/__/mesh/prov/src/provisioning.c.obj
 .comment       0x000000000000007e       0x7f CMakeFiles/dfu_nrf52840_xxAA_s140_6.0.0.dir/__/__/mesh/prov/src/prov_beacon.c.obj
 .comment       0x000000000000007e       0x7f CMakeFiles/dfu_nrf52840_xxAA_s140_6.0.0.dir/__/__/mesh/prov/src/prov_utils.c.obj
 .comment       0x000000000000007e       0x7f CMakeFiles/dfu_nrf52840_xxAA_s140_6.0.0.dir/__/__/mesh/prov/src/prov_bearer_adv.c.obj
 .comment       0x000000000000007e       0x7f CMakeFiles/dfu_nrf52840_xxAA_s140_6.0.0.dir/__/__/mesh/dfu/src/nrf_mesh_dfu.c.obj
 .comment       0x000000000000007e       0x7f CMakeFiles/dfu_nrf52840_xxAA_s140_6.0.0.dir/__/common/src/app_error_weak.c.obj
 .comment       0x000000000000007e       0x7f CMakeFiles/dfu_nrf52840_xxAA_s140_6.0.0.dir/__/common/src/assertion_handler_weak.c.obj
 .comment       0x000000000000007e       0x7f CMakeFiles/dfu_nrf52840_xxAA_s140_6.0.0.dir/__/__/mesh/core/src/nrf_mesh_configure.c.obj
 .comment       0x000000000000007e       0x7f CMakeFiles/dfu_nrf52840_xxAA_s140_6.0.0.dir/__/__/mesh/core/src/aes.c.obj
 .comment       0x000000000000007e       0x7f CMakeFiles/dfu_nrf52840_xxAA_s140_6.0.0.dir/__/__/mesh/core/src/msg_cache.c.obj
 .comment       0x000000000000007e       0x7f CMakeFiles/dfu_nrf52840_xxAA_s140_6.0.0.dir/__/__/mesh/core/src/transport.c.obj
 .comment       0x000000000000007e       0x7f CMakeFiles/dfu_nrf52840_xxAA_s140_6.0.0.dir/__/__/mesh/core/src/event.c.obj
 .comment       0x000000000000007e       0x7f CMakeFiles/dfu_nrf52840_xxAA_s140_6.0.0.dir/__/__/mesh/core/src/packet_buffer.c.obj
 .comment       0x000000000000007e       0x7f CMakeFiles/dfu_nrf52840_xxAA_s140_6.0.0.dir/__/__/mesh/core/src/flash_manager_defrag.c.obj
 .comment       0x000000000000007e       0x7f CMakeFiles/dfu_nrf52840_xxAA_s140_6.0.0.dir/__/__/mesh/core/src/fifo.c.obj
 .comment       0x000000000000007e       0x7f CMakeFiles/dfu_nrf52840_xxAA_s140_6.0.0.dir/__/__/mesh/core/src/nrf_flash.c.obj
 .comment       0x000000000000007e       0x7f CMakeFiles/dfu_nrf52840_xxAA_s140_6.0.0.dir/__/__/mesh/core/src/packet_mgr.c.obj
 .comment       0x000000000000007e       0x7f CMakeFiles/dfu_nrf52840_xxAA_s140_6.0.0.dir/__/__/mesh/core/src/net_state.c.obj
 .comment       0x000000000000007e       0x7f CMakeFiles/dfu_nrf52840_xxAA_s140_6.0.0.dir/__/__/mesh/core/src/mesh_flash.c.obj
 .comment       0x000000000000007e       0x7f CMakeFiles/dfu_nrf52840_xxAA_s140_6.0.0.dir/__/__/mesh/core/src/nrf_mesh_utils.c.obj
 .comment       0x000000000000007e       0x7f CMakeFiles/dfu_nrf52840_xxAA_s140_6.0.0.dir/__/__/mesh/core/src/nrf_mesh.c.obj
 .comment       0x000000000000007e       0x7f CMakeFiles/dfu_nrf52840_xxAA_s140_6.0.0.dir/__/__/mesh/core/src/queue.c.obj
 .comment       0x000000000000007e       0x7f CMakeFiles/dfu_nrf52840_xxAA_s140_6.0.0.dir/__/__/mesh/core/src/hal.c.obj
 .comment       0x000000000000007e       0x7f CMakeFiles/dfu_nrf52840_xxAA_s140_6.0.0.dir/__/__/mesh/core/src/aes_cmac.c.obj
 .comment       0x000000000000007e       0x7f CMakeFiles/dfu_nrf52840_xxAA_s140_6.0.0.dir/__/__/mesh/core/src/timer_scheduler.c.obj
 .comment       0x000000000000007e       0x7f CMakeFiles/dfu_nrf52840_xxAA_s140_6.0.0.dir/__/__/mesh/core/src/timer.c.obj
 .comment       0x000000000000007e       0x7f CMakeFiles/dfu_nrf52840_xxAA_s140_6.0.0.dir/__/__/mesh/core/src/ticker.c.obj
 .comment       0x000000000000007e       0x7f CMakeFiles/dfu_nrf52840_xxAA_s140_6.0.0.dir/__/__/mesh/core/src/rand.c.obj
 .comment       0x000000000000007e       0x7f CMakeFiles/dfu_nrf52840_xxAA_s140_6.0.0.dir/__/__/mesh/core/src/nrf_mesh_opt.c.obj
 .comment       0x000000000000007e       0x7f CMakeFiles/dfu_nrf52840_xxAA_s140_6.0.0.dir/__/__/mesh/core/src/timeslot.c.obj
 .comment       0x000000000000007e       0x7f CMakeFiles/dfu_nrf52840_xxAA_s140_6.0.0.dir/__/__/mesh/core/src/bearer_event.c.obj
 .comment       0x000000000000007e       0x7f CMakeFiles/dfu_nrf52840_xxAA_s140_6.0.0.dir/__/__/mesh/core/src/enc.c.obj
 .comment       0x000000000000007e       0x7f CMakeFiles/dfu_nrf52840_xxAA_s140_6.0.0.dir/__/__/mesh/core/src/network.c.obj
 .comment       0x000000000000007e       0x7f CMakeFiles/dfu_nrf52840_xxAA_s140_6.0.0.dir/__/__/mesh/core/src/net_packet.c.obj
 .comment       0x000000000000007e       0x7f CMakeFiles/dfu_nrf52840_xxAA_s140_6.0.0.dir/__/__/mesh/core/src/msqueue.c.obj
 .comment       0x000000000000007e       0x7f CMakeFiles/dfu_nrf52840_xxAA_s140_6.0.0.dir/__/__/mesh/core/src/nrf_mesh_keygen.c.obj
 .comment       0x000000000000007e       0x7f CMakeFiles/dfu_nrf52840_xxAA_s140_6.0.0.dir/__/__/mesh/core/src/list.c.obj
 .comment       0x000000000000007e       0x7f CMakeFiles/dfu_nrf52840_xxAA_s140_6.0.0.dir/__/__/mesh/core/src/log.c.obj
 .comment       0x000000000000007e       0x7f CMakeFiles/dfu_nrf52840_xxAA_s140_6.0.0.dir/__/__/mesh/core/src/flash_manager.c.obj
 .comment       0x000000000000007e       0x7f CMakeFiles/dfu_nrf52840_xxAA_s140_6.0.0.dir/__/__/mesh/core/src/ccm_soft.c.obj
 .comment       0x000000000000007e       0x7f CMakeFiles/dfu_nrf52840_xxAA_s140_6.0.0.dir/__/__/mesh/core/src/replay_cache.c.obj
 .comment       0x000000000000007e       0x7f CMakeFiles/dfu_nrf52840_xxAA_s140_6.0.0.dir/__/__/mesh/core/src/beacon.c.obj
 .comment       0x000000000000007e       0x7f CMakeFiles/dfu_nrf52840_xxAA_s140_6.0.0.dir/__/__/mesh/core/src/flash_manager_internal.c.obj
 .comment       0x000000000000007e       0x7f CMakeFiles/dfu_nrf52840_xxAA_s140_6.0.0.dir/__/__/mesh/core/src/core_tx.c.obj
 .comment       0x000000000000007e       0x7f CMakeFiles/dfu_nrf52840_xxAA_s140_6.0.0.dir/__/__/mesh/core/src/heartbeat.c.obj
 .comment       0x000000000000007e       0x7f CMakeFiles/dfu_nrf52840_xxAA_s140_6.0.0.dir/__/__/mesh/core/src/net_beacon.c.obj
 .comment       0x000000000000007e       0x7f CMakeFiles/dfu_nrf52840_xxAA_s140_6.0.0.dir/__/__/mesh/core/src/core_tx_adv.c.obj
 .comment       0x000000000000007e       0x7f CMakeFiles/dfu_nrf52840_xxAA_s140_6.0.0.dir/__/__/mesh/bearer/src/ad_listener.c.obj
 .comment       0x000000000000007e       0x7f CMakeFiles/dfu_nrf52840_xxAA_s140_6.0.0.dir/__/__/mesh/bearer/src/ad_type_filter.c.obj
 .comment       0x000000000000007e       0x7f CMakeFiles/dfu_nrf52840_xxAA_s140_6.0.0.dir/__/__/mesh/bearer/src/advertiser.c.obj
 .comment       0x000000000000007e       0x7f CMakeFiles/dfu_nrf52840_xxAA_s140_6.0.0.dir/__/__/mesh/bearer/src/bearer_handler.c.obj
 .comment       0x000000000000007e       0x7f CMakeFiles/dfu_nrf52840_xxAA_s140_6.0.0.dir/__/__/mesh/bearer/src/broadcast.c.obj
 .comment       0x000000000000007e       0x7f CMakeFiles/dfu_nrf52840_xxAA_s140_6.0.0.dir/__/__/mesh/bearer/src/filter_engine.c.obj
 .comment       0x000000000000007e       0x7f CMakeFiles/dfu_nrf52840_xxAA_s140_6.0.0.dir/__/__/mesh/bearer/src/radio_config.c.obj
 .comment       0x000000000000007e       0x7f CMakeFiles/dfu_nrf52840_xxAA_s140_6.0.0.dir/__/__/mesh/bearer/src/scanner.c.obj
 .comment       0x000000000000007e       0x7f CMakeFiles/dfu_nrf52840_xxAA_s140_6.0.0.dir/home/mazzer/work/nordic/sdk/nRF5_SDK_15.0.0/modules/nrfx/mdk/system_nrf52840.c.obj
 .comment       0x000000000000007e       0x7f CMakeFiles/dfu_nrf52840_xxAA_s140_6.0.0.dir/home/mazzer/work/nordic/sdk/nRF5_SDK_15.0.0/components/libraries/util/app_error.c.obj
 .comment       0x000000000000007e       0x7f CMakeFiles/dfu_nrf52840_xxAA_s140_6.0.0.dir/home/mazzer/work/nordic/sdk/nRF5_SDK_15.0.0/components/libraries/util/app_error_handler_gcc.c.obj
 .comment       0x000000000000007e       0x7f ../../external/rtt/librtt_nrf52840_xxAA.a(SEGGER_RTT.c.obj)
 .comment       0x000000000000007e       0x7f ../../external/rtt/librtt_nrf52840_xxAA.a(SEGGER_RTT_printf.c.obj)
 .comment       0x000000000000007e       0x7f ../../external/micro-ecc/libuECC_nrf52840_xxAA.a(uECC.c.obj)

.debug_info     0x0000000000000000    0xc49dd
 .debug_info    0x0000000000000000     0x33cc CMakeFiles/dfu_nrf52840_xxAA_s140_6.0.0.dir/src/main.c.obj
 .debug_info    0x00000000000033cc     0x2346 CMakeFiles/dfu_nrf52840_xxAA_s140_6.0.0.dir/__/__/mesh/stack/src/mesh_stack.c.obj
 .debug_info    0x0000000000005712     0x17ec CMakeFiles/dfu_nrf52840_xxAA_s140_6.0.0.dir/__/common/src/mesh_softdevice_init.c.obj
 .debug_info    0x0000000000006efe     0x218f CMakeFiles/dfu_nrf52840_xxAA_s140_6.0.0.dir/__/common/src/mesh_provisionee.c.obj
 .debug_info    0x000000000000908d     0x1596 CMakeFiles/dfu_nrf52840_xxAA_s140_6.0.0.dir/__/common/src/simple_hal.c.obj
 .debug_info    0x000000000000a623     0x12cf CMakeFiles/dfu_nrf52840_xxAA_s140_6.0.0.dir/__/__/mesh/access/src/access_publish.c.obj
 .debug_info    0x000000000000b8f2     0x54c6 CMakeFiles/dfu_nrf52840_xxAA_s140_6.0.0.dir/__/__/mesh/access/src/access.c.obj
 .debug_info    0x0000000000010db8     0x1a56 CMakeFiles/dfu_nrf52840_xxAA_s140_6.0.0.dir/__/__/mesh/access/src/access_reliable.c.obj
 .debug_info    0x000000000001280e     0x94c8 CMakeFiles/dfu_nrf52840_xxAA_s140_6.0.0.dir/__/__/mesh/access/src/device_state_manager.c.obj
 .debug_info    0x000000000001bcd6     0x12fc CMakeFiles/dfu_nrf52840_xxAA_s140_6.0.0.dir/__/__/mesh/serial/src/serial_uart.c.obj
 .debug_info    0x000000000001cfd2     0x39a4 CMakeFiles/dfu_nrf52840_xxAA_s140_6.0.0.dir/__/__/mesh/serial/src/serial_bearer.c.obj
 .debug_info    0x0000000000020976     0x290a CMakeFiles/dfu_nrf52840_xxAA_s140_6.0.0.dir/__/__/mesh/serial/src/serial_handler_common.c.obj
 .debug_info    0x0000000000023280     0x335d CMakeFiles/dfu_nrf52840_xxAA_s140_6.0.0.dir/__/__/mesh/serial/src/serial_handler_access.c.obj
 .debug_info    0x00000000000265dd     0x2990 CMakeFiles/dfu_nrf52840_xxAA_s140_6.0.0.dir/__/__/mesh/serial/src/serial_handler_config.c.obj
 .debug_info    0x0000000000028f6d     0x27e9 CMakeFiles/dfu_nrf52840_xxAA_s140_6.0.0.dir/__/__/mesh/serial/src/serial_handler_openmesh.c.obj
 .debug_info    0x000000000002b756     0x3531 CMakeFiles/dfu_nrf52840_xxAA_s140_6.0.0.dir/__/__/mesh/serial/src/serial.c.obj
 .debug_info    0x000000000002ec87     0x4bfd CMakeFiles/dfu_nrf52840_xxAA_s140_6.0.0.dir/__/__/mesh/serial/src/serial_handler_prov.c.obj
 .debug_info    0x0000000000033884     0x397c CMakeFiles/dfu_nrf52840_xxAA_s140_6.0.0.dir/__/__/mesh/serial/src/serial_handler_dfu.c.obj
 .debug_info    0x0000000000037200     0x460b CMakeFiles/dfu_nrf52840_xxAA_s140_6.0.0.dir/__/__/mesh/serial/src/serial_handler_mesh.c.obj
 .debug_info    0x000000000003b80b     0x2d54 CMakeFiles/dfu_nrf52840_xxAA_s140_6.0.0.dir/__/__/mesh/serial/src/serial_handler_models.c.obj
 .debug_info    0x000000000003e55f     0x34c5 CMakeFiles/dfu_nrf52840_xxAA_s140_6.0.0.dir/__/__/mesh/serial/src/serial_handler_device.c.obj
 .debug_info    0x0000000000041a24     0x298b CMakeFiles/dfu_nrf52840_xxAA_s140_6.0.0.dir/__/__/mesh/serial/src/nrf_mesh_serial.c.obj
 .debug_info    0x00000000000443af     0x2807 CMakeFiles/dfu_nrf52840_xxAA_s140_6.0.0.dir/__/__/mesh/serial/src/serial_handler_app.c.obj
 .debug_info    0x0000000000046bb6      0xedb CMakeFiles/dfu_nrf52840_xxAA_s140_6.0.0.dir/__/__/models/config/src/composition_data.c.obj
 .debug_info    0x0000000000047a91     0xc313 CMakeFiles/dfu_nrf52840_xxAA_s140_6.0.0.dir/__/__/models/config/src/config_server.c.obj
 .debug_info    0x0000000000053da4      0x126 CMakeFiles/dfu_nrf52840_xxAA_s140_6.0.0.dir/__/__/models/config/src/packed_index_list.c.obj
 .debug_info    0x0000000000053eca     0x2e65 CMakeFiles/dfu_nrf52840_xxAA_s140_6.0.0.dir/__/__/models/health/src/health_server.c.obj
 .debug_info    0x0000000000056d2f     0x26b6 CMakeFiles/dfu_nrf52840_xxAA_s140_6.0.0.dir/__/__/mesh/prov/src/prov_provisioner.c.obj
 .debug_info    0x00000000000593e5     0x2c7b CMakeFiles/dfu_nrf52840_xxAA_s140_6.0.0.dir/__/__/mesh/prov/src/prov_provisionee.c.obj
 .debug_info    0x000000000005c060     0x1fa2 CMakeFiles/dfu_nrf52840_xxAA_s140_6.0.0.dir/__/__/mesh/prov/src/nrf_mesh_prov.c.obj
 .debug_info    0x000000000005e002     0x18dc CMakeFiles/dfu_nrf52840_xxAA_s140_6.0.0.dir/__/__/mesh/prov/src/provisioning.c.obj
 .debug_info    0x000000000005f8de     0x1a93 CMakeFiles/dfu_nrf52840_xxAA_s140_6.0.0.dir/__/__/mesh/prov/src/prov_beacon.c.obj
 .debug_info    0x0000000000061371     0x2108 CMakeFiles/dfu_nrf52840_xxAA_s140_6.0.0.dir/__/__/mesh/prov/src/prov_utils.c.obj
 .debug_info    0x0000000000063479     0x4a03 CMakeFiles/dfu_nrf52840_xxAA_s140_6.0.0.dir/__/__/mesh/prov/src/prov_bearer_adv.c.obj
 .debug_info    0x0000000000067e7c     0x60cc CMakeFiles/dfu_nrf52840_xxAA_s140_6.0.0.dir/__/__/mesh/dfu/src/nrf_mesh_dfu.c.obj
 .debug_info    0x000000000006df48     0x1170 CMakeFiles/dfu_nrf52840_xxAA_s140_6.0.0.dir/__/common/src/app_error_weak.c.obj
 .debug_info    0x000000000006f0b8      0x994 CMakeFiles/dfu_nrf52840_xxAA_s140_6.0.0.dir/__/common/src/assertion_handler_weak.c.obj
 .debug_info    0x000000000006fa4c      0xdf8 CMakeFiles/dfu_nrf52840_xxAA_s140_6.0.0.dir/__/__/mesh/core/src/nrf_mesh_configure.c.obj
 .debug_info    0x0000000000070844      0xbea CMakeFiles/dfu_nrf52840_xxAA_s140_6.0.0.dir/__/__/mesh/core/src/aes.c.obj
 .debug_info    0x000000000007142e      0xa51 CMakeFiles/dfu_nrf52840_xxAA_s140_6.0.0.dir/__/__/mesh/core/src/msg_cache.c.obj
 .debug_info    0x0000000000071e7f     0x6184 CMakeFiles/dfu_nrf52840_xxAA_s140_6.0.0.dir/__/__/mesh/core/src/transport.c.obj
 .debug_info    0x0000000000078003     0x1763 CMakeFiles/dfu_nrf52840_xxAA_s140_6.0.0.dir/__/__/mesh/core/src/event.c.obj
 .debug_info    0x0000000000079766     0x1aa3 CMakeFiles/dfu_nrf52840_xxAA_s140_6.0.0.dir/__/__/mesh/core/src/packet_buffer.c.obj
 .debug_info    0x000000000007b209     0x24b1 CMakeFiles/dfu_nrf52840_xxAA_s140_6.0.0.dir/__/__/mesh/core/src/flash_manager_defrag.c.obj
 .debug_info    0x000000000007d6ba      0xd9a CMakeFiles/dfu_nrf52840_xxAA_s140_6.0.0.dir/__/__/mesh/core/src/fifo.c.obj
 .debug_info    0x000000000007e454      0xb70 CMakeFiles/dfu_nrf52840_xxAA_s140_6.0.0.dir/__/__/mesh/core/src/nrf_flash.c.obj
 .debug_info    0x000000000007efc4     0x118f CMakeFiles/dfu_nrf52840_xxAA_s140_6.0.0.dir/__/__/mesh/core/src/packet_mgr.c.obj
 .debug_info    0x0000000000080153     0x3735 CMakeFiles/dfu_nrf52840_xxAA_s140_6.0.0.dir/__/__/mesh/core/src/net_state.c.obj
 .debug_info    0x0000000000083888     0x1be8 CMakeFiles/dfu_nrf52840_xxAA_s140_6.0.0.dir/__/__/mesh/core/src/mesh_flash.c.obj
 .debug_info    0x0000000000085470      0xa72 CMakeFiles/dfu_nrf52840_xxAA_s140_6.0.0.dir/__/__/mesh/core/src/nrf_mesh_utils.c.obj
 .debug_info    0x0000000000085ee2     0x2678 CMakeFiles/dfu_nrf52840_xxAA_s140_6.0.0.dir/__/__/mesh/core/src/nrf_mesh.c.obj
 .debug_info    0x000000000008855a      0xb10 CMakeFiles/dfu_nrf52840_xxAA_s140_6.0.0.dir/__/__/mesh/core/src/queue.c.obj
 .debug_info    0x000000000008906a      0x514 CMakeFiles/dfu_nrf52840_xxAA_s140_6.0.0.dir/__/__/mesh/core/src/hal.c.obj
 .debug_info    0x000000000008957e      0xe8f CMakeFiles/dfu_nrf52840_xxAA_s140_6.0.0.dir/__/__/mesh/core/src/aes_cmac.c.obj
 .debug_info    0x000000000008a40d     0x13bd CMakeFiles/dfu_nrf52840_xxAA_s140_6.0.0.dir/__/__/mesh/core/src/timer_scheduler.c.obj
 .debug_info    0x000000000008b7ca      0xe1e CMakeFiles/dfu_nrf52840_xxAA_s140_6.0.0.dir/__/__/mesh/core/src/timer.c.obj
 .debug_info    0x000000000008c5e8      0x20c CMakeFiles/dfu_nrf52840_xxAA_s140_6.0.0.dir/__/__/mesh/core/src/ticker.c.obj
 .debug_info    0x000000000008c7f4      0x4d4 CMakeFiles/dfu_nrf52840_xxAA_s140_6.0.0.dir/__/__/mesh/core/src/rand.c.obj
 .debug_info    0x000000000008ccc8      0xaef CMakeFiles/dfu_nrf52840_xxAA_s140_6.0.0.dir/__/__/mesh/core/src/nrf_mesh_opt.c.obj
 .debug_info    0x000000000008d7b7     0x1c1b CMakeFiles/dfu_nrf52840_xxAA_s140_6.0.0.dir/__/__/mesh/core/src/timeslot.c.obj
 .debug_info    0x000000000008f3d2     0x1c9f CMakeFiles/dfu_nrf52840_xxAA_s140_6.0.0.dir/__/__/mesh/core/src/bearer_event.c.obj
 .debug_info    0x0000000000091071     0x181f CMakeFiles/dfu_nrf52840_xxAA_s140_6.0.0.dir/__/__/mesh/core/src/enc.c.obj
 .debug_info    0x0000000000092890     0x1cc0 CMakeFiles/dfu_nrf52840_xxAA_s140_6.0.0.dir/__/__/mesh/core/src/network.c.obj
 .debug_info    0x0000000000094550     0x1de3 CMakeFiles/dfu_nrf52840_xxAA_s140_6.0.0.dir/__/__/mesh/core/src/net_packet.c.obj
 .debug_info    0x0000000000096333      0xe51 CMakeFiles/dfu_nrf52840_xxAA_s140_6.0.0.dir/__/__/mesh/core/src/msqueue.c.obj
 .debug_info    0x0000000000097184      0x4c0 CMakeFiles/dfu_nrf52840_xxAA_s140_6.0.0.dir/__/__/mesh/core/src/nrf_mesh_keygen.c.obj
 .debug_info    0x0000000000097644      0x573 CMakeFiles/dfu_nrf52840_xxAA_s140_6.0.0.dir/__/__/mesh/core/src/list.c.obj
 .debug_info    0x0000000000097bb7      0xe8b CMakeFiles/dfu_nrf52840_xxAA_s140_6.0.0.dir/__/__/mesh/core/src/log.c.obj
 .debug_info    0x0000000000098a42     0x3cc6 CMakeFiles/dfu_nrf52840_xxAA_s140_6.0.0.dir/__/__/mesh/core/src/flash_manager.c.obj
 .debug_info    0x000000000009c708     0x120f CMakeFiles/dfu_nrf52840_xxAA_s140_6.0.0.dir/__/__/mesh/core/src/ccm_soft.c.obj
 .debug_info    0x000000000009d917      0xa87 CMakeFiles/dfu_nrf52840_xxAA_s140_6.0.0.dir/__/__/mesh/core/src/replay_cache.c.obj
 .debug_info    0x000000000009e39e     0x17c2 CMakeFiles/dfu_nrf52840_xxAA_s140_6.0.0.dir/__/__/mesh/core/src/beacon.c.obj
 .debug_info    0x000000000009fb60      0xb98 CMakeFiles/dfu_nrf52840_xxAA_s140_6.0.0.dir/__/__/mesh/core/src/flash_manager_internal.c.obj
 .debug_info    0x00000000000a06f8     0x1264 CMakeFiles/dfu_nrf52840_xxAA_s140_6.0.0.dir/__/__/mesh/core/src/core_tx.c.obj
 .debug_info    0x00000000000a195c     0x24e7 CMakeFiles/dfu_nrf52840_xxAA_s140_6.0.0.dir/__/__/mesh/core/src/heartbeat.c.obj
 .debug_info    0x00000000000a3e43     0x2a3c CMakeFiles/dfu_nrf52840_xxAA_s140_6.0.0.dir/__/__/mesh/core/src/net_beacon.c.obj
 .debug_info    0x00000000000a687f     0x197e CMakeFiles/dfu_nrf52840_xxAA_s140_6.0.0.dir/__/__/mesh/core/src/core_tx_adv.c.obj
 .debug_info    0x00000000000a81fd     0x116a CMakeFiles/dfu_nrf52840_xxAA_s140_6.0.0.dir/__/__/mesh/bearer/src/ad_listener.c.obj
 .debug_info    0x00000000000a9367      0xfc4 CMakeFiles/dfu_nrf52840_xxAA_s140_6.0.0.dir/__/__/mesh/bearer/src/ad_type_filter.c.obj
 .debug_info    0x00000000000aa32b     0x2af6 CMakeFiles/dfu_nrf52840_xxAA_s140_6.0.0.dir/__/__/mesh/bearer/src/advertiser.c.obj
 .debug_info    0x00000000000ace21     0x1bad CMakeFiles/dfu_nrf52840_xxAA_s140_6.0.0.dir/__/__/mesh/bearer/src/bearer_handler.c.obj
 .debug_info    0x00000000000ae9ce     0x1af7 CMakeFiles/dfu_nrf52840_xxAA_s140_6.0.0.dir/__/__/mesh/bearer/src/broadcast.c.obj
 .debug_info    0x00000000000b04c5      0xd3e CMakeFiles/dfu_nrf52840_xxAA_s140_6.0.0.dir/__/__/mesh/bearer/src/filter_engine.c.obj
 .debug_info    0x00000000000b1203      0xa28 CMakeFiles/dfu_nrf52840_xxAA_s140_6.0.0.dir/__/__/mesh/bearer/src/radio_config.c.obj
 .debug_info    0x00000000000b1c2b     0x2df8 CMakeFiles/dfu_nrf52840_xxAA_s140_6.0.0.dir/__/__/mesh/bearer/src/scanner.c.obj
 .debug_info    0x00000000000b4a23     0x137d CMakeFiles/dfu_nrf52840_xxAA_s140_6.0.0.dir/home/mazzer/work/nordic/sdk/nRF5_SDK_15.0.0/modules/nrfx/mdk/system_nrf52840.c.obj
 .debug_info    0x00000000000b5da0       0x26 CMakeFiles/dfu_nrf52840_xxAA_s140_6.0.0.dir/home/mazzer/work/nordic/sdk/nRF5_SDK_15.0.0/modules/nrfx/mdk/gcc_startup_nrf52840.S.obj
 .debug_info    0x00000000000b5dc6      0xae7 CMakeFiles/dfu_nrf52840_xxAA_s140_6.0.0.dir/home/mazzer/work/nordic/sdk/nRF5_SDK_15.0.0/components/libraries/util/app_error.c.obj
 .debug_info    0x00000000000b68ad      0x96d CMakeFiles/dfu_nrf52840_xxAA_s140_6.0.0.dir/home/mazzer/work/nordic/sdk/nRF5_SDK_15.0.0/components/libraries/util/app_error_handler_gcc.c.obj
 .debug_info    0x00000000000b721a     0x2b01 ../../external/rtt/librtt_nrf52840_xxAA.a(SEGGER_RTT.c.obj)
 .debug_info    0x00000000000b9d1b     0x11e1 ../../external/rtt/librtt_nrf52840_xxAA.a(SEGGER_RTT_printf.c.obj)
 .debug_info    0x00000000000baefc     0x9ae1 ../../external/micro-ecc/libuECC_nrf52840_xxAA.a(uECC.c.obj)

.debug_abbrev   0x0000000000000000    0x14287
 .debug_abbrev  0x0000000000000000      0x514 CMakeFiles/dfu_nrf52840_xxAA_s140_6.0.0.dir/src/main.c.obj
 .debug_abbrev  0x0000000000000514      0x3b3 CMakeFiles/dfu_nrf52840_xxAA_s140_6.0.0.dir/__/__/mesh/stack/src/mesh_stack.c.obj
 .debug_abbrev  0x00000000000008c7      0x408 CMakeFiles/dfu_nrf52840_xxAA_s140_6.0.0.dir/__/common/src/mesh_softdevice_init.c.obj
 .debug_abbrev  0x0000000000000ccf      0x393 CMakeFiles/dfu_nrf52840_xxAA_s140_6.0.0.dir/__/common/src/mesh_provisionee.c.obj
 .debug_abbrev  0x0000000000001062      0x372 CMakeFiles/dfu_nrf52840_xxAA_s140_6.0.0.dir/__/common/src/simple_hal.c.obj
 .debug_abbrev  0x00000000000013d4      0x423 CMakeFiles/dfu_nrf52840_xxAA_s140_6.0.0.dir/__/__/mesh/access/src/access_publish.c.obj
 .debug_abbrev  0x00000000000017f7      0x66d CMakeFiles/dfu_nrf52840_xxAA_s140_6.0.0.dir/__/__/mesh/access/src/access.c.obj
 .debug_abbrev  0x0000000000001e64      0x448 CMakeFiles/dfu_nrf52840_xxAA_s140_6.0.0.dir/__/__/mesh/access/src/access_reliable.c.obj
 .debug_abbrev  0x00000000000022ac      0x5b0 CMakeFiles/dfu_nrf52840_xxAA_s140_6.0.0.dir/__/__/mesh/access/src/device_state_manager.c.obj
 .debug_abbrev  0x000000000000285c      0x2db CMakeFiles/dfu_nrf52840_xxAA_s140_6.0.0.dir/__/__/mesh/serial/src/serial_uart.c.obj
 .debug_abbrev  0x0000000000002b37      0x518 CMakeFiles/dfu_nrf52840_xxAA_s140_6.0.0.dir/__/__/mesh/serial/src/serial_bearer.c.obj
 .debug_abbrev  0x000000000000304f      0x256 CMakeFiles/dfu_nrf52840_xxAA_s140_6.0.0.dir/__/__/mesh/serial/src/serial_handler_common.c.obj
 .debug_abbrev  0x00000000000032a5      0x2cf CMakeFiles/dfu_nrf52840_xxAA_s140_6.0.0.dir/__/__/mesh/serial/src/serial_handler_access.c.obj
 .debug_abbrev  0x0000000000003574      0x286 CMakeFiles/dfu_nrf52840_xxAA_s140_6.0.0.dir/__/__/mesh/serial/src/serial_handler_config.c.obj
 .debug_abbrev  0x00000000000037fa      0x243 CMakeFiles/dfu_nrf52840_xxAA_s140_6.0.0.dir/__/__/mesh/serial/src/serial_handler_openmesh.c.obj
 .debug_abbrev  0x0000000000003a3d      0x44c CMakeFiles/dfu_nrf52840_xxAA_s140_6.0.0.dir/__/__/mesh/serial/src/serial.c.obj
 .debug_abbrev  0x0000000000003e89      0x48e CMakeFiles/dfu_nrf52840_xxAA_s140_6.0.0.dir/__/__/mesh/serial/src/serial_handler_prov.c.obj
 .debug_abbrev  0x0000000000004317      0x316 CMakeFiles/dfu_nrf52840_xxAA_s140_6.0.0.dir/__/__/mesh/serial/src/serial_handler_dfu.c.obj
 .debug_abbrev  0x000000000000462d      0x3f1 CMakeFiles/dfu_nrf52840_xxAA_s140_6.0.0.dir/__/__/mesh/serial/src/serial_handler_mesh.c.obj
 .debug_abbrev  0x0000000000004a1e      0x37a CMakeFiles/dfu_nrf52840_xxAA_s140_6.0.0.dir/__/__/mesh/serial/src/serial_handler_models.c.obj
 .debug_abbrev  0x0000000000004d98      0x412 CMakeFiles/dfu_nrf52840_xxAA_s140_6.0.0.dir/__/__/mesh/serial/src/serial_handler_device.c.obj
 .debug_abbrev  0x00000000000051aa      0x28a CMakeFiles/dfu_nrf52840_xxAA_s140_6.0.0.dir/__/__/mesh/serial/src/nrf_mesh_serial.c.obj
 .debug_abbrev  0x0000000000005434      0x24c CMakeFiles/dfu_nrf52840_xxAA_s140_6.0.0.dir/__/__/mesh/serial/src/serial_handler_app.c.obj
 .debug_abbrev  0x0000000000005680      0x2e4 CMakeFiles/dfu_nrf52840_xxAA_s140_6.0.0.dir/__/__/models/config/src/composition_data.c.obj
 .debug_abbrev  0x0000000000005964      0x56c CMakeFiles/dfu_nrf52840_xxAA_s140_6.0.0.dir/__/__/models/config/src/config_server.c.obj
 .debug_abbrev  0x0000000000005ed0       0x95 CMakeFiles/dfu_nrf52840_xxAA_s140_6.0.0.dir/__/__/models/config/src/packed_index_list.c.obj
 .debug_abbrev  0x0000000000005f65      0x505 CMakeFiles/dfu_nrf52840_xxAA_s140_6.0.0.dir/__/__/models/health/src/health_server.c.obj
 .debug_abbrev  0x000000000000646a      0x404 CMakeFiles/dfu_nrf52840_xxAA_s140_6.0.0.dir/__/__/mesh/prov/src/prov_provisioner.c.obj
 .debug_abbrev  0x000000000000686e      0x47e CMakeFiles/dfu_nrf52840_xxAA_s140_6.0.0.dir/__/__/mesh/prov/src/prov_provisionee.c.obj
 .debug_abbrev  0x0000000000006cec      0x450 CMakeFiles/dfu_nrf52840_xxAA_s140_6.0.0.dir/__/__/mesh/prov/src/nrf_mesh_prov.c.obj
 .debug_abbrev  0x000000000000713c      0x2e6 CMakeFiles/dfu_nrf52840_xxAA_s140_6.0.0.dir/__/__/mesh/prov/src/provisioning.c.obj
 .debug_abbrev  0x0000000000007422      0x2fc CMakeFiles/dfu_nrf52840_xxAA_s140_6.0.0.dir/__/__/mesh/prov/src/prov_beacon.c.obj
 .debug_abbrev  0x000000000000771e      0x3f3 CMakeFiles/dfu_nrf52840_xxAA_s140_6.0.0.dir/__/__/mesh/prov/src/prov_utils.c.obj
 .debug_abbrev  0x0000000000007b11      0x55d CMakeFiles/dfu_nrf52840_xxAA_s140_6.0.0.dir/__/__/mesh/prov/src/prov_bearer_adv.c.obj
 .debug_abbrev  0x000000000000806e      0x577 CMakeFiles/dfu_nrf52840_xxAA_s140_6.0.0.dir/__/__/mesh/dfu/src/nrf_mesh_dfu.c.obj
 .debug_abbrev  0x00000000000085e5      0x2d5 CMakeFiles/dfu_nrf52840_xxAA_s140_6.0.0.dir/__/common/src/app_error_weak.c.obj
 .debug_abbrev  0x00000000000088ba      0x1f6 CMakeFiles/dfu_nrf52840_xxAA_s140_6.0.0.dir/__/common/src/assertion_handler_weak.c.obj
 .debug_abbrev  0x0000000000008ab0      0x254 CMakeFiles/dfu_nrf52840_xxAA_s140_6.0.0.dir/__/__/mesh/core/src/nrf_mesh_configure.c.obj
 .debug_abbrev  0x0000000000008d04      0x266 CMakeFiles/dfu_nrf52840_xxAA_s140_6.0.0.dir/__/__/mesh/core/src/aes.c.obj
 .debug_abbrev  0x0000000000008f6a      0x24e CMakeFiles/dfu_nrf52840_xxAA_s140_6.0.0.dir/__/__/mesh/core/src/msg_cache.c.obj
 .debug_abbrev  0x00000000000091b8      0x5f7 CMakeFiles/dfu_nrf52840_xxAA_s140_6.0.0.dir/__/__/mesh/core/src/transport.c.obj
 .debug_abbrev  0x00000000000097af      0x2d2 CMakeFiles/dfu_nrf52840_xxAA_s140_6.0.0.dir/__/__/mesh/core/src/event.c.obj
 .debug_abbrev  0x0000000000009a81      0x455 CMakeFiles/dfu_nrf52840_xxAA_s140_6.0.0.dir/__/__/mesh/core/src/packet_buffer.c.obj
 .debug_abbrev  0x0000000000009ed6      0x526 CMakeFiles/dfu_nrf52840_xxAA_s140_6.0.0.dir/__/__/mesh/core/src/flash_manager_defrag.c.obj
 .debug_abbrev  0x000000000000a3fc      0x2fc CMakeFiles/dfu_nrf52840_xxAA_s140_6.0.0.dir/__/__/mesh/core/src/fifo.c.obj
 .debug_abbrev  0x000000000000a6f8      0x22d CMakeFiles/dfu_nrf52840_xxAA_s140_6.0.0.dir/__/__/mesh/core/src/nrf_flash.c.obj
 .debug_abbrev  0x000000000000a925      0x3bf CMakeFiles/dfu_nrf52840_xxAA_s140_6.0.0.dir/__/__/mesh/core/src/packet_mgr.c.obj
 .debug_abbrev  0x000000000000ace4      0x5a6 CMakeFiles/dfu_nrf52840_xxAA_s140_6.0.0.dir/__/__/mesh/core/src/net_state.c.obj
 .debug_abbrev  0x000000000000b28a      0x467 CMakeFiles/dfu_nrf52840_xxAA_s140_6.0.0.dir/__/__/mesh/core/src/mesh_flash.c.obj
 .debug_abbrev  0x000000000000b6f1      0x244 CMakeFiles/dfu_nrf52840_xxAA_s140_6.0.0.dir/__/__/mesh/core/src/nrf_mesh_utils.c.obj
 .debug_abbrev  0x000000000000b935      0x47a CMakeFiles/dfu_nrf52840_xxAA_s140_6.0.0.dir/__/__/mesh/core/src/nrf_mesh.c.obj
 .debug_abbrev  0x000000000000bdaf      0x247 CMakeFiles/dfu_nrf52840_xxAA_s140_6.0.0.dir/__/__/mesh/core/src/queue.c.obj
 .debug_abbrev  0x000000000000bff6      0x1d1 CMakeFiles/dfu_nrf52840_xxAA_s140_6.0.0.dir/__/__/mesh/core/src/hal.c.obj
 .debug_abbrev  0x000000000000c1c7      0x2e3 CMakeFiles/dfu_nrf52840_xxAA_s140_6.0.0.dir/__/__/mesh/core/src/aes_cmac.c.obj
 .debug_abbrev  0x000000000000c4aa      0x3f7 CMakeFiles/dfu_nrf52840_xxAA_s140_6.0.0.dir/__/__/mesh/core/src/timer_scheduler.c.obj
 .debug_abbrev  0x000000000000c8a1      0x378 CMakeFiles/dfu_nrf52840_xxAA_s140_6.0.0.dir/__/__/mesh/core/src/timer.c.obj
 .debug_abbrev  0x000000000000cc19      0x154 CMakeFiles/dfu_nrf52840_xxAA_s140_6.0.0.dir/__/__/mesh/core/src/ticker.c.obj
 .debug_abbrev  0x000000000000cd6d      0x22e CMakeFiles/dfu_nrf52840_xxAA_s140_6.0.0.dir/__/__/mesh/core/src/rand.c.obj
 .debug_abbrev  0x000000000000cf9b      0x24c CMakeFiles/dfu_nrf52840_xxAA_s140_6.0.0.dir/__/__/mesh/core/src/nrf_mesh_opt.c.obj
 .debug_abbrev  0x000000000000d1e7      0x4e5 CMakeFiles/dfu_nrf52840_xxAA_s140_6.0.0.dir/__/__/mesh/core/src/timeslot.c.obj
 .debug_abbrev  0x000000000000d6cc      0x4f9 CMakeFiles/dfu_nrf52840_xxAA_s140_6.0.0.dir/__/__/mesh/core/src/bearer_event.c.obj
 .debug_abbrev  0x000000000000dbc5      0x39b CMakeFiles/dfu_nrf52840_xxAA_s140_6.0.0.dir/__/__/mesh/core/src/enc.c.obj
 .debug_abbrev  0x000000000000df60      0x4e2 CMakeFiles/dfu_nrf52840_xxAA_s140_6.0.0.dir/__/__/mesh/core/src/network.c.obj
 .debug_abbrev  0x000000000000e442      0x4a1 CMakeFiles/dfu_nrf52840_xxAA_s140_6.0.0.dir/__/__/mesh/core/src/net_packet.c.obj
 .debug_abbrev  0x000000000000e8e3      0x2e9 CMakeFiles/dfu_nrf52840_xxAA_s140_6.0.0.dir/__/__/mesh/core/src/msqueue.c.obj
 .debug_abbrev  0x000000000000ebcc      0x156 CMakeFiles/dfu_nrf52840_xxAA_s140_6.0.0.dir/__/__/mesh/core/src/nrf_mesh_keygen.c.obj
 .debug_abbrev  0x000000000000ed22      0x1ec CMakeFiles/dfu_nrf52840_xxAA_s140_6.0.0.dir/__/__/mesh/core/src/list.c.obj
 .debug_abbrev  0x000000000000ef0e      0x2b4 CMakeFiles/dfu_nrf52840_xxAA_s140_6.0.0.dir/__/__/mesh/core/src/log.c.obj
 .debug_abbrev  0x000000000000f1c2      0x538 CMakeFiles/dfu_nrf52840_xxAA_s140_6.0.0.dir/__/__/mesh/core/src/flash_manager.c.obj
 .debug_abbrev  0x000000000000f6fa      0x2f5 CMakeFiles/dfu_nrf52840_xxAA_s140_6.0.0.dir/__/__/mesh/core/src/ccm_soft.c.obj
 .debug_abbrev  0x000000000000f9ef      0x29b CMakeFiles/dfu_nrf52840_xxAA_s140_6.0.0.dir/__/__/mesh/core/src/replay_cache.c.obj
 .debug_abbrev  0x000000000000fc8a      0x310 CMakeFiles/dfu_nrf52840_xxAA_s140_6.0.0.dir/__/__/mesh/core/src/beacon.c.obj
 .debug_abbrev  0x000000000000ff9a      0x2a4 CMakeFiles/dfu_nrf52840_xxAA_s140_6.0.0.dir/__/__/mesh/core/src/flash_manager_internal.c.obj
 .debug_abbrev  0x000000000001023e      0x2fc CMakeFiles/dfu_nrf52840_xxAA_s140_6.0.0.dir/__/__/mesh/core/src/core_tx.c.obj
 .debug_abbrev  0x000000000001053a      0x4e3 CMakeFiles/dfu_nrf52840_xxAA_s140_6.0.0.dir/__/__/mesh/core/src/heartbeat.c.obj
 .debug_abbrev  0x0000000000010a1d      0x512 CMakeFiles/dfu_nrf52840_xxAA_s140_6.0.0.dir/__/__/mesh/core/src/net_beacon.c.obj
 .debug_abbrev  0x0000000000010f2f      0x330 CMakeFiles/dfu_nrf52840_xxAA_s140_6.0.0.dir/__/__/mesh/core/src/core_tx_adv.c.obj
 .debug_abbrev  0x000000000001125f      0x340 CMakeFiles/dfu_nrf52840_xxAA_s140_6.0.0.dir/__/__/mesh/bearer/src/ad_listener.c.obj
 .debug_abbrev  0x000000000001159f      0x375 CMakeFiles/dfu_nrf52840_xxAA_s140_6.0.0.dir/__/__/mesh/bearer/src/ad_type_filter.c.obj
 .debug_abbrev  0x0000000000011914      0x56a CMakeFiles/dfu_nrf52840_xxAA_s140_6.0.0.dir/__/__/mesh/bearer/src/advertiser.c.obj
 .debug_abbrev  0x0000000000011e7e      0x3fa CMakeFiles/dfu_nrf52840_xxAA_s140_6.0.0.dir/__/__/mesh/bearer/src/bearer_handler.c.obj
 .debug_abbrev  0x0000000000012278      0x3eb CMakeFiles/dfu_nrf52840_xxAA_s140_6.0.0.dir/__/__/mesh/bearer/src/broadcast.c.obj
 .debug_abbrev  0x0000000000012663      0x2af CMakeFiles/dfu_nrf52840_xxAA_s140_6.0.0.dir/__/__/mesh/bearer/src/filter_engine.c.obj
 .debug_abbrev  0x0000000000012912      0x1e4 CMakeFiles/dfu_nrf52840_xxAA_s140_6.0.0.dir/__/__/mesh/bearer/src/radio_config.c.obj
 .debug_abbrev  0x0000000000012af6      0x59f CMakeFiles/dfu_nrf52840_xxAA_s140_6.0.0.dir/__/__/mesh/bearer/src/scanner.c.obj
 .debug_abbrev  0x0000000000013095      0x1e8 CMakeFiles/dfu_nrf52840_xxAA_s140_6.0.0.dir/home/mazzer/work/nordic/sdk/nRF5_SDK_15.0.0/modules/nrfx/mdk/system_nrf52840.c.obj
 .debug_abbrev  0x000000000001327d       0x14 CMakeFiles/dfu_nrf52840_xxAA_s140_6.0.0.dir/home/mazzer/work/nordic/sdk/nRF5_SDK_15.0.0/modules/nrfx/mdk/gcc_startup_nrf52840.S.obj
 .debug_abbrev  0x0000000000013291      0x232 CMakeFiles/dfu_nrf52840_xxAA_s140_6.0.0.dir/home/mazzer/work/nordic/sdk/nRF5_SDK_15.0.0/components/libraries/util/app_error.c.obj
 .debug_abbrev  0x00000000000134c3      0x1bd CMakeFiles/dfu_nrf52840_xxAA_s140_6.0.0.dir/home/mazzer/work/nordic/sdk/nRF5_SDK_15.0.0/components/libraries/util/app_error_handler_gcc.c.obj
 .debug_abbrev  0x0000000000013680      0x3d2 ../../external/rtt/librtt_nrf52840_xxAA.a(SEGGER_RTT.c.obj)
 .debug_abbrev  0x0000000000013a52      0x353 ../../external/rtt/librtt_nrf52840_xxAA.a(SEGGER_RTT_printf.c.obj)
 .debug_abbrev  0x0000000000013da5      0x4e2 ../../external/micro-ecc/libuECC_nrf52840_xxAA.a(uECC.c.obj)

.debug_loc      0x0000000000000000    0x4d357
 .debug_loc     0x0000000000000000      0x31e CMakeFiles/dfu_nrf52840_xxAA_s140_6.0.0.dir/src/main.c.obj
 .debug_loc     0x000000000000031e      0x1a3 CMakeFiles/dfu_nrf52840_xxAA_s140_6.0.0.dir/__/__/mesh/stack/src/mesh_stack.c.obj
 .debug_loc     0x00000000000004c1      0x1bb CMakeFiles/dfu_nrf52840_xxAA_s140_6.0.0.dir/__/common/src/mesh_softdevice_init.c.obj
 .debug_loc     0x000000000000067c      0x16b CMakeFiles/dfu_nrf52840_xxAA_s140_6.0.0.dir/__/common/src/mesh_provisionee.c.obj
 .debug_loc     0x00000000000007e7      0x29c CMakeFiles/dfu_nrf52840_xxAA_s140_6.0.0.dir/__/common/src/simple_hal.c.obj
 .debug_loc     0x0000000000000a83      0x939 CMakeFiles/dfu_nrf52840_xxAA_s140_6.0.0.dir/__/__/mesh/access/src/access_publish.c.obj
 .debug_loc     0x00000000000013bc     0x3963 CMakeFiles/dfu_nrf52840_xxAA_s140_6.0.0.dir/__/__/mesh/access/src/access.c.obj
 .debug_loc     0x0000000000004d1f      0xa76 CMakeFiles/dfu_nrf52840_xxAA_s140_6.0.0.dir/__/__/mesh/access/src/access_reliable.c.obj
 .debug_loc     0x0000000000005795     0x963e CMakeFiles/dfu_nrf52840_xxAA_s140_6.0.0.dir/__/__/mesh/access/src/device_state_manager.c.obj
 .debug_loc     0x000000000000edd3       0xa2 CMakeFiles/dfu_nrf52840_xxAA_s140_6.0.0.dir/__/__/mesh/serial/src/serial_uart.c.obj
 .debug_loc     0x000000000000ee75      0x4eb CMakeFiles/dfu_nrf52840_xxAA_s140_6.0.0.dir/__/__/mesh/serial/src/serial_bearer.c.obj
 .debug_loc     0x000000000000f360      0x1f0 CMakeFiles/dfu_nrf52840_xxAA_s140_6.0.0.dir/__/__/mesh/serial/src/serial_handler_common.c.obj
 .debug_loc     0x000000000000f550      0x748 CMakeFiles/dfu_nrf52840_xxAA_s140_6.0.0.dir/__/__/mesh/serial/src/serial_handler_access.c.obj
 .debug_loc     0x000000000000fc98       0x31 CMakeFiles/dfu_nrf52840_xxAA_s140_6.0.0.dir/__/__/mesh/serial/src/serial_handler_config.c.obj
 .debug_loc     0x000000000000fcc9       0x58 CMakeFiles/dfu_nrf52840_xxAA_s140_6.0.0.dir/__/__/mesh/serial/src/serial_handler_openmesh.c.obj
 .debug_loc     0x000000000000fd21      0x53a CMakeFiles/dfu_nrf52840_xxAA_s140_6.0.0.dir/__/__/mesh/serial/src/serial.c.obj
 .debug_loc     0x000000000001025b      0x8ac CMakeFiles/dfu_nrf52840_xxAA_s140_6.0.0.dir/__/__/mesh/serial/src/serial_handler_prov.c.obj
 .debug_loc     0x0000000000010b07      0x26c CMakeFiles/dfu_nrf52840_xxAA_s140_6.0.0.dir/__/__/mesh/serial/src/serial_handler_dfu.c.obj
 .debug_loc     0x0000000000010d73      0x8aa CMakeFiles/dfu_nrf52840_xxAA_s140_6.0.0.dir/__/__/mesh/serial/src/serial_handler_mesh.c.obj
 .debug_loc     0x000000000001161d      0x318 CMakeFiles/dfu_nrf52840_xxAA_s140_6.0.0.dir/__/__/mesh/serial/src/serial_handler_models.c.obj
 .debug_loc     0x0000000000011935      0x3cf CMakeFiles/dfu_nrf52840_xxAA_s140_6.0.0.dir/__/__/mesh/serial/src/serial_handler_device.c.obj
 .debug_loc     0x0000000000011d04       0xb7 CMakeFiles/dfu_nrf52840_xxAA_s140_6.0.0.dir/__/__/mesh/serial/src/nrf_mesh_serial.c.obj
 .debug_loc     0x0000000000011dbb       0x45 CMakeFiles/dfu_nrf52840_xxAA_s140_6.0.0.dir/__/__/mesh/serial/src/serial_handler_app.c.obj
 .debug_loc     0x0000000000011e00      0x33c CMakeFiles/dfu_nrf52840_xxAA_s140_6.0.0.dir/__/__/models/config/src/composition_data.c.obj
 .debug_loc     0x000000000001213c     0xa41c CMakeFiles/dfu_nrf52840_xxAA_s140_6.0.0.dir/__/__/models/config/src/config_server.c.obj
 .debug_loc     0x000000000001c558       0xa8 CMakeFiles/dfu_nrf52840_xxAA_s140_6.0.0.dir/__/__/models/config/src/packed_index_list.c.obj
 .debug_loc     0x000000000001c600     0x3724 CMakeFiles/dfu_nrf52840_xxAA_s140_6.0.0.dir/__/__/models/health/src/health_server.c.obj
 .debug_loc     0x000000000001fd24      0x919 CMakeFiles/dfu_nrf52840_xxAA_s140_6.0.0.dir/__/__/mesh/prov/src/prov_provisioner.c.obj
 .debug_loc     0x000000000002063d      0xaad CMakeFiles/dfu_nrf52840_xxAA_s140_6.0.0.dir/__/__/mesh/prov/src/prov_provisionee.c.obj
 .debug_loc     0x00000000000210ea      0xaf3 CMakeFiles/dfu_nrf52840_xxAA_s140_6.0.0.dir/__/__/mesh/prov/src/nrf_mesh_prov.c.obj
 .debug_loc     0x0000000000021bdd      0xc0a CMakeFiles/dfu_nrf52840_xxAA_s140_6.0.0.dir/__/__/mesh/prov/src/provisioning.c.obj
 .debug_loc     0x00000000000227e7      0x255 CMakeFiles/dfu_nrf52840_xxAA_s140_6.0.0.dir/__/__/mesh/prov/src/prov_beacon.c.obj
 .debug_loc     0x0000000000022a3c      0x492 CMakeFiles/dfu_nrf52840_xxAA_s140_6.0.0.dir/__/__/mesh/prov/src/prov_utils.c.obj
 .debug_loc     0x0000000000022ece     0x2722 CMakeFiles/dfu_nrf52840_xxAA_s140_6.0.0.dir/__/__/mesh/prov/src/prov_bearer_adv.c.obj
 .debug_loc     0x00000000000255f0     0x172c CMakeFiles/dfu_nrf52840_xxAA_s140_6.0.0.dir/__/__/mesh/dfu/src/nrf_mesh_dfu.c.obj
 .debug_loc     0x0000000000026d1c      0x1c6 CMakeFiles/dfu_nrf52840_xxAA_s140_6.0.0.dir/__/common/src/app_error_weak.c.obj
 .debug_loc     0x0000000000026ee2       0x2c CMakeFiles/dfu_nrf52840_xxAA_s140_6.0.0.dir/__/common/src/assertion_handler_weak.c.obj
 .debug_loc     0x0000000000026f0e       0x2c CMakeFiles/dfu_nrf52840_xxAA_s140_6.0.0.dir/__/__/mesh/core/src/nrf_mesh_configure.c.obj
 .debug_loc     0x0000000000026f3a       0x89 CMakeFiles/dfu_nrf52840_xxAA_s140_6.0.0.dir/__/__/mesh/core/src/aes.c.obj
 .debug_loc     0x0000000000026fc3       0xab CMakeFiles/dfu_nrf52840_xxAA_s140_6.0.0.dir/__/__/mesh/core/src/msg_cache.c.obj
 .debug_loc     0x000000000002706e     0x41e3 CMakeFiles/dfu_nrf52840_xxAA_s140_6.0.0.dir/__/__/mesh/core/src/transport.c.obj
 .debug_loc     0x000000000002b251      0x169 CMakeFiles/dfu_nrf52840_xxAA_s140_6.0.0.dir/__/__/mesh/core/src/event.c.obj
 .debug_loc     0x000000000002b3ba      0xcfb CMakeFiles/dfu_nrf52840_xxAA_s140_6.0.0.dir/__/__/mesh/core/src/packet_buffer.c.obj
 .debug_loc     0x000000000002c0b5      0xbd0 CMakeFiles/dfu_nrf52840_xxAA_s140_6.0.0.dir/__/__/mesh/core/src/flash_manager_defrag.c.obj
 .debug_loc     0x000000000002cc85      0x86b CMakeFiles/dfu_nrf52840_xxAA_s140_6.0.0.dir/__/__/mesh/core/src/fifo.c.obj
 .debug_loc     0x000000000002d4f0      0x194 CMakeFiles/dfu_nrf52840_xxAA_s140_6.0.0.dir/__/__/mesh/core/src/nrf_flash.c.obj
 .debug_loc     0x000000000002d684      0x788 CMakeFiles/dfu_nrf52840_xxAA_s140_6.0.0.dir/__/__/mesh/core/src/packet_mgr.c.obj
 .debug_loc     0x000000000002de0c      0xfdf CMakeFiles/dfu_nrf52840_xxAA_s140_6.0.0.dir/__/__/mesh/core/src/net_state.c.obj
 .debug_loc     0x000000000002edeb      0xfd3 CMakeFiles/dfu_nrf52840_xxAA_s140_6.0.0.dir/__/__/mesh/core/src/mesh_flash.c.obj
 .debug_loc     0x000000000002fdbe      0x185 CMakeFiles/dfu_nrf52840_xxAA_s140_6.0.0.dir/__/__/mesh/core/src/nrf_mesh_utils.c.obj
 .debug_loc     0x000000000002ff43      0x6be CMakeFiles/dfu_nrf52840_xxAA_s140_6.0.0.dir/__/__/mesh/core/src/nrf_mesh.c.obj
 .debug_loc     0x0000000000030601      0x186 CMakeFiles/dfu_nrf52840_xxAA_s140_6.0.0.dir/__/__/mesh/core/src/queue.c.obj
 .debug_loc     0x0000000000030787       0x63 CMakeFiles/dfu_nrf52840_xxAA_s140_6.0.0.dir/__/__/mesh/core/src/hal.c.obj
 .debug_loc     0x00000000000307ea      0xb75 CMakeFiles/dfu_nrf52840_xxAA_s140_6.0.0.dir/__/__/mesh/core/src/aes_cmac.c.obj
 .debug_loc     0x000000000003135f      0x5b7 CMakeFiles/dfu_nrf52840_xxAA_s140_6.0.0.dir/__/__/mesh/core/src/timer_scheduler.c.obj
 .debug_loc     0x0000000000031916      0x608 CMakeFiles/dfu_nrf52840_xxAA_s140_6.0.0.dir/__/__/mesh/core/src/timer.c.obj
 .debug_loc     0x0000000000031f1e      0x1c5 CMakeFiles/dfu_nrf52840_xxAA_s140_6.0.0.dir/__/__/mesh/core/src/rand.c.obj
 .debug_loc     0x00000000000320e3      0x194 CMakeFiles/dfu_nrf52840_xxAA_s140_6.0.0.dir/__/__/mesh/core/src/nrf_mesh_opt.c.obj
 .debug_loc     0x0000000000032277      0x4f1 CMakeFiles/dfu_nrf52840_xxAA_s140_6.0.0.dir/__/__/mesh/core/src/timeslot.c.obj
 .debug_loc     0x0000000000032768      0x86e CMakeFiles/dfu_nrf52840_xxAA_s140_6.0.0.dir/__/__/mesh/core/src/bearer_event.c.obj
 .debug_loc     0x0000000000032fd6      0xb0d CMakeFiles/dfu_nrf52840_xxAA_s140_6.0.0.dir/__/__/mesh/core/src/enc.c.obj
 .debug_loc     0x0000000000033ae3      0x864 CMakeFiles/dfu_nrf52840_xxAA_s140_6.0.0.dir/__/__/mesh/core/src/network.c.obj
 .debug_loc     0x0000000000034347      0x978 CMakeFiles/dfu_nrf52840_xxAA_s140_6.0.0.dir/__/__/mesh/core/src/net_packet.c.obj
 .debug_loc     0x0000000000034cbf      0x438 CMakeFiles/dfu_nrf52840_xxAA_s140_6.0.0.dir/__/__/mesh/core/src/msqueue.c.obj
 .debug_loc     0x00000000000350f7      0x210 CMakeFiles/dfu_nrf52840_xxAA_s140_6.0.0.dir/__/__/mesh/core/src/nrf_mesh_keygen.c.obj
 .debug_loc     0x0000000000035307      0x565 CMakeFiles/dfu_nrf52840_xxAA_s140_6.0.0.dir/__/__/mesh/core/src/list.c.obj
 .debug_loc     0x000000000003586c      0x3dd CMakeFiles/dfu_nrf52840_xxAA_s140_6.0.0.dir/__/__/mesh/core/src/log.c.obj
 .debug_loc     0x0000000000035c49     0x21f7 CMakeFiles/dfu_nrf52840_xxAA_s140_6.0.0.dir/__/__/mesh/core/src/flash_manager.c.obj
 .debug_loc     0x0000000000037e40      0xb6e CMakeFiles/dfu_nrf52840_xxAA_s140_6.0.0.dir/__/__/mesh/core/src/ccm_soft.c.obj
 .debug_loc     0x00000000000389ae      0x16c CMakeFiles/dfu_nrf52840_xxAA_s140_6.0.0.dir/__/__/mesh/core/src/replay_cache.c.obj
 .debug_loc     0x0000000000038b1a      0x416 CMakeFiles/dfu_nrf52840_xxAA_s140_6.0.0.dir/__/__/mesh/core/src/beacon.c.obj
 .debug_loc     0x0000000000038f30      0x12d CMakeFiles/dfu_nrf52840_xxAA_s140_6.0.0.dir/__/__/mesh/core/src/flash_manager_internal.c.obj
 .debug_loc     0x000000000003905d      0x4d1 CMakeFiles/dfu_nrf52840_xxAA_s140_6.0.0.dir/__/__/mesh/core/src/core_tx.c.obj
 .debug_loc     0x000000000003952e      0x6c5 CMakeFiles/dfu_nrf52840_xxAA_s140_6.0.0.dir/__/__/mesh/core/src/heartbeat.c.obj
 .debug_loc     0x0000000000039bf3      0x6e9 CMakeFiles/dfu_nrf52840_xxAA_s140_6.0.0.dir/__/__/mesh/core/src/net_beacon.c.obj
 .debug_loc     0x000000000003a2dc      0x3d3 CMakeFiles/dfu_nrf52840_xxAA_s140_6.0.0.dir/__/__/mesh/core/src/core_tx_adv.c.obj
 .debug_loc     0x000000000003a6af      0x45f CMakeFiles/dfu_nrf52840_xxAA_s140_6.0.0.dir/__/__/mesh/bearer/src/ad_listener.c.obj
 .debug_loc     0x000000000003ab0e      0x321 CMakeFiles/dfu_nrf52840_xxAA_s140_6.0.0.dir/__/__/mesh/bearer/src/ad_type_filter.c.obj
 .debug_loc     0x000000000003ae2f     0x12af CMakeFiles/dfu_nrf52840_xxAA_s140_6.0.0.dir/__/__/mesh/bearer/src/advertiser.c.obj
 .debug_loc     0x000000000003c0de      0x394 CMakeFiles/dfu_nrf52840_xxAA_s140_6.0.0.dir/__/__/mesh/bearer/src/bearer_handler.c.obj
 .debug_loc     0x000000000003c472      0x30e CMakeFiles/dfu_nrf52840_xxAA_s140_6.0.0.dir/__/__/mesh/bearer/src/broadcast.c.obj
 .debug_loc     0x000000000003c780      0x179 CMakeFiles/dfu_nrf52840_xxAA_s140_6.0.0.dir/__/__/mesh/bearer/src/filter_engine.c.obj
 .debug_loc     0x000000000003c8f9      0x239 CMakeFiles/dfu_nrf52840_xxAA_s140_6.0.0.dir/__/__/mesh/bearer/src/radio_config.c.obj
 .debug_loc     0x000000000003cb32      0x899 CMakeFiles/dfu_nrf52840_xxAA_s140_6.0.0.dir/__/__/mesh/bearer/src/scanner.c.obj
 .debug_loc     0x000000000003d3cb       0xca CMakeFiles/dfu_nrf52840_xxAA_s140_6.0.0.dir/home/mazzer/work/nordic/sdk/nRF5_SDK_15.0.0/components/libraries/util/app_error.c.obj
 .debug_loc     0x000000000003d495       0x63 CMakeFiles/dfu_nrf52840_xxAA_s140_6.0.0.dir/home/mazzer/work/nordic/sdk/nRF5_SDK_15.0.0/components/libraries/util/app_error_handler_gcc.c.obj
 .debug_loc     0x000000000003d4f8     0x3e95 ../../external/rtt/librtt_nrf52840_xxAA.a(SEGGER_RTT.c.obj)
 .debug_loc     0x000000000004138d      0xec5 ../../external/rtt/librtt_nrf52840_xxAA.a(SEGGER_RTT_printf.c.obj)
 .debug_loc     0x0000000000042252     0xb105 ../../external/micro-ecc/libuECC_nrf52840_xxAA.a(uECC.c.obj)

.debug_aranges  0x0000000000000000     0x2360
 .debug_aranges
                0x0000000000000000       0x38 CMakeFiles/dfu_nrf52840_xxAA_s140_6.0.0.dir/src/main.c.obj
 .debug_aranges
                0x0000000000000038       0x50 CMakeFiles/dfu_nrf52840_xxAA_s140_6.0.0.dir/__/__/mesh/stack/src/mesh_stack.c.obj
 .debug_aranges
                0x0000000000000088       0x40 CMakeFiles/dfu_nrf52840_xxAA_s140_6.0.0.dir/__/common/src/mesh_softdevice_init.c.obj
 .debug_aranges
                0x00000000000000c8       0x28 CMakeFiles/dfu_nrf52840_xxAA_s140_6.0.0.dir/__/common/src/mesh_provisionee.c.obj
 .debug_aranges
                0x00000000000000f0       0x50 CMakeFiles/dfu_nrf52840_xxAA_s140_6.0.0.dir/__/common/src/simple_hal.c.obj
 .debug_aranges
                0x0000000000000140       0x40 CMakeFiles/dfu_nrf52840_xxAA_s140_6.0.0.dir/__/__/mesh/access/src/access_publish.c.obj
 .debug_aranges
                0x0000000000000180      0x180 CMakeFiles/dfu_nrf52840_xxAA_s140_6.0.0.dir/__/__/mesh/access/src/access.c.obj
 .debug_aranges
                0x0000000000000300       0x50 CMakeFiles/dfu_nrf52840_xxAA_s140_6.0.0.dir/__/__/mesh/access/src/access_reliable.c.obj
 .debug_aranges
                0x0000000000000350      0x250 CMakeFiles/dfu_nrf52840_xxAA_s140_6.0.0.dir/__/__/mesh/access/src/device_state_manager.c.obj
 .debug_aranges
                0x00000000000005a0       0x38 CMakeFiles/dfu_nrf52840_xxAA_s140_6.0.0.dir/__/__/mesh/serial/src/serial_uart.c.obj
 .debug_aranges
                0x00000000000005d8       0x60 CMakeFiles/dfu_nrf52840_xxAA_s140_6.0.0.dir/__/__/mesh/serial/src/serial_bearer.c.obj
 .debug_aranges
                0x0000000000000638       0x28 CMakeFiles/dfu_nrf52840_xxAA_s140_6.0.0.dir/__/__/mesh/serial/src/serial_handler_common.c.obj
 .debug_aranges
                0x0000000000000660       0xd0 CMakeFiles/dfu_nrf52840_xxAA_s140_6.0.0.dir/__/__/mesh/serial/src/serial_handler_access.c.obj
 .debug_aranges
                0x0000000000000730       0x20 CMakeFiles/dfu_nrf52840_xxAA_s140_6.0.0.dir/__/__/mesh/serial/src/serial_handler_config.c.obj
 .debug_aranges
                0x0000000000000750       0x20 CMakeFiles/dfu_nrf52840_xxAA_s140_6.0.0.dir/__/__/mesh/serial/src/serial_handler_openmesh.c.obj
 .debug_aranges
                0x0000000000000770       0x60 CMakeFiles/dfu_nrf52840_xxAA_s140_6.0.0.dir/__/__/mesh/serial/src/serial.c.obj
 .debug_aranges
                0x00000000000007d0       0x48 CMakeFiles/dfu_nrf52840_xxAA_s140_6.0.0.dir/__/__/mesh/serial/src/serial_handler_prov.c.obj
 .debug_aranges
                0x0000000000000818       0x30 CMakeFiles/dfu_nrf52840_xxAA_s140_6.0.0.dir/__/__/mesh/serial/src/serial_handler_dfu.c.obj
 .debug_aranges
                0x0000000000000848      0x110 CMakeFiles/dfu_nrf52840_xxAA_s140_6.0.0.dir/__/__/mesh/serial/src/serial_handler_mesh.c.obj
 .debug_aranges
                0x0000000000000958       0x40 CMakeFiles/dfu_nrf52840_xxAA_s140_6.0.0.dir/__/__/mesh/serial/src/serial_handler_models.c.obj
 .debug_aranges
                0x0000000000000998       0x68 CMakeFiles/dfu_nrf52840_xxAA_s140_6.0.0.dir/__/__/mesh/serial/src/serial_handler_device.c.obj
 .debug_aranges
                0x0000000000000a00       0x38 CMakeFiles/dfu_nrf52840_xxAA_s140_6.0.0.dir/__/__/mesh/serial/src/nrf_mesh_serial.c.obj
 .debug_aranges
                0x0000000000000a38       0x28 CMakeFiles/dfu_nrf52840_xxAA_s140_6.0.0.dir/__/__/mesh/serial/src/serial_handler_app.c.obj
 .debug_aranges
                0x0000000000000a60       0x20 CMakeFiles/dfu_nrf52840_xxAA_s140_6.0.0.dir/__/__/models/config/src/composition_data.c.obj
 .debug_aranges
                0x0000000000000a80      0x1b0 CMakeFiles/dfu_nrf52840_xxAA_s140_6.0.0.dir/__/__/models/config/src/config_server.c.obj
 .debug_aranges
                0x0000000000000c30       0x20 CMakeFiles/dfu_nrf52840_xxAA_s140_6.0.0.dir/__/__/models/config/src/packed_index_list.c.obj
 .debug_aranges
                0x0000000000000c50       0xa0 CMakeFiles/dfu_nrf52840_xxAA_s140_6.0.0.dir/__/__/models/health/src/health_server.c.obj
 .debug_aranges
                0x0000000000000cf0       0x68 CMakeFiles/dfu_nrf52840_xxAA_s140_6.0.0.dir/__/__/mesh/prov/src/prov_provisioner.c.obj
 .debug_aranges
                0x0000000000000d58       0x60 CMakeFiles/dfu_nrf52840_xxAA_s140_6.0.0.dir/__/__/mesh/prov/src/prov_provisionee.c.obj
 .debug_aranges
                0x0000000000000db8       0x80 CMakeFiles/dfu_nrf52840_xxAA_s140_6.0.0.dir/__/__/mesh/prov/src/nrf_mesh_prov.c.obj
 .debug_aranges
                0x0000000000000e38       0x78 CMakeFiles/dfu_nrf52840_xxAA_s140_6.0.0.dir/__/__/mesh/prov/src/provisioning.c.obj
 .debug_aranges
                0x0000000000000eb0       0x38 CMakeFiles/dfu_nrf52840_xxAA_s140_6.0.0.dir/__/__/mesh/prov/src/prov_beacon.c.obj
 .debug_aranges
                0x0000000000000ee8       0x60 CMakeFiles/dfu_nrf52840_xxAA_s140_6.0.0.dir/__/__/mesh/prov/src/prov_utils.c.obj
 .debug_aranges
                0x0000000000000f48       0xa0 CMakeFiles/dfu_nrf52840_xxAA_s140_6.0.0.dir/__/__/mesh/prov/src/prov_bearer_adv.c.obj
 .debug_aranges
                0x0000000000000fe8       0x98 CMakeFiles/dfu_nrf52840_xxAA_s140_6.0.0.dir/__/__/mesh/dfu/src/nrf_mesh_dfu.c.obj
 .debug_aranges
                0x0000000000001080       0x20 CMakeFiles/dfu_nrf52840_xxAA_s140_6.0.0.dir/__/common/src/app_error_weak.c.obj
 .debug_aranges
                0x00000000000010a0       0x20 CMakeFiles/dfu_nrf52840_xxAA_s140_6.0.0.dir/__/common/src/assertion_handler_weak.c.obj
 .debug_aranges
                0x00000000000010c0       0x30 CMakeFiles/dfu_nrf52840_xxAA_s140_6.0.0.dir/__/__/mesh/core/src/nrf_mesh_configure.c.obj
 .debug_aranges
                0x00000000000010f0       0x28 CMakeFiles/dfu_nrf52840_xxAA_s140_6.0.0.dir/__/__/mesh/core/src/aes.c.obj
 .debug_aranges
                0x0000000000001118       0x38 CMakeFiles/dfu_nrf52840_xxAA_s140_6.0.0.dir/__/__/mesh/core/src/msg_cache.c.obj
 .debug_aranges
                0x0000000000001150       0xc0 CMakeFiles/dfu_nrf52840_xxAA_s140_6.0.0.dir/__/__/mesh/core/src/transport.c.obj
 .debug_aranges
                0x0000000000001210       0x30 CMakeFiles/dfu_nrf52840_xxAA_s140_6.0.0.dir/__/__/mesh/core/src/event.c.obj
 .debug_aranges
                0x0000000000001240       0x60 CMakeFiles/dfu_nrf52840_xxAA_s140_6.0.0.dir/__/__/mesh/core/src/packet_buffer.c.obj
 .debug_aranges
                0x00000000000012a0       0xa0 CMakeFiles/dfu_nrf52840_xxAA_s140_6.0.0.dir/__/__/mesh/core/src/flash_manager_defrag.c.obj
 .debug_aranges
                0x0000000000001340       0x60 CMakeFiles/dfu_nrf52840_xxAA_s140_6.0.0.dir/__/__/mesh/core/src/fifo.c.obj
 .debug_aranges
                0x00000000000013a0       0x28 CMakeFiles/dfu_nrf52840_xxAA_s140_6.0.0.dir/__/__/mesh/core/src/nrf_flash.c.obj
 .debug_aranges
                0x00000000000013c8       0x48 CMakeFiles/dfu_nrf52840_xxAA_s140_6.0.0.dir/__/__/mesh/core/src/packet_mgr.c.obj
 .debug_aranges
                0x0000000000001410       0xd0 CMakeFiles/dfu_nrf52840_xxAA_s140_6.0.0.dir/__/__/mesh/core/src/net_state.c.obj
 .debug_aranges
                0x00000000000014e0       0x58 CMakeFiles/dfu_nrf52840_xxAA_s140_6.0.0.dir/__/__/mesh/core/src/mesh_flash.c.obj
 .debug_aranges
                0x0000000000001538       0x30 CMakeFiles/dfu_nrf52840_xxAA_s140_6.0.0.dir/__/__/mesh/core/src/nrf_mesh_utils.c.obj
 .debug_aranges
                0x0000000000001568       0x90 CMakeFiles/dfu_nrf52840_xxAA_s140_6.0.0.dir/__/__/mesh/core/src/nrf_mesh.c.obj
 .debug_aranges
                0x00000000000015f8       0x38 CMakeFiles/dfu_nrf52840_xxAA_s140_6.0.0.dir/__/__/mesh/core/src/queue.c.obj
 .debug_aranges
                0x0000000000001630       0x30 CMakeFiles/dfu_nrf52840_xxAA_s140_6.0.0.dir/__/__/mesh/core/src/hal.c.obj
 .debug_aranges
                0x0000000000001660       0x28 CMakeFiles/dfu_nrf52840_xxAA_s140_6.0.0.dir/__/__/mesh/core/src/aes_cmac.c.obj
 .debug_aranges
                0x0000000000001688       0x50 CMakeFiles/dfu_nrf52840_xxAA_s140_6.0.0.dir/__/__/mesh/core/src/timer_scheduler.c.obj
 .debug_aranges
                0x00000000000016d8       0x58 CMakeFiles/dfu_nrf52840_xxAA_s140_6.0.0.dir/__/__/mesh/core/src/timer.c.obj
 .debug_aranges
                0x0000000000001730       0x30 CMakeFiles/dfu_nrf52840_xxAA_s140_6.0.0.dir/__/__/mesh/core/src/ticker.c.obj
 .debug_aranges
                0x0000000000001760       0x40 CMakeFiles/dfu_nrf52840_xxAA_s140_6.0.0.dir/__/__/mesh/core/src/rand.c.obj
 .debug_aranges
                0x00000000000017a0       0x28 CMakeFiles/dfu_nrf52840_xxAA_s140_6.0.0.dir/__/__/mesh/core/src/nrf_mesh_opt.c.obj
 .debug_aranges
                0x00000000000017c8       0xa8 CMakeFiles/dfu_nrf52840_xxAA_s140_6.0.0.dir/__/__/mesh/core/src/timeslot.c.obj
 .debug_aranges
                0x0000000000001870       0x88 CMakeFiles/dfu_nrf52840_xxAA_s140_6.0.0.dir/__/__/mesh/core/src/bearer_event.c.obj
 .debug_aranges
                0x00000000000018f8       0x70 CMakeFiles/dfu_nrf52840_xxAA_s140_6.0.0.dir/__/__/mesh/core/src/enc.c.obj
 .debug_aranges
                0x0000000000001968       0x50 CMakeFiles/dfu_nrf52840_xxAA_s140_6.0.0.dir/__/__/mesh/core/src/network.c.obj
 .debug_aranges
                0x00000000000019b8       0x58 CMakeFiles/dfu_nrf52840_xxAA_s140_6.0.0.dir/__/__/mesh/core/src/net_packet.c.obj
 .debug_aranges
                0x0000000000001a10       0x40 CMakeFiles/dfu_nrf52840_xxAA_s140_6.0.0.dir/__/__/mesh/core/src/msqueue.c.obj
 .debug_aranges
                0x0000000000001a50       0x40 CMakeFiles/dfu_nrf52840_xxAA_s140_6.0.0.dir/__/__/mesh/core/src/nrf_mesh_keygen.c.obj
 .debug_aranges
                0x0000000000001a90       0x40 CMakeFiles/dfu_nrf52840_xxAA_s140_6.0.0.dir/__/__/mesh/core/src/list.c.obj
 .debug_aranges
                0x0000000000001ad0       0x48 CMakeFiles/dfu_nrf52840_xxAA_s140_6.0.0.dir/__/__/mesh/core/src/log.c.obj
 .debug_aranges
                0x0000000000001b18       0xa0 CMakeFiles/dfu_nrf52840_xxAA_s140_6.0.0.dir/__/__/mesh/core/src/flash_manager.c.obj
 .debug_aranges
                0x0000000000001bb8       0x38 CMakeFiles/dfu_nrf52840_xxAA_s140_6.0.0.dir/__/__/mesh/core/src/ccm_soft.c.obj
 .debug_aranges
                0x0000000000001bf0       0x38 CMakeFiles/dfu_nrf52840_xxAA_s140_6.0.0.dir/__/__/mesh/core/src/replay_cache.c.obj
 .debug_aranges
                0x0000000000001c28       0x28 CMakeFiles/dfu_nrf52840_xxAA_s140_6.0.0.dir/__/__/mesh/core/src/beacon.c.obj
 .debug_aranges
                0x0000000000001c50       0x20 CMakeFiles/dfu_nrf52840_xxAA_s140_6.0.0.dir/__/__/mesh/core/src/flash_manager_internal.c.obj
 .debug_aranges
                0x0000000000001c70       0x58 CMakeFiles/dfu_nrf52840_xxAA_s140_6.0.0.dir/__/__/mesh/core/src/core_tx.c.obj
 .debug_aranges
                0x0000000000001cc8       0x70 CMakeFiles/dfu_nrf52840_xxAA_s140_6.0.0.dir/__/__/mesh/core/src/heartbeat.c.obj
 .debug_aranges
                0x0000000000001d38       0x58 CMakeFiles/dfu_nrf52840_xxAA_s140_6.0.0.dir/__/__/mesh/core/src/net_beacon.c.obj
 .debug_aranges
                0x0000000000001d90       0x68 CMakeFiles/dfu_nrf52840_xxAA_s140_6.0.0.dir/__/__/mesh/core/src/core_tx_adv.c.obj
 .debug_aranges
                0x0000000000001df8       0x30 CMakeFiles/dfu_nrf52840_xxAA_s140_6.0.0.dir/__/__/mesh/bearer/src/ad_listener.c.obj
 .debug_aranges
                0x0000000000001e28       0x58 CMakeFiles/dfu_nrf52840_xxAA_s140_6.0.0.dir/__/__/mesh/bearer/src/ad_type_filter.c.obj
 .debug_aranges
                0x0000000000001e80       0xa0 CMakeFiles/dfu_nrf52840_xxAA_s140_6.0.0.dir/__/__/mesh/bearer/src/advertiser.c.obj
 .debug_aranges
                0x0000000000001f20       0x70 CMakeFiles/dfu_nrf52840_xxAA_s140_6.0.0.dir/__/__/mesh/bearer/src/bearer_handler.c.obj
 .debug_aranges
                0x0000000000001f90       0x30 CMakeFiles/dfu_nrf52840_xxAA_s140_6.0.0.dir/__/__/mesh/bearer/src/broadcast.c.obj
 .debug_aranges
                0x0000000000001fc0       0x38 CMakeFiles/dfu_nrf52840_xxAA_s140_6.0.0.dir/__/__/mesh/bearer/src/filter_engine.c.obj
 .debug_aranges
                0x0000000000001ff8       0x40 CMakeFiles/dfu_nrf52840_xxAA_s140_6.0.0.dir/__/__/mesh/bearer/src/radio_config.c.obj
 .debug_aranges
                0x0000000000002038       0xb8 CMakeFiles/dfu_nrf52840_xxAA_s140_6.0.0.dir/__/__/mesh/bearer/src/scanner.c.obj
 .debug_aranges
                0x00000000000020f0       0x28 CMakeFiles/dfu_nrf52840_xxAA_s140_6.0.0.dir/home/mazzer/work/nordic/sdk/nRF5_SDK_15.0.0/modules/nrfx/mdk/system_nrf52840.c.obj
 .debug_aranges
                0x0000000000002118       0x20 CMakeFiles/dfu_nrf52840_xxAA_s140_6.0.0.dir/home/mazzer/work/nordic/sdk/nRF5_SDK_15.0.0/modules/nrfx/mdk/gcc_startup_nrf52840.S.obj
 .debug_aranges
                0x0000000000002138       0x28 CMakeFiles/dfu_nrf52840_xxAA_s140_6.0.0.dir/home/mazzer/work/nordic/sdk/nRF5_SDK_15.0.0/components/libraries/util/app_error.c.obj
 .debug_aranges
                0x0000000000002160       0x20 CMakeFiles/dfu_nrf52840_xxAA_s140_6.0.0.dir/home/mazzer/work/nordic/sdk/nRF5_SDK_15.0.0/components/libraries/util/app_error_handler_gcc.c.obj
 .debug_aranges
                0x0000000000002180       0xb0 ../../external/rtt/librtt_nrf52840_xxAA.a(SEGGER_RTT.c.obj)
 .debug_aranges
                0x0000000000002230       0x30 ../../external/rtt/librtt_nrf52840_xxAA.a(SEGGER_RTT_printf.c.obj)
 .debug_aranges
                0x0000000000002260      0x100 ../../external/micro-ecc/libuECC_nrf52840_xxAA.a(uECC.c.obj)

.debug_ranges   0x0000000000000000     0xecb0
 .debug_ranges  0x0000000000000000      0x298 CMakeFiles/dfu_nrf52840_xxAA_s140_6.0.0.dir/src/main.c.obj
 .debug_ranges  0x0000000000000298       0x88 CMakeFiles/dfu_nrf52840_xxAA_s140_6.0.0.dir/__/__/mesh/stack/src/mesh_stack.c.obj
 .debug_ranges  0x0000000000000320       0xe8 CMakeFiles/dfu_nrf52840_xxAA_s140_6.0.0.dir/__/common/src/mesh_softdevice_init.c.obj
 .debug_ranges  0x0000000000000408       0x90 CMakeFiles/dfu_nrf52840_xxAA_s140_6.0.0.dir/__/common/src/mesh_provisionee.c.obj
 .debug_ranges  0x0000000000000498       0xc0 CMakeFiles/dfu_nrf52840_xxAA_s140_6.0.0.dir/__/common/src/simple_hal.c.obj
 .debug_ranges  0x0000000000000558      0x318 CMakeFiles/dfu_nrf52840_xxAA_s140_6.0.0.dir/__/__/mesh/access/src/access_publish.c.obj
 .debug_ranges  0x0000000000000870      0xd30 CMakeFiles/dfu_nrf52840_xxAA_s140_6.0.0.dir/__/__/mesh/access/src/access.c.obj
 .debug_ranges  0x00000000000015a0      0x258 CMakeFiles/dfu_nrf52840_xxAA_s140_6.0.0.dir/__/__/mesh/access/src/access_reliable.c.obj
 .debug_ranges  0x00000000000017f8     0x2018 CMakeFiles/dfu_nrf52840_xxAA_s140_6.0.0.dir/__/__/mesh/access/src/device_state_manager.c.obj
 .debug_ranges  0x0000000000003810       0x68 CMakeFiles/dfu_nrf52840_xxAA_s140_6.0.0.dir/__/__/mesh/serial/src/serial_uart.c.obj
 .debug_ranges  0x0000000000003878      0x240 CMakeFiles/dfu_nrf52840_xxAA_s140_6.0.0.dir/__/__/mesh/serial/src/serial_bearer.c.obj
 .debug_ranges  0x0000000000003ab8       0x40 CMakeFiles/dfu_nrf52840_xxAA_s140_6.0.0.dir/__/__/mesh/serial/src/serial_handler_common.c.obj
 .debug_ranges  0x0000000000003af8       0xc0 CMakeFiles/dfu_nrf52840_xxAA_s140_6.0.0.dir/__/__/mesh/serial/src/serial_handler_access.c.obj
 .debug_ranges  0x0000000000003bb8       0x10 CMakeFiles/dfu_nrf52840_xxAA_s140_6.0.0.dir/__/__/mesh/serial/src/serial_handler_config.c.obj
 .debug_ranges  0x0000000000003bc8       0x28 CMakeFiles/dfu_nrf52840_xxAA_s140_6.0.0.dir/__/__/mesh/serial/src/serial_handler_openmesh.c.obj
 .debug_ranges  0x0000000000003bf0      0x1e8 CMakeFiles/dfu_nrf52840_xxAA_s140_6.0.0.dir/__/__/mesh/serial/src/serial.c.obj
 .debug_ranges  0x0000000000003dd8      0x3e8 CMakeFiles/dfu_nrf52840_xxAA_s140_6.0.0.dir/__/__/mesh/serial/src/serial_handler_prov.c.obj
 .debug_ranges  0x00000000000041c0       0x38 CMakeFiles/dfu_nrf52840_xxAA_s140_6.0.0.dir/__/__/mesh/serial/src/serial_handler_dfu.c.obj
 .debug_ranges  0x00000000000041f8      0x148 CMakeFiles/dfu_nrf52840_xxAA_s140_6.0.0.dir/__/__/mesh/serial/src/serial_handler_mesh.c.obj
 .debug_ranges  0x0000000000004340       0xd8 CMakeFiles/dfu_nrf52840_xxAA_s140_6.0.0.dir/__/__/mesh/serial/src/serial_handler_models.c.obj
 .debug_ranges  0x0000000000004418       0xd8 CMakeFiles/dfu_nrf52840_xxAA_s140_6.0.0.dir/__/__/mesh/serial/src/serial_handler_device.c.obj
 .debug_ranges  0x00000000000044f0       0x28 CMakeFiles/dfu_nrf52840_xxAA_s140_6.0.0.dir/__/__/mesh/serial/src/nrf_mesh_serial.c.obj
 .debug_ranges  0x0000000000004518       0x18 CMakeFiles/dfu_nrf52840_xxAA_s140_6.0.0.dir/__/__/mesh/serial/src/serial_handler_app.c.obj
 .debug_ranges  0x0000000000004530       0xa8 CMakeFiles/dfu_nrf52840_xxAA_s140_6.0.0.dir/__/__/models/config/src/composition_data.c.obj
 .debug_ranges  0x00000000000045d8     0x1618 CMakeFiles/dfu_nrf52840_xxAA_s140_6.0.0.dir/__/__/models/config/src/config_server.c.obj
 .debug_ranges  0x0000000000005bf0       0x10 CMakeFiles/dfu_nrf52840_xxAA_s140_6.0.0.dir/__/__/models/config/src/packed_index_list.c.obj
 .debug_ranges  0x0000000000005c00      0x6c8 CMakeFiles/dfu_nrf52840_xxAA_s140_6.0.0.dir/__/__/models/health/src/health_server.c.obj
 .debug_ranges  0x00000000000062c8      0x108 CMakeFiles/dfu_nrf52840_xxAA_s140_6.0.0.dir/__/__/mesh/prov/src/prov_provisioner.c.obj
 .debug_ranges  0x00000000000063d0      0x1b0 CMakeFiles/dfu_nrf52840_xxAA_s140_6.0.0.dir/__/__/mesh/prov/src/prov_provisionee.c.obj
 .debug_ranges  0x0000000000006580      0x140 CMakeFiles/dfu_nrf52840_xxAA_s140_6.0.0.dir/__/__/mesh/prov/src/nrf_mesh_prov.c.obj
 .debug_ranges  0x00000000000066c0      0x170 CMakeFiles/dfu_nrf52840_xxAA_s140_6.0.0.dir/__/__/mesh/prov/src/provisioning.c.obj
 .debug_ranges  0x0000000000006830       0x40 CMakeFiles/dfu_nrf52840_xxAA_s140_6.0.0.dir/__/__/mesh/prov/src/prov_beacon.c.obj
 .debug_ranges  0x0000000000006870       0x88 CMakeFiles/dfu_nrf52840_xxAA_s140_6.0.0.dir/__/__/mesh/prov/src/prov_utils.c.obj
 .debug_ranges  0x00000000000068f8      0x9c8 CMakeFiles/dfu_nrf52840_xxAA_s140_6.0.0.dir/__/__/mesh/prov/src/prov_bearer_adv.c.obj
 .debug_ranges  0x00000000000072c0      0x908 CMakeFiles/dfu_nrf52840_xxAA_s140_6.0.0.dir/__/__/mesh/dfu/src/nrf_mesh_dfu.c.obj
 .debug_ranges  0x0000000000007bc8       0xc8 CMakeFiles/dfu_nrf52840_xxAA_s140_6.0.0.dir/__/common/src/app_error_weak.c.obj
 .debug_ranges  0x0000000000007c90       0x10 CMakeFiles/dfu_nrf52840_xxAA_s140_6.0.0.dir/__/common/src/assertion_handler_weak.c.obj
 .debug_ranges  0x0000000000007ca0       0x20 CMakeFiles/dfu_nrf52840_xxAA_s140_6.0.0.dir/__/__/mesh/core/src/nrf_mesh_configure.c.obj
 .debug_ranges  0x0000000000007cc0       0x18 CMakeFiles/dfu_nrf52840_xxAA_s140_6.0.0.dir/__/__/mesh/core/src/aes.c.obj
 .debug_ranges  0x0000000000007cd8       0x40 CMakeFiles/dfu_nrf52840_xxAA_s140_6.0.0.dir/__/__/mesh/core/src/msg_cache.c.obj
 .debug_ranges  0x0000000000007d18      0xf08 CMakeFiles/dfu_nrf52840_xxAA_s140_6.0.0.dir/__/__/mesh/core/src/transport.c.obj
 .debug_ranges  0x0000000000008c20       0x20 CMakeFiles/dfu_nrf52840_xxAA_s140_6.0.0.dir/__/__/mesh/core/src/event.c.obj
 .debug_ranges  0x0000000000008c40      0x118 CMakeFiles/dfu_nrf52840_xxAA_s140_6.0.0.dir/__/__/mesh/core/src/packet_buffer.c.obj
 .debug_ranges  0x0000000000008d58      0x4c8 CMakeFiles/dfu_nrf52840_xxAA_s140_6.0.0.dir/__/__/mesh/core/src/flash_manager_defrag.c.obj
 .debug_ranges  0x0000000000009220       0xc0 CMakeFiles/dfu_nrf52840_xxAA_s140_6.0.0.dir/__/__/mesh/core/src/fifo.c.obj
 .debug_ranges  0x00000000000092e0       0x30 CMakeFiles/dfu_nrf52840_xxAA_s140_6.0.0.dir/__/__/mesh/core/src/nrf_flash.c.obj
 .debug_ranges  0x0000000000009310       0xe8 CMakeFiles/dfu_nrf52840_xxAA_s140_6.0.0.dir/__/__/mesh/core/src/packet_mgr.c.obj
 .debug_ranges  0x00000000000093f8      0x868 CMakeFiles/dfu_nrf52840_xxAA_s140_6.0.0.dir/__/__/mesh/core/src/net_state.c.obj
 .debug_ranges  0x0000000000009c60      0x300 CMakeFiles/dfu_nrf52840_xxAA_s140_6.0.0.dir/__/__/mesh/core/src/mesh_flash.c.obj
 .debug_ranges  0x0000000000009f60       0x20 CMakeFiles/dfu_nrf52840_xxAA_s140_6.0.0.dir/__/__/mesh/core/src/nrf_mesh_utils.c.obj
 .debug_ranges  0x0000000000009f80      0x150 CMakeFiles/dfu_nrf52840_xxAA_s140_6.0.0.dir/__/__/mesh/core/src/nrf_mesh.c.obj
 .debug_ranges  0x000000000000a0d0       0x28 CMakeFiles/dfu_nrf52840_xxAA_s140_6.0.0.dir/__/__/mesh/core/src/queue.c.obj
 .debug_ranges  0x000000000000a0f8       0x20 CMakeFiles/dfu_nrf52840_xxAA_s140_6.0.0.dir/__/__/mesh/core/src/hal.c.obj
 .debug_ranges  0x000000000000a118      0x150 CMakeFiles/dfu_nrf52840_xxAA_s140_6.0.0.dir/__/__/mesh/core/src/aes_cmac.c.obj
 .debug_ranges  0x000000000000a268      0x288 CMakeFiles/dfu_nrf52840_xxAA_s140_6.0.0.dir/__/__/mesh/core/src/timer_scheduler.c.obj
 .debug_ranges  0x000000000000a4f0      0x178 CMakeFiles/dfu_nrf52840_xxAA_s140_6.0.0.dir/__/__/mesh/core/src/timer.c.obj
 .debug_ranges  0x000000000000a668       0x20 CMakeFiles/dfu_nrf52840_xxAA_s140_6.0.0.dir/__/__/mesh/core/src/ticker.c.obj
 .debug_ranges  0x000000000000a688       0x48 CMakeFiles/dfu_nrf52840_xxAA_s140_6.0.0.dir/__/__/mesh/core/src/rand.c.obj
 .debug_ranges  0x000000000000a6d0       0x18 CMakeFiles/dfu_nrf52840_xxAA_s140_6.0.0.dir/__/__/mesh/core/src/nrf_mesh_opt.c.obj
 .debug_ranges  0x000000000000a6e8      0x250 CMakeFiles/dfu_nrf52840_xxAA_s140_6.0.0.dir/__/__/mesh/core/src/timeslot.c.obj
 .debug_ranges  0x000000000000a938      0x288 CMakeFiles/dfu_nrf52840_xxAA_s140_6.0.0.dir/__/__/mesh/core/src/bearer_event.c.obj
 .debug_ranges  0x000000000000abc0      0x1b8 CMakeFiles/dfu_nrf52840_xxAA_s140_6.0.0.dir/__/__/mesh/core/src/enc.c.obj
 .debug_ranges  0x000000000000ad78      0x1b8 CMakeFiles/dfu_nrf52840_xxAA_s140_6.0.0.dir/__/__/mesh/core/src/network.c.obj
 .debug_ranges  0x000000000000af30      0x208 CMakeFiles/dfu_nrf52840_xxAA_s140_6.0.0.dir/__/__/mesh/core/src/net_packet.c.obj
 .debug_ranges  0x000000000000b138       0x78 CMakeFiles/dfu_nrf52840_xxAA_s140_6.0.0.dir/__/__/mesh/core/src/msqueue.c.obj
 .debug_ranges  0x000000000000b1b0       0x30 CMakeFiles/dfu_nrf52840_xxAA_s140_6.0.0.dir/__/__/mesh/core/src/nrf_mesh_keygen.c.obj
 .debug_ranges  0x000000000000b1e0       0xf0 CMakeFiles/dfu_nrf52840_xxAA_s140_6.0.0.dir/__/__/mesh/core/src/list.c.obj
 .debug_ranges  0x000000000000b2d0       0x58 CMakeFiles/dfu_nrf52840_xxAA_s140_6.0.0.dir/__/__/mesh/core/src/log.c.obj
 .debug_ranges  0x000000000000b328      0xc18 CMakeFiles/dfu_nrf52840_xxAA_s140_6.0.0.dir/__/__/mesh/core/src/flash_manager.c.obj
 .debug_ranges  0x000000000000bf40       0xf8 CMakeFiles/dfu_nrf52840_xxAA_s140_6.0.0.dir/__/__/mesh/core/src/ccm_soft.c.obj
 .debug_ranges  0x000000000000c038       0x48 CMakeFiles/dfu_nrf52840_xxAA_s140_6.0.0.dir/__/__/mesh/core/src/replay_cache.c.obj
 .debug_ranges  0x000000000000c080       0x90 CMakeFiles/dfu_nrf52840_xxAA_s140_6.0.0.dir/__/__/mesh/core/src/beacon.c.obj
 .debug_ranges  0x000000000000c110       0x30 CMakeFiles/dfu_nrf52840_xxAA_s140_6.0.0.dir/__/__/mesh/core/src/flash_manager_internal.c.obj
 .debug_ranges  0x000000000000c140       0xc0 CMakeFiles/dfu_nrf52840_xxAA_s140_6.0.0.dir/__/__/mesh/core/src/core_tx.c.obj
 .debug_ranges  0x000000000000c200      0x120 CMakeFiles/dfu_nrf52840_xxAA_s140_6.0.0.dir/__/__/mesh/core/src/heartbeat.c.obj
 .debug_ranges  0x000000000000c320      0x1b8 CMakeFiles/dfu_nrf52840_xxAA_s140_6.0.0.dir/__/__/mesh/core/src/net_beacon.c.obj
 .debug_ranges  0x000000000000c4d8       0x58 CMakeFiles/dfu_nrf52840_xxAA_s140_6.0.0.dir/__/__/mesh/core/src/core_tx_adv.c.obj
 .debug_ranges  0x000000000000c530      0x118 CMakeFiles/dfu_nrf52840_xxAA_s140_6.0.0.dir/__/__/mesh/bearer/src/ad_listener.c.obj
 .debug_ranges  0x000000000000c648       0xc8 CMakeFiles/dfu_nrf52840_xxAA_s140_6.0.0.dir/__/__/mesh/bearer/src/ad_type_filter.c.obj
 .debug_ranges  0x000000000000c710      0x478 CMakeFiles/dfu_nrf52840_xxAA_s140_6.0.0.dir/__/__/mesh/bearer/src/advertiser.c.obj
 .debug_ranges  0x000000000000cb88      0x188 CMakeFiles/dfu_nrf52840_xxAA_s140_6.0.0.dir/__/__/mesh/bearer/src/bearer_handler.c.obj
 .debug_ranges  0x000000000000cd10       0xa0 CMakeFiles/dfu_nrf52840_xxAA_s140_6.0.0.dir/__/__/mesh/bearer/src/broadcast.c.obj
 .debug_ranges  0x000000000000cdb0       0x28 CMakeFiles/dfu_nrf52840_xxAA_s140_6.0.0.dir/__/__/mesh/bearer/src/filter_engine.c.obj
 .debug_ranges  0x000000000000cdd8       0x48 CMakeFiles/dfu_nrf52840_xxAA_s140_6.0.0.dir/__/__/mesh/bearer/src/radio_config.c.obj
 .debug_ranges  0x000000000000ce20      0x400 CMakeFiles/dfu_nrf52840_xxAA_s140_6.0.0.dir/__/__/mesh/bearer/src/scanner.c.obj
 .debug_ranges  0x000000000000d220       0x40 CMakeFiles/dfu_nrf52840_xxAA_s140_6.0.0.dir/home/mazzer/work/nordic/sdk/nRF5_SDK_15.0.0/modules/nrfx/mdk/system_nrf52840.c.obj
 .debug_ranges  0x000000000000d260       0x18 CMakeFiles/dfu_nrf52840_xxAA_s140_6.0.0.dir/home/mazzer/work/nordic/sdk/nRF5_SDK_15.0.0/components/libraries/util/app_error.c.obj
 .debug_ranges  0x000000000000d278       0x10 CMakeFiles/dfu_nrf52840_xxAA_s140_6.0.0.dir/home/mazzer/work/nordic/sdk/nRF5_SDK_15.0.0/components/libraries/util/app_error_handler_gcc.c.obj
 .debug_ranges  0x000000000000d288      0x5d8 ../../external/rtt/librtt_nrf52840_xxAA.a(SEGGER_RTT.c.obj)
 .debug_ranges  0x000000000000d860      0x1b8 ../../external/rtt/librtt_nrf52840_xxAA.a(SEGGER_RTT_printf.c.obj)
 .debug_ranges  0x000000000000da18     0x1298 ../../external/micro-ecc/libuECC_nrf52840_xxAA.a(uECC.c.obj)

.debug_line     0x0000000000000000    0x26f1e
 .debug_line    0x0000000000000000      0x904 CMakeFiles/dfu_nrf52840_xxAA_s140_6.0.0.dir/src/main.c.obj
 .debug_line    0x0000000000000904      0x6ac CMakeFiles/dfu_nrf52840_xxAA_s140_6.0.0.dir/__/__/mesh/stack/src/mesh_stack.c.obj
 .debug_line    0x0000000000000fb0      0x4a2 CMakeFiles/dfu_nrf52840_xxAA_s140_6.0.0.dir/__/common/src/mesh_softdevice_init.c.obj
 .debug_line    0x0000000000001452      0x702 CMakeFiles/dfu_nrf52840_xxAA_s140_6.0.0.dir/__/common/src/mesh_provisionee.c.obj
 .debug_line    0x0000000000001b54      0x578 CMakeFiles/dfu_nrf52840_xxAA_s140_6.0.0.dir/__/common/src/simple_hal.c.obj
 .debug_line    0x00000000000020cc      0x5cb CMakeFiles/dfu_nrf52840_xxAA_s140_6.0.0.dir/__/__/mesh/access/src/access_publish.c.obj
 .debug_line    0x0000000000002697     0x139c CMakeFiles/dfu_nrf52840_xxAA_s140_6.0.0.dir/__/__/mesh/access/src/access.c.obj
 .debug_line    0x0000000000003a33      0x65f CMakeFiles/dfu_nrf52840_xxAA_s140_6.0.0.dir/__/__/mesh/access/src/access_reliable.c.obj
 .debug_line    0x0000000000004092     0x27fd CMakeFiles/dfu_nrf52840_xxAA_s140_6.0.0.dir/__/__/mesh/access/src/device_state_manager.c.obj
 .debug_line    0x000000000000688f      0x3de CMakeFiles/dfu_nrf52840_xxAA_s140_6.0.0.dir/__/__/mesh/serial/src/serial_uart.c.obj
 .debug_line    0x0000000000006c6d      0x75b CMakeFiles/dfu_nrf52840_xxAA_s140_6.0.0.dir/__/__/mesh/serial/src/serial_bearer.c.obj
 .debug_line    0x00000000000073c8      0x482 CMakeFiles/dfu_nrf52840_xxAA_s140_6.0.0.dir/__/__/mesh/serial/src/serial_handler_common.c.obj
 .debug_line    0x000000000000784a      0x69e CMakeFiles/dfu_nrf52840_xxAA_s140_6.0.0.dir/__/__/mesh/serial/src/serial_handler_access.c.obj
 .debug_line    0x0000000000007ee8      0x5a5 CMakeFiles/dfu_nrf52840_xxAA_s140_6.0.0.dir/__/__/mesh/serial/src/serial_handler_config.c.obj
 .debug_line    0x000000000000848d      0x43e CMakeFiles/dfu_nrf52840_xxAA_s140_6.0.0.dir/__/__/mesh/serial/src/serial_handler_openmesh.c.obj
 .debug_line    0x00000000000088cb      0x7b3 CMakeFiles/dfu_nrf52840_xxAA_s140_6.0.0.dir/__/__/mesh/serial/src/serial.c.obj
 .debug_line    0x000000000000907e      0xa1d CMakeFiles/dfu_nrf52840_xxAA_s140_6.0.0.dir/__/__/mesh/serial/src/serial_handler_prov.c.obj
 .debug_line    0x0000000000009a9b      0x632 CMakeFiles/dfu_nrf52840_xxAA_s140_6.0.0.dir/__/__/mesh/serial/src/serial_handler_dfu.c.obj
 .debug_line    0x000000000000a0cd      0x886 CMakeFiles/dfu_nrf52840_xxAA_s140_6.0.0.dir/__/__/mesh/serial/src/serial_handler_mesh.c.obj
 .debug_line    0x000000000000a953      0x5e0 CMakeFiles/dfu_nrf52840_xxAA_s140_6.0.0.dir/__/__/mesh/serial/src/serial_handler_models.c.obj
 .debug_line    0x000000000000af33      0x79c CMakeFiles/dfu_nrf52840_xxAA_s140_6.0.0.dir/__/__/mesh/serial/src/serial_handler_device.c.obj
 .debug_line    0x000000000000b6cf      0x592 CMakeFiles/dfu_nrf52840_xxAA_s140_6.0.0.dir/__/__/mesh/serial/src/nrf_mesh_serial.c.obj
 .debug_line    0x000000000000bc61      0x449 CMakeFiles/dfu_nrf52840_xxAA_s140_6.0.0.dir/__/__/mesh/serial/src/serial_handler_app.c.obj
 .debug_line    0x000000000000c0aa      0x3d5 CMakeFiles/dfu_nrf52840_xxAA_s140_6.0.0.dir/__/__/models/config/src/composition_data.c.obj
 .debug_line    0x000000000000c47f     0x218d CMakeFiles/dfu_nrf52840_xxAA_s140_6.0.0.dir/__/__/models/config/src/config_server.c.obj
 .debug_line    0x000000000000e60c      0x10a CMakeFiles/dfu_nrf52840_xxAA_s140_6.0.0.dir/__/__/models/config/src/packed_index_list.c.obj
 .debug_line    0x000000000000e716      0xb59 CMakeFiles/dfu_nrf52840_xxAA_s140_6.0.0.dir/__/__/models/health/src/health_server.c.obj
 .debug_line    0x000000000000f26f      0x74c CMakeFiles/dfu_nrf52840_xxAA_s140_6.0.0.dir/__/__/mesh/prov/src/prov_provisioner.c.obj
 .debug_line    0x000000000000f9bb      0x809 CMakeFiles/dfu_nrf52840_xxAA_s140_6.0.0.dir/__/__/mesh/prov/src/prov_provisionee.c.obj
 .debug_line    0x00000000000101c4      0x68a CMakeFiles/dfu_nrf52840_xxAA_s140_6.0.0.dir/__/__/mesh/prov/src/nrf_mesh_prov.c.obj
 .debug_line    0x000000000001084e      0x517 CMakeFiles/dfu_nrf52840_xxAA_s140_6.0.0.dir/__/__/mesh/prov/src/provisioning.c.obj
 .debug_line    0x0000000000010d65      0x5c7 CMakeFiles/dfu_nrf52840_xxAA_s140_6.0.0.dir/__/__/mesh/prov/src/prov_beacon.c.obj
 .debug_line    0x000000000001132c      0x597 CMakeFiles/dfu_nrf52840_xxAA_s140_6.0.0.dir/__/__/mesh/prov/src/prov_utils.c.obj
 .debug_line    0x00000000000118c3      0xf1f CMakeFiles/dfu_nrf52840_xxAA_s140_6.0.0.dir/__/__/mesh/prov/src/prov_bearer_adv.c.obj
 .debug_line    0x00000000000127e2     0x1346 CMakeFiles/dfu_nrf52840_xxAA_s140_6.0.0.dir/__/__/mesh/dfu/src/nrf_mesh_dfu.c.obj
 .debug_line    0x0000000000013b28      0x4ec CMakeFiles/dfu_nrf52840_xxAA_s140_6.0.0.dir/__/common/src/app_error_weak.c.obj
 .debug_line    0x0000000000014014      0x275 CMakeFiles/dfu_nrf52840_xxAA_s140_6.0.0.dir/__/common/src/assertion_handler_weak.c.obj
 .debug_line    0x0000000000014289      0x250 CMakeFiles/dfu_nrf52840_xxAA_s140_6.0.0.dir/__/__/mesh/core/src/nrf_mesh_configure.c.obj
 .debug_line    0x00000000000144d9      0x285 CMakeFiles/dfu_nrf52840_xxAA_s140_6.0.0.dir/__/__/mesh/core/src/aes.c.obj
 .debug_line    0x000000000001475e      0x2c2 CMakeFiles/dfu_nrf52840_xxAA_s140_6.0.0.dir/__/__/mesh/core/src/msg_cache.c.obj
 .debug_line    0x0000000000014a20     0x125e CMakeFiles/dfu_nrf52840_xxAA_s140_6.0.0.dir/__/__/mesh/core/src/transport.c.obj
 .debug_line    0x0000000000015c7e      0x3e2 CMakeFiles/dfu_nrf52840_xxAA_s140_6.0.0.dir/__/__/mesh/core/src/event.c.obj
 .debug_line    0x0000000000016060      0x560 CMakeFiles/dfu_nrf52840_xxAA_s140_6.0.0.dir/__/__/mesh/core/src/packet_buffer.c.obj
 .debug_line    0x00000000000165c0      0x8c0 CMakeFiles/dfu_nrf52840_xxAA_s140_6.0.0.dir/__/__/mesh/core/src/flash_manager_defrag.c.obj
 .debug_line    0x0000000000016e80      0x46b CMakeFiles/dfu_nrf52840_xxAA_s140_6.0.0.dir/__/__/mesh/core/src/fifo.c.obj
 .debug_line    0x00000000000172eb      0x280 CMakeFiles/dfu_nrf52840_xxAA_s140_6.0.0.dir/__/__/mesh/core/src/nrf_flash.c.obj
 .debug_line    0x000000000001756b      0x4cf CMakeFiles/dfu_nrf52840_xxAA_s140_6.0.0.dir/__/__/mesh/core/src/packet_mgr.c.obj
 .debug_line    0x0000000000017a3a      0xae3 CMakeFiles/dfu_nrf52840_xxAA_s140_6.0.0.dir/__/__/mesh/core/src/net_state.c.obj
 .debug_line    0x000000000001851d      0x67d CMakeFiles/dfu_nrf52840_xxAA_s140_6.0.0.dir/__/__/mesh/core/src/mesh_flash.c.obj
 .debug_line    0x0000000000018b9a      0x2fb CMakeFiles/dfu_nrf52840_xxAA_s140_6.0.0.dir/__/__/mesh/core/src/nrf_mesh_utils.c.obj
 .debug_line    0x0000000000018e95      0x935 CMakeFiles/dfu_nrf52840_xxAA_s140_6.0.0.dir/__/__/mesh/core/src/nrf_mesh.c.obj
 .debug_line    0x00000000000197ca      0x33a CMakeFiles/dfu_nrf52840_xxAA_s140_6.0.0.dir/__/__/mesh/core/src/queue.c.obj
 .debug_line    0x0000000000019b04      0x24e CMakeFiles/dfu_nrf52840_xxAA_s140_6.0.0.dir/__/__/mesh/core/src/hal.c.obj
 .debug_line    0x0000000000019d52      0x468 CMakeFiles/dfu_nrf52840_xxAA_s140_6.0.0.dir/__/__/mesh/core/src/aes_cmac.c.obj
 .debug_line    0x000000000001a1ba      0x506 CMakeFiles/dfu_nrf52840_xxAA_s140_6.0.0.dir/__/__/mesh/core/src/timer_scheduler.c.obj
 .debug_line    0x000000000001a6c0      0x55d CMakeFiles/dfu_nrf52840_xxAA_s140_6.0.0.dir/__/__/mesh/core/src/timer.c.obj
 .debug_line    0x000000000001ac1d      0x17f CMakeFiles/dfu_nrf52840_xxAA_s140_6.0.0.dir/__/__/mesh/core/src/ticker.c.obj
 .debug_line    0x000000000001ad9c      0x344 CMakeFiles/dfu_nrf52840_xxAA_s140_6.0.0.dir/__/__/mesh/core/src/rand.c.obj
 .debug_line    0x000000000001b0e0      0x339 CMakeFiles/dfu_nrf52840_xxAA_s140_6.0.0.dir/__/__/mesh/core/src/nrf_mesh_opt.c.obj
 .debug_line    0x000000000001b419      0x714 CMakeFiles/dfu_nrf52840_xxAA_s140_6.0.0.dir/__/__/mesh/core/src/timeslot.c.obj
 .debug_line    0x000000000001bb2d      0x6a1 CMakeFiles/dfu_nrf52840_xxAA_s140_6.0.0.dir/__/__/mesh/core/src/bearer_event.c.obj
 .debug_line    0x000000000001c1ce      0x524 CMakeFiles/dfu_nrf52840_xxAA_s140_6.0.0.dir/__/__/mesh/core/src/enc.c.obj
 .debug_line    0x000000000001c6f2      0x633 CMakeFiles/dfu_nrf52840_xxAA_s140_6.0.0.dir/__/__/mesh/core/src/network.c.obj
 .debug_line    0x000000000001cd25      0x625 CMakeFiles/dfu_nrf52840_xxAA_s140_6.0.0.dir/__/__/mesh/core/src/net_packet.c.obj
 .debug_line    0x000000000001d34a      0x38d CMakeFiles/dfu_nrf52840_xxAA_s140_6.0.0.dir/__/__/mesh/core/src/msqueue.c.obj
 .debug_line    0x000000000001d6d7      0x2f5 CMakeFiles/dfu_nrf52840_xxAA_s140_6.0.0.dir/__/__/mesh/core/src/nrf_mesh_keygen.c.obj
 .debug_line    0x000000000001d9cc      0x3e9 CMakeFiles/dfu_nrf52840_xxAA_s140_6.0.0.dir/__/__/mesh/core/src/list.c.obj
 .debug_line    0x000000000001ddb5      0x334 CMakeFiles/dfu_nrf52840_xxAA_s140_6.0.0.dir/__/__/mesh/core/src/log.c.obj
 .debug_line    0x000000000001e0e9      0xc3d CMakeFiles/dfu_nrf52840_xxAA_s140_6.0.0.dir/__/__/mesh/core/src/flash_manager.c.obj
 .debug_line    0x000000000001ed26      0x4ac CMakeFiles/dfu_nrf52840_xxAA_s140_6.0.0.dir/__/__/mesh/core/src/ccm_soft.c.obj
 .debug_line    0x000000000001f1d2      0x1dc CMakeFiles/dfu_nrf52840_xxAA_s140_6.0.0.dir/__/__/mesh/core/src/replay_cache.c.obj
 .debug_line    0x000000000001f3ae      0x5cb CMakeFiles/dfu_nrf52840_xxAA_s140_6.0.0.dir/__/__/mesh/core/src/beacon.c.obj
 .debug_line    0x000000000001f979      0x31e CMakeFiles/dfu_nrf52840_xxAA_s140_6.0.0.dir/__/__/mesh/core/src/flash_manager_internal.c.obj
 .debug_line    0x000000000001fc97      0x431 CMakeFiles/dfu_nrf52840_xxAA_s140_6.0.0.dir/__/__/mesh/core/src/core_tx.c.obj
 .debug_line    0x00000000000200c8      0x6bb CMakeFiles/dfu_nrf52840_xxAA_s140_6.0.0.dir/__/__/mesh/core/src/heartbeat.c.obj
 .debug_line    0x0000000000020783      0x75c CMakeFiles/dfu_nrf52840_xxAA_s140_6.0.0.dir/__/__/mesh/core/src/net_beacon.c.obj
 .debug_line    0x0000000000020edf      0x5cf CMakeFiles/dfu_nrf52840_xxAA_s140_6.0.0.dir/__/__/mesh/core/src/core_tx_adv.c.obj
 .debug_line    0x00000000000214ae      0x43e CMakeFiles/dfu_nrf52840_xxAA_s140_6.0.0.dir/__/__/mesh/bearer/src/ad_listener.c.obj
 .debug_line    0x00000000000218ec      0x512 CMakeFiles/dfu_nrf52840_xxAA_s140_6.0.0.dir/__/__/mesh/bearer/src/ad_type_filter.c.obj
 .debug_line    0x0000000000021dfe      0x8d3 CMakeFiles/dfu_nrf52840_xxAA_s140_6.0.0.dir/__/__/mesh/bearer/src/advertiser.c.obj
 .debug_line    0x00000000000226d1      0x61d CMakeFiles/dfu_nrf52840_xxAA_s140_6.0.0.dir/__/__/mesh/bearer/src/bearer_handler.c.obj
 .debug_line    0x0000000000022cee      0x435 CMakeFiles/dfu_nrf52840_xxAA_s140_6.0.0.dir/__/__/mesh/bearer/src/broadcast.c.obj
 .debug_line    0x0000000000023123      0x453 CMakeFiles/dfu_nrf52840_xxAA_s140_6.0.0.dir/__/__/mesh/bearer/src/filter_engine.c.obj
 .debug_line    0x0000000000023576      0x34c CMakeFiles/dfu_nrf52840_xxAA_s140_6.0.0.dir/__/__/mesh/bearer/src/radio_config.c.obj
 .debug_line    0x00000000000238c2      0x8f5 CMakeFiles/dfu_nrf52840_xxAA_s140_6.0.0.dir/__/__/mesh/bearer/src/scanner.c.obj
 .debug_line    0x00000000000241b7      0x22d CMakeFiles/dfu_nrf52840_xxAA_s140_6.0.0.dir/home/mazzer/work/nordic/sdk/nRF5_SDK_15.0.0/modules/nrfx/mdk/system_nrf52840.c.obj
 .debug_line    0x00000000000243e4       0xa4 CMakeFiles/dfu_nrf52840_xxAA_s140_6.0.0.dir/home/mazzer/work/nordic/sdk/nRF5_SDK_15.0.0/modules/nrfx/mdk/gcc_startup_nrf52840.S.obj
 .debug_line    0x0000000000024488      0x274 CMakeFiles/dfu_nrf52840_xxAA_s140_6.0.0.dir/home/mazzer/work/nordic/sdk/nRF5_SDK_15.0.0/components/libraries/util/app_error.c.obj
 .debug_line    0x00000000000246fc      0x217 CMakeFiles/dfu_nrf52840_xxAA_s140_6.0.0.dir/home/mazzer/work/nordic/sdk/nRF5_SDK_15.0.0/components/libraries/util/app_error_handler_gcc.c.obj
 .debug_line    0x0000000000024913      0xaaf ../../external/rtt/librtt_nrf52840_xxAA.a(SEGGER_RTT.c.obj)
 .debug_line    0x00000000000253c2      0x401 ../../external/rtt/librtt_nrf52840_xxAA.a(SEGGER_RTT_printf.c.obj)
 .debug_line    0x00000000000257c3     0x175b ../../external/micro-ecc/libuECC_nrf52840_xxAA.a(uECC.c.obj)

.debug_str      0x0000000000000000    0x17ddc
 .debug_str     0x0000000000000000     0x2c44 CMakeFiles/dfu_nrf52840_xxAA_s140_6.0.0.dir/src/main.c.obj
                                       0x3112 (size before relaxing)
 .debug_str     0x0000000000002c44      0x310 CMakeFiles/dfu_nrf52840_xxAA_s140_6.0.0.dir/__/__/mesh/stack/src/mesh_stack.c.obj
                                       0x278e (size before relaxing)
 .debug_str     0x0000000000002f54      0x34e CMakeFiles/dfu_nrf52840_xxAA_s140_6.0.0.dir/__/common/src/mesh_softdevice_init.c.obj
                                       0x12b2 (size before relaxing)
 .debug_str     0x00000000000032a2     0x1821 CMakeFiles/dfu_nrf52840_xxAA_s140_6.0.0.dir/__/common/src/mesh_provisionee.c.obj
                                       0x24a1 (size before relaxing)
 .debug_str     0x0000000000004ac3      0x23d CMakeFiles/dfu_nrf52840_xxAA_s140_6.0.0.dir/__/common/src/simple_hal.c.obj
                                        0xd90 (size before relaxing)
 .debug_str     0x0000000000004d00      0x39c CMakeFiles/dfu_nrf52840_xxAA_s140_6.0.0.dir/__/__/mesh/access/src/access_publish.c.obj
                                        0xc2c (size before relaxing)
 .debug_str     0x000000000000509c     0x132a CMakeFiles/dfu_nrf52840_xxAA_s140_6.0.0.dir/__/__/mesh/access/src/access.c.obj
                                       0x2fd6 (size before relaxing)
 .debug_str     0x00000000000063c6      0x24a CMakeFiles/dfu_nrf52840_xxAA_s140_6.0.0.dir/__/__/mesh/access/src/access_reliable.c.obj
                                       0x1066 (size before relaxing)
 .debug_str     0x0000000000006610     0x1150 CMakeFiles/dfu_nrf52840_xxAA_s140_6.0.0.dir/__/__/mesh/access/src/device_state_manager.c.obj
                                       0x30d9 (size before relaxing)
 .debug_str     0x0000000000007760      0x210 CMakeFiles/dfu_nrf52840_xxAA_s140_6.0.0.dir/__/__/mesh/serial/src/serial_uart.c.obj
                                        0xcae (size before relaxing)
 .debug_str     0x0000000000007970     0x187d CMakeFiles/dfu_nrf52840_xxAA_s140_6.0.0.dir/__/__/mesh/serial/src/serial_bearer.c.obj
                                       0x2aa4 (size before relaxing)
 .debug_str     0x00000000000091ed      0x169 CMakeFiles/dfu_nrf52840_xxAA_s140_6.0.0.dir/__/__/mesh/serial/src/serial_handler_common.c.obj
                                       0x21ad (size before relaxing)
 .debug_str     0x0000000000009356      0x1cd CMakeFiles/dfu_nrf52840_xxAA_s140_6.0.0.dir/__/__/mesh/serial/src/serial_handler_access.c.obj
                                       0x26a1 (size before relaxing)
 .debug_str     0x0000000000009523       0xe0 CMakeFiles/dfu_nrf52840_xxAA_s140_6.0.0.dir/__/__/mesh/serial/src/serial_handler_config.c.obj
                                       0x2168 (size before relaxing)
 .debug_str     0x0000000000009603       0x8f CMakeFiles/dfu_nrf52840_xxAA_s140_6.0.0.dir/__/__/mesh/serial/src/serial_handler_openmesh.c.obj
                                       0x20f4 (size before relaxing)
 .debug_str     0x0000000000009692      0x345 CMakeFiles/dfu_nrf52840_xxAA_s140_6.0.0.dir/__/__/mesh/serial/src/serial.c.obj
                                       0x261f (size before relaxing)
 .debug_str     0x00000000000099d7      0x28e CMakeFiles/dfu_nrf52840_xxAA_s140_6.0.0.dir/__/__/mesh/serial/src/serial_handler_prov.c.obj
                                       0x3f90 (size before relaxing)
 .debug_str     0x0000000000009c65      0x2ab CMakeFiles/dfu_nrf52840_xxAA_s140_6.0.0.dir/__/__/mesh/serial/src/serial_handler_dfu.c.obj
                                       0x327e (size before relaxing)
 .debug_str     0x0000000000009f10      0x4b7 CMakeFiles/dfu_nrf52840_xxAA_s140_6.0.0.dir/__/__/mesh/serial/src/serial_handler_mesh.c.obj
                                       0x3849 (size before relaxing)
 .debug_str     0x000000000000a3c7      0x1a6 CMakeFiles/dfu_nrf52840_xxAA_s140_6.0.0.dir/__/__/mesh/serial/src/serial_handler_models.c.obj
                                       0x2363 (size before relaxing)
 .debug_str     0x000000000000a56d      0x2ad CMakeFiles/dfu_nrf52840_xxAA_s140_6.0.0.dir/__/__/mesh/serial/src/serial_handler_device.c.obj
                                       0x2a28 (size before relaxing)
 .debug_str     0x000000000000a81a       0xbf CMakeFiles/dfu_nrf52840_xxAA_s140_6.0.0.dir/__/__/mesh/serial/src/nrf_mesh_serial.c.obj
                                       0x2282 (size before relaxing)
 .debug_str     0x000000000000a8d9       0x81 CMakeFiles/dfu_nrf52840_xxAA_s140_6.0.0.dir/__/__/mesh/serial/src/serial_handler_app.c.obj
                                       0x210b (size before relaxing)
 .debug_str     0x000000000000a95a      0x1ba CMakeFiles/dfu_nrf52840_xxAA_s140_6.0.0.dir/__/__/models/config/src/composition_data.c.obj
                                        0x93d (size before relaxing)
 .debug_str     0x000000000000ab14     0x2440 CMakeFiles/dfu_nrf52840_xxAA_s140_6.0.0.dir/__/__/models/config/src/config_server.c.obj
                                       0x5065 (size before relaxing)
 .debug_str     0x000000000000cf54       0xa0 CMakeFiles/dfu_nrf52840_xxAA_s140_6.0.0.dir/__/__/models/config/src/packed_index_list.c.obj
                                        0x2b6 (size before relaxing)
 .debug_str     0x000000000000cff4      0x604 CMakeFiles/dfu_nrf52840_xxAA_s140_6.0.0.dir/__/__/models/health/src/health_server.c.obj
                                       0x16ff (size before relaxing)
 .debug_str     0x000000000000d5f8      0x585 CMakeFiles/dfu_nrf52840_xxAA_s140_6.0.0.dir/__/__/mesh/prov/src/prov_provisioner.c.obj
                                       0x1fd4 (size before relaxing)
 .debug_str     0x000000000000db7d      0x2c4 CMakeFiles/dfu_nrf52840_xxAA_s140_6.0.0.dir/__/__/mesh/prov/src/prov_provisionee.c.obj
                                       0x2248 (size before relaxing)
 .debug_str     0x000000000000de41      0x17b CMakeFiles/dfu_nrf52840_xxAA_s140_6.0.0.dir/__/__/mesh/prov/src/nrf_mesh_prov.c.obj
                                       0x1e3a (size before relaxing)
 .debug_str     0x000000000000dfbc       0xfa CMakeFiles/dfu_nrf52840_xxAA_s140_6.0.0.dir/__/__/mesh/prov/src/provisioning.c.obj
                                        0xf8b (size before relaxing)
 .debug_str     0x000000000000e0b6      0x121 CMakeFiles/dfu_nrf52840_xxAA_s140_6.0.0.dir/__/__/mesh/prov/src/prov_beacon.c.obj
                                       0x19bc (size before relaxing)
 .debug_str     0x000000000000e1d7      0x23e CMakeFiles/dfu_nrf52840_xxAA_s140_6.0.0.dir/__/__/mesh/prov/src/prov_utils.c.obj
                                       0x1f89 (size before relaxing)
 .debug_str     0x000000000000e415      0x4c6 CMakeFiles/dfu_nrf52840_xxAA_s140_6.0.0.dir/__/__/mesh/prov/src/prov_bearer_adv.c.obj
                                       0x1c20 (size before relaxing)
 .debug_str     0x000000000000e8db     0x14d7 CMakeFiles/dfu_nrf52840_xxAA_s140_6.0.0.dir/__/__/mesh/dfu/src/nrf_mesh_dfu.c.obj
                                       0x383c (size before relaxing)
 .debug_str     0x000000000000fdb2       0xce CMakeFiles/dfu_nrf52840_xxAA_s140_6.0.0.dir/__/common/src/app_error_weak.c.obj
                                        0x8bd (size before relaxing)
 .debug_str     0x000000000000fe80       0x67 CMakeFiles/dfu_nrf52840_xxAA_s140_6.0.0.dir/__/common/src/assertion_handler_weak.c.obj
                                        0x6d2 (size before relaxing)
 .debug_str     0x000000000000fee7       0x89 CMakeFiles/dfu_nrf52840_xxAA_s140_6.0.0.dir/__/__/mesh/core/src/nrf_mesh_configure.c.obj
                                        0x84d (size before relaxing)
 .debug_str     0x000000000000ff70       0xf8 CMakeFiles/dfu_nrf52840_xxAA_s140_6.0.0.dir/__/__/mesh/core/src/aes.c.obj
                                        0xb7a (size before relaxing)
 .debug_str     0x0000000000010068       0xe9 CMakeFiles/dfu_nrf52840_xxAA_s140_6.0.0.dir/__/__/mesh/core/src/msg_cache.c.obj
                                        0x719 (size before relaxing)
 .debug_str     0x0000000000010151     0x11b8 CMakeFiles/dfu_nrf52840_xxAA_s140_6.0.0.dir/__/__/mesh/core/src/transport.c.obj
                                       0x3177 (size before relaxing)
 .debug_str     0x0000000000011309       0xb9 CMakeFiles/dfu_nrf52840_xxAA_s140_6.0.0.dir/__/__/mesh/core/src/event.c.obj
                                       0x1713 (size before relaxing)
 .debug_str     0x00000000000113c2      0x1af CMakeFiles/dfu_nrf52840_xxAA_s140_6.0.0.dir/__/__/mesh/core/src/packet_buffer.c.obj
                                        0xb7b (size before relaxing)
 .debug_str     0x0000000000011571      0x4d6 CMakeFiles/dfu_nrf52840_xxAA_s140_6.0.0.dir/__/__/mesh/core/src/flash_manager_defrag.c.obj
                                       0x11ed (size before relaxing)
 .debug_str     0x0000000000011a47       0xd5 CMakeFiles/dfu_nrf52840_xxAA_s140_6.0.0.dir/__/__/mesh/core/src/fifo.c.obj
                                        0x73b (size before relaxing)
 .debug_str     0x0000000000011b1c      0x110 CMakeFiles/dfu_nrf52840_xxAA_s140_6.0.0.dir/__/__/mesh/core/src/nrf_flash.c.obj
                                        0x754 (size before relaxing)
 .debug_str     0x0000000000011c2c      0x2ad CMakeFiles/dfu_nrf52840_xxAA_s140_6.0.0.dir/__/__/mesh/core/src/packet_mgr.c.obj
                                        0xa05 (size before relaxing)
 .debug_str     0x0000000000011ed9      0x406 CMakeFiles/dfu_nrf52840_xxAA_s140_6.0.0.dir/__/__/mesh/core/src/net_state.c.obj
                                       0x21b9 (size before relaxing)
 .debug_str     0x00000000000122df      0x381 CMakeFiles/dfu_nrf52840_xxAA_s140_6.0.0.dir/__/__/mesh/core/src/mesh_flash.c.obj
                                        0xd3c (size before relaxing)
 .debug_str     0x0000000000012660       0xc2 CMakeFiles/dfu_nrf52840_xxAA_s140_6.0.0.dir/__/__/mesh/core/src/nrf_mesh_utils.c.obj
                                        0x7b1 (size before relaxing)
 .debug_str     0x0000000000012722      0x490 CMakeFiles/dfu_nrf52840_xxAA_s140_6.0.0.dir/__/__/mesh/core/src/nrf_mesh.c.obj
                                       0x2197 (size before relaxing)
 .debug_str     0x0000000000012bb2       0x92 CMakeFiles/dfu_nrf52840_xxAA_s140_6.0.0.dir/__/__/mesh/core/src/queue.c.obj
                                        0x6e3 (size before relaxing)
 .debug_str     0x0000000000012c44       0xbd CMakeFiles/dfu_nrf52840_xxAA_s140_6.0.0.dir/__/__/mesh/core/src/hal.c.obj
                                        0x80b (size before relaxing)
 .debug_str     0x0000000000012d01      0x107 CMakeFiles/dfu_nrf52840_xxAA_s140_6.0.0.dir/__/__/mesh/core/src/aes_cmac.c.obj
                                        0x775 (size before relaxing)
 .debug_str     0x0000000000012e08      0x174 CMakeFiles/dfu_nrf52840_xxAA_s140_6.0.0.dir/__/__/mesh/core/src/timer_scheduler.c.obj
                                        0x994 (size before relaxing)
 .debug_str     0x0000000000012f7c      0x252 CMakeFiles/dfu_nrf52840_xxAA_s140_6.0.0.dir/__/__/mesh/core/src/timer.c.obj
                                        0x90e (size before relaxing)
 .debug_str     0x00000000000131ce       0x73 CMakeFiles/dfu_nrf52840_xxAA_s140_6.0.0.dir/__/__/mesh/core/src/ticker.c.obj
                                        0x3b5 (size before relaxing)
 .debug_str     0x0000000000013241       0xbf CMakeFiles/dfu_nrf52840_xxAA_s140_6.0.0.dir/__/__/mesh/core/src/rand.c.obj
                                        0x7ce (size before relaxing)
 .debug_str     0x0000000000013300       0x77 CMakeFiles/dfu_nrf52840_xxAA_s140_6.0.0.dir/__/__/mesh/core/src/nrf_mesh_opt.c.obj
                                        0x950 (size before relaxing)
 .debug_str     0x0000000000013377      0x939 CMakeFiles/dfu_nrf52840_xxAA_s140_6.0.0.dir/__/__/mesh/core/src/timeslot.c.obj
                                       0x197f (size before relaxing)
 .debug_str     0x0000000000013cb0      0x2af CMakeFiles/dfu_nrf52840_xxAA_s140_6.0.0.dir/__/__/mesh/core/src/bearer_event.c.obj
                                        0xf5e (size before relaxing)
 .debug_str     0x0000000000013f5f      0x18a CMakeFiles/dfu_nrf52840_xxAA_s140_6.0.0.dir/__/__/mesh/core/src/enc.c.obj
                                        0xa48 (size before relaxing)
 .debug_str     0x00000000000140e9      0x330 CMakeFiles/dfu_nrf52840_xxAA_s140_6.0.0.dir/__/__/mesh/core/src/network.c.obj
                                       0x1348 (size before relaxing)
 .debug_str     0x0000000000014419      0x329 CMakeFiles/dfu_nrf52840_xxAA_s140_6.0.0.dir/__/__/mesh/core/src/net_packet.c.obj
                                        0xee6 (size before relaxing)
 .debug_str     0x0000000000014742       0x8a CMakeFiles/dfu_nrf52840_xxAA_s140_6.0.0.dir/__/__/mesh/core/src/msqueue.c.obj
                                        0x71f (size before relaxing)
 .debug_str     0x00000000000147cc       0x8e CMakeFiles/dfu_nrf52840_xxAA_s140_6.0.0.dir/__/__/mesh/core/src/nrf_mesh_keygen.c.obj
                                        0x3f7 (size before relaxing)
 .debug_str     0x000000000001485a       0x9c CMakeFiles/dfu_nrf52840_xxAA_s140_6.0.0.dir/__/__/mesh/core/src/list.c.obj
                                        0x31e (size before relaxing)
 .debug_str     0x00000000000148f6      0x1bb CMakeFiles/dfu_nrf52840_xxAA_s140_6.0.0.dir/__/__/mesh/core/src/log.c.obj
                                        0x830 (size before relaxing)
 .debug_str     0x0000000000014ab1      0x51b CMakeFiles/dfu_nrf52840_xxAA_s140_6.0.0.dir/__/__/mesh/core/src/flash_manager.c.obj
                                       0x15d8 (size before relaxing)
 .debug_str     0x0000000000014fcc       0xbc CMakeFiles/dfu_nrf52840_xxAA_s140_6.0.0.dir/__/__/mesh/core/src/ccm_soft.c.obj
                                        0x7bd (size before relaxing)
 .debug_str     0x0000000000015088       0xc9 CMakeFiles/dfu_nrf52840_xxAA_s140_6.0.0.dir/__/__/mesh/core/src/replay_cache.c.obj
                                        0x6ed (size before relaxing)
 .debug_str     0x0000000000015151       0xc2 CMakeFiles/dfu_nrf52840_xxAA_s140_6.0.0.dir/__/__/mesh/core/src/beacon.c.obj
                                       0x1163 (size before relaxing)
 .debug_str     0x0000000000015213       0x6f CMakeFiles/dfu_nrf52840_xxAA_s140_6.0.0.dir/__/__/mesh/core/src/flash_manager_internal.c.obj
                                        0x804 (size before relaxing)
 .debug_str     0x0000000000015282      0x2f5 CMakeFiles/dfu_nrf52840_xxAA_s140_6.0.0.dir/__/__/mesh/core/src/core_tx.c.obj
                                        0xc4f (size before relaxing)
 .debug_str     0x0000000000015577      0x392 CMakeFiles/dfu_nrf52840_xxAA_s140_6.0.0.dir/__/__/mesh/core/src/heartbeat.c.obj
                                       0x22a0 (size before relaxing)
 .debug_str     0x0000000000015909      0x1e5 CMakeFiles/dfu_nrf52840_xxAA_s140_6.0.0.dir/__/__/mesh/core/src/net_beacon.c.obj
                                       0x2100 (size before relaxing)
 .debug_str     0x0000000000015aee      0x132 CMakeFiles/dfu_nrf52840_xxAA_s140_6.0.0.dir/__/__/mesh/core/src/core_tx_adv.c.obj
                                       0x1339 (size before relaxing)
 .debug_str     0x0000000000015c20      0x1b0 CMakeFiles/dfu_nrf52840_xxAA_s140_6.0.0.dir/__/__/mesh/bearer/src/ad_listener.c.obj
                                        0xc42 (size before relaxing)
 .debug_str     0x0000000000015dd0      0x186 CMakeFiles/dfu_nrf52840_xxAA_s140_6.0.0.dir/__/__/mesh/bearer/src/ad_type_filter.c.obj
                                        0x9ff (size before relaxing)
 .debug_str     0x0000000000015f56      0x2e8 CMakeFiles/dfu_nrf52840_xxAA_s140_6.0.0.dir/__/__/mesh/bearer/src/advertiser.c.obj
                                       0x15c1 (size before relaxing)
 .debug_str     0x000000000001623e      0x453 CMakeFiles/dfu_nrf52840_xxAA_s140_6.0.0.dir/__/__/mesh/bearer/src/bearer_handler.c.obj
                                       0x1150 (size before relaxing)
 .debug_str     0x0000000000016691      0x1e3 CMakeFiles/dfu_nrf52840_xxAA_s140_6.0.0.dir/__/__/mesh/bearer/src/broadcast.c.obj
                                       0x10c2 (size before relaxing)
 .debug_str     0x0000000000016874       0xa9 CMakeFiles/dfu_nrf52840_xxAA_s140_6.0.0.dir/__/__/mesh/bearer/src/filter_engine.c.obj
                                        0x86c (size before relaxing)
 .debug_str     0x000000000001691d       0xb0 CMakeFiles/dfu_nrf52840_xxAA_s140_6.0.0.dir/__/__/mesh/bearer/src/radio_config.c.obj
                                        0x910 (size before relaxing)
 .debug_str     0x00000000000169cd      0x494 CMakeFiles/dfu_nrf52840_xxAA_s140_6.0.0.dir/__/__/mesh/bearer/src/scanner.c.obj
                                       0x1a99 (size before relaxing)
 .debug_str     0x0000000000016e61      0x2a8 CMakeFiles/dfu_nrf52840_xxAA_s140_6.0.0.dir/home/mazzer/work/nordic/sdk/nRF5_SDK_15.0.0/modules/nrfx/mdk/system_nrf52840.c.obj
                                        0x961 (size before relaxing)
 .debug_str     0x0000000000017109       0x64 CMakeFiles/dfu_nrf52840_xxAA_s140_6.0.0.dir/home/mazzer/work/nordic/sdk/nRF5_SDK_15.0.0/modules/nrfx/mdk/gcc_startup_nrf52840.S.obj
                                         0xad (size before relaxing)
 .debug_str     0x000000000001716d       0xac CMakeFiles/dfu_nrf52840_xxAA_s140_6.0.0.dir/home/mazzer/work/nordic/sdk/nRF5_SDK_15.0.0/components/libraries/util/app_error.c.obj
                                        0x75d (size before relaxing)
 .debug_str     0x0000000000017219       0x5f CMakeFiles/dfu_nrf52840_xxAA_s140_6.0.0.dir/home/mazzer/work/nordic/sdk/nRF5_SDK_15.0.0/components/libraries/util/app_error_handler_gcc.c.obj
                                        0x6c2 (size before relaxing)
 .debug_str     0x0000000000017278      0x351 ../../external/rtt/librtt_nrf52840_xxAA.a(SEGGER_RTT.c.obj)
                                        0x982 (size before relaxing)
 .debug_str     0x00000000000175c9      0x116 ../../external/rtt/librtt_nrf52840_xxAA.a(SEGGER_RTT_printf.c.obj)
                                        0x7f2 (size before relaxing)
 .debug_str     0x00000000000176df      0x6fd ../../external/micro-ecc/libuECC_nrf52840_xxAA.a(uECC.c.obj)
                                        0x8df (size before relaxing)

.debug_frame    0x0000000000000000     0x7d9c
 .debug_frame   0x0000000000000000       0xa0 CMakeFiles/dfu_nrf52840_xxAA_s140_6.0.0.dir/src/main.c.obj
 .debug_frame   0x00000000000000a0       0xdc CMakeFiles/dfu_nrf52840_xxAA_s140_6.0.0.dir/__/__/mesh/stack/src/mesh_stack.c.obj
 .debug_frame   0x000000000000017c       0x88 CMakeFiles/dfu_nrf52840_xxAA_s140_6.0.0.dir/__/common/src/mesh_softdevice_init.c.obj
 .debug_frame   0x0000000000000204       0x64 CMakeFiles/dfu_nrf52840_xxAA_s140_6.0.0.dir/__/common/src/mesh_provisionee.c.obj
 .debug_frame   0x0000000000000268       0xbc CMakeFiles/dfu_nrf52840_xxAA_s140_6.0.0.dir/__/common/src/simple_hal.c.obj
 .debug_frame   0x0000000000000324       0xf4 CMakeFiles/dfu_nrf52840_xxAA_s140_6.0.0.dir/__/__/mesh/access/src/access_publish.c.obj
 .debug_frame   0x0000000000000418      0x648 CMakeFiles/dfu_nrf52840_xxAA_s140_6.0.0.dir/__/__/mesh/access/src/access.c.obj
 .debug_frame   0x0000000000000a60      0x148 CMakeFiles/dfu_nrf52840_xxAA_s140_6.0.0.dir/__/__/mesh/access/src/access_reliable.c.obj
 .debug_frame   0x0000000000000ba8      0xbd4 CMakeFiles/dfu_nrf52840_xxAA_s140_6.0.0.dir/__/__/mesh/access/src/device_state_manager.c.obj
 .debug_frame   0x000000000000177c       0x98 CMakeFiles/dfu_nrf52840_xxAA_s140_6.0.0.dir/__/__/mesh/serial/src/serial_uart.c.obj
 .debug_frame   0x0000000000001814      0x140 CMakeFiles/dfu_nrf52840_xxAA_s140_6.0.0.dir/__/__/mesh/serial/src/serial_bearer.c.obj
 .debug_frame   0x0000000000001954       0x74 CMakeFiles/dfu_nrf52840_xxAA_s140_6.0.0.dir/__/__/mesh/serial/src/serial_handler_common.c.obj
 .debug_frame   0x00000000000019c8      0x2dc CMakeFiles/dfu_nrf52840_xxAA_s140_6.0.0.dir/__/__/mesh/serial/src/serial_handler_access.c.obj
 .debug_frame   0x0000000000001ca4       0x44 CMakeFiles/dfu_nrf52840_xxAA_s140_6.0.0.dir/__/__/mesh/serial/src/serial_handler_config.c.obj
 .debug_frame   0x0000000000001ce8       0x2c CMakeFiles/dfu_nrf52840_xxAA_s140_6.0.0.dir/__/__/mesh/serial/src/serial_handler_openmesh.c.obj
 .debug_frame   0x0000000000001d14      0x11c CMakeFiles/dfu_nrf52840_xxAA_s140_6.0.0.dir/__/__/mesh/serial/src/serial.c.obj
 .debug_frame   0x0000000000001e30       0xd4 CMakeFiles/dfu_nrf52840_xxAA_s140_6.0.0.dir/__/__/mesh/serial/src/serial_handler_prov.c.obj
 .debug_frame   0x0000000000001f04       0x88 CMakeFiles/dfu_nrf52840_xxAA_s140_6.0.0.dir/__/__/mesh/serial/src/serial_handler_dfu.c.obj
 .debug_frame   0x0000000000001f8c      0x430 CMakeFiles/dfu_nrf52840_xxAA_s140_6.0.0.dir/__/__/mesh/serial/src/serial_handler_mesh.c.obj
 .debug_frame   0x00000000000023bc       0xc8 CMakeFiles/dfu_nrf52840_xxAA_s140_6.0.0.dir/__/__/mesh/serial/src/serial_handler_models.c.obj
 .debug_frame   0x0000000000002484      0x164 CMakeFiles/dfu_nrf52840_xxAA_s140_6.0.0.dir/__/__/mesh/serial/src/serial_handler_device.c.obj
 .debug_frame   0x00000000000025e8       0x7c CMakeFiles/dfu_nrf52840_xxAA_s140_6.0.0.dir/__/__/mesh/serial/src/nrf_mesh_serial.c.obj
 .debug_frame   0x0000000000002664       0x3c CMakeFiles/dfu_nrf52840_xxAA_s140_6.0.0.dir/__/__/mesh/serial/src/serial_handler_app.c.obj
 .debug_frame   0x00000000000026a0       0x48 CMakeFiles/dfu_nrf52840_xxAA_s140_6.0.0.dir/__/__/models/config/src/composition_data.c.obj
 .debug_frame   0x00000000000026e8      0x858 CMakeFiles/dfu_nrf52840_xxAA_s140_6.0.0.dir/__/__/models/config/src/config_server.c.obj
 .debug_frame   0x0000000000002f40       0x30 CMakeFiles/dfu_nrf52840_xxAA_s140_6.0.0.dir/__/__/models/config/src/packed_index_list.c.obj
 .debug_frame   0x0000000000002f70      0x27c CMakeFiles/dfu_nrf52840_xxAA_s140_6.0.0.dir/__/__/models/health/src/health_server.c.obj
 .debug_frame   0x00000000000031ec      0x1a8 CMakeFiles/dfu_nrf52840_xxAA_s140_6.0.0.dir/__/__/mesh/prov/src/prov_provisioner.c.obj
 .debug_frame   0x0000000000003394      0x198 CMakeFiles/dfu_nrf52840_xxAA_s140_6.0.0.dir/__/__/mesh/prov/src/prov_provisionee.c.obj
 .debug_frame   0x000000000000352c      0x1c8 CMakeFiles/dfu_nrf52840_xxAA_s140_6.0.0.dir/__/__/mesh/prov/src/nrf_mesh_prov.c.obj
 .debug_frame   0x00000000000036f4      0x1a0 CMakeFiles/dfu_nrf52840_xxAA_s140_6.0.0.dir/__/__/mesh/prov/src/provisioning.c.obj
 .debug_frame   0x0000000000003894       0x88 CMakeFiles/dfu_nrf52840_xxAA_s140_6.0.0.dir/__/__/mesh/prov/src/prov_beacon.c.obj
 .debug_frame   0x000000000000391c      0x11c CMakeFiles/dfu_nrf52840_xxAA_s140_6.0.0.dir/__/__/mesh/prov/src/prov_utils.c.obj
 .debug_frame   0x0000000000003a38      0x2d8 CMakeFiles/dfu_nrf52840_xxAA_s140_6.0.0.dir/__/__/mesh/prov/src/prov_bearer_adv.c.obj
 .debug_frame   0x0000000000003d10      0x2f0 CMakeFiles/dfu_nrf52840_xxAA_s140_6.0.0.dir/__/__/mesh/dfu/src/nrf_mesh_dfu.c.obj
 .debug_frame   0x0000000000004000       0x34 CMakeFiles/dfu_nrf52840_xxAA_s140_6.0.0.dir/__/common/src/app_error_weak.c.obj
 .debug_frame   0x0000000000004034       0x2c CMakeFiles/dfu_nrf52840_xxAA_s140_6.0.0.dir/__/common/src/assertion_handler_weak.c.obj
 .debug_frame   0x0000000000004060       0x4c CMakeFiles/dfu_nrf52840_xxAA_s140_6.0.0.dir/__/__/mesh/core/src/nrf_mesh_configure.c.obj
 .debug_frame   0x00000000000040ac       0x40 CMakeFiles/dfu_nrf52840_xxAA_s140_6.0.0.dir/__/__/mesh/core/src/aes.c.obj
 .debug_frame   0x00000000000040ec       0x7c CMakeFiles/dfu_nrf52840_xxAA_s140_6.0.0.dir/__/__/mesh/core/src/msg_cache.c.obj
 .debug_frame   0x0000000000004168      0x3fc CMakeFiles/dfu_nrf52840_xxAA_s140_6.0.0.dir/__/__/mesh/core/src/transport.c.obj
 .debug_frame   0x0000000000004564       0x74 CMakeFiles/dfu_nrf52840_xxAA_s140_6.0.0.dir/__/__/mesh/core/src/event.c.obj
 .debug_frame   0x00000000000045d8      0x10c CMakeFiles/dfu_nrf52840_xxAA_s140_6.0.0.dir/__/__/mesh/core/src/packet_buffer.c.obj
 .debug_frame   0x00000000000046e4      0x268 CMakeFiles/dfu_nrf52840_xxAA_s140_6.0.0.dir/__/__/mesh/core/src/flash_manager_defrag.c.obj
 .debug_frame   0x000000000000494c       0xd8 CMakeFiles/dfu_nrf52840_xxAA_s140_6.0.0.dir/__/__/mesh/core/src/fifo.c.obj
 .debug_frame   0x0000000000004a24       0x3c CMakeFiles/dfu_nrf52840_xxAA_s140_6.0.0.dir/__/__/mesh/core/src/nrf_flash.c.obj
 .debug_frame   0x0000000000004a60       0xac CMakeFiles/dfu_nrf52840_xxAA_s140_6.0.0.dir/__/__/mesh/core/src/packet_mgr.c.obj
 .debug_frame   0x0000000000004b0c      0x31c CMakeFiles/dfu_nrf52840_xxAA_s140_6.0.0.dir/__/__/mesh/core/src/net_state.c.obj
 .debug_frame   0x0000000000004e28      0x130 CMakeFiles/dfu_nrf52840_xxAA_s140_6.0.0.dir/__/__/mesh/core/src/mesh_flash.c.obj
 .debug_frame   0x0000000000004f58       0x60 CMakeFiles/dfu_nrf52840_xxAA_s140_6.0.0.dir/__/__/mesh/core/src/nrf_mesh_utils.c.obj
 .debug_frame   0x0000000000004fb8      0x200 CMakeFiles/dfu_nrf52840_xxAA_s140_6.0.0.dir/__/__/mesh/core/src/nrf_mesh.c.obj
 .debug_frame   0x00000000000051b8       0x74 CMakeFiles/dfu_nrf52840_xxAA_s140_6.0.0.dir/__/__/mesh/core/src/queue.c.obj
 .debug_frame   0x000000000000522c       0x48 CMakeFiles/dfu_nrf52840_xxAA_s140_6.0.0.dir/__/__/mesh/core/src/hal.c.obj
 .debug_frame   0x0000000000005274       0x60 CMakeFiles/dfu_nrf52840_xxAA_s140_6.0.0.dir/__/__/mesh/core/src/aes_cmac.c.obj
 .debug_frame   0x00000000000052d4       0xe4 CMakeFiles/dfu_nrf52840_xxAA_s140_6.0.0.dir/__/__/mesh/core/src/timer_scheduler.c.obj
 .debug_frame   0x00000000000053b8      0x158 CMakeFiles/dfu_nrf52840_xxAA_s140_6.0.0.dir/__/__/mesh/core/src/timer.c.obj
 .debug_frame   0x0000000000005510       0x4c CMakeFiles/dfu_nrf52840_xxAA_s140_6.0.0.dir/__/__/mesh/core/src/ticker.c.obj
 .debug_frame   0x000000000000555c       0x9c CMakeFiles/dfu_nrf52840_xxAA_s140_6.0.0.dir/__/__/mesh/core/src/rand.c.obj
 .debug_frame   0x00000000000055f8       0x30 CMakeFiles/dfu_nrf52840_xxAA_s140_6.0.0.dir/__/__/mesh/core/src/nrf_mesh_opt.c.obj
 .debug_frame   0x0000000000005628      0x190 CMakeFiles/dfu_nrf52840_xxAA_s140_6.0.0.dir/__/__/mesh/core/src/timeslot.c.obj
 .debug_frame   0x00000000000057b8      0x1ac CMakeFiles/dfu_nrf52840_xxAA_s140_6.0.0.dir/__/__/mesh/core/src/bearer_event.c.obj
 .debug_frame   0x0000000000005964      0x158 CMakeFiles/dfu_nrf52840_xxAA_s140_6.0.0.dir/__/__/mesh/core/src/enc.c.obj
 .debug_frame   0x0000000000005abc      0x10c CMakeFiles/dfu_nrf52840_xxAA_s140_6.0.0.dir/__/__/mesh/core/src/network.c.obj
 .debug_frame   0x0000000000005bc8       0xec CMakeFiles/dfu_nrf52840_xxAA_s140_6.0.0.dir/__/__/mesh/core/src/net_packet.c.obj
 .debug_frame   0x0000000000005cb4       0x94 CMakeFiles/dfu_nrf52840_xxAA_s140_6.0.0.dir/__/__/mesh/core/src/msqueue.c.obj
 .debug_frame   0x0000000000005d48       0xc8 CMakeFiles/dfu_nrf52840_xxAA_s140_6.0.0.dir/__/__/mesh/core/src/nrf_mesh_keygen.c.obj
 .debug_frame   0x0000000000005e10       0x98 CMakeFiles/dfu_nrf52840_xxAA_s140_6.0.0.dir/__/__/mesh/core/src/list.c.obj
 .debug_frame   0x0000000000005ea8       0xc0 CMakeFiles/dfu_nrf52840_xxAA_s140_6.0.0.dir/__/__/mesh/core/src/log.c.obj
 .debug_frame   0x0000000000005f68      0x258 CMakeFiles/dfu_nrf52840_xxAA_s140_6.0.0.dir/__/__/mesh/core/src/flash_manager.c.obj
 .debug_frame   0x00000000000061c0       0xcc CMakeFiles/dfu_nrf52840_xxAA_s140_6.0.0.dir/__/__/mesh/core/src/ccm_soft.c.obj
 .debug_frame   0x000000000000628c       0xb8 CMakeFiles/dfu_nrf52840_xxAA_s140_6.0.0.dir/__/__/mesh/core/src/replay_cache.c.obj
 .debug_frame   0x0000000000006344       0x7c CMakeFiles/dfu_nrf52840_xxAA_s140_6.0.0.dir/__/__/mesh/core/src/beacon.c.obj
 .debug_frame   0x00000000000063c0       0x34 CMakeFiles/dfu_nrf52840_xxAA_s140_6.0.0.dir/__/__/mesh/core/src/flash_manager_internal.c.obj
 .debug_frame   0x00000000000063f4       0xf8 CMakeFiles/dfu_nrf52840_xxAA_s140_6.0.0.dir/__/__/mesh/core/src/core_tx.c.obj
 .debug_frame   0x00000000000064ec      0x184 CMakeFiles/dfu_nrf52840_xxAA_s140_6.0.0.dir/__/__/mesh/core/src/heartbeat.c.obj
 .debug_frame   0x0000000000006670      0x114 CMakeFiles/dfu_nrf52840_xxAA_s140_6.0.0.dir/__/__/mesh/core/src/net_beacon.c.obj
 .debug_frame   0x0000000000006784      0x138 CMakeFiles/dfu_nrf52840_xxAA_s140_6.0.0.dir/__/__/mesh/core/src/core_tx_adv.c.obj
 .debug_frame   0x00000000000068bc       0x94 CMakeFiles/dfu_nrf52840_xxAA_s140_6.0.0.dir/__/__/mesh/bearer/src/ad_listener.c.obj
 .debug_frame   0x0000000000006950       0xc0 CMakeFiles/dfu_nrf52840_xxAA_s140_6.0.0.dir/__/__/mesh/bearer/src/ad_type_filter.c.obj
 .debug_frame   0x0000000000006a10      0x278 CMakeFiles/dfu_nrf52840_xxAA_s140_6.0.0.dir/__/__/mesh/bearer/src/advertiser.c.obj
 .debug_frame   0x0000000000006c88      0x170 CMakeFiles/dfu_nrf52840_xxAA_s140_6.0.0.dir/__/__/mesh/bearer/src/bearer_handler.c.obj
 .debug_frame   0x0000000000006df8       0x74 CMakeFiles/dfu_nrf52840_xxAA_s140_6.0.0.dir/__/__/mesh/bearer/src/broadcast.c.obj
 .debug_frame   0x0000000000006e6c       0x88 CMakeFiles/dfu_nrf52840_xxAA_s140_6.0.0.dir/__/__/mesh/bearer/src/filter_engine.c.obj
 .debug_frame   0x0000000000006ef4       0x98 CMakeFiles/dfu_nrf52840_xxAA_s140_6.0.0.dir/__/__/mesh/bearer/src/radio_config.c.obj
 .debug_frame   0x0000000000006f8c      0x244 CMakeFiles/dfu_nrf52840_xxAA_s140_6.0.0.dir/__/__/mesh/bearer/src/scanner.c.obj
 .debug_frame   0x00000000000071d0       0x40 CMakeFiles/dfu_nrf52840_xxAA_s140_6.0.0.dir/home/mazzer/work/nordic/sdk/nRF5_SDK_15.0.0/modules/nrfx/mdk/system_nrf52840.c.obj
 .debug_frame   0x0000000000007210       0x54 CMakeFiles/dfu_nrf52840_xxAA_s140_6.0.0.dir/home/mazzer/work/nordic/sdk/nRF5_SDK_15.0.0/components/libraries/util/app_error.c.obj
 .debug_frame   0x0000000000007264       0x20 CMakeFiles/dfu_nrf52840_xxAA_s140_6.0.0.dir/home/mazzer/work/nordic/sdk/nRF5_SDK_15.0.0/components/libraries/util/app_error_handler_gcc.c.obj
 .debug_frame   0x0000000000007284      0x2e4 ../../external/rtt/librtt_nrf52840_xxAA.a(SEGGER_RTT.c.obj)
 .debug_frame   0x0000000000007568       0xa0 ../../external/rtt/librtt_nrf52840_xxAA.a(SEGGER_RTT_printf.c.obj)
 .debug_frame   0x0000000000007608      0x4c8 ../../external/micro-ecc/libuECC_nrf52840_xxAA.a(uECC.c.obj)
 .debug_frame   0x0000000000007ad0       0x28 /usr/bin/../lib/gcc/arm-none-eabi/7.2.1/../../../../arm-none-eabi/lib/thumb/v7e-m/fpv4-sp/hard/libg_nano.a(lib_a-exit.o)
 .debug_frame   0x0000000000007af8       0x2c /usr/bin/../lib/gcc/arm-none-eabi/7.2.1/../../../../arm-none-eabi/lib/thumb/v7e-m/fpv4-sp/hard/libg_nano.a(lib_a-init.o)
 .debug_frame   0x0000000000007b24       0x30 /usr/bin/../lib/gcc/arm-none-eabi/7.2.1/../../../../arm-none-eabi/lib/thumb/v7e-m/fpv4-sp/hard/libg_nano.a(lib_a-malloc.o)
 .debug_frame   0x0000000000007b54       0x2c /usr/bin/../lib/gcc/arm-none-eabi/7.2.1/../../../../arm-none-eabi/lib/thumb/v7e-m/fpv4-sp/hard/libg_nano.a(lib_a-memcmp.o)
 .debug_frame   0x0000000000007b80       0x28 /usr/bin/../lib/gcc/arm-none-eabi/7.2.1/../../../../arm-none-eabi/lib/thumb/v7e-m/fpv4-sp/hard/libg_nano.a(lib_a-memcpy-stub.o)
 .debug_frame   0x0000000000007ba8       0x20 /usr/bin/../lib/gcc/arm-none-eabi/7.2.1/../../../../arm-none-eabi/lib/thumb/v7e-m/fpv4-sp/hard/libg_nano.a(lib_a-memset.o)
 .debug_frame   0x0000000000007bc8       0x38 /usr/bin/../lib/gcc/arm-none-eabi/7.2.1/../../../../arm-none-eabi/lib/thumb/v7e-m/fpv4-sp/hard/libg_nano.a(lib_a-nano-freer.o)
 .debug_frame   0x0000000000007c00       0x2c /usr/bin/../lib/gcc/arm-none-eabi/7.2.1/../../../../arm-none-eabi/lib/thumb/v7e-m/fpv4-sp/hard/libg_nano.a(lib_a-nano-mallocr.o)
 .debug_frame   0x0000000000007c2c       0x2c /usr/bin/../lib/gcc/arm-none-eabi/7.2.1/../../../../arm-none-eabi/lib/thumb/v7e-m/fpv4-sp/hard/libg_nano.a(lib_a-sbrkr.o)
 .debug_frame   0x0000000000007c58       0x20 /usr/bin/../lib/gcc/arm-none-eabi/7.2.1/../../../../arm-none-eabi/lib/thumb/v7e-m/fpv4-sp/hard/libg_nano.a(lib_a-strcpy.o)
 .debug_frame   0x0000000000007c78       0x38 /usr/bin/../lib/gcc/arm-none-eabi/7.2.1/../../../../arm-none-eabi/lib/thumb/v7e-m/fpv4-sp/hard/libg_nano.a(lib_a-strrchr.o)
 .debug_frame   0x0000000000007cb0       0x30 /usr/bin/../lib/gcc/arm-none-eabi/7.2.1/../../../../arm-none-eabi/lib/thumb/v7e-m/fpv4-sp/hard/libg_nano.a(lib_a-mlock.o)
 .debug_frame   0x0000000000007ce0       0x5c /usr/bin/../lib/gcc/arm-none-eabi/7.2.1/../../../../arm-none-eabi/lib/thumb/v7e-m/fpv4-sp/hard/libg_nano.a(lib_a-reent.o)
 .debug_frame   0x0000000000007d3c       0x20 /usr/bin/../lib/gcc/arm-none-eabi/7.2.1/../../../../arm-none-eabi/lib/thumb/v7e-m/fpv4-sp/hard/libg_nano.a(lib_a-strchr.o)
 .debug_frame   0x0000000000007d5c       0x20 /usr/bin/../lib/gcc/arm-none-eabi/7.2.1/../../../../arm-none-eabi/lib/thumb/v7e-m/fpv4-sp/hard/libnosys.a(sbrk.o)
 .debug_frame   0x0000000000007d7c       0x20 /usr/bin/../lib/gcc/arm-none-eabi/7.2.1/../../../../arm-none-eabi/lib/thumb/v7e-m/fpv4-sp/hard/libnosys.a(_exit.o)
