Archive member included to satisfy reference by file (symbol)

../../external/rtt/librtt_nrf52840_xxAA.a(SEGGER_RTT.c.obj)
                              CMakeFiles/dfu_no_serial_nrf52840_xxAA_s140_6.0.0.dir/__/__/mesh/core/src/log.c.obj (SEGGER_RTT_Write)
../../external/rtt/librtt_nrf52840_xxAA.a(SEGGER_RTT_printf.c.obj)
                              CMakeFiles/dfu_no_serial_nrf52840_xxAA_s140_6.0.0.dir/__/__/mesh/core/src/log.c.obj (SEGGER_RTT_vprintf)
../../external/micro-ecc/libuECC_nrf52840_xxAA.a(uECC.c.obj)
                              CMakeFiles/dfu_no_serial_nrf52840_xxAA_s140_6.0.0.dir/__/__/mesh/prov/src/prov_utils.c.obj (uECC_secp256r1)
/usr/bin/../lib/gcc/arm-none-eabi/7.2.1/../../../../arm-none-eabi/lib/thumb/v7e-m/fpv4-sp/hard/libg_nano.a(lib_a-exit.o)
                              /usr/bin/../lib/gcc/arm-none-eabi/7.2.1/../../../../arm-none-eabi/lib/thumb/v7e-m/fpv4-sp/hard/crt0.o (exit)
/usr/bin/../lib/gcc/arm-none-eabi/7.2.1/../../../../arm-none-eabi/lib/thumb/v7e-m/fpv4-sp/hard/libg_nano.a(lib_a-impure.o)
                              /usr/bin/../lib/gcc/arm-none-eabi/7.2.1/../../../../arm-none-eabi/lib/thumb/v7e-m/fpv4-sp/hard/libg_nano.a(lib_a-exit.o) (_global_impure_ptr)
/usr/bin/../lib/gcc/arm-none-eabi/7.2.1/../../../../arm-none-eabi/lib/thumb/v7e-m/fpv4-sp/hard/libg_nano.a(lib_a-init.o)
                              /usr/bin/../lib/gcc/arm-none-eabi/7.2.1/../../../../arm-none-eabi/lib/thumb/v7e-m/fpv4-sp/hard/crt0.o (__libc_init_array)
/usr/bin/../lib/gcc/arm-none-eabi/7.2.1/../../../../arm-none-eabi/lib/thumb/v7e-m/fpv4-sp/hard/libg_nano.a(lib_a-malloc.o)
                              CMakeFiles/dfu_no_serial_nrf52840_xxAA_s140_6.0.0.dir/__/__/mesh/core/src/transport.c.obj (malloc)
/usr/bin/../lib/gcc/arm-none-eabi/7.2.1/../../../../arm-none-eabi/lib/thumb/v7e-m/fpv4-sp/hard/libg_nano.a(lib_a-memcmp.o)
                              CMakeFiles/dfu_no_serial_nrf52840_xxAA_s140_6.0.0.dir/__/__/mesh/access/src/device_state_manager.c.obj (memcmp)
/usr/bin/../lib/gcc/arm-none-eabi/7.2.1/../../../../arm-none-eabi/lib/thumb/v7e-m/fpv4-sp/hard/libg_nano.a(lib_a-memcpy-stub.o)
                              CMakeFiles/dfu_no_serial_nrf52840_xxAA_s140_6.0.0.dir/__/__/mesh/access/src/access.c.obj (memcpy)
/usr/bin/../lib/gcc/arm-none-eabi/7.2.1/../../../../arm-none-eabi/lib/thumb/v7e-m/fpv4-sp/hard/libg_nano.a(lib_a-memset.o)
                              /usr/bin/../lib/gcc/arm-none-eabi/7.2.1/../../../../arm-none-eabi/lib/thumb/v7e-m/fpv4-sp/hard/crt0.o (memset)
/usr/bin/../lib/gcc/arm-none-eabi/7.2.1/../../../../arm-none-eabi/lib/thumb/v7e-m/fpv4-sp/hard/libg_nano.a(lib_a-nano-freer.o)
                              /usr/bin/../lib/gcc/arm-none-eabi/7.2.1/../../../../arm-none-eabi/lib/thumb/v7e-m/fpv4-sp/hard/libg_nano.a(lib_a-malloc.o) (_free_r)
/usr/bin/../lib/gcc/arm-none-eabi/7.2.1/../../../../arm-none-eabi/lib/thumb/v7e-m/fpv4-sp/hard/libg_nano.a(lib_a-nano-mallocr.o)
                              /usr/bin/../lib/gcc/arm-none-eabi/7.2.1/../../../../arm-none-eabi/lib/thumb/v7e-m/fpv4-sp/hard/libg_nano.a(lib_a-malloc.o) (_malloc_r)
/usr/bin/../lib/gcc/arm-none-eabi/7.2.1/../../../../arm-none-eabi/lib/thumb/v7e-m/fpv4-sp/hard/libg_nano.a(lib_a-sbrkr.o)
                              /usr/bin/../lib/gcc/arm-none-eabi/7.2.1/../../../../arm-none-eabi/lib/thumb/v7e-m/fpv4-sp/hard/libg_nano.a(lib_a-nano-mallocr.o) (_sbrk_r)
/usr/bin/../lib/gcc/arm-none-eabi/7.2.1/../../../../arm-none-eabi/lib/thumb/v7e-m/fpv4-sp/hard/libg_nano.a(lib_a-strcpy.o)
                              ../../external/rtt/librtt_nrf52840_xxAA.a(SEGGER_RTT.c.obj) (strcpy)
/usr/bin/../lib/gcc/arm-none-eabi/7.2.1/../../../../arm-none-eabi/lib/thumb/v7e-m/fpv4-sp/hard/libg_nano.a(lib_a-strlen.o)
                              CMakeFiles/dfu_no_serial_nrf52840_xxAA_s140_6.0.0.dir/__/__/mesh/prov/src/prov_beacon.c.obj (strlen)
/usr/bin/../lib/gcc/arm-none-eabi/7.2.1/../../../../arm-none-eabi/lib/thumb/v7e-m/fpv4-sp/hard/libg_nano.a(lib_a-strrchr.o)
                              CMakeFiles/dfu_no_serial_nrf52840_xxAA_s140_6.0.0.dir/src/main.c.obj (strrchr)
/usr/bin/../lib/gcc/arm-none-eabi/7.2.1/../../../../arm-none-eabi/lib/thumb/v7e-m/fpv4-sp/hard/libg_nano.a(lib_a-mlock.o)
                              /usr/bin/../lib/gcc/arm-none-eabi/7.2.1/../../../../arm-none-eabi/lib/thumb/v7e-m/fpv4-sp/hard/libg_nano.a(lib_a-nano-freer.o) (__malloc_lock)
/usr/bin/../lib/gcc/arm-none-eabi/7.2.1/../../../../arm-none-eabi/lib/thumb/v7e-m/fpv4-sp/hard/libg_nano.a(lib_a-reent.o)
                              /usr/bin/../lib/gcc/arm-none-eabi/7.2.1/../../../../arm-none-eabi/lib/thumb/v7e-m/fpv4-sp/hard/libg_nano.a(lib_a-sbrkr.o) (errno)
/usr/bin/../lib/gcc/arm-none-eabi/7.2.1/../../../../arm-none-eabi/lib/thumb/v7e-m/fpv4-sp/hard/libg_nano.a(lib_a-strchr.o)
                              /usr/bin/../lib/gcc/arm-none-eabi/7.2.1/../../../../arm-none-eabi/lib/thumb/v7e-m/fpv4-sp/hard/libg_nano.a(lib_a-strrchr.o) (strchr)
/usr/bin/../lib/gcc/arm-none-eabi/7.2.1/../../../../arm-none-eabi/lib/thumb/v7e-m/fpv4-sp/hard/libnosys.a(sbrk.o)
                              /usr/bin/../lib/gcc/arm-none-eabi/7.2.1/../../../../arm-none-eabi/lib/thumb/v7e-m/fpv4-sp/hard/libg_nano.a(lib_a-sbrkr.o) (_sbrk)
/usr/bin/../lib/gcc/arm-none-eabi/7.2.1/../../../../arm-none-eabi/lib/thumb/v7e-m/fpv4-sp/hard/libnosys.a(_exit.o)
                              /usr/bin/../lib/gcc/arm-none-eabi/7.2.1/../../../../arm-none-eabi/lib/thumb/v7e-m/fpv4-sp/hard/libg_nano.a(lib_a-exit.o) (_exit)

Allocating common symbols
Common symbol       size              file

nrf_nvic_state      0xc               CMakeFiles/dfu_no_serial_nrf52840_xxAA_s140_6.0.0.dir/__/common/src/mesh_softdevice_init.c.obj
m_packet            0x24              CMakeFiles/dfu_no_serial_nrf52840_xxAA_s140_6.0.0.dir/__/__/mesh/core/src/core_tx.c.obj
bank_addr           0x4               CMakeFiles/dfu_no_serial_nrf52840_xxAA_s140_6.0.0.dir/src/main.c.obj
rom_length          0x4               CMakeFiles/dfu_no_serial_nrf52840_xxAA_s140_6.0.0.dir/src/main.c.obj
m_cmd_handler       0x4               CMakeFiles/dfu_no_serial_nrf52840_xxAA_s140_6.0.0.dir/__/__/mesh/dfu/src/nrf_mesh_dfu.c.obj
errno               0x4               /usr/bin/../lib/gcc/arm-none-eabi/7.2.1/../../../../arm-none-eabi/lib/thumb/v7e-m/fpv4-sp/hard/libg_nano.a(lib_a-reent.o)
_SEGGER_RTT         0x78              ../../external/rtt/librtt_nrf52840_xxAA.a(SEGGER_RTT.c.obj)

Discarded input sections

 .text          0x0000000000000000        0x0 /usr/bin/../lib/gcc/arm-none-eabi/7.2.1/thumb/v7e-m/fpv4-sp/hard/crti.o
 .data          0x0000000000000000        0x0 /usr/bin/../lib/gcc/arm-none-eabi/7.2.1/thumb/v7e-m/fpv4-sp/hard/crti.o
 .bss           0x0000000000000000        0x0 /usr/bin/../lib/gcc/arm-none-eabi/7.2.1/thumb/v7e-m/fpv4-sp/hard/crti.o
 .data          0x0000000000000000        0x4 /usr/bin/../lib/gcc/arm-none-eabi/7.2.1/thumb/v7e-m/fpv4-sp/hard/crtbegin.o
 .data          0x0000000000000000        0x0 /usr/bin/../lib/gcc/arm-none-eabi/7.2.1/../../../../arm-none-eabi/lib/thumb/v7e-m/fpv4-sp/hard/crt0.o
 .bss           0x0000000000000000        0x0 /usr/bin/../lib/gcc/arm-none-eabi/7.2.1/../../../../arm-none-eabi/lib/thumb/v7e-m/fpv4-sp/hard/crt0.o
 .ARM.extab     0x0000000000000000        0x0 /usr/bin/../lib/gcc/arm-none-eabi/7.2.1/../../../../arm-none-eabi/lib/thumb/v7e-m/fpv4-sp/hard/crt0.o
 .text          0x0000000000000000        0x0 CMakeFiles/dfu_no_serial_nrf52840_xxAA_s140_6.0.0.dir/src/main.c.obj
 .data          0x0000000000000000        0x0 CMakeFiles/dfu_no_serial_nrf52840_xxAA_s140_6.0.0.dir/src/main.c.obj
 .bss           0x0000000000000000        0x0 CMakeFiles/dfu_no_serial_nrf52840_xxAA_s140_6.0.0.dir/src/main.c.obj
 .text          0x0000000000000000        0x0 CMakeFiles/dfu_no_serial_nrf52840_xxAA_s140_6.0.0.dir/__/__/mesh/stack/src/mesh_stack.c.obj
 .data          0x0000000000000000        0x0 CMakeFiles/dfu_no_serial_nrf52840_xxAA_s140_6.0.0.dir/__/__/mesh/stack/src/mesh_stack.c.obj
 .bss           0x0000000000000000        0x0 CMakeFiles/dfu_no_serial_nrf52840_xxAA_s140_6.0.0.dir/__/__/mesh/stack/src/mesh_stack.c.obj
 .text.mesh_stack_is_device_provisioned
                0x0000000000000000       0x1c CMakeFiles/dfu_no_serial_nrf52840_xxAA_s140_6.0.0.dir/__/__/mesh/stack/src/mesh_stack.c.obj
 .text          0x0000000000000000        0x0 CMakeFiles/dfu_no_serial_nrf52840_xxAA_s140_6.0.0.dir/__/common/src/mesh_softdevice_init.c.obj
 .data          0x0000000000000000        0x0 CMakeFiles/dfu_no_serial_nrf52840_xxAA_s140_6.0.0.dir/__/common/src/mesh_softdevice_init.c.obj
 .bss           0x0000000000000000        0x0 CMakeFiles/dfu_no_serial_nrf52840_xxAA_s140_6.0.0.dir/__/common/src/mesh_softdevice_init.c.obj
 .text          0x0000000000000000        0x0 CMakeFiles/dfu_no_serial_nrf52840_xxAA_s140_6.0.0.dir/__/common/src/mesh_provisionee.c.obj
 .data          0x0000000000000000        0x0 CMakeFiles/dfu_no_serial_nrf52840_xxAA_s140_6.0.0.dir/__/common/src/mesh_provisionee.c.obj
 .bss           0x0000000000000000        0x0 CMakeFiles/dfu_no_serial_nrf52840_xxAA_s140_6.0.0.dir/__/common/src/mesh_provisionee.c.obj
 .text          0x0000000000000000        0x0 CMakeFiles/dfu_no_serial_nrf52840_xxAA_s140_6.0.0.dir/__/common/src/simple_hal.c.obj
 .data          0x0000000000000000        0x0 CMakeFiles/dfu_no_serial_nrf52840_xxAA_s140_6.0.0.dir/__/common/src/simple_hal.c.obj
 .bss           0x0000000000000000        0x0 CMakeFiles/dfu_no_serial_nrf52840_xxAA_s140_6.0.0.dir/__/common/src/simple_hal.c.obj
 .text.hal_led_pin_get
                0x0000000000000000       0x18 CMakeFiles/dfu_no_serial_nrf52840_xxAA_s140_6.0.0.dir/__/common/src/simple_hal.c.obj
 .text.hal_led_pin_set
                0x0000000000000000       0x18 CMakeFiles/dfu_no_serial_nrf52840_xxAA_s140_6.0.0.dir/__/common/src/simple_hal.c.obj
 .text.hal_buttons_init
                0x0000000000000000       0x54 CMakeFiles/dfu_no_serial_nrf52840_xxAA_s140_6.0.0.dir/__/common/src/simple_hal.c.obj
 .text          0x0000000000000000        0x0 CMakeFiles/dfu_no_serial_nrf52840_xxAA_s140_6.0.0.dir/__/__/mesh/access/src/access_publish.c.obj
 .data          0x0000000000000000        0x0 CMakeFiles/dfu_no_serial_nrf52840_xxAA_s140_6.0.0.dir/__/__/mesh/access/src/access_publish.c.obj
 .bss           0x0000000000000000        0x0 CMakeFiles/dfu_no_serial_nrf52840_xxAA_s140_6.0.0.dir/__/__/mesh/access/src/access_publish.c.obj
 .text          0x0000000000000000        0x0 CMakeFiles/dfu_no_serial_nrf52840_xxAA_s140_6.0.0.dir/__/__/mesh/access/src/access.c.obj
 .data          0x0000000000000000        0x0 CMakeFiles/dfu_no_serial_nrf52840_xxAA_s140_6.0.0.dir/__/__/mesh/access/src/access.c.obj
 .bss           0x0000000000000000        0x0 CMakeFiles/dfu_no_serial_nrf52840_xxAA_s140_6.0.0.dir/__/__/mesh/access/src/access.c.obj
 .text.access_model_subscription_list_alloc
                0x0000000000000000       0x60 CMakeFiles/dfu_no_serial_nrf52840_xxAA_s140_6.0.0.dir/__/__/mesh/access/src/access.c.obj
 .text.access_model_subscription_lists_share
                0x0000000000000000       0x60 CMakeFiles/dfu_no_serial_nrf52840_xxAA_s140_6.0.0.dir/__/__/mesh/access/src/access.c.obj
 .text.access_element_location_set
                0x0000000000000000       0x20 CMakeFiles/dfu_no_serial_nrf52840_xxAA_s140_6.0.0.dir/__/__/mesh/access/src/access.c.obj
 .text          0x0000000000000000        0x0 CMakeFiles/dfu_no_serial_nrf52840_xxAA_s140_6.0.0.dir/__/__/mesh/access/src/access_reliable.c.obj
 .data          0x0000000000000000        0x0 CMakeFiles/dfu_no_serial_nrf52840_xxAA_s140_6.0.0.dir/__/__/mesh/access/src/access_reliable.c.obj
 .bss           0x0000000000000000        0x0 CMakeFiles/dfu_no_serial_nrf52840_xxAA_s140_6.0.0.dir/__/__/mesh/access/src/access_reliable.c.obj
 .text.access_model_reliable_publish
                0x0000000000000000      0x1d8 CMakeFiles/dfu_no_serial_nrf52840_xxAA_s140_6.0.0.dir/__/__/mesh/access/src/access_reliable.c.obj
 .text          0x0000000000000000        0x0 CMakeFiles/dfu_no_serial_nrf52840_xxAA_s140_6.0.0.dir/__/__/mesh/access/src/device_state_manager.c.obj
 .data          0x0000000000000000        0x0 CMakeFiles/dfu_no_serial_nrf52840_xxAA_s140_6.0.0.dir/__/__/mesh/access/src/device_state_manager.c.obj
 .bss           0x0000000000000000        0x0 CMakeFiles/dfu_no_serial_nrf52840_xxAA_s140_6.0.0.dir/__/__/mesh/access/src/device_state_manager.c.obj
 .text.dsm_has_unflashed_data
                0x0000000000000000       0x58 CMakeFiles/dfu_no_serial_nrf52840_xxAA_s140_6.0.0.dir/__/__/mesh/access/src/device_state_manager.c.obj
 .text.dsm_address_subscription_count_get
                0x0000000000000000       0x80 CMakeFiles/dfu_no_serial_nrf52840_xxAA_s140_6.0.0.dir/__/__/mesh/access/src/device_state_manager.c.obj
 .text.dsm_address_get_all
                0x0000000000000000      0x258 CMakeFiles/dfu_no_serial_nrf52840_xxAA_s140_6.0.0.dir/__/__/mesh/access/src/device_state_manager.c.obj
 .text.dsm_subnet_handle_to_netkey_index
                0x0000000000000000       0x34 CMakeFiles/dfu_no_serial_nrf52840_xxAA_s140_6.0.0.dir/__/__/mesh/access/src/device_state_manager.c.obj
 .text.dsm_devkey_delete
                0x0000000000000000       0x6c CMakeFiles/dfu_no_serial_nrf52840_xxAA_s140_6.0.0.dir/__/__/mesh/access/src/device_state_manager.c.obj
 .text.dsm_devkey_handle_get
                0x0000000000000000       0x3c CMakeFiles/dfu_no_serial_nrf52840_xxAA_s140_6.0.0.dir/__/__/mesh/access/src/device_state_manager.c.obj
 .text.dsm_beacon_info_get
                0x0000000000000000       0x34 CMakeFiles/dfu_no_serial_nrf52840_xxAA_s140_6.0.0.dir/__/__/mesh/access/src/device_state_manager.c.obj
 .text          0x0000000000000000        0x0 CMakeFiles/dfu_no_serial_nrf52840_xxAA_s140_6.0.0.dir/__/__/models/config/src/composition_data.c.obj
 .data          0x0000000000000000        0x0 CMakeFiles/dfu_no_serial_nrf52840_xxAA_s140_6.0.0.dir/__/__/models/config/src/composition_data.c.obj
 .bss           0x0000000000000000        0x0 CMakeFiles/dfu_no_serial_nrf52840_xxAA_s140_6.0.0.dir/__/__/models/config/src/composition_data.c.obj
 .text          0x0000000000000000        0x0 CMakeFiles/dfu_no_serial_nrf52840_xxAA_s140_6.0.0.dir/__/__/models/config/src/config_server.c.obj
 .data          0x0000000000000000        0x0 CMakeFiles/dfu_no_serial_nrf52840_xxAA_s140_6.0.0.dir/__/__/models/config/src/config_server.c.obj
 .bss           0x0000000000000000        0x0 CMakeFiles/dfu_no_serial_nrf52840_xxAA_s140_6.0.0.dir/__/__/models/config/src/config_server.c.obj
 .text          0x0000000000000000        0x0 CMakeFiles/dfu_no_serial_nrf52840_xxAA_s140_6.0.0.dir/__/__/models/config/src/packed_index_list.c.obj
 .data          0x0000000000000000        0x0 CMakeFiles/dfu_no_serial_nrf52840_xxAA_s140_6.0.0.dir/__/__/models/config/src/packed_index_list.c.obj
 .bss           0x0000000000000000        0x0 CMakeFiles/dfu_no_serial_nrf52840_xxAA_s140_6.0.0.dir/__/__/models/config/src/packed_index_list.c.obj
 .text          0x0000000000000000        0x0 CMakeFiles/dfu_no_serial_nrf52840_xxAA_s140_6.0.0.dir/__/__/models/health/src/health_server.c.obj
 .data          0x0000000000000000        0x0 CMakeFiles/dfu_no_serial_nrf52840_xxAA_s140_6.0.0.dir/__/__/models/health/src/health_server.c.obj
 .bss           0x0000000000000000        0x0 CMakeFiles/dfu_no_serial_nrf52840_xxAA_s140_6.0.0.dir/__/__/models/health/src/health_server.c.obj
 .text.health_server_fault_register
                0x0000000000000000      0x23c CMakeFiles/dfu_no_serial_nrf52840_xxAA_s140_6.0.0.dir/__/__/models/health/src/health_server.c.obj
 .text.health_server_fault_clear
                0x0000000000000000      0x2d8 CMakeFiles/dfu_no_serial_nrf52840_xxAA_s140_6.0.0.dir/__/__/models/health/src/health_server.c.obj
 .text.health_server_fault_is_set
                0x0000000000000000       0x1c CMakeFiles/dfu_no_serial_nrf52840_xxAA_s140_6.0.0.dir/__/__/models/health/src/health_server.c.obj
 .text.health_server_fault_count_get
                0x0000000000000000      0x14c CMakeFiles/dfu_no_serial_nrf52840_xxAA_s140_6.0.0.dir/__/__/models/health/src/health_server.c.obj
 .text.health_server_attention_get
                0x0000000000000000        0x8 CMakeFiles/dfu_no_serial_nrf52840_xxAA_s140_6.0.0.dir/__/__/models/health/src/health_server.c.obj
 .text.health_server_attention_set
                0x0000000000000000       0x90 CMakeFiles/dfu_no_serial_nrf52840_xxAA_s140_6.0.0.dir/__/__/models/health/src/health_server.c.obj
 .text          0x0000000000000000        0x0 CMakeFiles/dfu_no_serial_nrf52840_xxAA_s140_6.0.0.dir/__/__/mesh/prov/src/prov_provisioner.c.obj
 .data          0x0000000000000000        0x0 CMakeFiles/dfu_no_serial_nrf52840_xxAA_s140_6.0.0.dir/__/__/mesh/prov/src/prov_provisioner.c.obj
 .bss           0x0000000000000000        0x0 CMakeFiles/dfu_no_serial_nrf52840_xxAA_s140_6.0.0.dir/__/__/mesh/prov/src/prov_provisioner.c.obj
 .text.prov_provisioner_cb_link_closed
                0x0000000000000000       0x2c CMakeFiles/dfu_no_serial_nrf52840_xxAA_s140_6.0.0.dir/__/__/mesh/prov/src/prov_provisioner.c.obj
 .text.prov_provisioner_cb_link_established
                0x0000000000000000       0x40 CMakeFiles/dfu_no_serial_nrf52840_xxAA_s140_6.0.0.dir/__/__/mesh/prov/src/prov_provisioner.c.obj
 .text.request_authentication
                0x0000000000000000       0xa8 CMakeFiles/dfu_no_serial_nrf52840_xxAA_s140_6.0.0.dir/__/__/mesh/prov/src/prov_provisioner.c.obj
 .text.prov_provisioner_pkt_in
                0x0000000000000000      0x298 CMakeFiles/dfu_no_serial_nrf52840_xxAA_s140_6.0.0.dir/__/__/mesh/prov/src/prov_provisioner.c.obj
 .text.prov_provisioner_cb_ack_received
                0x0000000000000000       0x90 CMakeFiles/dfu_no_serial_nrf52840_xxAA_s140_6.0.0.dir/__/__/mesh/prov/src/prov_provisioner.c.obj
 .text.prov_provisioner_provision
                0x0000000000000000       0x44 CMakeFiles/dfu_no_serial_nrf52840_xxAA_s140_6.0.0.dir/__/__/mesh/prov/src/prov_provisioner.c.obj
 .text.prov_provisioner_oob_use
                0x0000000000000000       0xac CMakeFiles/dfu_no_serial_nrf52840_xxAA_s140_6.0.0.dir/__/__/mesh/prov/src/prov_provisioner.c.obj
 .text.prov_provisioner_shared_secret
                0x0000000000000000       0xb8 CMakeFiles/dfu_no_serial_nrf52840_xxAA_s140_6.0.0.dir/__/__/mesh/prov/src/prov_provisioner.c.obj
 .text.prov_provisioner_oob_pubkey
                0x0000000000000000       0x30 CMakeFiles/dfu_no_serial_nrf52840_xxAA_s140_6.0.0.dir/__/__/mesh/prov/src/prov_provisioner.c.obj
 .rodata.m_prov_callbacks
                0x0000000000000000       0x10 CMakeFiles/dfu_no_serial_nrf52840_xxAA_s140_6.0.0.dir/__/__/mesh/prov/src/prov_provisioner.c.obj
 .text          0x0000000000000000        0x0 CMakeFiles/dfu_no_serial_nrf52840_xxAA_s140_6.0.0.dir/__/__/mesh/prov/src/prov_provisionee.c.obj
 .data          0x0000000000000000        0x0 CMakeFiles/dfu_no_serial_nrf52840_xxAA_s140_6.0.0.dir/__/__/mesh/prov/src/prov_provisionee.c.obj
 .bss           0x0000000000000000        0x0 CMakeFiles/dfu_no_serial_nrf52840_xxAA_s140_6.0.0.dir/__/__/mesh/prov/src/prov_provisionee.c.obj
 .text.prov_provisionee_shared_secret
                0x0000000000000000       0xa0 CMakeFiles/dfu_no_serial_nrf52840_xxAA_s140_6.0.0.dir/__/__/mesh/prov/src/prov_provisionee.c.obj
 .text          0x0000000000000000        0x0 CMakeFiles/dfu_no_serial_nrf52840_xxAA_s140_6.0.0.dir/__/__/mesh/prov/src/nrf_mesh_prov.c.obj
 .data          0x0000000000000000        0x0 CMakeFiles/dfu_no_serial_nrf52840_xxAA_s140_6.0.0.dir/__/__/mesh/prov/src/nrf_mesh_prov.c.obj
 .bss           0x0000000000000000        0x0 CMakeFiles/dfu_no_serial_nrf52840_xxAA_s140_6.0.0.dir/__/__/mesh/prov/src/nrf_mesh_prov.c.obj
 .text.nrf_mesh_prov_listen_stop
                0x0000000000000000       0x30 CMakeFiles/dfu_no_serial_nrf52840_xxAA_s140_6.0.0.dir/__/__/mesh/prov/src/nrf_mesh_prov.c.obj
 .text.nrf_mesh_prov_provision
                0x0000000000000000       0x68 CMakeFiles/dfu_no_serial_nrf52840_xxAA_s140_6.0.0.dir/__/__/mesh/prov/src/nrf_mesh_prov.c.obj
 .text.nrf_mesh_prov_oob_use
                0x0000000000000000       0x18 CMakeFiles/dfu_no_serial_nrf52840_xxAA_s140_6.0.0.dir/__/__/mesh/prov/src/nrf_mesh_prov.c.obj
 .text.nrf_mesh_prov_shared_secret_provide
                0x0000000000000000       0x10 CMakeFiles/dfu_no_serial_nrf52840_xxAA_s140_6.0.0.dir/__/__/mesh/prov/src/nrf_mesh_prov.c.obj
 .text.nrf_mesh_prov_pubkey_provide
                0x0000000000000000       0x10 CMakeFiles/dfu_no_serial_nrf52840_xxAA_s140_6.0.0.dir/__/__/mesh/prov/src/nrf_mesh_prov.c.obj
 .text.nrf_mesh_prov_scan_start
                0x0000000000000000       0x10 CMakeFiles/dfu_no_serial_nrf52840_xxAA_s140_6.0.0.dir/__/__/mesh/prov/src/nrf_mesh_prov.c.obj
 .text.nrf_mesh_prov_scan_stop
                0x0000000000000000        0x4 CMakeFiles/dfu_no_serial_nrf52840_xxAA_s140_6.0.0.dir/__/__/mesh/prov/src/nrf_mesh_prov.c.obj
 .text          0x0000000000000000        0x0 CMakeFiles/dfu_no_serial_nrf52840_xxAA_s140_6.0.0.dir/__/__/mesh/prov/src/provisioning.c.obj
 .data          0x0000000000000000        0x0 CMakeFiles/dfu_no_serial_nrf52840_xxAA_s140_6.0.0.dir/__/__/mesh/prov/src/provisioning.c.obj
 .bss           0x0000000000000000        0x0 CMakeFiles/dfu_no_serial_nrf52840_xxAA_s140_6.0.0.dir/__/__/mesh/prov/src/provisioning.c.obj
 .text.prov_tx_invite
                0x0000000000000000       0x38 CMakeFiles/dfu_no_serial_nrf52840_xxAA_s140_6.0.0.dir/__/__/mesh/prov/src/provisioning.c.obj
 .text.prov_tx_start
                0x0000000000000000       0x38 CMakeFiles/dfu_no_serial_nrf52840_xxAA_s140_6.0.0.dir/__/__/mesh/prov/src/provisioning.c.obj
 .text.prov_tx_data
                0x0000000000000000       0x34 CMakeFiles/dfu_no_serial_nrf52840_xxAA_s140_6.0.0.dir/__/__/mesh/prov/src/provisioning.c.obj
 .text.prov_tx  0x0000000000000000       0x3c CMakeFiles/dfu_no_serial_nrf52840_xxAA_s140_6.0.0.dir/__/__/mesh/prov/src/provisioning.c.obj
 .text          0x0000000000000000        0x0 CMakeFiles/dfu_no_serial_nrf52840_xxAA_s140_6.0.0.dir/__/__/mesh/prov/src/prov_beacon.c.obj
 .data          0x0000000000000000        0x0 CMakeFiles/dfu_no_serial_nrf52840_xxAA_s140_6.0.0.dir/__/__/mesh/prov/src/prov_beacon.c.obj
 .bss           0x0000000000000000        0x0 CMakeFiles/dfu_no_serial_nrf52840_xxAA_s140_6.0.0.dir/__/__/mesh/prov/src/prov_beacon.c.obj
 .text.prov_beacon_scan_start
                0x0000000000000000       0x1c CMakeFiles/dfu_no_serial_nrf52840_xxAA_s140_6.0.0.dir/__/__/mesh/prov/src/prov_beacon.c.obj
 .text.prov_beacon_scan_stop
                0x0000000000000000        0xc CMakeFiles/dfu_no_serial_nrf52840_xxAA_s140_6.0.0.dir/__/__/mesh/prov/src/prov_beacon.c.obj
 .text          0x0000000000000000        0x0 CMakeFiles/dfu_no_serial_nrf52840_xxAA_s140_6.0.0.dir/__/__/mesh/prov/src/prov_utils.c.obj
 .data          0x0000000000000000        0x0 CMakeFiles/dfu_no_serial_nrf52840_xxAA_s140_6.0.0.dir/__/__/mesh/prov/src/prov_utils.c.obj
 .bss           0x0000000000000000        0x0 CMakeFiles/dfu_no_serial_nrf52840_xxAA_s140_6.0.0.dir/__/__/mesh/prov/src/prov_utils.c.obj
 .text          0x0000000000000000        0x0 CMakeFiles/dfu_no_serial_nrf52840_xxAA_s140_6.0.0.dir/__/__/mesh/prov/src/prov_bearer_adv.c.obj
 .data          0x0000000000000000        0x0 CMakeFiles/dfu_no_serial_nrf52840_xxAA_s140_6.0.0.dir/__/__/mesh/prov/src/prov_bearer_adv.c.obj
 .bss           0x0000000000000000        0x0 CMakeFiles/dfu_no_serial_nrf52840_xxAA_s140_6.0.0.dir/__/__/mesh/prov/src/prov_bearer_adv.c.obj
 .text.calculate_3GPP_CRC
                0x0000000000000000       0x28 CMakeFiles/dfu_no_serial_nrf52840_xxAA_s140_6.0.0.dir/__/__/mesh/prov/src/prov_bearer_adv.c.obj
 .text          0x0000000000000000        0x0 CMakeFiles/dfu_no_serial_nrf52840_xxAA_s140_6.0.0.dir/__/__/mesh/dfu/src/nrf_mesh_dfu.c.obj
 .data          0x0000000000000000        0x0 CMakeFiles/dfu_no_serial_nrf52840_xxAA_s140_6.0.0.dir/__/__/mesh/dfu/src/nrf_mesh_dfu.c.obj
 .bss           0x0000000000000000        0x0 CMakeFiles/dfu_no_serial_nrf52840_xxAA_s140_6.0.0.dir/__/__/mesh/dfu/src/nrf_mesh_dfu.c.obj
 .text.nrf_mesh_dfu_jump_to_bootloader
                0x0000000000000000       0x40 CMakeFiles/dfu_no_serial_nrf52840_xxAA_s140_6.0.0.dir/__/__/mesh/dfu/src/nrf_mesh_dfu.c.obj
 .text.nrf_mesh_dfu_abort
                0x0000000000000000       0xcc CMakeFiles/dfu_no_serial_nrf52840_xxAA_s140_6.0.0.dir/__/__/mesh/dfu/src/nrf_mesh_dfu.c.obj
 .text.nrf_mesh_dfu_bank_info_get
                0x0000000000000000       0xc4 CMakeFiles/dfu_no_serial_nrf52840_xxAA_s140_6.0.0.dir/__/__/mesh/dfu/src/nrf_mesh_dfu.c.obj
 .text.nrf_mesh_dfu_state_get
                0x0000000000000000       0x50 CMakeFiles/dfu_no_serial_nrf52840_xxAA_s140_6.0.0.dir/__/__/mesh/dfu/src/nrf_mesh_dfu.c.obj
 .text          0x0000000000000000        0x0 CMakeFiles/dfu_no_serial_nrf52840_xxAA_s140_6.0.0.dir/__/nrf_mesh_weak.c.obj
 .data          0x0000000000000000        0x0 CMakeFiles/dfu_no_serial_nrf52840_xxAA_s140_6.0.0.dir/__/nrf_mesh_weak.c.obj
 .bss           0x0000000000000000        0x0 CMakeFiles/dfu_no_serial_nrf52840_xxAA_s140_6.0.0.dir/__/nrf_mesh_weak.c.obj
 .text._weak_handler
                0x0000000000000000        0x4 CMakeFiles/dfu_no_serial_nrf52840_xxAA_s140_6.0.0.dir/__/nrf_mesh_weak.c.obj
 .text._weak_handler_ptr
                0x0000000000000000        0x4 CMakeFiles/dfu_no_serial_nrf52840_xxAA_s140_6.0.0.dir/__/nrf_mesh_weak.c.obj
 .debug_info    0x0000000000000000      0x91d CMakeFiles/dfu_no_serial_nrf52840_xxAA_s140_6.0.0.dir/__/nrf_mesh_weak.c.obj
 .debug_abbrev  0x0000000000000000      0x1ae CMakeFiles/dfu_no_serial_nrf52840_xxAA_s140_6.0.0.dir/__/nrf_mesh_weak.c.obj
 .debug_aranges
                0x0000000000000000       0x28 CMakeFiles/dfu_no_serial_nrf52840_xxAA_s140_6.0.0.dir/__/nrf_mesh_weak.c.obj
 .debug_ranges  0x0000000000000000       0x18 CMakeFiles/dfu_no_serial_nrf52840_xxAA_s140_6.0.0.dir/__/nrf_mesh_weak.c.obj
 .debug_line    0x0000000000000000      0x252 CMakeFiles/dfu_no_serial_nrf52840_xxAA_s140_6.0.0.dir/__/nrf_mesh_weak.c.obj
 .debug_str     0x0000000000000000      0x67c CMakeFiles/dfu_no_serial_nrf52840_xxAA_s140_6.0.0.dir/__/nrf_mesh_weak.c.obj
 .comment       0x0000000000000000       0x7f CMakeFiles/dfu_no_serial_nrf52840_xxAA_s140_6.0.0.dir/__/nrf_mesh_weak.c.obj
 .debug_frame   0x0000000000000000       0x30 CMakeFiles/dfu_no_serial_nrf52840_xxAA_s140_6.0.0.dir/__/nrf_mesh_weak.c.obj
 .ARM.attributes
                0x0000000000000000       0x39 CMakeFiles/dfu_no_serial_nrf52840_xxAA_s140_6.0.0.dir/__/nrf_mesh_weak.c.obj
 .text          0x0000000000000000        0x0 CMakeFiles/dfu_no_serial_nrf52840_xxAA_s140_6.0.0.dir/__/common/src/app_error_weak.c.obj
 .data          0x0000000000000000        0x0 CMakeFiles/dfu_no_serial_nrf52840_xxAA_s140_6.0.0.dir/__/common/src/app_error_weak.c.obj
 .bss           0x0000000000000000        0x0 CMakeFiles/dfu_no_serial_nrf52840_xxAA_s140_6.0.0.dir/__/common/src/app_error_weak.c.obj
 .text          0x0000000000000000        0x0 CMakeFiles/dfu_no_serial_nrf52840_xxAA_s140_6.0.0.dir/__/common/src/assertion_handler_weak.c.obj
 .data          0x0000000000000000        0x0 CMakeFiles/dfu_no_serial_nrf52840_xxAA_s140_6.0.0.dir/__/common/src/assertion_handler_weak.c.obj
 .bss           0x0000000000000000        0x0 CMakeFiles/dfu_no_serial_nrf52840_xxAA_s140_6.0.0.dir/__/common/src/assertion_handler_weak.c.obj
 .text          0x0000000000000000        0x0 CMakeFiles/dfu_no_serial_nrf52840_xxAA_s140_6.0.0.dir/__/__/mesh/core/src/internal_event.c.obj
 .data          0x0000000000000000        0x0 CMakeFiles/dfu_no_serial_nrf52840_xxAA_s140_6.0.0.dir/__/__/mesh/core/src/internal_event.c.obj
 .bss           0x0000000000000000        0x0 CMakeFiles/dfu_no_serial_nrf52840_xxAA_s140_6.0.0.dir/__/__/mesh/core/src/internal_event.c.obj
 .debug_info    0x0000000000000000      0x8eb CMakeFiles/dfu_no_serial_nrf52840_xxAA_s140_6.0.0.dir/__/__/mesh/core/src/internal_event.c.obj
 .debug_abbrev  0x0000000000000000      0x192 CMakeFiles/dfu_no_serial_nrf52840_xxAA_s140_6.0.0.dir/__/__/mesh/core/src/internal_event.c.obj
 .debug_aranges
                0x0000000000000000       0x18 CMakeFiles/dfu_no_serial_nrf52840_xxAA_s140_6.0.0.dir/__/__/mesh/core/src/internal_event.c.obj
 .debug_line    0x0000000000000000      0x1dc CMakeFiles/dfu_no_serial_nrf52840_xxAA_s140_6.0.0.dir/__/__/mesh/core/src/internal_event.c.obj
 .debug_str     0x0000000000000000      0x662 CMakeFiles/dfu_no_serial_nrf52840_xxAA_s140_6.0.0.dir/__/__/mesh/core/src/internal_event.c.obj
 .comment       0x0000000000000000       0x7f CMakeFiles/dfu_no_serial_nrf52840_xxAA_s140_6.0.0.dir/__/__/mesh/core/src/internal_event.c.obj
 .ARM.attributes
                0x0000000000000000       0x39 CMakeFiles/dfu_no_serial_nrf52840_xxAA_s140_6.0.0.dir/__/__/mesh/core/src/internal_event.c.obj
 .text          0x0000000000000000        0x0 CMakeFiles/dfu_no_serial_nrf52840_xxAA_s140_6.0.0.dir/__/__/mesh/core/src/nrf_mesh_configure.c.obj
 .data          0x0000000000000000        0x0 CMakeFiles/dfu_no_serial_nrf52840_xxAA_s140_6.0.0.dir/__/__/mesh/core/src/nrf_mesh_configure.c.obj
 .bss           0x0000000000000000        0x0 CMakeFiles/dfu_no_serial_nrf52840_xxAA_s140_6.0.0.dir/__/__/mesh/core/src/nrf_mesh_configure.c.obj
 .text          0x0000000000000000        0x0 CMakeFiles/dfu_no_serial_nrf52840_xxAA_s140_6.0.0.dir/__/__/mesh/core/src/aes.c.obj
 .data          0x0000000000000000        0x0 CMakeFiles/dfu_no_serial_nrf52840_xxAA_s140_6.0.0.dir/__/__/mesh/core/src/aes.c.obj
 .bss           0x0000000000000000        0x0 CMakeFiles/dfu_no_serial_nrf52840_xxAA_s140_6.0.0.dir/__/__/mesh/core/src/aes.c.obj
 .text          0x0000000000000000        0x0 CMakeFiles/dfu_no_serial_nrf52840_xxAA_s140_6.0.0.dir/__/__/mesh/core/src/msg_cache.c.obj
 .data          0x0000000000000000        0x0 CMakeFiles/dfu_no_serial_nrf52840_xxAA_s140_6.0.0.dir/__/__/mesh/core/src/msg_cache.c.obj
 .bss           0x0000000000000000        0x0 CMakeFiles/dfu_no_serial_nrf52840_xxAA_s140_6.0.0.dir/__/__/mesh/core/src/msg_cache.c.obj
 .text.msg_cache_clear
                0x0000000000000000       0x18 CMakeFiles/dfu_no_serial_nrf52840_xxAA_s140_6.0.0.dir/__/__/mesh/core/src/msg_cache.c.obj
 .text          0x0000000000000000        0x0 CMakeFiles/dfu_no_serial_nrf52840_xxAA_s140_6.0.0.dir/__/__/mesh/core/src/transport.c.obj
 .data          0x0000000000000000        0x0 CMakeFiles/dfu_no_serial_nrf52840_xxAA_s140_6.0.0.dir/__/__/mesh/core/src/transport.c.obj
 .bss           0x0000000000000000        0x0 CMakeFiles/dfu_no_serial_nrf52840_xxAA_s140_6.0.0.dir/__/__/mesh/core/src/transport.c.obj
 .text.transport_sar_mem_funcs_set
                0x0000000000000000       0x64 CMakeFiles/dfu_no_serial_nrf52840_xxAA_s140_6.0.0.dir/__/__/mesh/core/src/transport.c.obj
 .text.transport_sar_mem_funcs_reset
                0x0000000000000000       0x30 CMakeFiles/dfu_no_serial_nrf52840_xxAA_s140_6.0.0.dir/__/__/mesh/core/src/transport.c.obj
 .text          0x0000000000000000        0x0 CMakeFiles/dfu_no_serial_nrf52840_xxAA_s140_6.0.0.dir/__/__/mesh/core/src/event.c.obj
 .data          0x0000000000000000        0x0 CMakeFiles/dfu_no_serial_nrf52840_xxAA_s140_6.0.0.dir/__/__/mesh/core/src/event.c.obj
 .bss           0x0000000000000000        0x0 CMakeFiles/dfu_no_serial_nrf52840_xxAA_s140_6.0.0.dir/__/__/mesh/core/src/event.c.obj
 .text          0x0000000000000000        0x0 CMakeFiles/dfu_no_serial_nrf52840_xxAA_s140_6.0.0.dir/__/__/mesh/core/src/packet_buffer.c.obj
 .data          0x0000000000000000        0x0 CMakeFiles/dfu_no_serial_nrf52840_xxAA_s140_6.0.0.dir/__/__/mesh/core/src/packet_buffer.c.obj
 .bss           0x0000000000000000        0x0 CMakeFiles/dfu_no_serial_nrf52840_xxAA_s140_6.0.0.dir/__/__/mesh/core/src/packet_buffer.c.obj
 .text.packet_buffer_max_packet_len_get
                0x0000000000000000       0x24 CMakeFiles/dfu_no_serial_nrf52840_xxAA_s140_6.0.0.dir/__/__/mesh/core/src/packet_buffer.c.obj
 .text          0x0000000000000000        0x0 CMakeFiles/dfu_no_serial_nrf52840_xxAA_s140_6.0.0.dir/__/__/mesh/core/src/flash_manager_defrag.c.obj
 .data          0x0000000000000000        0x0 CMakeFiles/dfu_no_serial_nrf52840_xxAA_s140_6.0.0.dir/__/__/mesh/core/src/flash_manager_defrag.c.obj
 .bss           0x0000000000000000        0x0 CMakeFiles/dfu_no_serial_nrf52840_xxAA_s140_6.0.0.dir/__/__/mesh/core/src/flash_manager_defrag.c.obj
 .text.flash_manager_defragging
                0x0000000000000000       0x44 CMakeFiles/dfu_no_serial_nrf52840_xxAA_s140_6.0.0.dir/__/__/mesh/core/src/flash_manager_defrag.c.obj
 .text          0x0000000000000000        0x0 CMakeFiles/dfu_no_serial_nrf52840_xxAA_s140_6.0.0.dir/__/__/mesh/core/src/fifo.c.obj
 .data          0x0000000000000000        0x0 CMakeFiles/dfu_no_serial_nrf52840_xxAA_s140_6.0.0.dir/__/__/mesh/core/src/fifo.c.obj
 .bss           0x0000000000000000        0x0 CMakeFiles/dfu_no_serial_nrf52840_xxAA_s140_6.0.0.dir/__/__/mesh/core/src/fifo.c.obj
 .text.fifo_peek_at
                0x0000000000000000       0x58 CMakeFiles/dfu_no_serial_nrf52840_xxAA_s140_6.0.0.dir/__/__/mesh/core/src/fifo.c.obj
 .text.fifo_peek
                0x0000000000000000       0x54 CMakeFiles/dfu_no_serial_nrf52840_xxAA_s140_6.0.0.dir/__/__/mesh/core/src/fifo.c.obj
 .text.fifo_flush
                0x0000000000000000        0x8 CMakeFiles/dfu_no_serial_nrf52840_xxAA_s140_6.0.0.dir/__/__/mesh/core/src/fifo.c.obj
 .text.fifo_get_len
                0x0000000000000000        0x8 CMakeFiles/dfu_no_serial_nrf52840_xxAA_s140_6.0.0.dir/__/__/mesh/core/src/fifo.c.obj
 .text.fifo_is_full
                0x0000000000000000       0x14 CMakeFiles/dfu_no_serial_nrf52840_xxAA_s140_6.0.0.dir/__/__/mesh/core/src/fifo.c.obj
 .text.fifo_is_empty
                0x0000000000000000       0x10 CMakeFiles/dfu_no_serial_nrf52840_xxAA_s140_6.0.0.dir/__/__/mesh/core/src/fifo.c.obj
 .text          0x0000000000000000        0x0 CMakeFiles/dfu_no_serial_nrf52840_xxAA_s140_6.0.0.dir/__/__/mesh/core/src/nrf_flash.c.obj
 .data          0x0000000000000000        0x0 CMakeFiles/dfu_no_serial_nrf52840_xxAA_s140_6.0.0.dir/__/__/mesh/core/src/nrf_flash.c.obj
 .bss           0x0000000000000000        0x0 CMakeFiles/dfu_no_serial_nrf52840_xxAA_s140_6.0.0.dir/__/__/mesh/core/src/nrf_flash.c.obj
 .text          0x0000000000000000        0x0 CMakeFiles/dfu_no_serial_nrf52840_xxAA_s140_6.0.0.dir/__/__/mesh/core/src/packet_mgr.c.obj
 .data          0x0000000000000000        0x0 CMakeFiles/dfu_no_serial_nrf52840_xxAA_s140_6.0.0.dir/__/__/mesh/core/src/packet_mgr.c.obj
 .bss           0x0000000000000000        0x0 CMakeFiles/dfu_no_serial_nrf52840_xxAA_s140_6.0.0.dir/__/__/mesh/core/src/packet_mgr.c.obj
 .text.packet_mgr_alloc
                0x0000000000000000      0x1a4 CMakeFiles/dfu_no_serial_nrf52840_xxAA_s140_6.0.0.dir/__/__/mesh/core/src/packet_mgr.c.obj
 .text.packet_mgr_free
                0x0000000000000000       0x5c CMakeFiles/dfu_no_serial_nrf52840_xxAA_s140_6.0.0.dir/__/__/mesh/core/src/packet_mgr.c.obj
 .text.packet_mgr_get_free_space
                0x0000000000000000       0x1c CMakeFiles/dfu_no_serial_nrf52840_xxAA_s140_6.0.0.dir/__/__/mesh/core/src/packet_mgr.c.obj
 .text.packet_mgr_refcount_get
                0x0000000000000000        0x8 CMakeFiles/dfu_no_serial_nrf52840_xxAA_s140_6.0.0.dir/__/__/mesh/core/src/packet_mgr.c.obj
 .text.packet_mgr_size_get
                0x0000000000000000        0x8 CMakeFiles/dfu_no_serial_nrf52840_xxAA_s140_6.0.0.dir/__/__/mesh/core/src/packet_mgr.c.obj
 .text          0x0000000000000000        0x0 CMakeFiles/dfu_no_serial_nrf52840_xxAA_s140_6.0.0.dir/__/__/mesh/core/src/net_state.c.obj
 .data          0x0000000000000000        0x0 CMakeFiles/dfu_no_serial_nrf52840_xxAA_s140_6.0.0.dir/__/__/mesh/core/src/net_state.c.obj
 .bss           0x0000000000000000        0x0 CMakeFiles/dfu_no_serial_nrf52840_xxAA_s140_6.0.0.dir/__/__/mesh/core/src/net_state.c.obj
 .text.net_state_iv_update_start
                0x0000000000000000       0x94 CMakeFiles/dfu_no_serial_nrf52840_xxAA_s140_6.0.0.dir/__/__/mesh/core/src/net_state.c.obj
 .text.net_state_iv_update_test_mode_set
                0x0000000000000000        0xc CMakeFiles/dfu_no_serial_nrf52840_xxAA_s140_6.0.0.dir/__/__/mesh/core/src/net_state.c.obj
 .text.net_state_test_mode_transition_run
                0x0000000000000000      0x170 CMakeFiles/dfu_no_serial_nrf52840_xxAA_s140_6.0.0.dir/__/__/mesh/core/src/net_state.c.obj
 .text          0x0000000000000000        0x0 CMakeFiles/dfu_no_serial_nrf52840_xxAA_s140_6.0.0.dir/__/__/mesh/core/src/mesh_flash.c.obj
 .data          0x0000000000000000        0x0 CMakeFiles/dfu_no_serial_nrf52840_xxAA_s140_6.0.0.dir/__/__/mesh/core/src/mesh_flash.c.obj
 .bss           0x0000000000000000        0x0 CMakeFiles/dfu_no_serial_nrf52840_xxAA_s140_6.0.0.dir/__/__/mesh/core/src/mesh_flash.c.obj
 .text.mesh_flash_op_available_slots
                0x0000000000000000       0x2c CMakeFiles/dfu_no_serial_nrf52840_xxAA_s140_6.0.0.dir/__/__/mesh/core/src/mesh_flash.c.obj
 .text          0x0000000000000000        0x0 CMakeFiles/dfu_no_serial_nrf52840_xxAA_s140_6.0.0.dir/__/__/mesh/core/src/nrf_mesh_utils.c.obj
 .data          0x0000000000000000        0x0 CMakeFiles/dfu_no_serial_nrf52840_xxAA_s140_6.0.0.dir/__/__/mesh/core/src/nrf_mesh_utils.c.obj
 .bss           0x0000000000000000        0x0 CMakeFiles/dfu_no_serial_nrf52840_xxAA_s140_6.0.0.dir/__/__/mesh/core/src/nrf_mesh_utils.c.obj
 .text.nrf_mesh_rand_get
                0x0000000000000000       0x10 CMakeFiles/dfu_no_serial_nrf52840_xxAA_s140_6.0.0.dir/__/__/mesh/core/src/nrf_mesh_utils.c.obj
 .text.nrf_mesh_gap_address_type_get
                0x0000000000000000       0x34 CMakeFiles/dfu_no_serial_nrf52840_xxAA_s140_6.0.0.dir/__/__/mesh/core/src/nrf_mesh_utils.c.obj
 .text          0x0000000000000000        0x0 CMakeFiles/dfu_no_serial_nrf52840_xxAA_s140_6.0.0.dir/__/__/mesh/core/src/nrf_mesh.c.obj
 .data          0x0000000000000000        0x0 CMakeFiles/dfu_no_serial_nrf52840_xxAA_s140_6.0.0.dir/__/__/mesh/core/src/nrf_mesh.c.obj
 .bss           0x0000000000000000        0x0 CMakeFiles/dfu_no_serial_nrf52840_xxAA_s140_6.0.0.dir/__/__/mesh/core/src/nrf_mesh.c.obj
 .text.nrf_mesh_disable
                0x0000000000000000       0x30 CMakeFiles/dfu_no_serial_nrf52840_xxAA_s140_6.0.0.dir/__/__/mesh/core/src/nrf_mesh.c.obj
 .text.nrf_mesh_process
                0x0000000000000000        0x4 CMakeFiles/dfu_no_serial_nrf52840_xxAA_s140_6.0.0.dir/__/__/mesh/core/src/nrf_mesh.c.obj
 .text.nrf_mesh_evt_handler_remove
                0x0000000000000000        0x4 CMakeFiles/dfu_no_serial_nrf52840_xxAA_s140_6.0.0.dir/__/__/mesh/core/src/nrf_mesh.c.obj
 .text.nrf_mesh_rx_cb_set
                0x0000000000000000        0xc CMakeFiles/dfu_no_serial_nrf52840_xxAA_s140_6.0.0.dir/__/__/mesh/core/src/nrf_mesh.c.obj
 .text.nrf_mesh_rx_cb_clear
                0x0000000000000000        0xc CMakeFiles/dfu_no_serial_nrf52840_xxAA_s140_6.0.0.dir/__/__/mesh/core/src/nrf_mesh.c.obj
 .text          0x0000000000000000        0x0 CMakeFiles/dfu_no_serial_nrf52840_xxAA_s140_6.0.0.dir/__/__/mesh/core/src/queue.c.obj
 .data          0x0000000000000000        0x0 CMakeFiles/dfu_no_serial_nrf52840_xxAA_s140_6.0.0.dir/__/__/mesh/core/src/queue.c.obj
 .bss           0x0000000000000000        0x0 CMakeFiles/dfu_no_serial_nrf52840_xxAA_s140_6.0.0.dir/__/__/mesh/core/src/queue.c.obj
 .text          0x0000000000000000        0x0 CMakeFiles/dfu_no_serial_nrf52840_xxAA_s140_6.0.0.dir/__/__/mesh/core/src/hal.c.obj
 .data          0x0000000000000000        0x0 CMakeFiles/dfu_no_serial_nrf52840_xxAA_s140_6.0.0.dir/__/__/mesh/core/src/hal.c.obj
 .bss           0x0000000000000000        0x0 CMakeFiles/dfu_no_serial_nrf52840_xxAA_s140_6.0.0.dir/__/__/mesh/core/src/hal.c.obj
 .text          0x0000000000000000        0x0 CMakeFiles/dfu_no_serial_nrf52840_xxAA_s140_6.0.0.dir/__/__/mesh/core/src/aes_cmac.c.obj
 .data          0x0000000000000000        0x0 CMakeFiles/dfu_no_serial_nrf52840_xxAA_s140_6.0.0.dir/__/__/mesh/core/src/aes_cmac.c.obj
 .bss           0x0000000000000000        0x0 CMakeFiles/dfu_no_serial_nrf52840_xxAA_s140_6.0.0.dir/__/__/mesh/core/src/aes_cmac.c.obj
 .text          0x0000000000000000        0x0 CMakeFiles/dfu_no_serial_nrf52840_xxAA_s140_6.0.0.dir/__/__/mesh/core/src/timer_scheduler.c.obj
 .data          0x0000000000000000        0x0 CMakeFiles/dfu_no_serial_nrf52840_xxAA_s140_6.0.0.dir/__/__/mesh/core/src/timer_scheduler.c.obj
 .bss           0x0000000000000000        0x0 CMakeFiles/dfu_no_serial_nrf52840_xxAA_s140_6.0.0.dir/__/__/mesh/core/src/timer_scheduler.c.obj
 .text          0x0000000000000000        0x0 CMakeFiles/dfu_no_serial_nrf52840_xxAA_s140_6.0.0.dir/__/__/mesh/core/src/timer.c.obj
 .data          0x0000000000000000        0x0 CMakeFiles/dfu_no_serial_nrf52840_xxAA_s140_6.0.0.dir/__/__/mesh/core/src/timer.c.obj
 .bss           0x0000000000000000        0x0 CMakeFiles/dfu_no_serial_nrf52840_xxAA_s140_6.0.0.dir/__/__/mesh/core/src/timer.c.obj
 .text.timer_order_cb_ppi
                0x0000000000000000       0xd8 CMakeFiles/dfu_no_serial_nrf52840_xxAA_s140_6.0.0.dir/__/__/mesh/core/src/timer.c.obj
 .text.timer_order_ppi
                0x0000000000000000       0xcc CMakeFiles/dfu_no_serial_nrf52840_xxAA_s140_6.0.0.dir/__/__/mesh/core/src/timer.c.obj
 .text.timer_abort
                0x0000000000000000       0x84 CMakeFiles/dfu_no_serial_nrf52840_xxAA_s140_6.0.0.dir/__/__/mesh/core/src/timer.c.obj
 .text          0x0000000000000000        0x0 CMakeFiles/dfu_no_serial_nrf52840_xxAA_s140_6.0.0.dir/__/__/mesh/core/src/ticker.c.obj
 .data          0x0000000000000000        0x0 CMakeFiles/dfu_no_serial_nrf52840_xxAA_s140_6.0.0.dir/__/__/mesh/core/src/ticker.c.obj
 .bss           0x0000000000000000        0x0 CMakeFiles/dfu_no_serial_nrf52840_xxAA_s140_6.0.0.dir/__/__/mesh/core/src/ticker.c.obj
 .text.ticker_get
                0x0000000000000000        0xc CMakeFiles/dfu_no_serial_nrf52840_xxAA_s140_6.0.0.dir/__/__/mesh/core/src/ticker.c.obj
 .text          0x0000000000000000        0x0 CMakeFiles/dfu_no_serial_nrf52840_xxAA_s140_6.0.0.dir/__/__/mesh/core/src/rand.c.obj
 .data          0x0000000000000000        0x0 CMakeFiles/dfu_no_serial_nrf52840_xxAA_s140_6.0.0.dir/__/__/mesh/core/src/rand.c.obj
 .bss           0x0000000000000000        0x0 CMakeFiles/dfu_no_serial_nrf52840_xxAA_s140_6.0.0.dir/__/__/mesh/core/src/rand.c.obj
 .text          0x0000000000000000        0x0 CMakeFiles/dfu_no_serial_nrf52840_xxAA_s140_6.0.0.dir/__/__/mesh/core/src/nrf_mesh_opt.c.obj
 .data          0x0000000000000000        0x0 CMakeFiles/dfu_no_serial_nrf52840_xxAA_s140_6.0.0.dir/__/__/mesh/core/src/nrf_mesh_opt.c.obj
 .bss           0x0000000000000000        0x0 CMakeFiles/dfu_no_serial_nrf52840_xxAA_s140_6.0.0.dir/__/__/mesh/core/src/nrf_mesh_opt.c.obj
 .text          0x0000000000000000        0x0 CMakeFiles/dfu_no_serial_nrf52840_xxAA_s140_6.0.0.dir/__/__/mesh/core/src/timeslot.c.obj
 .data          0x0000000000000000        0x0 CMakeFiles/dfu_no_serial_nrf52840_xxAA_s140_6.0.0.dir/__/__/mesh/core/src/timeslot.c.obj
 .bss           0x0000000000000000        0x0 CMakeFiles/dfu_no_serial_nrf52840_xxAA_s140_6.0.0.dir/__/__/mesh/core/src/timeslot.c.obj
 .text.timeslot_restart
                0x0000000000000000       0x30 CMakeFiles/dfu_no_serial_nrf52840_xxAA_s140_6.0.0.dir/__/__/mesh/core/src/timeslot.c.obj
 .text.timeslot_end_time_get
                0x0000000000000000       0x30 CMakeFiles/dfu_no_serial_nrf52840_xxAA_s140_6.0.0.dir/__/__/mesh/core/src/timeslot.c.obj
 .text.timeslot_is_in_ts
                0x0000000000000000        0xc CMakeFiles/dfu_no_serial_nrf52840_xxAA_s140_6.0.0.dir/__/__/mesh/core/src/timeslot.c.obj
 .text          0x0000000000000000        0x0 CMakeFiles/dfu_no_serial_nrf52840_xxAA_s140_6.0.0.dir/__/__/mesh/core/src/bearer_event.c.obj
 .data          0x0000000000000000        0x0 CMakeFiles/dfu_no_serial_nrf52840_xxAA_s140_6.0.0.dir/__/__/mesh/core/src/bearer_event.c.obj
 .bss           0x0000000000000000        0x0 CMakeFiles/dfu_no_serial_nrf52840_xxAA_s140_6.0.0.dir/__/__/mesh/core/src/bearer_event.c.obj
 .text.bearer_event_generic_post
                0x0000000000000000       0x50 CMakeFiles/dfu_no_serial_nrf52840_xxAA_s140_6.0.0.dir/__/__/mesh/core/src/bearer_event.c.obj
 .text.bearer_event_timer_sch_post
                0x0000000000000000       0x54 CMakeFiles/dfu_no_serial_nrf52840_xxAA_s140_6.0.0.dir/__/__/mesh/core/src/bearer_event.c.obj
 .text.bearer_event_in_correct_irq_priority
                0x0000000000000000       0x58 CMakeFiles/dfu_no_serial_nrf52840_xxAA_s140_6.0.0.dir/__/__/mesh/core/src/bearer_event.c.obj
 .text          0x0000000000000000        0x0 CMakeFiles/dfu_no_serial_nrf52840_xxAA_s140_6.0.0.dir/__/__/mesh/core/src/enc.c.obj
 .data          0x0000000000000000        0x0 CMakeFiles/dfu_no_serial_nrf52840_xxAA_s140_6.0.0.dir/__/__/mesh/core/src/enc.c.obj
 .bss           0x0000000000000000        0x0 CMakeFiles/dfu_no_serial_nrf52840_xxAA_s140_6.0.0.dir/__/__/mesh/core/src/enc.c.obj
 .text.enc_key_generate
                0x0000000000000000        0x8 CMakeFiles/dfu_no_serial_nrf52840_xxAA_s140_6.0.0.dir/__/__/mesh/core/src/enc.c.obj
 .text          0x0000000000000000        0x0 CMakeFiles/dfu_no_serial_nrf52840_xxAA_s140_6.0.0.dir/__/__/mesh/core/src/network.c.obj
 .data          0x0000000000000000        0x0 CMakeFiles/dfu_no_serial_nrf52840_xxAA_s140_6.0.0.dir/__/__/mesh/core/src/network.c.obj
 .bss           0x0000000000000000        0x0 CMakeFiles/dfu_no_serial_nrf52840_xxAA_s140_6.0.0.dir/__/__/mesh/core/src/network.c.obj
 .text.network_packet_discard
                0x0000000000000000       0x28 CMakeFiles/dfu_no_serial_nrf52840_xxAA_s140_6.0.0.dir/__/__/mesh/core/src/network.c.obj
 .text          0x0000000000000000        0x0 CMakeFiles/dfu_no_serial_nrf52840_xxAA_s140_6.0.0.dir/__/__/mesh/core/src/net_packet.c.obj
 .data          0x0000000000000000        0x0 CMakeFiles/dfu_no_serial_nrf52840_xxAA_s140_6.0.0.dir/__/__/mesh/core/src/net_packet.c.obj
 .bss           0x0000000000000000        0x0 CMakeFiles/dfu_no_serial_nrf52840_xxAA_s140_6.0.0.dir/__/__/mesh/core/src/net_packet.c.obj
 .text.net_packet_enc_start_get
                0x0000000000000000        0x4 CMakeFiles/dfu_no_serial_nrf52840_xxAA_s140_6.0.0.dir/__/__/mesh/core/src/net_packet.c.obj
 .text.net_packet_payload_get
                0x0000000000000000        0x4 CMakeFiles/dfu_no_serial_nrf52840_xxAA_s140_6.0.0.dir/__/__/mesh/core/src/net_packet.c.obj
 .text          0x0000000000000000        0x0 CMakeFiles/dfu_no_serial_nrf52840_xxAA_s140_6.0.0.dir/__/__/mesh/core/src/msqueue.c.obj
 .data          0x0000000000000000        0x0 CMakeFiles/dfu_no_serial_nrf52840_xxAA_s140_6.0.0.dir/__/__/mesh/core/src/msqueue.c.obj
 .bss           0x0000000000000000        0x0 CMakeFiles/dfu_no_serial_nrf52840_xxAA_s140_6.0.0.dir/__/__/mesh/core/src/msqueue.c.obj
 .text.msq_reset
                0x0000000000000000       0x24 CMakeFiles/dfu_no_serial_nrf52840_xxAA_s140_6.0.0.dir/__/__/mesh/core/src/msqueue.c.obj
 .text          0x0000000000000000        0x0 CMakeFiles/dfu_no_serial_nrf52840_xxAA_s140_6.0.0.dir/__/__/mesh/core/src/nrf_mesh_keygen.c.obj
 .data          0x0000000000000000        0x0 CMakeFiles/dfu_no_serial_nrf52840_xxAA_s140_6.0.0.dir/__/__/mesh/core/src/nrf_mesh_keygen.c.obj
 .bss           0x0000000000000000        0x0 CMakeFiles/dfu_no_serial_nrf52840_xxAA_s140_6.0.0.dir/__/__/mesh/core/src/nrf_mesh_keygen.c.obj
 .text.nrf_mesh_keygen_identitykey
                0x0000000000000000       0x4c CMakeFiles/dfu_no_serial_nrf52840_xxAA_s140_6.0.0.dir/__/__/mesh/core/src/nrf_mesh_keygen.c.obj
 .text          0x0000000000000000        0x0 CMakeFiles/dfu_no_serial_nrf52840_xxAA_s140_6.0.0.dir/__/__/mesh/core/src/cache.c.obj
 .data          0x0000000000000000        0x0 CMakeFiles/dfu_no_serial_nrf52840_xxAA_s140_6.0.0.dir/__/__/mesh/core/src/cache.c.obj
 .bss           0x0000000000000000        0x0 CMakeFiles/dfu_no_serial_nrf52840_xxAA_s140_6.0.0.dir/__/__/mesh/core/src/cache.c.obj
 .text.cache_init
                0x0000000000000000       0x40 CMakeFiles/dfu_no_serial_nrf52840_xxAA_s140_6.0.0.dir/__/__/mesh/core/src/cache.c.obj
 .text.cache_has_elem
                0x0000000000000000       0x54 CMakeFiles/dfu_no_serial_nrf52840_xxAA_s140_6.0.0.dir/__/__/mesh/core/src/cache.c.obj
 .text.cache_put
                0x0000000000000000       0x2c CMakeFiles/dfu_no_serial_nrf52840_xxAA_s140_6.0.0.dir/__/__/mesh/core/src/cache.c.obj
 .text.cache_erase_elem
                0x0000000000000000       0x6c CMakeFiles/dfu_no_serial_nrf52840_xxAA_s140_6.0.0.dir/__/__/mesh/core/src/cache.c.obj
 .debug_info    0x0000000000000000      0xbf9 CMakeFiles/dfu_no_serial_nrf52840_xxAA_s140_6.0.0.dir/__/__/mesh/core/src/cache.c.obj
 .debug_abbrev  0x0000000000000000      0x2e2 CMakeFiles/dfu_no_serial_nrf52840_xxAA_s140_6.0.0.dir/__/__/mesh/core/src/cache.c.obj
 .debug_loc     0x0000000000000000      0x3dc CMakeFiles/dfu_no_serial_nrf52840_xxAA_s140_6.0.0.dir/__/__/mesh/core/src/cache.c.obj
 .debug_aranges
                0x0000000000000000       0x38 CMakeFiles/dfu_no_serial_nrf52840_xxAA_s140_6.0.0.dir/__/__/mesh/core/src/cache.c.obj
 .debug_ranges  0x0000000000000000       0xb0 CMakeFiles/dfu_no_serial_nrf52840_xxAA_s140_6.0.0.dir/__/__/mesh/core/src/cache.c.obj
 .debug_line    0x0000000000000000      0x255 CMakeFiles/dfu_no_serial_nrf52840_xxAA_s140_6.0.0.dir/__/__/mesh/core/src/cache.c.obj
 .debug_str     0x0000000000000000      0x70f CMakeFiles/dfu_no_serial_nrf52840_xxAA_s140_6.0.0.dir/__/__/mesh/core/src/cache.c.obj
 .comment       0x0000000000000000       0x7f CMakeFiles/dfu_no_serial_nrf52840_xxAA_s140_6.0.0.dir/__/__/mesh/core/src/cache.c.obj
 .debug_frame   0x0000000000000000       0x90 CMakeFiles/dfu_no_serial_nrf52840_xxAA_s140_6.0.0.dir/__/__/mesh/core/src/cache.c.obj
 .ARM.attributes
                0x0000000000000000       0x39 CMakeFiles/dfu_no_serial_nrf52840_xxAA_s140_6.0.0.dir/__/__/mesh/core/src/cache.c.obj
 .text          0x0000000000000000        0x0 CMakeFiles/dfu_no_serial_nrf52840_xxAA_s140_6.0.0.dir/__/__/mesh/core/src/uri.c.obj
 .data          0x0000000000000000        0x0 CMakeFiles/dfu_no_serial_nrf52840_xxAA_s140_6.0.0.dir/__/__/mesh/core/src/uri.c.obj
 .bss           0x0000000000000000        0x0 CMakeFiles/dfu_no_serial_nrf52840_xxAA_s140_6.0.0.dir/__/__/mesh/core/src/uri.c.obj
 .text.uri_data_generate
                0x0000000000000000       0x88 CMakeFiles/dfu_no_serial_nrf52840_xxAA_s140_6.0.0.dir/__/__/mesh/core/src/uri.c.obj
 .text.uri_data_parse
                0x0000000000000000       0x84 CMakeFiles/dfu_no_serial_nrf52840_xxAA_s140_6.0.0.dir/__/__/mesh/core/src/uri.c.obj
 .text.uri_scheme_name_code_point
                0x0000000000000000       0x5c CMakeFiles/dfu_no_serial_nrf52840_xxAA_s140_6.0.0.dir/__/__/mesh/core/src/uri.c.obj
 .text.uri_scheme_name_string
                0x0000000000000000       0x14 CMakeFiles/dfu_no_serial_nrf52840_xxAA_s140_6.0.0.dir/__/__/mesh/core/src/uri.c.obj
 .rodata.m_code_point_strings
                0x0000000000000000      0x2ec CMakeFiles/dfu_no_serial_nrf52840_xxAA_s140_6.0.0.dir/__/__/mesh/core/src/uri.c.obj
 .rodata.str1.4
                0x0000000000000000      0x6ba CMakeFiles/dfu_no_serial_nrf52840_xxAA_s140_6.0.0.dir/__/__/mesh/core/src/uri.c.obj
 .debug_info    0x0000000000000000      0xd55 CMakeFiles/dfu_no_serial_nrf52840_xxAA_s140_6.0.0.dir/__/__/mesh/core/src/uri.c.obj
 .debug_abbrev  0x0000000000000000      0x331 CMakeFiles/dfu_no_serial_nrf52840_xxAA_s140_6.0.0.dir/__/__/mesh/core/src/uri.c.obj
 .debug_loc     0x0000000000000000      0x38d CMakeFiles/dfu_no_serial_nrf52840_xxAA_s140_6.0.0.dir/__/__/mesh/core/src/uri.c.obj
 .debug_aranges
                0x0000000000000000       0x38 CMakeFiles/dfu_no_serial_nrf52840_xxAA_s140_6.0.0.dir/__/__/mesh/core/src/uri.c.obj
 .debug_ranges  0x0000000000000000       0x58 CMakeFiles/dfu_no_serial_nrf52840_xxAA_s140_6.0.0.dir/__/__/mesh/core/src/uri.c.obj
 .debug_line    0x0000000000000000      0x322 CMakeFiles/dfu_no_serial_nrf52840_xxAA_s140_6.0.0.dir/__/__/mesh/core/src/uri.c.obj
 .debug_str     0x0000000000000000      0x73d CMakeFiles/dfu_no_serial_nrf52840_xxAA_s140_6.0.0.dir/__/__/mesh/core/src/uri.c.obj
 .comment       0x0000000000000000       0x7f CMakeFiles/dfu_no_serial_nrf52840_xxAA_s140_6.0.0.dir/__/__/mesh/core/src/uri.c.obj
 .debug_frame   0x0000000000000000       0x8c CMakeFiles/dfu_no_serial_nrf52840_xxAA_s140_6.0.0.dir/__/__/mesh/core/src/uri.c.obj
 .ARM.attributes
                0x0000000000000000       0x39 CMakeFiles/dfu_no_serial_nrf52840_xxAA_s140_6.0.0.dir/__/__/mesh/core/src/uri.c.obj
 .text          0x0000000000000000        0x0 CMakeFiles/dfu_no_serial_nrf52840_xxAA_s140_6.0.0.dir/__/__/mesh/core/src/list.c.obj
 .data          0x0000000000000000        0x0 CMakeFiles/dfu_no_serial_nrf52840_xxAA_s140_6.0.0.dir/__/__/mesh/core/src/list.c.obj
 .bss           0x0000000000000000        0x0 CMakeFiles/dfu_no_serial_nrf52840_xxAA_s140_6.0.0.dir/__/__/mesh/core/src/list.c.obj
 .text.list_size_get
                0x0000000000000000       0x14 CMakeFiles/dfu_no_serial_nrf52840_xxAA_s140_6.0.0.dir/__/__/mesh/core/src/list.c.obj
 .text.list_sorted_add
                0x0000000000000000       0x88 CMakeFiles/dfu_no_serial_nrf52840_xxAA_s140_6.0.0.dir/__/__/mesh/core/src/list.c.obj
 .text          0x0000000000000000        0x0 CMakeFiles/dfu_no_serial_nrf52840_xxAA_s140_6.0.0.dir/__/__/mesh/core/src/log.c.obj
 .data          0x0000000000000000        0x0 CMakeFiles/dfu_no_serial_nrf52840_xxAA_s140_6.0.0.dir/__/__/mesh/core/src/log.c.obj
 .bss           0x0000000000000000        0x0 CMakeFiles/dfu_no_serial_nrf52840_xxAA_s140_6.0.0.dir/__/__/mesh/core/src/log.c.obj
 .text.log_callback_logview
                0x0000000000000000       0x38 CMakeFiles/dfu_no_serial_nrf52840_xxAA_s140_6.0.0.dir/__/__/mesh/core/src/log.c.obj
 .text.log_set_callback
                0x0000000000000000        0xc CMakeFiles/dfu_no_serial_nrf52840_xxAA_s140_6.0.0.dir/__/__/mesh/core/src/log.c.obj
 .text.log_vprintf
                0x0000000000000000       0x1c CMakeFiles/dfu_no_serial_nrf52840_xxAA_s140_6.0.0.dir/__/__/mesh/core/src/log.c.obj
 .rodata.log_callback_logview.str1.4
                0x0000000000000000       0x12 CMakeFiles/dfu_no_serial_nrf52840_xxAA_s140_6.0.0.dir/__/__/mesh/core/src/log.c.obj
 .text          0x0000000000000000        0x0 CMakeFiles/dfu_no_serial_nrf52840_xxAA_s140_6.0.0.dir/__/__/mesh/core/src/flash_manager.c.obj
 .data          0x0000000000000000        0x0 CMakeFiles/dfu_no_serial_nrf52840_xxAA_s140_6.0.0.dir/__/__/mesh/core/src/flash_manager.c.obj
 .bss           0x0000000000000000        0x0 CMakeFiles/dfu_no_serial_nrf52840_xxAA_s140_6.0.0.dir/__/__/mesh/core/src/flash_manager.c.obj
 .text.flash_manager_entry_count_get
                0x0000000000000000       0xfc CMakeFiles/dfu_no_serial_nrf52840_xxAA_s140_6.0.0.dir/__/__/mesh/core/src/flash_manager.c.obj
 .text.flash_manager_entry_release
                0x0000000000000000       0x74 CMakeFiles/dfu_no_serial_nrf52840_xxAA_s140_6.0.0.dir/__/__/mesh/core/src/flash_manager.c.obj
 .text          0x0000000000000000        0x0 CMakeFiles/dfu_no_serial_nrf52840_xxAA_s140_6.0.0.dir/__/__/mesh/core/src/ccm_soft.c.obj
 .data          0x0000000000000000        0x0 CMakeFiles/dfu_no_serial_nrf52840_xxAA_s140_6.0.0.dir/__/__/mesh/core/src/ccm_soft.c.obj
 .bss           0x0000000000000000        0x0 CMakeFiles/dfu_no_serial_nrf52840_xxAA_s140_6.0.0.dir/__/__/mesh/core/src/ccm_soft.c.obj
 .text          0x0000000000000000        0x0 CMakeFiles/dfu_no_serial_nrf52840_xxAA_s140_6.0.0.dir/__/__/mesh/core/src/toolchain.c.obj
 .data          0x0000000000000000        0x0 CMakeFiles/dfu_no_serial_nrf52840_xxAA_s140_6.0.0.dir/__/__/mesh/core/src/toolchain.c.obj
 .bss           0x0000000000000000        0x0 CMakeFiles/dfu_no_serial_nrf52840_xxAA_s140_6.0.0.dir/__/__/mesh/core/src/toolchain.c.obj
 .debug_info    0x0000000000000000       0xac CMakeFiles/dfu_no_serial_nrf52840_xxAA_s140_6.0.0.dir/__/__/mesh/core/src/toolchain.c.obj
 .debug_abbrev  0x0000000000000000       0x5c CMakeFiles/dfu_no_serial_nrf52840_xxAA_s140_6.0.0.dir/__/__/mesh/core/src/toolchain.c.obj
 .debug_aranges
                0x0000000000000000       0x18 CMakeFiles/dfu_no_serial_nrf52840_xxAA_s140_6.0.0.dir/__/__/mesh/core/src/toolchain.c.obj
 .debug_line    0x0000000000000000      0x131 CMakeFiles/dfu_no_serial_nrf52840_xxAA_s140_6.0.0.dir/__/__/mesh/core/src/toolchain.c.obj
 .debug_str     0x0000000000000000      0x25a CMakeFiles/dfu_no_serial_nrf52840_xxAA_s140_6.0.0.dir/__/__/mesh/core/src/toolchain.c.obj
 .comment       0x0000000000000000       0x7f CMakeFiles/dfu_no_serial_nrf52840_xxAA_s140_6.0.0.dir/__/__/mesh/core/src/toolchain.c.obj
 .ARM.attributes
                0x0000000000000000       0x39 CMakeFiles/dfu_no_serial_nrf52840_xxAA_s140_6.0.0.dir/__/__/mesh/core/src/toolchain.c.obj
 .text          0x0000000000000000        0x0 CMakeFiles/dfu_no_serial_nrf52840_xxAA_s140_6.0.0.dir/__/__/mesh/core/src/replay_cache.c.obj
 .data          0x0000000000000000        0x0 CMakeFiles/dfu_no_serial_nrf52840_xxAA_s140_6.0.0.dir/__/__/mesh/core/src/replay_cache.c.obj
 .bss           0x0000000000000000        0x0 CMakeFiles/dfu_no_serial_nrf52840_xxAA_s140_6.0.0.dir/__/__/mesh/core/src/replay_cache.c.obj
 .text.replay_cache_on_iv_update
                0x0000000000000000       0x2c CMakeFiles/dfu_no_serial_nrf52840_xxAA_s140_6.0.0.dir/__/__/mesh/core/src/replay_cache.c.obj
 .text.replay_cache_clear
                0x0000000000000000       0x20 CMakeFiles/dfu_no_serial_nrf52840_xxAA_s140_6.0.0.dir/__/__/mesh/core/src/replay_cache.c.obj
 .text          0x0000000000000000        0x0 CMakeFiles/dfu_no_serial_nrf52840_xxAA_s140_6.0.0.dir/__/__/mesh/core/src/beacon.c.obj
 .data          0x0000000000000000        0x0 CMakeFiles/dfu_no_serial_nrf52840_xxAA_s140_6.0.0.dir/__/__/mesh/core/src/beacon.c.obj
 .bss           0x0000000000000000        0x0 CMakeFiles/dfu_no_serial_nrf52840_xxAA_s140_6.0.0.dir/__/__/mesh/core/src/beacon.c.obj
 .text          0x0000000000000000        0x0 CMakeFiles/dfu_no_serial_nrf52840_xxAA_s140_6.0.0.dir/__/__/mesh/core/src/flash_manager_internal.c.obj
 .data          0x0000000000000000        0x0 CMakeFiles/dfu_no_serial_nrf52840_xxAA_s140_6.0.0.dir/__/__/mesh/core/src/flash_manager_internal.c.obj
 .bss           0x0000000000000000        0x0 CMakeFiles/dfu_no_serial_nrf52840_xxAA_s140_6.0.0.dir/__/__/mesh/core/src/flash_manager_internal.c.obj
 .text          0x0000000000000000        0x0 CMakeFiles/dfu_no_serial_nrf52840_xxAA_s140_6.0.0.dir/__/__/mesh/core/src/core_tx.c.obj
 .data          0x0000000000000000        0x0 CMakeFiles/dfu_no_serial_nrf52840_xxAA_s140_6.0.0.dir/__/__/mesh/core/src/core_tx.c.obj
 .bss           0x0000000000000000        0x0 CMakeFiles/dfu_no_serial_nrf52840_xxAA_s140_6.0.0.dir/__/__/mesh/core/src/core_tx.c.obj
 .text.core_tx_bearer_type_get
                0x0000000000000000       0x2c CMakeFiles/dfu_no_serial_nrf52840_xxAA_s140_6.0.0.dir/__/__/mesh/core/src/core_tx.c.obj
 .text.core_tx_bearer_count_get
                0x0000000000000000        0xc CMakeFiles/dfu_no_serial_nrf52840_xxAA_s140_6.0.0.dir/__/__/mesh/core/src/core_tx.c.obj
 .text          0x0000000000000000        0x0 CMakeFiles/dfu_no_serial_nrf52840_xxAA_s140_6.0.0.dir/__/__/mesh/core/src/heartbeat.c.obj
 .data          0x0000000000000000        0x0 CMakeFiles/dfu_no_serial_nrf52840_xxAA_s140_6.0.0.dir/__/__/mesh/core/src/heartbeat.c.obj
 .bss           0x0000000000000000        0x0 CMakeFiles/dfu_no_serial_nrf52840_xxAA_s140_6.0.0.dir/__/__/mesh/core/src/heartbeat.c.obj
 .text          0x0000000000000000        0x0 CMakeFiles/dfu_no_serial_nrf52840_xxAA_s140_6.0.0.dir/__/__/mesh/core/src/net_beacon.c.obj
 .data          0x0000000000000000        0x0 CMakeFiles/dfu_no_serial_nrf52840_xxAA_s140_6.0.0.dir/__/__/mesh/core/src/net_beacon.c.obj
 .bss           0x0000000000000000        0x0 CMakeFiles/dfu_no_serial_nrf52840_xxAA_s140_6.0.0.dir/__/__/mesh/core/src/net_beacon.c.obj
 .text.net_beacon_build
                0x0000000000000000       0x68 CMakeFiles/dfu_no_serial_nrf52840_xxAA_s140_6.0.0.dir/__/__/mesh/core/src/net_beacon.c.obj
 .text          0x0000000000000000        0x0 CMakeFiles/dfu_no_serial_nrf52840_xxAA_s140_6.0.0.dir/__/__/mesh/core/src/fsm.c.obj
 .data          0x0000000000000000        0x0 CMakeFiles/dfu_no_serial_nrf52840_xxAA_s140_6.0.0.dir/__/__/mesh/core/src/fsm.c.obj
 .bss           0x0000000000000000        0x0 CMakeFiles/dfu_no_serial_nrf52840_xxAA_s140_6.0.0.dir/__/__/mesh/core/src/fsm.c.obj
 .text.fsm_event_post_try
                0x0000000000000000      0x24c CMakeFiles/dfu_no_serial_nrf52840_xxAA_s140_6.0.0.dir/__/__/mesh/core/src/fsm.c.obj
 .text.fsm_init
                0x0000000000000000      0x100 CMakeFiles/dfu_no_serial_nrf52840_xxAA_s140_6.0.0.dir/__/__/mesh/core/src/fsm.c.obj
 .text.fsm_event_post
                0x0000000000000000       0xbc CMakeFiles/dfu_no_serial_nrf52840_xxAA_s140_6.0.0.dir/__/__/mesh/core/src/fsm.c.obj
 .text.fsm_is_processing
                0x0000000000000000        0xc CMakeFiles/dfu_no_serial_nrf52840_xxAA_s140_6.0.0.dir/__/__/mesh/core/src/fsm.c.obj
 .rodata.fsm_event_post.str1.4
                0x0000000000000000        0xb CMakeFiles/dfu_no_serial_nrf52840_xxAA_s140_6.0.0.dir/__/__/mesh/core/src/fsm.c.obj
 .rodata.fsm_event_post_try.str1.4
                0x0000000000000000       0x7c CMakeFiles/dfu_no_serial_nrf52840_xxAA_s140_6.0.0.dir/__/__/mesh/core/src/fsm.c.obj
 .rodata.fsm_init.str1.4
                0x0000000000000000        0xa CMakeFiles/dfu_no_serial_nrf52840_xxAA_s140_6.0.0.dir/__/__/mesh/core/src/fsm.c.obj
 .debug_info    0x0000000000000000     0x13e3 CMakeFiles/dfu_no_serial_nrf52840_xxAA_s140_6.0.0.dir/__/__/mesh/core/src/fsm.c.obj
 .debug_abbrev  0x0000000000000000      0x35d CMakeFiles/dfu_no_serial_nrf52840_xxAA_s140_6.0.0.dir/__/__/mesh/core/src/fsm.c.obj
 .debug_loc     0x0000000000000000      0x4f3 CMakeFiles/dfu_no_serial_nrf52840_xxAA_s140_6.0.0.dir/__/__/mesh/core/src/fsm.c.obj
 .debug_aranges
                0x0000000000000000       0x38 CMakeFiles/dfu_no_serial_nrf52840_xxAA_s140_6.0.0.dir/__/__/mesh/core/src/fsm.c.obj
 .debug_ranges  0x0000000000000000       0xd8 CMakeFiles/dfu_no_serial_nrf52840_xxAA_s140_6.0.0.dir/__/__/mesh/core/src/fsm.c.obj
 .debug_line    0x0000000000000000      0x48d CMakeFiles/dfu_no_serial_nrf52840_xxAA_s140_6.0.0.dir/__/__/mesh/core/src/fsm.c.obj
 .debug_str     0x0000000000000000      0x9e4 CMakeFiles/dfu_no_serial_nrf52840_xxAA_s140_6.0.0.dir/__/__/mesh/core/src/fsm.c.obj
 .comment       0x0000000000000000       0x7f CMakeFiles/dfu_no_serial_nrf52840_xxAA_s140_6.0.0.dir/__/__/mesh/core/src/fsm.c.obj
 .debug_frame   0x0000000000000000       0xb0 CMakeFiles/dfu_no_serial_nrf52840_xxAA_s140_6.0.0.dir/__/__/mesh/core/src/fsm.c.obj
 .ARM.attributes
                0x0000000000000000       0x39 CMakeFiles/dfu_no_serial_nrf52840_xxAA_s140_6.0.0.dir/__/__/mesh/core/src/fsm.c.obj
 .text          0x0000000000000000        0x0 CMakeFiles/dfu_no_serial_nrf52840_xxAA_s140_6.0.0.dir/__/__/mesh/core/src/core_tx_adv.c.obj
 .data          0x0000000000000000        0x0 CMakeFiles/dfu_no_serial_nrf52840_xxAA_s140_6.0.0.dir/__/__/mesh/core/src/core_tx_adv.c.obj
 .bss           0x0000000000000000        0x0 CMakeFiles/dfu_no_serial_nrf52840_xxAA_s140_6.0.0.dir/__/__/mesh/core/src/core_tx_adv.c.obj
 .text.core_tx_adv_address_set
                0x0000000000000000       0x28 CMakeFiles/dfu_no_serial_nrf52840_xxAA_s140_6.0.0.dir/__/__/mesh/core/src/core_tx_adv.c.obj
 .text          0x0000000000000000        0x0 CMakeFiles/dfu_no_serial_nrf52840_xxAA_s140_6.0.0.dir/__/__/mesh/bearer/src/ad_listener.c.obj
 .data          0x0000000000000000        0x0 CMakeFiles/dfu_no_serial_nrf52840_xxAA_s140_6.0.0.dir/__/__/mesh/bearer/src/ad_listener.c.obj
 .bss           0x0000000000000000        0x0 CMakeFiles/dfu_no_serial_nrf52840_xxAA_s140_6.0.0.dir/__/__/mesh/bearer/src/ad_listener.c.obj
 .text.ad_listener_unsubscribe
                0x0000000000000000       0x78 CMakeFiles/dfu_no_serial_nrf52840_xxAA_s140_6.0.0.dir/__/__/mesh/bearer/src/ad_listener.c.obj
 .text          0x0000000000000000        0x0 CMakeFiles/dfu_no_serial_nrf52840_xxAA_s140_6.0.0.dir/__/__/mesh/bearer/src/ad_type_filter.c.obj
 .data          0x0000000000000000        0x0 CMakeFiles/dfu_no_serial_nrf52840_xxAA_s140_6.0.0.dir/__/__/mesh/bearer/src/ad_type_filter.c.obj
 .bss           0x0000000000000000        0x0 CMakeFiles/dfu_no_serial_nrf52840_xxAA_s140_6.0.0.dir/__/__/mesh/bearer/src/ad_type_filter.c.obj
 .text.bearer_adtype_remove
                0x0000000000000000       0x28 CMakeFiles/dfu_no_serial_nrf52840_xxAA_s140_6.0.0.dir/__/__/mesh/bearer/src/ad_type_filter.c.obj
 .text.bearer_adtype_clear
                0x0000000000000000       0x10 CMakeFiles/dfu_no_serial_nrf52840_xxAA_s140_6.0.0.dir/__/__/mesh/bearer/src/ad_type_filter.c.obj
 .text.bearer_invalid_length_amount_get
                0x0000000000000000        0xc CMakeFiles/dfu_no_serial_nrf52840_xxAA_s140_6.0.0.dir/__/__/mesh/bearer/src/ad_type_filter.c.obj
 .text.bearer_adtype_filtered_amount_get
                0x0000000000000000        0xc CMakeFiles/dfu_no_serial_nrf52840_xxAA_s140_6.0.0.dir/__/__/mesh/bearer/src/ad_type_filter.c.obj
 .text          0x0000000000000000        0x0 CMakeFiles/dfu_no_serial_nrf52840_xxAA_s140_6.0.0.dir/__/__/mesh/bearer/src/adv_packet_filter.c.obj
 .data          0x0000000000000000        0x0 CMakeFiles/dfu_no_serial_nrf52840_xxAA_s140_6.0.0.dir/__/__/mesh/bearer/src/adv_packet_filter.c.obj
 .bss           0x0000000000000000        0x0 CMakeFiles/dfu_no_serial_nrf52840_xxAA_s140_6.0.0.dir/__/__/mesh/bearer/src/adv_packet_filter.c.obj
 .text.adv_filter_handle
                0x0000000000000000       0x40 CMakeFiles/dfu_no_serial_nrf52840_xxAA_s140_6.0.0.dir/__/__/mesh/bearer/src/adv_packet_filter.c.obj
 .text.bearer_adv_packet_filtering_set
                0x0000000000000000       0x1c CMakeFiles/dfu_no_serial_nrf52840_xxAA_s140_6.0.0.dir/__/__/mesh/bearer/src/adv_packet_filter.c.obj
 .text.bearer_adv_packet_remove
                0x0000000000000000       0x18 CMakeFiles/dfu_no_serial_nrf52840_xxAA_s140_6.0.0.dir/__/__/mesh/bearer/src/adv_packet_filter.c.obj
 .text.bearer_adv_packet_add
                0x0000000000000000       0x14 CMakeFiles/dfu_no_serial_nrf52840_xxAA_s140_6.0.0.dir/__/__/mesh/bearer/src/adv_packet_filter.c.obj
 .text.bearer_adv_packet_clear
                0x0000000000000000        0xc CMakeFiles/dfu_no_serial_nrf52840_xxAA_s140_6.0.0.dir/__/__/mesh/bearer/src/adv_packet_filter.c.obj
 .text.bearer_adv_packet_filter_mode_set
                0x0000000000000000       0x18 CMakeFiles/dfu_no_serial_nrf52840_xxAA_s140_6.0.0.dir/__/__/mesh/bearer/src/adv_packet_filter.c.obj
 .text.bearer_adv_packet_filtered_amount_get
                0x0000000000000000        0xc CMakeFiles/dfu_no_serial_nrf52840_xxAA_s140_6.0.0.dir/__/__/mesh/bearer/src/adv_packet_filter.c.obj
 .bss.m_adv_packet_filter
                0x0000000000000000       0x14 CMakeFiles/dfu_no_serial_nrf52840_xxAA_s140_6.0.0.dir/__/__/mesh/bearer/src/adv_packet_filter.c.obj
 .debug_info    0x0000000000000000      0xd92 CMakeFiles/dfu_no_serial_nrf52840_xxAA_s140_6.0.0.dir/__/__/mesh/bearer/src/adv_packet_filter.c.obj
 .debug_abbrev  0x0000000000000000      0x2cb CMakeFiles/dfu_no_serial_nrf52840_xxAA_s140_6.0.0.dir/__/__/mesh/bearer/src/adv_packet_filter.c.obj
 .debug_loc     0x0000000000000000      0x1b2 CMakeFiles/dfu_no_serial_nrf52840_xxAA_s140_6.0.0.dir/__/__/mesh/bearer/src/adv_packet_filter.c.obj
 .debug_aranges
                0x0000000000000000       0x50 CMakeFiles/dfu_no_serial_nrf52840_xxAA_s140_6.0.0.dir/__/__/mesh/bearer/src/adv_packet_filter.c.obj
 .debug_ranges  0x0000000000000000       0x40 CMakeFiles/dfu_no_serial_nrf52840_xxAA_s140_6.0.0.dir/__/__/mesh/bearer/src/adv_packet_filter.c.obj
 .debug_line    0x0000000000000000      0x489 CMakeFiles/dfu_no_serial_nrf52840_xxAA_s140_6.0.0.dir/__/__/mesh/bearer/src/adv_packet_filter.c.obj
 .debug_str     0x0000000000000000      0xa88 CMakeFiles/dfu_no_serial_nrf52840_xxAA_s140_6.0.0.dir/__/__/mesh/bearer/src/adv_packet_filter.c.obj
 .comment       0x0000000000000000       0x7f CMakeFiles/dfu_no_serial_nrf52840_xxAA_s140_6.0.0.dir/__/__/mesh/bearer/src/adv_packet_filter.c.obj
 .debug_frame   0x0000000000000000       0x88 CMakeFiles/dfu_no_serial_nrf52840_xxAA_s140_6.0.0.dir/__/__/mesh/bearer/src/adv_packet_filter.c.obj
 .ARM.attributes
                0x0000000000000000       0x39 CMakeFiles/dfu_no_serial_nrf52840_xxAA_s140_6.0.0.dir/__/__/mesh/bearer/src/adv_packet_filter.c.obj
 .text          0x0000000000000000        0x0 CMakeFiles/dfu_no_serial_nrf52840_xxAA_s140_6.0.0.dir/__/__/mesh/bearer/src/advertiser.c.obj
 .data          0x0000000000000000        0x0 CMakeFiles/dfu_no_serial_nrf52840_xxAA_s140_6.0.0.dir/__/__/mesh/bearer/src/advertiser.c.obj
 .bss           0x0000000000000000        0x0 CMakeFiles/dfu_no_serial_nrf52840_xxAA_s140_6.0.0.dir/__/__/mesh/bearer/src/advertiser.c.obj
 .text.advertiser_disable
                0x0000000000000000        0xc CMakeFiles/dfu_no_serial_nrf52840_xxAA_s140_6.0.0.dir/__/__/mesh/bearer/src/advertiser.c.obj
 .text.advertiser_config_set
                0x0000000000000000      0x184 CMakeFiles/dfu_no_serial_nrf52840_xxAA_s140_6.0.0.dir/__/__/mesh/bearer/src/advertiser.c.obj
 .text.advertiser_channels_set
                0x0000000000000000       0x98 CMakeFiles/dfu_no_serial_nrf52840_xxAA_s140_6.0.0.dir/__/__/mesh/bearer/src/advertiser.c.obj
 .text.advertiser_address_set
                0x0000000000000000       0x74 CMakeFiles/dfu_no_serial_nrf52840_xxAA_s140_6.0.0.dir/__/__/mesh/bearer/src/advertiser.c.obj
 .text.advertiser_config_get
                0x0000000000000000       0x24 CMakeFiles/dfu_no_serial_nrf52840_xxAA_s140_6.0.0.dir/__/__/mesh/bearer/src/advertiser.c.obj
 .text          0x0000000000000000        0x0 CMakeFiles/dfu_no_serial_nrf52840_xxAA_s140_6.0.0.dir/__/__/mesh/bearer/src/bearer_handler.c.obj
 .data          0x0000000000000000        0x0 CMakeFiles/dfu_no_serial_nrf52840_xxAA_s140_6.0.0.dir/__/__/mesh/bearer/src/bearer_handler.c.obj
 .bss           0x0000000000000000        0x0 CMakeFiles/dfu_no_serial_nrf52840_xxAA_s140_6.0.0.dir/__/__/mesh/bearer/src/bearer_handler.c.obj
 .text.bearer_handler_stop
                0x0000000000000000       0x20 CMakeFiles/dfu_no_serial_nrf52840_xxAA_s140_6.0.0.dir/__/__/mesh/bearer/src/bearer_handler.c.obj
 .text.bearer_handler_action_fire
                0x0000000000000000       0xa0 CMakeFiles/dfu_no_serial_nrf52840_xxAA_s140_6.0.0.dir/__/__/mesh/bearer/src/bearer_handler.c.obj
 .text          0x0000000000000000        0x0 CMakeFiles/dfu_no_serial_nrf52840_xxAA_s140_6.0.0.dir/__/__/mesh/bearer/src/broadcast.c.obj
 .data          0x0000000000000000        0x0 CMakeFiles/dfu_no_serial_nrf52840_xxAA_s140_6.0.0.dir/__/__/mesh/bearer/src/broadcast.c.obj
 .bss           0x0000000000000000        0x0 CMakeFiles/dfu_no_serial_nrf52840_xxAA_s140_6.0.0.dir/__/__/mesh/bearer/src/broadcast.c.obj
 .text          0x0000000000000000        0x0 CMakeFiles/dfu_no_serial_nrf52840_xxAA_s140_6.0.0.dir/__/__/mesh/bearer/src/filter_engine.c.obj
 .data          0x0000000000000000        0x0 CMakeFiles/dfu_no_serial_nrf52840_xxAA_s140_6.0.0.dir/__/__/mesh/bearer/src/filter_engine.c.obj
 .bss           0x0000000000000000        0x0 CMakeFiles/dfu_no_serial_nrf52840_xxAA_s140_6.0.0.dir/__/__/mesh/bearer/src/filter_engine.c.obj
 .text.fen_accepted_amount_get
                0x0000000000000000        0xc CMakeFiles/dfu_no_serial_nrf52840_xxAA_s140_6.0.0.dir/__/__/mesh/bearer/src/filter_engine.c.obj
 .text          0x0000000000000000        0x0 CMakeFiles/dfu_no_serial_nrf52840_xxAA_s140_6.0.0.dir/__/__/mesh/bearer/src/gap_address_filter.c.obj
 .data          0x0000000000000000        0x0 CMakeFiles/dfu_no_serial_nrf52840_xxAA_s140_6.0.0.dir/__/__/mesh/bearer/src/gap_address_filter.c.obj
 .bss           0x0000000000000000        0x0 CMakeFiles/dfu_no_serial_nrf52840_xxAA_s140_6.0.0.dir/__/__/mesh/bearer/src/gap_address_filter.c.obj
 .text.gap_address_filter_handle
                0x0000000000000000       0xb8 CMakeFiles/dfu_no_serial_nrf52840_xxAA_s140_6.0.0.dir/__/__/mesh/bearer/src/gap_address_filter.c.obj
 .text.bearer_filter_gap_addr_whitelist_set
                0x0000000000000000       0x48 CMakeFiles/dfu_no_serial_nrf52840_xxAA_s140_6.0.0.dir/__/__/mesh/bearer/src/gap_address_filter.c.obj
 .text.bearer_filter_gap_addr_blacklist_set
                0x0000000000000000       0x4c CMakeFiles/dfu_no_serial_nrf52840_xxAA_s140_6.0.0.dir/__/__/mesh/bearer/src/gap_address_filter.c.obj
 .text.bearer_filter_gap_addr_range_set
                0x0000000000000000       0x64 CMakeFiles/dfu_no_serial_nrf52840_xxAA_s140_6.0.0.dir/__/__/mesh/bearer/src/gap_address_filter.c.obj
 .text.bearer_filter_gap_addr_clear
                0x0000000000000000       0x24 CMakeFiles/dfu_no_serial_nrf52840_xxAA_s140_6.0.0.dir/__/__/mesh/bearer/src/gap_address_filter.c.obj
 .text.bearer_gap_addr_filtered_amount_get
                0x0000000000000000        0xc CMakeFiles/dfu_no_serial_nrf52840_xxAA_s140_6.0.0.dir/__/__/mesh/bearer/src/gap_address_filter.c.obj
 .bss.m_addr_filter
                0x0000000000000000       0x18 CMakeFiles/dfu_no_serial_nrf52840_xxAA_s140_6.0.0.dir/__/__/mesh/bearer/src/gap_address_filter.c.obj
 .debug_info    0x0000000000000000      0xf34 CMakeFiles/dfu_no_serial_nrf52840_xxAA_s140_6.0.0.dir/__/__/mesh/bearer/src/gap_address_filter.c.obj
 .debug_abbrev  0x0000000000000000      0x2f8 CMakeFiles/dfu_no_serial_nrf52840_xxAA_s140_6.0.0.dir/__/__/mesh/bearer/src/gap_address_filter.c.obj
 .debug_loc     0x0000000000000000      0x823 CMakeFiles/dfu_no_serial_nrf52840_xxAA_s140_6.0.0.dir/__/__/mesh/bearer/src/gap_address_filter.c.obj
 .debug_aranges
                0x0000000000000000       0x48 CMakeFiles/dfu_no_serial_nrf52840_xxAA_s140_6.0.0.dir/__/__/mesh/bearer/src/gap_address_filter.c.obj
 .debug_ranges  0x0000000000000000      0x100 CMakeFiles/dfu_no_serial_nrf52840_xxAA_s140_6.0.0.dir/__/__/mesh/bearer/src/gap_address_filter.c.obj
 .debug_line    0x0000000000000000      0x519 CMakeFiles/dfu_no_serial_nrf52840_xxAA_s140_6.0.0.dir/__/__/mesh/bearer/src/gap_address_filter.c.obj
 .debug_str     0x0000000000000000      0x9e2 CMakeFiles/dfu_no_serial_nrf52840_xxAA_s140_6.0.0.dir/__/__/mesh/bearer/src/gap_address_filter.c.obj
 .comment       0x0000000000000000       0x7f CMakeFiles/dfu_no_serial_nrf52840_xxAA_s140_6.0.0.dir/__/__/mesh/bearer/src/gap_address_filter.c.obj
 .debug_frame   0x0000000000000000       0xd4 CMakeFiles/dfu_no_serial_nrf52840_xxAA_s140_6.0.0.dir/__/__/mesh/bearer/src/gap_address_filter.c.obj
 .ARM.attributes
                0x0000000000000000       0x39 CMakeFiles/dfu_no_serial_nrf52840_xxAA_s140_6.0.0.dir/__/__/mesh/bearer/src/gap_address_filter.c.obj
 .text          0x0000000000000000        0x0 CMakeFiles/dfu_no_serial_nrf52840_xxAA_s140_6.0.0.dir/__/__/mesh/bearer/src/radio_config.c.obj
 .data          0x0000000000000000        0x0 CMakeFiles/dfu_no_serial_nrf52840_xxAA_s140_6.0.0.dir/__/__/mesh/bearer/src/radio_config.c.obj
 .bss           0x0000000000000000        0x0 CMakeFiles/dfu_no_serial_nrf52840_xxAA_s140_6.0.0.dir/__/__/mesh/bearer/src/radio_config.c.obj
 .text.radio_config_access_addr_get
                0x0000000000000000       0x58 CMakeFiles/dfu_no_serial_nrf52840_xxAA_s140_6.0.0.dir/__/__/mesh/bearer/src/radio_config.c.obj
 .text          0x0000000000000000        0x0 CMakeFiles/dfu_no_serial_nrf52840_xxAA_s140_6.0.0.dir/__/__/mesh/bearer/src/rssi_filter.c.obj
 .data          0x0000000000000000        0x0 CMakeFiles/dfu_no_serial_nrf52840_xxAA_s140_6.0.0.dir/__/__/mesh/bearer/src/rssi_filter.c.obj
 .bss           0x0000000000000000        0x0 CMakeFiles/dfu_no_serial_nrf52840_xxAA_s140_6.0.0.dir/__/__/mesh/bearer/src/rssi_filter.c.obj
 .text.rssi_filter_handle
                0x0000000000000000       0x20 CMakeFiles/dfu_no_serial_nrf52840_xxAA_s140_6.0.0.dir/__/__/mesh/bearer/src/rssi_filter.c.obj
 .text.bearer_rssi_filtering_set
                0x0000000000000000       0x38 CMakeFiles/dfu_no_serial_nrf52840_xxAA_s140_6.0.0.dir/__/__/mesh/bearer/src/rssi_filter.c.obj
 .text.bearer_rssi_filtered_amount_get
                0x0000000000000000        0xc CMakeFiles/dfu_no_serial_nrf52840_xxAA_s140_6.0.0.dir/__/__/mesh/bearer/src/rssi_filter.c.obj
 .bss.m_rssi_filter
                0x0000000000000000       0x18 CMakeFiles/dfu_no_serial_nrf52840_xxAA_s140_6.0.0.dir/__/__/mesh/bearer/src/rssi_filter.c.obj
 .debug_info    0x0000000000000000      0xc70 CMakeFiles/dfu_no_serial_nrf52840_xxAA_s140_6.0.0.dir/__/__/mesh/bearer/src/rssi_filter.c.obj
 .debug_abbrev  0x0000000000000000      0x290 CMakeFiles/dfu_no_serial_nrf52840_xxAA_s140_6.0.0.dir/__/__/mesh/bearer/src/rssi_filter.c.obj
 .debug_loc     0x0000000000000000       0xbe CMakeFiles/dfu_no_serial_nrf52840_xxAA_s140_6.0.0.dir/__/__/mesh/bearer/src/rssi_filter.c.obj
 .debug_aranges
                0x0000000000000000       0x30 CMakeFiles/dfu_no_serial_nrf52840_xxAA_s140_6.0.0.dir/__/__/mesh/bearer/src/rssi_filter.c.obj
 .debug_ranges  0x0000000000000000       0x20 CMakeFiles/dfu_no_serial_nrf52840_xxAA_s140_6.0.0.dir/__/__/mesh/bearer/src/rssi_filter.c.obj
 .debug_line    0x0000000000000000      0x3fb CMakeFiles/dfu_no_serial_nrf52840_xxAA_s140_6.0.0.dir/__/__/mesh/bearer/src/rssi_filter.c.obj
 .debug_str     0x0000000000000000      0x89d CMakeFiles/dfu_no_serial_nrf52840_xxAA_s140_6.0.0.dir/__/__/mesh/bearer/src/rssi_filter.c.obj
 .comment       0x0000000000000000       0x7f CMakeFiles/dfu_no_serial_nrf52840_xxAA_s140_6.0.0.dir/__/__/mesh/bearer/src/rssi_filter.c.obj
 .debug_frame   0x0000000000000000       0x58 CMakeFiles/dfu_no_serial_nrf52840_xxAA_s140_6.0.0.dir/__/__/mesh/bearer/src/rssi_filter.c.obj
 .ARM.attributes
                0x0000000000000000       0x39 CMakeFiles/dfu_no_serial_nrf52840_xxAA_s140_6.0.0.dir/__/__/mesh/bearer/src/rssi_filter.c.obj
 .text          0x0000000000000000        0x0 CMakeFiles/dfu_no_serial_nrf52840_xxAA_s140_6.0.0.dir/__/__/mesh/bearer/src/scanner.c.obj
 .data          0x0000000000000000        0x0 CMakeFiles/dfu_no_serial_nrf52840_xxAA_s140_6.0.0.dir/__/__/mesh/bearer/src/scanner.c.obj
 .bss           0x0000000000000000        0x0 CMakeFiles/dfu_no_serial_nrf52840_xxAA_s140_6.0.0.dir/__/__/mesh/bearer/src/scanner.c.obj
 .text.scanner_rx_callback_set
                0x0000000000000000       0x20 CMakeFiles/dfu_no_serial_nrf52840_xxAA_s140_6.0.0.dir/__/__/mesh/bearer/src/scanner.c.obj
 .text.scanner_disable
                0x0000000000000000       0x50 CMakeFiles/dfu_no_serial_nrf52840_xxAA_s140_6.0.0.dir/__/__/mesh/bearer/src/scanner.c.obj
 .text.scanner_is_enabled
                0x0000000000000000       0x14 CMakeFiles/dfu_no_serial_nrf52840_xxAA_s140_6.0.0.dir/__/__/mesh/bearer/src/scanner.c.obj
 .text.scanner_stats_get
                0x0000000000000000        0x8 CMakeFiles/dfu_no_serial_nrf52840_xxAA_s140_6.0.0.dir/__/__/mesh/bearer/src/scanner.c.obj
 .text.scanner_config_radio_mode_set
                0x0000000000000000       0x10 CMakeFiles/dfu_no_serial_nrf52840_xxAA_s140_6.0.0.dir/__/__/mesh/bearer/src/scanner.c.obj
 .text.scanner_config_scan_time_set
                0x0000000000000000       0x88 CMakeFiles/dfu_no_serial_nrf52840_xxAA_s140_6.0.0.dir/__/__/mesh/bearer/src/scanner.c.obj
 .text.scanner_config_channels_set
                0x0000000000000000       0x50 CMakeFiles/dfu_no_serial_nrf52840_xxAA_s140_6.0.0.dir/__/__/mesh/bearer/src/scanner.c.obj
 .text.scanner_config_access_addresses_set
                0x0000000000000000       0x38 CMakeFiles/dfu_no_serial_nrf52840_xxAA_s140_6.0.0.dir/__/__/mesh/bearer/src/scanner.c.obj
 .text          0x0000000000000000        0x0 CMakeFiles/dfu_no_serial_nrf52840_xxAA_s140_6.0.0.dir/home/mazzer/work/nordic/sdk/nRF5_SDK_15.0.0/modules/nrfx/mdk/system_nrf52840.c.obj
 .data          0x0000000000000000        0x0 CMakeFiles/dfu_no_serial_nrf52840_xxAA_s140_6.0.0.dir/home/mazzer/work/nordic/sdk/nRF5_SDK_15.0.0/modules/nrfx/mdk/system_nrf52840.c.obj
 .bss           0x0000000000000000        0x0 CMakeFiles/dfu_no_serial_nrf52840_xxAA_s140_6.0.0.dir/home/mazzer/work/nordic/sdk/nRF5_SDK_15.0.0/modules/nrfx/mdk/system_nrf52840.c.obj
 .text.SystemCoreClockUpdate
                0x0000000000000000       0x10 CMakeFiles/dfu_no_serial_nrf52840_xxAA_s140_6.0.0.dir/home/mazzer/work/nordic/sdk/nRF5_SDK_15.0.0/modules/nrfx/mdk/system_nrf52840.c.obj
 .data          0x0000000000000000        0x0 CMakeFiles/dfu_no_serial_nrf52840_xxAA_s140_6.0.0.dir/home/mazzer/work/nordic/sdk/nRF5_SDK_15.0.0/modules/nrfx/mdk/gcc_startup_nrf52840.S.obj
 .bss           0x0000000000000000        0x0 CMakeFiles/dfu_no_serial_nrf52840_xxAA_s140_6.0.0.dir/home/mazzer/work/nordic/sdk/nRF5_SDK_15.0.0/modules/nrfx/mdk/gcc_startup_nrf52840.S.obj
 .text          0x0000000000000000        0x0 CMakeFiles/dfu_no_serial_nrf52840_xxAA_s140_6.0.0.dir/home/mazzer/work/nordic/sdk/nRF5_SDK_15.0.0/components/libraries/util/app_error.c.obj
 .data          0x0000000000000000        0x0 CMakeFiles/dfu_no_serial_nrf52840_xxAA_s140_6.0.0.dir/home/mazzer/work/nordic/sdk/nRF5_SDK_15.0.0/components/libraries/util/app_error.c.obj
 .bss           0x0000000000000000        0x0 CMakeFiles/dfu_no_serial_nrf52840_xxAA_s140_6.0.0.dir/home/mazzer/work/nordic/sdk/nRF5_SDK_15.0.0/components/libraries/util/app_error.c.obj
 .text.app_error_save_and_stop
                0x0000000000000000       0x64 CMakeFiles/dfu_no_serial_nrf52840_xxAA_s140_6.0.0.dir/home/mazzer/work/nordic/sdk/nRF5_SDK_15.0.0/components/libraries/util/app_error.c.obj
 .bss.m_error_data.8293
                0x0000000000000000       0x20 CMakeFiles/dfu_no_serial_nrf52840_xxAA_s140_6.0.0.dir/home/mazzer/work/nordic/sdk/nRF5_SDK_15.0.0/components/libraries/util/app_error.c.obj
 .text          0x0000000000000000        0x0 CMakeFiles/dfu_no_serial_nrf52840_xxAA_s140_6.0.0.dir/home/mazzer/work/nordic/sdk/nRF5_SDK_15.0.0/components/libraries/util/app_error_handler_gcc.c.obj
 .data          0x0000000000000000        0x0 CMakeFiles/dfu_no_serial_nrf52840_xxAA_s140_6.0.0.dir/home/mazzer/work/nordic/sdk/nRF5_SDK_15.0.0/components/libraries/util/app_error_handler_gcc.c.obj
 .bss           0x0000000000000000        0x0 CMakeFiles/dfu_no_serial_nrf52840_xxAA_s140_6.0.0.dir/home/mazzer/work/nordic/sdk/nRF5_SDK_15.0.0/components/libraries/util/app_error_handler_gcc.c.obj
 .text          0x0000000000000000        0x0 ../../external/rtt/librtt_nrf52840_xxAA.a(SEGGER_RTT.c.obj)
 .data          0x0000000000000000        0x0 ../../external/rtt/librtt_nrf52840_xxAA.a(SEGGER_RTT.c.obj)
 .bss           0x0000000000000000        0x0 ../../external/rtt/librtt_nrf52840_xxAA.a(SEGGER_RTT.c.obj)
 .text.SEGGER_RTT_ReadNoLock
                0x0000000000000000       0xfc ../../external/rtt/librtt_nrf52840_xxAA.a(SEGGER_RTT.c.obj)
 .text.SEGGER_RTT_Read
                0x0000000000000000      0x118 ../../external/rtt/librtt_nrf52840_xxAA.a(SEGGER_RTT.c.obj)
 .text.SEGGER_RTT_WriteSkipNoLock
                0x0000000000000000      0x1a8 ../../external/rtt/librtt_nrf52840_xxAA.a(SEGGER_RTT.c.obj)
 .text.SEGGER_RTT_WriteNoLock
                0x0000000000000000      0x168 ../../external/rtt/librtt_nrf52840_xxAA.a(SEGGER_RTT.c.obj)
 .text.SEGGER_RTT_WriteString
                0x0000000000000000      0x1f8 ../../external/rtt/librtt_nrf52840_xxAA.a(SEGGER_RTT.c.obj)
 .text.SEGGER_RTT_GetKey
                0x0000000000000000       0xf8 ../../external/rtt/librtt_nrf52840_xxAA.a(SEGGER_RTT.c.obj)
 .text.SEGGER_RTT_WaitKey
                0x0000000000000000       0xfc ../../external/rtt/librtt_nrf52840_xxAA.a(SEGGER_RTT.c.obj)
 .text.SEGGER_RTT_HasKey
                0x0000000000000000       0x6c ../../external/rtt/librtt_nrf52840_xxAA.a(SEGGER_RTT.c.obj)
 .text.SEGGER_RTT_HasData
                0x0000000000000000       0x18 ../../external/rtt/librtt_nrf52840_xxAA.a(SEGGER_RTT.c.obj)
 .text.SEGGER_RTT_AllocDownBuffer
                0x0000000000000000       0xb8 ../../external/rtt/librtt_nrf52840_xxAA.a(SEGGER_RTT.c.obj)
 .text.SEGGER_RTT_AllocUpBuffer
                0x0000000000000000       0xd4 ../../external/rtt/librtt_nrf52840_xxAA.a(SEGGER_RTT.c.obj)
 .text.SEGGER_RTT_ConfigUpBuffer
                0x0000000000000000       0xd0 ../../external/rtt/librtt_nrf52840_xxAA.a(SEGGER_RTT.c.obj)
 .text.SEGGER_RTT_ConfigDownBuffer
                0x0000000000000000       0xb4 ../../external/rtt/librtt_nrf52840_xxAA.a(SEGGER_RTT.c.obj)
 .text.SEGGER_RTT_SetNameUpBuffer
                0x0000000000000000       0x90 ../../external/rtt/librtt_nrf52840_xxAA.a(SEGGER_RTT.c.obj)
 .text.SEGGER_RTT_SetNameDownBuffer
                0x0000000000000000       0x90 ../../external/rtt/librtt_nrf52840_xxAA.a(SEGGER_RTT.c.obj)
 .text.SEGGER_RTT_Init
                0x0000000000000000       0x64 ../../external/rtt/librtt_nrf52840_xxAA.a(SEGGER_RTT.c.obj)
 .text.SEGGER_RTT_SetTerminal
                0x0000000000000000      0x16c ../../external/rtt/librtt_nrf52840_xxAA.a(SEGGER_RTT.c.obj)
 .text.SEGGER_RTT_TerminalOut
                0x0000000000000000      0x4d8 ../../external/rtt/librtt_nrf52840_xxAA.a(SEGGER_RTT.c.obj)
 .bss._ActiveTerminal
                0x0000000000000000        0x1 ../../external/rtt/librtt_nrf52840_xxAA.a(SEGGER_RTT.c.obj)
 .rodata._aTerminalId
                0x0000000000000000       0x10 ../../external/rtt/librtt_nrf52840_xxAA.a(SEGGER_RTT.c.obj)
 .text          0x0000000000000000        0x0 ../../external/rtt/librtt_nrf52840_xxAA.a(SEGGER_RTT_printf.c.obj)
 .data          0x0000000000000000        0x0 ../../external/rtt/librtt_nrf52840_xxAA.a(SEGGER_RTT_printf.c.obj)
 .bss           0x0000000000000000        0x0 ../../external/rtt/librtt_nrf52840_xxAA.a(SEGGER_RTT_printf.c.obj)
 .text          0x0000000000000000        0x0 ../../external/micro-ecc/libuECC_nrf52840_xxAA.a(uECC.c.obj)
 .data          0x0000000000000000        0x0 ../../external/micro-ecc/libuECC_nrf52840_xxAA.a(uECC.c.obj)
 .bss           0x0000000000000000        0x0 ../../external/micro-ecc/libuECC_nrf52840_xxAA.a(uECC.c.obj)
 .text.HMAC_finish
                0x0000000000000000       0x70 ../../external/micro-ecc/libuECC_nrf52840_xxAA.a(uECC.c.obj)
 .text.uECC_vli_mmod
                0x0000000000000000      0x418 ../../external/micro-ecc/libuECC_nrf52840_xxAA.a(uECC.c.obj)
 .text.uECC_vli_modSub.isra.2
                0x0000000000000000       0x98 ../../external/micro-ecc/libuECC_nrf52840_xxAA.a(uECC.c.obj)
 .text.bits2int
                0x0000000000000000      0x160 ../../external/micro-ecc/libuECC_nrf52840_xxAA.a(uECC.c.obj)
 .text.uECC_sign_with_k
                0x0000000000000000      0x630 ../../external/micro-ecc/libuECC_nrf52840_xxAA.a(uECC.c.obj)
 .text.uECC_set_rng
                0x0000000000000000        0xc ../../external/micro-ecc/libuECC_nrf52840_xxAA.a(uECC.c.obj)
 .text.uECC_get_rng
                0x0000000000000000        0xc ../../external/micro-ecc/libuECC_nrf52840_xxAA.a(uECC.c.obj)
 .text.uECC_curve_private_key_size
                0x0000000000000000       0x10 ../../external/micro-ecc/libuECC_nrf52840_xxAA.a(uECC.c.obj)
 .text.uECC_curve_public_key_size
                0x0000000000000000        0x8 ../../external/micro-ecc/libuECC_nrf52840_xxAA.a(uECC.c.obj)
 .text.uECC_valid_point
                0x0000000000000000      0x154 ../../external/micro-ecc/libuECC_nrf52840_xxAA.a(uECC.c.obj)
 .text.uECC_compute_public_key
                0x0000000000000000      0x2e8 ../../external/micro-ecc/libuECC_nrf52840_xxAA.a(uECC.c.obj)
 .text.uECC_sign
                0x0000000000000000       0x5c ../../external/micro-ecc/libuECC_nrf52840_xxAA.a(uECC.c.obj)
 .text.uECC_sign_deterministic
                0x0000000000000000      0x414 ../../external/micro-ecc/libuECC_nrf52840_xxAA.a(uECC.c.obj)
 .text.uECC_verify
                0x0000000000000000      0x960 ../../external/micro-ecc/libuECC_nrf52840_xxAA.a(uECC.c.obj)
 .text          0x0000000000000000        0x0 /usr/bin/../lib/gcc/arm-none-eabi/7.2.1/../../../../arm-none-eabi/lib/thumb/v7e-m/fpv4-sp/hard/libg_nano.a(lib_a-exit.o)
 .data          0x0000000000000000        0x0 /usr/bin/../lib/gcc/arm-none-eabi/7.2.1/../../../../arm-none-eabi/lib/thumb/v7e-m/fpv4-sp/hard/libg_nano.a(lib_a-exit.o)
 .bss           0x0000000000000000        0x0 /usr/bin/../lib/gcc/arm-none-eabi/7.2.1/../../../../arm-none-eabi/lib/thumb/v7e-m/fpv4-sp/hard/libg_nano.a(lib_a-exit.o)
 .text          0x0000000000000000        0x0 /usr/bin/../lib/gcc/arm-none-eabi/7.2.1/../../../../arm-none-eabi/lib/thumb/v7e-m/fpv4-sp/hard/libg_nano.a(lib_a-impure.o)
 .data          0x0000000000000000        0x0 /usr/bin/../lib/gcc/arm-none-eabi/7.2.1/../../../../arm-none-eabi/lib/thumb/v7e-m/fpv4-sp/hard/libg_nano.a(lib_a-impure.o)
 .bss           0x0000000000000000        0x0 /usr/bin/../lib/gcc/arm-none-eabi/7.2.1/../../../../arm-none-eabi/lib/thumb/v7e-m/fpv4-sp/hard/libg_nano.a(lib_a-impure.o)
 .text          0x0000000000000000        0x0 /usr/bin/../lib/gcc/arm-none-eabi/7.2.1/../../../../arm-none-eabi/lib/thumb/v7e-m/fpv4-sp/hard/libg_nano.a(lib_a-init.o)
 .data          0x0000000000000000        0x0 /usr/bin/../lib/gcc/arm-none-eabi/7.2.1/../../../../arm-none-eabi/lib/thumb/v7e-m/fpv4-sp/hard/libg_nano.a(lib_a-init.o)
 .bss           0x0000000000000000        0x0 /usr/bin/../lib/gcc/arm-none-eabi/7.2.1/../../../../arm-none-eabi/lib/thumb/v7e-m/fpv4-sp/hard/libg_nano.a(lib_a-init.o)
 .text          0x0000000000000000        0x0 /usr/bin/../lib/gcc/arm-none-eabi/7.2.1/../../../../arm-none-eabi/lib/thumb/v7e-m/fpv4-sp/hard/libg_nano.a(lib_a-malloc.o)
 .data          0x0000000000000000        0x0 /usr/bin/../lib/gcc/arm-none-eabi/7.2.1/../../../../arm-none-eabi/lib/thumb/v7e-m/fpv4-sp/hard/libg_nano.a(lib_a-malloc.o)
 .bss           0x0000000000000000        0x0 /usr/bin/../lib/gcc/arm-none-eabi/7.2.1/../../../../arm-none-eabi/lib/thumb/v7e-m/fpv4-sp/hard/libg_nano.a(lib_a-malloc.o)
 .text          0x0000000000000000        0x0 /usr/bin/../lib/gcc/arm-none-eabi/7.2.1/../../../../arm-none-eabi/lib/thumb/v7e-m/fpv4-sp/hard/libg_nano.a(lib_a-memcmp.o)
 .data          0x0000000000000000        0x0 /usr/bin/../lib/gcc/arm-none-eabi/7.2.1/../../../../arm-none-eabi/lib/thumb/v7e-m/fpv4-sp/hard/libg_nano.a(lib_a-memcmp.o)
 .bss           0x0000000000000000        0x0 /usr/bin/../lib/gcc/arm-none-eabi/7.2.1/../../../../arm-none-eabi/lib/thumb/v7e-m/fpv4-sp/hard/libg_nano.a(lib_a-memcmp.o)
 .text          0x0000000000000000        0x0 /usr/bin/../lib/gcc/arm-none-eabi/7.2.1/../../../../arm-none-eabi/lib/thumb/v7e-m/fpv4-sp/hard/libg_nano.a(lib_a-memcpy-stub.o)
 .data          0x0000000000000000        0x0 /usr/bin/../lib/gcc/arm-none-eabi/7.2.1/../../../../arm-none-eabi/lib/thumb/v7e-m/fpv4-sp/hard/libg_nano.a(lib_a-memcpy-stub.o)
 .bss           0x0000000000000000        0x0 /usr/bin/../lib/gcc/arm-none-eabi/7.2.1/../../../../arm-none-eabi/lib/thumb/v7e-m/fpv4-sp/hard/libg_nano.a(lib_a-memcpy-stub.o)
 .text          0x0000000000000000        0x0 /usr/bin/../lib/gcc/arm-none-eabi/7.2.1/../../../../arm-none-eabi/lib/thumb/v7e-m/fpv4-sp/hard/libg_nano.a(lib_a-memset.o)
 .data          0x0000000000000000        0x0 /usr/bin/../lib/gcc/arm-none-eabi/7.2.1/../../../../arm-none-eabi/lib/thumb/v7e-m/fpv4-sp/hard/libg_nano.a(lib_a-memset.o)
 .bss           0x0000000000000000        0x0 /usr/bin/../lib/gcc/arm-none-eabi/7.2.1/../../../../arm-none-eabi/lib/thumb/v7e-m/fpv4-sp/hard/libg_nano.a(lib_a-memset.o)
 .text          0x0000000000000000        0x0 /usr/bin/../lib/gcc/arm-none-eabi/7.2.1/../../../../arm-none-eabi/lib/thumb/v7e-m/fpv4-sp/hard/libg_nano.a(lib_a-nano-freer.o)
 .data          0x0000000000000000        0x0 /usr/bin/../lib/gcc/arm-none-eabi/7.2.1/../../../../arm-none-eabi/lib/thumb/v7e-m/fpv4-sp/hard/libg_nano.a(lib_a-nano-freer.o)
 .bss           0x0000000000000000        0x0 /usr/bin/../lib/gcc/arm-none-eabi/7.2.1/../../../../arm-none-eabi/lib/thumb/v7e-m/fpv4-sp/hard/libg_nano.a(lib_a-nano-freer.o)
 .text          0x0000000000000000        0x0 /usr/bin/../lib/gcc/arm-none-eabi/7.2.1/../../../../arm-none-eabi/lib/thumb/v7e-m/fpv4-sp/hard/libg_nano.a(lib_a-nano-mallocr.o)
 .data          0x0000000000000000        0x0 /usr/bin/../lib/gcc/arm-none-eabi/7.2.1/../../../../arm-none-eabi/lib/thumb/v7e-m/fpv4-sp/hard/libg_nano.a(lib_a-nano-mallocr.o)
 .bss           0x0000000000000000        0x0 /usr/bin/../lib/gcc/arm-none-eabi/7.2.1/../../../../arm-none-eabi/lib/thumb/v7e-m/fpv4-sp/hard/libg_nano.a(lib_a-nano-mallocr.o)
 .text          0x0000000000000000        0x0 /usr/bin/../lib/gcc/arm-none-eabi/7.2.1/../../../../arm-none-eabi/lib/thumb/v7e-m/fpv4-sp/hard/libg_nano.a(lib_a-sbrkr.o)
 .data          0x0000000000000000        0x0 /usr/bin/../lib/gcc/arm-none-eabi/7.2.1/../../../../arm-none-eabi/lib/thumb/v7e-m/fpv4-sp/hard/libg_nano.a(lib_a-sbrkr.o)
 .bss           0x0000000000000000        0x0 /usr/bin/../lib/gcc/arm-none-eabi/7.2.1/../../../../arm-none-eabi/lib/thumb/v7e-m/fpv4-sp/hard/libg_nano.a(lib_a-sbrkr.o)
 .text          0x0000000000000000        0x0 /usr/bin/../lib/gcc/arm-none-eabi/7.2.1/../../../../arm-none-eabi/lib/thumb/v7e-m/fpv4-sp/hard/libg_nano.a(lib_a-strcpy.o)
 .data          0x0000000000000000        0x0 /usr/bin/../lib/gcc/arm-none-eabi/7.2.1/../../../../arm-none-eabi/lib/thumb/v7e-m/fpv4-sp/hard/libg_nano.a(lib_a-strcpy.o)
 .bss           0x0000000000000000        0x0 /usr/bin/../lib/gcc/arm-none-eabi/7.2.1/../../../../arm-none-eabi/lib/thumb/v7e-m/fpv4-sp/hard/libg_nano.a(lib_a-strcpy.o)
 .data          0x0000000000000000        0x0 /usr/bin/../lib/gcc/arm-none-eabi/7.2.1/../../../../arm-none-eabi/lib/thumb/v7e-m/fpv4-sp/hard/libg_nano.a(lib_a-strlen.o)
 .bss           0x0000000000000000        0x0 /usr/bin/../lib/gcc/arm-none-eabi/7.2.1/../../../../arm-none-eabi/lib/thumb/v7e-m/fpv4-sp/hard/libg_nano.a(lib_a-strlen.o)
 .text          0x0000000000000000        0x0 /usr/bin/../lib/gcc/arm-none-eabi/7.2.1/../../../../arm-none-eabi/lib/thumb/v7e-m/fpv4-sp/hard/libg_nano.a(lib_a-strrchr.o)
 .data          0x0000000000000000        0x0 /usr/bin/../lib/gcc/arm-none-eabi/7.2.1/../../../../arm-none-eabi/lib/thumb/v7e-m/fpv4-sp/hard/libg_nano.a(lib_a-strrchr.o)
 .bss           0x0000000000000000        0x0 /usr/bin/../lib/gcc/arm-none-eabi/7.2.1/../../../../arm-none-eabi/lib/thumb/v7e-m/fpv4-sp/hard/libg_nano.a(lib_a-strrchr.o)
 .text          0x0000000000000000        0x0 /usr/bin/../lib/gcc/arm-none-eabi/7.2.1/../../../../arm-none-eabi/lib/thumb/v7e-m/fpv4-sp/hard/libg_nano.a(lib_a-mlock.o)
 .data          0x0000000000000000        0x0 /usr/bin/../lib/gcc/arm-none-eabi/7.2.1/../../../../arm-none-eabi/lib/thumb/v7e-m/fpv4-sp/hard/libg_nano.a(lib_a-mlock.o)
 .bss           0x0000000000000000        0x0 /usr/bin/../lib/gcc/arm-none-eabi/7.2.1/../../../../arm-none-eabi/lib/thumb/v7e-m/fpv4-sp/hard/libg_nano.a(lib_a-mlock.o)
 .text          0x0000000000000000        0x0 /usr/bin/../lib/gcc/arm-none-eabi/7.2.1/../../../../arm-none-eabi/lib/thumb/v7e-m/fpv4-sp/hard/libg_nano.a(lib_a-reent.o)
 .data          0x0000000000000000        0x0 /usr/bin/../lib/gcc/arm-none-eabi/7.2.1/../../../../arm-none-eabi/lib/thumb/v7e-m/fpv4-sp/hard/libg_nano.a(lib_a-reent.o)
 .bss           0x0000000000000000        0x0 /usr/bin/../lib/gcc/arm-none-eabi/7.2.1/../../../../arm-none-eabi/lib/thumb/v7e-m/fpv4-sp/hard/libg_nano.a(lib_a-reent.o)
 .text.cleanup_glue
                0x0000000000000000       0x1a /usr/bin/../lib/gcc/arm-none-eabi/7.2.1/../../../../arm-none-eabi/lib/thumb/v7e-m/fpv4-sp/hard/libg_nano.a(lib_a-reent.o)
 .text._reclaim_reent
                0x0000000000000000       0xb8 /usr/bin/../lib/gcc/arm-none-eabi/7.2.1/../../../../arm-none-eabi/lib/thumb/v7e-m/fpv4-sp/hard/libg_nano.a(lib_a-reent.o)
 .text          0x0000000000000000        0x0 /usr/bin/../lib/gcc/arm-none-eabi/7.2.1/../../../../arm-none-eabi/lib/thumb/v7e-m/fpv4-sp/hard/libg_nano.a(lib_a-strchr.o)
 .data          0x0000000000000000        0x0 /usr/bin/../lib/gcc/arm-none-eabi/7.2.1/../../../../arm-none-eabi/lib/thumb/v7e-m/fpv4-sp/hard/libg_nano.a(lib_a-strchr.o)
 .bss           0x0000000000000000        0x0 /usr/bin/../lib/gcc/arm-none-eabi/7.2.1/../../../../arm-none-eabi/lib/thumb/v7e-m/fpv4-sp/hard/libg_nano.a(lib_a-strchr.o)
 .text          0x0000000000000000        0x0 /usr/bin/../lib/gcc/arm-none-eabi/7.2.1/thumb/v7e-m/fpv4-sp/hard/crtend.o
 .data          0x0000000000000000        0x0 /usr/bin/../lib/gcc/arm-none-eabi/7.2.1/thumb/v7e-m/fpv4-sp/hard/crtend.o
 .bss           0x0000000000000000        0x0 /usr/bin/../lib/gcc/arm-none-eabi/7.2.1/thumb/v7e-m/fpv4-sp/hard/crtend.o
 .text          0x0000000000000000        0x0 /usr/bin/../lib/gcc/arm-none-eabi/7.2.1/thumb/v7e-m/fpv4-sp/hard/crtn.o
 .data          0x0000000000000000        0x0 /usr/bin/../lib/gcc/arm-none-eabi/7.2.1/thumb/v7e-m/fpv4-sp/hard/crtn.o
 .bss           0x0000000000000000        0x0 /usr/bin/../lib/gcc/arm-none-eabi/7.2.1/thumb/v7e-m/fpv4-sp/hard/crtn.o
 .text          0x0000000000000000        0x0 /usr/bin/../lib/gcc/arm-none-eabi/7.2.1/../../../../arm-none-eabi/lib/thumb/v7e-m/fpv4-sp/hard/libnosys.a(sbrk.o)
 .data          0x0000000000000000        0x0 /usr/bin/../lib/gcc/arm-none-eabi/7.2.1/../../../../arm-none-eabi/lib/thumb/v7e-m/fpv4-sp/hard/libnosys.a(sbrk.o)
 .bss           0x0000000000000000        0x0 /usr/bin/../lib/gcc/arm-none-eabi/7.2.1/../../../../arm-none-eabi/lib/thumb/v7e-m/fpv4-sp/hard/libnosys.a(sbrk.o)
 .text          0x0000000000000000        0x0 /usr/bin/../lib/gcc/arm-none-eabi/7.2.1/../../../../arm-none-eabi/lib/thumb/v7e-m/fpv4-sp/hard/libnosys.a(_exit.o)
 .data          0x0000000000000000        0x0 /usr/bin/../lib/gcc/arm-none-eabi/7.2.1/../../../../arm-none-eabi/lib/thumb/v7e-m/fpv4-sp/hard/libnosys.a(_exit.o)
 .bss           0x0000000000000000        0x0 /usr/bin/../lib/gcc/arm-none-eabi/7.2.1/../../../../arm-none-eabi/lib/thumb/v7e-m/fpv4-sp/hard/libnosys.a(_exit.o)

Memory Configuration

Name             Origin             Length             Attributes
FLASH            0x0000000000026000 0x00000000000d1000 xr
RAM              0x00000000200032c8 0x000000000003ca38 xrw
*default*        0x0000000000000000 0xffffffffffffffff

Linker script and memory map


.text           0x0000000000026000    0x1fdc0
 *(.isr_vector)
 .isr_vector    0x0000000000026000      0x200 CMakeFiles/dfu_no_serial_nrf52840_xxAA_s140_6.0.0.dir/home/mazzer/work/nordic/sdk/nRF5_SDK_15.0.0/modules/nrfx/mdk/gcc_startup_nrf52840.S.obj
                0x0000000000026000                __isr_vector
 *(.text*)
 .text          0x0000000000026200       0x40 /usr/bin/../lib/gcc/arm-none-eabi/7.2.1/thumb/v7e-m/fpv4-sp/hard/crtbegin.o
 .text          0x0000000000026240       0x74 /usr/bin/../lib/gcc/arm-none-eabi/7.2.1/../../../../arm-none-eabi/lib/thumb/v7e-m/fpv4-sp/hard/crt0.o
                0x0000000000026240                _mainCRTStartup
                0x0000000000026240                _start
 .text.sd_app_evt_wait
                0x00000000000262b4        0x4 CMakeFiles/dfu_no_serial_nrf52840_xxAA_s140_6.0.0.dir/src/main.c.obj
 .text.config_server_evt_cb
                0x00000000000262b8       0x88 CMakeFiles/dfu_no_serial_nrf52840_xxAA_s140_6.0.0.dir/src/main.c.obj
 .text.mesh_evt_handler
                0x0000000000026340       0xe0 CMakeFiles/dfu_no_serial_nrf52840_xxAA_s140_6.0.0.dir/src/main.c.obj
 .text.startup.main
                0x0000000000026420      0x448 CMakeFiles/dfu_no_serial_nrf52840_xxAA_s140_6.0.0.dir/src/main.c.obj
                0x0000000000026420                main
 .text.mesh_evt_handler
                0x0000000000026868       0x10 CMakeFiles/dfu_no_serial_nrf52840_xxAA_s140_6.0.0.dir/__/__/mesh/stack/src/mesh_stack.c.obj
 .text.mesh_stack_init
                0x0000000000026878       0x94 CMakeFiles/dfu_no_serial_nrf52840_xxAA_s140_6.0.0.dir/__/__/mesh/stack/src/mesh_stack.c.obj
                0x0000000000026878                mesh_stack_init
 .text.mesh_stack_start
                0x000000000002690c        0x4 CMakeFiles/dfu_no_serial_nrf52840_xxAA_s140_6.0.0.dir/__/__/mesh/stack/src/mesh_stack.c.obj
                0x000000000002690c                mesh_stack_start
 .text.mesh_stack_provisioning_data_store
                0x0000000000026910       0x78 CMakeFiles/dfu_no_serial_nrf52840_xxAA_s140_6.0.0.dir/__/__/mesh/stack/src/mesh_stack.c.obj
                0x0000000000026910                mesh_stack_provisioning_data_store
 .text.mesh_stack_config_clear
                0x0000000000026988       0x14 CMakeFiles/dfu_no_serial_nrf52840_xxAA_s140_6.0.0.dir/__/__/mesh/stack/src/mesh_stack.c.obj
                0x0000000000026988                mesh_stack_config_clear
 .text.mesh_stack_device_reset
                0x000000000002699c       0x20 CMakeFiles/dfu_no_serial_nrf52840_xxAA_s140_6.0.0.dir/__/__/mesh/stack/src/mesh_stack.c.obj
                0x000000000002699c                mesh_stack_device_reset
 .text.sd_evt_get
                0x00000000000269bc        0x4 CMakeFiles/dfu_no_serial_nrf52840_xxAA_s140_6.0.0.dir/__/common/src/mesh_softdevice_init.c.obj
 .text.sd_softdevice_enable
                0x00000000000269c0        0x4 CMakeFiles/dfu_no_serial_nrf52840_xxAA_s140_6.0.0.dir/__/common/src/mesh_softdevice_init.c.obj
 .text.sd_ble_enable
                0x00000000000269c4        0x4 CMakeFiles/dfu_no_serial_nrf52840_xxAA_s140_6.0.0.dir/__/common/src/mesh_softdevice_init.c.obj
 .text.SWI2_EGU2_IRQHandler
                0x00000000000269c8       0x1c CMakeFiles/dfu_no_serial_nrf52840_xxAA_s140_6.0.0.dir/__/common/src/mesh_softdevice_init.c.obj
                0x00000000000269c8                SWI2_EGU2_IRQHandler
 .text.mesh_softdevice_init
                0x00000000000269e4      0x1f8 CMakeFiles/dfu_no_serial_nrf52840_xxAA_s140_6.0.0.dir/__/common/src/mesh_softdevice_init.c.obj
                0x00000000000269e4                mesh_softdevice_init
 .text.prov_evt_handler
                0x0000000000026bdc       0x70 CMakeFiles/dfu_no_serial_nrf52840_xxAA_s140_6.0.0.dir/__/common/src/mesh_provisionee.c.obj
 .text.mesh_provisionee_prov_start
                0x0000000000026c4c       0x88 CMakeFiles/dfu_no_serial_nrf52840_xxAA_s140_6.0.0.dir/__/common/src/mesh_provisionee.c.obj
                0x0000000000026c4c                mesh_provisionee_prov_start
 .text.hal_led_mask_set
                0x0000000000026cd4       0x14 CMakeFiles/dfu_no_serial_nrf52840_xxAA_s140_6.0.0.dir/__/common/src/simple_hal.c.obj
                0x0000000000026cd4                hal_led_mask_set
 .text.hal_led_blink_ms
                0x0000000000026ce8       0x50 CMakeFiles/dfu_no_serial_nrf52840_xxAA_s140_6.0.0.dir/__/common/src/simple_hal.c.obj
                0x0000000000026ce8                hal_led_blink_ms
 .text.hal_leds_init
                0x0000000000026d38       0x3c CMakeFiles/dfu_no_serial_nrf52840_xxAA_s140_6.0.0.dir/__/common/src/simple_hal.c.obj
                0x0000000000026d38                hal_leds_init
 .text.GPIOTE_IRQHandler
                0x0000000000026d74       0x70 CMakeFiles/dfu_no_serial_nrf52840_xxAA_s140_6.0.0.dir/__/common/src/simple_hal.c.obj
                0x0000000000026d74                GPIOTE_IRQHandler
 .text.schedule_publication_timer
                0x0000000000026de4      0x2d0 CMakeFiles/dfu_no_serial_nrf52840_xxAA_s140_6.0.0.dir/__/__/mesh/access/src/access_publish.c.obj
 .text.publish_timer_tick
                0x00000000000270b4      0x140 CMakeFiles/dfu_no_serial_nrf52840_xxAA_s140_6.0.0.dir/__/__/mesh/access/src/access_publish.c.obj
 .text.access_publish_init
                0x00000000000271f4       0x38 CMakeFiles/dfu_no_serial_nrf52840_xxAA_s140_6.0.0.dir/__/__/mesh/access/src/access_publish.c.obj
                0x00000000000271f4                access_publish_init
 .text.access_publish_period_set
                0x000000000002722c      0x118 CMakeFiles/dfu_no_serial_nrf52840_xxAA_s140_6.0.0.dir/__/__/mesh/access/src/access_publish.c.obj
                0x000000000002722c                access_publish_period_set
 .text.access_publish_period_get
                0x0000000000027344       0x2c CMakeFiles/dfu_no_serial_nrf52840_xxAA_s140_6.0.0.dir/__/__/mesh/access/src/access_publish.c.obj
                0x0000000000027344                access_publish_period_get
 .text.flash_manager_mem_available
                0x0000000000027370        0x4 CMakeFiles/dfu_no_serial_nrf52840_xxAA_s140_6.0.0.dir/__/__/mesh/access/src/access.c.obj
 .text.flash_invalidate_complete
                0x0000000000027374        0x8 CMakeFiles/dfu_no_serial_nrf52840_xxAA_s140_6.0.0.dir/__/__/mesh/access/src/access.c.obj
 .text.access_flash_config_clear
                0x000000000002737c       0x28 CMakeFiles/dfu_no_serial_nrf52840_xxAA_s140_6.0.0.dir/__/__/mesh/access/src/access.c.obj
 .text.handle_incoming
                0x00000000000273a4      0x19c CMakeFiles/dfu_no_serial_nrf52840_xxAA_s140_6.0.0.dir/__/__/mesh/access/src/access.c.obj
 .text.mesh_evt_cb
                0x0000000000027540      0x158 CMakeFiles/dfu_no_serial_nrf52840_xxAA_s140_6.0.0.dir/__/__/mesh/access/src/access.c.obj
 .text.add_flash_manager
                0x0000000000027698       0x58 CMakeFiles/dfu_no_serial_nrf52840_xxAA_s140_6.0.0.dir/__/__/mesh/access/src/access.c.obj
 .text.flash_write_complete
                0x00000000000276f0       0x4c CMakeFiles/dfu_no_serial_nrf52840_xxAA_s140_6.0.0.dir/__/__/mesh/access/src/access.c.obj
 .text.access_flash_config_store
                0x000000000002773c      0x158 CMakeFiles/dfu_no_serial_nrf52840_xxAA_s140_6.0.0.dir/__/__/mesh/access/src/access.c.obj
                0x000000000002773c                access_flash_config_store
 .text.flash_remove_complete
                0x0000000000027894       0xb0 CMakeFiles/dfu_no_serial_nrf52840_xxAA_s140_6.0.0.dir/__/__/mesh/access/src/access.c.obj
 .text.access_flash_config_load
                0x0000000000027944      0x290 CMakeFiles/dfu_no_serial_nrf52840_xxAA_s140_6.0.0.dir/__/__/mesh/access/src/access.c.obj
                0x0000000000027944                access_flash_config_load
 .text.access_clear
                0x0000000000027bd4       0x6c CMakeFiles/dfu_no_serial_nrf52840_xxAA_s140_6.0.0.dir/__/__/mesh/access/src/access.c.obj
                0x0000000000027bd4                access_clear
 .text.access_init
                0x0000000000027c40       0xb4 CMakeFiles/dfu_no_serial_nrf52840_xxAA_s140_6.0.0.dir/__/__/mesh/access/src/access.c.obj
                0x0000000000027c40                access_init
 .text.access_model_add
                0x0000000000027cf4      0x20c CMakeFiles/dfu_no_serial_nrf52840_xxAA_s140_6.0.0.dir/__/__/mesh/access/src/access.c.obj
                0x0000000000027cf4                access_model_add
 .text.access_model_publish
                0x0000000000027f00      0x3b8 CMakeFiles/dfu_no_serial_nrf52840_xxAA_s140_6.0.0.dir/__/__/mesh/access/src/access.c.obj
                0x0000000000027f00                access_model_publish
 .text.access_model_reply
                0x00000000000282b8      0x3d4 CMakeFiles/dfu_no_serial_nrf52840_xxAA_s140_6.0.0.dir/__/__/mesh/access/src/access.c.obj
                0x00000000000282b8                access_model_reply
 .text.access_model_publish_address_set
                0x000000000002868c       0x3c CMakeFiles/dfu_no_serial_nrf52840_xxAA_s140_6.0.0.dir/__/__/mesh/access/src/access.c.obj
                0x000000000002868c                access_model_publish_address_set
 .text.access_model_publish_address_get
                0x00000000000286c8       0x2c CMakeFiles/dfu_no_serial_nrf52840_xxAA_s140_6.0.0.dir/__/__/mesh/access/src/access.c.obj
                0x00000000000286c8                access_model_publish_address_get
 .text.access_model_publish_retransmit_set
                0x00000000000286f4       0x58 CMakeFiles/dfu_no_serial_nrf52840_xxAA_s140_6.0.0.dir/__/__/mesh/access/src/access.c.obj
                0x00000000000286f4                access_model_publish_retransmit_set
 .text.access_model_publish_retransmit_get
                0x000000000002874c       0x2c CMakeFiles/dfu_no_serial_nrf52840_xxAA_s140_6.0.0.dir/__/__/mesh/access/src/access.c.obj
                0x000000000002874c                access_model_publish_retransmit_get
 .text.access_model_publish_period_set
                0x0000000000028778       0x78 CMakeFiles/dfu_no_serial_nrf52840_xxAA_s140_6.0.0.dir/__/__/mesh/access/src/access.c.obj
                0x0000000000028778                access_model_publish_period_set
 .text.access_model_publish_period_get
                0x00000000000287f0       0x40 CMakeFiles/dfu_no_serial_nrf52840_xxAA_s140_6.0.0.dir/__/__/mesh/access/src/access.c.obj
                0x00000000000287f0                access_model_publish_period_get
 .text.access_model_subscription_add
                0x0000000000028830       0x64 CMakeFiles/dfu_no_serial_nrf52840_xxAA_s140_6.0.0.dir/__/__/mesh/access/src/access.c.obj
                0x0000000000028830                access_model_subscription_add
 .text.access_model_subscription_remove
                0x0000000000028894       0x60 CMakeFiles/dfu_no_serial_nrf52840_xxAA_s140_6.0.0.dir/__/__/mesh/access/src/access.c.obj
                0x0000000000028894                access_model_subscription_remove
 .text.access_model_subscriptions_get
                0x00000000000288f4       0x80 CMakeFiles/dfu_no_serial_nrf52840_xxAA_s140_6.0.0.dir/__/__/mesh/access/src/access.c.obj
                0x00000000000288f4                access_model_subscriptions_get
 .text.access_model_application_bind
                0x0000000000028974       0x58 CMakeFiles/dfu_no_serial_nrf52840_xxAA_s140_6.0.0.dir/__/__/mesh/access/src/access.c.obj
                0x0000000000028974                access_model_application_bind
 .text.access_model_application_unbind
                0x00000000000289cc       0x58 CMakeFiles/dfu_no_serial_nrf52840_xxAA_s140_6.0.0.dir/__/__/mesh/access/src/access.c.obj
                0x00000000000289cc                access_model_application_unbind
 .text.access_model_applications_get
                0x0000000000028a24      0x100 CMakeFiles/dfu_no_serial_nrf52840_xxAA_s140_6.0.0.dir/__/__/mesh/access/src/access.c.obj
                0x0000000000028a24                access_model_applications_get
 .text.access_model_publish_application_set
                0x0000000000028b24       0x3c CMakeFiles/dfu_no_serial_nrf52840_xxAA_s140_6.0.0.dir/__/__/mesh/access/src/access.c.obj
                0x0000000000028b24                access_model_publish_application_set
 .text.access_model_publish_application_get
                0x0000000000028b60       0x2c CMakeFiles/dfu_no_serial_nrf52840_xxAA_s140_6.0.0.dir/__/__/mesh/access/src/access.c.obj
                0x0000000000028b60                access_model_publish_application_get
 .text.access_default_ttl_set
                0x0000000000028b8c       0x1c CMakeFiles/dfu_no_serial_nrf52840_xxAA_s140_6.0.0.dir/__/__/mesh/access/src/access.c.obj
                0x0000000000028b8c                access_default_ttl_set
 .text.access_default_ttl_get
                0x0000000000028ba8        0xc CMakeFiles/dfu_no_serial_nrf52840_xxAA_s140_6.0.0.dir/__/__/mesh/access/src/access.c.obj
                0x0000000000028ba8                access_default_ttl_get
 .text.access_model_publish_ttl_set
                0x0000000000028bb4       0x40 CMakeFiles/dfu_no_serial_nrf52840_xxAA_s140_6.0.0.dir/__/__/mesh/access/src/access.c.obj
                0x0000000000028bb4                access_model_publish_ttl_set
 .text.access_model_publish_ttl_get
                0x0000000000028bf4       0x2c CMakeFiles/dfu_no_serial_nrf52840_xxAA_s140_6.0.0.dir/__/__/mesh/access/src/access.c.obj
                0x0000000000028bf4                access_model_publish_ttl_get
 .text.access_element_location_get
                0x0000000000028c20       0x18 CMakeFiles/dfu_no_serial_nrf52840_xxAA_s140_6.0.0.dir/__/__/mesh/access/src/access.c.obj
                0x0000000000028c20                access_element_location_get
 .text.access_element_sig_model_count_get
                0x0000000000028c38       0x18 CMakeFiles/dfu_no_serial_nrf52840_xxAA_s140_6.0.0.dir/__/__/mesh/access/src/access.c.obj
                0x0000000000028c38                access_element_sig_model_count_get
 .text.access_element_vendor_model_count_get
                0x0000000000028c50       0x18 CMakeFiles/dfu_no_serial_nrf52840_xxAA_s140_6.0.0.dir/__/__/mesh/access/src/access.c.obj
                0x0000000000028c50                access_element_vendor_model_count_get
 .text.access_model_id_get
                0x0000000000028c68       0x40 CMakeFiles/dfu_no_serial_nrf52840_xxAA_s140_6.0.0.dir/__/__/mesh/access/src/access.c.obj
                0x0000000000028c68                access_model_id_get
 .text.access_handle_get
                0x0000000000028ca8       0x5c CMakeFiles/dfu_no_serial_nrf52840_xxAA_s140_6.0.0.dir/__/__/mesh/access/src/access.c.obj
                0x0000000000028ca8                access_handle_get
 .text.access_element_models_get
                0x0000000000028d04       0x60 CMakeFiles/dfu_no_serial_nrf52840_xxAA_s140_6.0.0.dir/__/__/mesh/access/src/access.c.obj
                0x0000000000028d04                access_element_models_get
 .text.access_model_p_args_get
                0x0000000000028d64       0x2c CMakeFiles/dfu_no_serial_nrf52840_xxAA_s140_6.0.0.dir/__/__/mesh/access/src/access.c.obj
                0x0000000000028d64                access_model_p_args_get
 .text.access_model_publication_stop
                0x0000000000028d90       0x5c CMakeFiles/dfu_no_serial_nrf52840_xxAA_s140_6.0.0.dir/__/__/mesh/access/src/access.c.obj
                0x0000000000028d90                access_model_publication_stop
 .text.access_model_publication_by_appkey_stop
                0x0000000000028dec       0x98 CMakeFiles/dfu_no_serial_nrf52840_xxAA_s140_6.0.0.dir/__/__/mesh/access/src/access.c.obj
                0x0000000000028dec                access_model_publication_by_appkey_stop
 .text.remove_and_reschedule
                0x0000000000028e84       0xc8 CMakeFiles/dfu_no_serial_nrf52840_xxAA_s140_6.0.0.dir/__/__/mesh/access/src/access_reliable.c.obj
 .text.reliable_timer_cb
                0x0000000000028f4c      0x1a0 CMakeFiles/dfu_no_serial_nrf52840_xxAA_s140_6.0.0.dir/__/__/mesh/access/src/access_reliable.c.obj
 .text.access_reliable_message_rx_cb
                0x00000000000290ec       0x70 CMakeFiles/dfu_no_serial_nrf52840_xxAA_s140_6.0.0.dir/__/__/mesh/access/src/access_reliable.c.obj
                0x00000000000290ec                access_reliable_message_rx_cb
 .text.access_reliable_init
                0x000000000002915c       0x1c CMakeFiles/dfu_no_serial_nrf52840_xxAA_s140_6.0.0.dir/__/__/mesh/access/src/access_reliable.c.obj
                0x000000000002915c                access_reliable_init
 .text.access_reliable_cancel_all
                0x0000000000029178       0xa8 CMakeFiles/dfu_no_serial_nrf52840_xxAA_s140_6.0.0.dir/__/__/mesh/access/src/access_reliable.c.obj
                0x0000000000029178                access_reliable_cancel_all
 .text.access_model_reliable_cancel
                0x0000000000029220       0x78 CMakeFiles/dfu_no_serial_nrf52840_xxAA_s140_6.0.0.dir/__/__/mesh/access/src/access_reliable.c.obj
                0x0000000000029220                access_model_reliable_cancel
 .text.addr_nonvirtual_to_dsm_entry
                0x0000000000029298       0x48 CMakeFiles/dfu_no_serial_nrf52840_xxAA_s140_6.0.0.dir/__/__/mesh/access/src/device_state_manager.c.obj
 .text.addr_nonvirtual_to_flash_entry
                0x00000000000292e0       0x10 CMakeFiles/dfu_no_serial_nrf52840_xxAA_s140_6.0.0.dir/__/__/mesh/access/src/device_state_manager.c.obj
 .text.devkey_to_flash_entry
                0x00000000000292f0       0x28 CMakeFiles/dfu_no_serial_nrf52840_xxAA_s140_6.0.0.dir/__/__/mesh/access/src/device_state_manager.c.obj
 .text.addr_virtual_to_flash_entry
                0x0000000000029318       0x18 CMakeFiles/dfu_no_serial_nrf52840_xxAA_s140_6.0.0.dir/__/__/mesh/access/src/device_state_manager.c.obj
 .text.addr_unicast_to_dsm_entry
                0x0000000000029330        0xc CMakeFiles/dfu_no_serial_nrf52840_xxAA_s140_6.0.0.dir/__/__/mesh/access/src/device_state_manager.c.obj
 .text.addr_unicast_to_flash_entry
                0x000000000002933c       0x10 CMakeFiles/dfu_no_serial_nrf52840_xxAA_s140_6.0.0.dir/__/__/mesh/access/src/device_state_manager.c.obj
 .text.flash_mem_listener_callback
                0x000000000002934c       0x1c CMakeFiles/dfu_no_serial_nrf52840_xxAA_s140_6.0.0.dir/__/__/mesh/access/src/device_state_manager.c.obj
 .text.appkey_to_flash_entry
                0x0000000000029368       0x54 CMakeFiles/dfu_no_serial_nrf52840_xxAA_s140_6.0.0.dir/__/__/mesh/access/src/device_state_manager.c.obj
 .text.subnet_to_flash_entry
                0x00000000000293bc       0x60 CMakeFiles/dfu_no_serial_nrf52840_xxAA_s140_6.0.0.dir/__/__/mesh/access/src/device_state_manager.c.obj
 .text.reset_flash_area
                0x000000000002941c       0x28 CMakeFiles/dfu_no_serial_nrf52840_xxAA_s140_6.0.0.dir/__/__/mesh/access/src/device_state_manager.c.obj
 .text.build_flash_area
                0x0000000000029444       0x90 CMakeFiles/dfu_no_serial_nrf52840_xxAA_s140_6.0.0.dir/__/__/mesh/access/src/device_state_manager.c.obj
 .text.flash_invalidate_complete
                0x00000000000294d4       0x54 CMakeFiles/dfu_no_serial_nrf52840_xxAA_s140_6.0.0.dir/__/__/mesh/access/src/device_state_manager.c.obj
 .text.flash_write_complete
                0x0000000000029528       0x50 CMakeFiles/dfu_no_serial_nrf52840_xxAA_s140_6.0.0.dir/__/__/mesh/access/src/device_state_manager.c.obj
 .text.devkey_to_dsm_entry
                0x0000000000029578       0x70 CMakeFiles/dfu_no_serial_nrf52840_xxAA_s140_6.0.0.dir/__/__/mesh/access/src/device_state_manager.c.obj
 .text.addr_virtual_to_dsm_entry
                0x00000000000295e8       0x60 CMakeFiles/dfu_no_serial_nrf52840_xxAA_s140_6.0.0.dir/__/__/mesh/access/src/device_state_manager.c.obj
 .text.appkey_to_dsm_entry
                0x0000000000029648       0xf4 CMakeFiles/dfu_no_serial_nrf52840_xxAA_s140_6.0.0.dir/__/__/mesh/access/src/device_state_manager.c.obj
 .text.subnet_to_dsm_entry
                0x000000000002973c      0x11c CMakeFiles/dfu_no_serial_nrf52840_xxAA_s140_6.0.0.dir/__/__/mesh/access/src/device_state_manager.c.obj
 .text.flash_remove_complete
                0x0000000000029858       0x90 CMakeFiles/dfu_no_serial_nrf52840_xxAA_s140_6.0.0.dir/__/__/mesh/access/src/device_state_manager.c.obj
 .text.address_delete_if_unused
                0x00000000000298e8       0xf4 CMakeFiles/dfu_no_serial_nrf52840_xxAA_s140_6.0.0.dir/__/__/mesh/access/src/device_state_manager.c.obj
 .text.flash_update_all
                0x00000000000299dc      0x184 CMakeFiles/dfu_no_serial_nrf52840_xxAA_s140_6.0.0.dir/__/__/mesh/access/src/device_state_manager.c.obj
 .text.mesh_evt_handler
                0x0000000000029b60      0x258 CMakeFiles/dfu_no_serial_nrf52840_xxAA_s140_6.0.0.dir/__/__/mesh/access/src/device_state_manager.c.obj
 .text.dsm_flash_config_load
                0x0000000000029db8      0x1f8 CMakeFiles/dfu_no_serial_nrf52840_xxAA_s140_6.0.0.dir/__/__/mesh/access/src/device_state_manager.c.obj
                0x0000000000029db8                dsm_flash_config_load
 .text.dsm_flash_area_get
                0x0000000000029fb0        0xc CMakeFiles/dfu_no_serial_nrf52840_xxAA_s140_6.0.0.dir/__/__/mesh/access/src/device_state_manager.c.obj
                0x0000000000029fb0                dsm_flash_area_get
 .text.dsm_clear
                0x0000000000029fbc      0x100 CMakeFiles/dfu_no_serial_nrf52840_xxAA_s140_6.0.0.dir/__/__/mesh/access/src/device_state_manager.c.obj
                0x0000000000029fbc                dsm_clear
 .text.dsm_init
                0x000000000002a0bc       0xbc CMakeFiles/dfu_no_serial_nrf52840_xxAA_s140_6.0.0.dir/__/__/mesh/access/src/device_state_manager.c.obj
                0x000000000002a0bc                dsm_init
 .text.dsm_local_unicast_addresses_set
                0x000000000002a178       0xbc CMakeFiles/dfu_no_serial_nrf52840_xxAA_s140_6.0.0.dir/__/__/mesh/access/src/device_state_manager.c.obj
                0x000000000002a178                dsm_local_unicast_addresses_set
 .text.dsm_local_unicast_addresses_get
                0x000000000002a234       0x20 CMakeFiles/dfu_no_serial_nrf52840_xxAA_s140_6.0.0.dir/__/__/mesh/access/src/device_state_manager.c.obj
                0x000000000002a234                dsm_local_unicast_addresses_get
 .text.dsm_address_publish_add
                0x000000000002a254      0x318 CMakeFiles/dfu_no_serial_nrf52840_xxAA_s140_6.0.0.dir/__/__/mesh/access/src/device_state_manager.c.obj
                0x000000000002a254                dsm_address_publish_add
 .text.dsm_address_publish_add_handle
                0x000000000002a56c       0x54 CMakeFiles/dfu_no_serial_nrf52840_xxAA_s140_6.0.0.dir/__/__/mesh/access/src/device_state_manager.c.obj
                0x000000000002a56c                dsm_address_publish_add_handle
 .text.dsm_address_publish_virtual_add
                0x000000000002a5c0      0x2b4 CMakeFiles/dfu_no_serial_nrf52840_xxAA_s140_6.0.0.dir/__/__/mesh/access/src/device_state_manager.c.obj
                0x000000000002a5c0                dsm_address_publish_virtual_add
 .text.dsm_address_publish_remove
                0x000000000002a874       0xcc CMakeFiles/dfu_no_serial_nrf52840_xxAA_s140_6.0.0.dir/__/__/mesh/access/src/device_state_manager.c.obj
                0x000000000002a874                dsm_address_publish_remove
 .text.dsm_address_subscription_add
                0x000000000002a940      0x354 CMakeFiles/dfu_no_serial_nrf52840_xxAA_s140_6.0.0.dir/__/__/mesh/access/src/device_state_manager.c.obj
                0x000000000002a940                dsm_address_subscription_add
 .text.dsm_address_subscription_virtual_add
                0x000000000002ac94      0x2b4 CMakeFiles/dfu_no_serial_nrf52840_xxAA_s140_6.0.0.dir/__/__/mesh/access/src/device_state_manager.c.obj
                0x000000000002ac94                dsm_address_subscription_virtual_add
 .text.dsm_address_subscription_add_handle
                0x000000000002af48       0x54 CMakeFiles/dfu_no_serial_nrf52840_xxAA_s140_6.0.0.dir/__/__/mesh/access/src/device_state_manager.c.obj
                0x000000000002af48                dsm_address_subscription_add_handle
 .text.dsm_address_subscription_get
                0x000000000002af9c       0x5c CMakeFiles/dfu_no_serial_nrf52840_xxAA_s140_6.0.0.dir/__/__/mesh/access/src/device_state_manager.c.obj
                0x000000000002af9c                dsm_address_subscription_get
 .text.dsm_address_subscription_remove
                0x000000000002aff8       0x90 CMakeFiles/dfu_no_serial_nrf52840_xxAA_s140_6.0.0.dir/__/__/mesh/access/src/device_state_manager.c.obj
                0x000000000002aff8                dsm_address_subscription_remove
 .text.dsm_address_get
                0x000000000002b088       0x78 CMakeFiles/dfu_no_serial_nrf52840_xxAA_s140_6.0.0.dir/__/__/mesh/access/src/device_state_manager.c.obj
                0x000000000002b088                dsm_address_get
 .text.dsm_address_handle_get
                0x000000000002b100      0x3a4 CMakeFiles/dfu_no_serial_nrf52840_xxAA_s140_6.0.0.dir/__/__/mesh/access/src/device_state_manager.c.obj
                0x000000000002b100                dsm_address_handle_get
 .text.dsm_net_key_index_to_subnet_handle
                0x000000000002b4a4       0x5c CMakeFiles/dfu_no_serial_nrf52840_xxAA_s140_6.0.0.dir/__/__/mesh/access/src/device_state_manager.c.obj
                0x000000000002b4a4                dsm_net_key_index_to_subnet_handle
 .text.dsm_subnet_handle_get
                0x000000000002b500       0xa8 CMakeFiles/dfu_no_serial_nrf52840_xxAA_s140_6.0.0.dir/__/__/mesh/access/src/device_state_manager.c.obj
                0x000000000002b500                dsm_subnet_handle_get
 .text.dsm_appkey_index_to_appkey_handle
                0x000000000002b5a8       0xa0 CMakeFiles/dfu_no_serial_nrf52840_xxAA_s140_6.0.0.dir/__/__/mesh/access/src/device_state_manager.c.obj
                0x000000000002b5a8                dsm_appkey_index_to_appkey_handle
 .text.dsm_appkey_handle_get
                0x000000000002b648       0x44 CMakeFiles/dfu_no_serial_nrf52840_xxAA_s140_6.0.0.dir/__/__/mesh/access/src/device_state_manager.c.obj
                0x000000000002b648                dsm_appkey_handle_get
 .text.dsm_appkey_handle_to_appkey_index
                0x000000000002b68c       0x34 CMakeFiles/dfu_no_serial_nrf52840_xxAA_s140_6.0.0.dir/__/__/mesh/access/src/device_state_manager.c.obj
                0x000000000002b68c                dsm_appkey_handle_to_appkey_index
 .text.dsm_appkey_handle_to_subnet_handle
                0x000000000002b6c0       0xb8 CMakeFiles/dfu_no_serial_nrf52840_xxAA_s140_6.0.0.dir/__/__/mesh/access/src/device_state_manager.c.obj
                0x000000000002b6c0                dsm_appkey_handle_to_subnet_handle
 .text.dsm_subnet_add
                0x000000000002b778      0x210 CMakeFiles/dfu_no_serial_nrf52840_xxAA_s140_6.0.0.dir/__/__/mesh/access/src/device_state_manager.c.obj
                0x000000000002b778                dsm_subnet_add
 .text.dsm_subnet_kr_phase_get
                0x000000000002b988       0x30 CMakeFiles/dfu_no_serial_nrf52840_xxAA_s140_6.0.0.dir/__/__/mesh/access/src/device_state_manager.c.obj
                0x000000000002b988                dsm_subnet_kr_phase_get
 .text.dsm_subnet_update
                0x000000000002b9b8      0x118 CMakeFiles/dfu_no_serial_nrf52840_xxAA_s140_6.0.0.dir/__/__/mesh/access/src/device_state_manager.c.obj
                0x000000000002b9b8                dsm_subnet_update
 .text.dsm_subnet_update_swap_keys
                0x000000000002bad0       0xa8 CMakeFiles/dfu_no_serial_nrf52840_xxAA_s140_6.0.0.dir/__/__/mesh/access/src/device_state_manager.c.obj
                0x000000000002bad0                dsm_subnet_update_swap_keys
 .text.dsm_subnet_update_commit
                0x000000000002bb78      0x1b8 CMakeFiles/dfu_no_serial_nrf52840_xxAA_s140_6.0.0.dir/__/__/mesh/access/src/device_state_manager.c.obj
                0x000000000002bb78                dsm_subnet_update_commit
 .text.dsm_subnet_delete
                0x000000000002bd30      0x330 CMakeFiles/dfu_no_serial_nrf52840_xxAA_s140_6.0.0.dir/__/__/mesh/access/src/device_state_manager.c.obj
                0x000000000002bd30                dsm_subnet_delete
 .text.dsm_subnet_get_all
                0x000000000002c060       0x90 CMakeFiles/dfu_no_serial_nrf52840_xxAA_s140_6.0.0.dir/__/__/mesh/access/src/device_state_manager.c.obj
                0x000000000002c060                dsm_subnet_get_all
 .text.dsm_devkey_add
                0x000000000002c0f0      0x108 CMakeFiles/dfu_no_serial_nrf52840_xxAA_s140_6.0.0.dir/__/__/mesh/access/src/device_state_manager.c.obj
                0x000000000002c0f0                dsm_devkey_add
 .text.dsm_appkey_add
                0x000000000002c1f8      0x288 CMakeFiles/dfu_no_serial_nrf52840_xxAA_s140_6.0.0.dir/__/__/mesh/access/src/device_state_manager.c.obj
                0x000000000002c1f8                dsm_appkey_add
 .text.dsm_appkey_update
                0x000000000002c480       0xf8 CMakeFiles/dfu_no_serial_nrf52840_xxAA_s140_6.0.0.dir/__/__/mesh/access/src/device_state_manager.c.obj
                0x000000000002c480                dsm_appkey_update
 .text.dsm_appkey_delete
                0x000000000002c578       0x68 CMakeFiles/dfu_no_serial_nrf52840_xxAA_s140_6.0.0.dir/__/__/mesh/access/src/device_state_manager.c.obj
                0x000000000002c578                dsm_appkey_delete
 .text.dsm_appkey_get_all
                0x000000000002c5e0      0x15c CMakeFiles/dfu_no_serial_nrf52840_xxAA_s140_6.0.0.dir/__/__/mesh/access/src/device_state_manager.c.obj
                0x000000000002c5e0                dsm_appkey_get_all
 .text.dsm_tx_secmat_get
                0x000000000002c73c       0xdc CMakeFiles/dfu_no_serial_nrf52840_xxAA_s140_6.0.0.dir/__/__/mesh/access/src/device_state_manager.c.obj
                0x000000000002c73c                dsm_tx_secmat_get
 .text.dsm_net_secmat_from_keyindex_get
                0x000000000002c818       0x7c CMakeFiles/dfu_no_serial_nrf52840_xxAA_s140_6.0.0.dir/__/__/mesh/access/src/device_state_manager.c.obj
                0x000000000002c818                dsm_net_secmat_from_keyindex_get
 .text.nrf_mesh_net_secmat_next_get
                0x000000000002c894      0x230 CMakeFiles/dfu_no_serial_nrf52840_xxAA_s140_6.0.0.dir/__/__/mesh/access/src/device_state_manager.c.obj
                0x000000000002c894                nrf_mesh_net_secmat_next_get
 .text.nrf_mesh_app_secmat_next_get
                0x000000000002cac4      0x278 CMakeFiles/dfu_no_serial_nrf52840_xxAA_s140_6.0.0.dir/__/__/mesh/access/src/device_state_manager.c.obj
                0x000000000002cac4                nrf_mesh_app_secmat_next_get
 .text.nrf_mesh_devkey_secmat_get
                0x000000000002cd3c       0x30 CMakeFiles/dfu_no_serial_nrf52840_xxAA_s140_6.0.0.dir/__/__/mesh/access/src/device_state_manager.c.obj
                0x000000000002cd3c                nrf_mesh_devkey_secmat_get
 .text.nrf_mesh_beacon_info_next_get
                0x000000000002cd6c      0x170 CMakeFiles/dfu_no_serial_nrf52840_xxAA_s140_6.0.0.dir/__/__/mesh/access/src/device_state_manager.c.obj
                0x000000000002cd6c                nrf_mesh_beacon_info_next_get
 .text.nrf_mesh_rx_address_get
                0x000000000002cedc      0x570 CMakeFiles/dfu_no_serial_nrf52840_xxAA_s140_6.0.0.dir/__/__/mesh/access/src/device_state_manager.c.obj
                0x000000000002cedc                nrf_mesh_rx_address_get
 .text.nrf_mesh_unicast_address_get
                0x000000000002d44c       0x24 CMakeFiles/dfu_no_serial_nrf52840_xxAA_s140_6.0.0.dir/__/__/mesh/access/src/device_state_manager.c.obj
                0x000000000002d44c                nrf_mesh_unicast_address_get
 .text.config_composition_data_get
                0x000000000002d470      0x1cc CMakeFiles/dfu_no_serial_nrf52840_xxAA_s140_6.0.0.dir/__/__/models/config/src/composition_data.c.obj
                0x000000000002d470                config_composition_data_get
 .text.config_server_heartbeat_publication_count_decrement
                0x000000000002d63c       0x1c CMakeFiles/dfu_no_serial_nrf52840_xxAA_s140_6.0.0.dir/__/__/models/config/src/config_server.c.obj
 .text.config_server_heartbeat_publication_params_get
                0x000000000002d658       0x38 CMakeFiles/dfu_no_serial_nrf52840_xxAA_s140_6.0.0.dir/__/__/models/config/src/config_server.c.obj
 .text.handle_config_network_transmit_set
                0x000000000002d690      0x118 CMakeFiles/dfu_no_serial_nrf52840_xxAA_s140_6.0.0.dir/__/__/models/config/src/config_server.c.obj
 .text.handle_node_reset
                0x000000000002d7a8       0x30 CMakeFiles/dfu_no_serial_nrf52840_xxAA_s140_6.0.0.dir/__/__/models/config/src/config_server.c.obj
 .text.handle_config_relay_set
                0x000000000002d7d8      0x1a8 CMakeFiles/dfu_no_serial_nrf52840_xxAA_s140_6.0.0.dir/__/__/models/config/src/config_server.c.obj
 .text.send_subscription_status
                0x000000000002d980       0x50 CMakeFiles/dfu_no_serial_nrf52840_xxAA_s140_6.0.0.dir/__/__/models/config/src/config_server.c.obj
 .text.handle_netkey_get
                0x000000000002d9d0       0x70 CMakeFiles/dfu_no_serial_nrf52840_xxAA_s140_6.0.0.dir/__/__/models/config/src/config_server.c.obj
 .text.handle_model_app_bind_unbind
                0x000000000002da40      0x228 CMakeFiles/dfu_no_serial_nrf52840_xxAA_s140_6.0.0.dir/__/__/models/config/src/config_server.c.obj
 .text.status_error_sub_send
                0x000000000002dc68      0x180 CMakeFiles/dfu_no_serial_nrf52840_xxAA_s140_6.0.0.dir/__/__/models/config/src/config_server.c.obj
 .text.send_publication_status
                0x000000000002dde8      0x1a8 CMakeFiles/dfu_no_serial_nrf52840_xxAA_s140_6.0.0.dir/__/__/models/config/src/config_server.c.obj
 .text.handle_config_key_refresh_phase_set
                0x000000000002df90       0xf0 CMakeFiles/dfu_no_serial_nrf52840_xxAA_s140_6.0.0.dir/__/__/models/config/src/config_server.c.obj
 .text.handle_config_default_ttl_set
                0x000000000002e080       0x70 CMakeFiles/dfu_no_serial_nrf52840_xxAA_s140_6.0.0.dir/__/__/models/config/src/config_server.c.obj
 .text.handle_heartbeat_publication_set
                0x000000000002e0f0      0x168 CMakeFiles/dfu_no_serial_nrf52840_xxAA_s140_6.0.0.dir/__/__/models/config/src/config_server.c.obj
 .text.mesh_event_cb
                0x000000000002e258       0x70 CMakeFiles/dfu_no_serial_nrf52840_xxAA_s140_6.0.0.dir/__/__/models/config/src/config_server.c.obj
 .text.handle_node_identity_set
                0x000000000002e2c8       0x48 CMakeFiles/dfu_no_serial_nrf52840_xxAA_s140_6.0.0.dir/__/__/models/config/src/config_server.c.obj
 .text.handle_node_identity_get
                0x000000000002e310       0x44 CMakeFiles/dfu_no_serial_nrf52840_xxAA_s140_6.0.0.dir/__/__/models/config/src/config_server.c.obj
 .text.handle_config_gatt_proxy_set
                0x000000000002e354       0x40 CMakeFiles/dfu_no_serial_nrf52840_xxAA_s140_6.0.0.dir/__/__/models/config/src/config_server.c.obj
 .text.handle_config_friend_set
                0x000000000002e394       0x40 CMakeFiles/dfu_no_serial_nrf52840_xxAA_s140_6.0.0.dir/__/__/models/config/src/config_server.c.obj
 .text.status_error_pub_send
                0x000000000002e3d4       0xc8 CMakeFiles/dfu_no_serial_nrf52840_xxAA_s140_6.0.0.dir/__/__/models/config/src/config_server.c.obj
 .text.handle_config_key_refresh_phase_get
                0x000000000002e49c       0x70 CMakeFiles/dfu_no_serial_nrf52840_xxAA_s140_6.0.0.dir/__/__/models/config/src/config_server.c.obj
 .text.handle_config_default_ttl_get
                0x000000000002e50c       0x48 CMakeFiles/dfu_no_serial_nrf52840_xxAA_s140_6.0.0.dir/__/__/models/config/src/config_server.c.obj
 .text.handle_config_beacon_set
                0x000000000002e554       0x80 CMakeFiles/dfu_no_serial_nrf52840_xxAA_s140_6.0.0.dir/__/__/models/config/src/config_server.c.obj
 .text.handle_composition_data_get
                0x000000000002e5d4       0x64 CMakeFiles/dfu_no_serial_nrf52840_xxAA_s140_6.0.0.dir/__/__/models/config/src/config_server.c.obj
 .text.handle_appkey_update
                0x000000000002e638      0x108 CMakeFiles/dfu_no_serial_nrf52840_xxAA_s140_6.0.0.dir/__/__/models/config/src/config_server.c.obj
 .text.handle_model_app_get
                0x000000000002e740      0x230 CMakeFiles/dfu_no_serial_nrf52840_xxAA_s140_6.0.0.dir/__/__/models/config/src/config_server.c.obj
 .text.handle_appkey_get
                0x000000000002e970      0x100 CMakeFiles/dfu_no_serial_nrf52840_xxAA_s140_6.0.0.dir/__/__/models/config/src/config_server.c.obj
 .text.handle_heartbeat_subscription_get
                0x000000000002ea70       0xdc CMakeFiles/dfu_no_serial_nrf52840_xxAA_s140_6.0.0.dir/__/__/models/config/src/config_server.c.obj
 .text.handle_config_gatt_proxy_get
                0x000000000002eb4c       0x38 CMakeFiles/dfu_no_serial_nrf52840_xxAA_s140_6.0.0.dir/__/__/models/config/src/config_server.c.obj
 .text.handle_config_friend_get
                0x000000000002eb84       0x38 CMakeFiles/dfu_no_serial_nrf52840_xxAA_s140_6.0.0.dir/__/__/models/config/src/config_server.c.obj
 .text.handle_heartbeat_subscription_set
                0x000000000002ebbc      0x114 CMakeFiles/dfu_no_serial_nrf52840_xxAA_s140_6.0.0.dir/__/__/models/config/src/config_server.c.obj
 .text.handle_heartbeat_publication_get
                0x000000000002ecd0       0xcc CMakeFiles/dfu_no_serial_nrf52840_xxAA_s140_6.0.0.dir/__/__/models/config/src/config_server.c.obj
 .text.handle_config_beacon_get
                0x000000000002ed9c       0x40 CMakeFiles/dfu_no_serial_nrf52840_xxAA_s140_6.0.0.dir/__/__/models/config/src/config_server.c.obj
 .text.handle_appkey_delete
                0x000000000002eddc      0x11c CMakeFiles/dfu_no_serial_nrf52840_xxAA_s140_6.0.0.dir/__/__/models/config/src/config_server.c.obj
 .text.handle_appkey_add
                0x000000000002eef8      0x124 CMakeFiles/dfu_no_serial_nrf52840_xxAA_s140_6.0.0.dir/__/__/models/config/src/config_server.c.obj
 .text.handle_config_vendor_model_subscription_get
                0x000000000002f01c      0x188 CMakeFiles/dfu_no_serial_nrf52840_xxAA_s140_6.0.0.dir/__/__/models/config/src/config_server.c.obj
 .text.handle_netkey_add_update
                0x000000000002f1a4       0xec CMakeFiles/dfu_no_serial_nrf52840_xxAA_s140_6.0.0.dir/__/__/models/config/src/config_server.c.obj
 .text.handle_netkey_delete
                0x000000000002f290      0x14c CMakeFiles/dfu_no_serial_nrf52840_xxAA_s140_6.0.0.dir/__/__/models/config/src/config_server.c.obj
 .text.handle_config_network_transmit_get
                0x000000000002f3dc       0x94 CMakeFiles/dfu_no_serial_nrf52840_xxAA_s140_6.0.0.dir/__/__/models/config/src/config_server.c.obj
 .text.handle_config_model_publication_get
                0x000000000002f470      0x144 CMakeFiles/dfu_no_serial_nrf52840_xxAA_s140_6.0.0.dir/__/__/models/config/src/config_server.c.obj
 .text.handle_config_relay_get
                0x000000000002f5b4       0xcc CMakeFiles/dfu_no_serial_nrf52840_xxAA_s140_6.0.0.dir/__/__/models/config/src/config_server.c.obj
 .text.handle_config_model_publication_set
                0x000000000002f680      0x3d4 CMakeFiles/dfu_no_serial_nrf52840_xxAA_s140_6.0.0.dir/__/__/models/config/src/config_server.c.obj
 .text.handle_config_model_subscription_delete_all
                0x000000000002fa54      0x2ec CMakeFiles/dfu_no_serial_nrf52840_xxAA_s140_6.0.0.dir/__/__/models/config/src/config_server.c.obj
 .text.handle_config_model_subscription_virtual_address_delete
                0x000000000002fd40      0x2e0 CMakeFiles/dfu_no_serial_nrf52840_xxAA_s140_6.0.0.dir/__/__/models/config/src/config_server.c.obj
 .text.handle_config_model_subscription_virtual_address_add
                0x0000000000030020      0x2cc CMakeFiles/dfu_no_serial_nrf52840_xxAA_s140_6.0.0.dir/__/__/models/config/src/config_server.c.obj
 .text.handle_config_model_subscription_delete
                0x00000000000302ec      0x2dc CMakeFiles/dfu_no_serial_nrf52840_xxAA_s140_6.0.0.dir/__/__/models/config/src/config_server.c.obj
 .text.handle_config_model_subscription_add
                0x00000000000305c8      0x2a8 CMakeFiles/dfu_no_serial_nrf52840_xxAA_s140_6.0.0.dir/__/__/models/config/src/config_server.c.obj
 .text.handle_config_model_subscription_virtual_address_overwrite
                0x0000000000030870      0x354 CMakeFiles/dfu_no_serial_nrf52840_xxAA_s140_6.0.0.dir/__/__/models/config/src/config_server.c.obj
 .text.handle_config_model_subscription_overwrite
                0x0000000000030bc4      0x334 CMakeFiles/dfu_no_serial_nrf52840_xxAA_s140_6.0.0.dir/__/__/models/config/src/config_server.c.obj
 .text.handle_config_sig_model_subscription_get
                0x0000000000030ef8      0x29c CMakeFiles/dfu_no_serial_nrf52840_xxAA_s140_6.0.0.dir/__/__/models/config/src/config_server.c.obj
 .text.config_server_init
                0x0000000000031194       0x70 CMakeFiles/dfu_no_serial_nrf52840_xxAA_s140_6.0.0.dir/__/__/models/config/src/config_server.c.obj
                0x0000000000031194                config_server_init
 .text.config_server_bind
                0x0000000000031204       0x10 CMakeFiles/dfu_no_serial_nrf52840_xxAA_s140_6.0.0.dir/__/__/models/config/src/config_server.c.obj
                0x0000000000031204                config_server_bind
 .text.packed_index_list_create
                0x0000000000031214       0x3c CMakeFiles/dfu_no_serial_nrf52840_xxAA_s140_6.0.0.dir/__/__/models/config/src/packed_index_list.c.obj
                0x0000000000031214                packed_index_list_create
 .text.attention_timer_handler
                0x0000000000031250       0x6c CMakeFiles/dfu_no_serial_nrf52840_xxAA_s140_6.0.0.dir/__/__/models/health/src/health_server.c.obj
 .text.handle_attention_get
                0x00000000000312bc       0x40 CMakeFiles/dfu_no_serial_nrf52840_xxAA_s140_6.0.0.dir/__/__/models/health/src/health_server.c.obj
 .text.handle_period_get
                0x00000000000312fc       0x3c CMakeFiles/dfu_no_serial_nrf52840_xxAA_s140_6.0.0.dir/__/__/models/health/src/health_server.c.obj
 .text.handle_attention_set
                0x0000000000031338       0xdc CMakeFiles/dfu_no_serial_nrf52840_xxAA_s140_6.0.0.dir/__/__/models/health/src/health_server.c.obj
 .text.handle_period_set
                0x0000000000031414       0x54 CMakeFiles/dfu_no_serial_nrf52840_xxAA_s140_6.0.0.dir/__/__/models/health/src/health_server.c.obj
 .text.send_fault_status
                0x0000000000031468      0x3b4 CMakeFiles/dfu_no_serial_nrf52840_xxAA_s140_6.0.0.dir/__/__/models/health/src/health_server.c.obj
 .text.health_publish_timeout_handler
                0x000000000003181c        0xc CMakeFiles/dfu_no_serial_nrf52840_xxAA_s140_6.0.0.dir/__/__/models/health/src/health_server.c.obj
 .text.handle_fault_test
                0x0000000000031828       0x8c CMakeFiles/dfu_no_serial_nrf52840_xxAA_s140_6.0.0.dir/__/__/models/health/src/health_server.c.obj
 .text.handle_fault_clear
                0x00000000000318b4       0x54 CMakeFiles/dfu_no_serial_nrf52840_xxAA_s140_6.0.0.dir/__/__/models/health/src/health_server.c.obj
 .text.handle_fault_get
                0x0000000000031908       0x40 CMakeFiles/dfu_no_serial_nrf52840_xxAA_s140_6.0.0.dir/__/__/models/health/src/health_server.c.obj
 .text.health_server_init
                0x0000000000031948       0x68 CMakeFiles/dfu_no_serial_nrf52840_xxAA_s140_6.0.0.dir/__/__/models/health/src/health_server.c.obj
                0x0000000000031948                health_server_init
 .text.prov_provisioner_auth_data
                0x00000000000319b0       0xe8 CMakeFiles/dfu_no_serial_nrf52840_xxAA_s140_6.0.0.dir/__/__/mesh/prov/src/prov_provisioner.c.obj
                0x00000000000319b0                prov_provisioner_auth_data
 .text.prov_provisionee_cb_link_established
                0x0000000000031a98       0x40 CMakeFiles/dfu_no_serial_nrf52840_xxAA_s140_6.0.0.dir/__/__/mesh/prov/src/prov_provisionee.c.obj
 .text.prov_provisionee_cb_link_closed
                0x0000000000031ad8       0x50 CMakeFiles/dfu_no_serial_nrf52840_xxAA_s140_6.0.0.dir/__/__/mesh/prov/src/prov_provisionee.c.obj
 .text.request_authentication
                0x0000000000031b28       0x90 CMakeFiles/dfu_no_serial_nrf52840_xxAA_s140_6.0.0.dir/__/__/mesh/prov/src/prov_provisionee.c.obj
 .text.send_failed
                0x0000000000031bb8       0x38 CMakeFiles/dfu_no_serial_nrf52840_xxAA_s140_6.0.0.dir/__/__/mesh/prov/src/prov_provisionee.c.obj
 .text.prov_provisionee_cb_ack_received
                0x0000000000031bf0      0x174 CMakeFiles/dfu_no_serial_nrf52840_xxAA_s140_6.0.0.dir/__/__/mesh/prov/src/prov_provisionee.c.obj
 .text.prov_provisionee_pkt_in
                0x0000000000031d64      0x428 CMakeFiles/dfu_no_serial_nrf52840_xxAA_s140_6.0.0.dir/__/__/mesh/prov/src/prov_provisionee.c.obj
 .text.prov_provisionee_listen
                0x000000000003218c       0x34 CMakeFiles/dfu_no_serial_nrf52840_xxAA_s140_6.0.0.dir/__/__/mesh/prov/src/prov_provisionee.c.obj
                0x000000000003218c                prov_provisionee_listen
 .text.prov_provisionee_auth_data
                0x00000000000321c0      0x100 CMakeFiles/dfu_no_serial_nrf52840_xxAA_s140_6.0.0.dir/__/__/mesh/prov/src/prov_provisionee.c.obj
                0x00000000000321c0                prov_provisionee_auth_data
 .text.bearer_compare_callback
                0x00000000000322c0       0x10 CMakeFiles/dfu_no_serial_nrf52840_xxAA_s140_6.0.0.dir/__/__/mesh/prov/src/nrf_mesh_prov.c.obj
 .text.nrf_mesh_prov_init
                0x00000000000322d0       0x3c CMakeFiles/dfu_no_serial_nrf52840_xxAA_s140_6.0.0.dir/__/__/mesh/prov/src/nrf_mesh_prov.c.obj
                0x00000000000322d0                nrf_mesh_prov_init
 .text.nrf_mesh_prov_bearer_add
                0x000000000003230c       0x2c CMakeFiles/dfu_no_serial_nrf52840_xxAA_s140_6.0.0.dir/__/__/mesh/prov/src/nrf_mesh_prov.c.obj
                0x000000000003230c                nrf_mesh_prov_bearer_add
 .text.nrf_mesh_prov_generate_keys
                0x0000000000032338        0x4 CMakeFiles/dfu_no_serial_nrf52840_xxAA_s140_6.0.0.dir/__/__/mesh/prov/src/nrf_mesh_prov.c.obj
                0x0000000000032338                nrf_mesh_prov_generate_keys
 .text.nrf_mesh_prov_listen
                0x000000000003233c       0xf0 CMakeFiles/dfu_no_serial_nrf52840_xxAA_s140_6.0.0.dir/__/__/mesh/prov/src/nrf_mesh_prov.c.obj
                0x000000000003233c                nrf_mesh_prov_listen
 .text.nrf_mesh_prov_auth_data_provide
                0x000000000003242c       0x10 CMakeFiles/dfu_no_serial_nrf52840_xxAA_s140_6.0.0.dir/__/__/mesh/prov/src/nrf_mesh_prov.c.obj
                0x000000000003242c                nrf_mesh_prov_auth_data_provide
 .text.prov_packet_length_valid
                0x000000000003243c       0x20 CMakeFiles/dfu_no_serial_nrf52840_xxAA_s140_6.0.0.dir/__/__/mesh/prov/src/provisioning.c.obj
                0x000000000003243c                prov_packet_length_valid
 .text.prov_tx_capabilities
                0x000000000003245c       0x38 CMakeFiles/dfu_no_serial_nrf52840_xxAA_s140_6.0.0.dir/__/__/mesh/prov/src/provisioning.c.obj
                0x000000000003245c                prov_tx_capabilities
 .text.prov_tx_public_key
                0x0000000000032494       0x30 CMakeFiles/dfu_no_serial_nrf52840_xxAA_s140_6.0.0.dir/__/__/mesh/prov/src/provisioning.c.obj
                0x0000000000032494                prov_tx_public_key
 .text.prov_tx_input_complete
                0x00000000000324c4       0x28 CMakeFiles/dfu_no_serial_nrf52840_xxAA_s140_6.0.0.dir/__/__/mesh/prov/src/provisioning.c.obj
                0x00000000000324c4                prov_tx_input_complete
 .text.prov_tx_confirmation
                0x00000000000324ec       0x30 CMakeFiles/dfu_no_serial_nrf52840_xxAA_s140_6.0.0.dir/__/__/mesh/prov/src/provisioning.c.obj
                0x00000000000324ec                prov_tx_confirmation
 .text.prov_tx_random
                0x000000000003251c       0x30 CMakeFiles/dfu_no_serial_nrf52840_xxAA_s140_6.0.0.dir/__/__/mesh/prov/src/provisioning.c.obj
                0x000000000003251c                prov_tx_random
 .text.prov_tx_complete
                0x000000000003254c       0x28 CMakeFiles/dfu_no_serial_nrf52840_xxAA_s140_6.0.0.dir/__/__/mesh/prov/src/provisioning.c.obj
                0x000000000003254c                prov_tx_complete
 .text.prov_tx_failed
                0x0000000000032574       0x2c CMakeFiles/dfu_no_serial_nrf52840_xxAA_s140_6.0.0.dir/__/__/mesh/prov/src/provisioning.c.obj
                0x0000000000032574                prov_tx_failed
 .text.prov_beacon_unprov_build
                0x00000000000325a0       0x54 CMakeFiles/dfu_no_serial_nrf52840_xxAA_s140_6.0.0.dir/__/__/mesh/prov/src/prov_beacon.c.obj
                0x00000000000325a0                prov_beacon_unprov_build
 .text.prov_beacon_unprov_packet_in
                0x00000000000325f4       0xd0 CMakeFiles/dfu_no_serial_nrf52840_xxAA_s140_6.0.0.dir/__/__/mesh/prov/src/prov_beacon.c.obj
                0x00000000000325f4                prov_beacon_unprov_packet_in
 .text.prov_utils_opt_set
                0x00000000000326c4       0x24 CMakeFiles/dfu_no_serial_nrf52840_xxAA_s140_6.0.0.dir/__/__/mesh/prov/src/prov_utils.c.obj
                0x00000000000326c4                prov_utils_opt_set
 .text.prov_utils_opt_get
                0x00000000000326e8       0x1c CMakeFiles/dfu_no_serial_nrf52840_xxAA_s140_6.0.0.dir/__/__/mesh/prov/src/prov_utils.c.obj
                0x00000000000326e8                prov_utils_opt_get
 .text.prov_utils_use_ecdh_offloading
                0x0000000000032704        0xc CMakeFiles/dfu_no_serial_nrf52840_xxAA_s140_6.0.0.dir/__/__/mesh/prov/src/prov_utils.c.obj
                0x0000000000032704                prov_utils_use_ecdh_offloading
 .text.prov_utils_authentication_values_derive
                0x0000000000032710       0xac CMakeFiles/dfu_no_serial_nrf52840_xxAA_s140_6.0.0.dir/__/__/mesh/prov/src/prov_utils.c.obj
                0x0000000000032710                prov_utils_authentication_values_derive
 .text.prov_utils_keys_generate
                0x00000000000327bc       0x20 CMakeFiles/dfu_no_serial_nrf52840_xxAA_s140_6.0.0.dir/__/__/mesh/prov/src/prov_utils.c.obj
                0x00000000000327bc                prov_utils_keys_generate
 .text.prov_utils_derive_keys
                0x00000000000327dc       0xb4 CMakeFiles/dfu_no_serial_nrf52840_xxAA_s140_6.0.0.dir/__/__/mesh/prov/src/prov_utils.c.obj
                0x00000000000327dc                prov_utils_derive_keys
 .text.prov_utils_calculate_shared_secret
                0x0000000000032890       0x34 CMakeFiles/dfu_no_serial_nrf52840_xxAA_s140_6.0.0.dir/__/__/mesh/prov/src/prov_utils.c.obj
                0x0000000000032890                prov_utils_calculate_shared_secret
 .text.prov_utils_generate_oob_data
                0x00000000000328c4      0x1b8 CMakeFiles/dfu_no_serial_nrf52840_xxAA_s140_6.0.0.dir/__/__/mesh/prov/src/prov_utils.c.obj
                0x00000000000328c4                prov_utils_generate_oob_data
 .text.prov_utils_confirmation_check
                0x0000000000032a7c       0x5c CMakeFiles/dfu_no_serial_nrf52840_xxAA_s140_6.0.0.dir/__/__/mesh/prov/src/prov_utils.c.obj
                0x0000000000032a7c                prov_utils_confirmation_check
 .text.link_timeout_cb
                0x0000000000032ad8       0x10 CMakeFiles/dfu_no_serial_nrf52840_xxAA_s140_6.0.0.dir/__/__/mesh/prov/src/prov_bearer_adv.c.obj
 .text.prov_bearer_adv_listen_stop
                0x0000000000032ae8       0x98 CMakeFiles/dfu_no_serial_nrf52840_xxAA_s140_6.0.0.dir/__/__/mesh/prov/src/prov_bearer_adv.c.obj
 .text.tx_complete_cb
                0x0000000000032b80       0x20 CMakeFiles/dfu_no_serial_nrf52840_xxAA_s140_6.0.0.dir/__/__/mesh/prov/src/prov_bearer_adv.c.obj
 .text.prov_bearer_adv_listen
                0x0000000000032ba0      0x15c CMakeFiles/dfu_no_serial_nrf52840_xxAA_s140_6.0.0.dir/__/__/mesh/prov/src/prov_bearer_adv.c.obj
 .text.close_link
                0x0000000000032cfc       0xd8 CMakeFiles/dfu_no_serial_nrf52840_xxAA_s140_6.0.0.dir/__/__/mesh/prov/src/prov_bearer_adv.c.obj
 .text.send_link_ack
                0x0000000000032dd4       0x70 CMakeFiles/dfu_no_serial_nrf52840_xxAA_s140_6.0.0.dir/__/__/mesh/prov/src/prov_bearer_adv.c.obj
 .text.send_transaction_ack
                0x0000000000032e44       0x68 CMakeFiles/dfu_no_serial_nrf52840_xxAA_s140_6.0.0.dir/__/__/mesh/prov/src/prov_bearer_adv.c.obj
 .text.prov_buffer_rx
                0x0000000000032eac       0xa0 CMakeFiles/dfu_no_serial_nrf52840_xxAA_s140_6.0.0.dir/__/__/mesh/prov/src/prov_bearer_adv.c.obj
 .text.prov_bearer_adv_link_open
                0x0000000000032f4c      0x1b8 CMakeFiles/dfu_no_serial_nrf52840_xxAA_s140_6.0.0.dir/__/__/mesh/prov/src/prov_bearer_adv.c.obj
 .text.prov_bearer_adv_link_close
                0x0000000000033104       0xcc CMakeFiles/dfu_no_serial_nrf52840_xxAA_s140_6.0.0.dir/__/__/mesh/prov/src/prov_bearer_adv.c.obj
 .text.prov_buffer_tx
                0x00000000000331d0      0x1e4 CMakeFiles/dfu_no_serial_nrf52840_xxAA_s140_6.0.0.dir/__/__/mesh/prov/src/prov_bearer_adv.c.obj
 .text.tx_retry_cb
                0x00000000000333b4      0x130 CMakeFiles/dfu_no_serial_nrf52840_xxAA_s140_6.0.0.dir/__/__/mesh/prov/src/prov_bearer_adv.c.obj
 .text.prov_bearer_adv_tx
                0x00000000000334e4       0xe8 CMakeFiles/dfu_no_serial_nrf52840_xxAA_s140_6.0.0.dir/__/__/mesh/prov/src/prov_bearer_adv.c.obj
 .text.async_process
                0x00000000000335cc      0x118 CMakeFiles/dfu_no_serial_nrf52840_xxAA_s140_6.0.0.dir/__/__/mesh/prov/src/prov_bearer_adv.c.obj
 .text.nrf_mesh_prov_bearer_adv_interface_get
                0x00000000000336e4       0x40 CMakeFiles/dfu_no_serial_nrf52840_xxAA_s140_6.0.0.dir/__/__/mesh/prov/src/prov_bearer_adv.c.obj
                0x00000000000336e4                nrf_mesh_prov_bearer_adv_interface_get
 .text.prov_bearer_adv_packet_in
                0x0000000000033724      0x914 CMakeFiles/dfu_no_serial_nrf52840_xxAA_s140_6.0.0.dir/__/__/mesh/prov/src/prov_bearer_adv.c.obj
                0x0000000000033724                prov_bearer_adv_packet_in
 .text.tx_complete_cb
                0x0000000000034038        0x4 CMakeFiles/dfu_no_serial_nrf52840_xxAA_s140_6.0.0.dir/__/__/mesh/dfu/src/nrf_mesh_dfu.c.obj
 .text.tx_timeout
                0x000000000003403c      0x21c CMakeFiles/dfu_no_serial_nrf52840_xxAA_s140_6.0.0.dir/__/__/mesh/dfu/src/nrf_mesh_dfu.c.obj
 .text.abort_timeout
                0x0000000000034258      0x140 CMakeFiles/dfu_no_serial_nrf52840_xxAA_s140_6.0.0.dir/__/__/mesh/dfu/src/nrf_mesh_dfu.c.obj
 .text.timer_timeout
                0x0000000000034398       0xf4 CMakeFiles/dfu_no_serial_nrf52840_xxAA_s140_6.0.0.dir/__/__/mesh/dfu/src/nrf_mesh_dfu.c.obj
 .text.flash_op_complete
                0x000000000003448c      0x1fc CMakeFiles/dfu_no_serial_nrf52840_xxAA_s140_6.0.0.dir/__/__/mesh/dfu/src/nrf_mesh_dfu.c.obj
 .text.dfu_evt_handler
                0x0000000000034688      0xa98 CMakeFiles/dfu_no_serial_nrf52840_xxAA_s140_6.0.0.dir/__/__/mesh/dfu/src/nrf_mesh_dfu.c.obj
 .text.nrf_mesh_dfu_rx
                0x0000000000035120      0x2e8 CMakeFiles/dfu_no_serial_nrf52840_xxAA_s140_6.0.0.dir/__/__/mesh/dfu/src/nrf_mesh_dfu.c.obj
                0x0000000000035120                nrf_mesh_dfu_rx
 .text.nrf_mesh_dfu_request
                0x0000000000035408      0x12c CMakeFiles/dfu_no_serial_nrf52840_xxAA_s140_6.0.0.dir/__/__/mesh/dfu/src/nrf_mesh_dfu.c.obj
                0x0000000000035408                nrf_mesh_dfu_request
 .text.nrf_mesh_dfu_relay
                0x0000000000035534      0x10c CMakeFiles/dfu_no_serial_nrf52840_xxAA_s140_6.0.0.dir/__/__/mesh/dfu/src/nrf_mesh_dfu.c.obj
                0x0000000000035534                nrf_mesh_dfu_relay
 .text.nrf_mesh_dfu_bank_flash
                0x0000000000035640       0xb8 CMakeFiles/dfu_no_serial_nrf52840_xxAA_s140_6.0.0.dir/__/__/mesh/dfu/src/nrf_mesh_dfu.c.obj
                0x0000000000035640                nrf_mesh_dfu_bank_flash
 .text.nrf_mesh_dfu_cmd_send
                0x00000000000356f8       0xa8 CMakeFiles/dfu_no_serial_nrf52840_xxAA_s140_6.0.0.dir/__/__/mesh/dfu/src/nrf_mesh_dfu.c.obj
                0x00000000000356f8                nrf_mesh_dfu_cmd_send
 .text.nrf_mesh_dfu_init
                0x00000000000357a0      0x1f4 CMakeFiles/dfu_no_serial_nrf52840_xxAA_s140_6.0.0.dir/__/__/mesh/dfu/src/nrf_mesh_dfu.c.obj
                0x00000000000357a0                nrf_mesh_dfu_init
 .text.app_error_fault_handler
                0x0000000000035994      0x238 CMakeFiles/dfu_no_serial_nrf52840_xxAA_s140_6.0.0.dir/__/common/src/app_error_weak.c.obj
                0x0000000000035994                app_error_fault_handler
 .text.mesh_assertion_handler
                0x0000000000035bcc       0x24 CMakeFiles/dfu_no_serial_nrf52840_xxAA_s140_6.0.0.dir/__/common/src/assertion_handler_weak.c.obj
                0x0000000000035bcc                mesh_assertion_handler
 .text.nrf_mesh_configure_device_uuid_set
                0x0000000000035bf0       0x10 CMakeFiles/dfu_no_serial_nrf52840_xxAA_s140_6.0.0.dir/__/__/mesh/core/src/nrf_mesh_configure.c.obj
                0x0000000000035bf0                nrf_mesh_configure_device_uuid_set
 .text.nrf_mesh_configure_device_uuid_reset
                0x0000000000035c00       0x2c CMakeFiles/dfu_no_serial_nrf52840_xxAA_s140_6.0.0.dir/__/__/mesh/core/src/nrf_mesh_configure.c.obj
                0x0000000000035c00                nrf_mesh_configure_device_uuid_reset
 .text.nrf_mesh_configure_device_uuid_get
                0x0000000000035c2c        0x8 CMakeFiles/dfu_no_serial_nrf52840_xxAA_s140_6.0.0.dir/__/__/mesh/core/src/nrf_mesh_configure.c.obj
                0x0000000000035c2c                nrf_mesh_configure_device_uuid_get
 .text.sd_ecb_block_encrypt
                0x0000000000035c34        0x4 CMakeFiles/dfu_no_serial_nrf52840_xxAA_s140_6.0.0.dir/__/__/mesh/core/src/aes.c.obj
 .text.aes_encrypt
                0x0000000000035c38       0x34 CMakeFiles/dfu_no_serial_nrf52840_xxAA_s140_6.0.0.dir/__/__/mesh/core/src/aes.c.obj
                0x0000000000035c38                aes_encrypt
 .text.msg_cache_init
                0x0000000000035c6c       0x24 CMakeFiles/dfu_no_serial_nrf52840_xxAA_s140_6.0.0.dir/__/__/mesh/core/src/msg_cache.c.obj
                0x0000000000035c6c                msg_cache_init
 .text.msg_cache_entry_exists
                0x0000000000035c90       0x40 CMakeFiles/dfu_no_serial_nrf52840_xxAA_s140_6.0.0.dir/__/__/mesh/core/src/msg_cache.c.obj
                0x0000000000035c90                msg_cache_entry_exists
 .text.msg_cache_entry_add
                0x0000000000035cd0       0x2c CMakeFiles/dfu_no_serial_nrf52840_xxAA_s140_6.0.0.dir/__/__/mesh/core/src/msg_cache.c.obj
                0x0000000000035cd0                msg_cache_entry_add
 .text.tx_complete
                0x0000000000035cfc       0x30 CMakeFiles/dfu_no_serial_nrf52840_xxAA_s140_6.0.0.dir/__/__/mesh/core/src/transport.c.obj
 .text.upper_trs_packet_encrypt
                0x0000000000035d2c       0xa8 CMakeFiles/dfu_no_serial_nrf52840_xxAA_s140_6.0.0.dir/__/__/mesh/core/src/transport.c.obj
 .text.trs_sar_packet_out
                0x0000000000035dd4      0x19c CMakeFiles/dfu_no_serial_nrf52840_xxAA_s140_6.0.0.dir/__/__/mesh/core/src/transport.c.obj
 .text.upper_transport_access_packet_in
                0x0000000000035f70      0x33c CMakeFiles/dfu_no_serial_nrf52840_xxAA_s140_6.0.0.dir/__/__/mesh/core/src/transport.c.obj
 .text.sar_ctx_cancel
                0x00000000000362ac      0x148 CMakeFiles/dfu_no_serial_nrf52840_xxAA_s140_6.0.0.dir/__/__/mesh/core/src/transport.c.obj
 .text.retry_timeout
                0x00000000000363f4       0x98 CMakeFiles/dfu_no_serial_nrf52840_xxAA_s140_6.0.0.dir/__/__/mesh/core/src/transport.c.obj
 .text.upper_transport_packet_in
                0x000000000003648c      0x2a4 CMakeFiles/dfu_no_serial_nrf52840_xxAA_s140_6.0.0.dir/__/__/mesh/core/src/transport.c.obj
 .text.upper_transport_tx.part.27
                0x0000000000036730      0x370 CMakeFiles/dfu_no_serial_nrf52840_xxAA_s140_6.0.0.dir/__/__/mesh/core/src/transport.c.obj
 .text.sar_ack_send.part.31
                0x0000000000036aa0       0xd4 CMakeFiles/dfu_no_serial_nrf52840_xxAA_s140_6.0.0.dir/__/__/mesh/core/src/transport.c.obj
 .text.transport_sar_process
                0x0000000000036b74      0x274 CMakeFiles/dfu_no_serial_nrf52840_xxAA_s140_6.0.0.dir/__/__/mesh/core/src/transport.c.obj
 .text.abort_timeout
                0x0000000000036de8      0x138 CMakeFiles/dfu_no_serial_nrf52840_xxAA_s140_6.0.0.dir/__/__/mesh/core/src/transport.c.obj
 .text.ack_timeout
                0x0000000000036f20       0xf8 CMakeFiles/dfu_no_serial_nrf52840_xxAA_s140_6.0.0.dir/__/__/mesh/core/src/transport.c.obj
 .text.transport_init
                0x0000000000037018       0xac CMakeFiles/dfu_no_serial_nrf52840_xxAA_s140_6.0.0.dir/__/__/mesh/core/src/transport.c.obj
                0x0000000000037018                transport_init
 .text.transport_packet_in
                0x00000000000370c4      0x778 CMakeFiles/dfu_no_serial_nrf52840_xxAA_s140_6.0.0.dir/__/__/mesh/core/src/transport.c.obj
                0x00000000000370c4                transport_packet_in
 .text.transport_tx
                0x000000000003783c       0xec CMakeFiles/dfu_no_serial_nrf52840_xxAA_s140_6.0.0.dir/__/__/mesh/core/src/transport.c.obj
                0x000000000003783c                transport_tx
 .text.transport_control_tx
                0x0000000000037928       0xc4 CMakeFiles/dfu_no_serial_nrf52840_xxAA_s140_6.0.0.dir/__/__/mesh/core/src/transport.c.obj
                0x0000000000037928                transport_control_tx
 .text.transport_opt_set
                0x00000000000379ec       0xdc CMakeFiles/dfu_no_serial_nrf52840_xxAA_s140_6.0.0.dir/__/__/mesh/core/src/transport.c.obj
                0x00000000000379ec                transport_opt_set
 .text.transport_opt_get
                0x0000000000037ac8       0x84 CMakeFiles/dfu_no_serial_nrf52840_xxAA_s140_6.0.0.dir/__/__/mesh/core/src/transport.c.obj
                0x0000000000037ac8                transport_opt_get
 .text.transport_control_packet_consumer_add
                0x0000000000037b4c       0x68 CMakeFiles/dfu_no_serial_nrf52840_xxAA_s140_6.0.0.dir/__/__/mesh/core/src/transport.c.obj
                0x0000000000037b4c                transport_control_packet_consumer_add
 .text.event_handle
                0x0000000000037bb4       0x28 CMakeFiles/dfu_no_serial_nrf52840_xxAA_s140_6.0.0.dir/__/__/mesh/core/src/event.c.obj
                0x0000000000037bb4                event_handle
 .text.event_handler_add
                0x0000000000037bdc       0x28 CMakeFiles/dfu_no_serial_nrf52840_xxAA_s140_6.0.0.dir/__/__/mesh/core/src/event.c.obj
                0x0000000000037bdc                event_handler_add
 .text.event_handler_remove
                0x0000000000037c04       0x28 CMakeFiles/dfu_no_serial_nrf52840_xxAA_s140_6.0.0.dir/__/__/mesh/core/src/event.c.obj
                0x0000000000037c04                event_handler_remove
 .text.packet_buffer_init
                0x0000000000037c2c       0xb4 CMakeFiles/dfu_no_serial_nrf52840_xxAA_s140_6.0.0.dir/__/__/mesh/core/src/packet_buffer.c.obj
                0x0000000000037c2c                packet_buffer_init
 .text.packet_buffer_flush
                0x0000000000037ce0       0x6c CMakeFiles/dfu_no_serial_nrf52840_xxAA_s140_6.0.0.dir/__/__/mesh/core/src/packet_buffer.c.obj
                0x0000000000037ce0                packet_buffer_flush
 .text.packet_buffer_reserve
                0x0000000000037d4c       0xa4 CMakeFiles/dfu_no_serial_nrf52840_xxAA_s140_6.0.0.dir/__/__/mesh/core/src/packet_buffer.c.obj
                0x0000000000037d4c                packet_buffer_reserve
 .text.packet_buffer_commit
                0x0000000000037df0       0x7c CMakeFiles/dfu_no_serial_nrf52840_xxAA_s140_6.0.0.dir/__/__/mesh/core/src/packet_buffer.c.obj
                0x0000000000037df0                packet_buffer_commit
 .text.packet_buffer_pop
                0x0000000000037e6c       0x44 CMakeFiles/dfu_no_serial_nrf52840_xxAA_s140_6.0.0.dir/__/__/mesh/core/src/packet_buffer.c.obj
                0x0000000000037e6c                packet_buffer_pop
 .text.packet_buffer_can_pop
                0x0000000000037eb0       0x24 CMakeFiles/dfu_no_serial_nrf52840_xxAA_s140_6.0.0.dir/__/__/mesh/core/src/packet_buffer.c.obj
                0x0000000000037eb0                packet_buffer_can_pop
 .text.packet_buffer_packets_ready_to_pop
                0x0000000000037ed4       0x5c CMakeFiles/dfu_no_serial_nrf52840_xxAA_s140_6.0.0.dir/__/__/mesh/core/src/packet_buffer.c.obj
                0x0000000000037ed4                packet_buffer_packets_ready_to_pop
 .text.packet_buffer_free
                0x0000000000037f30       0x8c CMakeFiles/dfu_no_serial_nrf52840_xxAA_s140_6.0.0.dir/__/__/mesh/core/src/packet_buffer.c.obj
                0x0000000000037f30                packet_buffer_free
 .text.erase_source
                0x0000000000037fbc       0x34 CMakeFiles/dfu_no_serial_nrf52840_xxAA_s140_6.0.0.dir/__/__/mesh/core/src/flash_manager_defrag.c.obj
 .text.erase_recovery_area
                0x0000000000037ff0       0x34 CMakeFiles/dfu_no_serial_nrf52840_xxAA_s140_6.0.0.dir/__/__/mesh/core/src/flash_manager_defrag.c.obj
 .text.write_back
                0x0000000000038024       0x44 CMakeFiles/dfu_no_serial_nrf52840_xxAA_s140_6.0.0.dir/__/__/mesh/core/src/flash_manager_defrag.c.obj
 .text.write_defrag_start_pointer
                0x0000000000038068       0x38 CMakeFiles/dfu_no_serial_nrf52840_xxAA_s140_6.0.0.dir/__/__/mesh/core/src/flash_manager_defrag.c.obj
 .text.copy_metadata
                0x00000000000380a0       0x58 CMakeFiles/dfu_no_serial_nrf52840_xxAA_s140_6.0.0.dir/__/__/mesh/core/src/flash_manager_defrag.c.obj
 .text.seal_storage_page
                0x00000000000380f8       0x70 CMakeFiles/dfu_no_serial_nrf52840_xxAA_s140_6.0.0.dir/__/__/mesh/core/src/flash_manager_defrag.c.obj
 .text.post_process
                0x0000000000038168       0x64 CMakeFiles/dfu_no_serial_nrf52840_xxAA_s140_6.0.0.dir/__/__/mesh/core/src/flash_manager_defrag.c.obj
 .text.check_for_invalid_entries
                0x00000000000381cc       0x40 CMakeFiles/dfu_no_serial_nrf52840_xxAA_s140_6.0.0.dir/__/__/mesh/core/src/flash_manager_defrag.c.obj
 .text.execute_procedure_step
                0x000000000003820c       0x98 CMakeFiles/dfu_no_serial_nrf52840_xxAA_s140_6.0.0.dir/__/__/mesh/core/src/flash_manager_defrag.c.obj
 .text.on_flash_op_end
                0x00000000000382a4       0x48 CMakeFiles/dfu_no_serial_nrf52840_xxAA_s140_6.0.0.dir/__/__/mesh/core/src/flash_manager_defrag.c.obj
 .text.invalidate_duplicate_entries
                0x00000000000382ec      0x150 CMakeFiles/dfu_no_serial_nrf52840_xxAA_s140_6.0.0.dir/__/__/mesh/core/src/flash_manager_defrag.c.obj
 .text.backup_entries
                0x000000000003843c      0x1c8 CMakeFiles/dfu_no_serial_nrf52840_xxAA_s140_6.0.0.dir/__/__/mesh/core/src/flash_manager_defrag.c.obj
 .text.flash_manager_defrag_init
                0x0000000000038604       0x6c CMakeFiles/dfu_no_serial_nrf52840_xxAA_s140_6.0.0.dir/__/__/mesh/core/src/flash_manager_defrag.c.obj
                0x0000000000038604                flash_manager_defrag_init
 .text.flash_manager_defrag_is_running
                0x0000000000038670       0x10 CMakeFiles/dfu_no_serial_nrf52840_xxAA_s140_6.0.0.dir/__/__/mesh/core/src/flash_manager_defrag.c.obj
                0x0000000000038670                flash_manager_defrag_is_running
 .text.flash_manager_defrag
                0x0000000000038680       0x48 CMakeFiles/dfu_no_serial_nrf52840_xxAA_s140_6.0.0.dir/__/__/mesh/core/src/flash_manager_defrag.c.obj
                0x0000000000038680                flash_manager_defrag
 .text.flash_manager_defrag_recovery_page_get
                0x00000000000386c8        0xc CMakeFiles/dfu_no_serial_nrf52840_xxAA_s140_6.0.0.dir/__/__/mesh/core/src/flash_manager_defrag.c.obj
                0x00000000000386c8                flash_manager_defrag_recovery_page_get
 .text.fifo_init
                0x00000000000386d4       0x38 CMakeFiles/dfu_no_serial_nrf52840_xxAA_s140_6.0.0.dir/__/__/mesh/core/src/fifo.c.obj
                0x00000000000386d4                fifo_init
 .text.fifo_push
                0x000000000003870c       0x60 CMakeFiles/dfu_no_serial_nrf52840_xxAA_s140_6.0.0.dir/__/__/mesh/core/src/fifo.c.obj
                0x000000000003870c                fifo_push
 .text.fifo_pop
                0x000000000003876c       0x5c CMakeFiles/dfu_no_serial_nrf52840_xxAA_s140_6.0.0.dir/__/__/mesh/core/src/fifo.c.obj
                0x000000000003876c                fifo_pop
 .text.nrf_flash_erase
                0x00000000000387c8       0x5c CMakeFiles/dfu_no_serial_nrf52840_xxAA_s140_6.0.0.dir/__/__/mesh/core/src/nrf_flash.c.obj
                0x00000000000387c8                nrf_flash_erase
 .text.nrf_flash_write
                0x0000000000038824       0x70 CMakeFiles/dfu_no_serial_nrf52840_xxAA_s140_6.0.0.dir/__/__/mesh/core/src/nrf_flash.c.obj
                0x0000000000038824                nrf_flash_write
 .text.packet_mgr_init
                0x0000000000038894       0x48 CMakeFiles/dfu_no_serial_nrf52840_xxAA_s140_6.0.0.dir/__/__/mesh/core/src/packet_mgr.c.obj
                0x0000000000038894                packet_mgr_init
 .text.flash_store_iv_index
                0x00000000000388dc       0x38 CMakeFiles/dfu_no_serial_nrf52840_xxAA_s140_6.0.0.dir/__/__/mesh/core/src/net_state.c.obj
 .text.flash_mem_available
                0x0000000000038914       0x1c CMakeFiles/dfu_no_serial_nrf52840_xxAA_s140_6.0.0.dir/__/__/mesh/core/src/net_state.c.obj
 .text.init_flash_storage
                0x0000000000038930       0x44 CMakeFiles/dfu_no_serial_nrf52840_xxAA_s140_6.0.0.dir/__/__/mesh/core/src/net_state.c.obj
 .text.flash_write_complete
                0x0000000000038974       0x6c CMakeFiles/dfu_no_serial_nrf52840_xxAA_s140_6.0.0.dir/__/__/mesh/core/src/net_state.c.obj
 .text.seqnum_block_allocate
                0x00000000000389e0       0x4c CMakeFiles/dfu_no_serial_nrf52840_xxAA_s140_6.0.0.dir/__/__/mesh/core/src/net_state.c.obj
 .text.net_state_reset
                0x0000000000038a2c       0x78 CMakeFiles/dfu_no_serial_nrf52840_xxAA_s140_6.0.0.dir/__/__/mesh/core/src/net_state.c.obj
                0x0000000000038a2c                net_state_reset
 .text.iv_update_trigger_if_pending
                0x0000000000038aa4      0x174 CMakeFiles/dfu_no_serial_nrf52840_xxAA_s140_6.0.0.dir/__/__/mesh/core/src/net_state.c.obj
 .text.iv_update_timer_handler
                0x0000000000038c18       0x70 CMakeFiles/dfu_no_serial_nrf52840_xxAA_s140_6.0.0.dir/__/__/mesh/core/src/net_state.c.obj
 .text.mesh_evt_handler
                0x0000000000038c88      0x104 CMakeFiles/dfu_no_serial_nrf52840_xxAA_s140_6.0.0.dir/__/__/mesh/core/src/net_state.c.obj
 .text.net_state_recover_from_flash
                0x0000000000038d8c      0x118 CMakeFiles/dfu_no_serial_nrf52840_xxAA_s140_6.0.0.dir/__/__/mesh/core/src/net_state.c.obj
                0x0000000000038d8c                net_state_recover_from_flash
 .text.net_state_flash_area_get
                0x0000000000038ea4        0xc CMakeFiles/dfu_no_serial_nrf52840_xxAA_s140_6.0.0.dir/__/__/mesh/core/src/net_state.c.obj
                0x0000000000038ea4                net_state_flash_area_get
 .text.net_state_init
                0x0000000000038eb0       0x94 CMakeFiles/dfu_no_serial_nrf52840_xxAA_s140_6.0.0.dir/__/__/mesh/core/src/net_state.c.obj
                0x0000000000038eb0                net_state_init
 .text.net_state_seqnum_alloc
                0x0000000000038f44       0xd0 CMakeFiles/dfu_no_serial_nrf52840_xxAA_s140_6.0.0.dir/__/__/mesh/core/src/net_state.c.obj
                0x0000000000038f44                net_state_seqnum_alloc
 .text.net_state_iv_index_lock
                0x0000000000039014      0x188 CMakeFiles/dfu_no_serial_nrf52840_xxAA_s140_6.0.0.dir/__/__/mesh/core/src/net_state.c.obj
                0x0000000000039014                net_state_iv_index_lock
 .text.net_state_key_refresh_phase_changed
                0x000000000003919c       0x20 CMakeFiles/dfu_no_serial_nrf52840_xxAA_s140_6.0.0.dir/__/__/mesh/core/src/net_state.c.obj
                0x000000000003919c                net_state_key_refresh_phase_changed
 .text.net_state_beacon_iv_index_get
                0x00000000000391bc        0xc CMakeFiles/dfu_no_serial_nrf52840_xxAA_s140_6.0.0.dir/__/__/mesh/core/src/net_state.c.obj
                0x00000000000391bc                net_state_beacon_iv_index_get
 .text.net_state_tx_iv_index_get
                0x00000000000391c8       0x14 CMakeFiles/dfu_no_serial_nrf52840_xxAA_s140_6.0.0.dir/__/__/mesh/core/src/net_state.c.obj
                0x00000000000391c8                net_state_tx_iv_index_get
 .text.net_state_rx_iv_index_get
                0x00000000000391dc       0x18 CMakeFiles/dfu_no_serial_nrf52840_xxAA_s140_6.0.0.dir/__/__/mesh/core/src/net_state.c.obj
                0x00000000000391dc                net_state_rx_iv_index_get
 .text.net_state_iv_update_get
                0x00000000000391f4        0xc CMakeFiles/dfu_no_serial_nrf52840_xxAA_s140_6.0.0.dir/__/__/mesh/core/src/net_state.c.obj
                0x00000000000391f4                net_state_iv_update_get
 .text.net_state_iv_index_set
                0x0000000000039200       0x88 CMakeFiles/dfu_no_serial_nrf52840_xxAA_s140_6.0.0.dir/__/__/mesh/core/src/net_state.c.obj
                0x0000000000039200                net_state_iv_index_set
 .text.send_end_events
                0x0000000000039288       0x98 CMakeFiles/dfu_no_serial_nrf52840_xxAA_s140_6.0.0.dir/__/__/mesh/core/src/mesh_flash.c.obj
 .text.flash_op_start
                0x0000000000039320      0x214 CMakeFiles/dfu_no_serial_nrf52840_xxAA_s140_6.0.0.dir/__/__/mesh/core/src/mesh_flash.c.obj
 .text.mesh_flash_init
                0x0000000000039534       0x78 CMakeFiles/dfu_no_serial_nrf52840_xxAA_s140_6.0.0.dir/__/__/mesh/core/src/mesh_flash.c.obj
                0x0000000000039534                mesh_flash_init
 .text.mesh_flash_user_callback_set
                0x00000000000395ac       0x20 CMakeFiles/dfu_no_serial_nrf52840_xxAA_s140_6.0.0.dir/__/__/mesh/core/src/mesh_flash.c.obj
                0x00000000000395ac                mesh_flash_user_callback_set
 .text.mesh_flash_op_push
                0x00000000000395cc      0x198 CMakeFiles/dfu_no_serial_nrf52840_xxAA_s140_6.0.0.dir/__/__/mesh/core/src/mesh_flash.c.obj
                0x00000000000395cc                mesh_flash_op_push
 .text.mesh_flash_in_progress
                0x0000000000039764       0x34 CMakeFiles/dfu_no_serial_nrf52840_xxAA_s140_6.0.0.dir/__/__/mesh/core/src/mesh_flash.c.obj
                0x0000000000039764                mesh_flash_in_progress
 .text.mesh_flash_set_suspended
                0x0000000000039798      0x21c CMakeFiles/dfu_no_serial_nrf52840_xxAA_s140_6.0.0.dir/__/__/mesh/core/src/mesh_flash.c.obj
                0x0000000000039798                mesh_flash_set_suspended
 .text.nrf_mesh_address_type_get
                0x00000000000399b4       0x10 CMakeFiles/dfu_no_serial_nrf52840_xxAA_s140_6.0.0.dir/__/__/mesh/core/src/nrf_mesh_utils.c.obj
                0x00000000000399b4                nrf_mesh_address_type_get
 .text.sd_softdevice_is_enabled
                0x00000000000399c4        0x4 CMakeFiles/dfu_no_serial_nrf52840_xxAA_s140_6.0.0.dir/__/__/mesh/core/src/nrf_mesh.c.obj
 .text.nrf_mesh_listen
                0x00000000000399c8      0x184 CMakeFiles/dfu_no_serial_nrf52840_xxAA_s140_6.0.0.dir/__/__/mesh/core/src/nrf_mesh.c.obj
 .text.flash_stable_cb
                0x0000000000039b4c       0x20 CMakeFiles/dfu_no_serial_nrf52840_xxAA_s140_6.0.0.dir/__/__/mesh/core/src/nrf_mesh.c.obj
 .text.scanner_packet_process_cb
                0x0000000000039b6c       0x88 CMakeFiles/dfu_no_serial_nrf52840_xxAA_s140_6.0.0.dir/__/__/mesh/core/src/nrf_mesh.c.obj
 .text.nrf_mesh_init
                0x0000000000039bf4       0xe4 CMakeFiles/dfu_no_serial_nrf52840_xxAA_s140_6.0.0.dir/__/__/mesh/core/src/nrf_mesh.c.obj
                0x0000000000039bf4                nrf_mesh_init
 .text.nrf_mesh_enable
                0x0000000000039cd8       0x48 CMakeFiles/dfu_no_serial_nrf52840_xxAA_s140_6.0.0.dir/__/__/mesh/core/src/nrf_mesh.c.obj
                0x0000000000039cd8                nrf_mesh_enable
 .text.nrf_mesh_packet_send
                0x0000000000039d20       0x94 CMakeFiles/dfu_no_serial_nrf52840_xxAA_s140_6.0.0.dir/__/__/mesh/core/src/nrf_mesh.c.obj
                0x0000000000039d20                nrf_mesh_packet_send
 .text.nrf_mesh_evt_handler_add
                0x0000000000039db4        0x4 CMakeFiles/dfu_no_serial_nrf52840_xxAA_s140_6.0.0.dir/__/__/mesh/core/src/nrf_mesh.c.obj
                0x0000000000039db4                nrf_mesh_evt_handler_add
 .text.nrf_mesh_on_sd_evt
                0x0000000000039db8        0xc CMakeFiles/dfu_no_serial_nrf52840_xxAA_s140_6.0.0.dir/__/__/mesh/core/src/nrf_mesh.c.obj
                0x0000000000039db8                nrf_mesh_on_sd_evt
 .text.nrf_mesh_subnet_added
                0x0000000000039dc4        0x4 CMakeFiles/dfu_no_serial_nrf52840_xxAA_s140_6.0.0.dir/__/__/mesh/core/src/nrf_mesh.c.obj
                0x0000000000039dc4                nrf_mesh_subnet_added
 .text.queue_init
                0x0000000000039dc8       0x1c CMakeFiles/dfu_no_serial_nrf52840_xxAA_s140_6.0.0.dir/__/__/mesh/core/src/queue.c.obj
                0x0000000000039dc8                queue_init
 .text.queue_push
                0x0000000000039de4       0x3c CMakeFiles/dfu_no_serial_nrf52840_xxAA_s140_6.0.0.dir/__/__/mesh/core/src/queue.c.obj
                0x0000000000039de4                queue_push
 .text.queue_pop
                0x0000000000039e20       0x2c CMakeFiles/dfu_no_serial_nrf52840_xxAA_s140_6.0.0.dir/__/__/mesh/core/src/queue.c.obj
                0x0000000000039e20                queue_pop
 .text.queue_peek
                0x0000000000039e4c       0x14 CMakeFiles/dfu_no_serial_nrf52840_xxAA_s140_6.0.0.dir/__/__/mesh/core/src/queue.c.obj
                0x0000000000039e4c                queue_peek
 .text.sd_power_reset_reason_clr
                0x0000000000039e60        0x4 CMakeFiles/dfu_no_serial_nrf52840_xxAA_s140_6.0.0.dir/__/__/mesh/core/src/hal.c.obj
 .text.hal_device_reset
                0x0000000000039e64       0x2c CMakeFiles/dfu_no_serial_nrf52840_xxAA_s140_6.0.0.dir/__/__/mesh/core/src/hal.c.obj
                0x0000000000039e64                hal_device_reset
 .text.hal_lfclk_ppm_get
                0x0000000000039e90       0x14 CMakeFiles/dfu_no_serial_nrf52840_xxAA_s140_6.0.0.dir/__/__/mesh/core/src/hal.c.obj
                0x0000000000039e90                hal_lfclk_ppm_get
 .text.aes_cmac_subkey_generate
                0x0000000000039ea4      0x294 CMakeFiles/dfu_no_serial_nrf52840_xxAA_s140_6.0.0.dir/__/__/mesh/core/src/aes_cmac.c.obj
                0x0000000000039ea4                aes_cmac_subkey_generate
 .text.aes_cmac
                0x000000000003a138      0x4b8 CMakeFiles/dfu_no_serial_nrf52840_xxAA_s140_6.0.0.dir/__/__/mesh/core/src/aes_cmac.c.obj
                0x000000000003a138                aes_cmac
 .text.timer_cb
                0x000000000003a5f0        0xc CMakeFiles/dfu_no_serial_nrf52840_xxAA_s140_6.0.0.dir/__/__/mesh/core/src/timer_scheduler.c.obj
 .text.add_evt.constprop.1
                0x000000000003a5fc       0x60 CMakeFiles/dfu_no_serial_nrf52840_xxAA_s140_6.0.0.dir/__/__/mesh/core/src/timer_scheduler.c.obj
 .text.flag_event_cb
                0x000000000003a65c      0x2f0 CMakeFiles/dfu_no_serial_nrf52840_xxAA_s140_6.0.0.dir/__/__/mesh/core/src/timer_scheduler.c.obj
 .text.timer_sch_init
                0x000000000003a94c       0x24 CMakeFiles/dfu_no_serial_nrf52840_xxAA_s140_6.0.0.dir/__/__/mesh/core/src/timer_scheduler.c.obj
                0x000000000003a94c                timer_sch_init
 .text.timer_sch_schedule
                0x000000000003a970       0x68 CMakeFiles/dfu_no_serial_nrf52840_xxAA_s140_6.0.0.dir/__/__/mesh/core/src/timer_scheduler.c.obj
                0x000000000003a970                timer_sch_schedule
 .text.timer_sch_abort
                0x000000000003a9d8       0x5c CMakeFiles/dfu_no_serial_nrf52840_xxAA_s140_6.0.0.dir/__/__/mesh/core/src/timer_scheduler.c.obj
                0x000000000003a9d8                timer_sch_abort
 .text.timer_sch_reschedule
                0x000000000003aa34       0x90 CMakeFiles/dfu_no_serial_nrf52840_xxAA_s140_6.0.0.dir/__/__/mesh/core/src/timer_scheduler.c.obj
                0x000000000003aa34                timer_sch_reschedule
 .text.timer_event_handler
                0x000000000003aac4       0xd0 CMakeFiles/dfu_no_serial_nrf52840_xxAA_s140_6.0.0.dir/__/__/mesh/core/src/timer.c.obj
                0x000000000003aac4                timer_event_handler
 .text.timer_order_cb
                0x000000000003ab94       0x9c CMakeFiles/dfu_no_serial_nrf52840_xxAA_s140_6.0.0.dir/__/__/mesh/core/src/timer.c.obj
                0x000000000003ab94                timer_order_cb
 .text.timer_now
                0x000000000003ac30       0x58 CMakeFiles/dfu_no_serial_nrf52840_xxAA_s140_6.0.0.dir/__/__/mesh/core/src/timer.c.obj
                0x000000000003ac30                timer_now
 .text.timer_on_ts_begin
                0x000000000003ac88      0x100 CMakeFiles/dfu_no_serial_nrf52840_xxAA_s140_6.0.0.dir/__/__/mesh/core/src/timer.c.obj
                0x000000000003ac88                timer_on_ts_begin
 .text.timer_on_ts_end
                0x000000000003ad88       0x78 CMakeFiles/dfu_no_serial_nrf52840_xxAA_s140_6.0.0.dir/__/__/mesh/core/src/timer.c.obj
                0x000000000003ad88                timer_on_ts_end
 .text.timer_cb
                0x000000000003ae00       0x10 CMakeFiles/dfu_no_serial_nrf52840_xxAA_s140_6.0.0.dir/__/__/mesh/core/src/ticker.c.obj
 .text.ticker_init
                0x000000000003ae10       0x3c CMakeFiles/dfu_no_serial_nrf52840_xxAA_s140_6.0.0.dir/__/__/mesh/core/src/ticker.c.obj
                0x000000000003ae10                ticker_init
 .text.sd_rand_application_bytes_available_get
                0x000000000003ae4c        0x4 CMakeFiles/dfu_no_serial_nrf52840_xxAA_s140_6.0.0.dir/__/__/mesh/core/src/rand.c.obj
 .text.sd_rand_application_vector_get
                0x000000000003ae50        0x4 CMakeFiles/dfu_no_serial_nrf52840_xxAA_s140_6.0.0.dir/__/__/mesh/core/src/rand.c.obj
 .text.rand_prng_seed
                0x000000000003ae54       0x78 CMakeFiles/dfu_no_serial_nrf52840_xxAA_s140_6.0.0.dir/__/__/mesh/core/src/rand.c.obj
                0x000000000003ae54                rand_prng_seed
 .text.rand_prng_get
                0x000000000003aecc       0x28 CMakeFiles/dfu_no_serial_nrf52840_xxAA_s140_6.0.0.dir/__/__/mesh/core/src/rand.c.obj
                0x000000000003aecc                rand_prng_get
 .text.rand_hw_rng_get
                0x000000000003aef4       0x60 CMakeFiles/dfu_no_serial_nrf52840_xxAA_s140_6.0.0.dir/__/__/mesh/core/src/rand.c.obj
                0x000000000003aef4                rand_hw_rng_get
 .text.nrf_mesh_opt_set
                0x000000000003af54       0x28 CMakeFiles/dfu_no_serial_nrf52840_xxAA_s140_6.0.0.dir/__/__/mesh/core/src/nrf_mesh_opt.c.obj
                0x000000000003af54                nrf_mesh_opt_set
 .text.nrf_mesh_opt_get
                0x000000000003af7c       0x28 CMakeFiles/dfu_no_serial_nrf52840_xxAA_s140_6.0.0.dir/__/__/mesh/core/src/nrf_mesh_opt.c.obj
                0x000000000003af7c                nrf_mesh_opt_get
 .text.sd_radio_session_open
                0x000000000003afa4        0x4 CMakeFiles/dfu_no_serial_nrf52840_xxAA_s140_6.0.0.dir/__/__/mesh/core/src/timeslot.c.obj
 .text.sd_radio_session_close
                0x000000000003afa8        0x4 CMakeFiles/dfu_no_serial_nrf52840_xxAA_s140_6.0.0.dir/__/__/mesh/core/src/timeslot.c.obj
 .text.sd_radio_request
                0x000000000003afac        0x4 CMakeFiles/dfu_no_serial_nrf52840_xxAA_s140_6.0.0.dir/__/__/mesh/core/src/timeslot.c.obj
 .text.end_timer_handler
                0x000000000003afb0       0x2c CMakeFiles/dfu_no_serial_nrf52840_xxAA_s140_6.0.0.dir/__/__/mesh/core/src/timeslot.c.obj
 .text.radio_signal_callback
                0x000000000003afdc      0x2b4 CMakeFiles/dfu_no_serial_nrf52840_xxAA_s140_6.0.0.dir/__/__/mesh/core/src/timeslot.c.obj
 .text.timeslot_sd_event_handler
                0x000000000003b290       0x44 CMakeFiles/dfu_no_serial_nrf52840_xxAA_s140_6.0.0.dir/__/__/mesh/core/src/timeslot.c.obj
                0x000000000003b290                timeslot_sd_event_handler
 .text.timeslot_init
                0x000000000003b2d4       0x4c CMakeFiles/dfu_no_serial_nrf52840_xxAA_s140_6.0.0.dir/__/__/mesh/core/src/timeslot.c.obj
                0x000000000003b2d4                timeslot_init
 .text.timeslot_start
                0x000000000003b320       0x20 CMakeFiles/dfu_no_serial_nrf52840_xxAA_s140_6.0.0.dir/__/__/mesh/core/src/timeslot.c.obj
                0x000000000003b320                timeslot_start
 .text.timeslot_stop
                0x000000000003b340       0x30 CMakeFiles/dfu_no_serial_nrf52840_xxAA_s140_6.0.0.dir/__/__/mesh/core/src/timeslot.c.obj
                0x000000000003b340                timeslot_stop
 .text.timeslot_state_lock
                0x000000000003b370       0x44 CMakeFiles/dfu_no_serial_nrf52840_xxAA_s140_6.0.0.dir/__/__/mesh/core/src/timeslot.c.obj
                0x000000000003b370                timeslot_state_lock
 .text.timeslot_end_is_pending
                0x000000000003b3b4       0x24 CMakeFiles/dfu_no_serial_nrf52840_xxAA_s140_6.0.0.dir/__/__/mesh/core/src/timeslot.c.obj
                0x000000000003b3b4                timeslot_end_is_pending
 .text.timeslot_start_time_get
                0x000000000003b3d8        0xc CMakeFiles/dfu_no_serial_nrf52840_xxAA_s140_6.0.0.dir/__/__/mesh/core/src/timeslot.c.obj
                0x000000000003b3d8                timeslot_start_time_get
 .text.timeslot_remaining_time_get
                0x000000000003b3e4       0x40 CMakeFiles/dfu_no_serial_nrf52840_xxAA_s140_6.0.0.dir/__/__/mesh/core/src/timeslot.c.obj
                0x000000000003b3e4                timeslot_remaining_time_get
 .text.timeslot_is_in_cb
                0x000000000003b424        0xc CMakeFiles/dfu_no_serial_nrf52840_xxAA_s140_6.0.0.dir/__/__/mesh/core/src/timeslot.c.obj
                0x000000000003b424                timeslot_is_in_cb
 .text.timeslot_trigger
                0x000000000003b430       0x24 CMakeFiles/dfu_no_serial_nrf52840_xxAA_s140_6.0.0.dir/__/__/mesh/core/src/timeslot.c.obj
                0x000000000003b430                timeslot_trigger
 .text.bearer_event_init
                0x000000000003b454       0x4c CMakeFiles/dfu_no_serial_nrf52840_xxAA_s140_6.0.0.dir/__/__/mesh/core/src/bearer_event.c.obj
                0x000000000003b454                bearer_event_init
 .text.bearer_event_timer_post
                0x000000000003b4a0       0x50 CMakeFiles/dfu_no_serial_nrf52840_xxAA_s140_6.0.0.dir/__/__/mesh/core/src/bearer_event.c.obj
                0x000000000003b4a0                bearer_event_timer_post
 .text.bearer_event_critical_section_begin
                0x000000000003b4f0       0x44 CMakeFiles/dfu_no_serial_nrf52840_xxAA_s140_6.0.0.dir/__/__/mesh/core/src/bearer_event.c.obj
                0x000000000003b4f0                bearer_event_critical_section_begin
 .text.bearer_event_critical_section_end
                0x000000000003b534       0x40 CMakeFiles/dfu_no_serial_nrf52840_xxAA_s140_6.0.0.dir/__/__/mesh/core/src/bearer_event.c.obj
                0x000000000003b534                bearer_event_critical_section_end
 .text.bearer_event_flag_add
                0x000000000003b574       0x40 CMakeFiles/dfu_no_serial_nrf52840_xxAA_s140_6.0.0.dir/__/__/mesh/core/src/bearer_event.c.obj
                0x000000000003b574                bearer_event_flag_add
 .text.bearer_event_flag_set
                0x000000000003b5b4       0x5c CMakeFiles/dfu_no_serial_nrf52840_xxAA_s140_6.0.0.dir/__/__/mesh/core/src/bearer_event.c.obj
                0x000000000003b5b4                bearer_event_flag_set
 .text.bearer_event_sequential_add
                0x000000000003b610       0x34 CMakeFiles/dfu_no_serial_nrf52840_xxAA_s140_6.0.0.dir/__/__/mesh/core/src/bearer_event.c.obj
                0x000000000003b610                bearer_event_sequential_add
 .text.bearer_event_sequential_post
                0x000000000003b644       0x64 CMakeFiles/dfu_no_serial_nrf52840_xxAA_s140_6.0.0.dir/__/__/mesh/core/src/bearer_event.c.obj
                0x000000000003b644                bearer_event_sequential_post
 .text.bearer_event_sequential_pending
                0x000000000003b6a8       0x14 CMakeFiles/dfu_no_serial_nrf52840_xxAA_s140_6.0.0.dir/__/__/mesh/core/src/bearer_event.c.obj
                0x000000000003b6a8                bearer_event_sequential_pending
 .text.bearer_event_handler
                0x000000000003b6bc      0x16c CMakeFiles/dfu_no_serial_nrf52840_xxAA_s140_6.0.0.dir/__/__/mesh/core/src/bearer_event.c.obj
                0x000000000003b6bc                bearer_event_handler
 .text.QDEC_IRQHandler
                0x000000000003b828        0x4 CMakeFiles/dfu_no_serial_nrf52840_xxAA_s140_6.0.0.dir/__/__/mesh/core/src/bearer_event.c.obj
                0x000000000003b828                QDEC_IRQHandler
 .text.enc_aes_encrypt
                0x000000000003b82c        0x4 CMakeFiles/dfu_no_serial_nrf52840_xxAA_s140_6.0.0.dir/__/__/mesh/core/src/enc.c.obj
                0x000000000003b82c                enc_aes_encrypt
 .text.enc_aes_cmac
                0x000000000003b830        0x4 CMakeFiles/dfu_no_serial_nrf52840_xxAA_s140_6.0.0.dir/__/__/mesh/core/src/enc.c.obj
                0x000000000003b830                enc_aes_cmac
 .text.enc_aes_ccm_encrypt
                0x000000000003b834        0x4 CMakeFiles/dfu_no_serial_nrf52840_xxAA_s140_6.0.0.dir/__/__/mesh/core/src/enc.c.obj
                0x000000000003b834                enc_aes_ccm_encrypt
 .text.enc_aes_ccm_decrypt
                0x000000000003b838        0x4 CMakeFiles/dfu_no_serial_nrf52840_xxAA_s140_6.0.0.dir/__/__/mesh/core/src/enc.c.obj
                0x000000000003b838                enc_aes_ccm_decrypt
 .text.enc_nonce_generate
                0x000000000003b83c       0xc8 CMakeFiles/dfu_no_serial_nrf52840_xxAA_s140_6.0.0.dir/__/__/mesh/core/src/enc.c.obj
                0x000000000003b83c                enc_nonce_generate
 .text.enc_s1   0x000000000003b904       0x30 CMakeFiles/dfu_no_serial_nrf52840_xxAA_s140_6.0.0.dir/__/__/mesh/core/src/enc.c.obj
                0x000000000003b904                enc_s1
 .text.enc_k1   0x000000000003b934       0x40 CMakeFiles/dfu_no_serial_nrf52840_xxAA_s140_6.0.0.dir/__/__/mesh/core/src/enc.c.obj
                0x000000000003b934                enc_k1
 .text.enc_k2   0x000000000003b974       0xe0 CMakeFiles/dfu_no_serial_nrf52840_xxAA_s140_6.0.0.dir/__/__/mesh/core/src/enc.c.obj
                0x000000000003b974                enc_k2
 .text.enc_k3   0x000000000003ba54       0x68 CMakeFiles/dfu_no_serial_nrf52840_xxAA_s140_6.0.0.dir/__/__/mesh/core/src/enc.c.obj
                0x000000000003ba54                enc_k3
 .text.enc_k4   0x000000000003babc       0x60 CMakeFiles/dfu_no_serial_nrf52840_xxAA_s140_6.0.0.dir/__/__/mesh/core/src/enc.c.obj
                0x000000000003babc                enc_k4
 .text.network_init
                0x000000000003bb1c       0x28 CMakeFiles/dfu_no_serial_nrf52840_xxAA_s140_6.0.0.dir/__/__/mesh/core/src/network.c.obj
                0x000000000003bb1c                network_init
 .text.network_opt_set
                0x000000000003bb44       0x84 CMakeFiles/dfu_no_serial_nrf52840_xxAA_s140_6.0.0.dir/__/__/mesh/core/src/network.c.obj
                0x000000000003bb44                network_opt_set
 .text.network_opt_get
                0x000000000003bbc8       0x5c CMakeFiles/dfu_no_serial_nrf52840_xxAA_s140_6.0.0.dir/__/__/mesh/core/src/network.c.obj
                0x000000000003bbc8                network_opt_get
 .text.network_packet_alloc
                0x000000000003bc24       0xa0 CMakeFiles/dfu_no_serial_nrf52840_xxAA_s140_6.0.0.dir/__/__/mesh/core/src/network.c.obj
                0x000000000003bc24                network_packet_alloc
 .text.network_packet_send
                0x000000000003bcc4       0x58 CMakeFiles/dfu_no_serial_nrf52840_xxAA_s140_6.0.0.dir/__/__/mesh/core/src/network.c.obj
                0x000000000003bcc4                network_packet_send
 .text.network_packet_in
                0x000000000003bd1c      0x1c8 CMakeFiles/dfu_no_serial_nrf52840_xxAA_s140_6.0.0.dir/__/__/mesh/core/src/network.c.obj
                0x000000000003bd1c                network_packet_in
 .text.net_packet_decrypt
                0x000000000003bee4      0x2bc CMakeFiles/dfu_no_serial_nrf52840_xxAA_s140_6.0.0.dir/__/__/mesh/core/src/net_packet.c.obj
                0x000000000003bee4                net_packet_decrypt
 .text.net_packet_encrypt
                0x000000000003c1a0      0x100 CMakeFiles/dfu_no_serial_nrf52840_xxAA_s140_6.0.0.dir/__/__/mesh/core/src/net_packet.c.obj
                0x000000000003c1a0                net_packet_encrypt
 .text.net_packet_header_set
                0x000000000003c2a0       0xc0 CMakeFiles/dfu_no_serial_nrf52840_xxAA_s140_6.0.0.dir/__/__/mesh/core/src/net_packet.c.obj
                0x000000000003c2a0                net_packet_header_set
 .text.net_packet_payload_len_get
                0x000000000003c360       0x14 CMakeFiles/dfu_no_serial_nrf52840_xxAA_s140_6.0.0.dir/__/__/mesh/core/src/net_packet.c.obj
                0x000000000003c360                net_packet_payload_len_get
 .text.net_packet_from_payload
                0x000000000003c374        0x4 CMakeFiles/dfu_no_serial_nrf52840_xxAA_s140_6.0.0.dir/__/__/mesh/core/src/net_packet.c.obj
                0x000000000003c374                net_packet_from_payload
 .text.net_packet_obfuscation_start_get
                0x000000000003c378        0x4 CMakeFiles/dfu_no_serial_nrf52840_xxAA_s140_6.0.0.dir/__/__/mesh/core/src/net_packet.c.obj
                0x000000000003c378                net_packet_obfuscation_start_get
 .text.msq_init
                0x000000000003c37c       0x6c CMakeFiles/dfu_no_serial_nrf52840_xxAA_s140_6.0.0.dir/__/__/mesh/core/src/msqueue.c.obj
                0x000000000003c37c                msq_init
 .text.msq_get  0x000000000003c3e8       0x54 CMakeFiles/dfu_no_serial_nrf52840_xxAA_s140_6.0.0.dir/__/__/mesh/core/src/msqueue.c.obj
                0x000000000003c3e8                msq_get
 .text.msq_move
                0x000000000003c43c       0x4c CMakeFiles/dfu_no_serial_nrf52840_xxAA_s140_6.0.0.dir/__/__/mesh/core/src/msqueue.c.obj
                0x000000000003c43c                msq_move
 .text.msq_available
                0x000000000003c488       0x44 CMakeFiles/dfu_no_serial_nrf52840_xxAA_s140_6.0.0.dir/__/__/mesh/core/src/msqueue.c.obj
                0x000000000003c488                msq_available
 .text.nrf_mesh_keygen_aid
                0x000000000003c4cc       0x18 CMakeFiles/dfu_no_serial_nrf52840_xxAA_s140_6.0.0.dir/__/__/mesh/core/src/nrf_mesh_keygen.c.obj
                0x000000000003c4cc                nrf_mesh_keygen_aid
 .text.nrf_mesh_keygen_network_secmat
                0x000000000003c4e4       0x24 CMakeFiles/dfu_no_serial_nrf52840_xxAA_s140_6.0.0.dir/__/__/mesh/core/src/nrf_mesh_keygen.c.obj
                0x000000000003c4e4                nrf_mesh_keygen_network_secmat
 .text.nrf_mesh_keygen_beacon_secmat
                0x000000000003c508       0x50 CMakeFiles/dfu_no_serial_nrf52840_xxAA_s140_6.0.0.dir/__/__/mesh/core/src/nrf_mesh_keygen.c.obj
                0x000000000003c508                nrf_mesh_keygen_beacon_secmat
 .text.nrf_mesh_keygen_virtual_address
                0x000000000003c558       0x50 CMakeFiles/dfu_no_serial_nrf52840_xxAA_s140_6.0.0.dir/__/__/mesh/core/src/nrf_mesh_keygen.c.obj
                0x000000000003c558                nrf_mesh_keygen_virtual_address
 .text.list_add
                0x000000000003c5a8       0x64 CMakeFiles/dfu_no_serial_nrf52840_xxAA_s140_6.0.0.dir/__/__/mesh/core/src/list.c.obj
                0x000000000003c5a8                list_add
 .text.list_remove
                0x000000000003c60c       0x44 CMakeFiles/dfu_no_serial_nrf52840_xxAA_s140_6.0.0.dir/__/__/mesh/core/src/list.c.obj
                0x000000000003c60c                list_remove
 .text.list_compare_add
                0x000000000003c650       0x80 CMakeFiles/dfu_no_serial_nrf52840_xxAA_s140_6.0.0.dir/__/__/mesh/core/src/list.c.obj
                0x000000000003c650                list_compare_add
 .text.log_callback_rtt
                0x000000000003c6d0       0x2c CMakeFiles/dfu_no_serial_nrf52840_xxAA_s140_6.0.0.dir/__/__/mesh/core/src/log.c.obj
                0x000000000003c6d0                log_callback_rtt
 .text.log_init
                0x000000000003c6fc       0x20 CMakeFiles/dfu_no_serial_nrf52840_xxAA_s140_6.0.0.dir/__/__/mesh/core/src/log.c.obj
                0x000000000003c6fc                log_init
 .text.log_printf
                0x000000000003c71c       0x20 CMakeFiles/dfu_no_serial_nrf52840_xxAA_s140_6.0.0.dir/__/__/mesh/core/src/log.c.obj
                0x000000000003c71c                log_printf
 .text.process_action_queue
                0x000000000003c73c      0x794 CMakeFiles/dfu_no_serial_nrf52840_xxAA_s140_6.0.0.dir/__/__/mesh/core/src/flash_manager.c.obj
 .text.flash_op_ended_callback
                0x000000000003ced0       0x24 CMakeFiles/dfu_no_serial_nrf52840_xxAA_s140_6.0.0.dir/__/__/mesh/core/src/flash_manager.c.obj
 .text.flash_manager_init
                0x000000000003cef4       0x68 CMakeFiles/dfu_no_serial_nrf52840_xxAA_s140_6.0.0.dir/__/__/mesh/core/src/flash_manager.c.obj
                0x000000000003cef4                flash_manager_init
 .text.flash_manager_remove
                0x000000000003cf5c       0x6c CMakeFiles/dfu_no_serial_nrf52840_xxAA_s140_6.0.0.dir/__/__/mesh/core/src/flash_manager.c.obj
                0x000000000003cf5c                flash_manager_remove
 .text.flash_manager_entry_get
                0x000000000003cfc8       0x48 CMakeFiles/dfu_no_serial_nrf52840_xxAA_s140_6.0.0.dir/__/__/mesh/core/src/flash_manager.c.obj
                0x000000000003cfc8                flash_manager_entry_get
 .text.flash_manager_entry_next_get
                0x000000000003d010      0x144 CMakeFiles/dfu_no_serial_nrf52840_xxAA_s140_6.0.0.dir/__/__/mesh/core/src/flash_manager.c.obj
                0x000000000003d010                flash_manager_entry_next_get
 .text.flash_manager_entry_alloc
                0x000000000003d154       0x80 CMakeFiles/dfu_no_serial_nrf52840_xxAA_s140_6.0.0.dir/__/__/mesh/core/src/flash_manager.c.obj
                0x000000000003d154                flash_manager_entry_alloc
 .text.flash_manager_entry_commit
                0x000000000003d1d4       0x58 CMakeFiles/dfu_no_serial_nrf52840_xxAA_s140_6.0.0.dir/__/__/mesh/core/src/flash_manager.c.obj
                0x000000000003d1d4                flash_manager_entry_commit
 .text.flash_manager_entry_invalidate
                0x000000000003d22c       0x98 CMakeFiles/dfu_no_serial_nrf52840_xxAA_s140_6.0.0.dir/__/__/mesh/core/src/flash_manager.c.obj
                0x000000000003d22c                flash_manager_entry_invalidate
 .text.flash_manager_add
                0x000000000003d2c4      0x3f4 CMakeFiles/dfu_no_serial_nrf52840_xxAA_s140_6.0.0.dir/__/__/mesh/core/src/flash_manager.c.obj
                0x000000000003d2c4                flash_manager_add
 .text.flash_manager_mem_listener_register
                0x000000000003d6b8       0x38 CMakeFiles/dfu_no_serial_nrf52840_xxAA_s140_6.0.0.dir/__/__/mesh/core/src/flash_manager.c.obj
                0x000000000003d6b8                flash_manager_mem_listener_register
 .text.flash_manager_is_stable
                0x000000000003d6f0       0x20 CMakeFiles/dfu_no_serial_nrf52840_xxAA_s140_6.0.0.dir/__/__/mesh/core/src/flash_manager.c.obj
                0x000000000003d6f0                flash_manager_is_stable
 .text.flash_manager_on_defrag_end
                0x000000000003d710       0x58 CMakeFiles/dfu_no_serial_nrf52840_xxAA_s140_6.0.0.dir/__/__/mesh/core/src/flash_manager.c.obj
                0x000000000003d710                flash_manager_on_defrag_end
 .text.flash_manager_recovery_page_get
                0x000000000003d768        0x4 CMakeFiles/dfu_no_serial_nrf52840_xxAA_s140_6.0.0.dir/__/__/mesh/core/src/flash_manager.c.obj
                0x000000000003d768                flash_manager_recovery_page_get
 .text.flash_manager_action_queue_empty_cb_set
                0x000000000003d76c       0x20 CMakeFiles/dfu_no_serial_nrf52840_xxAA_s140_6.0.0.dir/__/__/mesh/core/src/flash_manager.c.obj
                0x000000000003d76c                flash_manager_action_queue_empty_cb_set
 .text.ccm_soft_crypt.constprop.0
                0x000000000003d78c      0x274 CMakeFiles/dfu_no_serial_nrf52840_xxAA_s140_6.0.0.dir/__/__/mesh/core/src/ccm_soft.c.obj
 .text.ccm_soft_authenticate
                0x000000000003da00      0x308 CMakeFiles/dfu_no_serial_nrf52840_xxAA_s140_6.0.0.dir/__/__/mesh/core/src/ccm_soft.c.obj
 .text.ccm_soft_encrypt
                0x000000000003dd08       0x7c CMakeFiles/dfu_no_serial_nrf52840_xxAA_s140_6.0.0.dir/__/__/mesh/core/src/ccm_soft.c.obj
                0x000000000003dd08                ccm_soft_encrypt
 .text.ccm_soft_decrypt
                0x000000000003dd84      0x114 CMakeFiles/dfu_no_serial_nrf52840_xxAA_s140_6.0.0.dir/__/__/mesh/core/src/ccm_soft.c.obj
                0x000000000003dd84                ccm_soft_decrypt
 .text.replay_cache_init
                0x000000000003de98       0x20 CMakeFiles/dfu_no_serial_nrf52840_xxAA_s140_6.0.0.dir/__/__/mesh/core/src/replay_cache.c.obj
                0x000000000003de98                replay_cache_init
 .text.replay_cache_add
                0x000000000003deb8       0x60 CMakeFiles/dfu_no_serial_nrf52840_xxAA_s140_6.0.0.dir/__/__/mesh/core/src/replay_cache.c.obj
                0x000000000003deb8                replay_cache_add
 .text.replay_cache_has_elem
                0x000000000003df18       0x40 CMakeFiles/dfu_no_serial_nrf52840_xxAA_s140_6.0.0.dir/__/__/mesh/core/src/replay_cache.c.obj
                0x000000000003df18                replay_cache_has_elem
 .text.beacon_create
                0x000000000003df58       0x50 CMakeFiles/dfu_no_serial_nrf52840_xxAA_s140_6.0.0.dir/__/__/mesh/core/src/beacon.c.obj
                0x000000000003df58                beacon_create
 .text.beacon_packet_in
                0x000000000003dfa8      0x178 CMakeFiles/dfu_no_serial_nrf52840_xxAA_s140_6.0.0.dir/__/__/mesh/core/src/beacon.c.obj
                0x000000000003dfa8                beacon_packet_in
 .text.entry_get
                0x000000000003e120       0x7c CMakeFiles/dfu_no_serial_nrf52840_xxAA_s140_6.0.0.dir/__/__/mesh/core/src/flash_manager_internal.c.obj
                0x000000000003e120                entry_get
 .text.core_tx_complete_cb_set
                0x000000000003e19c        0xc CMakeFiles/dfu_no_serial_nrf52840_xxAA_s140_6.0.0.dir/__/__/mesh/core/src/core_tx.c.obj
                0x000000000003e19c                core_tx_complete_cb_set
 .text.core_tx_packet_alloc
                0x000000000003e1a8       0xc0 CMakeFiles/dfu_no_serial_nrf52840_xxAA_s140_6.0.0.dir/__/__/mesh/core/src/core_tx.c.obj
                0x000000000003e1a8                core_tx_packet_alloc
 .text.core_tx_packet_send
                0x000000000003e268       0x5c CMakeFiles/dfu_no_serial_nrf52840_xxAA_s140_6.0.0.dir/__/__/mesh/core/src/core_tx.c.obj
                0x000000000003e268                core_tx_packet_send
 .text.core_tx_packet_discard
                0x000000000003e2c4       0x54 CMakeFiles/dfu_no_serial_nrf52840_xxAA_s140_6.0.0.dir/__/__/mesh/core/src/core_tx.c.obj
                0x000000000003e2c4                core_tx_packet_discard
 .text.core_tx_complete
                0x000000000003e318       0x38 CMakeFiles/dfu_no_serial_nrf52840_xxAA_s140_6.0.0.dir/__/__/mesh/core/src/core_tx.c.obj
                0x000000000003e318                core_tx_complete
 .text.core_tx_bearer_add
                0x000000000003e350       0x90 CMakeFiles/dfu_no_serial_nrf52840_xxAA_s140_6.0.0.dir/__/__/mesh/core/src/core_tx.c.obj
                0x000000000003e350                core_tx_bearer_add
 .text.heartbeat_subscription_timer_cb
                0x000000000003e3e0       0x1c CMakeFiles/dfu_no_serial_nrf52840_xxAA_s140_6.0.0.dir/__/__/mesh/core/src/heartbeat.c.obj
 .text.heartbeat_opcode_handle
                0x000000000003e3fc       0x8c CMakeFiles/dfu_no_serial_nrf52840_xxAA_s140_6.0.0.dir/__/__/mesh/core/src/heartbeat.c.obj
 .text.heartbeat_send
                0x000000000003e488       0xbc CMakeFiles/dfu_no_serial_nrf52840_xxAA_s140_6.0.0.dir/__/__/mesh/core/src/heartbeat.c.obj
 .text.heartbeat_core_evt_cb
                0x000000000003e544       0x94 CMakeFiles/dfu_no_serial_nrf52840_xxAA_s140_6.0.0.dir/__/__/mesh/core/src/heartbeat.c.obj
 .text.heartbeat_publication_timer_cb
                0x000000000003e5d8       0xb0 CMakeFiles/dfu_no_serial_nrf52840_xxAA_s140_6.0.0.dir/__/__/mesh/core/src/heartbeat.c.obj
 .text.heartbeat_on_feature_change_trigger
                0x000000000003e688       0x48 CMakeFiles/dfu_no_serial_nrf52840_xxAA_s140_6.0.0.dir/__/__/mesh/core/src/heartbeat.c.obj
                0x000000000003e688                heartbeat_on_feature_change_trigger
 .text.heartbeat_init
                0x000000000003e6d0       0x7c CMakeFiles/dfu_no_serial_nrf52840_xxAA_s140_6.0.0.dir/__/__/mesh/core/src/heartbeat.c.obj
                0x000000000003e6d0                heartbeat_init
 .text.heartbeat_subscription_set
                0x000000000003e74c       0xa4 CMakeFiles/dfu_no_serial_nrf52840_xxAA_s140_6.0.0.dir/__/__/mesh/core/src/heartbeat.c.obj
                0x000000000003e74c                heartbeat_subscription_set
 .text.heartbeat_subscription_get
                0x000000000003e7f0        0x8 CMakeFiles/dfu_no_serial_nrf52840_xxAA_s140_6.0.0.dir/__/__/mesh/core/src/heartbeat.c.obj
                0x000000000003e7f0                heartbeat_subscription_get
 .text.heartbeat_config_server_cb_set
                0x000000000003e7f8       0x30 CMakeFiles/dfu_no_serial_nrf52840_xxAA_s140_6.0.0.dir/__/__/mesh/core/src/heartbeat.c.obj
                0x000000000003e7f8                heartbeat_config_server_cb_set
 .text.heartbeat_publication_state_updated
                0x000000000003e828       0x78 CMakeFiles/dfu_no_serial_nrf52840_xxAA_s140_6.0.0.dir/__/__/mesh/core/src/heartbeat.c.obj
                0x000000000003e828                heartbeat_publication_state_updated
 .text.beacon_tx
                0x000000000003e8a0      0x194 CMakeFiles/dfu_no_serial_nrf52840_xxAA_s140_6.0.0.dir/__/__/mesh/core/src/net_beacon.c.obj
 .text.tx_complete_cb
                0x000000000003ea34       0x10 CMakeFiles/dfu_no_serial_nrf52840_xxAA_s140_6.0.0.dir/__/__/mesh/core/src/net_beacon.c.obj
 .text.beacon_tx_timeout
                0x000000000003ea44        0x4 CMakeFiles/dfu_no_serial_nrf52840_xxAA_s140_6.0.0.dir/__/__/mesh/core/src/net_beacon.c.obj
 .text.net_beacon_init
                0x000000000003ea48       0x94 CMakeFiles/dfu_no_serial_nrf52840_xxAA_s140_6.0.0.dir/__/__/mesh/core/src/net_beacon.c.obj
                0x000000000003ea48                net_beacon_init
 .text.net_beacon_state_set
                0x000000000003eadc       0x3c CMakeFiles/dfu_no_serial_nrf52840_xxAA_s140_6.0.0.dir/__/__/mesh/core/src/net_beacon.c.obj
                0x000000000003eadc                net_beacon_state_set
 .text.net_beacon_state_get
                0x000000000003eb18        0xc CMakeFiles/dfu_no_serial_nrf52840_xxAA_s140_6.0.0.dir/__/__/mesh/core/src/net_beacon.c.obj
                0x000000000003eb18                net_beacon_state_get
 .text.net_beacon_packet_in
                0x000000000003eb24      0x134 CMakeFiles/dfu_no_serial_nrf52840_xxAA_s140_6.0.0.dir/__/__/mesh/core/src/net_beacon.c.obj
                0x000000000003eb24                net_beacon_packet_in
 .text.packet_discard
                0x000000000003ec58       0x40 CMakeFiles/dfu_no_serial_nrf52840_xxAA_s140_6.0.0.dir/__/__/mesh/core/src/core_tx_adv.c.obj
 .text.packet_send
                0x000000000003ec98       0x58 CMakeFiles/dfu_no_serial_nrf52840_xxAA_s140_6.0.0.dir/__/__/mesh/core/src/core_tx_adv.c.obj
 .text.packet_alloc
                0x000000000003ecf0       0x5c CMakeFiles/dfu_no_serial_nrf52840_xxAA_s140_6.0.0.dir/__/__/mesh/core/src/core_tx_adv.c.obj
 .text.adv_tx_complete_callback
                0x000000000003ed4c       0x28 CMakeFiles/dfu_no_serial_nrf52840_xxAA_s140_6.0.0.dir/__/__/mesh/core/src/core_tx_adv.c.obj
 .text.core_tx_adv_init
                0x000000000003ed74       0x60 CMakeFiles/dfu_no_serial_nrf52840_xxAA_s140_6.0.0.dir/__/__/mesh/core/src/core_tx_adv.c.obj
                0x000000000003ed74                core_tx_adv_init
 .text.core_tx_adv_count_set
                0x000000000003edd4       0x2c CMakeFiles/dfu_no_serial_nrf52840_xxAA_s140_6.0.0.dir/__/__/mesh/core/src/core_tx_adv.c.obj
                0x000000000003edd4                core_tx_adv_count_set
 .text.core_tx_adv_count_get
                0x000000000003ee00       0x20 CMakeFiles/dfu_no_serial_nrf52840_xxAA_s140_6.0.0.dir/__/__/mesh/core/src/core_tx_adv.c.obj
                0x000000000003ee00                core_tx_adv_count_get
 .text.core_tx_adv_interval_set
                0x000000000003ee20       0x28 CMakeFiles/dfu_no_serial_nrf52840_xxAA_s140_6.0.0.dir/__/__/mesh/core/src/core_tx_adv.c.obj
                0x000000000003ee20                core_tx_adv_interval_set
 .text.core_tx_adv_interval_get
                0x000000000003ee48       0x2c CMakeFiles/dfu_no_serial_nrf52840_xxAA_s140_6.0.0.dir/__/__/mesh/core/src/core_tx_adv.c.obj
                0x000000000003ee48                core_tx_adv_interval_get
 .text.ad_listener_subscribe
                0x000000000003ee74       0x60 CMakeFiles/dfu_no_serial_nrf52840_xxAA_s140_6.0.0.dir/__/__/mesh/bearer/src/ad_listener.c.obj
                0x000000000003ee74                ad_listener_subscribe
 .text.ad_listener_process
                0x000000000003eed4       0x84 CMakeFiles/dfu_no_serial_nrf52840_xxAA_s140_6.0.0.dir/__/__/mesh/bearer/src/ad_listener.c.obj
                0x000000000003eed4                ad_listener_process
 .text.adtype_filter_handle
                0x000000000003ef58       0x94 CMakeFiles/dfu_no_serial_nrf52840_xxAA_s140_6.0.0.dir/__/__/mesh/bearer/src/ad_type_filter.c.obj
 .text.bearer_adtype_filtering_set
                0x000000000003efec       0x1c CMakeFiles/dfu_no_serial_nrf52840_xxAA_s140_6.0.0.dir/__/__/mesh/bearer/src/ad_type_filter.c.obj
                0x000000000003efec                bearer_adtype_filtering_set
 .text.bearer_adtype_add
                0x000000000003f008       0x24 CMakeFiles/dfu_no_serial_nrf52840_xxAA_s140_6.0.0.dir/__/__/mesh/bearer/src/ad_type_filter.c.obj
                0x000000000003f008                bearer_adtype_add
 .text.bearer_adtype_mode_set
                0x000000000003f02c       0x18 CMakeFiles/dfu_no_serial_nrf52840_xxAA_s140_6.0.0.dir/__/__/mesh/bearer/src/ad_type_filter.c.obj
                0x000000000003f02c                bearer_adtype_mode_set
 .text.tx_complete_event_callback
                0x000000000003f044       0x34 CMakeFiles/dfu_no_serial_nrf52840_xxAA_s140_6.0.0.dir/__/__/mesh/bearer/src/advertiser.c.obj
 .text.broadcast_complete_cb
                0x000000000003f078       0x48 CMakeFiles/dfu_no_serial_nrf52840_xxAA_s140_6.0.0.dir/__/__/mesh/bearer/src/advertiser.c.obj
 .text.timeout_event
                0x000000000003f0c0      0x12c CMakeFiles/dfu_no_serial_nrf52840_xxAA_s140_6.0.0.dir/__/__/mesh/bearer/src/advertiser.c.obj
 .text.advertiser_init
                0x000000000003f1ec        0xc CMakeFiles/dfu_no_serial_nrf52840_xxAA_s140_6.0.0.dir/__/__/mesh/bearer/src/advertiser.c.obj
                0x000000000003f1ec                advertiser_init
 .text.advertiser_instance_init
                0x000000000003f1f8      0x100 CMakeFiles/dfu_no_serial_nrf52840_xxAA_s140_6.0.0.dir/__/__/mesh/bearer/src/advertiser.c.obj
                0x000000000003f1f8                advertiser_instance_init
 .text.advertiser_enable
                0x000000000003f2f8       0x44 CMakeFiles/dfu_no_serial_nrf52840_xxAA_s140_6.0.0.dir/__/__/mesh/bearer/src/advertiser.c.obj
                0x000000000003f2f8                advertiser_enable
 .text.advertiser_packet_alloc
                0x000000000003f33c       0x80 CMakeFiles/dfu_no_serial_nrf52840_xxAA_s140_6.0.0.dir/__/__/mesh/bearer/src/advertiser.c.obj
                0x000000000003f33c                advertiser_packet_alloc
 .text.advertiser_packet_send
                0x000000000003f3bc       0x84 CMakeFiles/dfu_no_serial_nrf52840_xxAA_s140_6.0.0.dir/__/__/mesh/bearer/src/advertiser.c.obj
                0x000000000003f3bc                advertiser_packet_send
 .text.advertiser_packet_discard
                0x000000000003f440       0x2c CMakeFiles/dfu_no_serial_nrf52840_xxAA_s140_6.0.0.dir/__/__/mesh/bearer/src/advertiser.c.obj
                0x000000000003f440                advertiser_packet_discard
 .text.advertiser_interval_set
                0x000000000003f46c       0x6c CMakeFiles/dfu_no_serial_nrf52840_xxAA_s140_6.0.0.dir/__/__/mesh/bearer/src/advertiser.c.obj
                0x000000000003f46c                advertiser_interval_set
 .text.advertiser_flush
                0x000000000003f4d8       0x20 CMakeFiles/dfu_no_serial_nrf52840_xxAA_s140_6.0.0.dir/__/__/mesh/bearer/src/advertiser.c.obj
                0x000000000003f4d8                advertiser_flush
 .text.advertiser_address_default_get
                0x000000000003f4f8       0x5c CMakeFiles/dfu_no_serial_nrf52840_xxAA_s140_6.0.0.dir/__/__/mesh/bearer/src/advertiser.c.obj
                0x000000000003f4f8                advertiser_address_default_get
 .text.action_switch.part.2
                0x000000000003f554       0xb4 CMakeFiles/dfu_no_serial_nrf52840_xxAA_s140_6.0.0.dir/__/__/mesh/bearer/src/bearer_handler.c.obj
 .text.bearer_handler_init
                0x000000000003f608       0x2c CMakeFiles/dfu_no_serial_nrf52840_xxAA_s140_6.0.0.dir/__/__/mesh/bearer/src/bearer_handler.c.obj
                0x000000000003f608                bearer_handler_init
 .text.bearer_handler_start
                0x000000000003f634       0x1c CMakeFiles/dfu_no_serial_nrf52840_xxAA_s140_6.0.0.dir/__/__/mesh/bearer/src/bearer_handler.c.obj
                0x000000000003f634                bearer_handler_start
 .text.bearer_handler_action_enqueue
                0x000000000003f650       0x88 CMakeFiles/dfu_no_serial_nrf52840_xxAA_s140_6.0.0.dir/__/__/mesh/bearer/src/bearer_handler.c.obj
                0x000000000003f650                bearer_handler_action_enqueue
 .text.bearer_handler_action_end
                0x000000000003f6d8       0x68 CMakeFiles/dfu_no_serial_nrf52840_xxAA_s140_6.0.0.dir/__/__/mesh/bearer/src/bearer_handler.c.obj
                0x000000000003f6d8                bearer_handler_action_end
 .text.bearer_handler_radio_irq_handler
                0x000000000003f740       0x58 CMakeFiles/dfu_no_serial_nrf52840_xxAA_s140_6.0.0.dir/__/__/mesh/bearer/src/bearer_handler.c.obj
                0x000000000003f740                bearer_handler_radio_irq_handler
 .text.bearer_handler_timer_irq_handler
                0x000000000003f798       0x34 CMakeFiles/dfu_no_serial_nrf52840_xxAA_s140_6.0.0.dir/__/__/mesh/bearer/src/bearer_handler.c.obj
                0x000000000003f798                bearer_handler_timer_irq_handler
 .text.bearer_handler_on_ts_begin
                0x000000000003f7cc       0x3c CMakeFiles/dfu_no_serial_nrf52840_xxAA_s140_6.0.0.dir/__/__/mesh/bearer/src/bearer_handler.c.obj
                0x000000000003f7cc                bearer_handler_on_ts_begin
 .text.bearer_handler_on_ts_end
                0x000000000003f808       0x38 CMakeFiles/dfu_no_serial_nrf52840_xxAA_s140_6.0.0.dir/__/__/mesh/bearer/src/bearer_handler.c.obj
                0x000000000003f808                bearer_handler_on_ts_end
 .text.radio_irq_handler
                0x000000000003f840       0x98 CMakeFiles/dfu_no_serial_nrf52840_xxAA_s140_6.0.0.dir/__/__/mesh/bearer/src/broadcast.c.obj
 .text.broadcast_start
                0x000000000003f8d8       0x8c CMakeFiles/dfu_no_serial_nrf52840_xxAA_s140_6.0.0.dir/__/__/mesh/bearer/src/broadcast.c.obj
 .text.broadcast_send
                0x000000000003f964       0x74 CMakeFiles/dfu_no_serial_nrf52840_xxAA_s140_6.0.0.dir/__/__/mesh/bearer/src/broadcast.c.obj
                0x000000000003f964                broadcast_send
 .text.fen_filter_start
                0x000000000003f9d8       0x38 CMakeFiles/dfu_no_serial_nrf52840_xxAA_s140_6.0.0.dir/__/__/mesh/bearer/src/filter_engine.c.obj
                0x000000000003f9d8                fen_filter_start
 .text.fen_filter_stop
                0x000000000003fa10       0x2c CMakeFiles/dfu_no_serial_nrf52840_xxAA_s140_6.0.0.dir/__/__/mesh/bearer/src/filter_engine.c.obj
                0x000000000003fa10                fen_filter_stop
 .text.fen_filters_apply
                0x000000000003fa3c       0x34 CMakeFiles/dfu_no_serial_nrf52840_xxAA_s140_6.0.0.dir/__/__/mesh/bearer/src/filter_engine.c.obj
                0x000000000003fa3c                fen_filters_apply
 .text.radio_config_reset
                0x000000000003fa70       0x38 CMakeFiles/dfu_no_serial_nrf52840_xxAA_s140_6.0.0.dir/__/__/mesh/bearer/src/radio_config.c.obj
                0x000000000003fa70                radio_config_reset
 .text.radio_config_channel_set
                0x000000000003faa8       0x28 CMakeFiles/dfu_no_serial_nrf52840_xxAA_s140_6.0.0.dir/__/__/mesh/bearer/src/radio_config.c.obj
                0x000000000003faa8                radio_config_channel_set
 .text.radio_config_config
                0x000000000003fad0       0x94 CMakeFiles/dfu_no_serial_nrf52840_xxAA_s140_6.0.0.dir/__/__/mesh/bearer/src/radio_config.c.obj
                0x000000000003fad0                radio_config_config
 .text.radio_config_access_addr_set
                0x000000000003fb64       0x58 CMakeFiles/dfu_no_serial_nrf52840_xxAA_s140_6.0.0.dir/__/__/mesh/bearer/src/radio_config.c.obj
                0x000000000003fb64                radio_config_access_addr_set
 .text.scan_window_end
                0x000000000003fbbc       0x28 CMakeFiles/dfu_no_serial_nrf52840_xxAA_s140_6.0.0.dir/__/__/mesh/bearer/src/scanner.c.obj
 .text.scan_window_start
                0x000000000003fbe4       0x38 CMakeFiles/dfu_no_serial_nrf52840_xxAA_s140_6.0.0.dir/__/__/mesh/bearer/src/scanner.c.obj
 .text.radio_start
                0x000000000003fc1c      0x1a8 CMakeFiles/dfu_no_serial_nrf52840_xxAA_s140_6.0.0.dir/__/__/mesh/bearer/src/scanner.c.obj
 .text.scanner_radio_start
                0x000000000003fdc4      0x14c CMakeFiles/dfu_no_serial_nrf52840_xxAA_s140_6.0.0.dir/__/__/mesh/bearer/src/scanner.c.obj
                0x000000000003fdc4                scanner_radio_start
 .text.scanner_radio_stop
                0x000000000003ff10       0x34 CMakeFiles/dfu_no_serial_nrf52840_xxAA_s140_6.0.0.dir/__/__/mesh/bearer/src/scanner.c.obj
                0x000000000003ff10                scanner_radio_stop
 .text.scanner_radio_irq_handler
                0x000000000003ff44      0x200 CMakeFiles/dfu_no_serial_nrf52840_xxAA_s140_6.0.0.dir/__/__/mesh/bearer/src/scanner.c.obj
                0x000000000003ff44                scanner_radio_irq_handler
 .text.scanner_enable
                0x0000000000040144       0x50 CMakeFiles/dfu_no_serial_nrf52840_xxAA_s140_6.0.0.dir/__/__/mesh/bearer/src/scanner.c.obj
                0x0000000000040144                scanner_enable
 .text.scanner_rx
                0x0000000000040194       0x8c CMakeFiles/dfu_no_serial_nrf52840_xxAA_s140_6.0.0.dir/__/__/mesh/bearer/src/scanner.c.obj
                0x0000000000040194                scanner_rx
 .text.scanner_packet_release
                0x0000000000040220       0x40 CMakeFiles/dfu_no_serial_nrf52840_xxAA_s140_6.0.0.dir/__/__/mesh/bearer/src/scanner.c.obj
                0x0000000000040220                scanner_packet_release
 .text.scanner_rx_pending
                0x0000000000040260        0xc CMakeFiles/dfu_no_serial_nrf52840_xxAA_s140_6.0.0.dir/__/__/mesh/bearer/src/scanner.c.obj
                0x0000000000040260                scanner_rx_pending
 .text.scanner_config_reset
                0x000000000004026c       0xa4 CMakeFiles/dfu_no_serial_nrf52840_xxAA_s140_6.0.0.dir/__/__/mesh/bearer/src/scanner.c.obj
                0x000000000004026c                scanner_config_reset
 .text.scanner_init
                0x0000000000040310       0x54 CMakeFiles/dfu_no_serial_nrf52840_xxAA_s140_6.0.0.dir/__/__/mesh/bearer/src/scanner.c.obj
                0x0000000000040310                scanner_init
 .text.SystemInit
                0x0000000000040364      0x1c4 CMakeFiles/dfu_no_serial_nrf52840_xxAA_s140_6.0.0.dir/home/mazzer/work/nordic/sdk/nRF5_SDK_15.0.0/modules/nrfx/mdk/system_nrf52840.c.obj
                0x0000000000040364                SystemInit
 .text          0x0000000000040528       0x3c CMakeFiles/dfu_no_serial_nrf52840_xxAA_s140_6.0.0.dir/home/mazzer/work/nordic/sdk/nRF5_SDK_15.0.0/modules/nrfx/mdk/gcc_startup_nrf52840.S.obj
                0x0000000000040528                Reset_Handler
                0x0000000000040550                NMI_Handler
                0x0000000000040552                HardFault_Handler
                0x0000000000040554                MemoryManagement_Handler
                0x0000000000040556                BusFault_Handler
                0x0000000000040558                UsageFault_Handler
                0x000000000004055a                SVC_Handler
                0x000000000004055c                DebugMon_Handler
                0x000000000004055e                PendSV_Handler
                0x0000000000040560                SysTick_Handler
                0x0000000000040562                TIMER2_IRQHandler
                0x0000000000040562                RTC0_IRQHandler
                0x0000000000040562                SWI0_EGU0_IRQHandler
                0x0000000000040562                PWM1_IRQHandler
                0x0000000000040562                POWER_CLOCK_IRQHandler
                0x0000000000040562                RADIO_IRQHandler
                0x0000000000040562                PDM_IRQHandler
                0x0000000000040562                TEMP_IRQHandler
                0x0000000000040562                TIMER3_IRQHandler
                0x0000000000040562                PWM3_IRQHandler
                0x0000000000040562                FPU_IRQHandler
                0x0000000000040562                USBD_IRQHandler
                0x0000000000040562                SPIM0_SPIS0_TWIM0_TWIS0_SPI0_TWI0_IRQHandler
                0x0000000000040562                UARTE0_UART0_IRQHandler
                0x0000000000040562                TIMER4_IRQHandler
                0x0000000000040562                CRYPTOCELL_IRQHandler
                0x0000000000040562                I2S_IRQHandler
                0x0000000000040562                SWI4_EGU4_IRQHandler
                0x0000000000040562                TIMER0_IRQHandler
                0x0000000000040562                UARTE1_IRQHandler
                0x0000000000040562                TIMER1_IRQHandler
                0x0000000000040562                SPIM3_IRQHandler
                0x0000000000040562                PWM2_IRQHandler
                0x0000000000040562                ECB_IRQHandler
                0x0000000000040562                SPIM1_SPIS1_TWIM1_TWIS1_SPI1_TWI1_IRQHandler
                0x0000000000040562                Default_Handler
                0x0000000000040562                SAADC_IRQHandler
                0x0000000000040562                CCM_AAR_IRQHandler
                0x0000000000040562                WDT_IRQHandler
                0x0000000000040562                SWI5_EGU5_IRQHandler
                0x0000000000040562                RNG_IRQHandler
                0x0000000000040562                RTC2_IRQHandler
                0x0000000000040562                PWM0_IRQHandler
                0x0000000000040562                SWI3_EGU3_IRQHandler
                0x0000000000040562                RTC1_IRQHandler
                0x0000000000040562                SWI1_EGU1_IRQHandler
                0x0000000000040562                SPIM2_SPIS2_SPI2_IRQHandler
                0x0000000000040562                NFCT_IRQHandler
                0x0000000000040562                MWU_IRQHandler
                0x0000000000040562                QSPI_IRQHandler
                0x0000000000040562                COMP_LPCOMP_IRQHandler
 .text.app_error_handler_bare
                0x0000000000040564       0x20 CMakeFiles/dfu_no_serial_nrf52840_xxAA_s140_6.0.0.dir/home/mazzer/work/nordic/sdk/nRF5_SDK_15.0.0/components/libraries/util/app_error.c.obj
                0x0000000000040564                app_error_handler_bare
 .text.app_error_handler
                0x0000000000040584       0x1c CMakeFiles/dfu_no_serial_nrf52840_xxAA_s140_6.0.0.dir/home/mazzer/work/nordic/sdk/nRF5_SDK_15.0.0/components/libraries/util/app_error_handler_gcc.c.obj
                0x0000000000040584                app_error_handler
 .text.SEGGER_RTT_Write
                0x00000000000405a0      0x1f4 ../../external/rtt/librtt_nrf52840_xxAA.a(SEGGER_RTT.c.obj)
                0x00000000000405a0                SEGGER_RTT_Write
 .text._PrintUnsigned
                0x0000000000040794      0x17c ../../external/rtt/librtt_nrf52840_xxAA.a(SEGGER_RTT_printf.c.obj)
 .text.SEGGER_RTT_vprintf
                0x0000000000040910      0x524 ../../external/rtt/librtt_nrf52840_xxAA.a(SEGGER_RTT_printf.c.obj)
                0x0000000000040910                SEGGER_RTT_vprintf
 .text.SEGGER_RTT_printf
                0x0000000000040e34       0x20 ../../external/rtt/librtt_nrf52840_xxAA.a(SEGGER_RTT_printf.c.obj)
                0x0000000000040e34                SEGGER_RTT_printf
 .text.default_RNG
                0x0000000000040e54        0xc ../../external/micro-ecc/libuECC_nrf52840_xxAA.a(uECC.c.obj)
 .text.uECC_generate_random_int
                0x0000000000040e60      0x17c ../../external/micro-ecc/libuECC_nrf52840_xxAA.a(uECC.c.obj)
 .text.apply_z  0x0000000000040fdc      0x1a8 ../../external/micro-ecc/libuECC_nrf52840_xxAA.a(uECC.c.obj)
 .text.uECC_vli_modAdd
                0x0000000000041184       0xd8 ../../external/micro-ecc/libuECC_nrf52840_xxAA.a(uECC.c.obj)
 .text.x_side_default
                0x000000000004125c      0x26c ../../external/micro-ecc/libuECC_nrf52840_xxAA.a(uECC.c.obj)
 .text.vli_mmod_fast_secp256r1
                0x00000000000414c8      0x514 ../../external/micro-ecc/libuECC_nrf52840_xxAA.a(uECC.c.obj)
 .text.XYcZ_add
                0x00000000000419dc      0x6e0 ../../external/micro-ecc/libuECC_nrf52840_xxAA.a(uECC.c.obj)
 .text.XYcZ_addC
                0x00000000000420bc      0xabc ../../external/micro-ecc/libuECC_nrf52840_xxAA.a(uECC.c.obj)
 .text.uECC_vli_modInv.part.4
                0x0000000000042b78      0x71c ../../external/micro-ecc/libuECC_nrf52840_xxAA.a(uECC.c.obj)
 .text.EccPoint_mult
                0x0000000000043294      0x4a4 ../../external/micro-ecc/libuECC_nrf52840_xxAA.a(uECC.c.obj)
 .text.double_jacobian_default
                0x0000000000043738      0x814 ../../external/micro-ecc/libuECC_nrf52840_xxAA.a(uECC.c.obj)
 .text.uECC_secp256r1
                0x0000000000043f4c        0x8 ../../external/micro-ecc/libuECC_nrf52840_xxAA.a(uECC.c.obj)
                0x0000000000043f4c                uECC_secp256r1
 .text.uECC_make_key
                0x0000000000043f54      0x240 ../../external/micro-ecc/libuECC_nrf52840_xxAA.a(uECC.c.obj)
                0x0000000000043f54                uECC_make_key
 .text.uECC_shared_secret
                0x0000000000044194      0x314 ../../external/micro-ecc/libuECC_nrf52840_xxAA.a(uECC.c.obj)
                0x0000000000044194                uECC_shared_secret
 .text.uECC_valid_public_key
                0x00000000000444a8      0x230 ../../external/micro-ecc/libuECC_nrf52840_xxAA.a(uECC.c.obj)
                0x00000000000444a8                uECC_valid_public_key
 .text.exit     0x00000000000446d8       0x28 /usr/bin/../lib/gcc/arm-none-eabi/7.2.1/../../../../arm-none-eabi/lib/thumb/v7e-m/fpv4-sp/hard/libg_nano.a(lib_a-exit.o)
                0x00000000000446d8                exit
 .text.__libc_init_array
                0x0000000000044700       0x48 /usr/bin/../lib/gcc/arm-none-eabi/7.2.1/../../../../arm-none-eabi/lib/thumb/v7e-m/fpv4-sp/hard/libg_nano.a(lib_a-init.o)
                0x0000000000044700                __libc_init_array
 .text.malloc   0x0000000000044748       0x10 /usr/bin/../lib/gcc/arm-none-eabi/7.2.1/../../../../arm-none-eabi/lib/thumb/v7e-m/fpv4-sp/hard/libg_nano.a(lib_a-malloc.o)
                0x0000000000044748                malloc
 .text.free     0x0000000000044758       0x10 /usr/bin/../lib/gcc/arm-none-eabi/7.2.1/../../../../arm-none-eabi/lib/thumb/v7e-m/fpv4-sp/hard/libg_nano.a(lib_a-malloc.o)
                0x0000000000044758                free
 .text.memcmp   0x0000000000044768       0x1e /usr/bin/../lib/gcc/arm-none-eabi/7.2.1/../../../../arm-none-eabi/lib/thumb/v7e-m/fpv4-sp/hard/libg_nano.a(lib_a-memcmp.o)
                0x0000000000044768                memcmp
 .text.memcpy   0x0000000000044786       0x16 /usr/bin/../lib/gcc/arm-none-eabi/7.2.1/../../../../arm-none-eabi/lib/thumb/v7e-m/fpv4-sp/hard/libg_nano.a(lib_a-memcpy-stub.o)
                0x0000000000044786                memcpy
 .text.memset   0x000000000004479c       0x10 /usr/bin/../lib/gcc/arm-none-eabi/7.2.1/../../../../arm-none-eabi/lib/thumb/v7e-m/fpv4-sp/hard/libg_nano.a(lib_a-memset.o)
                0x000000000004479c                memset
 .text._free_r  0x00000000000447ac       0x9c /usr/bin/../lib/gcc/arm-none-eabi/7.2.1/../../../../arm-none-eabi/lib/thumb/v7e-m/fpv4-sp/hard/libg_nano.a(lib_a-nano-freer.o)
                0x00000000000447ac                _free_r
 .text._malloc_r
                0x0000000000044848       0xb4 /usr/bin/../lib/gcc/arm-none-eabi/7.2.1/../../../../arm-none-eabi/lib/thumb/v7e-m/fpv4-sp/hard/libg_nano.a(lib_a-nano-mallocr.o)
                0x0000000000044848                _malloc_r
 .text._sbrk_r  0x00000000000448fc       0x20 /usr/bin/../lib/gcc/arm-none-eabi/7.2.1/../../../../arm-none-eabi/lib/thumb/v7e-m/fpv4-sp/hard/libg_nano.a(lib_a-sbrkr.o)
                0x00000000000448fc                _sbrk_r
 .text.strcpy   0x000000000004491c       0x10 /usr/bin/../lib/gcc/arm-none-eabi/7.2.1/../../../../arm-none-eabi/lib/thumb/v7e-m/fpv4-sp/hard/libg_nano.a(lib_a-strcpy.o)
                0x000000000004491c                strcpy
 .text          0x000000000004492c       0x10 /usr/bin/../lib/gcc/arm-none-eabi/7.2.1/../../../../arm-none-eabi/lib/thumb/v7e-m/fpv4-sp/hard/libg_nano.a(lib_a-strlen.o)
                0x000000000004492c                strlen
 .text.strrchr  0x000000000004493c       0x28 /usr/bin/../lib/gcc/arm-none-eabi/7.2.1/../../../../arm-none-eabi/lib/thumb/v7e-m/fpv4-sp/hard/libg_nano.a(lib_a-strrchr.o)
                0x000000000004493c                strrchr
 .text.__malloc_lock
                0x0000000000044964        0x2 /usr/bin/../lib/gcc/arm-none-eabi/7.2.1/../../../../arm-none-eabi/lib/thumb/v7e-m/fpv4-sp/hard/libg_nano.a(lib_a-mlock.o)
                0x0000000000044964                __malloc_lock
 .text.__malloc_unlock
                0x0000000000044966        0x2 /usr/bin/../lib/gcc/arm-none-eabi/7.2.1/../../../../arm-none-eabi/lib/thumb/v7e-m/fpv4-sp/hard/libg_nano.a(lib_a-mlock.o)
                0x0000000000044966                __malloc_unlock
 .text.strchr   0x0000000000044968       0x1a /usr/bin/../lib/gcc/arm-none-eabi/7.2.1/../../../../arm-none-eabi/lib/thumb/v7e-m/fpv4-sp/hard/libg_nano.a(lib_a-strchr.o)
                0x0000000000044968                strchr
 *fill*         0x0000000000044982        0x2 
 .text._sbrk    0x0000000000044984       0x1c /usr/bin/../lib/gcc/arm-none-eabi/7.2.1/../../../../arm-none-eabi/lib/thumb/v7e-m/fpv4-sp/hard/libnosys.a(sbrk.o)
                0x0000000000044984                _sbrk
 .text._exit    0x00000000000449a0        0x4 /usr/bin/../lib/gcc/arm-none-eabi/7.2.1/../../../../arm-none-eabi/lib/thumb/v7e-m/fpv4-sp/hard/libnosys.a(_exit.o)
                0x00000000000449a0                _exit
 *(.init)
 .init          0x00000000000449a4        0x4 /usr/bin/../lib/gcc/arm-none-eabi/7.2.1/thumb/v7e-m/fpv4-sp/hard/crti.o
                0x00000000000449a4                _init
 .init          0x00000000000449a8        0x8 /usr/bin/../lib/gcc/arm-none-eabi/7.2.1/thumb/v7e-m/fpv4-sp/hard/crtn.o
 *(.fini)
 .fini          0x00000000000449b0        0x4 /usr/bin/../lib/gcc/arm-none-eabi/7.2.1/thumb/v7e-m/fpv4-sp/hard/crti.o
                0x00000000000449b0                _fini
 .fini          0x00000000000449b4        0x8 /usr/bin/../lib/gcc/arm-none-eabi/7.2.1/thumb/v7e-m/fpv4-sp/hard/crtn.o
 *crtbegin.o(.ctors)
 *crtbegin?.o(.ctors)
 *(EXCLUDE_FILE(*crtend.o *crtend?.o) .ctors)
 *(SORT_BY_NAME(.ctors.*))
 *(.ctors)
 *crtbegin.o(.dtors)
 *crtbegin?.o(.dtors)
 *(EXCLUDE_FILE(*crtend.o *crtend?.o) .dtors)
 *(SORT_BY_NAME(.dtors.*))
 *(.dtors)
 *(.rodata*)
 .rodata.config_server_evt_cb.str1.4
                0x00000000000449bc       0x6d CMakeFiles/dfu_no_serial_nrf52840_xxAA_s140_6.0.0.dir/src/main.c.obj
 *fill*         0x0000000000044a29        0x3 
 .rodata.main.str1.4
                0x0000000000044a2c       0x9a CMakeFiles/dfu_no_serial_nrf52840_xxAA_s140_6.0.0.dir/src/main.c.obj
 *fill*         0x0000000000044ac6        0x2 
 .rodata.static_auth_data.13044
                0x0000000000044ac8       0x10 CMakeFiles/dfu_no_serial_nrf52840_xxAA_s140_6.0.0.dir/src/main.c.obj
 .rodata.mesh_softdevice_init.str1.4
                0x0000000000044ad8       0xe1 CMakeFiles/dfu_no_serial_nrf52840_xxAA_s140_6.0.0.dir/__/common/src/mesh_softdevice_init.c.obj
 *fill*         0x0000000000044bb9        0x3 
 .rodata        0x0000000000044bbc        0xb CMakeFiles/dfu_no_serial_nrf52840_xxAA_s140_6.0.0.dir/__/common/src/mesh_provisionee.c.obj
 *fill*         0x0000000000044bc7        0x9 
 .rodata.delay_bytecode.8881
                0x0000000000044bd0        0x6 CMakeFiles/dfu_no_serial_nrf52840_xxAA_s140_6.0.0.dir/__/common/src/simple_hal.c.obj
 *fill*         0x0000000000044bd6        0x2 
 .rodata.m_buttons_list
                0x0000000000044bd8        0x4 CMakeFiles/dfu_no_serial_nrf52840_xxAA_s140_6.0.0.dir/__/common/src/simple_hal.c.obj
 .rodata.access_model_publish.str1.4
                0x0000000000044bdc       0x24 CMakeFiles/dfu_no_serial_nrf52840_xxAA_s140_6.0.0.dir/__/__/mesh/access/src/access.c.obj
 .rodata.mesh_evt_cb.str1.4
                0x0000000000044c00       0x67 CMakeFiles/dfu_no_serial_nrf52840_xxAA_s140_6.0.0.dir/__/__/mesh/access/src/access.c.obj
 *fill*         0x0000000000044c67        0x1 
 .rodata.multiply_de_bruijn_bit_position.9714
                0x0000000000044c68       0x20 CMakeFiles/dfu_no_serial_nrf52840_xxAA_s140_6.0.0.dir/__/__/mesh/access/src/access.c.obj
 .rodata.m_flash_groups
                0x0000000000044c88       0xa8 CMakeFiles/dfu_no_serial_nrf52840_xxAA_s140_6.0.0.dir/__/__/mesh/access/src/device_state_manager.c.obj
 .rodata.multiply_de_bruijn_bit_position.9820
                0x0000000000044d30       0x20 CMakeFiles/dfu_no_serial_nrf52840_xxAA_s140_6.0.0.dir/__/__/mesh/access/src/device_state_manager.c.obj
 .rodata        0x0000000000044d50        0x8 CMakeFiles/dfu_no_serial_nrf52840_xxAA_s140_6.0.0.dir/__/__/models/config/src/config_server.c.obj
 .rodata.CSWTCH.178
                0x0000000000044d58       0x10 CMakeFiles/dfu_no_serial_nrf52840_xxAA_s140_6.0.0.dir/__/__/models/config/src/config_server.c.obj
 .rodata.opcode_handlers
                0x0000000000044d68      0x170 CMakeFiles/dfu_no_serial_nrf52840_xxAA_s140_6.0.0.dir/__/__/models/config/src/config_server.c.obj
 .rodata.m_opcode_handlers
                0x0000000000044ed8       0x58 CMakeFiles/dfu_no_serial_nrf52840_xxAA_s140_6.0.0.dir/__/__/models/health/src/health_server.c.obj
 .rodata.multiply_de_bruijn_bit_position.9758
                0x0000000000044f30       0x20 CMakeFiles/dfu_no_serial_nrf52840_xxAA_s140_6.0.0.dir/__/__/models/health/src/health_server.c.obj
 .rodata.m_prov_callbacks
                0x0000000000044f50       0x10 CMakeFiles/dfu_no_serial_nrf52840_xxAA_s140_6.0.0.dir/__/__/mesh/prov/src/prov_provisionee.c.obj
 .rodata.prov_provisionee_cb_ack_received.str1.4
                0x0000000000044f60       0x8b CMakeFiles/dfu_no_serial_nrf52840_xxAA_s140_6.0.0.dir/__/__/mesh/prov/src/prov_provisionee.c.obj
 *fill*         0x0000000000044feb        0x1 
 .rodata.multiply_de_bruijn_bit_position.9767
                0x0000000000044fec       0x20 CMakeFiles/dfu_no_serial_nrf52840_xxAA_s140_6.0.0.dir/__/__/mesh/prov/src/nrf_mesh_prov.c.obj
 .rodata.pdu_sizes.11728
                0x000000000004500c        0xa CMakeFiles/dfu_no_serial_nrf52840_xxAA_s140_6.0.0.dir/__/__/mesh/prov/src/provisioning.c.obj
 *fill*         0x0000000000045016        0x2 
 .rodata.alphanumeric.11833
                0x0000000000045018       0x25 CMakeFiles/dfu_no_serial_nrf52840_xxAA_s140_6.0.0.dir/__/__/mesh/prov/src/prov_utils.c.obj
 *fill*         0x000000000004503d        0x3 
 .rodata.numeric_max.11827
                0x0000000000045040       0x24 CMakeFiles/dfu_no_serial_nrf52840_xxAA_s140_6.0.0.dir/__/__/mesh/prov/src/prov_utils.c.obj
 .rodata.prov_utils_authentication_values_derive.str1.4
                0x0000000000045064        0x5 CMakeFiles/dfu_no_serial_nrf52840_xxAA_s140_6.0.0.dir/__/__/mesh/prov/src/prov_utils.c.obj
 *fill*         0x0000000000045069        0x3 
 .rodata.prov_utils_derive_keys.str1.4
                0x000000000004506c       0x15 CMakeFiles/dfu_no_serial_nrf52840_xxAA_s140_6.0.0.dir/__/__/mesh/prov/src/prov_utils.c.obj
 *fill*         0x0000000000045081        0x3 
 .rodata.crctable.11462
                0x0000000000045084      0x100 CMakeFiles/dfu_no_serial_nrf52840_xxAA_s140_6.0.0.dir/__/__/mesh/prov/src/prov_bearer_adv.c.obj
 .rodata.interface.11692
                0x0000000000045184       0x14 CMakeFiles/dfu_no_serial_nrf52840_xxAA_s140_6.0.0.dir/__/__/mesh/prov/src/prov_bearer_adv.c.obj
 .rodata.prov_bearer_adv_listen.str1.4
                0x0000000000045198       0x88 CMakeFiles/dfu_no_serial_nrf52840_xxAA_s140_6.0.0.dir/__/__/mesh/prov/src/prov_bearer_adv.c.obj
 .rodata.prov_bearer_adv_packet_in.str1.4
                0x0000000000045220      0x283 CMakeFiles/dfu_no_serial_nrf52840_xxAA_s140_6.0.0.dir/__/__/mesh/prov/src/prov_bearer_adv.c.obj
 *fill*         0x00000000000454a3        0x1 
 .rodata.tx_retry_cb.str1.4
                0x00000000000454a4       0x14 CMakeFiles/dfu_no_serial_nrf52840_xxAA_s140_6.0.0.dir/__/__/mesh/prov/src/prov_bearer_adv.c.obj
 .rodata.abort_timeout.str1.4
                0x00000000000454b8       0x8c CMakeFiles/dfu_no_serial_nrf52840_xxAA_s140_6.0.0.dir/__/__/mesh/dfu/src/nrf_mesh_dfu.c.obj
 .rodata.dfu_evt_handler.str1.4
                0x0000000000045544      0x174 CMakeFiles/dfu_no_serial_nrf52840_xxAA_s140_6.0.0.dir/__/__/mesh/dfu/src/nrf_mesh_dfu.c.obj
 .rodata.flash_op_complete.str1.4
                0x00000000000456b8       0x3d CMakeFiles/dfu_no_serial_nrf52840_xxAA_s140_6.0.0.dir/__/__/mesh/dfu/src/nrf_mesh_dfu.c.obj
 *fill*         0x00000000000456f5        0x3 
 .rodata.m_adv_channels
                0x00000000000456f8        0x3 CMakeFiles/dfu_no_serial_nrf52840_xxAA_s140_6.0.0.dir/__/__/mesh/dfu/src/nrf_mesh_dfu.c.obj
 *fill*         0x00000000000456fb        0x1 
 .rodata.timer_timeout.str1.4
                0x00000000000456fc       0x13 CMakeFiles/dfu_no_serial_nrf52840_xxAA_s140_6.0.0.dir/__/__/mesh/dfu/src/nrf_mesh_dfu.c.obj
 *fill*         0x000000000004570f        0x1 
 .rodata.app_error_fault_handler.str1.4
                0x0000000000045710       0xfd CMakeFiles/dfu_no_serial_nrf52840_xxAA_s140_6.0.0.dir/__/common/src/app_error_weak.c.obj
 .rodata.mesh_assertion_handler.str1.4
                0x000000000004580d       0xfd CMakeFiles/dfu_no_serial_nrf52840_xxAA_s140_6.0.0.dir/__/common/src/assertion_handler_weak.c.obj
                                          0x1 (size before relaxing)
 *fill*         0x000000000004580d        0x3 
 .rodata.sar_ctx_cancel.str1.4
                0x0000000000045810       0x23 CMakeFiles/dfu_no_serial_nrf52840_xxAA_s140_6.0.0.dir/__/__/mesh/core/src/transport.c.obj
 *fill*         0x0000000000045833        0x1 
 .rodata.transport_packet_in.str1.4
                0x0000000000045834       0x24 CMakeFiles/dfu_no_serial_nrf52840_xxAA_s140_6.0.0.dir/__/__/mesh/core/src/transport.c.obj
 .rodata.upper_transport_access_packet_in.str1.4
                0x0000000000045858       0x91 CMakeFiles/dfu_no_serial_nrf52840_xxAA_s140_6.0.0.dir/__/__/mesh/core/src/transport.c.obj
 *fill*         0x00000000000458e9        0x3 
 .rodata.upper_transport_packet_in.str1.4
                0x00000000000458ec       0x2e CMakeFiles/dfu_no_serial_nrf52840_xxAA_s140_6.0.0.dir/__/__/mesh/core/src/transport.c.obj
 *fill*         0x000000000004591a        0x2 
 .rodata.upper_transport_tx.part.27.str1.4
                0x000000000004591c        0xe CMakeFiles/dfu_no_serial_nrf52840_xxAA_s140_6.0.0.dir/__/__/mesh/core/src/transport.c.obj
                                         0x18 (size before relaxing)
 *fill*         0x000000000004592a        0x2 
 .rodata.m_procedure_steps
                0x000000000004592c       0x28 CMakeFiles/dfu_no_serial_nrf52840_xxAA_s140_6.0.0.dir/__/__/mesh/core/src/flash_manager_defrag.c.obj
 .rodata.m_all_operations
                0x0000000000045954       0x10 CMakeFiles/dfu_no_serial_nrf52840_xxAA_s140_6.0.0.dir/__/__/mesh/core/src/mesh_flash.c.obj
 .rodata.types_lookup.9513
                0x0000000000045964        0x4 CMakeFiles/dfu_no_serial_nrf52840_xxAA_s140_6.0.0.dir/__/__/mesh/core/src/nrf_mesh_utils.c.obj
 .rodata.__func__.11985
                0x0000000000045968       0x15 CMakeFiles/dfu_no_serial_nrf52840_xxAA_s140_6.0.0.dir/__/__/mesh/core/src/nrf_mesh.c.obj
 *fill*         0x000000000004597d        0x3 
 .rodata.nrf_mesh_listen.str1.4
                0x0000000000045980       0xab CMakeFiles/dfu_no_serial_nrf52840_xxAA_s140_6.0.0.dir/__/__/mesh/core/src/nrf_mesh.c.obj
 .rodata.nrf_mesh_packet_send.str1.4
                0x0000000000045a2b       0xab CMakeFiles/dfu_no_serial_nrf52840_xxAA_s140_6.0.0.dir/__/__/mesh/core/src/nrf_mesh.c.obj
                                          0x4 (size before relaxing)
 *fill*         0x0000000000045a2b        0x1 
 .rodata.CSWTCH.7
                0x0000000000045a2c       0x20 CMakeFiles/dfu_no_serial_nrf52840_xxAA_s140_6.0.0.dir/__/__/mesh/core/src/hal.c.obj
 .rodata        0x0000000000045a4c       0x18 CMakeFiles/dfu_no_serial_nrf52840_xxAA_s140_6.0.0.dir/__/__/mesh/core/src/enc.c.obj
 .rodata.network_packet_in.str1.4
                0x0000000000045a64       0x81 CMakeFiles/dfu_no_serial_nrf52840_xxAA_s140_6.0.0.dir/__/__/mesh/core/src/network.c.obj
 *fill*         0x0000000000045ae5        0x3 
 .rodata.net_packet_decrypt.str1.4
                0x0000000000045ae8       0x6b CMakeFiles/dfu_no_serial_nrf52840_xxAA_s140_6.0.0.dir/__/__/mesh/core/src/net_packet.c.obj
                                         0x74 (size before relaxing)
 *fill*         0x0000000000045b53        0x1 
 .rodata        0x0000000000045b54        0x7 CMakeFiles/dfu_no_serial_nrf52840_xxAA_s140_6.0.0.dir/__/__/mesh/core/src/nrf_mesh_keygen.c.obj
 *fill*         0x0000000000045b5b        0x1 
 .rodata.log_callback_rtt.str1.4
                0x0000000000045b5c       0x15 CMakeFiles/dfu_no_serial_nrf52840_xxAA_s140_6.0.0.dir/__/__/mesh/core/src/log.c.obj
 *fill*         0x0000000000045b71        0x3 
 .rodata.str1.4
                0x0000000000045b74       0x11 CMakeFiles/dfu_no_serial_nrf52840_xxAA_s140_6.0.0.dir/__/__/mesh/core/src/log.c.obj
 *fill*         0x0000000000045b85        0x3 
 .rodata.INVALID_HEADER
                0x0000000000045b88        0x4 CMakeFiles/dfu_no_serial_nrf52840_xxAA_s140_6.0.0.dir/__/__/mesh/core/src/flash_manager.c.obj
                0x0000000000045b88                INVALID_HEADER
 .rodata.PADDING_HEADER
                0x0000000000045b8c        0x4 CMakeFiles/dfu_no_serial_nrf52840_xxAA_s140_6.0.0.dir/__/__/mesh/core/src/flash_manager.c.obj
                0x0000000000045b8c                PADDING_HEADER
 .rodata.SEAL_HEADER
                0x0000000000045b90        0x4 CMakeFiles/dfu_no_serial_nrf52840_xxAA_s140_6.0.0.dir/__/__/mesh/core/src/flash_manager.c.obj
                0x0000000000045b90                SEAL_HEADER
 .rodata.beacon_packet_in.str1.4
                0x0000000000045b94       0x8d CMakeFiles/dfu_no_serial_nrf52840_xxAA_s140_6.0.0.dir/__/__/mesh/core/src/beacon.c.obj
                                         0x98 (size before relaxing)
 *fill*         0x0000000000045c21        0x3 
 .rodata.cp_handler
                0x0000000000045c24        0x8 CMakeFiles/dfu_no_serial_nrf52840_xxAA_s140_6.0.0.dir/__/__/mesh/core/src/heartbeat.c.obj
 .rodata.beacon_tx.str1.4
                0x0000000000045c2c       0x6f CMakeFiles/dfu_no_serial_nrf52840_xxAA_s140_6.0.0.dir/__/__/mesh/core/src/net_beacon.c.obj
 *fill*         0x0000000000045c9b        0x1 
 .rodata.net_beacon_init.str1.4
                0x0000000000045c9c        0x5 CMakeFiles/dfu_no_serial_nrf52840_xxAA_s140_6.0.0.dir/__/__/mesh/core/src/net_beacon.c.obj
 *fill*         0x0000000000045ca1        0x3 
 .rodata.m_interface
                0x0000000000045ca4        0xc CMakeFiles/dfu_no_serial_nrf52840_xxAA_s140_6.0.0.dir/__/__/mesh/core/src/core_tx_adv.c.obj
 .rodata.radio_mode_to_us_per_byte.9906
                0x0000000000045cb0        0x6 CMakeFiles/dfu_no_serial_nrf52840_xxAA_s140_6.0.0.dir/__/__/mesh/bearer/src/broadcast.c.obj
 *fill*         0x0000000000045cb6        0x2 
 .rodata.channel_rf_offsets.9124
                0x0000000000045cb8       0x28 CMakeFiles/dfu_no_serial_nrf52840_xxAA_s140_6.0.0.dir/__/__/mesh/bearer/src/radio_config.c.obj
 .rodata.SEGGER_RTT_ReadNoLock.str1.4
                0x0000000000045ce0       0x18 ../../external/rtt/librtt_nrf52840_xxAA.a(SEGGER_RTT.c.obj)
                                         0x17 (size before relaxing)
 .rodata._aV2C.5639
                0x0000000000045cf8       0x10 ../../external/rtt/librtt_nrf52840_xxAA.a(SEGGER_RTT_printf.c.obj)
 .rodata.curve_secp256r1
                0x0000000000045d08       0xb0 ../../external/micro-ecc/libuECC_nrf52840_xxAA.a(uECC.c.obj)
 .rodata._global_impure_ptr
                0x0000000000045db8        0x4 /usr/bin/../lib/gcc/arm-none-eabi/7.2.1/../../../../arm-none-eabi/lib/thumb/v7e-m/fpv4-sp/hard/libg_nano.a(lib_a-impure.o)
                0x0000000000045db8                _global_impure_ptr
 *(.eh_frame*)
 .eh_frame      0x0000000000045dbc        0x0 /usr/bin/../lib/gcc/arm-none-eabi/7.2.1/thumb/v7e-m/fpv4-sp/hard/crtbegin.o
 .eh_frame      0x0000000000045dbc        0x4 /usr/bin/../lib/gcc/arm-none-eabi/7.2.1/thumb/v7e-m/fpv4-sp/hard/crtend.o

.glue_7         0x0000000000045dc0        0x0
 .glue_7        0x0000000000045dc0        0x0 linker stubs

.glue_7t        0x0000000000045dc0        0x0
 .glue_7t       0x0000000000045dc0        0x0 linker stubs

.vfp11_veneer   0x0000000000045dc0        0x0
 .vfp11_veneer  0x0000000000045dc0        0x0 linker stubs

.v4_bx          0x0000000000045dc0        0x0
 .v4_bx         0x0000000000045dc0        0x0 linker stubs

.iplt           0x0000000000045dc0        0x0
 .iplt          0x0000000000045dc0        0x0 /usr/bin/../lib/gcc/arm-none-eabi/7.2.1/thumb/v7e-m/fpv4-sp/hard/crtbegin.o

.pwr_mgmt_data  0x0000000000045dc0        0x0
                [!provide]                        PROVIDE (__start_pwr_mgmt_data, .)
 *(SORT_BY_NAME(.pwr_mgmt_data*))
                [!provide]                        PROVIDE (__stop_pwr_mgmt_data, .)

.log_const_data
                0x0000000000045dc0        0x0
                [!provide]                        PROVIDE (__start_log_const_data, .)
 *(.log_const_data)
                [!provide]                        PROVIDE (__stop_log_const_data, .)

.cli_command    0x0000000000045dc0        0x0
                [!provide]                        PROVIDE (__start_cli_command, .)
 *(.cli_command)
                [!provide]                        PROVIDE (__stop_cli_command, .)

.sdh_stack_observers
                0x0000000000045dc0        0x0
                [!provide]                        PROVIDE (__start_sdh_stack_observers, .)
 *(SORT_BY_NAME(.sdh_stack_observers*))
                [!provide]                        PROVIDE (__stop_sdh_stack_observers, .)

.sdh_req_observers
                0x0000000000045dc0        0x0
                [!provide]                        PROVIDE (__start_sdh_req_observers, .)
 *(SORT_BY_NAME(.sdh_req_observers*))
                [!provide]                        PROVIDE (__stop_sdh_req_observers, .)

.sdh_state_observers
                0x0000000000045dc0        0x0
                [!provide]                        PROVIDE (__start_sdh_state_observers, .)
 *(SORT_BY_NAME(.sdh_state_observers*))
                [!provide]                        PROVIDE (__stop_sdh_state_observers, .)

.sdh_ant_observers
                0x0000000000045dc0        0x0
                [!provide]                        PROVIDE (__start_sdh_ant_observers, .)
 *(SORT_BY_NAME(.sdh_ant_observers*))
                [!provide]                        PROVIDE (__stop_sdh_ant_observers, .)

.sdh_ble_observers
                0x0000000000045dc0        0x0
                [!provide]                        PROVIDE (__start_sdh_ble_observers, .)
 *(SORT_BY_NAME(.sdh_ble_observers*))
                [!provide]                        PROVIDE (__stop_sdh_ble_observers, .)

.sdh_soc_observers
                0x0000000000045dc0        0x0
                [!provide]                        PROVIDE (__start_sdh_soc_observers, .)
 *(SORT_BY_NAME(.sdh_soc_observers*))
                [!provide]                        PROVIDE (__stop_sdh_soc_observers, .)

.ARM.extab
 *(.ARM.extab* .gnu.linkonce.armextab.*)
                0x0000000000045dc0                __exidx_start = .

.ARM.exidx      0x0000000000045dc0        0x8
 *(.ARM.exidx* .gnu.linkonce.armexidx.*)
 .ARM.exidx     0x0000000000045dc0        0x8 /usr/bin/../lib/gcc/arm-none-eabi/7.2.1/../../../../arm-none-eabi/lib/thumb/v7e-m/fpv4-sp/hard/crt0.o
                0x0000000000045dc8                __exidx_end = .
                0x0000000000045dc8                __etext = .

.rel.dyn        0x0000000000045dc8        0x0
 .rel.iplt      0x0000000000045dc8        0x0 /usr/bin/../lib/gcc/arm-none-eabi/7.2.1/thumb/v7e-m/fpv4-sp/hard/crtbegin.o

.data           0x00000000200032c8      0x148 load address 0x0000000000045dc8
                0x00000000200032c8                __data_start__ = .
 *(vtable)
 *(.data*)
 .data.rom_base
                0x00000000200032c8        0x4 CMakeFiles/dfu_no_serial_nrf52840_xxAA_s140_6.0.0.dir/src/main.c.obj
                0x00000000200032c8                rom_base
 .data.rom_end  0x00000000200032cc        0x4 CMakeFiles/dfu_no_serial_nrf52840_xxAA_s140_6.0.0.dir/src/main.c.obj
                0x00000000200032cc                rom_end
 .data.s_evt_handler.11509
                0x00000000200032d0        0x8 CMakeFiles/dfu_no_serial_nrf52840_xxAA_s140_6.0.0.dir/__/__/mesh/stack/src/mesh_stack.c.obj
 .data.flash_add_mem_available_struct.10838
                0x00000000200032d8       0x10 CMakeFiles/dfu_no_serial_nrf52840_xxAA_s140_6.0.0.dir/__/__/mesh/access/src/access.c.obj
 .data.flash_clear_mem_available_struct.10927
                0x00000000200032e8       0x10 CMakeFiles/dfu_no_serial_nrf52840_xxAA_s140_6.0.0.dir/__/__/mesh/access/src/access.c.obj
 .data.flash_store_mem_available_struct.10951
                0x00000000200032f8       0x10 CMakeFiles/dfu_no_serial_nrf52840_xxAA_s140_6.0.0.dir/__/__/mesh/access/src/access.c.obj
 .data.m_default_ttl
                0x0000000020003308        0x1 CMakeFiles/dfu_no_serial_nrf52840_xxAA_s140_6.0.0.dir/__/__/mesh/access/src/access.c.obj
 *fill*         0x0000000020003309        0x3 
 .data.mem_listener.11127
                0x000000002000330c       0x10 CMakeFiles/dfu_no_serial_nrf52840_xxAA_s140_6.0.0.dir/__/__/mesh/access/src/device_state_manager.c.obj
 .data.mem_listener.11153
                0x000000002000331c       0x10 CMakeFiles/dfu_no_serial_nrf52840_xxAA_s140_6.0.0.dir/__/__/mesh/access/src/device_state_manager.c.obj
 .data.m_config_server_handle
                0x000000002000332c        0x2 CMakeFiles/dfu_no_serial_nrf52840_xxAA_s140_6.0.0.dir/__/__/models/config/src/config_server.c.obj
 *fill*         0x000000002000332e        0x2 
 .data.m_mesh_evt_handler
                0x0000000020003330        0x8 CMakeFiles/dfu_no_serial_nrf52840_xxAA_s140_6.0.0.dir/__/__/models/config/src/config_server.c.obj
 .data.m_async_process_flag
                0x0000000020003338        0x4 CMakeFiles/dfu_no_serial_nrf52840_xxAA_s140_6.0.0.dir/__/__/mesh/prov/src/prov_bearer_adv.c.obj
 .data.wait.9426
                0x000000002000333c        0x1 CMakeFiles/dfu_no_serial_nrf52840_xxAA_s140_6.0.0.dir/__/common/src/app_error_weak.c.obj
 *fill*         0x000000002000333d        0x3 
 .data.mem_listener.10264
                0x0000000020003340       0x10 CMakeFiles/dfu_no_serial_nrf52840_xxAA_s140_6.0.0.dir/__/__/mesh/core/src/net_state.c.obj
 .data.mem_listener.10269
                0x0000000020003350       0x10 CMakeFiles/dfu_no_serial_nrf52840_xxAA_s140_6.0.0.dir/__/__/mesh/core/src/net_state.c.obj
 .data.mem_listener.10283
                0x0000000020003360       0x10 CMakeFiles/dfu_no_serial_nrf52840_xxAA_s140_6.0.0.dir/__/__/mesh/core/src/net_state.c.obj
 .data.mem_listener.10300
                0x0000000020003370       0x10 CMakeFiles/dfu_no_serial_nrf52840_xxAA_s140_6.0.0.dir/__/__/mesh/core/src/net_state.c.obj
 .data.m_nrf_mesh_listener
                0x0000000020003380        0xc CMakeFiles/dfu_no_serial_nrf52840_xxAA_s140_6.0.0.dir/__/__/mesh/core/src/nrf_mesh.c.obj
 .data.g_log_dbg_lvl
                0x000000002000338c        0x4 CMakeFiles/dfu_no_serial_nrf52840_xxAA_s140_6.0.0.dir/__/__/mesh/core/src/log.c.obj
                0x000000002000338c                g_log_dbg_lvl
 .data.g_log_dbg_msk
                0x0000000020003390        0x4 CMakeFiles/dfu_no_serial_nrf52840_xxAA_s140_6.0.0.dir/__/__/mesh/core/src/log.c.obj
                0x0000000020003390                g_log_dbg_msk
 .data.g_log_hex_digits
                0x0000000020003394        0x4 CMakeFiles/dfu_no_serial_nrf52840_xxAA_s140_6.0.0.dir/__/__/mesh/core/src/log.c.obj
                0x0000000020003394                g_log_hex_digits
 .data.m_log_callback
                0x0000000020003398        0x4 CMakeFiles/dfu_no_serial_nrf52840_xxAA_s140_6.0.0.dir/__/__/mesh/core/src/log.c.obj
                0x0000000020003398                m_log_callback
 .data.SystemCoreClock
                0x000000002000339c        0x4 CMakeFiles/dfu_no_serial_nrf52840_xxAA_s140_6.0.0.dir/home/mazzer/work/nordic/sdk/nRF5_SDK_15.0.0/modules/nrfx/mdk/system_nrf52840.c.obj
                0x000000002000339c                SystemCoreClock
 .data.g_rng_function
                0x00000000200033a0        0x4 ../../external/micro-ecc/libuECC_nrf52840_xxAA.a(uECC.c.obj)
 .data._impure_ptr
                0x00000000200033a4        0x4 /usr/bin/../lib/gcc/arm-none-eabi/7.2.1/../../../../arm-none-eabi/lib/thumb/v7e-m/fpv4-sp/hard/libg_nano.a(lib_a-impure.o)
                0x00000000200033a4                _impure_ptr
 .data.impure_data
                0x00000000200033a8       0x60 /usr/bin/../lib/gcc/arm-none-eabi/7.2.1/../../../../arm-none-eabi/lib/thumb/v7e-m/fpv4-sp/hard/libg_nano.a(lib_a-impure.o)
                0x0000000020003408                . = ALIGN (0x4)
                0x0000000020003408                PROVIDE (__preinit_array_start, .)
 *(.preinit_array)
                0x0000000020003408                PROVIDE (__preinit_array_end, .)
                0x0000000020003408                . = ALIGN (0x4)
                0x0000000020003408                PROVIDE (__init_array_start, .)
 *(SORT_BY_NAME(.init_array.*))
 *(.init_array)
 .init_array    0x0000000020003408        0x4 /usr/bin/../lib/gcc/arm-none-eabi/7.2.1/thumb/v7e-m/fpv4-sp/hard/crtbegin.o
                0x000000002000340c                PROVIDE (__init_array_end, .)
                0x000000002000340c                . = ALIGN (0x4)
                [!provide]                        PROVIDE (__fini_array_start, .)
 *(SORT_BY_NAME(.fini_array.*))
 *(.fini_array)
 .fini_array    0x000000002000340c        0x4 /usr/bin/../lib/gcc/arm-none-eabi/7.2.1/thumb/v7e-m/fpv4-sp/hard/crtbegin.o
                [!provide]                        PROVIDE (__fini_array_end, .)
 *(.jcr*)
                0x0000000020003410                . = ALIGN (0x4)
                0x0000000020003410                __data_end__ = .
LOAD /usr/bin/../lib/gcc/arm-none-eabi/7.2.1/thumb/v7e-m/fpv4-sp/hard/crti.o
LOAD /usr/bin/../lib/gcc/arm-none-eabi/7.2.1/thumb/v7e-m/fpv4-sp/hard/crtbegin.o
LOAD /usr/bin/../lib/gcc/arm-none-eabi/7.2.1/../../../../arm-none-eabi/lib/thumb/v7e-m/fpv4-sp/hard/crt0.o
LOAD CMakeFiles/dfu_no_serial_nrf52840_xxAA_s140_6.0.0.dir/src/main.c.obj
LOAD CMakeFiles/dfu_no_serial_nrf52840_xxAA_s140_6.0.0.dir/__/__/mesh/stack/src/mesh_stack.c.obj
LOAD CMakeFiles/dfu_no_serial_nrf52840_xxAA_s140_6.0.0.dir/__/common/src/mesh_softdevice_init.c.obj
LOAD CMakeFiles/dfu_no_serial_nrf52840_xxAA_s140_6.0.0.dir/__/common/src/mesh_provisionee.c.obj
LOAD CMakeFiles/dfu_no_serial_nrf52840_xxAA_s140_6.0.0.dir/__/common/src/simple_hal.c.obj
LOAD CMakeFiles/dfu_no_serial_nrf52840_xxAA_s140_6.0.0.dir/__/__/mesh/access/src/access_publish.c.obj
LOAD CMakeFiles/dfu_no_serial_nrf52840_xxAA_s140_6.0.0.dir/__/__/mesh/access/src/access.c.obj
LOAD CMakeFiles/dfu_no_serial_nrf52840_xxAA_s140_6.0.0.dir/__/__/mesh/access/src/access_reliable.c.obj
LOAD CMakeFiles/dfu_no_serial_nrf52840_xxAA_s140_6.0.0.dir/__/__/mesh/access/src/device_state_manager.c.obj
LOAD CMakeFiles/dfu_no_serial_nrf52840_xxAA_s140_6.0.0.dir/__/__/models/config/src/composition_data.c.obj
LOAD CMakeFiles/dfu_no_serial_nrf52840_xxAA_s140_6.0.0.dir/__/__/models/config/src/config_server.c.obj
LOAD CMakeFiles/dfu_no_serial_nrf52840_xxAA_s140_6.0.0.dir/__/__/models/config/src/packed_index_list.c.obj
LOAD CMakeFiles/dfu_no_serial_nrf52840_xxAA_s140_6.0.0.dir/__/__/models/health/src/health_server.c.obj
LOAD CMakeFiles/dfu_no_serial_nrf52840_xxAA_s140_6.0.0.dir/__/__/mesh/prov/src/prov_provisioner.c.obj
LOAD CMakeFiles/dfu_no_serial_nrf52840_xxAA_s140_6.0.0.dir/__/__/mesh/prov/src/prov_provisionee.c.obj
LOAD CMakeFiles/dfu_no_serial_nrf52840_xxAA_s140_6.0.0.dir/__/__/mesh/prov/src/nrf_mesh_prov.c.obj
LOAD CMakeFiles/dfu_no_serial_nrf52840_xxAA_s140_6.0.0.dir/__/__/mesh/prov/src/provisioning.c.obj
LOAD CMakeFiles/dfu_no_serial_nrf52840_xxAA_s140_6.0.0.dir/__/__/mesh/prov/src/prov_beacon.c.obj
LOAD CMakeFiles/dfu_no_serial_nrf52840_xxAA_s140_6.0.0.dir/__/__/mesh/prov/src/prov_utils.c.obj
LOAD CMakeFiles/dfu_no_serial_nrf52840_xxAA_s140_6.0.0.dir/__/__/mesh/prov/src/prov_bearer_adv.c.obj
LOAD CMakeFiles/dfu_no_serial_nrf52840_xxAA_s140_6.0.0.dir/__/__/mesh/dfu/src/nrf_mesh_dfu.c.obj
LOAD CMakeFiles/dfu_no_serial_nrf52840_xxAA_s140_6.0.0.dir/__/nrf_mesh_weak.c.obj
LOAD CMakeFiles/dfu_no_serial_nrf52840_xxAA_s140_6.0.0.dir/__/common/src/app_error_weak.c.obj
LOAD CMakeFiles/dfu_no_serial_nrf52840_xxAA_s140_6.0.0.dir/__/common/src/assertion_handler_weak.c.obj
LOAD CMakeFiles/dfu_no_serial_nrf52840_xxAA_s140_6.0.0.dir/__/__/mesh/core/src/internal_event.c.obj
LOAD CMakeFiles/dfu_no_serial_nrf52840_xxAA_s140_6.0.0.dir/__/__/mesh/core/src/nrf_mesh_configure.c.obj
LOAD CMakeFiles/dfu_no_serial_nrf52840_xxAA_s140_6.0.0.dir/__/__/mesh/core/src/aes.c.obj
LOAD CMakeFiles/dfu_no_serial_nrf52840_xxAA_s140_6.0.0.dir/__/__/mesh/core/src/msg_cache.c.obj
LOAD CMakeFiles/dfu_no_serial_nrf52840_xxAA_s140_6.0.0.dir/__/__/mesh/core/src/transport.c.obj
LOAD CMakeFiles/dfu_no_serial_nrf52840_xxAA_s140_6.0.0.dir/__/__/mesh/core/src/event.c.obj
LOAD CMakeFiles/dfu_no_serial_nrf52840_xxAA_s140_6.0.0.dir/__/__/mesh/core/src/packet_buffer.c.obj
LOAD CMakeFiles/dfu_no_serial_nrf52840_xxAA_s140_6.0.0.dir/__/__/mesh/core/src/flash_manager_defrag.c.obj
LOAD CMakeFiles/dfu_no_serial_nrf52840_xxAA_s140_6.0.0.dir/__/__/mesh/core/src/fifo.c.obj
LOAD CMakeFiles/dfu_no_serial_nrf52840_xxAA_s140_6.0.0.dir/__/__/mesh/core/src/nrf_flash.c.obj
LOAD CMakeFiles/dfu_no_serial_nrf52840_xxAA_s140_6.0.0.dir/__/__/mesh/core/src/packet_mgr.c.obj
LOAD CMakeFiles/dfu_no_serial_nrf52840_xxAA_s140_6.0.0.dir/__/__/mesh/core/src/net_state.c.obj
LOAD CMakeFiles/dfu_no_serial_nrf52840_xxAA_s140_6.0.0.dir/__/__/mesh/core/src/mesh_flash.c.obj
LOAD CMakeFiles/dfu_no_serial_nrf52840_xxAA_s140_6.0.0.dir/__/__/mesh/core/src/nrf_mesh_utils.c.obj
LOAD CMakeFiles/dfu_no_serial_nrf52840_xxAA_s140_6.0.0.dir/__/__/mesh/core/src/nrf_mesh.c.obj
LOAD CMakeFiles/dfu_no_serial_nrf52840_xxAA_s140_6.0.0.dir/__/__/mesh/core/src/queue.c.obj
LOAD CMakeFiles/dfu_no_serial_nrf52840_xxAA_s140_6.0.0.dir/__/__/mesh/core/src/hal.c.obj
LOAD CMakeFiles/dfu_no_serial_nrf52840_xxAA_s140_6.0.0.dir/__/__/mesh/core/src/aes_cmac.c.obj
LOAD CMakeFiles/dfu_no_serial_nrf52840_xxAA_s140_6.0.0.dir/__/__/mesh/core/src/timer_scheduler.c.obj
LOAD CMakeFiles/dfu_no_serial_nrf52840_xxAA_s140_6.0.0.dir/__/__/mesh/core/src/timer.c.obj
LOAD CMakeFiles/dfu_no_serial_nrf52840_xxAA_s140_6.0.0.dir/__/__/mesh/core/src/ticker.c.obj
LOAD CMakeFiles/dfu_no_serial_nrf52840_xxAA_s140_6.0.0.dir/__/__/mesh/core/src/rand.c.obj
LOAD CMakeFiles/dfu_no_serial_nrf52840_xxAA_s140_6.0.0.dir/__/__/mesh/core/src/nrf_mesh_opt.c.obj
LOAD CMakeFiles/dfu_no_serial_nrf52840_xxAA_s140_6.0.0.dir/__/__/mesh/core/src/timeslot.c.obj
LOAD CMakeFiles/dfu_no_serial_nrf52840_xxAA_s140_6.0.0.dir/__/__/mesh/core/src/bearer_event.c.obj
LOAD CMakeFiles/dfu_no_serial_nrf52840_xxAA_s140_6.0.0.dir/__/__/mesh/core/src/enc.c.obj
LOAD CMakeFiles/dfu_no_serial_nrf52840_xxAA_s140_6.0.0.dir/__/__/mesh/core/src/network.c.obj
LOAD CMakeFiles/dfu_no_serial_nrf52840_xxAA_s140_6.0.0.dir/__/__/mesh/core/src/net_packet.c.obj
LOAD CMakeFiles/dfu_no_serial_nrf52840_xxAA_s140_6.0.0.dir/__/__/mesh/core/src/msqueue.c.obj
LOAD CMakeFiles/dfu_no_serial_nrf52840_xxAA_s140_6.0.0.dir/__/__/mesh/core/src/nrf_mesh_keygen.c.obj
LOAD CMakeFiles/dfu_no_serial_nrf52840_xxAA_s140_6.0.0.dir/__/__/mesh/core/src/cache.c.obj
LOAD CMakeFiles/dfu_no_serial_nrf52840_xxAA_s140_6.0.0.dir/__/__/mesh/core/src/uri.c.obj
LOAD CMakeFiles/dfu_no_serial_nrf52840_xxAA_s140_6.0.0.dir/__/__/mesh/core/src/list.c.obj
LOAD CMakeFiles/dfu_no_serial_nrf52840_xxAA_s140_6.0.0.dir/__/__/mesh/core/src/log.c.obj
LOAD CMakeFiles/dfu_no_serial_nrf52840_xxAA_s140_6.0.0.dir/__/__/mesh/core/src/flash_manager.c.obj
LOAD CMakeFiles/dfu_no_serial_nrf52840_xxAA_s140_6.0.0.dir/__/__/mesh/core/src/ccm_soft.c.obj
LOAD CMakeFiles/dfu_no_serial_nrf52840_xxAA_s140_6.0.0.dir/__/__/mesh/core/src/toolchain.c.obj
LOAD CMakeFiles/dfu_no_serial_nrf52840_xxAA_s140_6.0.0.dir/__/__/mesh/core/src/replay_cache.c.obj
LOAD CMakeFiles/dfu_no_serial_nrf52840_xxAA_s140_6.0.0.dir/__/__/mesh/core/src/beacon.c.obj
LOAD CMakeFiles/dfu_no_serial_nrf52840_xxAA_s140_6.0.0.dir/__/__/mesh/core/src/flash_manager_internal.c.obj
LOAD CMakeFiles/dfu_no_serial_nrf52840_xxAA_s140_6.0.0.dir/__/__/mesh/core/src/core_tx.c.obj
LOAD CMakeFiles/dfu_no_serial_nrf52840_xxAA_s140_6.0.0.dir/__/__/mesh/core/src/heartbeat.c.obj
LOAD CMakeFiles/dfu_no_serial_nrf52840_xxAA_s140_6.0.0.dir/__/__/mesh/core/src/net_beacon.c.obj
LOAD CMakeFiles/dfu_no_serial_nrf52840_xxAA_s140_6.0.0.dir/__/__/mesh/core/src/fsm.c.obj
LOAD CMakeFiles/dfu_no_serial_nrf52840_xxAA_s140_6.0.0.dir/__/__/mesh/core/src/core_tx_adv.c.obj
LOAD CMakeFiles/dfu_no_serial_nrf52840_xxAA_s140_6.0.0.dir/__/__/mesh/bearer/src/ad_listener.c.obj
LOAD CMakeFiles/dfu_no_serial_nrf52840_xxAA_s140_6.0.0.dir/__/__/mesh/bearer/src/ad_type_filter.c.obj
LOAD CMakeFiles/dfu_no_serial_nrf52840_xxAA_s140_6.0.0.dir/__/__/mesh/bearer/src/adv_packet_filter.c.obj
LOAD CMakeFiles/dfu_no_serial_nrf52840_xxAA_s140_6.0.0.dir/__/__/mesh/bearer/src/advertiser.c.obj
LOAD CMakeFiles/dfu_no_serial_nrf52840_xxAA_s140_6.0.0.dir/__/__/mesh/bearer/src/bearer_handler.c.obj
LOAD CMakeFiles/dfu_no_serial_nrf52840_xxAA_s140_6.0.0.dir/__/__/mesh/bearer/src/broadcast.c.obj
LOAD CMakeFiles/dfu_no_serial_nrf52840_xxAA_s140_6.0.0.dir/__/__/mesh/bearer/src/filter_engine.c.obj
LOAD CMakeFiles/dfu_no_serial_nrf52840_xxAA_s140_6.0.0.dir/__/__/mesh/bearer/src/gap_address_filter.c.obj
LOAD CMakeFiles/dfu_no_serial_nrf52840_xxAA_s140_6.0.0.dir/__/__/mesh/bearer/src/radio_config.c.obj
LOAD CMakeFiles/dfu_no_serial_nrf52840_xxAA_s140_6.0.0.dir/__/__/mesh/bearer/src/rssi_filter.c.obj
LOAD CMakeFiles/dfu_no_serial_nrf52840_xxAA_s140_6.0.0.dir/__/__/mesh/bearer/src/scanner.c.obj
LOAD CMakeFiles/dfu_no_serial_nrf52840_xxAA_s140_6.0.0.dir/home/mazzer/work/nordic/sdk/nRF5_SDK_15.0.0/modules/nrfx/mdk/system_nrf52840.c.obj
LOAD CMakeFiles/dfu_no_serial_nrf52840_xxAA_s140_6.0.0.dir/home/mazzer/work/nordic/sdk/nRF5_SDK_15.0.0/modules/nrfx/mdk/gcc_startup_nrf52840.S.obj
LOAD CMakeFiles/dfu_no_serial_nrf52840_xxAA_s140_6.0.0.dir/home/mazzer/work/nordic/sdk/nRF5_SDK_15.0.0/components/libraries/util/app_error.c.obj
LOAD CMakeFiles/dfu_no_serial_nrf52840_xxAA_s140_6.0.0.dir/home/mazzer/work/nordic/sdk/nRF5_SDK_15.0.0/components/libraries/util/app_error_handler_gcc.c.obj
LOAD ../../external/rtt/librtt_nrf52840_xxAA.a
LOAD ../../external/micro-ecc/libuECC_nrf52840_xxAA.a
START GROUP
LOAD /usr/bin/../lib/gcc/arm-none-eabi/7.2.1/thumb/v7e-m/fpv4-sp/hard/libgcc.a
LOAD /usr/bin/../lib/gcc/arm-none-eabi/7.2.1/../../../../arm-none-eabi/lib/thumb/v7e-m/fpv4-sp/hard/libg_nano.a
LOAD /usr/bin/../lib/gcc/arm-none-eabi/7.2.1/../../../../arm-none-eabi/lib/thumb/v7e-m/fpv4-sp/hard/libc_nano.a
END GROUP
START GROUP
LOAD /usr/bin/../lib/gcc/arm-none-eabi/7.2.1/thumb/v7e-m/fpv4-sp/hard/libgcc.a
LOAD /usr/bin/../lib/gcc/arm-none-eabi/7.2.1/../../../../arm-none-eabi/lib/thumb/v7e-m/fpv4-sp/hard/libc_nano.a
END GROUP
LOAD /usr/bin/../lib/gcc/arm-none-eabi/7.2.1/thumb/v7e-m/fpv4-sp/hard/crtend.o
LOAD /usr/bin/../lib/gcc/arm-none-eabi/7.2.1/thumb/v7e-m/fpv4-sp/hard/crtn.o
START GROUP
LOAD /usr/bin/../lib/gcc/arm-none-eabi/7.2.1/thumb/v7e-m/fpv4-sp/hard/libgcc.a
LOAD /usr/bin/../lib/gcc/arm-none-eabi/7.2.1/../../../../arm-none-eabi/lib/thumb/v7e-m/fpv4-sp/hard/libc.a
LOAD /usr/bin/../lib/gcc/arm-none-eabi/7.2.1/../../../../arm-none-eabi/lib/thumb/v7e-m/fpv4-sp/hard/libnosys.a
END GROUP

.igot.plt       0x0000000020003410        0x0 load address 0x0000000000045f10
 .igot.plt      0x0000000020003410        0x0 /usr/bin/../lib/gcc/arm-none-eabi/7.2.1/thumb/v7e-m/fpv4-sp/hard/crtbegin.o
                0x0000000020003410                . = ALIGN (0x4)

.svc_data       0x0000000020003410        0x0
                [!provide]                        PROVIDE (__start_svc_data, .)
 *(.svc_data)
                [!provide]                        PROVIDE (__stop_svc_data, .)

.fs_data        0x0000000020003410        0x0
                [!provide]                        PROVIDE (__start_fs_data, .)
 *(.fs_data)
                [!provide]                        PROVIDE (__stop_fs_data, .)

.log_dynamic_data
                0x0000000020003410        0x0
                [!provide]                        PROVIDE (__start_log_dynamic_data, .)
 *(.log_dynamic_data)
                [!provide]                        PROVIDE (__stop_log_dynamic_data, .)

.cli_sorted_cmd_ptrs
                0x0000000020003410        0x0
                [!provide]                        PROVIDE (__start_cli_sorted_cmd_ptrs, .)
 *(.cli_sorted_cmd_ptrs)
                [!provide]                        PROVIDE (__stop_cli_sorted_cmd_ptrs, .)

.bss            0x0000000020003410     0x34ac load address 0x0000000000045f10
                0x0000000020003410                . = ALIGN (0x4)
                0x0000000020003410                __bss_start__ = .
 *(.bss*)
 .bss           0x0000000020003410       0x1c /usr/bin/../lib/gcc/arm-none-eabi/7.2.1/thumb/v7e-m/fpv4-sp/hard/crtbegin.o
 .bss.m_device_provisioned
                0x000000002000342c        0x1 CMakeFiles/dfu_no_serial_nrf52840_xxAA_s140_6.0.0.dir/src/main.c.obj
 *fill*         0x000000002000342d        0x3 
 .bss.m_evt_handler
                0x0000000020003430        0x8 CMakeFiles/dfu_no_serial_nrf52840_xxAA_s140_6.0.0.dir/src/main.c.obj
 .bss.m_health_server
                0x0000000020003438       0x5c CMakeFiles/dfu_no_serial_nrf52840_xxAA_s140_6.0.0.dir/__/__/mesh/stack/src/mesh_stack.c.obj
 .bss.m_init_params
                0x0000000020003494       0x24 CMakeFiles/dfu_no_serial_nrf52840_xxAA_s140_6.0.0.dir/__/__/mesh/stack/src/mesh_stack.c.obj
 .bss.m_device_provisioned
                0x00000000200034b8        0x1 CMakeFiles/dfu_no_serial_nrf52840_xxAA_s140_6.0.0.dir/__/common/src/mesh_provisionee.c.obj
 *fill*         0x00000000200034b9        0x3 
 .bss.m_params  0x00000000200034bc        0xc CMakeFiles/dfu_no_serial_nrf52840_xxAA_s140_6.0.0.dir/__/common/src/mesh_provisionee.c.obj
 .bss.m_private_key
                0x00000000200034c8       0x20 CMakeFiles/dfu_no_serial_nrf52840_xxAA_s140_6.0.0.dir/__/common/src/mesh_provisionee.c.obj
 .bss.m_prov_bearer_adv
                0x00000000200034e8      0x1c4 CMakeFiles/dfu_no_serial_nrf52840_xxAA_s140_6.0.0.dir/__/common/src/mesh_provisionee.c.obj
 .bss.m_prov_ctx
                0x00000000200036ac      0x134 CMakeFiles/dfu_no_serial_nrf52840_xxAA_s140_6.0.0.dir/__/common/src/mesh_provisionee.c.obj
 .bss.m_public_key
                0x00000000200037e0       0x40 CMakeFiles/dfu_no_serial_nrf52840_xxAA_s140_6.0.0.dir/__/common/src/mesh_provisionee.c.obj
 .bss.m_button_handler_cb
                0x0000000020003820        0x4 CMakeFiles/dfu_no_serial_nrf52840_xxAA_s140_6.0.0.dir/__/common/src/simple_hal.c.obj
 .bss.m_last_button_press
                0x0000000020003824        0x4 CMakeFiles/dfu_no_serial_nrf52840_xxAA_s140_6.0.0.dir/__/common/src/simple_hal.c.obj
 .bss.m_publish_timer
                0x0000000020003828       0x18 CMakeFiles/dfu_no_serial_nrf52840_xxAA_s140_6.0.0.dir/__/__/mesh/access/src/access_publish.c.obj
 .bss.m_publish_timer_counter
                0x0000000020003840        0x4 CMakeFiles/dfu_no_serial_nrf52840_xxAA_s140_6.0.0.dir/__/__/mesh/access/src/access_publish.c.obj
 .bss.m_publish_timer_running
                0x0000000020003844        0x1 CMakeFiles/dfu_no_serial_nrf52840_xxAA_s140_6.0.0.dir/__/__/mesh/access/src/access_publish.c.obj
 .bss.m_timer_resolution
                0x0000000020003845        0x1 CMakeFiles/dfu_no_serial_nrf52840_xxAA_s140_6.0.0.dir/__/__/mesh/access/src/access_publish.c.obj
 *fill*         0x0000000020003846        0x2 
 .bss.mp_publication_list
                0x0000000020003848        0x4 CMakeFiles/dfu_no_serial_nrf52840_xxAA_s140_6.0.0.dir/__/__/mesh/access/src/access_publish.c.obj
 .bss.m_element_pool
                0x000000002000384c        0x6 CMakeFiles/dfu_no_serial_nrf52840_xxAA_s140_6.0.0.dir/__/__/mesh/access/src/access.c.obj
 *fill*         0x0000000020003852        0x2 
 .bss.m_evt_handler
                0x0000000020003854        0x8 CMakeFiles/dfu_no_serial_nrf52840_xxAA_s140_6.0.0.dir/__/__/mesh/access/src/access.c.obj
 .bss.m_flash_manager
                0x000000002000385c       0x24 CMakeFiles/dfu_no_serial_nrf52840_xxAA_s140_6.0.0.dir/__/__/mesh/access/src/access.c.obj
 .bss.m_flash_not_ready
                0x0000000020003880        0x1 CMakeFiles/dfu_no_serial_nrf52840_xxAA_s140_6.0.0.dir/__/__/mesh/access/src/access.c.obj
 .bss.m_metadata_stored
                0x0000000020003881        0x1 CMakeFiles/dfu_no_serial_nrf52840_xxAA_s140_6.0.0.dir/__/__/mesh/access/src/access.c.obj
 *fill*         0x0000000020003882        0x2 
 .bss.m_model_pool
                0x0000000020003884       0x68 CMakeFiles/dfu_no_serial_nrf52840_xxAA_s140_6.0.0.dir/__/__/mesh/access/src/access.c.obj
 .bss.m_subscription_list_pool
                0x00000000200038ec       0x10 CMakeFiles/dfu_no_serial_nrf52840_xxAA_s140_6.0.0.dir/__/__/mesh/access/src/access.c.obj
 .bss.m_reliable
                0x00000000200038fc       0x74 CMakeFiles/dfu_no_serial_nrf52840_xxAA_s140_6.0.0.dir/__/__/mesh/access/src/access_reliable.c.obj
 .bss.m_addr_nonvirtual_allocated
                0x0000000020003970        0x4 CMakeFiles/dfu_no_serial_nrf52840_xxAA_s140_6.0.0.dir/__/__/mesh/access/src/device_state_manager.c.obj
 .bss.m_addr_nonvirtual_needs_flashing
                0x0000000020003974        0x4 CMakeFiles/dfu_no_serial_nrf52840_xxAA_s140_6.0.0.dir/__/__/mesh/access/src/device_state_manager.c.obj
 .bss.m_addr_unicast_allocated
                0x0000000020003978        0x4 CMakeFiles/dfu_no_serial_nrf52840_xxAA_s140_6.0.0.dir/__/__/mesh/access/src/device_state_manager.c.obj
 .bss.m_addr_unicast_needs_flashing
                0x000000002000397c        0x4 CMakeFiles/dfu_no_serial_nrf52840_xxAA_s140_6.0.0.dir/__/__/mesh/access/src/device_state_manager.c.obj
 .bss.m_addr_virtual_allocated
                0x0000000020003980        0x4 CMakeFiles/dfu_no_serial_nrf52840_xxAA_s140_6.0.0.dir/__/__/mesh/access/src/device_state_manager.c.obj
 .bss.m_addr_virtual_needs_flashing
                0x0000000020003984        0x4 CMakeFiles/dfu_no_serial_nrf52840_xxAA_s140_6.0.0.dir/__/__/mesh/access/src/device_state_manager.c.obj
 .bss.m_addresses
                0x0000000020003988       0x40 CMakeFiles/dfu_no_serial_nrf52840_xxAA_s140_6.0.0.dir/__/__/mesh/access/src/device_state_manager.c.obj
 .bss.m_appkey_allocated
                0x00000000200039c8        0x4 CMakeFiles/dfu_no_serial_nrf52840_xxAA_s140_6.0.0.dir/__/__/mesh/access/src/device_state_manager.c.obj
 .bss.m_appkey_needs_flashing
                0x00000000200039cc        0x4 CMakeFiles/dfu_no_serial_nrf52840_xxAA_s140_6.0.0.dir/__/__/mesh/access/src/device_state_manager.c.obj
 .bss.m_appkeys
                0x00000000200039d0      0x150 CMakeFiles/dfu_no_serial_nrf52840_xxAA_s140_6.0.0.dir/__/__/mesh/access/src/device_state_manager.c.obj
 .bss.m_devkey_allocated
                0x0000000020003b20        0x4 CMakeFiles/dfu_no_serial_nrf52840_xxAA_s140_6.0.0.dir/__/__/mesh/access/src/device_state_manager.c.obj
 .bss.m_devkey_needs_flashing
                0x0000000020003b24        0x4 CMakeFiles/dfu_no_serial_nrf52840_xxAA_s140_6.0.0.dir/__/__/mesh/access/src/device_state_manager.c.obj
 .bss.m_devkeys
                0x0000000020003b28       0x16 CMakeFiles/dfu_no_serial_nrf52840_xxAA_s140_6.0.0.dir/__/__/mesh/access/src/device_state_manager.c.obj
 .bss.m_flash_is_available
                0x0000000020003b3e        0x1 CMakeFiles/dfu_no_serial_nrf52840_xxAA_s140_6.0.0.dir/__/__/mesh/access/src/device_state_manager.c.obj
 *fill*         0x0000000020003b3f        0x1 
 .bss.m_flash_manager
                0x0000000020003b40       0x24 CMakeFiles/dfu_no_serial_nrf52840_xxAA_s140_6.0.0.dir/__/__/mesh/access/src/device_state_manager.c.obj
 .bss.m_flash_mem_listener_update_all
                0x0000000020003b64       0x10 CMakeFiles/dfu_no_serial_nrf52840_xxAA_s140_6.0.0.dir/__/__/mesh/access/src/device_state_manager.c.obj
 .bss.m_has_primary_subnet
                0x0000000020003b74        0x1 CMakeFiles/dfu_no_serial_nrf52840_xxAA_s140_6.0.0.dir/__/__/mesh/access/src/device_state_manager.c.obj
 *fill*         0x0000000020003b75        0x3 
 .bss.m_local_unicast_addr
                0x0000000020003b78        0x4 CMakeFiles/dfu_no_serial_nrf52840_xxAA_s140_6.0.0.dir/__/__/mesh/access/src/device_state_manager.c.obj
 .bss.m_mesh_evt_handler
                0x0000000020003b7c        0x8 CMakeFiles/dfu_no_serial_nrf52840_xxAA_s140_6.0.0.dir/__/__/mesh/access/src/device_state_manager.c.obj
 .bss.m_subnet_allocated
                0x0000000020003b84        0x4 CMakeFiles/dfu_no_serial_nrf52840_xxAA_s140_6.0.0.dir/__/__/mesh/access/src/device_state_manager.c.obj
 .bss.m_subnet_needs_flashing
                0x0000000020003b88        0x4 CMakeFiles/dfu_no_serial_nrf52840_xxAA_s140_6.0.0.dir/__/__/mesh/access/src/device_state_manager.c.obj
 .bss.m_subnets
                0x0000000020003b8c      0x2a0 CMakeFiles/dfu_no_serial_nrf52840_xxAA_s140_6.0.0.dir/__/__/mesh/access/src/device_state_manager.c.obj
 .bss.m_virtual_addresses
                0x0000000020003e2c       0xa0 CMakeFiles/dfu_no_serial_nrf52840_xxAA_s140_6.0.0.dir/__/__/mesh/access/src/device_state_manager.c.obj
 .bss.m_evt_cb  0x0000000020003ecc        0x4 CMakeFiles/dfu_no_serial_nrf52840_xxAA_s140_6.0.0.dir/__/__/models/config/src/config_server.c.obj
 .bss.m_heartbeat_publication
                0x0000000020003ed0       0x14 CMakeFiles/dfu_no_serial_nrf52840_xxAA_s140_6.0.0.dir/__/__/models/config/src/config_server.c.obj
 .bss.m_node_reset_pending
                0x0000000020003ee4        0x1 CMakeFiles/dfu_no_serial_nrf52840_xxAA_s140_6.0.0.dir/__/__/models/config/src/config_server.c.obj
 *fill*         0x0000000020003ee5        0x3 
 .bss.m_attention_timer
                0x0000000020003ee8       0x18 CMakeFiles/dfu_no_serial_nrf52840_xxAA_s140_6.0.0.dir/__/__/models/health/src/health_server.c.obj
 .bss.mp_attention_list
                0x0000000020003f00        0x4 CMakeFiles/dfu_no_serial_nrf52840_xxAA_s140_6.0.0.dir/__/__/models/health/src/health_server.c.obj
 .bss.m_event_handler
                0x0000000020003f04        0x4 CMakeFiles/dfu_no_serial_nrf52840_xxAA_s140_6.0.0.dir/__/__/mesh/prov/src/prov_beacon.c.obj
 .bss.m_offload_ecdh
                0x0000000020003f08        0x1 CMakeFiles/dfu_no_serial_nrf52840_xxAA_s140_6.0.0.dir/__/__/mesh/prov/src/prov_utils.c.obj
 *fill*         0x0000000020003f09        0x3 
 .bss.mp_bearer_head
                0x0000000020003f0c        0x4 CMakeFiles/dfu_no_serial_nrf52840_xxAA_s140_6.0.0.dir/__/__/mesh/prov/src/prov_bearer_adv.c.obj
 .bss.m_adv_packet
                0x0000000020003f10       0x28 CMakeFiles/dfu_no_serial_nrf52840_xxAA_s140_6.0.0.dir/__/__/mesh/dfu/src/nrf_mesh_dfu.c.obj
 .bss.m_broadcast
                0x0000000020003f38       0x38 CMakeFiles/dfu_no_serial_nrf52840_xxAA_s140_6.0.0.dir/__/__/mesh/dfu/src/nrf_mesh_dfu.c.obj
 .bss.m_prng    0x0000000020003f70       0x10 CMakeFiles/dfu_no_serial_nrf52840_xxAA_s140_6.0.0.dir/__/__/mesh/dfu/src/nrf_mesh_dfu.c.obj
 .bss.m_timer_evt
                0x0000000020003f80       0x18 CMakeFiles/dfu_no_serial_nrf52840_xxAA_s140_6.0.0.dir/__/__/mesh/dfu/src/nrf_mesh_dfu.c.obj
 .bss.m_transfer_state
                0x0000000020003f98       0x12 CMakeFiles/dfu_no_serial_nrf52840_xxAA_s140_6.0.0.dir/__/__/mesh/dfu/src/nrf_mesh_dfu.c.obj
 *fill*         0x0000000020003faa        0x2 
 .bss.m_tx_slots
                0x0000000020003fac      0x120 CMakeFiles/dfu_no_serial_nrf52840_xxAA_s140_6.0.0.dir/__/__/mesh/dfu/src/nrf_mesh_dfu.c.obj
 .bss.m_tx_timer_evt
                0x00000000200040cc       0x18 CMakeFiles/dfu_no_serial_nrf52840_xxAA_s140_6.0.0.dir/__/__/mesh/dfu/src/nrf_mesh_dfu.c.obj
 .bss.mp_curr_fwid
                0x00000000200040e4        0x4 CMakeFiles/dfu_no_serial_nrf52840_xxAA_s140_6.0.0.dir/__/__/mesh/dfu/src/nrf_mesh_dfu.c.obj
 .bss.m_uuid    0x00000000200040e8       0x10 CMakeFiles/dfu_no_serial_nrf52840_xxAA_s140_6.0.0.dir/__/__/mesh/core/src/nrf_mesh_configure.c.obj
 .bss.m_msg_cache
                0x00000000200040f8      0x100 CMakeFiles/dfu_no_serial_nrf52840_xxAA_s140_6.0.0.dir/__/__/mesh/core/src/msg_cache.c.obj
 .bss.m_msg_cache_head
                0x00000000200041f8        0x4 CMakeFiles/dfu_no_serial_nrf52840_xxAA_s140_6.0.0.dir/__/__/mesh/core/src/msg_cache.c.obj
 .bss.m_control_packet_consumer_count
                0x00000000200041fc        0x4 CMakeFiles/dfu_no_serial_nrf52840_xxAA_s140_6.0.0.dir/__/__/mesh/core/src/transport.c.obj
 .bss.m_control_packet_consumers
                0x0000000020004200        0x8 CMakeFiles/dfu_no_serial_nrf52840_xxAA_s140_6.0.0.dir/__/__/mesh/core/src/transport.c.obj
 .bss.m_sar_alloc
                0x0000000020004208        0x4 CMakeFiles/dfu_no_serial_nrf52840_xxAA_s140_6.0.0.dir/__/__/mesh/core/src/transport.c.obj
 .bss.m_sar_process_flag
                0x000000002000420c        0x4 CMakeFiles/dfu_no_serial_nrf52840_xxAA_s140_6.0.0.dir/__/__/mesh/core/src/transport.c.obj
 .bss.m_sar_release
                0x0000000020004210        0x4 CMakeFiles/dfu_no_serial_nrf52840_xxAA_s140_6.0.0.dir/__/__/mesh/core/src/transport.c.obj
 .bss.m_sar_session_cache
                0x0000000020004214       0x40 CMakeFiles/dfu_no_serial_nrf52840_xxAA_s140_6.0.0.dir/__/__/mesh/core/src/transport.c.obj
 .bss.m_sar_session_cache_head
                0x0000000020004254        0x4 CMakeFiles/dfu_no_serial_nrf52840_xxAA_s140_6.0.0.dir/__/__/mesh/core/src/transport.c.obj
 .bss.m_trs_config
                0x0000000020004258       0x18 CMakeFiles/dfu_no_serial_nrf52840_xxAA_s140_6.0.0.dir/__/__/mesh/core/src/transport.c.obj
 .bss.m_trs_sar_sessions
                0x0000000020004270      0x1b0 CMakeFiles/dfu_no_serial_nrf52840_xxAA_s140_6.0.0.dir/__/__/mesh/core/src/transport.c.obj
 .bss.mp_evt_handlers_head
                0x0000000020004420        0x4 CMakeFiles/dfu_no_serial_nrf52840_xxAA_s140_6.0.0.dir/__/__/mesh/core/src/event.c.obj
 .bss.m_defrag  0x0000000020004424       0x1c CMakeFiles/dfu_no_serial_nrf52840_xxAA_s140_6.0.0.dir/__/__/mesh/core/src/flash_manager_defrag.c.obj
 .bss.m_token   0x0000000020004440        0x2 CMakeFiles/dfu_no_serial_nrf52840_xxAA_s140_6.0.0.dir/__/__/mesh/core/src/flash_manager_defrag.c.obj
 *fill*         0x0000000020004442        0x2 
 .bss.mp_recovery_area
                0x0000000020004444        0x4 CMakeFiles/dfu_no_serial_nrf52840_xxAA_s140_6.0.0.dir/__/__/mesh/core/src/flash_manager_defrag.c.obj
 .bss.p_null_ptr.10695
                0x0000000020004448        0x4 CMakeFiles/dfu_no_serial_nrf52840_xxAA_s140_6.0.0.dir/__/__/mesh/core/src/flash_manager_defrag.c.obj
 .bss.m_pool    0x000000002000444c     0x1000 CMakeFiles/dfu_no_serial_nrf52840_xxAA_s140_6.0.0.dir/__/__/mesh/core/src/packet_mgr.c.obj
 .bss.mp_free_head
                0x000000002000544c        0x4 CMakeFiles/dfu_no_serial_nrf52840_xxAA_s140_6.0.0.dir/__/__/mesh/core/src/packet_mgr.c.obj
 .bss.iv_state_set.10350
                0x0000000020005450        0x1 CMakeFiles/dfu_no_serial_nrf52840_xxAA_s140_6.0.0.dir/__/__/mesh/core/src/net_state.c.obj
 *fill*         0x0000000020005451        0x3 
 .bss.lock_count.10326
                0x0000000020005454        0x4 CMakeFiles/dfu_no_serial_nrf52840_xxAA_s140_6.0.0.dir/__/__/mesh/core/src/net_state.c.obj
 .bss.m_flash_manager
                0x0000000020005458       0x24 CMakeFiles/dfu_no_serial_nrf52840_xxAA_s140_6.0.0.dir/__/__/mesh/core/src/net_state.c.obj
 .bss.m_iv_update_timer
                0x000000002000547c       0x18 CMakeFiles/dfu_no_serial_nrf52840_xxAA_s140_6.0.0.dir/__/__/mesh/core/src/net_state.c.obj
 .bss.m_mesh_evt_handler
                0x0000000020005494        0x8 CMakeFiles/dfu_no_serial_nrf52840_xxAA_s140_6.0.0.dir/__/__/mesh/core/src/net_state.c.obj
 .bss.m_net_state
                0x000000002000549c       0x14 CMakeFiles/dfu_no_serial_nrf52840_xxAA_s140_6.0.0.dir/__/__/mesh/core/src/net_state.c.obj
 .bss.m_seqnum_allocation_in_progress
                0x00000000200054b0        0x1 CMakeFiles/dfu_no_serial_nrf52840_xxAA_s140_6.0.0.dir/__/__/mesh/core/src/net_state.c.obj
 .bss.m_test_mode
                0x00000000200054b1        0x1 CMakeFiles/dfu_no_serial_nrf52840_xxAA_s140_6.0.0.dir/__/__/mesh/core/src/net_state.c.obj
 *fill*         0x00000000200054b2        0x2 
 .bss.m_event_flag
                0x00000000200054b4        0x4 CMakeFiles/dfu_no_serial_nrf52840_xxAA_s140_6.0.0.dir/__/__/mesh/core/src/mesh_flash.c.obj
 .bss.m_suspended
                0x00000000200054b8        0x1 CMakeFiles/dfu_no_serial_nrf52840_xxAA_s140_6.0.0.dir/__/__/mesh/core/src/mesh_flash.c.obj
 *fill*         0x00000000200054b9        0x3 
 .bss.m_users   0x00000000200054bc      0x228 CMakeFiles/dfu_no_serial_nrf52840_xxAA_s140_6.0.0.dir/__/__/mesh/core/src/mesh_flash.c.obj
 .bss.suspend_count.10577
                0x00000000200056e4        0x4 CMakeFiles/dfu_no_serial_nrf52840_xxAA_s140_6.0.0.dir/__/__/mesh/core/src/mesh_flash.c.obj
 .bss.m_is_enabled
                0x00000000200056e8        0x1 CMakeFiles/dfu_no_serial_nrf52840_xxAA_s140_6.0.0.dir/__/__/mesh/core/src/nrf_mesh.c.obj
 .bss.m_is_initialized
                0x00000000200056e9        0x1 CMakeFiles/dfu_no_serial_nrf52840_xxAA_s140_6.0.0.dir/__/__/mesh/core/src/nrf_mesh.c.obj
 *fill*         0x00000000200056ea        0x2 
 .bss.m_rx_cb   0x00000000200056ec        0x4 CMakeFiles/dfu_no_serial_nrf52840_xxAA_s140_6.0.0.dir/__/__/mesh/core/src/nrf_mesh.c.obj
 .bss.m_128buf  0x00000000200056f0       0x10 CMakeFiles/dfu_no_serial_nrf52840_xxAA_s140_6.0.0.dir/__/__/mesh/core/src/aes_cmac.c.obj
 .bss.m_subkey1
                0x0000000020005700       0x10 CMakeFiles/dfu_no_serial_nrf52840_xxAA_s140_6.0.0.dir/__/__/mesh/core/src/aes_cmac.c.obj
 .bss.m_subkey2
                0x0000000020005710       0x10 CMakeFiles/dfu_no_serial_nrf52840_xxAA_s140_6.0.0.dir/__/__/mesh/core/src/aes_cmac.c.obj
 .bss.m_event_flag
                0x0000000020005720        0x4 CMakeFiles/dfu_no_serial_nrf52840_xxAA_s140_6.0.0.dir/__/__/mesh/core/src/timer_scheduler.c.obj
 .bss.m_scheduler
                0x0000000020005724       0x10 CMakeFiles/dfu_no_serial_nrf52840_xxAA_s140_6.0.0.dir/__/__/mesh/core/src/timer_scheduler.c.obj
 .bss.m_attributes
                0x0000000020005734        0x3 CMakeFiles/dfu_no_serial_nrf52840_xxAA_s140_6.0.0.dir/__/__/mesh/core/src/timer.c.obj
 *fill*         0x0000000020005737        0x1 
 .bss.m_callbacks
                0x0000000020005738        0xc CMakeFiles/dfu_no_serial_nrf52840_xxAA_s140_6.0.0.dir/__/__/mesh/core/src/timer.c.obj
 .bss.m_is_in_ts
                0x0000000020005744        0x1 CMakeFiles/dfu_no_serial_nrf52840_xxAA_s140_6.0.0.dir/__/__/mesh/core/src/timer.c.obj
 *fill*         0x0000000020005745        0x3 
 .bss.m_reference_time
                0x0000000020005748        0x4 CMakeFiles/dfu_no_serial_nrf52840_xxAA_s140_6.0.0.dir/__/__/mesh/core/src/timer.c.obj
 .bss.m_timeouts
                0x000000002000574c        0xc CMakeFiles/dfu_no_serial_nrf52840_xxAA_s140_6.0.0.dir/__/__/mesh/core/src/timer.c.obj
 .bss.m_timer_mut
                0x0000000020005758        0x4 CMakeFiles/dfu_no_serial_nrf52840_xxAA_s140_6.0.0.dir/__/__/mesh/core/src/timer.c.obj
 .bss.m_ts_end_time
                0x000000002000575c        0x4 CMakeFiles/dfu_no_serial_nrf52840_xxAA_s140_6.0.0.dir/__/__/mesh/core/src/timer.c.obj
 .bss.mp_ppi_tasks
                0x0000000020005760        0xc CMakeFiles/dfu_no_serial_nrf52840_xxAA_s140_6.0.0.dir/__/__/mesh/core/src/timer.c.obj
 .bss.m_current_time
                0x000000002000576c        0x4 CMakeFiles/dfu_no_serial_nrf52840_xxAA_s140_6.0.0.dir/__/__/mesh/core/src/ticker.c.obj
 .bss.m_timer   0x0000000020005770       0x18 CMakeFiles/dfu_no_serial_nrf52840_xxAA_s140_6.0.0.dir/__/__/mesh/core/src/ticker.c.obj
 .bss.m_current_timeslot
                0x0000000020005788       0x1c CMakeFiles/dfu_no_serial_nrf52840_xxAA_s140_6.0.0.dir/__/__/mesh/core/src/timeslot.c.obj
 .bss.m_lfclk_ppm
                0x00000000200057a4        0x4 CMakeFiles/dfu_no_serial_nrf52840_xxAA_s140_6.0.0.dir/__/__/mesh/core/src/timeslot.c.obj
 .bss.m_radio_request_earliest
                0x00000000200057a8       0x10 CMakeFiles/dfu_no_serial_nrf52840_xxAA_s140_6.0.0.dir/__/__/mesh/core/src/timeslot.c.obj
 .bss.m_state_lock
                0x00000000200057b8        0x1 CMakeFiles/dfu_no_serial_nrf52840_xxAA_s140_6.0.0.dir/__/__/mesh/core/src/timeslot.c.obj
 .bss.m_timeslot_forced_command
                0x00000000200057b9        0x1 CMakeFiles/dfu_no_serial_nrf52840_xxAA_s140_6.0.0.dir/__/__/mesh/core/src/timeslot.c.obj
 *fill*         0x00000000200057ba        0x6 
 .bss.s_last_rtc_value.9753
                0x00000000200057c0        0x8 CMakeFiles/dfu_no_serial_nrf52840_xxAA_s140_6.0.0.dir/__/__/mesh/core/src/timeslot.c.obj
 .bss.m_bearer_event_fifo
                0x00000000200057c8       0x14 CMakeFiles/dfu_no_serial_nrf52840_xxAA_s140_6.0.0.dir/__/__/mesh/core/src/bearer_event.c.obj
 .bss.m_bearer_event_fifo_buffer
                0x00000000200057dc      0x100 CMakeFiles/dfu_no_serial_nrf52840_xxAA_s140_6.0.0.dir/__/__/mesh/core/src/bearer_event.c.obj
 .bss.m_critical
                0x00000000200058dc        0x4 CMakeFiles/dfu_no_serial_nrf52840_xxAA_s140_6.0.0.dir/__/__/mesh/core/src/bearer_event.c.obj
 .bss.m_flag_count
                0x00000000200058e0        0x4 CMakeFiles/dfu_no_serial_nrf52840_xxAA_s140_6.0.0.dir/__/__/mesh/core/src/bearer_event.c.obj
 .bss.m_flag_event_callbacks
                0x00000000200058e4       0x20 CMakeFiles/dfu_no_serial_nrf52840_xxAA_s140_6.0.0.dir/__/__/mesh/core/src/bearer_event.c.obj
 .bss.m_flags   0x0000000020005904        0x4 CMakeFiles/dfu_no_serial_nrf52840_xxAA_s140_6.0.0.dir/__/__/mesh/core/src/bearer_event.c.obj
 .bss.m_irq_priority
                0x0000000020005908        0x1 CMakeFiles/dfu_no_serial_nrf52840_xxAA_s140_6.0.0.dir/__/__/mesh/core/src/bearer_event.c.obj
 *fill*         0x0000000020005909        0x3 
 .bss.m_sequential_event_queue
                0x000000002000590c        0x8 CMakeFiles/dfu_no_serial_nrf52840_xxAA_s140_6.0.0.dir/__/__/mesh/core/src/bearer_event.c.obj
 .bss.s_recursion_guard.9884
                0x0000000020005914        0x1 CMakeFiles/dfu_no_serial_nrf52840_xxAA_s140_6.0.0.dir/__/__/mesh/core/src/bearer_event.c.obj
 *fill*         0x0000000020005915        0x3 
 .bss.m_relay_check_cb
                0x0000000020005918        0x4 CMakeFiles/dfu_no_serial_nrf52840_xxAA_s140_6.0.0.dir/__/__/mesh/core/src/network.c.obj
 .bss.m_relay_enable
                0x000000002000591c        0x1 CMakeFiles/dfu_no_serial_nrf52840_xxAA_s140_6.0.0.dir/__/__/mesh/core/src/network.c.obj
 *fill*         0x000000002000591d        0x3 
 .bss.m_action_queue
                0x0000000020005920        0xc CMakeFiles/dfu_no_serial_nrf52840_xxAA_s140_6.0.0.dir/__/__/mesh/core/src/flash_manager.c.obj
 .bss.m_action_queue_buffer
                0x000000002000592c      0x104 CMakeFiles/dfu_no_serial_nrf52840_xxAA_s140_6.0.0.dir/__/__/mesh/core/src/flash_manager.c.obj
 .bss.m_action_state
                0x0000000020005a30        0x1 CMakeFiles/dfu_no_serial_nrf52840_xxAA_s140_6.0.0.dir/__/__/mesh/core/src/flash_manager.c.obj
 *fill*         0x0000000020005a31        0x3 
 .bss.m_memory_listener_queue
                0x0000000020005a34        0x8 CMakeFiles/dfu_no_serial_nrf52840_xxAA_s140_6.0.0.dir/__/__/mesh/core/src/flash_manager.c.obj
 .bss.m_processing_flag
                0x0000000020005a3c        0x4 CMakeFiles/dfu_no_serial_nrf52840_xxAA_s140_6.0.0.dir/__/__/mesh/core/src/flash_manager.c.obj
 .bss.m_queue_empty_cb
                0x0000000020005a40        0x4 CMakeFiles/dfu_no_serial_nrf52840_xxAA_s140_6.0.0.dir/__/__/mesh/core/src/flash_manager.c.obj
 .bss.m_state   0x0000000020005a44        0x1 CMakeFiles/dfu_no_serial_nrf52840_xxAA_s140_6.0.0.dir/__/__/mesh/core/src/flash_manager.c.obj
 *fill*         0x0000000020005a45        0x1 
 .bss.m_token   0x0000000020005a46        0x2 CMakeFiles/dfu_no_serial_nrf52840_xxAA_s140_6.0.0.dir/__/__/mesh/core/src/flash_manager.c.obj
 .bss.p_current.11639
                0x0000000020005a48        0x4 CMakeFiles/dfu_no_serial_nrf52840_xxAA_s140_6.0.0.dir/__/__/mesh/core/src/flash_manager.c.obj
 .bss.result.11640
                0x0000000020005a4c        0x1 CMakeFiles/dfu_no_serial_nrf52840_xxAA_s140_6.0.0.dir/__/__/mesh/core/src/flash_manager.c.obj
 .bss.m_cache_index
                0x0000000020005a4d        0x1 CMakeFiles/dfu_no_serial_nrf52840_xxAA_s140_6.0.0.dir/__/__/mesh/core/src/replay_cache.c.obj
 *fill*         0x0000000020005a4e        0x2 
 .bss.m_replay_cache
                0x0000000020005a50      0x200 CMakeFiles/dfu_no_serial_nrf52840_xxAA_s140_6.0.0.dir/__/__/mesh/core/src/replay_cache.c.obj
 .bss.m_bearer_count
                0x0000000020005c50        0x1 CMakeFiles/dfu_no_serial_nrf52840_xxAA_s140_6.0.0.dir/__/__/mesh/core/src/core_tx.c.obj
 *fill*         0x0000000020005c51        0x3 
 .bss.m_tx_complete_callback
                0x0000000020005c54        0x4 CMakeFiles/dfu_no_serial_nrf52840_xxAA_s140_6.0.0.dir/__/__/mesh/core/src/core_tx.c.obj
 .bss.mp_bearers
                0x0000000020005c58        0x4 CMakeFiles/dfu_no_serial_nrf52840_xxAA_s140_6.0.0.dir/__/__/mesh/core/src/core_tx.c.obj
 .bss.m_hb_core_evt_handler
                0x0000000020005c5c        0x8 CMakeFiles/dfu_no_serial_nrf52840_xxAA_s140_6.0.0.dir/__/__/mesh/core/src/heartbeat.c.obj
 .bss.m_hb_pending_feat_msg
                0x0000000020005c64        0x1 CMakeFiles/dfu_no_serial_nrf52840_xxAA_s140_6.0.0.dir/__/__/mesh/core/src/heartbeat.c.obj
 .bss.m_hb_pending_pub_msg
                0x0000000020005c65        0x1 CMakeFiles/dfu_no_serial_nrf52840_xxAA_s140_6.0.0.dir/__/__/mesh/core/src/heartbeat.c.obj
 .bss.m_heartbeat_init_done
                0x0000000020005c66        0x1 CMakeFiles/dfu_no_serial_nrf52840_xxAA_s140_6.0.0.dir/__/__/mesh/core/src/heartbeat.c.obj
 *fill*         0x0000000020005c67        0x1 
 .bss.m_heartbeat_subscription
                0x0000000020005c68       0x10 CMakeFiles/dfu_no_serial_nrf52840_xxAA_s140_6.0.0.dir/__/__/mesh/core/src/heartbeat.c.obj
 .bss.m_publication_count_decrement_cb
                0x0000000020005c78        0x4 CMakeFiles/dfu_no_serial_nrf52840_xxAA_s140_6.0.0.dir/__/__/mesh/core/src/heartbeat.c.obj
 .bss.m_publication_get_cb
                0x0000000020005c7c        0x4 CMakeFiles/dfu_no_serial_nrf52840_xxAA_s140_6.0.0.dir/__/__/mesh/core/src/heartbeat.c.obj
 .bss.m_publication_timer
                0x0000000020005c80       0x1c CMakeFiles/dfu_no_serial_nrf52840_xxAA_s140_6.0.0.dir/__/__/mesh/core/src/heartbeat.c.obj
 .bss.m_subscription_timer
                0x0000000020005c9c       0x18 CMakeFiles/dfu_no_serial_nrf52840_xxAA_s140_6.0.0.dir/__/__/mesh/core/src/heartbeat.c.obj
 .bss.m_adv     0x0000000020005cb4       0x98 CMakeFiles/dfu_no_serial_nrf52840_xxAA_s140_6.0.0.dir/__/__/mesh/core/src/net_beacon.c.obj
 .bss.m_adv_buf
                0x0000000020005d4c       0x34 CMakeFiles/dfu_no_serial_nrf52840_xxAA_s140_6.0.0.dir/__/__/mesh/core/src/net_beacon.c.obj
 .bss.m_beacon_salt
                0x0000000020005d80       0x10 CMakeFiles/dfu_no_serial_nrf52840_xxAA_s140_6.0.0.dir/__/__/mesh/core/src/net_beacon.c.obj
 .bss.m_enabled
                0x0000000020005d90        0x1 CMakeFiles/dfu_no_serial_nrf52840_xxAA_s140_6.0.0.dir/__/__/mesh/core/src/net_beacon.c.obj
 *fill*         0x0000000020005d91        0x3 
 .bss.m_tx_timer
                0x0000000020005d94       0x18 CMakeFiles/dfu_no_serial_nrf52840_xxAA_s140_6.0.0.dir/__/__/mesh/core/src/net_beacon.c.obj
 .bss.mp_beacon_info
                0x0000000020005dac        0x4 CMakeFiles/dfu_no_serial_nrf52840_xxAA_s140_6.0.0.dir/__/__/mesh/core/src/net_beacon.c.obj
 .bss.m_bearer  0x0000000020005db0        0xc CMakeFiles/dfu_no_serial_nrf52840_xxAA_s140_6.0.0.dir/__/__/mesh/core/src/core_tx_adv.c.obj
 .bss.m_bearer_roles
                0x0000000020005dbc      0x138 CMakeFiles/dfu_no_serial_nrf52840_xxAA_s140_6.0.0.dir/__/__/mesh/core/src/core_tx_adv.c.obj
 .bss.m_current_alloc
                0x0000000020005ef4        0x8 CMakeFiles/dfu_no_serial_nrf52840_xxAA_s140_6.0.0.dir/__/__/mesh/core/src/core_tx_adv.c.obj
 .bss.m_originator_adv_packet_buffer
                0x0000000020005efc      0x100 CMakeFiles/dfu_no_serial_nrf52840_xxAA_s140_6.0.0.dir/__/__/mesh/core/src/core_tx_adv.c.obj
 .bss.m_relay_adv_packet_buffer
                0x0000000020005ffc       0x80 CMakeFiles/dfu_no_serial_nrf52840_xxAA_s140_6.0.0.dir/__/__/mesh/core/src/core_tx_adv.c.obj
 .bss.m_subscribers
                0x000000002000607c        0x4 CMakeFiles/dfu_no_serial_nrf52840_xxAA_s140_6.0.0.dir/__/__/mesh/bearer/src/ad_listener.c.obj
 .bss.m_adtype_filter
                0x0000000020006080       0x38 CMakeFiles/dfu_no_serial_nrf52840_xxAA_s140_6.0.0.dir/__/__/mesh/bearer/src/ad_type_filter.c.obj
 .bss.m_adv_prng
                0x00000000200060b8       0x10 CMakeFiles/dfu_no_serial_nrf52840_xxAA_s140_6.0.0.dir/__/__/mesh/bearer/src/advertiser.c.obj
 .bss.m_action_queue
                0x00000000200060c8        0x8 CMakeFiles/dfu_no_serial_nrf52840_xxAA_s140_6.0.0.dir/__/__/mesh/bearer/src/bearer_handler.c.obj
 .bss.m_end_time
                0x00000000200060d0        0x4 CMakeFiles/dfu_no_serial_nrf52840_xxAA_s140_6.0.0.dir/__/__/mesh/bearer/src/bearer_handler.c.obj
 .bss.m_scanner_is_active
                0x00000000200060d4        0x1 CMakeFiles/dfu_no_serial_nrf52840_xxAA_s140_6.0.0.dir/__/__/mesh/bearer/src/bearer_handler.c.obj
 .bss.m_stopped
                0x00000000200060d5        0x1 CMakeFiles/dfu_no_serial_nrf52840_xxAA_s140_6.0.0.dir/__/__/mesh/bearer/src/bearer_handler.c.obj
 *fill*         0x00000000200060d6        0x2 
 .bss.mp_action
                0x00000000200060d8        0x4 CMakeFiles/dfu_no_serial_nrf52840_xxAA_s140_6.0.0.dir/__/__/mesh/bearer/src/bearer_handler.c.obj
 .bss.m_next_channel_index
                0x00000000200060dc        0x1 CMakeFiles/dfu_no_serial_nrf52840_xxAA_s140_6.0.0.dir/__/__/mesh/bearer/src/broadcast.c.obj
 *fill*         0x00000000200060dd        0x3 
 .bss.m_accepted_amount
                0x00000000200060e0        0x4 CMakeFiles/dfu_no_serial_nrf52840_xxAA_s140_6.0.0.dir/__/__/mesh/bearer/src/filter_engine.c.obj
 .bss.m_filter_list_head
                0x00000000200060e4        0x4 CMakeFiles/dfu_no_serial_nrf52840_xxAA_s140_6.0.0.dir/__/__/mesh/bearer/src/filter_engine.c.obj
 .bss.m_scanner
                0x00000000200060e8      0x290 CMakeFiles/dfu_no_serial_nrf52840_xxAA_s140_6.0.0.dir/__/__/mesh/bearer/src/scanner.c.obj
 .bss._acDownBuffer
                0x0000000020006378       0x80 ../../external/rtt/librtt_nrf52840_xxAA.a(SEGGER_RTT.c.obj)
 .bss._acUpBuffer
                0x00000000200063f8      0x400 ../../external/rtt/librtt_nrf52840_xxAA.a(SEGGER_RTT.c.obj)
 .bss.__malloc_free_list
                0x00000000200067f8        0x4 /usr/bin/../lib/gcc/arm-none-eabi/7.2.1/../../../../arm-none-eabi/lib/thumb/v7e-m/fpv4-sp/hard/libg_nano.a(lib_a-nano-mallocr.o)
                0x00000000200067f8                __malloc_free_list
 .bss.__malloc_sbrk_start
                0x00000000200067fc        0x4 /usr/bin/../lib/gcc/arm-none-eabi/7.2.1/../../../../arm-none-eabi/lib/thumb/v7e-m/fpv4-sp/hard/libg_nano.a(lib_a-nano-mallocr.o)
                0x00000000200067fc                __malloc_sbrk_start
 .bss.heap_end.5377
                0x0000000020006800        0x4 /usr/bin/../lib/gcc/arm-none-eabi/7.2.1/../../../../arm-none-eabi/lib/thumb/v7e-m/fpv4-sp/hard/libnosys.a(sbrk.o)
 *(COMMON)
 COMMON         0x0000000020006804        0x8 CMakeFiles/dfu_no_serial_nrf52840_xxAA_s140_6.0.0.dir/src/main.c.obj
                0x0000000020006804                bank_addr
                0x0000000020006808                rom_length
 COMMON         0x000000002000680c        0xc CMakeFiles/dfu_no_serial_nrf52840_xxAA_s140_6.0.0.dir/__/common/src/mesh_softdevice_init.c.obj
                0x000000002000680c                nrf_nvic_state
 COMMON         0x0000000020006818        0x4 CMakeFiles/dfu_no_serial_nrf52840_xxAA_s140_6.0.0.dir/__/__/mesh/dfu/src/nrf_mesh_dfu.c.obj
                0x0000000020006818                m_cmd_handler
 COMMON         0x000000002000681c       0x24 CMakeFiles/dfu_no_serial_nrf52840_xxAA_s140_6.0.0.dir/__/__/mesh/core/src/core_tx.c.obj
                0x000000002000681c                m_packet
 COMMON         0x0000000020006840       0x78 ../../external/rtt/librtt_nrf52840_xxAA.a(SEGGER_RTT.c.obj)
                0x0000000020006840                _SEGGER_RTT
 COMMON         0x00000000200068b8        0x4 /usr/bin/../lib/gcc/arm-none-eabi/7.2.1/../../../../arm-none-eabi/lib/thumb/v7e-m/fpv4-sp/hard/libg_nano.a(lib_a-reent.o)
                0x00000000200068b8                errno
                0x00000000200068bc                . = ALIGN (0x4)
                0x00000000200068bc                __bss_end__ = .

.heap           0x00000000200068c0     0x2000
                0x00000000200068c0                __HeapBase = .
                0x00000000200068c0                __end__ = .
                0x00000000200068c0                PROVIDE (end, .)
 *(.heap*)
 .heap          0x00000000200068c0     0x2000 CMakeFiles/dfu_no_serial_nrf52840_xxAA_s140_6.0.0.dir/home/mazzer/work/nordic/sdk/nRF5_SDK_15.0.0/modules/nrfx/mdk/gcc_startup_nrf52840.S.obj
                0x00000000200088c0                __HeapLimit = .

.stack_dummy    0x00000000200068c0     0x2000
 *(.stack*)
 .stack         0x00000000200068c0     0x2000 CMakeFiles/dfu_no_serial_nrf52840_xxAA_s140_6.0.0.dir/home/mazzer/work/nordic/sdk/nRF5_SDK_15.0.0/modules/nrfx/mdk/gcc_startup_nrf52840.S.obj
                0x000000002003fd00                __StackTop = (ORIGIN (RAM) + LENGTH (RAM))
                0x000000002003dd00                __StackLimit = (__StackTop - SIZEOF (.stack_dummy))
                0x000000002003fd00                PROVIDE (__stack, __StackTop)
                0x0000000000000001                ASSERT ((__StackLimit >= __HeapLimit), region RAM overflowed with stack)
                0x0000000000000148                DataInitFlashUsed = (__bss_start__ - __data_start__)
                0x000000000001fdc8                CodeFlashUsed = (__etext - ORIGIN (FLASH))
                0x000000000001ff10                TotalFlashUsed = (CodeFlashUsed + DataInitFlashUsed)
                0x0000000000000001                ASSERT ((TotalFlashUsed <= LENGTH (FLASH)), region FLASH overflowed with .data and user data)
OUTPUT(dfu_no_serial_nrf52840_xxAA_s140_6.0.0.elf elf32-littlearm)

.ARM.attributes
                0x0000000000000000       0x30
 .ARM.attributes
                0x0000000000000000       0x22 /usr/bin/../lib/gcc/arm-none-eabi/7.2.1/thumb/v7e-m/fpv4-sp/hard/crti.o
 .ARM.attributes
                0x0000000000000022       0x34 /usr/bin/../lib/gcc/arm-none-eabi/7.2.1/thumb/v7e-m/fpv4-sp/hard/crtbegin.o
 .ARM.attributes
                0x0000000000000056       0x20 /usr/bin/../lib/gcc/arm-none-eabi/7.2.1/../../../../arm-none-eabi/lib/thumb/v7e-m/fpv4-sp/hard/crt0.o
 .ARM.attributes
                0x0000000000000076       0x39 CMakeFiles/dfu_no_serial_nrf52840_xxAA_s140_6.0.0.dir/src/main.c.obj
 .ARM.attributes
                0x00000000000000af       0x39 CMakeFiles/dfu_no_serial_nrf52840_xxAA_s140_6.0.0.dir/__/__/mesh/stack/src/mesh_stack.c.obj
 .ARM.attributes
                0x00000000000000e8       0x39 CMakeFiles/dfu_no_serial_nrf52840_xxAA_s140_6.0.0.dir/__/common/src/mesh_softdevice_init.c.obj
 .ARM.attributes
                0x0000000000000121       0x39 CMakeFiles/dfu_no_serial_nrf52840_xxAA_s140_6.0.0.dir/__/common/src/mesh_provisionee.c.obj
 .ARM.attributes
                0x000000000000015a       0x39 CMakeFiles/dfu_no_serial_nrf52840_xxAA_s140_6.0.0.dir/__/common/src/simple_hal.c.obj
 .ARM.attributes
                0x0000000000000193       0x39 CMakeFiles/dfu_no_serial_nrf52840_xxAA_s140_6.0.0.dir/__/__/mesh/access/src/access_publish.c.obj
 .ARM.attributes
                0x00000000000001cc       0x39 CMakeFiles/dfu_no_serial_nrf52840_xxAA_s140_6.0.0.dir/__/__/mesh/access/src/access.c.obj
 .ARM.attributes
                0x0000000000000205       0x39 CMakeFiles/dfu_no_serial_nrf52840_xxAA_s140_6.0.0.dir/__/__/mesh/access/src/access_reliable.c.obj
 .ARM.attributes
                0x000000000000023e       0x39 CMakeFiles/dfu_no_serial_nrf52840_xxAA_s140_6.0.0.dir/__/__/mesh/access/src/device_state_manager.c.obj
 .ARM.attributes
                0x0000000000000277       0x39 CMakeFiles/dfu_no_serial_nrf52840_xxAA_s140_6.0.0.dir/__/__/models/config/src/composition_data.c.obj
 .ARM.attributes
                0x00000000000002b0       0x39 CMakeFiles/dfu_no_serial_nrf52840_xxAA_s140_6.0.0.dir/__/__/models/config/src/config_server.c.obj
 .ARM.attributes
                0x00000000000002e9       0x39 CMakeFiles/dfu_no_serial_nrf52840_xxAA_s140_6.0.0.dir/__/__/models/config/src/packed_index_list.c.obj
 .ARM.attributes
                0x0000000000000322       0x39 CMakeFiles/dfu_no_serial_nrf52840_xxAA_s140_6.0.0.dir/__/__/models/health/src/health_server.c.obj
 .ARM.attributes
                0x000000000000035b       0x39 CMakeFiles/dfu_no_serial_nrf52840_xxAA_s140_6.0.0.dir/__/__/mesh/prov/src/prov_provisioner.c.obj
 .ARM.attributes
                0x0000000000000394       0x39 CMakeFiles/dfu_no_serial_nrf52840_xxAA_s140_6.0.0.dir/__/__/mesh/prov/src/prov_provisionee.c.obj
 .ARM.attributes
                0x00000000000003cd       0x39 CMakeFiles/dfu_no_serial_nrf52840_xxAA_s140_6.0.0.dir/__/__/mesh/prov/src/nrf_mesh_prov.c.obj
 .ARM.attributes
                0x0000000000000406       0x39 CMakeFiles/dfu_no_serial_nrf52840_xxAA_s140_6.0.0.dir/__/__/mesh/prov/src/provisioning.c.obj
 .ARM.attributes
                0x000000000000043f       0x39 CMakeFiles/dfu_no_serial_nrf52840_xxAA_s140_6.0.0.dir/__/__/mesh/prov/src/prov_beacon.c.obj
 .ARM.attributes
                0x0000000000000478       0x39 CMakeFiles/dfu_no_serial_nrf52840_xxAA_s140_6.0.0.dir/__/__/mesh/prov/src/prov_utils.c.obj
 .ARM.attributes
                0x00000000000004b1       0x39 CMakeFiles/dfu_no_serial_nrf52840_xxAA_s140_6.0.0.dir/__/__/mesh/prov/src/prov_bearer_adv.c.obj
 .ARM.attributes
                0x00000000000004ea       0x39 CMakeFiles/dfu_no_serial_nrf52840_xxAA_s140_6.0.0.dir/__/__/mesh/dfu/src/nrf_mesh_dfu.c.obj
 .ARM.attributes
                0x0000000000000523       0x39 CMakeFiles/dfu_no_serial_nrf52840_xxAA_s140_6.0.0.dir/__/common/src/app_error_weak.c.obj
 .ARM.attributes
                0x000000000000055c       0x39 CMakeFiles/dfu_no_serial_nrf52840_xxAA_s140_6.0.0.dir/__/common/src/assertion_handler_weak.c.obj
 .ARM.attributes
                0x0000000000000595       0x39 CMakeFiles/dfu_no_serial_nrf52840_xxAA_s140_6.0.0.dir/__/__/mesh/core/src/nrf_mesh_configure.c.obj
 .ARM.attributes
                0x00000000000005ce       0x39 CMakeFiles/dfu_no_serial_nrf52840_xxAA_s140_6.0.0.dir/__/__/mesh/core/src/aes.c.obj
 .ARM.attributes
                0x0000000000000607       0x39 CMakeFiles/dfu_no_serial_nrf52840_xxAA_s140_6.0.0.dir/__/__/mesh/core/src/msg_cache.c.obj
 .ARM.attributes
                0x0000000000000640       0x39 CMakeFiles/dfu_no_serial_nrf52840_xxAA_s140_6.0.0.dir/__/__/mesh/core/src/transport.c.obj
 .ARM.attributes
                0x0000000000000679       0x39 CMakeFiles/dfu_no_serial_nrf52840_xxAA_s140_6.0.0.dir/__/__/mesh/core/src/event.c.obj
 .ARM.attributes
                0x00000000000006b2       0x39 CMakeFiles/dfu_no_serial_nrf52840_xxAA_s140_6.0.0.dir/__/__/mesh/core/src/packet_buffer.c.obj
 .ARM.attributes
                0x00000000000006eb       0x39 CMakeFiles/dfu_no_serial_nrf52840_xxAA_s140_6.0.0.dir/__/__/mesh/core/src/flash_manager_defrag.c.obj
 .ARM.attributes
                0x0000000000000724       0x39 CMakeFiles/dfu_no_serial_nrf52840_xxAA_s140_6.0.0.dir/__/__/mesh/core/src/fifo.c.obj
 .ARM.attributes
                0x000000000000075d       0x39 CMakeFiles/dfu_no_serial_nrf52840_xxAA_s140_6.0.0.dir/__/__/mesh/core/src/nrf_flash.c.obj
 .ARM.attributes
                0x0000000000000796       0x39 CMakeFiles/dfu_no_serial_nrf52840_xxAA_s140_6.0.0.dir/__/__/mesh/core/src/packet_mgr.c.obj
 .ARM.attributes
                0x00000000000007cf       0x39 CMakeFiles/dfu_no_serial_nrf52840_xxAA_s140_6.0.0.dir/__/__/mesh/core/src/net_state.c.obj
 .ARM.attributes
                0x0000000000000808       0x39 CMakeFiles/dfu_no_serial_nrf52840_xxAA_s140_6.0.0.dir/__/__/mesh/core/src/mesh_flash.c.obj
 .ARM.attributes
                0x0000000000000841       0x39 CMakeFiles/dfu_no_serial_nrf52840_xxAA_s140_6.0.0.dir/__/__/mesh/core/src/nrf_mesh_utils.c.obj
 .ARM.attributes
                0x000000000000087a       0x39 CMakeFiles/dfu_no_serial_nrf52840_xxAA_s140_6.0.0.dir/__/__/mesh/core/src/nrf_mesh.c.obj
 .ARM.attributes
                0x00000000000008b3       0x39 CMakeFiles/dfu_no_serial_nrf52840_xxAA_s140_6.0.0.dir/__/__/mesh/core/src/queue.c.obj
 .ARM.attributes
                0x00000000000008ec       0x39 CMakeFiles/dfu_no_serial_nrf52840_xxAA_s140_6.0.0.dir/__/__/mesh/core/src/hal.c.obj
 .ARM.attributes
                0x0000000000000925       0x39 CMakeFiles/dfu_no_serial_nrf52840_xxAA_s140_6.0.0.dir/__/__/mesh/core/src/aes_cmac.c.obj
 .ARM.attributes
                0x000000000000095e       0x39 CMakeFiles/dfu_no_serial_nrf52840_xxAA_s140_6.0.0.dir/__/__/mesh/core/src/timer_scheduler.c.obj
 .ARM.attributes
                0x0000000000000997       0x39 CMakeFiles/dfu_no_serial_nrf52840_xxAA_s140_6.0.0.dir/__/__/mesh/core/src/timer.c.obj
 .ARM.attributes
                0x00000000000009d0       0x39 CMakeFiles/dfu_no_serial_nrf52840_xxAA_s140_6.0.0.dir/__/__/mesh/core/src/ticker.c.obj
 .ARM.attributes
                0x0000000000000a09       0x39 CMakeFiles/dfu_no_serial_nrf52840_xxAA_s140_6.0.0.dir/__/__/mesh/core/src/rand.c.obj
 .ARM.attributes
                0x0000000000000a42       0x39 CMakeFiles/dfu_no_serial_nrf52840_xxAA_s140_6.0.0.dir/__/__/mesh/core/src/nrf_mesh_opt.c.obj
 .ARM.attributes
                0x0000000000000a7b       0x39 CMakeFiles/dfu_no_serial_nrf52840_xxAA_s140_6.0.0.dir/__/__/mesh/core/src/timeslot.c.obj
 .ARM.attributes
                0x0000000000000ab4       0x39 CMakeFiles/dfu_no_serial_nrf52840_xxAA_s140_6.0.0.dir/__/__/mesh/core/src/bearer_event.c.obj
 .ARM.attributes
                0x0000000000000aed       0x39 CMakeFiles/dfu_no_serial_nrf52840_xxAA_s140_6.0.0.dir/__/__/mesh/core/src/enc.c.obj
 .ARM.attributes
                0x0000000000000b26       0x39 CMakeFiles/dfu_no_serial_nrf52840_xxAA_s140_6.0.0.dir/__/__/mesh/core/src/network.c.obj
 .ARM.attributes
                0x0000000000000b5f       0x39 CMakeFiles/dfu_no_serial_nrf52840_xxAA_s140_6.0.0.dir/__/__/mesh/core/src/net_packet.c.obj
 .ARM.attributes
                0x0000000000000b98       0x39 CMakeFiles/dfu_no_serial_nrf52840_xxAA_s140_6.0.0.dir/__/__/mesh/core/src/msqueue.c.obj
 .ARM.attributes
                0x0000000000000bd1       0x39 CMakeFiles/dfu_no_serial_nrf52840_xxAA_s140_6.0.0.dir/__/__/mesh/core/src/nrf_mesh_keygen.c.obj
 .ARM.attributes
                0x0000000000000c0a       0x39 CMakeFiles/dfu_no_serial_nrf52840_xxAA_s140_6.0.0.dir/__/__/mesh/core/src/list.c.obj
 .ARM.attributes
                0x0000000000000c43       0x39 CMakeFiles/dfu_no_serial_nrf52840_xxAA_s140_6.0.0.dir/__/__/mesh/core/src/log.c.obj
 .ARM.attributes
                0x0000000000000c7c       0x39 CMakeFiles/dfu_no_serial_nrf52840_xxAA_s140_6.0.0.dir/__/__/mesh/core/src/flash_manager.c.obj
 .ARM.attributes
                0x0000000000000cb5       0x39 CMakeFiles/dfu_no_serial_nrf52840_xxAA_s140_6.0.0.dir/__/__/mesh/core/src/ccm_soft.c.obj
 .ARM.attributes
                0x0000000000000cee       0x39 CMakeFiles/dfu_no_serial_nrf52840_xxAA_s140_6.0.0.dir/__/__/mesh/core/src/replay_cache.c.obj
 .ARM.attributes
                0x0000000000000d27       0x39 CMakeFiles/dfu_no_serial_nrf52840_xxAA_s140_6.0.0.dir/__/__/mesh/core/src/beacon.c.obj
 .ARM.attributes
                0x0000000000000d60       0x39 CMakeFiles/dfu_no_serial_nrf52840_xxAA_s140_6.0.0.dir/__/__/mesh/core/src/flash_manager_internal.c.obj
 .ARM.attributes
                0x0000000000000d99       0x39 CMakeFiles/dfu_no_serial_nrf52840_xxAA_s140_6.0.0.dir/__/__/mesh/core/src/core_tx.c.obj
 .ARM.attributes
                0x0000000000000dd2       0x39 CMakeFiles/dfu_no_serial_nrf52840_xxAA_s140_6.0.0.dir/__/__/mesh/core/src/heartbeat.c.obj
 .ARM.attributes
                0x0000000000000e0b       0x39 CMakeFiles/dfu_no_serial_nrf52840_xxAA_s140_6.0.0.dir/__/__/mesh/core/src/net_beacon.c.obj
 .ARM.attributes
                0x0000000000000e44       0x39 CMakeFiles/dfu_no_serial_nrf52840_xxAA_s140_6.0.0.dir/__/__/mesh/core/src/core_tx_adv.c.obj
 .ARM.attributes
                0x0000000000000e7d       0x39 CMakeFiles/dfu_no_serial_nrf52840_xxAA_s140_6.0.0.dir/__/__/mesh/bearer/src/ad_listener.c.obj
 .ARM.attributes
                0x0000000000000eb6       0x39 CMakeFiles/dfu_no_serial_nrf52840_xxAA_s140_6.0.0.dir/__/__/mesh/bearer/src/ad_type_filter.c.obj
 .ARM.attributes
                0x0000000000000eef       0x39 CMakeFiles/dfu_no_serial_nrf52840_xxAA_s140_6.0.0.dir/__/__/mesh/bearer/src/advertiser.c.obj
 .ARM.attributes
                0x0000000000000f28       0x39 CMakeFiles/dfu_no_serial_nrf52840_xxAA_s140_6.0.0.dir/__/__/mesh/bearer/src/bearer_handler.c.obj
 .ARM.attributes
                0x0000000000000f61       0x39 CMakeFiles/dfu_no_serial_nrf52840_xxAA_s140_6.0.0.dir/__/__/mesh/bearer/src/broadcast.c.obj
 .ARM.attributes
                0x0000000000000f9a       0x39 CMakeFiles/dfu_no_serial_nrf52840_xxAA_s140_6.0.0.dir/__/__/mesh/bearer/src/filter_engine.c.obj
 .ARM.attributes
                0x0000000000000fd3       0x39 CMakeFiles/dfu_no_serial_nrf52840_xxAA_s140_6.0.0.dir/__/__/mesh/bearer/src/radio_config.c.obj
 .ARM.attributes
                0x000000000000100c       0x39 CMakeFiles/dfu_no_serial_nrf52840_xxAA_s140_6.0.0.dir/__/__/mesh/bearer/src/scanner.c.obj
 .ARM.attributes
                0x0000000000001045       0x39 CMakeFiles/dfu_no_serial_nrf52840_xxAA_s140_6.0.0.dir/home/mazzer/work/nordic/sdk/nRF5_SDK_15.0.0/modules/nrfx/mdk/system_nrf52840.c.obj
 .ARM.attributes
                0x000000000000107e       0x20 CMakeFiles/dfu_no_serial_nrf52840_xxAA_s140_6.0.0.dir/home/mazzer/work/nordic/sdk/nRF5_SDK_15.0.0/modules/nrfx/mdk/gcc_startup_nrf52840.S.obj
 .ARM.attributes
                0x000000000000109e       0x39 CMakeFiles/dfu_no_serial_nrf52840_xxAA_s140_6.0.0.dir/home/mazzer/work/nordic/sdk/nRF5_SDK_15.0.0/components/libraries/util/app_error.c.obj
 .ARM.attributes
                0x00000000000010d7       0x39 CMakeFiles/dfu_no_serial_nrf52840_xxAA_s140_6.0.0.dir/home/mazzer/work/nordic/sdk/nRF5_SDK_15.0.0/components/libraries/util/app_error_handler_gcc.c.obj
 .ARM.attributes
                0x0000000000001110       0x39 ../../external/rtt/librtt_nrf52840_xxAA.a(SEGGER_RTT.c.obj)
 .ARM.attributes
                0x0000000000001149       0x39 ../../external/rtt/librtt_nrf52840_xxAA.a(SEGGER_RTT_printf.c.obj)
 .ARM.attributes
                0x0000000000001182       0x39 ../../external/micro-ecc/libuECC_nrf52840_xxAA.a(uECC.c.obj)
 .ARM.attributes
                0x00000000000011bb       0x34 /usr/bin/../lib/gcc/arm-none-eabi/7.2.1/../../../../arm-none-eabi/lib/thumb/v7e-m/fpv4-sp/hard/libg_nano.a(lib_a-exit.o)
 .ARM.attributes
                0x00000000000011ef       0x34 /usr/bin/../lib/gcc/arm-none-eabi/7.2.1/../../../../arm-none-eabi/lib/thumb/v7e-m/fpv4-sp/hard/libg_nano.a(lib_a-impure.o)
 .ARM.attributes
                0x0000000000001223       0x34 /usr/bin/../lib/gcc/arm-none-eabi/7.2.1/../../../../arm-none-eabi/lib/thumb/v7e-m/fpv4-sp/hard/libg_nano.a(lib_a-init.o)
 .ARM.attributes
                0x0000000000001257       0x34 /usr/bin/../lib/gcc/arm-none-eabi/7.2.1/../../../../arm-none-eabi/lib/thumb/v7e-m/fpv4-sp/hard/libg_nano.a(lib_a-malloc.o)
 .ARM.attributes
                0x000000000000128b       0x34 /usr/bin/../lib/gcc/arm-none-eabi/7.2.1/../../../../arm-none-eabi/lib/thumb/v7e-m/fpv4-sp/hard/libg_nano.a(lib_a-memcmp.o)
 .ARM.attributes
                0x00000000000012bf       0x34 /usr/bin/../lib/gcc/arm-none-eabi/7.2.1/../../../../arm-none-eabi/lib/thumb/v7e-m/fpv4-sp/hard/libg_nano.a(lib_a-memcpy-stub.o)
 .ARM.attributes
                0x00000000000012f3       0x34 /usr/bin/../lib/gcc/arm-none-eabi/7.2.1/../../../../arm-none-eabi/lib/thumb/v7e-m/fpv4-sp/hard/libg_nano.a(lib_a-memset.o)
 .ARM.attributes
                0x0000000000001327       0x34 /usr/bin/../lib/gcc/arm-none-eabi/7.2.1/../../../../arm-none-eabi/lib/thumb/v7e-m/fpv4-sp/hard/libg_nano.a(lib_a-nano-freer.o)
 .ARM.attributes
                0x000000000000135b       0x34 /usr/bin/../lib/gcc/arm-none-eabi/7.2.1/../../../../arm-none-eabi/lib/thumb/v7e-m/fpv4-sp/hard/libg_nano.a(lib_a-nano-mallocr.o)
 .ARM.attributes
                0x000000000000138f       0x34 /usr/bin/../lib/gcc/arm-none-eabi/7.2.1/../../../../arm-none-eabi/lib/thumb/v7e-m/fpv4-sp/hard/libg_nano.a(lib_a-sbrkr.o)
 .ARM.attributes
                0x00000000000013c3       0x34 /usr/bin/../lib/gcc/arm-none-eabi/7.2.1/../../../../arm-none-eabi/lib/thumb/v7e-m/fpv4-sp/hard/libg_nano.a(lib_a-strcpy.o)
 .ARM.attributes
                0x00000000000013f7       0x1b /usr/bin/../lib/gcc/arm-none-eabi/7.2.1/../../../../arm-none-eabi/lib/thumb/v7e-m/fpv4-sp/hard/libg_nano.a(lib_a-strlen.o)
 .ARM.attributes
                0x0000000000001412       0x34 /usr/bin/../lib/gcc/arm-none-eabi/7.2.1/../../../../arm-none-eabi/lib/thumb/v7e-m/fpv4-sp/hard/libg_nano.a(lib_a-strrchr.o)
 .ARM.attributes
                0x0000000000001446       0x34 /usr/bin/../lib/gcc/arm-none-eabi/7.2.1/../../../../arm-none-eabi/lib/thumb/v7e-m/fpv4-sp/hard/libg_nano.a(lib_a-mlock.o)
 .ARM.attributes
                0x000000000000147a       0x34 /usr/bin/../lib/gcc/arm-none-eabi/7.2.1/../../../../arm-none-eabi/lib/thumb/v7e-m/fpv4-sp/hard/libg_nano.a(lib_a-reent.o)
 .ARM.attributes
                0x00000000000014ae       0x34 /usr/bin/../lib/gcc/arm-none-eabi/7.2.1/../../../../arm-none-eabi/lib/thumb/v7e-m/fpv4-sp/hard/libg_nano.a(lib_a-strchr.o)
 .ARM.attributes
                0x00000000000014e2       0x34 /usr/bin/../lib/gcc/arm-none-eabi/7.2.1/thumb/v7e-m/fpv4-sp/hard/crtend.o
 .ARM.attributes
                0x0000000000001516       0x22 /usr/bin/../lib/gcc/arm-none-eabi/7.2.1/thumb/v7e-m/fpv4-sp/hard/crtn.o
 .ARM.attributes
                0x0000000000001538       0x34 /usr/bin/../lib/gcc/arm-none-eabi/7.2.1/../../../../arm-none-eabi/lib/thumb/v7e-m/fpv4-sp/hard/libnosys.a(sbrk.o)
 .ARM.attributes
                0x000000000000156c       0x34 /usr/bin/../lib/gcc/arm-none-eabi/7.2.1/../../../../arm-none-eabi/lib/thumb/v7e-m/fpv4-sp/hard/libnosys.a(_exit.o)

.comment        0x0000000000000000       0x7e
 .comment       0x0000000000000000       0x7e CMakeFiles/dfu_no_serial_nrf52840_xxAA_s140_6.0.0.dir/src/main.c.obj
                                         0x7f (size before relaxing)
 .comment       0x000000000000007e       0x7f CMakeFiles/dfu_no_serial_nrf52840_xxAA_s140_6.0.0.dir/__/__/mesh/stack/src/mesh_stack.c.obj
 .comment       0x000000000000007e       0x7f CMakeFiles/dfu_no_serial_nrf52840_xxAA_s140_6.0.0.dir/__/common/src/mesh_softdevice_init.c.obj
 .comment       0x000000000000007e       0x7f CMakeFiles/dfu_no_serial_nrf52840_xxAA_s140_6.0.0.dir/__/common/src/mesh_provisionee.c.obj
 .comment       0x000000000000007e       0x7f CMakeFiles/dfu_no_serial_nrf52840_xxAA_s140_6.0.0.dir/__/common/src/simple_hal.c.obj
 .comment       0x000000000000007e       0x7f CMakeFiles/dfu_no_serial_nrf52840_xxAA_s140_6.0.0.dir/__/__/mesh/access/src/access_publish.c.obj
 .comment       0x000000000000007e       0x7f CMakeFiles/dfu_no_serial_nrf52840_xxAA_s140_6.0.0.dir/__/__/mesh/access/src/access.c.obj
 .comment       0x000000000000007e       0x7f CMakeFiles/dfu_no_serial_nrf52840_xxAA_s140_6.0.0.dir/__/__/mesh/access/src/access_reliable.c.obj
 .comment       0x000000000000007e       0x7f CMakeFiles/dfu_no_serial_nrf52840_xxAA_s140_6.0.0.dir/__/__/mesh/access/src/device_state_manager.c.obj
 .comment       0x000000000000007e       0x7f CMakeFiles/dfu_no_serial_nrf52840_xxAA_s140_6.0.0.dir/__/__/models/config/src/composition_data.c.obj
 .comment       0x000000000000007e       0x7f CMakeFiles/dfu_no_serial_nrf52840_xxAA_s140_6.0.0.dir/__/__/models/config/src/config_server.c.obj
 .comment       0x000000000000007e       0x7f CMakeFiles/dfu_no_serial_nrf52840_xxAA_s140_6.0.0.dir/__/__/models/config/src/packed_index_list.c.obj
 .comment       0x000000000000007e       0x7f CMakeFiles/dfu_no_serial_nrf52840_xxAA_s140_6.0.0.dir/__/__/models/health/src/health_server.c.obj
 .comment       0x000000000000007e       0x7f CMakeFiles/dfu_no_serial_nrf52840_xxAA_s140_6.0.0.dir/__/__/mesh/prov/src/prov_provisioner.c.obj
 .comment       0x000000000000007e       0x7f CMakeFiles/dfu_no_serial_nrf52840_xxAA_s140_6.0.0.dir/__/__/mesh/prov/src/prov_provisionee.c.obj
 .comment       0x000000000000007e       0x7f CMakeFiles/dfu_no_serial_nrf52840_xxAA_s140_6.0.0.dir/__/__/mesh/prov/src/nrf_mesh_prov.c.obj
 .comment       0x000000000000007e       0x7f CMakeFiles/dfu_no_serial_nrf52840_xxAA_s140_6.0.0.dir/__/__/mesh/prov/src/provisioning.c.obj
 .comment       0x000000000000007e       0x7f CMakeFiles/dfu_no_serial_nrf52840_xxAA_s140_6.0.0.dir/__/__/mesh/prov/src/prov_beacon.c.obj
 .comment       0x000000000000007e       0x7f CMakeFiles/dfu_no_serial_nrf52840_xxAA_s140_6.0.0.dir/__/__/mesh/prov/src/prov_utils.c.obj
 .comment       0x000000000000007e       0x7f CMakeFiles/dfu_no_serial_nrf52840_xxAA_s140_6.0.0.dir/__/__/mesh/prov/src/prov_bearer_adv.c.obj
 .comment       0x000000000000007e       0x7f CMakeFiles/dfu_no_serial_nrf52840_xxAA_s140_6.0.0.dir/__/__/mesh/dfu/src/nrf_mesh_dfu.c.obj
 .comment       0x000000000000007e       0x7f CMakeFiles/dfu_no_serial_nrf52840_xxAA_s140_6.0.0.dir/__/common/src/app_error_weak.c.obj
 .comment       0x000000000000007e       0x7f CMakeFiles/dfu_no_serial_nrf52840_xxAA_s140_6.0.0.dir/__/common/src/assertion_handler_weak.c.obj
 .comment       0x000000000000007e       0x7f CMakeFiles/dfu_no_serial_nrf52840_xxAA_s140_6.0.0.dir/__/__/mesh/core/src/nrf_mesh_configure.c.obj
 .comment       0x000000000000007e       0x7f CMakeFiles/dfu_no_serial_nrf52840_xxAA_s140_6.0.0.dir/__/__/mesh/core/src/aes.c.obj
 .comment       0x000000000000007e       0x7f CMakeFiles/dfu_no_serial_nrf52840_xxAA_s140_6.0.0.dir/__/__/mesh/core/src/msg_cache.c.obj
 .comment       0x000000000000007e       0x7f CMakeFiles/dfu_no_serial_nrf52840_xxAA_s140_6.0.0.dir/__/__/mesh/core/src/transport.c.obj
 .comment       0x000000000000007e       0x7f CMakeFiles/dfu_no_serial_nrf52840_xxAA_s140_6.0.0.dir/__/__/mesh/core/src/event.c.obj
 .comment       0x000000000000007e       0x7f CMakeFiles/dfu_no_serial_nrf52840_xxAA_s140_6.0.0.dir/__/__/mesh/core/src/packet_buffer.c.obj
 .comment       0x000000000000007e       0x7f CMakeFiles/dfu_no_serial_nrf52840_xxAA_s140_6.0.0.dir/__/__/mesh/core/src/flash_manager_defrag.c.obj
 .comment       0x000000000000007e       0x7f CMakeFiles/dfu_no_serial_nrf52840_xxAA_s140_6.0.0.dir/__/__/mesh/core/src/fifo.c.obj
 .comment       0x000000000000007e       0x7f CMakeFiles/dfu_no_serial_nrf52840_xxAA_s140_6.0.0.dir/__/__/mesh/core/src/nrf_flash.c.obj
 .comment       0x000000000000007e       0x7f CMakeFiles/dfu_no_serial_nrf52840_xxAA_s140_6.0.0.dir/__/__/mesh/core/src/packet_mgr.c.obj
 .comment       0x000000000000007e       0x7f CMakeFiles/dfu_no_serial_nrf52840_xxAA_s140_6.0.0.dir/__/__/mesh/core/src/net_state.c.obj
 .comment       0x000000000000007e       0x7f CMakeFiles/dfu_no_serial_nrf52840_xxAA_s140_6.0.0.dir/__/__/mesh/core/src/mesh_flash.c.obj
 .comment       0x000000000000007e       0x7f CMakeFiles/dfu_no_serial_nrf52840_xxAA_s140_6.0.0.dir/__/__/mesh/core/src/nrf_mesh_utils.c.obj
 .comment       0x000000000000007e       0x7f CMakeFiles/dfu_no_serial_nrf52840_xxAA_s140_6.0.0.dir/__/__/mesh/core/src/nrf_mesh.c.obj
 .comment       0x000000000000007e       0x7f CMakeFiles/dfu_no_serial_nrf52840_xxAA_s140_6.0.0.dir/__/__/mesh/core/src/queue.c.obj
 .comment       0x000000000000007e       0x7f CMakeFiles/dfu_no_serial_nrf52840_xxAA_s140_6.0.0.dir/__/__/mesh/core/src/hal.c.obj
 .comment       0x000000000000007e       0x7f CMakeFiles/dfu_no_serial_nrf52840_xxAA_s140_6.0.0.dir/__/__/mesh/core/src/aes_cmac.c.obj
 .comment       0x000000000000007e       0x7f CMakeFiles/dfu_no_serial_nrf52840_xxAA_s140_6.0.0.dir/__/__/mesh/core/src/timer_scheduler.c.obj
 .comment       0x000000000000007e       0x7f CMakeFiles/dfu_no_serial_nrf52840_xxAA_s140_6.0.0.dir/__/__/mesh/core/src/timer.c.obj
 .comment       0x000000000000007e       0x7f CMakeFiles/dfu_no_serial_nrf52840_xxAA_s140_6.0.0.dir/__/__/mesh/core/src/ticker.c.obj
 .comment       0x000000000000007e       0x7f CMakeFiles/dfu_no_serial_nrf52840_xxAA_s140_6.0.0.dir/__/__/mesh/core/src/rand.c.obj
 .comment       0x000000000000007e       0x7f CMakeFiles/dfu_no_serial_nrf52840_xxAA_s140_6.0.0.dir/__/__/mesh/core/src/nrf_mesh_opt.c.obj
 .comment       0x000000000000007e       0x7f CMakeFiles/dfu_no_serial_nrf52840_xxAA_s140_6.0.0.dir/__/__/mesh/core/src/timeslot.c.obj
 .comment       0x000000000000007e       0x7f CMakeFiles/dfu_no_serial_nrf52840_xxAA_s140_6.0.0.dir/__/__/mesh/core/src/bearer_event.c.obj
 .comment       0x000000000000007e       0x7f CMakeFiles/dfu_no_serial_nrf52840_xxAA_s140_6.0.0.dir/__/__/mesh/core/src/enc.c.obj
 .comment       0x000000000000007e       0x7f CMakeFiles/dfu_no_serial_nrf52840_xxAA_s140_6.0.0.dir/__/__/mesh/core/src/network.c.obj
 .comment       0x000000000000007e       0x7f CMakeFiles/dfu_no_serial_nrf52840_xxAA_s140_6.0.0.dir/__/__/mesh/core/src/net_packet.c.obj
 .comment       0x000000000000007e       0x7f CMakeFiles/dfu_no_serial_nrf52840_xxAA_s140_6.0.0.dir/__/__/mesh/core/src/msqueue.c.obj
 .comment       0x000000000000007e       0x7f CMakeFiles/dfu_no_serial_nrf52840_xxAA_s140_6.0.0.dir/__/__/mesh/core/src/nrf_mesh_keygen.c.obj
 .comment       0x000000000000007e       0x7f CMakeFiles/dfu_no_serial_nrf52840_xxAA_s140_6.0.0.dir/__/__/mesh/core/src/list.c.obj
 .comment       0x000000000000007e       0x7f CMakeFiles/dfu_no_serial_nrf52840_xxAA_s140_6.0.0.dir/__/__/mesh/core/src/log.c.obj
 .comment       0x000000000000007e       0x7f CMakeFiles/dfu_no_serial_nrf52840_xxAA_s140_6.0.0.dir/__/__/mesh/core/src/flash_manager.c.obj
 .comment       0x000000000000007e       0x7f CMakeFiles/dfu_no_serial_nrf52840_xxAA_s140_6.0.0.dir/__/__/mesh/core/src/ccm_soft.c.obj
 .comment       0x000000000000007e       0x7f CMakeFiles/dfu_no_serial_nrf52840_xxAA_s140_6.0.0.dir/__/__/mesh/core/src/replay_cache.c.obj
 .comment       0x000000000000007e       0x7f CMakeFiles/dfu_no_serial_nrf52840_xxAA_s140_6.0.0.dir/__/__/mesh/core/src/beacon.c.obj
 .comment       0x000000000000007e       0x7f CMakeFiles/dfu_no_serial_nrf52840_xxAA_s140_6.0.0.dir/__/__/mesh/core/src/flash_manager_internal.c.obj
 .comment       0x000000000000007e       0x7f CMakeFiles/dfu_no_serial_nrf52840_xxAA_s140_6.0.0.dir/__/__/mesh/core/src/core_tx.c.obj
 .comment       0x000000000000007e       0x7f CMakeFiles/dfu_no_serial_nrf52840_xxAA_s140_6.0.0.dir/__/__/mesh/core/src/heartbeat.c.obj
 .comment       0x000000000000007e       0x7f CMakeFiles/dfu_no_serial_nrf52840_xxAA_s140_6.0.0.dir/__/__/mesh/core/src/net_beacon.c.obj
 .comment       0x000000000000007e       0x7f CMakeFiles/dfu_no_serial_nrf52840_xxAA_s140_6.0.0.dir/__/__/mesh/core/src/core_tx_adv.c.obj
 .comment       0x000000000000007e       0x7f CMakeFiles/dfu_no_serial_nrf52840_xxAA_s140_6.0.0.dir/__/__/mesh/bearer/src/ad_listener.c.obj
 .comment       0x000000000000007e       0x7f CMakeFiles/dfu_no_serial_nrf52840_xxAA_s140_6.0.0.dir/__/__/mesh/bearer/src/ad_type_filter.c.obj
 .comment       0x000000000000007e       0x7f CMakeFiles/dfu_no_serial_nrf52840_xxAA_s140_6.0.0.dir/__/__/mesh/bearer/src/advertiser.c.obj
 .comment       0x000000000000007e       0x7f CMakeFiles/dfu_no_serial_nrf52840_xxAA_s140_6.0.0.dir/__/__/mesh/bearer/src/bearer_handler.c.obj
 .comment       0x000000000000007e       0x7f CMakeFiles/dfu_no_serial_nrf52840_xxAA_s140_6.0.0.dir/__/__/mesh/bearer/src/broadcast.c.obj
 .comment       0x000000000000007e       0x7f CMakeFiles/dfu_no_serial_nrf52840_xxAA_s140_6.0.0.dir/__/__/mesh/bearer/src/filter_engine.c.obj
 .comment       0x000000000000007e       0x7f CMakeFiles/dfu_no_serial_nrf52840_xxAA_s140_6.0.0.dir/__/__/mesh/bearer/src/radio_config.c.obj
 .comment       0x000000000000007e       0x7f CMakeFiles/dfu_no_serial_nrf52840_xxAA_s140_6.0.0.dir/__/__/mesh/bearer/src/scanner.c.obj
 .comment       0x000000000000007e       0x7f CMakeFiles/dfu_no_serial_nrf52840_xxAA_s140_6.0.0.dir/home/mazzer/work/nordic/sdk/nRF5_SDK_15.0.0/modules/nrfx/mdk/system_nrf52840.c.obj
 .comment       0x000000000000007e       0x7f CMakeFiles/dfu_no_serial_nrf52840_xxAA_s140_6.0.0.dir/home/mazzer/work/nordic/sdk/nRF5_SDK_15.0.0/components/libraries/util/app_error.c.obj
 .comment       0x000000000000007e       0x7f CMakeFiles/dfu_no_serial_nrf52840_xxAA_s140_6.0.0.dir/home/mazzer/work/nordic/sdk/nRF5_SDK_15.0.0/components/libraries/util/app_error_handler_gcc.c.obj
 .comment       0x000000000000007e       0x7f ../../external/rtt/librtt_nrf52840_xxAA.a(SEGGER_RTT.c.obj)
 .comment       0x000000000000007e       0x7f ../../external/rtt/librtt_nrf52840_xxAA.a(SEGGER_RTT_printf.c.obj)
 .comment       0x000000000000007e       0x7f ../../external/micro-ecc/libuECC_nrf52840_xxAA.a(uECC.c.obj)

.debug_info     0x0000000000000000    0x999a3
 .debug_info    0x0000000000000000     0x3272 CMakeFiles/dfu_no_serial_nrf52840_xxAA_s140_6.0.0.dir/src/main.c.obj
 .debug_info    0x0000000000003272     0x2346 CMakeFiles/dfu_no_serial_nrf52840_xxAA_s140_6.0.0.dir/__/__/mesh/stack/src/mesh_stack.c.obj
 .debug_info    0x00000000000055b8     0x17ec CMakeFiles/dfu_no_serial_nrf52840_xxAA_s140_6.0.0.dir/__/common/src/mesh_softdevice_init.c.obj
 .debug_info    0x0000000000006da4     0x218f CMakeFiles/dfu_no_serial_nrf52840_xxAA_s140_6.0.0.dir/__/common/src/mesh_provisionee.c.obj
 .debug_info    0x0000000000008f33     0x1596 CMakeFiles/dfu_no_serial_nrf52840_xxAA_s140_6.0.0.dir/__/common/src/simple_hal.c.obj
 .debug_info    0x000000000000a4c9     0x12cf CMakeFiles/dfu_no_serial_nrf52840_xxAA_s140_6.0.0.dir/__/__/mesh/access/src/access_publish.c.obj
 .debug_info    0x000000000000b798     0x54c6 CMakeFiles/dfu_no_serial_nrf52840_xxAA_s140_6.0.0.dir/__/__/mesh/access/src/access.c.obj
 .debug_info    0x0000000000010c5e     0x1a56 CMakeFiles/dfu_no_serial_nrf52840_xxAA_s140_6.0.0.dir/__/__/mesh/access/src/access_reliable.c.obj
 .debug_info    0x00000000000126b4     0x94c8 CMakeFiles/dfu_no_serial_nrf52840_xxAA_s140_6.0.0.dir/__/__/mesh/access/src/device_state_manager.c.obj
 .debug_info    0x000000000001bb7c      0xedb CMakeFiles/dfu_no_serial_nrf52840_xxAA_s140_6.0.0.dir/__/__/models/config/src/composition_data.c.obj
 .debug_info    0x000000000001ca57     0xc313 CMakeFiles/dfu_no_serial_nrf52840_xxAA_s140_6.0.0.dir/__/__/models/config/src/config_server.c.obj
 .debug_info    0x0000000000028d6a      0x126 CMakeFiles/dfu_no_serial_nrf52840_xxAA_s140_6.0.0.dir/__/__/models/config/src/packed_index_list.c.obj
 .debug_info    0x0000000000028e90     0x2e65 CMakeFiles/dfu_no_serial_nrf52840_xxAA_s140_6.0.0.dir/__/__/models/health/src/health_server.c.obj
 .debug_info    0x000000000002bcf5     0x26b6 CMakeFiles/dfu_no_serial_nrf52840_xxAA_s140_6.0.0.dir/__/__/mesh/prov/src/prov_provisioner.c.obj
 .debug_info    0x000000000002e3ab     0x2c7b CMakeFiles/dfu_no_serial_nrf52840_xxAA_s140_6.0.0.dir/__/__/mesh/prov/src/prov_provisionee.c.obj
 .debug_info    0x0000000000031026     0x1fa2 CMakeFiles/dfu_no_serial_nrf52840_xxAA_s140_6.0.0.dir/__/__/mesh/prov/src/nrf_mesh_prov.c.obj
 .debug_info    0x0000000000032fc8     0x18dc CMakeFiles/dfu_no_serial_nrf52840_xxAA_s140_6.0.0.dir/__/__/mesh/prov/src/provisioning.c.obj
 .debug_info    0x00000000000348a4     0x1a93 CMakeFiles/dfu_no_serial_nrf52840_xxAA_s140_6.0.0.dir/__/__/mesh/prov/src/prov_beacon.c.obj
 .debug_info    0x0000000000036337     0x2108 CMakeFiles/dfu_no_serial_nrf52840_xxAA_s140_6.0.0.dir/__/__/mesh/prov/src/prov_utils.c.obj
 .debug_info    0x000000000003843f     0x4a03 CMakeFiles/dfu_no_serial_nrf52840_xxAA_s140_6.0.0.dir/__/__/mesh/prov/src/prov_bearer_adv.c.obj
 .debug_info    0x000000000003ce42     0x60cc CMakeFiles/dfu_no_serial_nrf52840_xxAA_s140_6.0.0.dir/__/__/mesh/dfu/src/nrf_mesh_dfu.c.obj
 .debug_info    0x0000000000042f0e     0x1170 CMakeFiles/dfu_no_serial_nrf52840_xxAA_s140_6.0.0.dir/__/common/src/app_error_weak.c.obj
 .debug_info    0x000000000004407e      0x994 CMakeFiles/dfu_no_serial_nrf52840_xxAA_s140_6.0.0.dir/__/common/src/assertion_handler_weak.c.obj
 .debug_info    0x0000000000044a12      0xdf8 CMakeFiles/dfu_no_serial_nrf52840_xxAA_s140_6.0.0.dir/__/__/mesh/core/src/nrf_mesh_configure.c.obj
 .debug_info    0x000000000004580a      0xbea CMakeFiles/dfu_no_serial_nrf52840_xxAA_s140_6.0.0.dir/__/__/mesh/core/src/aes.c.obj
 .debug_info    0x00000000000463f4      0xa51 CMakeFiles/dfu_no_serial_nrf52840_xxAA_s140_6.0.0.dir/__/__/mesh/core/src/msg_cache.c.obj
 .debug_info    0x0000000000046e45     0x6184 CMakeFiles/dfu_no_serial_nrf52840_xxAA_s140_6.0.0.dir/__/__/mesh/core/src/transport.c.obj
 .debug_info    0x000000000004cfc9     0x1763 CMakeFiles/dfu_no_serial_nrf52840_xxAA_s140_6.0.0.dir/__/__/mesh/core/src/event.c.obj
 .debug_info    0x000000000004e72c     0x1aa3 CMakeFiles/dfu_no_serial_nrf52840_xxAA_s140_6.0.0.dir/__/__/mesh/core/src/packet_buffer.c.obj
 .debug_info    0x00000000000501cf     0x24b1 CMakeFiles/dfu_no_serial_nrf52840_xxAA_s140_6.0.0.dir/__/__/mesh/core/src/flash_manager_defrag.c.obj
 .debug_info    0x0000000000052680      0xd9a CMakeFiles/dfu_no_serial_nrf52840_xxAA_s140_6.0.0.dir/__/__/mesh/core/src/fifo.c.obj
 .debug_info    0x000000000005341a      0xb70 CMakeFiles/dfu_no_serial_nrf52840_xxAA_s140_6.0.0.dir/__/__/mesh/core/src/nrf_flash.c.obj
 .debug_info    0x0000000000053f8a     0x118f CMakeFiles/dfu_no_serial_nrf52840_xxAA_s140_6.0.0.dir/__/__/mesh/core/src/packet_mgr.c.obj
 .debug_info    0x0000000000055119     0x3735 CMakeFiles/dfu_no_serial_nrf52840_xxAA_s140_6.0.0.dir/__/__/mesh/core/src/net_state.c.obj
 .debug_info    0x000000000005884e     0x1be8 CMakeFiles/dfu_no_serial_nrf52840_xxAA_s140_6.0.0.dir/__/__/mesh/core/src/mesh_flash.c.obj
 .debug_info    0x000000000005a436      0xa72 CMakeFiles/dfu_no_serial_nrf52840_xxAA_s140_6.0.0.dir/__/__/mesh/core/src/nrf_mesh_utils.c.obj
 .debug_info    0x000000000005aea8     0x2678 CMakeFiles/dfu_no_serial_nrf52840_xxAA_s140_6.0.0.dir/__/__/mesh/core/src/nrf_mesh.c.obj
 .debug_info    0x000000000005d520      0xb10 CMakeFiles/dfu_no_serial_nrf52840_xxAA_s140_6.0.0.dir/__/__/mesh/core/src/queue.c.obj
 .debug_info    0x000000000005e030      0x514 CMakeFiles/dfu_no_serial_nrf52840_xxAA_s140_6.0.0.dir/__/__/mesh/core/src/hal.c.obj
 .debug_info    0x000000000005e544      0xe8f CMakeFiles/dfu_no_serial_nrf52840_xxAA_s140_6.0.0.dir/__/__/mesh/core/src/aes_cmac.c.obj
 .debug_info    0x000000000005f3d3     0x13bd CMakeFiles/dfu_no_serial_nrf52840_xxAA_s140_6.0.0.dir/__/__/mesh/core/src/timer_scheduler.c.obj
 .debug_info    0x0000000000060790      0xe1e CMakeFiles/dfu_no_serial_nrf52840_xxAA_s140_6.0.0.dir/__/__/mesh/core/src/timer.c.obj
 .debug_info    0x00000000000615ae      0x20c CMakeFiles/dfu_no_serial_nrf52840_xxAA_s140_6.0.0.dir/__/__/mesh/core/src/ticker.c.obj
 .debug_info    0x00000000000617ba      0x4d4 CMakeFiles/dfu_no_serial_nrf52840_xxAA_s140_6.0.0.dir/__/__/mesh/core/src/rand.c.obj
 .debug_info    0x0000000000061c8e      0xaef CMakeFiles/dfu_no_serial_nrf52840_xxAA_s140_6.0.0.dir/__/__/mesh/core/src/nrf_mesh_opt.c.obj
 .debug_info    0x000000000006277d     0x1c1b CMakeFiles/dfu_no_serial_nrf52840_xxAA_s140_6.0.0.dir/__/__/mesh/core/src/timeslot.c.obj
 .debug_info    0x0000000000064398     0x1c9f CMakeFiles/dfu_no_serial_nrf52840_xxAA_s140_6.0.0.dir/__/__/mesh/core/src/bearer_event.c.obj
 .debug_info    0x0000000000066037     0x181f CMakeFiles/dfu_no_serial_nrf52840_xxAA_s140_6.0.0.dir/__/__/mesh/core/src/enc.c.obj
 .debug_info    0x0000000000067856     0x1cc0 CMakeFiles/dfu_no_serial_nrf52840_xxAA_s140_6.0.0.dir/__/__/mesh/core/src/network.c.obj
 .debug_info    0x0000000000069516     0x1de3 CMakeFiles/dfu_no_serial_nrf52840_xxAA_s140_6.0.0.dir/__/__/mesh/core/src/net_packet.c.obj
 .debug_info    0x000000000006b2f9      0xe51 CMakeFiles/dfu_no_serial_nrf52840_xxAA_s140_6.0.0.dir/__/__/mesh/core/src/msqueue.c.obj
 .debug_info    0x000000000006c14a      0x4c0 CMakeFiles/dfu_no_serial_nrf52840_xxAA_s140_6.0.0.dir/__/__/mesh/core/src/nrf_mesh_keygen.c.obj
 .debug_info    0x000000000006c60a      0x573 CMakeFiles/dfu_no_serial_nrf52840_xxAA_s140_6.0.0.dir/__/__/mesh/core/src/list.c.obj
 .debug_info    0x000000000006cb7d      0xe8b CMakeFiles/dfu_no_serial_nrf52840_xxAA_s140_6.0.0.dir/__/__/mesh/core/src/log.c.obj
 .debug_info    0x000000000006da08     0x3cc6 CMakeFiles/dfu_no_serial_nrf52840_xxAA_s140_6.0.0.dir/__/__/mesh/core/src/flash_manager.c.obj
 .debug_info    0x00000000000716ce     0x120f CMakeFiles/dfu_no_serial_nrf52840_xxAA_s140_6.0.0.dir/__/__/mesh/core/src/ccm_soft.c.obj
 .debug_info    0x00000000000728dd      0xa87 CMakeFiles/dfu_no_serial_nrf52840_xxAA_s140_6.0.0.dir/__/__/mesh/core/src/replay_cache.c.obj
 .debug_info    0x0000000000073364     0x17c2 CMakeFiles/dfu_no_serial_nrf52840_xxAA_s140_6.0.0.dir/__/__/mesh/core/src/beacon.c.obj
 .debug_info    0x0000000000074b26      0xb98 CMakeFiles/dfu_no_serial_nrf52840_xxAA_s140_6.0.0.dir/__/__/mesh/core/src/flash_manager_internal.c.obj
 .debug_info    0x00000000000756be     0x1264 CMakeFiles/dfu_no_serial_nrf52840_xxAA_s140_6.0.0.dir/__/__/mesh/core/src/core_tx.c.obj
 .debug_info    0x0000000000076922     0x24e7 CMakeFiles/dfu_no_serial_nrf52840_xxAA_s140_6.0.0.dir/__/__/mesh/core/src/heartbeat.c.obj
 .debug_info    0x0000000000078e09     0x2a3c CMakeFiles/dfu_no_serial_nrf52840_xxAA_s140_6.0.0.dir/__/__/mesh/core/src/net_beacon.c.obj
 .debug_info    0x000000000007b845     0x197e CMakeFiles/dfu_no_serial_nrf52840_xxAA_s140_6.0.0.dir/__/__/mesh/core/src/core_tx_adv.c.obj
 .debug_info    0x000000000007d1c3     0x116a CMakeFiles/dfu_no_serial_nrf52840_xxAA_s140_6.0.0.dir/__/__/mesh/bearer/src/ad_listener.c.obj
 .debug_info    0x000000000007e32d      0xfc4 CMakeFiles/dfu_no_serial_nrf52840_xxAA_s140_6.0.0.dir/__/__/mesh/bearer/src/ad_type_filter.c.obj
 .debug_info    0x000000000007f2f1     0x2af6 CMakeFiles/dfu_no_serial_nrf52840_xxAA_s140_6.0.0.dir/__/__/mesh/bearer/src/advertiser.c.obj
 .debug_info    0x0000000000081de7     0x1bad CMakeFiles/dfu_no_serial_nrf52840_xxAA_s140_6.0.0.dir/__/__/mesh/bearer/src/bearer_handler.c.obj
 .debug_info    0x0000000000083994     0x1af7 CMakeFiles/dfu_no_serial_nrf52840_xxAA_s140_6.0.0.dir/__/__/mesh/bearer/src/broadcast.c.obj
 .debug_info    0x000000000008548b      0xd3e CMakeFiles/dfu_no_serial_nrf52840_xxAA_s140_6.0.0.dir/__/__/mesh/bearer/src/filter_engine.c.obj
 .debug_info    0x00000000000861c9      0xa28 CMakeFiles/dfu_no_serial_nrf52840_xxAA_s140_6.0.0.dir/__/__/mesh/bearer/src/radio_config.c.obj
 .debug_info    0x0000000000086bf1     0x2df8 CMakeFiles/dfu_no_serial_nrf52840_xxAA_s140_6.0.0.dir/__/__/mesh/bearer/src/scanner.c.obj
 .debug_info    0x00000000000899e9     0x137d CMakeFiles/dfu_no_serial_nrf52840_xxAA_s140_6.0.0.dir/home/mazzer/work/nordic/sdk/nRF5_SDK_15.0.0/modules/nrfx/mdk/system_nrf52840.c.obj
 .debug_info    0x000000000008ad66       0x26 CMakeFiles/dfu_no_serial_nrf52840_xxAA_s140_6.0.0.dir/home/mazzer/work/nordic/sdk/nRF5_SDK_15.0.0/modules/nrfx/mdk/gcc_startup_nrf52840.S.obj
 .debug_info    0x000000000008ad8c      0xae7 CMakeFiles/dfu_no_serial_nrf52840_xxAA_s140_6.0.0.dir/home/mazzer/work/nordic/sdk/nRF5_SDK_15.0.0/components/libraries/util/app_error.c.obj
 .debug_info    0x000000000008b873      0x96d CMakeFiles/dfu_no_serial_nrf52840_xxAA_s140_6.0.0.dir/home/mazzer/work/nordic/sdk/nRF5_SDK_15.0.0/components/libraries/util/app_error_handler_gcc.c.obj
 .debug_info    0x000000000008c1e0     0x2b01 ../../external/rtt/librtt_nrf52840_xxAA.a(SEGGER_RTT.c.obj)
 .debug_info    0x000000000008ece1     0x11e1 ../../external/rtt/librtt_nrf52840_xxAA.a(SEGGER_RTT_printf.c.obj)
 .debug_info    0x000000000008fec2     0x9ae1 ../../external/micro-ecc/libuECC_nrf52840_xxAA.a(uECC.c.obj)

.debug_abbrev   0x0000000000000000    0x11463
 .debug_abbrev  0x0000000000000000      0x514 CMakeFiles/dfu_no_serial_nrf52840_xxAA_s140_6.0.0.dir/src/main.c.obj
 .debug_abbrev  0x0000000000000514      0x3b3 CMakeFiles/dfu_no_serial_nrf52840_xxAA_s140_6.0.0.dir/__/__/mesh/stack/src/mesh_stack.c.obj
 .debug_abbrev  0x00000000000008c7      0x408 CMakeFiles/dfu_no_serial_nrf52840_xxAA_s140_6.0.0.dir/__/common/src/mesh_softdevice_init.c.obj
 .debug_abbrev  0x0000000000000ccf      0x393 CMakeFiles/dfu_no_serial_nrf52840_xxAA_s140_6.0.0.dir/__/common/src/mesh_provisionee.c.obj
 .debug_abbrev  0x0000000000001062      0x372 CMakeFiles/dfu_no_serial_nrf52840_xxAA_s140_6.0.0.dir/__/common/src/simple_hal.c.obj
 .debug_abbrev  0x00000000000013d4      0x423 CMakeFiles/dfu_no_serial_nrf52840_xxAA_s140_6.0.0.dir/__/__/mesh/access/src/access_publish.c.obj
 .debug_abbrev  0x00000000000017f7      0x66d CMakeFiles/dfu_no_serial_nrf52840_xxAA_s140_6.0.0.dir/__/__/mesh/access/src/access.c.obj
 .debug_abbrev  0x0000000000001e64      0x448 CMakeFiles/dfu_no_serial_nrf52840_xxAA_s140_6.0.0.dir/__/__/mesh/access/src/access_reliable.c.obj
 .debug_abbrev  0x00000000000022ac      0x5b0 CMakeFiles/dfu_no_serial_nrf52840_xxAA_s140_6.0.0.dir/__/__/mesh/access/src/device_state_manager.c.obj
 .debug_abbrev  0x000000000000285c      0x2e4 CMakeFiles/dfu_no_serial_nrf52840_xxAA_s140_6.0.0.dir/__/__/models/config/src/composition_data.c.obj
 .debug_abbrev  0x0000000000002b40      0x56c CMakeFiles/dfu_no_serial_nrf52840_xxAA_s140_6.0.0.dir/__/__/models/config/src/config_server.c.obj
 .debug_abbrev  0x00000000000030ac       0x95 CMakeFiles/dfu_no_serial_nrf52840_xxAA_s140_6.0.0.dir/__/__/models/config/src/packed_index_list.c.obj
 .debug_abbrev  0x0000000000003141      0x505 CMakeFiles/dfu_no_serial_nrf52840_xxAA_s140_6.0.0.dir/__/__/models/health/src/health_server.c.obj
 .debug_abbrev  0x0000000000003646      0x404 CMakeFiles/dfu_no_serial_nrf52840_xxAA_s140_6.0.0.dir/__/__/mesh/prov/src/prov_provisioner.c.obj
 .debug_abbrev  0x0000000000003a4a      0x47e CMakeFiles/dfu_no_serial_nrf52840_xxAA_s140_6.0.0.dir/__/__/mesh/prov/src/prov_provisionee.c.obj
 .debug_abbrev  0x0000000000003ec8      0x450 CMakeFiles/dfu_no_serial_nrf52840_xxAA_s140_6.0.0.dir/__/__/mesh/prov/src/nrf_mesh_prov.c.obj
 .debug_abbrev  0x0000000000004318      0x2e6 CMakeFiles/dfu_no_serial_nrf52840_xxAA_s140_6.0.0.dir/__/__/mesh/prov/src/provisioning.c.obj
 .debug_abbrev  0x00000000000045fe      0x2fc CMakeFiles/dfu_no_serial_nrf52840_xxAA_s140_6.0.0.dir/__/__/mesh/prov/src/prov_beacon.c.obj
 .debug_abbrev  0x00000000000048fa      0x3f3 CMakeFiles/dfu_no_serial_nrf52840_xxAA_s140_6.0.0.dir/__/__/mesh/prov/src/prov_utils.c.obj
 .debug_abbrev  0x0000000000004ced      0x55d CMakeFiles/dfu_no_serial_nrf52840_xxAA_s140_6.0.0.dir/__/__/mesh/prov/src/prov_bearer_adv.c.obj
 .debug_abbrev  0x000000000000524a      0x577 CMakeFiles/dfu_no_serial_nrf52840_xxAA_s140_6.0.0.dir/__/__/mesh/dfu/src/nrf_mesh_dfu.c.obj
 .debug_abbrev  0x00000000000057c1      0x2d5 CMakeFiles/dfu_no_serial_nrf52840_xxAA_s140_6.0.0.dir/__/common/src/app_error_weak.c.obj
 .debug_abbrev  0x0000000000005a96      0x1f6 CMakeFiles/dfu_no_serial_nrf52840_xxAA_s140_6.0.0.dir/__/common/src/assertion_handler_weak.c.obj
 .debug_abbrev  0x0000000000005c8c      0x254 CMakeFiles/dfu_no_serial_nrf52840_xxAA_s140_6.0.0.dir/__/__/mesh/core/src/nrf_mesh_configure.c.obj
 .debug_abbrev  0x0000000000005ee0      0x266 CMakeFiles/dfu_no_serial_nrf52840_xxAA_s140_6.0.0.dir/__/__/mesh/core/src/aes.c.obj
 .debug_abbrev  0x0000000000006146      0x24e CMakeFiles/dfu_no_serial_nrf52840_xxAA_s140_6.0.0.dir/__/__/mesh/core/src/msg_cache.c.obj
 .debug_abbrev  0x0000000000006394      0x5f7 CMakeFiles/dfu_no_serial_nrf52840_xxAA_s140_6.0.0.dir/__/__/mesh/core/src/transport.c.obj
 .debug_abbrev  0x000000000000698b      0x2d2 CMakeFiles/dfu_no_serial_nrf52840_xxAA_s140_6.0.0.dir/__/__/mesh/core/src/event.c.obj
 .debug_abbrev  0x0000000000006c5d      0x455 CMakeFiles/dfu_no_serial_nrf52840_xxAA_s140_6.0.0.dir/__/__/mesh/core/src/packet_buffer.c.obj
 .debug_abbrev  0x00000000000070b2      0x526 CMakeFiles/dfu_no_serial_nrf52840_xxAA_s140_6.0.0.dir/__/__/mesh/core/src/flash_manager_defrag.c.obj
 .debug_abbrev  0x00000000000075d8      0x2fc CMakeFiles/dfu_no_serial_nrf52840_xxAA_s140_6.0.0.dir/__/__/mesh/core/src/fifo.c.obj
 .debug_abbrev  0x00000000000078d4      0x22d CMakeFiles/dfu_no_serial_nrf52840_xxAA_s140_6.0.0.dir/__/__/mesh/core/src/nrf_flash.c.obj
 .debug_abbrev  0x0000000000007b01      0x3bf CMakeFiles/dfu_no_serial_nrf52840_xxAA_s140_6.0.0.dir/__/__/mesh/core/src/packet_mgr.c.obj
 .debug_abbrev  0x0000000000007ec0      0x5a6 CMakeFiles/dfu_no_serial_nrf52840_xxAA_s140_6.0.0.dir/__/__/mesh/core/src/net_state.c.obj
 .debug_abbrev  0x0000000000008466      0x467 CMakeFiles/dfu_no_serial_nrf52840_xxAA_s140_6.0.0.dir/__/__/mesh/core/src/mesh_flash.c.obj
 .debug_abbrev  0x00000000000088cd      0x244 CMakeFiles/dfu_no_serial_nrf52840_xxAA_s140_6.0.0.dir/__/__/mesh/core/src/nrf_mesh_utils.c.obj
 .debug_abbrev  0x0000000000008b11      0x47a CMakeFiles/dfu_no_serial_nrf52840_xxAA_s140_6.0.0.dir/__/__/mesh/core/src/nrf_mesh.c.obj
 .debug_abbrev  0x0000000000008f8b      0x247 CMakeFiles/dfu_no_serial_nrf52840_xxAA_s140_6.0.0.dir/__/__/mesh/core/src/queue.c.obj
 .debug_abbrev  0x00000000000091d2      0x1d1 CMakeFiles/dfu_no_serial_nrf52840_xxAA_s140_6.0.0.dir/__/__/mesh/core/src/hal.c.obj
 .debug_abbrev  0x00000000000093a3      0x2e3 CMakeFiles/dfu_no_serial_nrf52840_xxAA_s140_6.0.0.dir/__/__/mesh/core/src/aes_cmac.c.obj
 .debug_abbrev  0x0000000000009686      0x3f7 CMakeFiles/dfu_no_serial_nrf52840_xxAA_s140_6.0.0.dir/__/__/mesh/core/src/timer_scheduler.c.obj
 .debug_abbrev  0x0000000000009a7d      0x378 CMakeFiles/dfu_no_serial_nrf52840_xxAA_s140_6.0.0.dir/__/__/mesh/core/src/timer.c.obj
 .debug_abbrev  0x0000000000009df5      0x154 CMakeFiles/dfu_no_serial_nrf52840_xxAA_s140_6.0.0.dir/__/__/mesh/core/src/ticker.c.obj
 .debug_abbrev  0x0000000000009f49      0x22e CMakeFiles/dfu_no_serial_nrf52840_xxAA_s140_6.0.0.dir/__/__/mesh/core/src/rand.c.obj
 .debug_abbrev  0x000000000000a177      0x24c CMakeFiles/dfu_no_serial_nrf52840_xxAA_s140_6.0.0.dir/__/__/mesh/core/src/nrf_mesh_opt.c.obj
 .debug_abbrev  0x000000000000a3c3      0x4e5 CMakeFiles/dfu_no_serial_nrf52840_xxAA_s140_6.0.0.dir/__/__/mesh/core/src/timeslot.c.obj
 .debug_abbrev  0x000000000000a8a8      0x4f9 CMakeFiles/dfu_no_serial_nrf52840_xxAA_s140_6.0.0.dir/__/__/mesh/core/src/bearer_event.c.obj
 .debug_abbrev  0x000000000000ada1      0x39b CMakeFiles/dfu_no_serial_nrf52840_xxAA_s140_6.0.0.dir/__/__/mesh/core/src/enc.c.obj
 .debug_abbrev  0x000000000000b13c      0x4e2 CMakeFiles/dfu_no_serial_nrf52840_xxAA_s140_6.0.0.dir/__/__/mesh/core/src/network.c.obj
 .debug_abbrev  0x000000000000b61e      0x4a1 CMakeFiles/dfu_no_serial_nrf52840_xxAA_s140_6.0.0.dir/__/__/mesh/core/src/net_packet.c.obj
 .debug_abbrev  0x000000000000babf      0x2e9 CMakeFiles/dfu_no_serial_nrf52840_xxAA_s140_6.0.0.dir/__/__/mesh/core/src/msqueue.c.obj
 .debug_abbrev  0x000000000000bda8      0x156 CMakeFiles/dfu_no_serial_nrf52840_xxAA_s140_6.0.0.dir/__/__/mesh/core/src/nrf_mesh_keygen.c.obj
 .debug_abbrev  0x000000000000befe      0x1ec CMakeFiles/dfu_no_serial_nrf52840_xxAA_s140_6.0.0.dir/__/__/mesh/core/src/list.c.obj
 .debug_abbrev  0x000000000000c0ea      0x2b4 CMakeFiles/dfu_no_serial_nrf52840_xxAA_s140_6.0.0.dir/__/__/mesh/core/src/log.c.obj
 .debug_abbrev  0x000000000000c39e      0x538 CMakeFiles/dfu_no_serial_nrf52840_xxAA_s140_6.0.0.dir/__/__/mesh/core/src/flash_manager.c.obj
 .debug_abbrev  0x000000000000c8d6      0x2f5 CMakeFiles/dfu_no_serial_nrf52840_xxAA_s140_6.0.0.dir/__/__/mesh/core/src/ccm_soft.c.obj
 .debug_abbrev  0x000000000000cbcb      0x29b CMakeFiles/dfu_no_serial_nrf52840_xxAA_s140_6.0.0.dir/__/__/mesh/core/src/replay_cache.c.obj
 .debug_abbrev  0x000000000000ce66      0x310 CMakeFiles/dfu_no_serial_nrf52840_xxAA_s140_6.0.0.dir/__/__/mesh/core/src/beacon.c.obj
 .debug_abbrev  0x000000000000d176      0x2a4 CMakeFiles/dfu_no_serial_nrf52840_xxAA_s140_6.0.0.dir/__/__/mesh/core/src/flash_manager_internal.c.obj
 .debug_abbrev  0x000000000000d41a      0x2fc CMakeFiles/dfu_no_serial_nrf52840_xxAA_s140_6.0.0.dir/__/__/mesh/core/src/core_tx.c.obj
 .debug_abbrev  0x000000000000d716      0x4e3 CMakeFiles/dfu_no_serial_nrf52840_xxAA_s140_6.0.0.dir/__/__/mesh/core/src/heartbeat.c.obj
 .debug_abbrev  0x000000000000dbf9      0x512 CMakeFiles/dfu_no_serial_nrf52840_xxAA_s140_6.0.0.dir/__/__/mesh/core/src/net_beacon.c.obj
 .debug_abbrev  0x000000000000e10b      0x330 CMakeFiles/dfu_no_serial_nrf52840_xxAA_s140_6.0.0.dir/__/__/mesh/core/src/core_tx_adv.c.obj
 .debug_abbrev  0x000000000000e43b      0x340 CMakeFiles/dfu_no_serial_nrf52840_xxAA_s140_6.0.0.dir/__/__/mesh/bearer/src/ad_listener.c.obj
 .debug_abbrev  0x000000000000e77b      0x375 CMakeFiles/dfu_no_serial_nrf52840_xxAA_s140_6.0.0.dir/__/__/mesh/bearer/src/ad_type_filter.c.obj
 .debug_abbrev  0x000000000000eaf0      0x56a CMakeFiles/dfu_no_serial_nrf52840_xxAA_s140_6.0.0.dir/__/__/mesh/bearer/src/advertiser.c.obj
 .debug_abbrev  0x000000000000f05a      0x3fa CMakeFiles/dfu_no_serial_nrf52840_xxAA_s140_6.0.0.dir/__/__/mesh/bearer/src/bearer_handler.c.obj
 .debug_abbrev  0x000000000000f454      0x3eb CMakeFiles/dfu_no_serial_nrf52840_xxAA_s140_6.0.0.dir/__/__/mesh/bearer/src/broadcast.c.obj
 .debug_abbrev  0x000000000000f83f      0x2af CMakeFiles/dfu_no_serial_nrf52840_xxAA_s140_6.0.0.dir/__/__/mesh/bearer/src/filter_engine.c.obj
 .debug_abbrev  0x000000000000faee      0x1e4 CMakeFiles/dfu_no_serial_nrf52840_xxAA_s140_6.0.0.dir/__/__/mesh/bearer/src/radio_config.c.obj
 .debug_abbrev  0x000000000000fcd2      0x59f CMakeFiles/dfu_no_serial_nrf52840_xxAA_s140_6.0.0.dir/__/__/mesh/bearer/src/scanner.c.obj
 .debug_abbrev  0x0000000000010271      0x1e8 CMakeFiles/dfu_no_serial_nrf52840_xxAA_s140_6.0.0.dir/home/mazzer/work/nordic/sdk/nRF5_SDK_15.0.0/modules/nrfx/mdk/system_nrf52840.c.obj
 .debug_abbrev  0x0000000000010459       0x14 CMakeFiles/dfu_no_serial_nrf52840_xxAA_s140_6.0.0.dir/home/mazzer/work/nordic/sdk/nRF5_SDK_15.0.0/modules/nrfx/mdk/gcc_startup_nrf52840.S.obj
 .debug_abbrev  0x000000000001046d      0x232 CMakeFiles/dfu_no_serial_nrf52840_xxAA_s140_6.0.0.dir/home/mazzer/work/nordic/sdk/nRF5_SDK_15.0.0/components/libraries/util/app_error.c.obj
 .debug_abbrev  0x000000000001069f      0x1bd CMakeFiles/dfu_no_serial_nrf52840_xxAA_s140_6.0.0.dir/home/mazzer/work/nordic/sdk/nRF5_SDK_15.0.0/components/libraries/util/app_error_handler_gcc.c.obj
 .debug_abbrev  0x000000000001085c      0x3d2 ../../external/rtt/librtt_nrf52840_xxAA.a(SEGGER_RTT.c.obj)
 .debug_abbrev  0x0000000000010c2e      0x353 ../../external/rtt/librtt_nrf52840_xxAA.a(SEGGER_RTT_printf.c.obj)
 .debug_abbrev  0x0000000000010f81      0x4e2 ../../external/micro-ecc/libuECC_nrf52840_xxAA.a(uECC.c.obj)

.debug_loc      0x0000000000000000    0x4a304
 .debug_loc     0x0000000000000000      0x2f8 CMakeFiles/dfu_no_serial_nrf52840_xxAA_s140_6.0.0.dir/src/main.c.obj
 .debug_loc     0x00000000000002f8      0x1a3 CMakeFiles/dfu_no_serial_nrf52840_xxAA_s140_6.0.0.dir/__/__/mesh/stack/src/mesh_stack.c.obj
 .debug_loc     0x000000000000049b      0x1bb CMakeFiles/dfu_no_serial_nrf52840_xxAA_s140_6.0.0.dir/__/common/src/mesh_softdevice_init.c.obj
 .debug_loc     0x0000000000000656      0x16b CMakeFiles/dfu_no_serial_nrf52840_xxAA_s140_6.0.0.dir/__/common/src/mesh_provisionee.c.obj
 .debug_loc     0x00000000000007c1      0x29c CMakeFiles/dfu_no_serial_nrf52840_xxAA_s140_6.0.0.dir/__/common/src/simple_hal.c.obj
 .debug_loc     0x0000000000000a5d      0x939 CMakeFiles/dfu_no_serial_nrf52840_xxAA_s140_6.0.0.dir/__/__/mesh/access/src/access_publish.c.obj
 .debug_loc     0x0000000000001396     0x3963 CMakeFiles/dfu_no_serial_nrf52840_xxAA_s140_6.0.0.dir/__/__/mesh/access/src/access.c.obj
 .debug_loc     0x0000000000004cf9      0xa76 CMakeFiles/dfu_no_serial_nrf52840_xxAA_s140_6.0.0.dir/__/__/mesh/access/src/access_reliable.c.obj
 .debug_loc     0x000000000000576f     0x963e CMakeFiles/dfu_no_serial_nrf52840_xxAA_s140_6.0.0.dir/__/__/mesh/access/src/device_state_manager.c.obj
 .debug_loc     0x000000000000edad      0x33c CMakeFiles/dfu_no_serial_nrf52840_xxAA_s140_6.0.0.dir/__/__/models/config/src/composition_data.c.obj
 .debug_loc     0x000000000000f0e9     0xa41c CMakeFiles/dfu_no_serial_nrf52840_xxAA_s140_6.0.0.dir/__/__/models/config/src/config_server.c.obj
 .debug_loc     0x0000000000019505       0xa8 CMakeFiles/dfu_no_serial_nrf52840_xxAA_s140_6.0.0.dir/__/__/models/config/src/packed_index_list.c.obj
 .debug_loc     0x00000000000195ad     0x3724 CMakeFiles/dfu_no_serial_nrf52840_xxAA_s140_6.0.0.dir/__/__/models/health/src/health_server.c.obj
 .debug_loc     0x000000000001ccd1      0x919 CMakeFiles/dfu_no_serial_nrf52840_xxAA_s140_6.0.0.dir/__/__/mesh/prov/src/prov_provisioner.c.obj
 .debug_loc     0x000000000001d5ea      0xaad CMakeFiles/dfu_no_serial_nrf52840_xxAA_s140_6.0.0.dir/__/__/mesh/prov/src/prov_provisionee.c.obj
 .debug_loc     0x000000000001e097      0xaf3 CMakeFiles/dfu_no_serial_nrf52840_xxAA_s140_6.0.0.dir/__/__/mesh/prov/src/nrf_mesh_prov.c.obj
 .debug_loc     0x000000000001eb8a      0xc0a CMakeFiles/dfu_no_serial_nrf52840_xxAA_s140_6.0.0.dir/__/__/mesh/prov/src/provisioning.c.obj
 .debug_loc     0x000000000001f794      0x255 CMakeFiles/dfu_no_serial_nrf52840_xxAA_s140_6.0.0.dir/__/__/mesh/prov/src/prov_beacon.c.obj
 .debug_loc     0x000000000001f9e9      0x492 CMakeFiles/dfu_no_serial_nrf52840_xxAA_s140_6.0.0.dir/__/__/mesh/prov/src/prov_utils.c.obj
 .debug_loc     0x000000000001fe7b     0x2722 CMakeFiles/dfu_no_serial_nrf52840_xxAA_s140_6.0.0.dir/__/__/mesh/prov/src/prov_bearer_adv.c.obj
 .debug_loc     0x000000000002259d     0x172c CMakeFiles/dfu_no_serial_nrf52840_xxAA_s140_6.0.0.dir/__/__/mesh/dfu/src/nrf_mesh_dfu.c.obj
 .debug_loc     0x0000000000023cc9      0x1c6 CMakeFiles/dfu_no_serial_nrf52840_xxAA_s140_6.0.0.dir/__/common/src/app_error_weak.c.obj
 .debug_loc     0x0000000000023e8f       0x2c CMakeFiles/dfu_no_serial_nrf52840_xxAA_s140_6.0.0.dir/__/common/src/assertion_handler_weak.c.obj
 .debug_loc     0x0000000000023ebb       0x2c CMakeFiles/dfu_no_serial_nrf52840_xxAA_s140_6.0.0.dir/__/__/mesh/core/src/nrf_mesh_configure.c.obj
 .debug_loc     0x0000000000023ee7       0x89 CMakeFiles/dfu_no_serial_nrf52840_xxAA_s140_6.0.0.dir/__/__/mesh/core/src/aes.c.obj
 .debug_loc     0x0000000000023f70       0xab CMakeFiles/dfu_no_serial_nrf52840_xxAA_s140_6.0.0.dir/__/__/mesh/core/src/msg_cache.c.obj
 .debug_loc     0x000000000002401b     0x41e3 CMakeFiles/dfu_no_serial_nrf52840_xxAA_s140_6.0.0.dir/__/__/mesh/core/src/transport.c.obj
 .debug_loc     0x00000000000281fe      0x169 CMakeFiles/dfu_no_serial_nrf52840_xxAA_s140_6.0.0.dir/__/__/mesh/core/src/event.c.obj
 .debug_loc     0x0000000000028367      0xcfb CMakeFiles/dfu_no_serial_nrf52840_xxAA_s140_6.0.0.dir/__/__/mesh/core/src/packet_buffer.c.obj
 .debug_loc     0x0000000000029062      0xbd0 CMakeFiles/dfu_no_serial_nrf52840_xxAA_s140_6.0.0.dir/__/__/mesh/core/src/flash_manager_defrag.c.obj
 .debug_loc     0x0000000000029c32      0x86b CMakeFiles/dfu_no_serial_nrf52840_xxAA_s140_6.0.0.dir/__/__/mesh/core/src/fifo.c.obj
 .debug_loc     0x000000000002a49d      0x194 CMakeFiles/dfu_no_serial_nrf52840_xxAA_s140_6.0.0.dir/__/__/mesh/core/src/nrf_flash.c.obj
 .debug_loc     0x000000000002a631      0x788 CMakeFiles/dfu_no_serial_nrf52840_xxAA_s140_6.0.0.dir/__/__/mesh/core/src/packet_mgr.c.obj
 .debug_loc     0x000000000002adb9      0xfdf CMakeFiles/dfu_no_serial_nrf52840_xxAA_s140_6.0.0.dir/__/__/mesh/core/src/net_state.c.obj
 .debug_loc     0x000000000002bd98      0xfd3 CMakeFiles/dfu_no_serial_nrf52840_xxAA_s140_6.0.0.dir/__/__/mesh/core/src/mesh_flash.c.obj
 .debug_loc     0x000000000002cd6b      0x185 CMakeFiles/dfu_no_serial_nrf52840_xxAA_s140_6.0.0.dir/__/__/mesh/core/src/nrf_mesh_utils.c.obj
 .debug_loc     0x000000000002cef0      0x6be CMakeFiles/dfu_no_serial_nrf52840_xxAA_s140_6.0.0.dir/__/__/mesh/core/src/nrf_mesh.c.obj
 .debug_loc     0x000000000002d5ae      0x186 CMakeFiles/dfu_no_serial_nrf52840_xxAA_s140_6.0.0.dir/__/__/mesh/core/src/queue.c.obj
 .debug_loc     0x000000000002d734       0x63 CMakeFiles/dfu_no_serial_nrf52840_xxAA_s140_6.0.0.dir/__/__/mesh/core/src/hal.c.obj
 .debug_loc     0x000000000002d797      0xb75 CMakeFiles/dfu_no_serial_nrf52840_xxAA_s140_6.0.0.dir/__/__/mesh/core/src/aes_cmac.c.obj
 .debug_loc     0x000000000002e30c      0x5b7 CMakeFiles/dfu_no_serial_nrf52840_xxAA_s140_6.0.0.dir/__/__/mesh/core/src/timer_scheduler.c.obj
 .debug_loc     0x000000000002e8c3      0x608 CMakeFiles/dfu_no_serial_nrf52840_xxAA_s140_6.0.0.dir/__/__/mesh/core/src/timer.c.obj
 .debug_loc     0x000000000002eecb      0x1c5 CMakeFiles/dfu_no_serial_nrf52840_xxAA_s140_6.0.0.dir/__/__/mesh/core/src/rand.c.obj
 .debug_loc     0x000000000002f090      0x194 CMakeFiles/dfu_no_serial_nrf52840_xxAA_s140_6.0.0.dir/__/__/mesh/core/src/nrf_mesh_opt.c.obj
 .debug_loc     0x000000000002f224      0x4f1 CMakeFiles/dfu_no_serial_nrf52840_xxAA_s140_6.0.0.dir/__/__/mesh/core/src/timeslot.c.obj
 .debug_loc     0x000000000002f715      0x86e CMakeFiles/dfu_no_serial_nrf52840_xxAA_s140_6.0.0.dir/__/__/mesh/core/src/bearer_event.c.obj
 .debug_loc     0x000000000002ff83      0xb0d CMakeFiles/dfu_no_serial_nrf52840_xxAA_s140_6.0.0.dir/__/__/mesh/core/src/enc.c.obj
 .debug_loc     0x0000000000030a90      0x864 CMakeFiles/dfu_no_serial_nrf52840_xxAA_s140_6.0.0.dir/__/__/mesh/core/src/network.c.obj
 .debug_loc     0x00000000000312f4      0x978 CMakeFiles/dfu_no_serial_nrf52840_xxAA_s140_6.0.0.dir/__/__/mesh/core/src/net_packet.c.obj
 .debug_loc     0x0000000000031c6c      0x438 CMakeFiles/dfu_no_serial_nrf52840_xxAA_s140_6.0.0.dir/__/__/mesh/core/src/msqueue.c.obj
 .debug_loc     0x00000000000320a4      0x210 CMakeFiles/dfu_no_serial_nrf52840_xxAA_s140_6.0.0.dir/__/__/mesh/core/src/nrf_mesh_keygen.c.obj
 .debug_loc     0x00000000000322b4      0x565 CMakeFiles/dfu_no_serial_nrf52840_xxAA_s140_6.0.0.dir/__/__/mesh/core/src/list.c.obj
 .debug_loc     0x0000000000032819      0x3dd CMakeFiles/dfu_no_serial_nrf52840_xxAA_s140_6.0.0.dir/__/__/mesh/core/src/log.c.obj
 .debug_loc     0x0000000000032bf6     0x21f7 CMakeFiles/dfu_no_serial_nrf52840_xxAA_s140_6.0.0.dir/__/__/mesh/core/src/flash_manager.c.obj
 .debug_loc     0x0000000000034ded      0xb6e CMakeFiles/dfu_no_serial_nrf52840_xxAA_s140_6.0.0.dir/__/__/mesh/core/src/ccm_soft.c.obj
 .debug_loc     0x000000000003595b      0x16c CMakeFiles/dfu_no_serial_nrf52840_xxAA_s140_6.0.0.dir/__/__/mesh/core/src/replay_cache.c.obj
 .debug_loc     0x0000000000035ac7      0x416 CMakeFiles/dfu_no_serial_nrf52840_xxAA_s140_6.0.0.dir/__/__/mesh/core/src/beacon.c.obj
 .debug_loc     0x0000000000035edd      0x12d CMakeFiles/dfu_no_serial_nrf52840_xxAA_s140_6.0.0.dir/__/__/mesh/core/src/flash_manager_internal.c.obj
 .debug_loc     0x000000000003600a      0x4d1 CMakeFiles/dfu_no_serial_nrf52840_xxAA_s140_6.0.0.dir/__/__/mesh/core/src/core_tx.c.obj
 .debug_loc     0x00000000000364db      0x6c5 CMakeFiles/dfu_no_serial_nrf52840_xxAA_s140_6.0.0.dir/__/__/mesh/core/src/heartbeat.c.obj
 .debug_loc     0x0000000000036ba0      0x6e9 CMakeFiles/dfu_no_serial_nrf52840_xxAA_s140_6.0.0.dir/__/__/mesh/core/src/net_beacon.c.obj
 .debug_loc     0x0000000000037289      0x3d3 CMakeFiles/dfu_no_serial_nrf52840_xxAA_s140_6.0.0.dir/__/__/mesh/core/src/core_tx_adv.c.obj
 .debug_loc     0x000000000003765c      0x45f CMakeFiles/dfu_no_serial_nrf52840_xxAA_s140_6.0.0.dir/__/__/mesh/bearer/src/ad_listener.c.obj
 .debug_loc     0x0000000000037abb      0x321 CMakeFiles/dfu_no_serial_nrf52840_xxAA_s140_6.0.0.dir/__/__/mesh/bearer/src/ad_type_filter.c.obj
 .debug_loc     0x0000000000037ddc     0x12af CMakeFiles/dfu_no_serial_nrf52840_xxAA_s140_6.0.0.dir/__/__/mesh/bearer/src/advertiser.c.obj
 .debug_loc     0x000000000003908b      0x394 CMakeFiles/dfu_no_serial_nrf52840_xxAA_s140_6.0.0.dir/__/__/mesh/bearer/src/bearer_handler.c.obj
 .debug_loc     0x000000000003941f      0x30e CMakeFiles/dfu_no_serial_nrf52840_xxAA_s140_6.0.0.dir/__/__/mesh/bearer/src/broadcast.c.obj
 .debug_loc     0x000000000003972d      0x179 CMakeFiles/dfu_no_serial_nrf52840_xxAA_s140_6.0.0.dir/__/__/mesh/bearer/src/filter_engine.c.obj
 .debug_loc     0x00000000000398a6      0x239 CMakeFiles/dfu_no_serial_nrf52840_xxAA_s140_6.0.0.dir/__/__/mesh/bearer/src/radio_config.c.obj
 .debug_loc     0x0000000000039adf      0x899 CMakeFiles/dfu_no_serial_nrf52840_xxAA_s140_6.0.0.dir/__/__/mesh/bearer/src/scanner.c.obj
 .debug_loc     0x000000000003a378       0xca CMakeFiles/dfu_no_serial_nrf52840_xxAA_s140_6.0.0.dir/home/mazzer/work/nordic/sdk/nRF5_SDK_15.0.0/components/libraries/util/app_error.c.obj
 .debug_loc     0x000000000003a442       0x63 CMakeFiles/dfu_no_serial_nrf52840_xxAA_s140_6.0.0.dir/home/mazzer/work/nordic/sdk/nRF5_SDK_15.0.0/components/libraries/util/app_error_handler_gcc.c.obj
 .debug_loc     0x000000000003a4a5     0x3e95 ../../external/rtt/librtt_nrf52840_xxAA.a(SEGGER_RTT.c.obj)
 .debug_loc     0x000000000003e33a      0xec5 ../../external/rtt/librtt_nrf52840_xxAA.a(SEGGER_RTT_printf.c.obj)
 .debug_loc     0x000000000003f1ff     0xb105 ../../external/micro-ecc/libuECC_nrf52840_xxAA.a(uECC.c.obj)

.debug_aranges  0x0000000000000000     0x1ea0
 .debug_aranges
                0x0000000000000000       0x38 CMakeFiles/dfu_no_serial_nrf52840_xxAA_s140_6.0.0.dir/src/main.c.obj
 .debug_aranges
                0x0000000000000038       0x50 CMakeFiles/dfu_no_serial_nrf52840_xxAA_s140_6.0.0.dir/__/__/mesh/stack/src/mesh_stack.c.obj
 .debug_aranges
                0x0000000000000088       0x40 CMakeFiles/dfu_no_serial_nrf52840_xxAA_s140_6.0.0.dir/__/common/src/mesh_softdevice_init.c.obj
 .debug_aranges
                0x00000000000000c8       0x28 CMakeFiles/dfu_no_serial_nrf52840_xxAA_s140_6.0.0.dir/__/common/src/mesh_provisionee.c.obj
 .debug_aranges
                0x00000000000000f0       0x50 CMakeFiles/dfu_no_serial_nrf52840_xxAA_s140_6.0.0.dir/__/common/src/simple_hal.c.obj
 .debug_aranges
                0x0000000000000140       0x40 CMakeFiles/dfu_no_serial_nrf52840_xxAA_s140_6.0.0.dir/__/__/mesh/access/src/access_publish.c.obj
 .debug_aranges
                0x0000000000000180      0x180 CMakeFiles/dfu_no_serial_nrf52840_xxAA_s140_6.0.0.dir/__/__/mesh/access/src/access.c.obj
 .debug_aranges
                0x0000000000000300       0x50 CMakeFiles/dfu_no_serial_nrf52840_xxAA_s140_6.0.0.dir/__/__/mesh/access/src/access_reliable.c.obj
 .debug_aranges
                0x0000000000000350      0x250 CMakeFiles/dfu_no_serial_nrf52840_xxAA_s140_6.0.0.dir/__/__/mesh/access/src/device_state_manager.c.obj
 .debug_aranges
                0x00000000000005a0       0x20 CMakeFiles/dfu_no_serial_nrf52840_xxAA_s140_6.0.0.dir/__/__/models/config/src/composition_data.c.obj
 .debug_aranges
                0x00000000000005c0      0x1b0 CMakeFiles/dfu_no_serial_nrf52840_xxAA_s140_6.0.0.dir/__/__/models/config/src/config_server.c.obj
 .debug_aranges
                0x0000000000000770       0x20 CMakeFiles/dfu_no_serial_nrf52840_xxAA_s140_6.0.0.dir/__/__/models/config/src/packed_index_list.c.obj
 .debug_aranges
                0x0000000000000790       0xa0 CMakeFiles/dfu_no_serial_nrf52840_xxAA_s140_6.0.0.dir/__/__/models/health/src/health_server.c.obj
 .debug_aranges
                0x0000000000000830       0x68 CMakeFiles/dfu_no_serial_nrf52840_xxAA_s140_6.0.0.dir/__/__/mesh/prov/src/prov_provisioner.c.obj
 .debug_aranges
                0x0000000000000898       0x60 CMakeFiles/dfu_no_serial_nrf52840_xxAA_s140_6.0.0.dir/__/__/mesh/prov/src/prov_provisionee.c.obj
 .debug_aranges
                0x00000000000008f8       0x80 CMakeFiles/dfu_no_serial_nrf52840_xxAA_s140_6.0.0.dir/__/__/mesh/prov/src/nrf_mesh_prov.c.obj
 .debug_aranges
                0x0000000000000978       0x78 CMakeFiles/dfu_no_serial_nrf52840_xxAA_s140_6.0.0.dir/__/__/mesh/prov/src/provisioning.c.obj
 .debug_aranges
                0x00000000000009f0       0x38 CMakeFiles/dfu_no_serial_nrf52840_xxAA_s140_6.0.0.dir/__/__/mesh/prov/src/prov_beacon.c.obj
 .debug_aranges
                0x0000000000000a28       0x60 CMakeFiles/dfu_no_serial_nrf52840_xxAA_s140_6.0.0.dir/__/__/mesh/prov/src/prov_utils.c.obj
 .debug_aranges
                0x0000000000000a88       0xa0 CMakeFiles/dfu_no_serial_nrf52840_xxAA_s140_6.0.0.dir/__/__/mesh/prov/src/prov_bearer_adv.c.obj
 .debug_aranges
                0x0000000000000b28       0x98 CMakeFiles/dfu_no_serial_nrf52840_xxAA_s140_6.0.0.dir/__/__/mesh/dfu/src/nrf_mesh_dfu.c.obj
 .debug_aranges
                0x0000000000000bc0       0x20 CMakeFiles/dfu_no_serial_nrf52840_xxAA_s140_6.0.0.dir/__/common/src/app_error_weak.c.obj
 .debug_aranges
                0x0000000000000be0       0x20 CMakeFiles/dfu_no_serial_nrf52840_xxAA_s140_6.0.0.dir/__/common/src/assertion_handler_weak.c.obj
 .debug_aranges
                0x0000000000000c00       0x30 CMakeFiles/dfu_no_serial_nrf52840_xxAA_s140_6.0.0.dir/__/__/mesh/core/src/nrf_mesh_configure.c.obj
 .debug_aranges
                0x0000000000000c30       0x28 CMakeFiles/dfu_no_serial_nrf52840_xxAA_s140_6.0.0.dir/__/__/mesh/core/src/aes.c.obj
 .debug_aranges
                0x0000000000000c58       0x38 CMakeFiles/dfu_no_serial_nrf52840_xxAA_s140_6.0.0.dir/__/__/mesh/core/src/msg_cache.c.obj
 .debug_aranges
                0x0000000000000c90       0xc0 CMakeFiles/dfu_no_serial_nrf52840_xxAA_s140_6.0.0.dir/__/__/mesh/core/src/transport.c.obj
 .debug_aranges
                0x0000000000000d50       0x30 CMakeFiles/dfu_no_serial_nrf52840_xxAA_s140_6.0.0.dir/__/__/mesh/core/src/event.c.obj
 .debug_aranges
                0x0000000000000d80       0x60 CMakeFiles/dfu_no_serial_nrf52840_xxAA_s140_6.0.0.dir/__/__/mesh/core/src/packet_buffer.c.obj
 .debug_aranges
                0x0000000000000de0       0xa0 CMakeFiles/dfu_no_serial_nrf52840_xxAA_s140_6.0.0.dir/__/__/mesh/core/src/flash_manager_defrag.c.obj
 .debug_aranges
                0x0000000000000e80       0x60 CMakeFiles/dfu_no_serial_nrf52840_xxAA_s140_6.0.0.dir/__/__/mesh/core/src/fifo.c.obj
 .debug_aranges
                0x0000000000000ee0       0x28 CMakeFiles/dfu_no_serial_nrf52840_xxAA_s140_6.0.0.dir/__/__/mesh/core/src/nrf_flash.c.obj
 .debug_aranges
                0x0000000000000f08       0x48 CMakeFiles/dfu_no_serial_nrf52840_xxAA_s140_6.0.0.dir/__/__/mesh/core/src/packet_mgr.c.obj
 .debug_aranges
                0x0000000000000f50       0xd0 CMakeFiles/dfu_no_serial_nrf52840_xxAA_s140_6.0.0.dir/__/__/mesh/core/src/net_state.c.obj
 .debug_aranges
                0x0000000000001020       0x58 CMakeFiles/dfu_no_serial_nrf52840_xxAA_s140_6.0.0.dir/__/__/mesh/core/src/mesh_flash.c.obj
 .debug_aranges
                0x0000000000001078       0x30 CMakeFiles/dfu_no_serial_nrf52840_xxAA_s140_6.0.0.dir/__/__/mesh/core/src/nrf_mesh_utils.c.obj
 .debug_aranges
                0x00000000000010a8       0x90 CMakeFiles/dfu_no_serial_nrf52840_xxAA_s140_6.0.0.dir/__/__/mesh/core/src/nrf_mesh.c.obj
 .debug_aranges
                0x0000000000001138       0x38 CMakeFiles/dfu_no_serial_nrf52840_xxAA_s140_6.0.0.dir/__/__/mesh/core/src/queue.c.obj
 .debug_aranges
                0x0000000000001170       0x30 CMakeFiles/dfu_no_serial_nrf52840_xxAA_s140_6.0.0.dir/__/__/mesh/core/src/hal.c.obj
 .debug_aranges
                0x00000000000011a0       0x28 CMakeFiles/dfu_no_serial_nrf52840_xxAA_s140_6.0.0.dir/__/__/mesh/core/src/aes_cmac.c.obj
 .debug_aranges
                0x00000000000011c8       0x50 CMakeFiles/dfu_no_serial_nrf52840_xxAA_s140_6.0.0.dir/__/__/mesh/core/src/timer_scheduler.c.obj
 .debug_aranges
                0x0000000000001218       0x58 CMakeFiles/dfu_no_serial_nrf52840_xxAA_s140_6.0.0.dir/__/__/mesh/core/src/timer.c.obj
 .debug_aranges
                0x0000000000001270       0x30 CMakeFiles/dfu_no_serial_nrf52840_xxAA_s140_6.0.0.dir/__/__/mesh/core/src/ticker.c.obj
 .debug_aranges
                0x00000000000012a0       0x40 CMakeFiles/dfu_no_serial_nrf52840_xxAA_s140_6.0.0.dir/__/__/mesh/core/src/rand.c.obj
 .debug_aranges
                0x00000000000012e0       0x28 CMakeFiles/dfu_no_serial_nrf52840_xxAA_s140_6.0.0.dir/__/__/mesh/core/src/nrf_mesh_opt.c.obj
 .debug_aranges
                0x0000000000001308       0xa8 CMakeFiles/dfu_no_serial_nrf52840_xxAA_s140_6.0.0.dir/__/__/mesh/core/src/timeslot.c.obj
 .debug_aranges
                0x00000000000013b0       0x88 CMakeFiles/dfu_no_serial_nrf52840_xxAA_s140_6.0.0.dir/__/__/mesh/core/src/bearer_event.c.obj
 .debug_aranges
                0x0000000000001438       0x70 CMakeFiles/dfu_no_serial_nrf52840_xxAA_s140_6.0.0.dir/__/__/mesh/core/src/enc.c.obj
 .debug_aranges
                0x00000000000014a8       0x50 CMakeFiles/dfu_no_serial_nrf52840_xxAA_s140_6.0.0.dir/__/__/mesh/core/src/network.c.obj
 .debug_aranges
                0x00000000000014f8       0x58 CMakeFiles/dfu_no_serial_nrf52840_xxAA_s140_6.0.0.dir/__/__/mesh/core/src/net_packet.c.obj
 .debug_aranges
                0x0000000000001550       0x40 CMakeFiles/dfu_no_serial_nrf52840_xxAA_s140_6.0.0.dir/__/__/mesh/core/src/msqueue.c.obj
 .debug_aranges
                0x0000000000001590       0x40 CMakeFiles/dfu_no_serial_nrf52840_xxAA_s140_6.0.0.dir/__/__/mesh/core/src/nrf_mesh_keygen.c.obj
 .debug_aranges
                0x00000000000015d0       0x40 CMakeFiles/dfu_no_serial_nrf52840_xxAA_s140_6.0.0.dir/__/__/mesh/core/src/list.c.obj
 .debug_aranges
                0x0000000000001610       0x48 CMakeFiles/dfu_no_serial_nrf52840_xxAA_s140_6.0.0.dir/__/__/mesh/core/src/log.c.obj
 .debug_aranges
                0x0000000000001658       0xa0 CMakeFiles/dfu_no_serial_nrf52840_xxAA_s140_6.0.0.dir/__/__/mesh/core/src/flash_manager.c.obj
 .debug_aranges
                0x00000000000016f8       0x38 CMakeFiles/dfu_no_serial_nrf52840_xxAA_s140_6.0.0.dir/__/__/mesh/core/src/ccm_soft.c.obj
 .debug_aranges
                0x0000000000001730       0x38 CMakeFiles/dfu_no_serial_nrf52840_xxAA_s140_6.0.0.dir/__/__/mesh/core/src/replay_cache.c.obj
 .debug_aranges
                0x0000000000001768       0x28 CMakeFiles/dfu_no_serial_nrf52840_xxAA_s140_6.0.0.dir/__/__/mesh/core/src/beacon.c.obj
 .debug_aranges
                0x0000000000001790       0x20 CMakeFiles/dfu_no_serial_nrf52840_xxAA_s140_6.0.0.dir/__/__/mesh/core/src/flash_manager_internal.c.obj
 .debug_aranges
                0x00000000000017b0       0x58 CMakeFiles/dfu_no_serial_nrf52840_xxAA_s140_6.0.0.dir/__/__/mesh/core/src/core_tx.c.obj
 .debug_aranges
                0x0000000000001808       0x70 CMakeFiles/dfu_no_serial_nrf52840_xxAA_s140_6.0.0.dir/__/__/mesh/core/src/heartbeat.c.obj
 .debug_aranges
                0x0000000000001878       0x58 CMakeFiles/dfu_no_serial_nrf52840_xxAA_s140_6.0.0.dir/__/__/mesh/core/src/net_beacon.c.obj
 .debug_aranges
                0x00000000000018d0       0x68 CMakeFiles/dfu_no_serial_nrf52840_xxAA_s140_6.0.0.dir/__/__/mesh/core/src/core_tx_adv.c.obj
 .debug_aranges
                0x0000000000001938       0x30 CMakeFiles/dfu_no_serial_nrf52840_xxAA_s140_6.0.0.dir/__/__/mesh/bearer/src/ad_listener.c.obj
 .debug_aranges
                0x0000000000001968       0x58 CMakeFiles/dfu_no_serial_nrf52840_xxAA_s140_6.0.0.dir/__/__/mesh/bearer/src/ad_type_filter.c.obj
 .debug_aranges
                0x00000000000019c0       0xa0 CMakeFiles/dfu_no_serial_nrf52840_xxAA_s140_6.0.0.dir/__/__/mesh/bearer/src/advertiser.c.obj
 .debug_aranges
                0x0000000000001a60       0x70 CMakeFiles/dfu_no_serial_nrf52840_xxAA_s140_6.0.0.dir/__/__/mesh/bearer/src/bearer_handler.c.obj
 .debug_aranges
                0x0000000000001ad0       0x30 CMakeFiles/dfu_no_serial_nrf52840_xxAA_s140_6.0.0.dir/__/__/mesh/bearer/src/broadcast.c.obj
 .debug_aranges
                0x0000000000001b00       0x38 CMakeFiles/dfu_no_serial_nrf52840_xxAA_s140_6.0.0.dir/__/__/mesh/bearer/src/filter_engine.c.obj
 .debug_aranges
                0x0000000000001b38       0x40 CMakeFiles/dfu_no_serial_nrf52840_xxAA_s140_6.0.0.dir/__/__/mesh/bearer/src/radio_config.c.obj
 .debug_aranges
                0x0000000000001b78       0xb8 CMakeFiles/dfu_no_serial_nrf52840_xxAA_s140_6.0.0.dir/__/__/mesh/bearer/src/scanner.c.obj
 .debug_aranges
                0x0000000000001c30       0x28 CMakeFiles/dfu_no_serial_nrf52840_xxAA_s140_6.0.0.dir/home/mazzer/work/nordic/sdk/nRF5_SDK_15.0.0/modules/nrfx/mdk/system_nrf52840.c.obj
 .debug_aranges
                0x0000000000001c58       0x20 CMakeFiles/dfu_no_serial_nrf52840_xxAA_s140_6.0.0.dir/home/mazzer/work/nordic/sdk/nRF5_SDK_15.0.0/modules/nrfx/mdk/gcc_startup_nrf52840.S.obj
 .debug_aranges
                0x0000000000001c78       0x28 CMakeFiles/dfu_no_serial_nrf52840_xxAA_s140_6.0.0.dir/home/mazzer/work/nordic/sdk/nRF5_SDK_15.0.0/components/libraries/util/app_error.c.obj
 .debug_aranges
                0x0000000000001ca0       0x20 CMakeFiles/dfu_no_serial_nrf52840_xxAA_s140_6.0.0.dir/home/mazzer/work/nordic/sdk/nRF5_SDK_15.0.0/components/libraries/util/app_error_handler_gcc.c.obj
 .debug_aranges
                0x0000000000001cc0       0xb0 ../../external/rtt/librtt_nrf52840_xxAA.a(SEGGER_RTT.c.obj)
 .debug_aranges
                0x0000000000001d70       0x30 ../../external/rtt/librtt_nrf52840_xxAA.a(SEGGER_RTT_printf.c.obj)
 .debug_aranges
                0x0000000000001da0      0x100 ../../external/micro-ecc/libuECC_nrf52840_xxAA.a(uECC.c.obj)

.debug_ranges   0x0000000000000000     0xdf70
 .debug_ranges  0x0000000000000000      0x278 CMakeFiles/dfu_no_serial_nrf52840_xxAA_s140_6.0.0.dir/src/main.c.obj
 .debug_ranges  0x0000000000000278       0x88 CMakeFiles/dfu_no_serial_nrf52840_xxAA_s140_6.0.0.dir/__/__/mesh/stack/src/mesh_stack.c.obj
 .debug_ranges  0x0000000000000300       0xe8 CMakeFiles/dfu_no_serial_nrf52840_xxAA_s140_6.0.0.dir/__/common/src/mesh_softdevice_init.c.obj
 .debug_ranges  0x00000000000003e8       0x90 CMakeFiles/dfu_no_serial_nrf52840_xxAA_s140_6.0.0.dir/__/common/src/mesh_provisionee.c.obj
 .debug_ranges  0x0000000000000478       0xc0 CMakeFiles/dfu_no_serial_nrf52840_xxAA_s140_6.0.0.dir/__/common/src/simple_hal.c.obj
 .debug_ranges  0x0000000000000538      0x318 CMakeFiles/dfu_no_serial_nrf52840_xxAA_s140_6.0.0.dir/__/__/mesh/access/src/access_publish.c.obj
 .debug_ranges  0x0000000000000850      0xd30 CMakeFiles/dfu_no_serial_nrf52840_xxAA_s140_6.0.0.dir/__/__/mesh/access/src/access.c.obj
 .debug_ranges  0x0000000000001580      0x258 CMakeFiles/dfu_no_serial_nrf52840_xxAA_s140_6.0.0.dir/__/__/mesh/access/src/access_reliable.c.obj
 .debug_ranges  0x00000000000017d8     0x2018 CMakeFiles/dfu_no_serial_nrf52840_xxAA_s140_6.0.0.dir/__/__/mesh/access/src/device_state_manager.c.obj
 .debug_ranges  0x00000000000037f0       0xa8 CMakeFiles/dfu_no_serial_nrf52840_xxAA_s140_6.0.0.dir/__/__/models/config/src/composition_data.c.obj
 .debug_ranges  0x0000000000003898     0x1618 CMakeFiles/dfu_no_serial_nrf52840_xxAA_s140_6.0.0.dir/__/__/models/config/src/config_server.c.obj
 .debug_ranges  0x0000000000004eb0       0x10 CMakeFiles/dfu_no_serial_nrf52840_xxAA_s140_6.0.0.dir/__/__/models/config/src/packed_index_list.c.obj
 .debug_ranges  0x0000000000004ec0      0x6c8 CMakeFiles/dfu_no_serial_nrf52840_xxAA_s140_6.0.0.dir/__/__/models/health/src/health_server.c.obj
 .debug_ranges  0x0000000000005588      0x108 CMakeFiles/dfu_no_serial_nrf52840_xxAA_s140_6.0.0.dir/__/__/mesh/prov/src/prov_provisioner.c.obj
 .debug_ranges  0x0000000000005690      0x1b0 CMakeFiles/dfu_no_serial_nrf52840_xxAA_s140_6.0.0.dir/__/__/mesh/prov/src/prov_provisionee.c.obj
 .debug_ranges  0x0000000000005840      0x140 CMakeFiles/dfu_no_serial_nrf52840_xxAA_s140_6.0.0.dir/__/__/mesh/prov/src/nrf_mesh_prov.c.obj
 .debug_ranges  0x0000000000005980      0x170 CMakeFiles/dfu_no_serial_nrf52840_xxAA_s140_6.0.0.dir/__/__/mesh/prov/src/provisioning.c.obj
 .debug_ranges  0x0000000000005af0       0x40 CMakeFiles/dfu_no_serial_nrf52840_xxAA_s140_6.0.0.dir/__/__/mesh/prov/src/prov_beacon.c.obj
 .debug_ranges  0x0000000000005b30       0x88 CMakeFiles/dfu_no_serial_nrf52840_xxAA_s140_6.0.0.dir/__/__/mesh/prov/src/prov_utils.c.obj
 .debug_ranges  0x0000000000005bb8      0x9c8 CMakeFiles/dfu_no_serial_nrf52840_xxAA_s140_6.0.0.dir/__/__/mesh/prov/src/prov_bearer_adv.c.obj
 .debug_ranges  0x0000000000006580      0x908 CMakeFiles/dfu_no_serial_nrf52840_xxAA_s140_6.0.0.dir/__/__/mesh/dfu/src/nrf_mesh_dfu.c.obj
 .debug_ranges  0x0000000000006e88       0xc8 CMakeFiles/dfu_no_serial_nrf52840_xxAA_s140_6.0.0.dir/__/common/src/app_error_weak.c.obj
 .debug_ranges  0x0000000000006f50       0x10 CMakeFiles/dfu_no_serial_nrf52840_xxAA_s140_6.0.0.dir/__/common/src/assertion_handler_weak.c.obj
 .debug_ranges  0x0000000000006f60       0x20 CMakeFiles/dfu_no_serial_nrf52840_xxAA_s140_6.0.0.dir/__/__/mesh/core/src/nrf_mesh_configure.c.obj
 .debug_ranges  0x0000000000006f80       0x18 CMakeFiles/dfu_no_serial_nrf52840_xxAA_s140_6.0.0.dir/__/__/mesh/core/src/aes.c.obj
 .debug_ranges  0x0000000000006f98       0x40 CMakeFiles/dfu_no_serial_nrf52840_xxAA_s140_6.0.0.dir/__/__/mesh/core/src/msg_cache.c.obj
 .debug_ranges  0x0000000000006fd8      0xf08 CMakeFiles/dfu_no_serial_nrf52840_xxAA_s140_6.0.0.dir/__/__/mesh/core/src/transport.c.obj
 .debug_ranges  0x0000000000007ee0       0x20 CMakeFiles/dfu_no_serial_nrf52840_xxAA_s140_6.0.0.dir/__/__/mesh/core/src/event.c.obj
 .debug_ranges  0x0000000000007f00      0x118 CMakeFiles/dfu_no_serial_nrf52840_xxAA_s140_6.0.0.dir/__/__/mesh/core/src/packet_buffer.c.obj
 .debug_ranges  0x0000000000008018      0x4c8 CMakeFiles/dfu_no_serial_nrf52840_xxAA_s140_6.0.0.dir/__/__/mesh/core/src/flash_manager_defrag.c.obj
 .debug_ranges  0x00000000000084e0       0xc0 CMakeFiles/dfu_no_serial_nrf52840_xxAA_s140_6.0.0.dir/__/__/mesh/core/src/fifo.c.obj
 .debug_ranges  0x00000000000085a0       0x30 CMakeFiles/dfu_no_serial_nrf52840_xxAA_s140_6.0.0.dir/__/__/mesh/core/src/nrf_flash.c.obj
 .debug_ranges  0x00000000000085d0       0xe8 CMakeFiles/dfu_no_serial_nrf52840_xxAA_s140_6.0.0.dir/__/__/mesh/core/src/packet_mgr.c.obj
 .debug_ranges  0x00000000000086b8      0x868 CMakeFiles/dfu_no_serial_nrf52840_xxAA_s140_6.0.0.dir/__/__/mesh/core/src/net_state.c.obj
 .debug_ranges  0x0000000000008f20      0x300 CMakeFiles/dfu_no_serial_nrf52840_xxAA_s140_6.0.0.dir/__/__/mesh/core/src/mesh_flash.c.obj
 .debug_ranges  0x0000000000009220       0x20 CMakeFiles/dfu_no_serial_nrf52840_xxAA_s140_6.0.0.dir/__/__/mesh/core/src/nrf_mesh_utils.c.obj
 .debug_ranges  0x0000000000009240      0x150 CMakeFiles/dfu_no_serial_nrf52840_xxAA_s140_6.0.0.dir/__/__/mesh/core/src/nrf_mesh.c.obj
 .debug_ranges  0x0000000000009390       0x28 CMakeFiles/dfu_no_serial_nrf52840_xxAA_s140_6.0.0.dir/__/__/mesh/core/src/queue.c.obj
 .debug_ranges  0x00000000000093b8       0x20 CMakeFiles/dfu_no_serial_nrf52840_xxAA_s140_6.0.0.dir/__/__/mesh/core/src/hal.c.obj
 .debug_ranges  0x00000000000093d8      0x150 CMakeFiles/dfu_no_serial_nrf52840_xxAA_s140_6.0.0.dir/__/__/mesh/core/src/aes_cmac.c.obj
 .debug_ranges  0x0000000000009528      0x288 CMakeFiles/dfu_no_serial_nrf52840_xxAA_s140_6.0.0.dir/__/__/mesh/core/src/timer_scheduler.c.obj
 .debug_ranges  0x00000000000097b0      0x178 CMakeFiles/dfu_no_serial_nrf52840_xxAA_s140_6.0.0.dir/__/__/mesh/core/src/timer.c.obj
 .debug_ranges  0x0000000000009928       0x20 CMakeFiles/dfu_no_serial_nrf52840_xxAA_s140_6.0.0.dir/__/__/mesh/core/src/ticker.c.obj
 .debug_ranges  0x0000000000009948       0x48 CMakeFiles/dfu_no_serial_nrf52840_xxAA_s140_6.0.0.dir/__/__/mesh/core/src/rand.c.obj
 .debug_ranges  0x0000000000009990       0x18 CMakeFiles/dfu_no_serial_nrf52840_xxAA_s140_6.0.0.dir/__/__/mesh/core/src/nrf_mesh_opt.c.obj
 .debug_ranges  0x00000000000099a8      0x250 CMakeFiles/dfu_no_serial_nrf52840_xxAA_s140_6.0.0.dir/__/__/mesh/core/src/timeslot.c.obj
 .debug_ranges  0x0000000000009bf8      0x288 CMakeFiles/dfu_no_serial_nrf52840_xxAA_s140_6.0.0.dir/__/__/mesh/core/src/bearer_event.c.obj
 .debug_ranges  0x0000000000009e80      0x1b8 CMakeFiles/dfu_no_serial_nrf52840_xxAA_s140_6.0.0.dir/__/__/mesh/core/src/enc.c.obj
 .debug_ranges  0x000000000000a038      0x1b8 CMakeFiles/dfu_no_serial_nrf52840_xxAA_s140_6.0.0.dir/__/__/mesh/core/src/network.c.obj
 .debug_ranges  0x000000000000a1f0      0x208 CMakeFiles/dfu_no_serial_nrf52840_xxAA_s140_6.0.0.dir/__/__/mesh/core/src/net_packet.c.obj
 .debug_ranges  0x000000000000a3f8       0x78 CMakeFiles/dfu_no_serial_nrf52840_xxAA_s140_6.0.0.dir/__/__/mesh/core/src/msqueue.c.obj
 .debug_ranges  0x000000000000a470       0x30 CMakeFiles/dfu_no_serial_nrf52840_xxAA_s140_6.0.0.dir/__/__/mesh/core/src/nrf_mesh_keygen.c.obj
 .debug_ranges  0x000000000000a4a0       0xf0 CMakeFiles/dfu_no_serial_nrf52840_xxAA_s140_6.0.0.dir/__/__/mesh/core/src/list.c.obj
 .debug_ranges  0x000000000000a590       0x58 CMakeFiles/dfu_no_serial_nrf52840_xxAA_s140_6.0.0.dir/__/__/mesh/core/src/log.c.obj
 .debug_ranges  0x000000000000a5e8      0xc18 CMakeFiles/dfu_no_serial_nrf52840_xxAA_s140_6.0.0.dir/__/__/mesh/core/src/flash_manager.c.obj
 .debug_ranges  0x000000000000b200       0xf8 CMakeFiles/dfu_no_serial_nrf52840_xxAA_s140_6.0.0.dir/__/__/mesh/core/src/ccm_soft.c.obj
 .debug_ranges  0x000000000000b2f8       0x48 CMakeFiles/dfu_no_serial_nrf52840_xxAA_s140_6.0.0.dir/__/__/mesh/core/src/replay_cache.c.obj
 .debug_ranges  0x000000000000b340       0x90 CMakeFiles/dfu_no_serial_nrf52840_xxAA_s140_6.0.0.dir/__/__/mesh/core/src/beacon.c.obj
 .debug_ranges  0x000000000000b3d0       0x30 CMakeFiles/dfu_no_serial_nrf52840_xxAA_s140_6.0.0.dir/__/__/mesh/core/src/flash_manager_internal.c.obj
 .debug_ranges  0x000000000000b400       0xc0 CMakeFiles/dfu_no_serial_nrf52840_xxAA_s140_6.0.0.dir/__/__/mesh/core/src/core_tx.c.obj
 .debug_ranges  0x000000000000b4c0      0x120 CMakeFiles/dfu_no_serial_nrf52840_xxAA_s140_6.0.0.dir/__/__/mesh/core/src/heartbeat.c.obj
 .debug_ranges  0x000000000000b5e0      0x1b8 CMakeFiles/dfu_no_serial_nrf52840_xxAA_s140_6.0.0.dir/__/__/mesh/core/src/net_beacon.c.obj
 .debug_ranges  0x000000000000b798       0x58 CMakeFiles/dfu_no_serial_nrf52840_xxAA_s140_6.0.0.dir/__/__/mesh/core/src/core_tx_adv.c.obj
 .debug_ranges  0x000000000000b7f0      0x118 CMakeFiles/dfu_no_serial_nrf52840_xxAA_s140_6.0.0.dir/__/__/mesh/bearer/src/ad_listener.c.obj
 .debug_ranges  0x000000000000b908       0xc8 CMakeFiles/dfu_no_serial_nrf52840_xxAA_s140_6.0.0.dir/__/__/mesh/bearer/src/ad_type_filter.c.obj
 .debug_ranges  0x000000000000b9d0      0x478 CMakeFiles/dfu_no_serial_nrf52840_xxAA_s140_6.0.0.dir/__/__/mesh/bearer/src/advertiser.c.obj
 .debug_ranges  0x000000000000be48      0x188 CMakeFiles/dfu_no_serial_nrf52840_xxAA_s140_6.0.0.dir/__/__/mesh/bearer/src/bearer_handler.c.obj
 .debug_ranges  0x000000000000bfd0       0xa0 CMakeFiles/dfu_no_serial_nrf52840_xxAA_s140_6.0.0.dir/__/__/mesh/bearer/src/broadcast.c.obj
 .debug_ranges  0x000000000000c070       0x28 CMakeFiles/dfu_no_serial_nrf52840_xxAA_s140_6.0.0.dir/__/__/mesh/bearer/src/filter_engine.c.obj
 .debug_ranges  0x000000000000c098       0x48 CMakeFiles/dfu_no_serial_nrf52840_xxAA_s140_6.0.0.dir/__/__/mesh/bearer/src/radio_config.c.obj
 .debug_ranges  0x000000000000c0e0      0x400 CMakeFiles/dfu_no_serial_nrf52840_xxAA_s140_6.0.0.dir/__/__/mesh/bearer/src/scanner.c.obj
 .debug_ranges  0x000000000000c4e0       0x40 CMakeFiles/dfu_no_serial_nrf52840_xxAA_s140_6.0.0.dir/home/mazzer/work/nordic/sdk/nRF5_SDK_15.0.0/modules/nrfx/mdk/system_nrf52840.c.obj
 .debug_ranges  0x000000000000c520       0x18 CMakeFiles/dfu_no_serial_nrf52840_xxAA_s140_6.0.0.dir/home/mazzer/work/nordic/sdk/nRF5_SDK_15.0.0/components/libraries/util/app_error.c.obj
 .debug_ranges  0x000000000000c538       0x10 CMakeFiles/dfu_no_serial_nrf52840_xxAA_s140_6.0.0.dir/home/mazzer/work/nordic/sdk/nRF5_SDK_15.0.0/components/libraries/util/app_error_handler_gcc.c.obj
 .debug_ranges  0x000000000000c548      0x5d8 ../../external/rtt/librtt_nrf52840_xxAA.a(SEGGER_RTT.c.obj)
 .debug_ranges  0x000000000000cb20      0x1b8 ../../external/rtt/librtt_nrf52840_xxAA.a(SEGGER_RTT_printf.c.obj)
 .debug_ranges  0x000000000000ccd8     0x1298 ../../external/micro-ecc/libuECC_nrf52840_xxAA.a(uECC.c.obj)

.debug_line     0x0000000000000000    0x21684
 .debug_line    0x0000000000000000      0x885 CMakeFiles/dfu_no_serial_nrf52840_xxAA_s140_6.0.0.dir/src/main.c.obj
 .debug_line    0x0000000000000885      0x6ac CMakeFiles/dfu_no_serial_nrf52840_xxAA_s140_6.0.0.dir/__/__/mesh/stack/src/mesh_stack.c.obj
 .debug_line    0x0000000000000f31      0x4a2 CMakeFiles/dfu_no_serial_nrf52840_xxAA_s140_6.0.0.dir/__/common/src/mesh_softdevice_init.c.obj
 .debug_line    0x00000000000013d3      0x702 CMakeFiles/dfu_no_serial_nrf52840_xxAA_s140_6.0.0.dir/__/common/src/mesh_provisionee.c.obj
 .debug_line    0x0000000000001ad5      0x578 CMakeFiles/dfu_no_serial_nrf52840_xxAA_s140_6.0.0.dir/__/common/src/simple_hal.c.obj
 .debug_line    0x000000000000204d      0x5cb CMakeFiles/dfu_no_serial_nrf52840_xxAA_s140_6.0.0.dir/__/__/mesh/access/src/access_publish.c.obj
 .debug_line    0x0000000000002618     0x139c CMakeFiles/dfu_no_serial_nrf52840_xxAA_s140_6.0.0.dir/__/__/mesh/access/src/access.c.obj
 .debug_line    0x00000000000039b4      0x65f CMakeFiles/dfu_no_serial_nrf52840_xxAA_s140_6.0.0.dir/__/__/mesh/access/src/access_reliable.c.obj
 .debug_line    0x0000000000004013     0x27fd CMakeFiles/dfu_no_serial_nrf52840_xxAA_s140_6.0.0.dir/__/__/mesh/access/src/device_state_manager.c.obj
 .debug_line    0x0000000000006810      0x3d5 CMakeFiles/dfu_no_serial_nrf52840_xxAA_s140_6.0.0.dir/__/__/models/config/src/composition_data.c.obj
 .debug_line    0x0000000000006be5     0x218d CMakeFiles/dfu_no_serial_nrf52840_xxAA_s140_6.0.0.dir/__/__/models/config/src/config_server.c.obj
 .debug_line    0x0000000000008d72      0x10a CMakeFiles/dfu_no_serial_nrf52840_xxAA_s140_6.0.0.dir/__/__/models/config/src/packed_index_list.c.obj
 .debug_line    0x0000000000008e7c      0xb59 CMakeFiles/dfu_no_serial_nrf52840_xxAA_s140_6.0.0.dir/__/__/models/health/src/health_server.c.obj
 .debug_line    0x00000000000099d5      0x74c CMakeFiles/dfu_no_serial_nrf52840_xxAA_s140_6.0.0.dir/__/__/mesh/prov/src/prov_provisioner.c.obj
 .debug_line    0x000000000000a121      0x809 CMakeFiles/dfu_no_serial_nrf52840_xxAA_s140_6.0.0.dir/__/__/mesh/prov/src/prov_provisionee.c.obj
 .debug_line    0x000000000000a92a      0x68a CMakeFiles/dfu_no_serial_nrf52840_xxAA_s140_6.0.0.dir/__/__/mesh/prov/src/nrf_mesh_prov.c.obj
 .debug_line    0x000000000000afb4      0x517 CMakeFiles/dfu_no_serial_nrf52840_xxAA_s140_6.0.0.dir/__/__/mesh/prov/src/provisioning.c.obj
 .debug_line    0x000000000000b4cb      0x5c7 CMakeFiles/dfu_no_serial_nrf52840_xxAA_s140_6.0.0.dir/__/__/mesh/prov/src/prov_beacon.c.obj
 .debug_line    0x000000000000ba92      0x597 CMakeFiles/dfu_no_serial_nrf52840_xxAA_s140_6.0.0.dir/__/__/mesh/prov/src/prov_utils.c.obj
 .debug_line    0x000000000000c029      0xf1f CMakeFiles/dfu_no_serial_nrf52840_xxAA_s140_6.0.0.dir/__/__/mesh/prov/src/prov_bearer_adv.c.obj
 .debug_line    0x000000000000cf48     0x1346 CMakeFiles/dfu_no_serial_nrf52840_xxAA_s140_6.0.0.dir/__/__/mesh/dfu/src/nrf_mesh_dfu.c.obj
 .debug_line    0x000000000000e28e      0x4ec CMakeFiles/dfu_no_serial_nrf52840_xxAA_s140_6.0.0.dir/__/common/src/app_error_weak.c.obj
 .debug_line    0x000000000000e77a      0x275 CMakeFiles/dfu_no_serial_nrf52840_xxAA_s140_6.0.0.dir/__/common/src/assertion_handler_weak.c.obj
 .debug_line    0x000000000000e9ef      0x250 CMakeFiles/dfu_no_serial_nrf52840_xxAA_s140_6.0.0.dir/__/__/mesh/core/src/nrf_mesh_configure.c.obj
 .debug_line    0x000000000000ec3f      0x285 CMakeFiles/dfu_no_serial_nrf52840_xxAA_s140_6.0.0.dir/__/__/mesh/core/src/aes.c.obj
 .debug_line    0x000000000000eec4      0x2c2 CMakeFiles/dfu_no_serial_nrf52840_xxAA_s140_6.0.0.dir/__/__/mesh/core/src/msg_cache.c.obj
 .debug_line    0x000000000000f186     0x125e CMakeFiles/dfu_no_serial_nrf52840_xxAA_s140_6.0.0.dir/__/__/mesh/core/src/transport.c.obj
 .debug_line    0x00000000000103e4      0x3e2 CMakeFiles/dfu_no_serial_nrf52840_xxAA_s140_6.0.0.dir/__/__/mesh/core/src/event.c.obj
 .debug_line    0x00000000000107c6      0x560 CMakeFiles/dfu_no_serial_nrf52840_xxAA_s140_6.0.0.dir/__/__/mesh/core/src/packet_buffer.c.obj
 .debug_line    0x0000000000010d26      0x8c0 CMakeFiles/dfu_no_serial_nrf52840_xxAA_s140_6.0.0.dir/__/__/mesh/core/src/flash_manager_defrag.c.obj
 .debug_line    0x00000000000115e6      0x46b CMakeFiles/dfu_no_serial_nrf52840_xxAA_s140_6.0.0.dir/__/__/mesh/core/src/fifo.c.obj
 .debug_line    0x0000000000011a51      0x280 CMakeFiles/dfu_no_serial_nrf52840_xxAA_s140_6.0.0.dir/__/__/mesh/core/src/nrf_flash.c.obj
 .debug_line    0x0000000000011cd1      0x4cf CMakeFiles/dfu_no_serial_nrf52840_xxAA_s140_6.0.0.dir/__/__/mesh/core/src/packet_mgr.c.obj
 .debug_line    0x00000000000121a0      0xae3 CMakeFiles/dfu_no_serial_nrf52840_xxAA_s140_6.0.0.dir/__/__/mesh/core/src/net_state.c.obj
 .debug_line    0x0000000000012c83      0x67d CMakeFiles/dfu_no_serial_nrf52840_xxAA_s140_6.0.0.dir/__/__/mesh/core/src/mesh_flash.c.obj
 .debug_line    0x0000000000013300      0x2fb CMakeFiles/dfu_no_serial_nrf52840_xxAA_s140_6.0.0.dir/__/__/mesh/core/src/nrf_mesh_utils.c.obj
 .debug_line    0x00000000000135fb      0x935 CMakeFiles/dfu_no_serial_nrf52840_xxAA_s140_6.0.0.dir/__/__/mesh/core/src/nrf_mesh.c.obj
 .debug_line    0x0000000000013f30      0x33a CMakeFiles/dfu_no_serial_nrf52840_xxAA_s140_6.0.0.dir/__/__/mesh/core/src/queue.c.obj
 .debug_line    0x000000000001426a      0x24e CMakeFiles/dfu_no_serial_nrf52840_xxAA_s140_6.0.0.dir/__/__/mesh/core/src/hal.c.obj
 .debug_line    0x00000000000144b8      0x468 CMakeFiles/dfu_no_serial_nrf52840_xxAA_s140_6.0.0.dir/__/__/mesh/core/src/aes_cmac.c.obj
 .debug_line    0x0000000000014920      0x506 CMakeFiles/dfu_no_serial_nrf52840_xxAA_s140_6.0.0.dir/__/__/mesh/core/src/timer_scheduler.c.obj
 .debug_line    0x0000000000014e26      0x55d CMakeFiles/dfu_no_serial_nrf52840_xxAA_s140_6.0.0.dir/__/__/mesh/core/src/timer.c.obj
 .debug_line    0x0000000000015383      0x17f CMakeFiles/dfu_no_serial_nrf52840_xxAA_s140_6.0.0.dir/__/__/mesh/core/src/ticker.c.obj
 .debug_line    0x0000000000015502      0x344 CMakeFiles/dfu_no_serial_nrf52840_xxAA_s140_6.0.0.dir/__/__/mesh/core/src/rand.c.obj
 .debug_line    0x0000000000015846      0x339 CMakeFiles/dfu_no_serial_nrf52840_xxAA_s140_6.0.0.dir/__/__/mesh/core/src/nrf_mesh_opt.c.obj
 .debug_line    0x0000000000015b7f      0x714 CMakeFiles/dfu_no_serial_nrf52840_xxAA_s140_6.0.0.dir/__/__/mesh/core/src/timeslot.c.obj
 .debug_line    0x0000000000016293      0x6a1 CMakeFiles/dfu_no_serial_nrf52840_xxAA_s140_6.0.0.dir/__/__/mesh/core/src/bearer_event.c.obj
 .debug_line    0x0000000000016934      0x524 CMakeFiles/dfu_no_serial_nrf52840_xxAA_s140_6.0.0.dir/__/__/mesh/core/src/enc.c.obj
 .debug_line    0x0000000000016e58      0x633 CMakeFiles/dfu_no_serial_nrf52840_xxAA_s140_6.0.0.dir/__/__/mesh/core/src/network.c.obj
 .debug_line    0x000000000001748b      0x625 CMakeFiles/dfu_no_serial_nrf52840_xxAA_s140_6.0.0.dir/__/__/mesh/core/src/net_packet.c.obj
 .debug_line    0x0000000000017ab0      0x38d CMakeFiles/dfu_no_serial_nrf52840_xxAA_s140_6.0.0.dir/__/__/mesh/core/src/msqueue.c.obj
 .debug_line    0x0000000000017e3d      0x2f5 CMakeFiles/dfu_no_serial_nrf52840_xxAA_s140_6.0.0.dir/__/__/mesh/core/src/nrf_mesh_keygen.c.obj
 .debug_line    0x0000000000018132      0x3e9 CMakeFiles/dfu_no_serial_nrf52840_xxAA_s140_6.0.0.dir/__/__/mesh/core/src/list.c.obj
 .debug_line    0x000000000001851b      0x334 CMakeFiles/dfu_no_serial_nrf52840_xxAA_s140_6.0.0.dir/__/__/mesh/core/src/log.c.obj
 .debug_line    0x000000000001884f      0xc3d CMakeFiles/dfu_no_serial_nrf52840_xxAA_s140_6.0.0.dir/__/__/mesh/core/src/flash_manager.c.obj
 .debug_line    0x000000000001948c      0x4ac CMakeFiles/dfu_no_serial_nrf52840_xxAA_s140_6.0.0.dir/__/__/mesh/core/src/ccm_soft.c.obj
 .debug_line    0x0000000000019938      0x1dc CMakeFiles/dfu_no_serial_nrf52840_xxAA_s140_6.0.0.dir/__/__/mesh/core/src/replay_cache.c.obj
 .debug_line    0x0000000000019b14      0x5cb CMakeFiles/dfu_no_serial_nrf52840_xxAA_s140_6.0.0.dir/__/__/mesh/core/src/beacon.c.obj
 .debug_line    0x000000000001a0df      0x31e CMakeFiles/dfu_no_serial_nrf52840_xxAA_s140_6.0.0.dir/__/__/mesh/core/src/flash_manager_internal.c.obj
 .debug_line    0x000000000001a3fd      0x431 CMakeFiles/dfu_no_serial_nrf52840_xxAA_s140_6.0.0.dir/__/__/mesh/core/src/core_tx.c.obj
 .debug_line    0x000000000001a82e      0x6bb CMakeFiles/dfu_no_serial_nrf52840_xxAA_s140_6.0.0.dir/__/__/mesh/core/src/heartbeat.c.obj
 .debug_line    0x000000000001aee9      0x75c CMakeFiles/dfu_no_serial_nrf52840_xxAA_s140_6.0.0.dir/__/__/mesh/core/src/net_beacon.c.obj
 .debug_line    0x000000000001b645      0x5cf CMakeFiles/dfu_no_serial_nrf52840_xxAA_s140_6.0.0.dir/__/__/mesh/core/src/core_tx_adv.c.obj
 .debug_line    0x000000000001bc14      0x43e CMakeFiles/dfu_no_serial_nrf52840_xxAA_s140_6.0.0.dir/__/__/mesh/bearer/src/ad_listener.c.obj
 .debug_line    0x000000000001c052      0x512 CMakeFiles/dfu_no_serial_nrf52840_xxAA_s140_6.0.0.dir/__/__/mesh/bearer/src/ad_type_filter.c.obj
 .debug_line    0x000000000001c564      0x8d3 CMakeFiles/dfu_no_serial_nrf52840_xxAA_s140_6.0.0.dir/__/__/mesh/bearer/src/advertiser.c.obj
 .debug_line    0x000000000001ce37      0x61d CMakeFiles/dfu_no_serial_nrf52840_xxAA_s140_6.0.0.dir/__/__/mesh/bearer/src/bearer_handler.c.obj
 .debug_line    0x000000000001d454      0x435 CMakeFiles/dfu_no_serial_nrf52840_xxAA_s140_6.0.0.dir/__/__/mesh/bearer/src/broadcast.c.obj
 .debug_line    0x000000000001d889      0x453 CMakeFiles/dfu_no_serial_nrf52840_xxAA_s140_6.0.0.dir/__/__/mesh/bearer/src/filter_engine.c.obj
 .debug_line    0x000000000001dcdc      0x34c CMakeFiles/dfu_no_serial_nrf52840_xxAA_s140_6.0.0.dir/__/__/mesh/bearer/src/radio_config.c.obj
 .debug_line    0x000000000001e028      0x8f5 CMakeFiles/dfu_no_serial_nrf52840_xxAA_s140_6.0.0.dir/__/__/mesh/bearer/src/scanner.c.obj
 .debug_line    0x000000000001e91d      0x22d CMakeFiles/dfu_no_serial_nrf52840_xxAA_s140_6.0.0.dir/home/mazzer/work/nordic/sdk/nRF5_SDK_15.0.0/modules/nrfx/mdk/system_nrf52840.c.obj
 .debug_line    0x000000000001eb4a       0xa4 CMakeFiles/dfu_no_serial_nrf52840_xxAA_s140_6.0.0.dir/home/mazzer/work/nordic/sdk/nRF5_SDK_15.0.0/modules/nrfx/mdk/gcc_startup_nrf52840.S.obj
 .debug_line    0x000000000001ebee      0x274 CMakeFiles/dfu_no_serial_nrf52840_xxAA_s140_6.0.0.dir/home/mazzer/work/nordic/sdk/nRF5_SDK_15.0.0/components/libraries/util/app_error.c.obj
 .debug_line    0x000000000001ee62      0x217 CMakeFiles/dfu_no_serial_nrf52840_xxAA_s140_6.0.0.dir/home/mazzer/work/nordic/sdk/nRF5_SDK_15.0.0/components/libraries/util/app_error_handler_gcc.c.obj
 .debug_line    0x000000000001f079      0xaaf ../../external/rtt/librtt_nrf52840_xxAA.a(SEGGER_RTT.c.obj)
 .debug_line    0x000000000001fb28      0x401 ../../external/rtt/librtt_nrf52840_xxAA.a(SEGGER_RTT_printf.c.obj)
 .debug_line    0x000000000001ff29     0x175b ../../external/micro-ecc/libuECC_nrf52840_xxAA.a(uECC.c.obj)

.debug_str      0x0000000000000000    0x153d6
 .debug_str     0x0000000000000000     0x2c4f CMakeFiles/dfu_no_serial_nrf52840_xxAA_s140_6.0.0.dir/src/main.c.obj
                                       0x30e6 (size before relaxing)
 .debug_str     0x0000000000002c4f      0x310 CMakeFiles/dfu_no_serial_nrf52840_xxAA_s140_6.0.0.dir/__/__/mesh/stack/src/mesh_stack.c.obj
                                       0x278e (size before relaxing)
 .debug_str     0x0000000000002f5f      0x34e CMakeFiles/dfu_no_serial_nrf52840_xxAA_s140_6.0.0.dir/__/common/src/mesh_softdevice_init.c.obj
                                       0x12b2 (size before relaxing)
 .debug_str     0x00000000000032ad     0x1856 CMakeFiles/dfu_no_serial_nrf52840_xxAA_s140_6.0.0.dir/__/common/src/mesh_provisionee.c.obj
                                       0x24a1 (size before relaxing)
 .debug_str     0x0000000000004b03      0x23d CMakeFiles/dfu_no_serial_nrf52840_xxAA_s140_6.0.0.dir/__/common/src/simple_hal.c.obj
                                        0xd90 (size before relaxing)
 .debug_str     0x0000000000004d40      0x39c CMakeFiles/dfu_no_serial_nrf52840_xxAA_s140_6.0.0.dir/__/__/mesh/access/src/access_publish.c.obj
                                        0xc2c (size before relaxing)
 .debug_str     0x00000000000050dc     0x1335 CMakeFiles/dfu_no_serial_nrf52840_xxAA_s140_6.0.0.dir/__/__/mesh/access/src/access.c.obj
                                       0x2fd6 (size before relaxing)
 .debug_str     0x0000000000006411      0x24a CMakeFiles/dfu_no_serial_nrf52840_xxAA_s140_6.0.0.dir/__/__/mesh/access/src/access_reliable.c.obj
                                       0x1066 (size before relaxing)
 .debug_str     0x000000000000665b     0x115e CMakeFiles/dfu_no_serial_nrf52840_xxAA_s140_6.0.0.dir/__/__/mesh/access/src/device_state_manager.c.obj
                                       0x30d9 (size before relaxing)
 .debug_str     0x00000000000077b9      0x1cf CMakeFiles/dfu_no_serial_nrf52840_xxAA_s140_6.0.0.dir/__/__/models/config/src/composition_data.c.obj
                                        0x93d (size before relaxing)
 .debug_str     0x0000000000007988     0x244b CMakeFiles/dfu_no_serial_nrf52840_xxAA_s140_6.0.0.dir/__/__/models/config/src/config_server.c.obj
                                       0x5065 (size before relaxing)
 .debug_str     0x0000000000009dd3       0xa0 CMakeFiles/dfu_no_serial_nrf52840_xxAA_s140_6.0.0.dir/__/__/models/config/src/packed_index_list.c.obj
                                        0x2b6 (size before relaxing)
 .debug_str     0x0000000000009e73      0x604 CMakeFiles/dfu_no_serial_nrf52840_xxAA_s140_6.0.0.dir/__/__/models/health/src/health_server.c.obj
                                       0x16ff (size before relaxing)
 .debug_str     0x000000000000a477      0x594 CMakeFiles/dfu_no_serial_nrf52840_xxAA_s140_6.0.0.dir/__/__/mesh/prov/src/prov_provisioner.c.obj
                                       0x1fd4 (size before relaxing)
 .debug_str     0x000000000000aa0b      0x2c4 CMakeFiles/dfu_no_serial_nrf52840_xxAA_s140_6.0.0.dir/__/__/mesh/prov/src/prov_provisionee.c.obj
                                       0x2248 (size before relaxing)
 .debug_str     0x000000000000accf      0x205 CMakeFiles/dfu_no_serial_nrf52840_xxAA_s140_6.0.0.dir/__/__/mesh/prov/src/nrf_mesh_prov.c.obj
                                       0x1e3a (size before relaxing)
 .debug_str     0x000000000000aed4       0xfa CMakeFiles/dfu_no_serial_nrf52840_xxAA_s140_6.0.0.dir/__/__/mesh/prov/src/provisioning.c.obj
                                        0xf8b (size before relaxing)
 .debug_str     0x000000000000afce      0x14a CMakeFiles/dfu_no_serial_nrf52840_xxAA_s140_6.0.0.dir/__/__/mesh/prov/src/prov_beacon.c.obj
                                       0x19bc (size before relaxing)
 .debug_str     0x000000000000b118      0x23e CMakeFiles/dfu_no_serial_nrf52840_xxAA_s140_6.0.0.dir/__/__/mesh/prov/src/prov_utils.c.obj
                                       0x1f89 (size before relaxing)
 .debug_str     0x000000000000b356      0x575 CMakeFiles/dfu_no_serial_nrf52840_xxAA_s140_6.0.0.dir/__/__/mesh/prov/src/prov_bearer_adv.c.obj
                                       0x1c20 (size before relaxing)
 .debug_str     0x000000000000b8cb     0x174e CMakeFiles/dfu_no_serial_nrf52840_xxAA_s140_6.0.0.dir/__/__/mesh/dfu/src/nrf_mesh_dfu.c.obj
                                       0x383c (size before relaxing)
 .debug_str     0x000000000000d019       0xce CMakeFiles/dfu_no_serial_nrf52840_xxAA_s140_6.0.0.dir/__/common/src/app_error_weak.c.obj
                                        0x8bd (size before relaxing)
 .debug_str     0x000000000000d0e7       0x67 CMakeFiles/dfu_no_serial_nrf52840_xxAA_s140_6.0.0.dir/__/common/src/assertion_handler_weak.c.obj
                                        0x6d2 (size before relaxing)
 .debug_str     0x000000000000d14e       0xac CMakeFiles/dfu_no_serial_nrf52840_xxAA_s140_6.0.0.dir/__/__/mesh/core/src/nrf_mesh_configure.c.obj
                                        0x84d (size before relaxing)
 .debug_str     0x000000000000d1fa       0xf8 CMakeFiles/dfu_no_serial_nrf52840_xxAA_s140_6.0.0.dir/__/__/mesh/core/src/aes.c.obj
                                        0xb7a (size before relaxing)
 .debug_str     0x000000000000d2f2       0xf2 CMakeFiles/dfu_no_serial_nrf52840_xxAA_s140_6.0.0.dir/__/__/mesh/core/src/msg_cache.c.obj
                                        0x719 (size before relaxing)
 .debug_str     0x000000000000d3e4     0x11bf CMakeFiles/dfu_no_serial_nrf52840_xxAA_s140_6.0.0.dir/__/__/mesh/core/src/transport.c.obj
                                       0x3177 (size before relaxing)
 .debug_str     0x000000000000e5a3       0xb9 CMakeFiles/dfu_no_serial_nrf52840_xxAA_s140_6.0.0.dir/__/__/mesh/core/src/event.c.obj
                                       0x1713 (size before relaxing)
 .debug_str     0x000000000000e65c      0x33c CMakeFiles/dfu_no_serial_nrf52840_xxAA_s140_6.0.0.dir/__/__/mesh/core/src/packet_buffer.c.obj
                                        0xb7b (size before relaxing)
 .debug_str     0x000000000000e998      0x4d6 CMakeFiles/dfu_no_serial_nrf52840_xxAA_s140_6.0.0.dir/__/__/mesh/core/src/flash_manager_defrag.c.obj
                                       0x11ed (size before relaxing)
 .debug_str     0x000000000000ee6e       0xd5 CMakeFiles/dfu_no_serial_nrf52840_xxAA_s140_6.0.0.dir/__/__/mesh/core/src/fifo.c.obj
                                        0x73b (size before relaxing)
 .debug_str     0x000000000000ef43      0x110 CMakeFiles/dfu_no_serial_nrf52840_xxAA_s140_6.0.0.dir/__/__/mesh/core/src/nrf_flash.c.obj
                                        0x754 (size before relaxing)
 .debug_str     0x000000000000f053      0x2ad CMakeFiles/dfu_no_serial_nrf52840_xxAA_s140_6.0.0.dir/__/__/mesh/core/src/packet_mgr.c.obj
                                        0xa05 (size before relaxing)
 .debug_str     0x000000000000f300      0x406 CMakeFiles/dfu_no_serial_nrf52840_xxAA_s140_6.0.0.dir/__/__/mesh/core/src/net_state.c.obj
                                       0x21b9 (size before relaxing)
 .debug_str     0x000000000000f706      0x38e CMakeFiles/dfu_no_serial_nrf52840_xxAA_s140_6.0.0.dir/__/__/mesh/core/src/mesh_flash.c.obj
                                        0xd3c (size before relaxing)
 .debug_str     0x000000000000fa94       0xc2 CMakeFiles/dfu_no_serial_nrf52840_xxAA_s140_6.0.0.dir/__/__/mesh/core/src/nrf_mesh_utils.c.obj
                                        0x7b1 (size before relaxing)
 .debug_str     0x000000000000fb56      0x4a1 CMakeFiles/dfu_no_serial_nrf52840_xxAA_s140_6.0.0.dir/__/__/mesh/core/src/nrf_mesh.c.obj
                                       0x2197 (size before relaxing)
 .debug_str     0x000000000000fff7       0x92 CMakeFiles/dfu_no_serial_nrf52840_xxAA_s140_6.0.0.dir/__/__/mesh/core/src/queue.c.obj
                                        0x6e3 (size before relaxing)
 .debug_str     0x0000000000010089       0xbd CMakeFiles/dfu_no_serial_nrf52840_xxAA_s140_6.0.0.dir/__/__/mesh/core/src/hal.c.obj
                                        0x80b (size before relaxing)
 .debug_str     0x0000000000010146      0x107 CMakeFiles/dfu_no_serial_nrf52840_xxAA_s140_6.0.0.dir/__/__/mesh/core/src/aes_cmac.c.obj
                                        0x775 (size before relaxing)
 .debug_str     0x000000000001024d      0x174 CMakeFiles/dfu_no_serial_nrf52840_xxAA_s140_6.0.0.dir/__/__/mesh/core/src/timer_scheduler.c.obj
                                        0x994 (size before relaxing)
 .debug_str     0x00000000000103c1      0x259 CMakeFiles/dfu_no_serial_nrf52840_xxAA_s140_6.0.0.dir/__/__/mesh/core/src/timer.c.obj
                                        0x90e (size before relaxing)
 .debug_str     0x000000000001061a       0x73 CMakeFiles/dfu_no_serial_nrf52840_xxAA_s140_6.0.0.dir/__/__/mesh/core/src/ticker.c.obj
                                        0x3b5 (size before relaxing)
 .debug_str     0x000000000001068d       0xbf CMakeFiles/dfu_no_serial_nrf52840_xxAA_s140_6.0.0.dir/__/__/mesh/core/src/rand.c.obj
                                        0x7ce (size before relaxing)
 .debug_str     0x000000000001074c       0x77 CMakeFiles/dfu_no_serial_nrf52840_xxAA_s140_6.0.0.dir/__/__/mesh/core/src/nrf_mesh_opt.c.obj
                                        0x950 (size before relaxing)
 .debug_str     0x00000000000107c3      0x939 CMakeFiles/dfu_no_serial_nrf52840_xxAA_s140_6.0.0.dir/__/__/mesh/core/src/timeslot.c.obj
                                       0x197f (size before relaxing)
 .debug_str     0x00000000000110fc      0x2c9 CMakeFiles/dfu_no_serial_nrf52840_xxAA_s140_6.0.0.dir/__/__/mesh/core/src/bearer_event.c.obj
                                        0xf5e (size before relaxing)
 .debug_str     0x00000000000113c5      0x18a CMakeFiles/dfu_no_serial_nrf52840_xxAA_s140_6.0.0.dir/__/__/mesh/core/src/enc.c.obj
                                        0xa48 (size before relaxing)
 .debug_str     0x000000000001154f      0x330 CMakeFiles/dfu_no_serial_nrf52840_xxAA_s140_6.0.0.dir/__/__/mesh/core/src/network.c.obj
                                       0x1348 (size before relaxing)
 .debug_str     0x000000000001187f      0x329 CMakeFiles/dfu_no_serial_nrf52840_xxAA_s140_6.0.0.dir/__/__/mesh/core/src/net_packet.c.obj
                                        0xee6 (size before relaxing)
 .debug_str     0x0000000000011ba8       0x8a CMakeFiles/dfu_no_serial_nrf52840_xxAA_s140_6.0.0.dir/__/__/mesh/core/src/msqueue.c.obj
                                        0x71f (size before relaxing)
 .debug_str     0x0000000000011c32       0x8e CMakeFiles/dfu_no_serial_nrf52840_xxAA_s140_6.0.0.dir/__/__/mesh/core/src/nrf_mesh_keygen.c.obj
                                        0x3f7 (size before relaxing)
 .debug_str     0x0000000000011cc0       0x9c CMakeFiles/dfu_no_serial_nrf52840_xxAA_s140_6.0.0.dir/__/__/mesh/core/src/list.c.obj
                                        0x31e (size before relaxing)
 .debug_str     0x0000000000011d5c      0x1bb CMakeFiles/dfu_no_serial_nrf52840_xxAA_s140_6.0.0.dir/__/__/mesh/core/src/log.c.obj
                                        0x830 (size before relaxing)
 .debug_str     0x0000000000011f17      0x51b CMakeFiles/dfu_no_serial_nrf52840_xxAA_s140_6.0.0.dir/__/__/mesh/core/src/flash_manager.c.obj
                                       0x15d8 (size before relaxing)
 .debug_str     0x0000000000012432       0xbc CMakeFiles/dfu_no_serial_nrf52840_xxAA_s140_6.0.0.dir/__/__/mesh/core/src/ccm_soft.c.obj
                                        0x7bd (size before relaxing)
 .debug_str     0x00000000000124ee       0xc9 CMakeFiles/dfu_no_serial_nrf52840_xxAA_s140_6.0.0.dir/__/__/mesh/core/src/replay_cache.c.obj
                                        0x6ed (size before relaxing)
 .debug_str     0x00000000000125b7       0xc2 CMakeFiles/dfu_no_serial_nrf52840_xxAA_s140_6.0.0.dir/__/__/mesh/core/src/beacon.c.obj
                                       0x1163 (size before relaxing)
 .debug_str     0x0000000000012679       0x6f CMakeFiles/dfu_no_serial_nrf52840_xxAA_s140_6.0.0.dir/__/__/mesh/core/src/flash_manager_internal.c.obj
                                        0x804 (size before relaxing)
 .debug_str     0x00000000000126e8      0x2f5 CMakeFiles/dfu_no_serial_nrf52840_xxAA_s140_6.0.0.dir/__/__/mesh/core/src/core_tx.c.obj
                                        0xc4f (size before relaxing)
 .debug_str     0x00000000000129dd      0x392 CMakeFiles/dfu_no_serial_nrf52840_xxAA_s140_6.0.0.dir/__/__/mesh/core/src/heartbeat.c.obj
                                       0x22a0 (size before relaxing)
 .debug_str     0x0000000000012d6f      0x1e5 CMakeFiles/dfu_no_serial_nrf52840_xxAA_s140_6.0.0.dir/__/__/mesh/core/src/net_beacon.c.obj
                                       0x2100 (size before relaxing)
 .debug_str     0x0000000000012f54      0x13e CMakeFiles/dfu_no_serial_nrf52840_xxAA_s140_6.0.0.dir/__/__/mesh/core/src/core_tx_adv.c.obj
                                       0x1339 (size before relaxing)
 .debug_str     0x0000000000013092      0x1b0 CMakeFiles/dfu_no_serial_nrf52840_xxAA_s140_6.0.0.dir/__/__/mesh/bearer/src/ad_listener.c.obj
                                        0xc42 (size before relaxing)
 .debug_str     0x0000000000013242      0x186 CMakeFiles/dfu_no_serial_nrf52840_xxAA_s140_6.0.0.dir/__/__/mesh/bearer/src/ad_type_filter.c.obj
                                        0x9ff (size before relaxing)
 .debug_str     0x00000000000133c8      0x30d CMakeFiles/dfu_no_serial_nrf52840_xxAA_s140_6.0.0.dir/__/__/mesh/bearer/src/advertiser.c.obj
                                       0x15c1 (size before relaxing)
 .debug_str     0x00000000000136d5      0x493 CMakeFiles/dfu_no_serial_nrf52840_xxAA_s140_6.0.0.dir/__/__/mesh/bearer/src/bearer_handler.c.obj
                                       0x1150 (size before relaxing)
 .debug_str     0x0000000000013b68      0x1e3 CMakeFiles/dfu_no_serial_nrf52840_xxAA_s140_6.0.0.dir/__/__/mesh/bearer/src/broadcast.c.obj
                                       0x10c2 (size before relaxing)
 .debug_str     0x0000000000013d4b       0xa9 CMakeFiles/dfu_no_serial_nrf52840_xxAA_s140_6.0.0.dir/__/__/mesh/bearer/src/filter_engine.c.obj
                                        0x86c (size before relaxing)
 .debug_str     0x0000000000013df4       0xb0 CMakeFiles/dfu_no_serial_nrf52840_xxAA_s140_6.0.0.dir/__/__/mesh/bearer/src/radio_config.c.obj
                                        0x910 (size before relaxing)
 .debug_str     0x0000000000013ea4      0x494 CMakeFiles/dfu_no_serial_nrf52840_xxAA_s140_6.0.0.dir/__/__/mesh/bearer/src/scanner.c.obj
                                       0x1a99 (size before relaxing)
 .debug_str     0x0000000000014338      0x3cb CMakeFiles/dfu_no_serial_nrf52840_xxAA_s140_6.0.0.dir/home/mazzer/work/nordic/sdk/nRF5_SDK_15.0.0/modules/nrfx/mdk/system_nrf52840.c.obj
                                        0x961 (size before relaxing)
 .debug_str     0x0000000000014703       0x64 CMakeFiles/dfu_no_serial_nrf52840_xxAA_s140_6.0.0.dir/home/mazzer/work/nordic/sdk/nRF5_SDK_15.0.0/modules/nrfx/mdk/gcc_startup_nrf52840.S.obj
                                         0xad (size before relaxing)
 .debug_str     0x0000000000014767       0xac CMakeFiles/dfu_no_serial_nrf52840_xxAA_s140_6.0.0.dir/home/mazzer/work/nordic/sdk/nRF5_SDK_15.0.0/components/libraries/util/app_error.c.obj
                                        0x75d (size before relaxing)
 .debug_str     0x0000000000014813       0x5f CMakeFiles/dfu_no_serial_nrf52840_xxAA_s140_6.0.0.dir/home/mazzer/work/nordic/sdk/nRF5_SDK_15.0.0/components/libraries/util/app_error_handler_gcc.c.obj
                                        0x6c2 (size before relaxing)
 .debug_str     0x0000000000014872      0x351 ../../external/rtt/librtt_nrf52840_xxAA.a(SEGGER_RTT.c.obj)
                                        0x982 (size before relaxing)
 .debug_str     0x0000000000014bc3      0x116 ../../external/rtt/librtt_nrf52840_xxAA.a(SEGGER_RTT_printf.c.obj)
                                        0x7f2 (size before relaxing)
 .debug_str     0x0000000000014cd9      0x6fd ../../external/micro-ecc/libuECC_nrf52840_xxAA.a(uECC.c.obj)
                                        0x8df (size before relaxing)

.debug_frame    0x0000000000000000     0x6e78
 .debug_frame   0x0000000000000000       0xa0 CMakeFiles/dfu_no_serial_nrf52840_xxAA_s140_6.0.0.dir/src/main.c.obj
 .debug_frame   0x00000000000000a0       0xdc CMakeFiles/dfu_no_serial_nrf52840_xxAA_s140_6.0.0.dir/__/__/mesh/stack/src/mesh_stack.c.obj
 .debug_frame   0x000000000000017c       0x88 CMakeFiles/dfu_no_serial_nrf52840_xxAA_s140_6.0.0.dir/__/common/src/mesh_softdevice_init.c.obj
 .debug_frame   0x0000000000000204       0x64 CMakeFiles/dfu_no_serial_nrf52840_xxAA_s140_6.0.0.dir/__/common/src/mesh_provisionee.c.obj
 .debug_frame   0x0000000000000268       0xbc CMakeFiles/dfu_no_serial_nrf52840_xxAA_s140_6.0.0.dir/__/common/src/simple_hal.c.obj
 .debug_frame   0x0000000000000324       0xf4 CMakeFiles/dfu_no_serial_nrf52840_xxAA_s140_6.0.0.dir/__/__/mesh/access/src/access_publish.c.obj
 .debug_frame   0x0000000000000418      0x648 CMakeFiles/dfu_no_serial_nrf52840_xxAA_s140_6.0.0.dir/__/__/mesh/access/src/access.c.obj
 .debug_frame   0x0000000000000a60      0x148 CMakeFiles/dfu_no_serial_nrf52840_xxAA_s140_6.0.0.dir/__/__/mesh/access/src/access_reliable.c.obj
 .debug_frame   0x0000000000000ba8      0xbd4 CMakeFiles/dfu_no_serial_nrf52840_xxAA_s140_6.0.0.dir/__/__/mesh/access/src/device_state_manager.c.obj
 .debug_frame   0x000000000000177c       0x48 CMakeFiles/dfu_no_serial_nrf52840_xxAA_s140_6.0.0.dir/__/__/models/config/src/composition_data.c.obj
 .debug_frame   0x00000000000017c4      0x858 CMakeFiles/dfu_no_serial_nrf52840_xxAA_s140_6.0.0.dir/__/__/models/config/src/config_server.c.obj
 .debug_frame   0x000000000000201c       0x30 CMakeFiles/dfu_no_serial_nrf52840_xxAA_s140_6.0.0.dir/__/__/models/config/src/packed_index_list.c.obj
 .debug_frame   0x000000000000204c      0x27c CMakeFiles/dfu_no_serial_nrf52840_xxAA_s140_6.0.0.dir/__/__/models/health/src/health_server.c.obj
 .debug_frame   0x00000000000022c8      0x1a8 CMakeFiles/dfu_no_serial_nrf52840_xxAA_s140_6.0.0.dir/__/__/mesh/prov/src/prov_provisioner.c.obj
 .debug_frame   0x0000000000002470      0x198 CMakeFiles/dfu_no_serial_nrf52840_xxAA_s140_6.0.0.dir/__/__/mesh/prov/src/prov_provisionee.c.obj
 .debug_frame   0x0000000000002608      0x1c8 CMakeFiles/dfu_no_serial_nrf52840_xxAA_s140_6.0.0.dir/__/__/mesh/prov/src/nrf_mesh_prov.c.obj
 .debug_frame   0x00000000000027d0      0x1a0 CMakeFiles/dfu_no_serial_nrf52840_xxAA_s140_6.0.0.dir/__/__/mesh/prov/src/provisioning.c.obj
 .debug_frame   0x0000000000002970       0x88 CMakeFiles/dfu_no_serial_nrf52840_xxAA_s140_6.0.0.dir/__/__/mesh/prov/src/prov_beacon.c.obj
 .debug_frame   0x00000000000029f8      0x11c CMakeFiles/dfu_no_serial_nrf52840_xxAA_s140_6.0.0.dir/__/__/mesh/prov/src/prov_utils.c.obj
 .debug_frame   0x0000000000002b14      0x2d8 CMakeFiles/dfu_no_serial_nrf52840_xxAA_s140_6.0.0.dir/__/__/mesh/prov/src/prov_bearer_adv.c.obj
 .debug_frame   0x0000000000002dec      0x2f0 CMakeFiles/dfu_no_serial_nrf52840_xxAA_s140_6.0.0.dir/__/__/mesh/dfu/src/nrf_mesh_dfu.c.obj
 .debug_frame   0x00000000000030dc       0x34 CMakeFiles/dfu_no_serial_nrf52840_xxAA_s140_6.0.0.dir/__/common/src/app_error_weak.c.obj
 .debug_frame   0x0000000000003110       0x2c CMakeFiles/dfu_no_serial_nrf52840_xxAA_s140_6.0.0.dir/__/common/src/assertion_handler_weak.c.obj
 .debug_frame   0x000000000000313c       0x4c CMakeFiles/dfu_no_serial_nrf52840_xxAA_s140_6.0.0.dir/__/__/mesh/core/src/nrf_mesh_configure.c.obj
 .debug_frame   0x0000000000003188       0x40 CMakeFiles/dfu_no_serial_nrf52840_xxAA_s140_6.0.0.dir/__/__/mesh/core/src/aes.c.obj
 .debug_frame   0x00000000000031c8       0x7c CMakeFiles/dfu_no_serial_nrf52840_xxAA_s140_6.0.0.dir/__/__/mesh/core/src/msg_cache.c.obj
 .debug_frame   0x0000000000003244      0x3fc CMakeFiles/dfu_no_serial_nrf52840_xxAA_s140_6.0.0.dir/__/__/mesh/core/src/transport.c.obj
 .debug_frame   0x0000000000003640       0x74 CMakeFiles/dfu_no_serial_nrf52840_xxAA_s140_6.0.0.dir/__/__/mesh/core/src/event.c.obj
 .debug_frame   0x00000000000036b4      0x10c CMakeFiles/dfu_no_serial_nrf52840_xxAA_s140_6.0.0.dir/__/__/mesh/core/src/packet_buffer.c.obj
 .debug_frame   0x00000000000037c0      0x268 CMakeFiles/dfu_no_serial_nrf52840_xxAA_s140_6.0.0.dir/__/__/mesh/core/src/flash_manager_defrag.c.obj
 .debug_frame   0x0000000000003a28       0xd8 CMakeFiles/dfu_no_serial_nrf52840_xxAA_s140_6.0.0.dir/__/__/mesh/core/src/fifo.c.obj
 .debug_frame   0x0000000000003b00       0x3c CMakeFiles/dfu_no_serial_nrf52840_xxAA_s140_6.0.0.dir/__/__/mesh/core/src/nrf_flash.c.obj
 .debug_frame   0x0000000000003b3c       0xac CMakeFiles/dfu_no_serial_nrf52840_xxAA_s140_6.0.0.dir/__/__/mesh/core/src/packet_mgr.c.obj
 .debug_frame   0x0000000000003be8      0x31c CMakeFiles/dfu_no_serial_nrf52840_xxAA_s140_6.0.0.dir/__/__/mesh/core/src/net_state.c.obj
 .debug_frame   0x0000000000003f04      0x130 CMakeFiles/dfu_no_serial_nrf52840_xxAA_s140_6.0.0.dir/__/__/mesh/core/src/mesh_flash.c.obj
 .debug_frame   0x0000000000004034       0x60 CMakeFiles/dfu_no_serial_nrf52840_xxAA_s140_6.0.0.dir/__/__/mesh/core/src/nrf_mesh_utils.c.obj
 .debug_frame   0x0000000000004094      0x200 CMakeFiles/dfu_no_serial_nrf52840_xxAA_s140_6.0.0.dir/__/__/mesh/core/src/nrf_mesh.c.obj
 .debug_frame   0x0000000000004294       0x74 CMakeFiles/dfu_no_serial_nrf52840_xxAA_s140_6.0.0.dir/__/__/mesh/core/src/queue.c.obj
 .debug_frame   0x0000000000004308       0x48 CMakeFiles/dfu_no_serial_nrf52840_xxAA_s140_6.0.0.dir/__/__/mesh/core/src/hal.c.obj
 .debug_frame   0x0000000000004350       0x60 CMakeFiles/dfu_no_serial_nrf52840_xxAA_s140_6.0.0.dir/__/__/mesh/core/src/aes_cmac.c.obj
 .debug_frame   0x00000000000043b0       0xe4 CMakeFiles/dfu_no_serial_nrf52840_xxAA_s140_6.0.0.dir/__/__/mesh/core/src/timer_scheduler.c.obj
 .debug_frame   0x0000000000004494      0x158 CMakeFiles/dfu_no_serial_nrf52840_xxAA_s140_6.0.0.dir/__/__/mesh/core/src/timer.c.obj
 .debug_frame   0x00000000000045ec       0x4c CMakeFiles/dfu_no_serial_nrf52840_xxAA_s140_6.0.0.dir/__/__/mesh/core/src/ticker.c.obj
 .debug_frame   0x0000000000004638       0x9c CMakeFiles/dfu_no_serial_nrf52840_xxAA_s140_6.0.0.dir/__/__/mesh/core/src/rand.c.obj
 .debug_frame   0x00000000000046d4       0x30 CMakeFiles/dfu_no_serial_nrf52840_xxAA_s140_6.0.0.dir/__/__/mesh/core/src/nrf_mesh_opt.c.obj
 .debug_frame   0x0000000000004704      0x190 CMakeFiles/dfu_no_serial_nrf52840_xxAA_s140_6.0.0.dir/__/__/mesh/core/src/timeslot.c.obj
 .debug_frame   0x0000000000004894      0x1ac CMakeFiles/dfu_no_serial_nrf52840_xxAA_s140_6.0.0.dir/__/__/mesh/core/src/bearer_event.c.obj
 .debug_frame   0x0000000000004a40      0x158 CMakeFiles/dfu_no_serial_nrf52840_xxAA_s140_6.0.0.dir/__/__/mesh/core/src/enc.c.obj
 .debug_frame   0x0000000000004b98      0x10c CMakeFiles/dfu_no_serial_nrf52840_xxAA_s140_6.0.0.dir/__/__/mesh/core/src/network.c.obj
 .debug_frame   0x0000000000004ca4       0xec CMakeFiles/dfu_no_serial_nrf52840_xxAA_s140_6.0.0.dir/__/__/mesh/core/src/net_packet.c.obj
 .debug_frame   0x0000000000004d90       0x94 CMakeFiles/dfu_no_serial_nrf52840_xxAA_s140_6.0.0.dir/__/__/mesh/core/src/msqueue.c.obj
 .debug_frame   0x0000000000004e24       0xc8 CMakeFiles/dfu_no_serial_nrf52840_xxAA_s140_6.0.0.dir/__/__/mesh/core/src/nrf_mesh_keygen.c.obj
 .debug_frame   0x0000000000004eec       0x98 CMakeFiles/dfu_no_serial_nrf52840_xxAA_s140_6.0.0.dir/__/__/mesh/core/src/list.c.obj
 .debug_frame   0x0000000000004f84       0xc0 CMakeFiles/dfu_no_serial_nrf52840_xxAA_s140_6.0.0.dir/__/__/mesh/core/src/log.c.obj
 .debug_frame   0x0000000000005044      0x258 CMakeFiles/dfu_no_serial_nrf52840_xxAA_s140_6.0.0.dir/__/__/mesh/core/src/flash_manager.c.obj
 .debug_frame   0x000000000000529c       0xcc CMakeFiles/dfu_no_serial_nrf52840_xxAA_s140_6.0.0.dir/__/__/mesh/core/src/ccm_soft.c.obj
 .debug_frame   0x0000000000005368       0xb8 CMakeFiles/dfu_no_serial_nrf52840_xxAA_s140_6.0.0.dir/__/__/mesh/core/src/replay_cache.c.obj
 .debug_frame   0x0000000000005420       0x7c CMakeFiles/dfu_no_serial_nrf52840_xxAA_s140_6.0.0.dir/__/__/mesh/core/src/beacon.c.obj
 .debug_frame   0x000000000000549c       0x34 CMakeFiles/dfu_no_serial_nrf52840_xxAA_s140_6.0.0.dir/__/__/mesh/core/src/flash_manager_internal.c.obj
 .debug_frame   0x00000000000054d0       0xf8 CMakeFiles/dfu_no_serial_nrf52840_xxAA_s140_6.0.0.dir/__/__/mesh/core/src/core_tx.c.obj
 .debug_frame   0x00000000000055c8      0x184 CMakeFiles/dfu_no_serial_nrf52840_xxAA_s140_6.0.0.dir/__/__/mesh/core/src/heartbeat.c.obj
 .debug_frame   0x000000000000574c      0x114 CMakeFiles/dfu_no_serial_nrf52840_xxAA_s140_6.0.0.dir/__/__/mesh/core/src/net_beacon.c.obj
 .debug_frame   0x0000000000005860      0x138 CMakeFiles/dfu_no_serial_nrf52840_xxAA_s140_6.0.0.dir/__/__/mesh/core/src/core_tx_adv.c.obj
 .debug_frame   0x0000000000005998       0x94 CMakeFiles/dfu_no_serial_nrf52840_xxAA_s140_6.0.0.dir/__/__/mesh/bearer/src/ad_listener.c.obj
 .debug_frame   0x0000000000005a2c       0xc0 CMakeFiles/dfu_no_serial_nrf52840_xxAA_s140_6.0.0.dir/__/__/mesh/bearer/src/ad_type_filter.c.obj
 .debug_frame   0x0000000000005aec      0x278 CMakeFiles/dfu_no_serial_nrf52840_xxAA_s140_6.0.0.dir/__/__/mesh/bearer/src/advertiser.c.obj
 .debug_frame   0x0000000000005d64      0x170 CMakeFiles/dfu_no_serial_nrf52840_xxAA_s140_6.0.0.dir/__/__/mesh/bearer/src/bearer_handler.c.obj
 .debug_frame   0x0000000000005ed4       0x74 CMakeFiles/dfu_no_serial_nrf52840_xxAA_s140_6.0.0.dir/__/__/mesh/bearer/src/broadcast.c.obj
 .debug_frame   0x0000000000005f48       0x88 CMakeFiles/dfu_no_serial_nrf52840_xxAA_s140_6.0.0.dir/__/__/mesh/bearer/src/filter_engine.c.obj
 .debug_frame   0x0000000000005fd0       0x98 CMakeFiles/dfu_no_serial_nrf52840_xxAA_s140_6.0.0.dir/__/__/mesh/bearer/src/radio_config.c.obj
 .debug_frame   0x0000000000006068      0x244 CMakeFiles/dfu_no_serial_nrf52840_xxAA_s140_6.0.0.dir/__/__/mesh/bearer/src/scanner.c.obj
 .debug_frame   0x00000000000062ac       0x40 CMakeFiles/dfu_no_serial_nrf52840_xxAA_s140_6.0.0.dir/home/mazzer/work/nordic/sdk/nRF5_SDK_15.0.0/modules/nrfx/mdk/system_nrf52840.c.obj
 .debug_frame   0x00000000000062ec       0x54 CMakeFiles/dfu_no_serial_nrf52840_xxAA_s140_6.0.0.dir/home/mazzer/work/nordic/sdk/nRF5_SDK_15.0.0/components/libraries/util/app_error.c.obj
 .debug_frame   0x0000000000006340       0x20 CMakeFiles/dfu_no_serial_nrf52840_xxAA_s140_6.0.0.dir/home/mazzer/work/nordic/sdk/nRF5_SDK_15.0.0/components/libraries/util/app_error_handler_gcc.c.obj
 .debug_frame   0x0000000000006360      0x2e4 ../../external/rtt/librtt_nrf52840_xxAA.a(SEGGER_RTT.c.obj)
 .debug_frame   0x0000000000006644       0xa0 ../../external/rtt/librtt_nrf52840_xxAA.a(SEGGER_RTT_printf.c.obj)
 .debug_frame   0x00000000000066e4      0x4c8 ../../external/micro-ecc/libuECC_nrf52840_xxAA.a(uECC.c.obj)
 .debug_frame   0x0000000000006bac       0x28 /usr/bin/../lib/gcc/arm-none-eabi/7.2.1/../../../../arm-none-eabi/lib/thumb/v7e-m/fpv4-sp/hard/libg_nano.a(lib_a-exit.o)
 .debug_frame   0x0000000000006bd4       0x2c /usr/bin/../lib/gcc/arm-none-eabi/7.2.1/../../../../arm-none-eabi/lib/thumb/v7e-m/fpv4-sp/hard/libg_nano.a(lib_a-init.o)
 .debug_frame   0x0000000000006c00       0x30 /usr/bin/../lib/gcc/arm-none-eabi/7.2.1/../../../../arm-none-eabi/lib/thumb/v7e-m/fpv4-sp/hard/libg_nano.a(lib_a-malloc.o)
 .debug_frame   0x0000000000006c30       0x2c /usr/bin/../lib/gcc/arm-none-eabi/7.2.1/../../../../arm-none-eabi/lib/thumb/v7e-m/fpv4-sp/hard/libg_nano.a(lib_a-memcmp.o)
 .debug_frame   0x0000000000006c5c       0x28 /usr/bin/../lib/gcc/arm-none-eabi/7.2.1/../../../../arm-none-eabi/lib/thumb/v7e-m/fpv4-sp/hard/libg_nano.a(lib_a-memcpy-stub.o)
 .debug_frame   0x0000000000006c84       0x20 /usr/bin/../lib/gcc/arm-none-eabi/7.2.1/../../../../arm-none-eabi/lib/thumb/v7e-m/fpv4-sp/hard/libg_nano.a(lib_a-memset.o)
 .debug_frame   0x0000000000006ca4       0x38 /usr/bin/../lib/gcc/arm-none-eabi/7.2.1/../../../../arm-none-eabi/lib/thumb/v7e-m/fpv4-sp/hard/libg_nano.a(lib_a-nano-freer.o)
 .debug_frame   0x0000000000006cdc       0x2c /usr/bin/../lib/gcc/arm-none-eabi/7.2.1/../../../../arm-none-eabi/lib/thumb/v7e-m/fpv4-sp/hard/libg_nano.a(lib_a-nano-mallocr.o)
 .debug_frame   0x0000000000006d08       0x2c /usr/bin/../lib/gcc/arm-none-eabi/7.2.1/../../../../arm-none-eabi/lib/thumb/v7e-m/fpv4-sp/hard/libg_nano.a(lib_a-sbrkr.o)
 .debug_frame   0x0000000000006d34       0x20 /usr/bin/../lib/gcc/arm-none-eabi/7.2.1/../../../../arm-none-eabi/lib/thumb/v7e-m/fpv4-sp/hard/libg_nano.a(lib_a-strcpy.o)
 .debug_frame   0x0000000000006d54       0x38 /usr/bin/../lib/gcc/arm-none-eabi/7.2.1/../../../../arm-none-eabi/lib/thumb/v7e-m/fpv4-sp/hard/libg_nano.a(lib_a-strrchr.o)
 .debug_frame   0x0000000000006d8c       0x30 /usr/bin/../lib/gcc/arm-none-eabi/7.2.1/../../../../arm-none-eabi/lib/thumb/v7e-m/fpv4-sp/hard/libg_nano.a(lib_a-mlock.o)
 .debug_frame   0x0000000000006dbc       0x5c /usr/bin/../lib/gcc/arm-none-eabi/7.2.1/../../../../arm-none-eabi/lib/thumb/v7e-m/fpv4-sp/hard/libg_nano.a(lib_a-reent.o)
 .debug_frame   0x0000000000006e18       0x20 /usr/bin/../lib/gcc/arm-none-eabi/7.2.1/../../../../arm-none-eabi/lib/thumb/v7e-m/fpv4-sp/hard/libg_nano.a(lib_a-strchr.o)
 .debug_frame   0x0000000000006e38       0x20 /usr/bin/../lib/gcc/arm-none-eabi/7.2.1/../../../../arm-none-eabi/lib/thumb/v7e-m/fpv4-sp/hard/libnosys.a(sbrk.o)
 .debug_frame   0x0000000000006e58       0x20 /usr/bin/../lib/gcc/arm-none-eabi/7.2.1/../../../../arm-none-eabi/lib/thumb/v7e-m/fpv4-sp/hard/libnosys.a(_exit.o)
