Archive member included to satisfy reference by file (symbol)

../../external/rtt/librtt_nrf52832_xxAA.a(SEGGER_RTT.c.obj)
                              CMakeFiles/dfu_no_serial_nrf52832_xxAA_s132_6.0.0.dir/__/__/mesh/core/src/log.c.obj (SEGGER_RTT_Write)
../../external/rtt/librtt_nrf52832_xxAA.a(SEGGER_RTT_printf.c.obj)
                              CMakeFiles/dfu_no_serial_nrf52832_xxAA_s132_6.0.0.dir/__/__/mesh/core/src/log.c.obj (SEGGER_RTT_vprintf)
../../external/micro-ecc/libuECC_nrf52832_xxAA.a(uECC.c.obj)
                              CMakeFiles/dfu_no_serial_nrf52832_xxAA_s132_6.0.0.dir/__/__/mesh/prov/src/prov_utils.c.obj (uECC_secp256r1)
/usr/bin/../lib/gcc/arm-none-eabi/7.2.1/../../../../arm-none-eabi/lib/thumb/v7e-m/fpv4-sp/hard/libg_nano.a(lib_a-exit.o)
                              /usr/bin/../lib/gcc/arm-none-eabi/7.2.1/../../../../arm-none-eabi/lib/thumb/v7e-m/fpv4-sp/hard/crt0.o (exit)
/usr/bin/../lib/gcc/arm-none-eabi/7.2.1/../../../../arm-none-eabi/lib/thumb/v7e-m/fpv4-sp/hard/libg_nano.a(lib_a-impure.o)
                              /usr/bin/../lib/gcc/arm-none-eabi/7.2.1/../../../../arm-none-eabi/lib/thumb/v7e-m/fpv4-sp/hard/libg_nano.a(lib_a-exit.o) (_global_impure_ptr)
/usr/bin/../lib/gcc/arm-none-eabi/7.2.1/../../../../arm-none-eabi/lib/thumb/v7e-m/fpv4-sp/hard/libg_nano.a(lib_a-init.o)
                              /usr/bin/../lib/gcc/arm-none-eabi/7.2.1/../../../../arm-none-eabi/lib/thumb/v7e-m/fpv4-sp/hard/crt0.o (__libc_init_array)
/usr/bin/../lib/gcc/arm-none-eabi/7.2.1/../../../../arm-none-eabi/lib/thumb/v7e-m/fpv4-sp/hard/libg_nano.a(lib_a-malloc.o)
                              CMakeFiles/dfu_no_serial_nrf52832_xxAA_s132_6.0.0.dir/__/__/mesh/core/src/transport.c.obj (malloc)
/usr/bin/../lib/gcc/arm-none-eabi/7.2.1/../../../../arm-none-eabi/lib/thumb/v7e-m/fpv4-sp/hard/libg_nano.a(lib_a-memcmp.o)
                              CMakeFiles/dfu_no_serial_nrf52832_xxAA_s132_6.0.0.dir/__/__/mesh/access/src/device_state_manager.c.obj (memcmp)
/usr/bin/../lib/gcc/arm-none-eabi/7.2.1/../../../../arm-none-eabi/lib/thumb/v7e-m/fpv4-sp/hard/libg_nano.a(lib_a-memcpy-stub.o)
                              CMakeFiles/dfu_no_serial_nrf52832_xxAA_s132_6.0.0.dir/__/__/mesh/access/src/access.c.obj (memcpy)
/usr/bin/../lib/gcc/arm-none-eabi/7.2.1/../../../../arm-none-eabi/lib/thumb/v7e-m/fpv4-sp/hard/libg_nano.a(lib_a-memset.o)
                              /usr/bin/../lib/gcc/arm-none-eabi/7.2.1/../../../../arm-none-eabi/lib/thumb/v7e-m/fpv4-sp/hard/crt0.o (memset)
/usr/bin/../lib/gcc/arm-none-eabi/7.2.1/../../../../arm-none-eabi/lib/thumb/v7e-m/fpv4-sp/hard/libg_nano.a(lib_a-nano-freer.o)
                              /usr/bin/../lib/gcc/arm-none-eabi/7.2.1/../../../../arm-none-eabi/lib/thumb/v7e-m/fpv4-sp/hard/libg_nano.a(lib_a-malloc.o) (_free_r)
/usr/bin/../lib/gcc/arm-none-eabi/7.2.1/../../../../arm-none-eabi/lib/thumb/v7e-m/fpv4-sp/hard/libg_nano.a(lib_a-nano-mallocr.o)
                              /usr/bin/../lib/gcc/arm-none-eabi/7.2.1/../../../../arm-none-eabi/lib/thumb/v7e-m/fpv4-sp/hard/libg_nano.a(lib_a-malloc.o) (_malloc_r)
/usr/bin/../lib/gcc/arm-none-eabi/7.2.1/../../../../arm-none-eabi/lib/thumb/v7e-m/fpv4-sp/hard/libg_nano.a(lib_a-sbrkr.o)
                              /usr/bin/../lib/gcc/arm-none-eabi/7.2.1/../../../../arm-none-eabi/lib/thumb/v7e-m/fpv4-sp/hard/libg_nano.a(lib_a-nano-mallocr.o) (_sbrk_r)
/usr/bin/../lib/gcc/arm-none-eabi/7.2.1/../../../../arm-none-eabi/lib/thumb/v7e-m/fpv4-sp/hard/libg_nano.a(lib_a-strcpy.o)
                              ../../external/rtt/librtt_nrf52832_xxAA.a(SEGGER_RTT.c.obj) (strcpy)
/usr/bin/../lib/gcc/arm-none-eabi/7.2.1/../../../../arm-none-eabi/lib/thumb/v7e-m/fpv4-sp/hard/libg_nano.a(lib_a-strlen.o)
                              CMakeFiles/dfu_no_serial_nrf52832_xxAA_s132_6.0.0.dir/__/__/mesh/prov/src/prov_beacon.c.obj (strlen)
/usr/bin/../lib/gcc/arm-none-eabi/7.2.1/../../../../arm-none-eabi/lib/thumb/v7e-m/fpv4-sp/hard/libg_nano.a(lib_a-strrchr.o)
                              CMakeFiles/dfu_no_serial_nrf52832_xxAA_s132_6.0.0.dir/src/main.c.obj (strrchr)
/usr/bin/../lib/gcc/arm-none-eabi/7.2.1/../../../../arm-none-eabi/lib/thumb/v7e-m/fpv4-sp/hard/libg_nano.a(lib_a-mlock.o)
                              /usr/bin/../lib/gcc/arm-none-eabi/7.2.1/../../../../arm-none-eabi/lib/thumb/v7e-m/fpv4-sp/hard/libg_nano.a(lib_a-nano-freer.o) (__malloc_lock)
/usr/bin/../lib/gcc/arm-none-eabi/7.2.1/../../../../arm-none-eabi/lib/thumb/v7e-m/fpv4-sp/hard/libg_nano.a(lib_a-reent.o)
                              /usr/bin/../lib/gcc/arm-none-eabi/7.2.1/../../../../arm-none-eabi/lib/thumb/v7e-m/fpv4-sp/hard/libg_nano.a(lib_a-sbrkr.o) (errno)
/usr/bin/../lib/gcc/arm-none-eabi/7.2.1/../../../../arm-none-eabi/lib/thumb/v7e-m/fpv4-sp/hard/libg_nano.a(lib_a-strchr.o)
                              /usr/bin/../lib/gcc/arm-none-eabi/7.2.1/../../../../arm-none-eabi/lib/thumb/v7e-m/fpv4-sp/hard/libg_nano.a(lib_a-strrchr.o) (strchr)
/usr/bin/../lib/gcc/arm-none-eabi/7.2.1/../../../../arm-none-eabi/lib/thumb/v7e-m/fpv4-sp/hard/libnosys.a(sbrk.o)
                              /usr/bin/../lib/gcc/arm-none-eabi/7.2.1/../../../../arm-none-eabi/lib/thumb/v7e-m/fpv4-sp/hard/libg_nano.a(lib_a-sbrkr.o) (_sbrk)
/usr/bin/../lib/gcc/arm-none-eabi/7.2.1/../../../../arm-none-eabi/lib/thumb/v7e-m/fpv4-sp/hard/libnosys.a(_exit.o)
                              /usr/bin/../lib/gcc/arm-none-eabi/7.2.1/../../../../arm-none-eabi/lib/thumb/v7e-m/fpv4-sp/hard/libg_nano.a(lib_a-exit.o) (_exit)

Allocating common symbols
Common symbol       size              file

nrf_nvic_state      0xc               CMakeFiles/dfu_no_serial_nrf52832_xxAA_s132_6.0.0.dir/__/common/src/mesh_softdevice_init.c.obj
m_packet            0x24              CMakeFiles/dfu_no_serial_nrf52832_xxAA_s132_6.0.0.dir/__/__/mesh/core/src/core_tx.c.obj
bank_addr           0x4               CMakeFiles/dfu_no_serial_nrf52832_xxAA_s132_6.0.0.dir/src/main.c.obj
rom_length          0x4               CMakeFiles/dfu_no_serial_nrf52832_xxAA_s132_6.0.0.dir/src/main.c.obj
m_cmd_handler       0x4               CMakeFiles/dfu_no_serial_nrf52832_xxAA_s132_6.0.0.dir/__/__/mesh/dfu/src/nrf_mesh_dfu.c.obj
errno               0x4               /usr/bin/../lib/gcc/arm-none-eabi/7.2.1/../../../../arm-none-eabi/lib/thumb/v7e-m/fpv4-sp/hard/libg_nano.a(lib_a-reent.o)
_SEGGER_RTT         0x78              ../../external/rtt/librtt_nrf52832_xxAA.a(SEGGER_RTT.c.obj)

Discarded input sections

 .text          0x0000000000000000        0x0 /usr/bin/../lib/gcc/arm-none-eabi/7.2.1/thumb/v7e-m/fpv4-sp/hard/crti.o
 .data          0x0000000000000000        0x0 /usr/bin/../lib/gcc/arm-none-eabi/7.2.1/thumb/v7e-m/fpv4-sp/hard/crti.o
 .bss           0x0000000000000000        0x0 /usr/bin/../lib/gcc/arm-none-eabi/7.2.1/thumb/v7e-m/fpv4-sp/hard/crti.o
 .data          0x0000000000000000        0x4 /usr/bin/../lib/gcc/arm-none-eabi/7.2.1/thumb/v7e-m/fpv4-sp/hard/crtbegin.o
 .data          0x0000000000000000        0x0 /usr/bin/../lib/gcc/arm-none-eabi/7.2.1/../../../../arm-none-eabi/lib/thumb/v7e-m/fpv4-sp/hard/crt0.o
 .bss           0x0000000000000000        0x0 /usr/bin/../lib/gcc/arm-none-eabi/7.2.1/../../../../arm-none-eabi/lib/thumb/v7e-m/fpv4-sp/hard/crt0.o
 .ARM.extab     0x0000000000000000        0x0 /usr/bin/../lib/gcc/arm-none-eabi/7.2.1/../../../../arm-none-eabi/lib/thumb/v7e-m/fpv4-sp/hard/crt0.o
 .text          0x0000000000000000        0x0 CMakeFiles/dfu_no_serial_nrf52832_xxAA_s132_6.0.0.dir/src/main.c.obj
 .data          0x0000000000000000        0x0 CMakeFiles/dfu_no_serial_nrf52832_xxAA_s132_6.0.0.dir/src/main.c.obj
 .bss           0x0000000000000000        0x0 CMakeFiles/dfu_no_serial_nrf52832_xxAA_s132_6.0.0.dir/src/main.c.obj
 .text          0x0000000000000000        0x0 CMakeFiles/dfu_no_serial_nrf52832_xxAA_s132_6.0.0.dir/__/__/mesh/stack/src/mesh_stack.c.obj
 .data          0x0000000000000000        0x0 CMakeFiles/dfu_no_serial_nrf52832_xxAA_s132_6.0.0.dir/__/__/mesh/stack/src/mesh_stack.c.obj
 .bss           0x0000000000000000        0x0 CMakeFiles/dfu_no_serial_nrf52832_xxAA_s132_6.0.0.dir/__/__/mesh/stack/src/mesh_stack.c.obj
 .text.mesh_stack_is_device_provisioned
                0x0000000000000000       0x1c CMakeFiles/dfu_no_serial_nrf52832_xxAA_s132_6.0.0.dir/__/__/mesh/stack/src/mesh_stack.c.obj
 .text          0x0000000000000000        0x0 CMakeFiles/dfu_no_serial_nrf52832_xxAA_s132_6.0.0.dir/__/common/src/mesh_softdevice_init.c.obj
 .data          0x0000000000000000        0x0 CMakeFiles/dfu_no_serial_nrf52832_xxAA_s132_6.0.0.dir/__/common/src/mesh_softdevice_init.c.obj
 .bss           0x0000000000000000        0x0 CMakeFiles/dfu_no_serial_nrf52832_xxAA_s132_6.0.0.dir/__/common/src/mesh_softdevice_init.c.obj
 .text          0x0000000000000000        0x0 CMakeFiles/dfu_no_serial_nrf52832_xxAA_s132_6.0.0.dir/__/common/src/mesh_provisionee.c.obj
 .data          0x0000000000000000        0x0 CMakeFiles/dfu_no_serial_nrf52832_xxAA_s132_6.0.0.dir/__/common/src/mesh_provisionee.c.obj
 .bss           0x0000000000000000        0x0 CMakeFiles/dfu_no_serial_nrf52832_xxAA_s132_6.0.0.dir/__/common/src/mesh_provisionee.c.obj
 .text          0x0000000000000000        0x0 CMakeFiles/dfu_no_serial_nrf52832_xxAA_s132_6.0.0.dir/__/common/src/simple_hal.c.obj
 .data          0x0000000000000000        0x0 CMakeFiles/dfu_no_serial_nrf52832_xxAA_s132_6.0.0.dir/__/common/src/simple_hal.c.obj
 .bss           0x0000000000000000        0x0 CMakeFiles/dfu_no_serial_nrf52832_xxAA_s132_6.0.0.dir/__/common/src/simple_hal.c.obj
 .text.hal_led_pin_get
                0x0000000000000000       0x18 CMakeFiles/dfu_no_serial_nrf52832_xxAA_s132_6.0.0.dir/__/common/src/simple_hal.c.obj
 .text.hal_led_pin_set
                0x0000000000000000       0x18 CMakeFiles/dfu_no_serial_nrf52832_xxAA_s132_6.0.0.dir/__/common/src/simple_hal.c.obj
 .text.hal_buttons_init
                0x0000000000000000       0x54 CMakeFiles/dfu_no_serial_nrf52832_xxAA_s132_6.0.0.dir/__/common/src/simple_hal.c.obj
 .text          0x0000000000000000        0x0 CMakeFiles/dfu_no_serial_nrf52832_xxAA_s132_6.0.0.dir/__/__/mesh/access/src/access_publish.c.obj
 .data          0x0000000000000000        0x0 CMakeFiles/dfu_no_serial_nrf52832_xxAA_s132_6.0.0.dir/__/__/mesh/access/src/access_publish.c.obj
 .bss           0x0000000000000000        0x0 CMakeFiles/dfu_no_serial_nrf52832_xxAA_s132_6.0.0.dir/__/__/mesh/access/src/access_publish.c.obj
 .text          0x0000000000000000        0x0 CMakeFiles/dfu_no_serial_nrf52832_xxAA_s132_6.0.0.dir/__/__/mesh/access/src/access.c.obj
 .data          0x0000000000000000        0x0 CMakeFiles/dfu_no_serial_nrf52832_xxAA_s132_6.0.0.dir/__/__/mesh/access/src/access.c.obj
 .bss           0x0000000000000000        0x0 CMakeFiles/dfu_no_serial_nrf52832_xxAA_s132_6.0.0.dir/__/__/mesh/access/src/access.c.obj
 .text.access_model_subscription_list_alloc
                0x0000000000000000       0x60 CMakeFiles/dfu_no_serial_nrf52832_xxAA_s132_6.0.0.dir/__/__/mesh/access/src/access.c.obj
 .text.access_model_subscription_lists_share
                0x0000000000000000       0x60 CMakeFiles/dfu_no_serial_nrf52832_xxAA_s132_6.0.0.dir/__/__/mesh/access/src/access.c.obj
 .text.access_element_location_set
                0x0000000000000000       0x20 CMakeFiles/dfu_no_serial_nrf52832_xxAA_s132_6.0.0.dir/__/__/mesh/access/src/access.c.obj
 .text          0x0000000000000000        0x0 CMakeFiles/dfu_no_serial_nrf52832_xxAA_s132_6.0.0.dir/__/__/mesh/access/src/access_reliable.c.obj
 .data          0x0000000000000000        0x0 CMakeFiles/dfu_no_serial_nrf52832_xxAA_s132_6.0.0.dir/__/__/mesh/access/src/access_reliable.c.obj
 .bss           0x0000000000000000        0x0 CMakeFiles/dfu_no_serial_nrf52832_xxAA_s132_6.0.0.dir/__/__/mesh/access/src/access_reliable.c.obj
 .text.access_model_reliable_publish
                0x0000000000000000      0x1d8 CMakeFiles/dfu_no_serial_nrf52832_xxAA_s132_6.0.0.dir/__/__/mesh/access/src/access_reliable.c.obj
 .text          0x0000000000000000        0x0 CMakeFiles/dfu_no_serial_nrf52832_xxAA_s132_6.0.0.dir/__/__/mesh/access/src/device_state_manager.c.obj
 .data          0x0000000000000000        0x0 CMakeFiles/dfu_no_serial_nrf52832_xxAA_s132_6.0.0.dir/__/__/mesh/access/src/device_state_manager.c.obj
 .bss           0x0000000000000000        0x0 CMakeFiles/dfu_no_serial_nrf52832_xxAA_s132_6.0.0.dir/__/__/mesh/access/src/device_state_manager.c.obj
 .text.dsm_has_unflashed_data
                0x0000000000000000       0x58 CMakeFiles/dfu_no_serial_nrf52832_xxAA_s132_6.0.0.dir/__/__/mesh/access/src/device_state_manager.c.obj
 .text.dsm_address_subscription_count_get
                0x0000000000000000       0x80 CMakeFiles/dfu_no_serial_nrf52832_xxAA_s132_6.0.0.dir/__/__/mesh/access/src/device_state_manager.c.obj
 .text.dsm_address_get_all
                0x0000000000000000      0x258 CMakeFiles/dfu_no_serial_nrf52832_xxAA_s132_6.0.0.dir/__/__/mesh/access/src/device_state_manager.c.obj
 .text.dsm_subnet_handle_to_netkey_index
                0x0000000000000000       0x34 CMakeFiles/dfu_no_serial_nrf52832_xxAA_s132_6.0.0.dir/__/__/mesh/access/src/device_state_manager.c.obj
 .text.dsm_devkey_delete
                0x0000000000000000       0x6c CMakeFiles/dfu_no_serial_nrf52832_xxAA_s132_6.0.0.dir/__/__/mesh/access/src/device_state_manager.c.obj
 .text.dsm_devkey_handle_get
                0x0000000000000000       0x3c CMakeFiles/dfu_no_serial_nrf52832_xxAA_s132_6.0.0.dir/__/__/mesh/access/src/device_state_manager.c.obj
 .text.dsm_beacon_info_get
                0x0000000000000000       0x34 CMakeFiles/dfu_no_serial_nrf52832_xxAA_s132_6.0.0.dir/__/__/mesh/access/src/device_state_manager.c.obj
 .text          0x0000000000000000        0x0 CMakeFiles/dfu_no_serial_nrf52832_xxAA_s132_6.0.0.dir/__/__/models/config/src/composition_data.c.obj
 .data          0x0000000000000000        0x0 CMakeFiles/dfu_no_serial_nrf52832_xxAA_s132_6.0.0.dir/__/__/models/config/src/composition_data.c.obj
 .bss           0x0000000000000000        0x0 CMakeFiles/dfu_no_serial_nrf52832_xxAA_s132_6.0.0.dir/__/__/models/config/src/composition_data.c.obj
 .text          0x0000000000000000        0x0 CMakeFiles/dfu_no_serial_nrf52832_xxAA_s132_6.0.0.dir/__/__/models/config/src/config_server.c.obj
 .data          0x0000000000000000        0x0 CMakeFiles/dfu_no_serial_nrf52832_xxAA_s132_6.0.0.dir/__/__/models/config/src/config_server.c.obj
 .bss           0x0000000000000000        0x0 CMakeFiles/dfu_no_serial_nrf52832_xxAA_s132_6.0.0.dir/__/__/models/config/src/config_server.c.obj
 .text          0x0000000000000000        0x0 CMakeFiles/dfu_no_serial_nrf52832_xxAA_s132_6.0.0.dir/__/__/models/config/src/packed_index_list.c.obj
 .data          0x0000000000000000        0x0 CMakeFiles/dfu_no_serial_nrf52832_xxAA_s132_6.0.0.dir/__/__/models/config/src/packed_index_list.c.obj
 .bss           0x0000000000000000        0x0 CMakeFiles/dfu_no_serial_nrf52832_xxAA_s132_6.0.0.dir/__/__/models/config/src/packed_index_list.c.obj
 .text          0x0000000000000000        0x0 CMakeFiles/dfu_no_serial_nrf52832_xxAA_s132_6.0.0.dir/__/__/models/health/src/health_server.c.obj
 .data          0x0000000000000000        0x0 CMakeFiles/dfu_no_serial_nrf52832_xxAA_s132_6.0.0.dir/__/__/models/health/src/health_server.c.obj
 .bss           0x0000000000000000        0x0 CMakeFiles/dfu_no_serial_nrf52832_xxAA_s132_6.0.0.dir/__/__/models/health/src/health_server.c.obj
 .text.health_server_fault_register
                0x0000000000000000      0x23c CMakeFiles/dfu_no_serial_nrf52832_xxAA_s132_6.0.0.dir/__/__/models/health/src/health_server.c.obj
 .text.health_server_fault_clear
                0x0000000000000000      0x2d8 CMakeFiles/dfu_no_serial_nrf52832_xxAA_s132_6.0.0.dir/__/__/models/health/src/health_server.c.obj
 .text.health_server_fault_is_set
                0x0000000000000000       0x1c CMakeFiles/dfu_no_serial_nrf52832_xxAA_s132_6.0.0.dir/__/__/models/health/src/health_server.c.obj
 .text.health_server_fault_count_get
                0x0000000000000000      0x14c CMakeFiles/dfu_no_serial_nrf52832_xxAA_s132_6.0.0.dir/__/__/models/health/src/health_server.c.obj
 .text.health_server_attention_get
                0x0000000000000000        0x8 CMakeFiles/dfu_no_serial_nrf52832_xxAA_s132_6.0.0.dir/__/__/models/health/src/health_server.c.obj
 .text.health_server_attention_set
                0x0000000000000000       0x90 CMakeFiles/dfu_no_serial_nrf52832_xxAA_s132_6.0.0.dir/__/__/models/health/src/health_server.c.obj
 .text          0x0000000000000000        0x0 CMakeFiles/dfu_no_serial_nrf52832_xxAA_s132_6.0.0.dir/__/__/mesh/prov/src/prov_provisioner.c.obj
 .data          0x0000000000000000        0x0 CMakeFiles/dfu_no_serial_nrf52832_xxAA_s132_6.0.0.dir/__/__/mesh/prov/src/prov_provisioner.c.obj
 .bss           0x0000000000000000        0x0 CMakeFiles/dfu_no_serial_nrf52832_xxAA_s132_6.0.0.dir/__/__/mesh/prov/src/prov_provisioner.c.obj
 .text.prov_provisioner_cb_link_closed
                0x0000000000000000       0x2c CMakeFiles/dfu_no_serial_nrf52832_xxAA_s132_6.0.0.dir/__/__/mesh/prov/src/prov_provisioner.c.obj
 .text.prov_provisioner_cb_link_established
                0x0000000000000000       0x40 CMakeFiles/dfu_no_serial_nrf52832_xxAA_s132_6.0.0.dir/__/__/mesh/prov/src/prov_provisioner.c.obj
 .text.request_authentication
                0x0000000000000000       0xa8 CMakeFiles/dfu_no_serial_nrf52832_xxAA_s132_6.0.0.dir/__/__/mesh/prov/src/prov_provisioner.c.obj
 .text.prov_provisioner_pkt_in
                0x0000000000000000      0x298 CMakeFiles/dfu_no_serial_nrf52832_xxAA_s132_6.0.0.dir/__/__/mesh/prov/src/prov_provisioner.c.obj
 .text.prov_provisioner_cb_ack_received
                0x0000000000000000       0x90 CMakeFiles/dfu_no_serial_nrf52832_xxAA_s132_6.0.0.dir/__/__/mesh/prov/src/prov_provisioner.c.obj
 .text.prov_provisioner_provision
                0x0000000000000000       0x44 CMakeFiles/dfu_no_serial_nrf52832_xxAA_s132_6.0.0.dir/__/__/mesh/prov/src/prov_provisioner.c.obj
 .text.prov_provisioner_oob_use
                0x0000000000000000       0xac CMakeFiles/dfu_no_serial_nrf52832_xxAA_s132_6.0.0.dir/__/__/mesh/prov/src/prov_provisioner.c.obj
 .text.prov_provisioner_shared_secret
                0x0000000000000000       0xb8 CMakeFiles/dfu_no_serial_nrf52832_xxAA_s132_6.0.0.dir/__/__/mesh/prov/src/prov_provisioner.c.obj
 .text.prov_provisioner_oob_pubkey
                0x0000000000000000       0x30 CMakeFiles/dfu_no_serial_nrf52832_xxAA_s132_6.0.0.dir/__/__/mesh/prov/src/prov_provisioner.c.obj
 .rodata.m_prov_callbacks
                0x0000000000000000       0x10 CMakeFiles/dfu_no_serial_nrf52832_xxAA_s132_6.0.0.dir/__/__/mesh/prov/src/prov_provisioner.c.obj
 .text          0x0000000000000000        0x0 CMakeFiles/dfu_no_serial_nrf52832_xxAA_s132_6.0.0.dir/__/__/mesh/prov/src/prov_provisionee.c.obj
 .data          0x0000000000000000        0x0 CMakeFiles/dfu_no_serial_nrf52832_xxAA_s132_6.0.0.dir/__/__/mesh/prov/src/prov_provisionee.c.obj
 .bss           0x0000000000000000        0x0 CMakeFiles/dfu_no_serial_nrf52832_xxAA_s132_6.0.0.dir/__/__/mesh/prov/src/prov_provisionee.c.obj
 .text.prov_provisionee_shared_secret
                0x0000000000000000       0xa0 CMakeFiles/dfu_no_serial_nrf52832_xxAA_s132_6.0.0.dir/__/__/mesh/prov/src/prov_provisionee.c.obj
 .text          0x0000000000000000        0x0 CMakeFiles/dfu_no_serial_nrf52832_xxAA_s132_6.0.0.dir/__/__/mesh/prov/src/nrf_mesh_prov.c.obj
 .data          0x0000000000000000        0x0 CMakeFiles/dfu_no_serial_nrf52832_xxAA_s132_6.0.0.dir/__/__/mesh/prov/src/nrf_mesh_prov.c.obj
 .bss           0x0000000000000000        0x0 CMakeFiles/dfu_no_serial_nrf52832_xxAA_s132_6.0.0.dir/__/__/mesh/prov/src/nrf_mesh_prov.c.obj
 .text.nrf_mesh_prov_listen_stop
                0x0000000000000000       0x30 CMakeFiles/dfu_no_serial_nrf52832_xxAA_s132_6.0.0.dir/__/__/mesh/prov/src/nrf_mesh_prov.c.obj
 .text.nrf_mesh_prov_provision
                0x0000000000000000       0x68 CMakeFiles/dfu_no_serial_nrf52832_xxAA_s132_6.0.0.dir/__/__/mesh/prov/src/nrf_mesh_prov.c.obj
 .text.nrf_mesh_prov_oob_use
                0x0000000000000000       0x18 CMakeFiles/dfu_no_serial_nrf52832_xxAA_s132_6.0.0.dir/__/__/mesh/prov/src/nrf_mesh_prov.c.obj
 .text.nrf_mesh_prov_shared_secret_provide
                0x0000000000000000       0x10 CMakeFiles/dfu_no_serial_nrf52832_xxAA_s132_6.0.0.dir/__/__/mesh/prov/src/nrf_mesh_prov.c.obj
 .text.nrf_mesh_prov_pubkey_provide
                0x0000000000000000       0x10 CMakeFiles/dfu_no_serial_nrf52832_xxAA_s132_6.0.0.dir/__/__/mesh/prov/src/nrf_mesh_prov.c.obj
 .text.nrf_mesh_prov_scan_start
                0x0000000000000000       0x10 CMakeFiles/dfu_no_serial_nrf52832_xxAA_s132_6.0.0.dir/__/__/mesh/prov/src/nrf_mesh_prov.c.obj
 .text.nrf_mesh_prov_scan_stop
                0x0000000000000000        0x4 CMakeFiles/dfu_no_serial_nrf52832_xxAA_s132_6.0.0.dir/__/__/mesh/prov/src/nrf_mesh_prov.c.obj
 .text          0x0000000000000000        0x0 CMakeFiles/dfu_no_serial_nrf52832_xxAA_s132_6.0.0.dir/__/__/mesh/prov/src/provisioning.c.obj
 .data          0x0000000000000000        0x0 CMakeFiles/dfu_no_serial_nrf52832_xxAA_s132_6.0.0.dir/__/__/mesh/prov/src/provisioning.c.obj
 .bss           0x0000000000000000        0x0 CMakeFiles/dfu_no_serial_nrf52832_xxAA_s132_6.0.0.dir/__/__/mesh/prov/src/provisioning.c.obj
 .text.prov_tx_invite
                0x0000000000000000       0x38 CMakeFiles/dfu_no_serial_nrf52832_xxAA_s132_6.0.0.dir/__/__/mesh/prov/src/provisioning.c.obj
 .text.prov_tx_start
                0x0000000000000000       0x38 CMakeFiles/dfu_no_serial_nrf52832_xxAA_s132_6.0.0.dir/__/__/mesh/prov/src/provisioning.c.obj
 .text.prov_tx_data
                0x0000000000000000       0x34 CMakeFiles/dfu_no_serial_nrf52832_xxAA_s132_6.0.0.dir/__/__/mesh/prov/src/provisioning.c.obj
 .text.prov_tx  0x0000000000000000       0x3c CMakeFiles/dfu_no_serial_nrf52832_xxAA_s132_6.0.0.dir/__/__/mesh/prov/src/provisioning.c.obj
 .text          0x0000000000000000        0x0 CMakeFiles/dfu_no_serial_nrf52832_xxAA_s132_6.0.0.dir/__/__/mesh/prov/src/prov_beacon.c.obj
 .data          0x0000000000000000        0x0 CMakeFiles/dfu_no_serial_nrf52832_xxAA_s132_6.0.0.dir/__/__/mesh/prov/src/prov_beacon.c.obj
 .bss           0x0000000000000000        0x0 CMakeFiles/dfu_no_serial_nrf52832_xxAA_s132_6.0.0.dir/__/__/mesh/prov/src/prov_beacon.c.obj
 .text.prov_beacon_scan_start
                0x0000000000000000       0x1c CMakeFiles/dfu_no_serial_nrf52832_xxAA_s132_6.0.0.dir/__/__/mesh/prov/src/prov_beacon.c.obj
 .text.prov_beacon_scan_stop
                0x0000000000000000        0xc CMakeFiles/dfu_no_serial_nrf52832_xxAA_s132_6.0.0.dir/__/__/mesh/prov/src/prov_beacon.c.obj
 .text          0x0000000000000000        0x0 CMakeFiles/dfu_no_serial_nrf52832_xxAA_s132_6.0.0.dir/__/__/mesh/prov/src/prov_utils.c.obj
 .data          0x0000000000000000        0x0 CMakeFiles/dfu_no_serial_nrf52832_xxAA_s132_6.0.0.dir/__/__/mesh/prov/src/prov_utils.c.obj
 .bss           0x0000000000000000        0x0 CMakeFiles/dfu_no_serial_nrf52832_xxAA_s132_6.0.0.dir/__/__/mesh/prov/src/prov_utils.c.obj
 .text          0x0000000000000000        0x0 CMakeFiles/dfu_no_serial_nrf52832_xxAA_s132_6.0.0.dir/__/__/mesh/prov/src/prov_bearer_adv.c.obj
 .data          0x0000000000000000        0x0 CMakeFiles/dfu_no_serial_nrf52832_xxAA_s132_6.0.0.dir/__/__/mesh/prov/src/prov_bearer_adv.c.obj
 .bss           0x0000000000000000        0x0 CMakeFiles/dfu_no_serial_nrf52832_xxAA_s132_6.0.0.dir/__/__/mesh/prov/src/prov_bearer_adv.c.obj
 .text.calculate_3GPP_CRC
                0x0000000000000000       0x28 CMakeFiles/dfu_no_serial_nrf52832_xxAA_s132_6.0.0.dir/__/__/mesh/prov/src/prov_bearer_adv.c.obj
 .text          0x0000000000000000        0x0 CMakeFiles/dfu_no_serial_nrf52832_xxAA_s132_6.0.0.dir/__/__/mesh/dfu/src/nrf_mesh_dfu.c.obj
 .data          0x0000000000000000        0x0 CMakeFiles/dfu_no_serial_nrf52832_xxAA_s132_6.0.0.dir/__/__/mesh/dfu/src/nrf_mesh_dfu.c.obj
 .bss           0x0000000000000000        0x0 CMakeFiles/dfu_no_serial_nrf52832_xxAA_s132_6.0.0.dir/__/__/mesh/dfu/src/nrf_mesh_dfu.c.obj
 .text.nrf_mesh_dfu_jump_to_bootloader
                0x0000000000000000       0x40 CMakeFiles/dfu_no_serial_nrf52832_xxAA_s132_6.0.0.dir/__/__/mesh/dfu/src/nrf_mesh_dfu.c.obj
 .text.nrf_mesh_dfu_abort
                0x0000000000000000       0xcc CMakeFiles/dfu_no_serial_nrf52832_xxAA_s132_6.0.0.dir/__/__/mesh/dfu/src/nrf_mesh_dfu.c.obj
 .text.nrf_mesh_dfu_bank_info_get
                0x0000000000000000       0xc4 CMakeFiles/dfu_no_serial_nrf52832_xxAA_s132_6.0.0.dir/__/__/mesh/dfu/src/nrf_mesh_dfu.c.obj
 .text.nrf_mesh_dfu_state_get
                0x0000000000000000       0x50 CMakeFiles/dfu_no_serial_nrf52832_xxAA_s132_6.0.0.dir/__/__/mesh/dfu/src/nrf_mesh_dfu.c.obj
 .text          0x0000000000000000        0x0 CMakeFiles/dfu_no_serial_nrf52832_xxAA_s132_6.0.0.dir/__/nrf_mesh_weak.c.obj
 .data          0x0000000000000000        0x0 CMakeFiles/dfu_no_serial_nrf52832_xxAA_s132_6.0.0.dir/__/nrf_mesh_weak.c.obj
 .bss           0x0000000000000000        0x0 CMakeFiles/dfu_no_serial_nrf52832_xxAA_s132_6.0.0.dir/__/nrf_mesh_weak.c.obj
 .text._weak_handler
                0x0000000000000000        0x4 CMakeFiles/dfu_no_serial_nrf52832_xxAA_s132_6.0.0.dir/__/nrf_mesh_weak.c.obj
 .text._weak_handler_ptr
                0x0000000000000000        0x4 CMakeFiles/dfu_no_serial_nrf52832_xxAA_s132_6.0.0.dir/__/nrf_mesh_weak.c.obj
 .debug_info    0x0000000000000000      0x91d CMakeFiles/dfu_no_serial_nrf52832_xxAA_s132_6.0.0.dir/__/nrf_mesh_weak.c.obj
 .debug_abbrev  0x0000000000000000      0x1ae CMakeFiles/dfu_no_serial_nrf52832_xxAA_s132_6.0.0.dir/__/nrf_mesh_weak.c.obj
 .debug_aranges
                0x0000000000000000       0x28 CMakeFiles/dfu_no_serial_nrf52832_xxAA_s132_6.0.0.dir/__/nrf_mesh_weak.c.obj
 .debug_ranges  0x0000000000000000       0x18 CMakeFiles/dfu_no_serial_nrf52832_xxAA_s132_6.0.0.dir/__/nrf_mesh_weak.c.obj
 .debug_line    0x0000000000000000      0x24f CMakeFiles/dfu_no_serial_nrf52832_xxAA_s132_6.0.0.dir/__/nrf_mesh_weak.c.obj
 .debug_str     0x0000000000000000      0x67c CMakeFiles/dfu_no_serial_nrf52832_xxAA_s132_6.0.0.dir/__/nrf_mesh_weak.c.obj
 .comment       0x0000000000000000       0x7f CMakeFiles/dfu_no_serial_nrf52832_xxAA_s132_6.0.0.dir/__/nrf_mesh_weak.c.obj
 .debug_frame   0x0000000000000000       0x30 CMakeFiles/dfu_no_serial_nrf52832_xxAA_s132_6.0.0.dir/__/nrf_mesh_weak.c.obj
 .ARM.attributes
                0x0000000000000000       0x39 CMakeFiles/dfu_no_serial_nrf52832_xxAA_s132_6.0.0.dir/__/nrf_mesh_weak.c.obj
 .text          0x0000000000000000        0x0 CMakeFiles/dfu_no_serial_nrf52832_xxAA_s132_6.0.0.dir/__/common/src/app_error_weak.c.obj
 .data          0x0000000000000000        0x0 CMakeFiles/dfu_no_serial_nrf52832_xxAA_s132_6.0.0.dir/__/common/src/app_error_weak.c.obj
 .bss           0x0000000000000000        0x0 CMakeFiles/dfu_no_serial_nrf52832_xxAA_s132_6.0.0.dir/__/common/src/app_error_weak.c.obj
 .text          0x0000000000000000        0x0 CMakeFiles/dfu_no_serial_nrf52832_xxAA_s132_6.0.0.dir/__/common/src/assertion_handler_weak.c.obj
 .data          0x0000000000000000        0x0 CMakeFiles/dfu_no_serial_nrf52832_xxAA_s132_6.0.0.dir/__/common/src/assertion_handler_weak.c.obj
 .bss           0x0000000000000000        0x0 CMakeFiles/dfu_no_serial_nrf52832_xxAA_s132_6.0.0.dir/__/common/src/assertion_handler_weak.c.obj
 .text          0x0000000000000000        0x0 CMakeFiles/dfu_no_serial_nrf52832_xxAA_s132_6.0.0.dir/__/__/mesh/core/src/internal_event.c.obj
 .data          0x0000000000000000        0x0 CMakeFiles/dfu_no_serial_nrf52832_xxAA_s132_6.0.0.dir/__/__/mesh/core/src/internal_event.c.obj
 .bss           0x0000000000000000        0x0 CMakeFiles/dfu_no_serial_nrf52832_xxAA_s132_6.0.0.dir/__/__/mesh/core/src/internal_event.c.obj
 .debug_info    0x0000000000000000      0x8eb CMakeFiles/dfu_no_serial_nrf52832_xxAA_s132_6.0.0.dir/__/__/mesh/core/src/internal_event.c.obj
 .debug_abbrev  0x0000000000000000      0x192 CMakeFiles/dfu_no_serial_nrf52832_xxAA_s132_6.0.0.dir/__/__/mesh/core/src/internal_event.c.obj
 .debug_aranges
                0x0000000000000000       0x18 CMakeFiles/dfu_no_serial_nrf52832_xxAA_s132_6.0.0.dir/__/__/mesh/core/src/internal_event.c.obj
 .debug_line    0x0000000000000000      0x1d9 CMakeFiles/dfu_no_serial_nrf52832_xxAA_s132_6.0.0.dir/__/__/mesh/core/src/internal_event.c.obj
 .debug_str     0x0000000000000000      0x662 CMakeFiles/dfu_no_serial_nrf52832_xxAA_s132_6.0.0.dir/__/__/mesh/core/src/internal_event.c.obj
 .comment       0x0000000000000000       0x7f CMakeFiles/dfu_no_serial_nrf52832_xxAA_s132_6.0.0.dir/__/__/mesh/core/src/internal_event.c.obj
 .ARM.attributes
                0x0000000000000000       0x39 CMakeFiles/dfu_no_serial_nrf52832_xxAA_s132_6.0.0.dir/__/__/mesh/core/src/internal_event.c.obj
 .text          0x0000000000000000        0x0 CMakeFiles/dfu_no_serial_nrf52832_xxAA_s132_6.0.0.dir/__/__/mesh/core/src/nrf_mesh_configure.c.obj
 .data          0x0000000000000000        0x0 CMakeFiles/dfu_no_serial_nrf52832_xxAA_s132_6.0.0.dir/__/__/mesh/core/src/nrf_mesh_configure.c.obj
 .bss           0x0000000000000000        0x0 CMakeFiles/dfu_no_serial_nrf52832_xxAA_s132_6.0.0.dir/__/__/mesh/core/src/nrf_mesh_configure.c.obj
 .text          0x0000000000000000        0x0 CMakeFiles/dfu_no_serial_nrf52832_xxAA_s132_6.0.0.dir/__/__/mesh/core/src/aes.c.obj
 .data          0x0000000000000000        0x0 CMakeFiles/dfu_no_serial_nrf52832_xxAA_s132_6.0.0.dir/__/__/mesh/core/src/aes.c.obj
 .bss           0x0000000000000000        0x0 CMakeFiles/dfu_no_serial_nrf52832_xxAA_s132_6.0.0.dir/__/__/mesh/core/src/aes.c.obj
 .text          0x0000000000000000        0x0 CMakeFiles/dfu_no_serial_nrf52832_xxAA_s132_6.0.0.dir/__/__/mesh/core/src/msg_cache.c.obj
 .data          0x0000000000000000        0x0 CMakeFiles/dfu_no_serial_nrf52832_xxAA_s132_6.0.0.dir/__/__/mesh/core/src/msg_cache.c.obj
 .bss           0x0000000000000000        0x0 CMakeFiles/dfu_no_serial_nrf52832_xxAA_s132_6.0.0.dir/__/__/mesh/core/src/msg_cache.c.obj
 .text.msg_cache_clear
                0x0000000000000000       0x18 CMakeFiles/dfu_no_serial_nrf52832_xxAA_s132_6.0.0.dir/__/__/mesh/core/src/msg_cache.c.obj
 .text          0x0000000000000000        0x0 CMakeFiles/dfu_no_serial_nrf52832_xxAA_s132_6.0.0.dir/__/__/mesh/core/src/transport.c.obj
 .data          0x0000000000000000        0x0 CMakeFiles/dfu_no_serial_nrf52832_xxAA_s132_6.0.0.dir/__/__/mesh/core/src/transport.c.obj
 .bss           0x0000000000000000        0x0 CMakeFiles/dfu_no_serial_nrf52832_xxAA_s132_6.0.0.dir/__/__/mesh/core/src/transport.c.obj
 .text.transport_sar_mem_funcs_set
                0x0000000000000000       0x64 CMakeFiles/dfu_no_serial_nrf52832_xxAA_s132_6.0.0.dir/__/__/mesh/core/src/transport.c.obj
 .text.transport_sar_mem_funcs_reset
                0x0000000000000000       0x30 CMakeFiles/dfu_no_serial_nrf52832_xxAA_s132_6.0.0.dir/__/__/mesh/core/src/transport.c.obj
 .text          0x0000000000000000        0x0 CMakeFiles/dfu_no_serial_nrf52832_xxAA_s132_6.0.0.dir/__/__/mesh/core/src/event.c.obj
 .data          0x0000000000000000        0x0 CMakeFiles/dfu_no_serial_nrf52832_xxAA_s132_6.0.0.dir/__/__/mesh/core/src/event.c.obj
 .bss           0x0000000000000000        0x0 CMakeFiles/dfu_no_serial_nrf52832_xxAA_s132_6.0.0.dir/__/__/mesh/core/src/event.c.obj
 .text          0x0000000000000000        0x0 CMakeFiles/dfu_no_serial_nrf52832_xxAA_s132_6.0.0.dir/__/__/mesh/core/src/packet_buffer.c.obj
 .data          0x0000000000000000        0x0 CMakeFiles/dfu_no_serial_nrf52832_xxAA_s132_6.0.0.dir/__/__/mesh/core/src/packet_buffer.c.obj
 .bss           0x0000000000000000        0x0 CMakeFiles/dfu_no_serial_nrf52832_xxAA_s132_6.0.0.dir/__/__/mesh/core/src/packet_buffer.c.obj
 .text.packet_buffer_max_packet_len_get
                0x0000000000000000       0x24 CMakeFiles/dfu_no_serial_nrf52832_xxAA_s132_6.0.0.dir/__/__/mesh/core/src/packet_buffer.c.obj
 .text          0x0000000000000000        0x0 CMakeFiles/dfu_no_serial_nrf52832_xxAA_s132_6.0.0.dir/__/__/mesh/core/src/flash_manager_defrag.c.obj
 .data          0x0000000000000000        0x0 CMakeFiles/dfu_no_serial_nrf52832_xxAA_s132_6.0.0.dir/__/__/mesh/core/src/flash_manager_defrag.c.obj
 .bss           0x0000000000000000        0x0 CMakeFiles/dfu_no_serial_nrf52832_xxAA_s132_6.0.0.dir/__/__/mesh/core/src/flash_manager_defrag.c.obj
 .text.flash_manager_defragging
                0x0000000000000000       0x44 CMakeFiles/dfu_no_serial_nrf52832_xxAA_s132_6.0.0.dir/__/__/mesh/core/src/flash_manager_defrag.c.obj
 .text          0x0000000000000000        0x0 CMakeFiles/dfu_no_serial_nrf52832_xxAA_s132_6.0.0.dir/__/__/mesh/core/src/fifo.c.obj
 .data          0x0000000000000000        0x0 CMakeFiles/dfu_no_serial_nrf52832_xxAA_s132_6.0.0.dir/__/__/mesh/core/src/fifo.c.obj
 .bss           0x0000000000000000        0x0 CMakeFiles/dfu_no_serial_nrf52832_xxAA_s132_6.0.0.dir/__/__/mesh/core/src/fifo.c.obj
 .text.fifo_peek_at
                0x0000000000000000       0x58 CMakeFiles/dfu_no_serial_nrf52832_xxAA_s132_6.0.0.dir/__/__/mesh/core/src/fifo.c.obj
 .text.fifo_peek
                0x0000000000000000       0x54 CMakeFiles/dfu_no_serial_nrf52832_xxAA_s132_6.0.0.dir/__/__/mesh/core/src/fifo.c.obj
 .text.fifo_flush
                0x0000000000000000        0x8 CMakeFiles/dfu_no_serial_nrf52832_xxAA_s132_6.0.0.dir/__/__/mesh/core/src/fifo.c.obj
 .text.fifo_get_len
                0x0000000000000000        0x8 CMakeFiles/dfu_no_serial_nrf52832_xxAA_s132_6.0.0.dir/__/__/mesh/core/src/fifo.c.obj
 .text.fifo_is_full
                0x0000000000000000       0x14 CMakeFiles/dfu_no_serial_nrf52832_xxAA_s132_6.0.0.dir/__/__/mesh/core/src/fifo.c.obj
 .text.fifo_is_empty
                0x0000000000000000       0x10 CMakeFiles/dfu_no_serial_nrf52832_xxAA_s132_6.0.0.dir/__/__/mesh/core/src/fifo.c.obj
 .text          0x0000000000000000        0x0 CMakeFiles/dfu_no_serial_nrf52832_xxAA_s132_6.0.0.dir/__/__/mesh/core/src/nrf_flash.c.obj
 .data          0x0000000000000000        0x0 CMakeFiles/dfu_no_serial_nrf52832_xxAA_s132_6.0.0.dir/__/__/mesh/core/src/nrf_flash.c.obj
 .bss           0x0000000000000000        0x0 CMakeFiles/dfu_no_serial_nrf52832_xxAA_s132_6.0.0.dir/__/__/mesh/core/src/nrf_flash.c.obj
 .text          0x0000000000000000        0x0 CMakeFiles/dfu_no_serial_nrf52832_xxAA_s132_6.0.0.dir/__/__/mesh/core/src/packet_mgr.c.obj
 .data          0x0000000000000000        0x0 CMakeFiles/dfu_no_serial_nrf52832_xxAA_s132_6.0.0.dir/__/__/mesh/core/src/packet_mgr.c.obj
 .bss           0x0000000000000000        0x0 CMakeFiles/dfu_no_serial_nrf52832_xxAA_s132_6.0.0.dir/__/__/mesh/core/src/packet_mgr.c.obj
 .text.packet_mgr_alloc
                0x0000000000000000      0x1a4 CMakeFiles/dfu_no_serial_nrf52832_xxAA_s132_6.0.0.dir/__/__/mesh/core/src/packet_mgr.c.obj
 .text.packet_mgr_free
                0x0000000000000000       0x5c CMakeFiles/dfu_no_serial_nrf52832_xxAA_s132_6.0.0.dir/__/__/mesh/core/src/packet_mgr.c.obj
 .text.packet_mgr_get_free_space
                0x0000000000000000       0x1c CMakeFiles/dfu_no_serial_nrf52832_xxAA_s132_6.0.0.dir/__/__/mesh/core/src/packet_mgr.c.obj
 .text.packet_mgr_refcount_get
                0x0000000000000000        0x8 CMakeFiles/dfu_no_serial_nrf52832_xxAA_s132_6.0.0.dir/__/__/mesh/core/src/packet_mgr.c.obj
 .text.packet_mgr_size_get
                0x0000000000000000        0x8 CMakeFiles/dfu_no_serial_nrf52832_xxAA_s132_6.0.0.dir/__/__/mesh/core/src/packet_mgr.c.obj
 .text          0x0000000000000000        0x0 CMakeFiles/dfu_no_serial_nrf52832_xxAA_s132_6.0.0.dir/__/__/mesh/core/src/net_state.c.obj
 .data          0x0000000000000000        0x0 CMakeFiles/dfu_no_serial_nrf52832_xxAA_s132_6.0.0.dir/__/__/mesh/core/src/net_state.c.obj
 .bss           0x0000000000000000        0x0 CMakeFiles/dfu_no_serial_nrf52832_xxAA_s132_6.0.0.dir/__/__/mesh/core/src/net_state.c.obj
 .text.net_state_iv_update_start
                0x0000000000000000       0x94 CMakeFiles/dfu_no_serial_nrf52832_xxAA_s132_6.0.0.dir/__/__/mesh/core/src/net_state.c.obj
 .text.net_state_iv_update_test_mode_set
                0x0000000000000000        0xc CMakeFiles/dfu_no_serial_nrf52832_xxAA_s132_6.0.0.dir/__/__/mesh/core/src/net_state.c.obj
 .text.net_state_test_mode_transition_run
                0x0000000000000000      0x170 CMakeFiles/dfu_no_serial_nrf52832_xxAA_s132_6.0.0.dir/__/__/mesh/core/src/net_state.c.obj
 .text          0x0000000000000000        0x0 CMakeFiles/dfu_no_serial_nrf52832_xxAA_s132_6.0.0.dir/__/__/mesh/core/src/mesh_flash.c.obj
 .data          0x0000000000000000        0x0 CMakeFiles/dfu_no_serial_nrf52832_xxAA_s132_6.0.0.dir/__/__/mesh/core/src/mesh_flash.c.obj
 .bss           0x0000000000000000        0x0 CMakeFiles/dfu_no_serial_nrf52832_xxAA_s132_6.0.0.dir/__/__/mesh/core/src/mesh_flash.c.obj
 .text.mesh_flash_op_available_slots
                0x0000000000000000       0x2c CMakeFiles/dfu_no_serial_nrf52832_xxAA_s132_6.0.0.dir/__/__/mesh/core/src/mesh_flash.c.obj
 .text          0x0000000000000000        0x0 CMakeFiles/dfu_no_serial_nrf52832_xxAA_s132_6.0.0.dir/__/__/mesh/core/src/nrf_mesh_utils.c.obj
 .data          0x0000000000000000        0x0 CMakeFiles/dfu_no_serial_nrf52832_xxAA_s132_6.0.0.dir/__/__/mesh/core/src/nrf_mesh_utils.c.obj
 .bss           0x0000000000000000        0x0 CMakeFiles/dfu_no_serial_nrf52832_xxAA_s132_6.0.0.dir/__/__/mesh/core/src/nrf_mesh_utils.c.obj
 .text.nrf_mesh_rand_get
                0x0000000000000000       0x10 CMakeFiles/dfu_no_serial_nrf52832_xxAA_s132_6.0.0.dir/__/__/mesh/core/src/nrf_mesh_utils.c.obj
 .text.nrf_mesh_gap_address_type_get
                0x0000000000000000       0x34 CMakeFiles/dfu_no_serial_nrf52832_xxAA_s132_6.0.0.dir/__/__/mesh/core/src/nrf_mesh_utils.c.obj
 .text          0x0000000000000000        0x0 CMakeFiles/dfu_no_serial_nrf52832_xxAA_s132_6.0.0.dir/__/__/mesh/core/src/nrf_mesh.c.obj
 .data          0x0000000000000000        0x0 CMakeFiles/dfu_no_serial_nrf52832_xxAA_s132_6.0.0.dir/__/__/mesh/core/src/nrf_mesh.c.obj
 .bss           0x0000000000000000        0x0 CMakeFiles/dfu_no_serial_nrf52832_xxAA_s132_6.0.0.dir/__/__/mesh/core/src/nrf_mesh.c.obj
 .text.nrf_mesh_disable
                0x0000000000000000       0x30 CMakeFiles/dfu_no_serial_nrf52832_xxAA_s132_6.0.0.dir/__/__/mesh/core/src/nrf_mesh.c.obj
 .text.nrf_mesh_process
                0x0000000000000000        0x4 CMakeFiles/dfu_no_serial_nrf52832_xxAA_s132_6.0.0.dir/__/__/mesh/core/src/nrf_mesh.c.obj
 .text.nrf_mesh_evt_handler_remove
                0x0000000000000000        0x4 CMakeFiles/dfu_no_serial_nrf52832_xxAA_s132_6.0.0.dir/__/__/mesh/core/src/nrf_mesh.c.obj
 .text.nrf_mesh_rx_cb_set
                0x0000000000000000        0xc CMakeFiles/dfu_no_serial_nrf52832_xxAA_s132_6.0.0.dir/__/__/mesh/core/src/nrf_mesh.c.obj
 .text.nrf_mesh_rx_cb_clear
                0x0000000000000000        0xc CMakeFiles/dfu_no_serial_nrf52832_xxAA_s132_6.0.0.dir/__/__/mesh/core/src/nrf_mesh.c.obj
 .text          0x0000000000000000        0x0 CMakeFiles/dfu_no_serial_nrf52832_xxAA_s132_6.0.0.dir/__/__/mesh/core/src/queue.c.obj
 .data          0x0000000000000000        0x0 CMakeFiles/dfu_no_serial_nrf52832_xxAA_s132_6.0.0.dir/__/__/mesh/core/src/queue.c.obj
 .bss           0x0000000000000000        0x0 CMakeFiles/dfu_no_serial_nrf52832_xxAA_s132_6.0.0.dir/__/__/mesh/core/src/queue.c.obj
 .text          0x0000000000000000        0x0 CMakeFiles/dfu_no_serial_nrf52832_xxAA_s132_6.0.0.dir/__/__/mesh/core/src/hal.c.obj
 .data          0x0000000000000000        0x0 CMakeFiles/dfu_no_serial_nrf52832_xxAA_s132_6.0.0.dir/__/__/mesh/core/src/hal.c.obj
 .bss           0x0000000000000000        0x0 CMakeFiles/dfu_no_serial_nrf52832_xxAA_s132_6.0.0.dir/__/__/mesh/core/src/hal.c.obj
 .text          0x0000000000000000        0x0 CMakeFiles/dfu_no_serial_nrf52832_xxAA_s132_6.0.0.dir/__/__/mesh/core/src/aes_cmac.c.obj
 .data          0x0000000000000000        0x0 CMakeFiles/dfu_no_serial_nrf52832_xxAA_s132_6.0.0.dir/__/__/mesh/core/src/aes_cmac.c.obj
 .bss           0x0000000000000000        0x0 CMakeFiles/dfu_no_serial_nrf52832_xxAA_s132_6.0.0.dir/__/__/mesh/core/src/aes_cmac.c.obj
 .text          0x0000000000000000        0x0 CMakeFiles/dfu_no_serial_nrf52832_xxAA_s132_6.0.0.dir/__/__/mesh/core/src/timer_scheduler.c.obj
 .data          0x0000000000000000        0x0 CMakeFiles/dfu_no_serial_nrf52832_xxAA_s132_6.0.0.dir/__/__/mesh/core/src/timer_scheduler.c.obj
 .bss           0x0000000000000000        0x0 CMakeFiles/dfu_no_serial_nrf52832_xxAA_s132_6.0.0.dir/__/__/mesh/core/src/timer_scheduler.c.obj
 .text          0x0000000000000000        0x0 CMakeFiles/dfu_no_serial_nrf52832_xxAA_s132_6.0.0.dir/__/__/mesh/core/src/timer.c.obj
 .data          0x0000000000000000        0x0 CMakeFiles/dfu_no_serial_nrf52832_xxAA_s132_6.0.0.dir/__/__/mesh/core/src/timer.c.obj
 .bss           0x0000000000000000        0x0 CMakeFiles/dfu_no_serial_nrf52832_xxAA_s132_6.0.0.dir/__/__/mesh/core/src/timer.c.obj
 .text.timer_order_cb_ppi
                0x0000000000000000       0xd8 CMakeFiles/dfu_no_serial_nrf52832_xxAA_s132_6.0.0.dir/__/__/mesh/core/src/timer.c.obj
 .text.timer_order_ppi
                0x0000000000000000       0xcc CMakeFiles/dfu_no_serial_nrf52832_xxAA_s132_6.0.0.dir/__/__/mesh/core/src/timer.c.obj
 .text.timer_abort
                0x0000000000000000       0x84 CMakeFiles/dfu_no_serial_nrf52832_xxAA_s132_6.0.0.dir/__/__/mesh/core/src/timer.c.obj
 .text          0x0000000000000000        0x0 CMakeFiles/dfu_no_serial_nrf52832_xxAA_s132_6.0.0.dir/__/__/mesh/core/src/ticker.c.obj
 .data          0x0000000000000000        0x0 CMakeFiles/dfu_no_serial_nrf52832_xxAA_s132_6.0.0.dir/__/__/mesh/core/src/ticker.c.obj
 .bss           0x0000000000000000        0x0 CMakeFiles/dfu_no_serial_nrf52832_xxAA_s132_6.0.0.dir/__/__/mesh/core/src/ticker.c.obj
 .text.ticker_get
                0x0000000000000000        0xc CMakeFiles/dfu_no_serial_nrf52832_xxAA_s132_6.0.0.dir/__/__/mesh/core/src/ticker.c.obj
 .text          0x0000000000000000        0x0 CMakeFiles/dfu_no_serial_nrf52832_xxAA_s132_6.0.0.dir/__/__/mesh/core/src/rand.c.obj
 .data          0x0000000000000000        0x0 CMakeFiles/dfu_no_serial_nrf52832_xxAA_s132_6.0.0.dir/__/__/mesh/core/src/rand.c.obj
 .bss           0x0000000000000000        0x0 CMakeFiles/dfu_no_serial_nrf52832_xxAA_s132_6.0.0.dir/__/__/mesh/core/src/rand.c.obj
 .text          0x0000000000000000        0x0 CMakeFiles/dfu_no_serial_nrf52832_xxAA_s132_6.0.0.dir/__/__/mesh/core/src/nrf_mesh_opt.c.obj
 .data          0x0000000000000000        0x0 CMakeFiles/dfu_no_serial_nrf52832_xxAA_s132_6.0.0.dir/__/__/mesh/core/src/nrf_mesh_opt.c.obj
 .bss           0x0000000000000000        0x0 CMakeFiles/dfu_no_serial_nrf52832_xxAA_s132_6.0.0.dir/__/__/mesh/core/src/nrf_mesh_opt.c.obj
 .text          0x0000000000000000        0x0 CMakeFiles/dfu_no_serial_nrf52832_xxAA_s132_6.0.0.dir/__/__/mesh/core/src/timeslot.c.obj
 .data          0x0000000000000000        0x0 CMakeFiles/dfu_no_serial_nrf52832_xxAA_s132_6.0.0.dir/__/__/mesh/core/src/timeslot.c.obj
 .bss           0x0000000000000000        0x0 CMakeFiles/dfu_no_serial_nrf52832_xxAA_s132_6.0.0.dir/__/__/mesh/core/src/timeslot.c.obj
 .text.timeslot_restart
                0x0000000000000000       0x30 CMakeFiles/dfu_no_serial_nrf52832_xxAA_s132_6.0.0.dir/__/__/mesh/core/src/timeslot.c.obj
 .text.timeslot_end_time_get
                0x0000000000000000       0x30 CMakeFiles/dfu_no_serial_nrf52832_xxAA_s132_6.0.0.dir/__/__/mesh/core/src/timeslot.c.obj
 .text.timeslot_is_in_ts
                0x0000000000000000        0xc CMakeFiles/dfu_no_serial_nrf52832_xxAA_s132_6.0.0.dir/__/__/mesh/core/src/timeslot.c.obj
 .text          0x0000000000000000        0x0 CMakeFiles/dfu_no_serial_nrf52832_xxAA_s132_6.0.0.dir/__/__/mesh/core/src/bearer_event.c.obj
 .data          0x0000000000000000        0x0 CMakeFiles/dfu_no_serial_nrf52832_xxAA_s132_6.0.0.dir/__/__/mesh/core/src/bearer_event.c.obj
 .bss           0x0000000000000000        0x0 CMakeFiles/dfu_no_serial_nrf52832_xxAA_s132_6.0.0.dir/__/__/mesh/core/src/bearer_event.c.obj
 .text.bearer_event_generic_post
                0x0000000000000000       0x50 CMakeFiles/dfu_no_serial_nrf52832_xxAA_s132_6.0.0.dir/__/__/mesh/core/src/bearer_event.c.obj
 .text.bearer_event_timer_sch_post
                0x0000000000000000       0x54 CMakeFiles/dfu_no_serial_nrf52832_xxAA_s132_6.0.0.dir/__/__/mesh/core/src/bearer_event.c.obj
 .text.bearer_event_in_correct_irq_priority
                0x0000000000000000       0x58 CMakeFiles/dfu_no_serial_nrf52832_xxAA_s132_6.0.0.dir/__/__/mesh/core/src/bearer_event.c.obj
 .text          0x0000000000000000        0x0 CMakeFiles/dfu_no_serial_nrf52832_xxAA_s132_6.0.0.dir/__/__/mesh/core/src/enc.c.obj
 .data          0x0000000000000000        0x0 CMakeFiles/dfu_no_serial_nrf52832_xxAA_s132_6.0.0.dir/__/__/mesh/core/src/enc.c.obj
 .bss           0x0000000000000000        0x0 CMakeFiles/dfu_no_serial_nrf52832_xxAA_s132_6.0.0.dir/__/__/mesh/core/src/enc.c.obj
 .text.enc_key_generate
                0x0000000000000000        0x8 CMakeFiles/dfu_no_serial_nrf52832_xxAA_s132_6.0.0.dir/__/__/mesh/core/src/enc.c.obj
 .text          0x0000000000000000        0x0 CMakeFiles/dfu_no_serial_nrf52832_xxAA_s132_6.0.0.dir/__/__/mesh/core/src/network.c.obj
 .data          0x0000000000000000        0x0 CMakeFiles/dfu_no_serial_nrf52832_xxAA_s132_6.0.0.dir/__/__/mesh/core/src/network.c.obj
 .bss           0x0000000000000000        0x0 CMakeFiles/dfu_no_serial_nrf52832_xxAA_s132_6.0.0.dir/__/__/mesh/core/src/network.c.obj
 .text.network_packet_discard
                0x0000000000000000       0x28 CMakeFiles/dfu_no_serial_nrf52832_xxAA_s132_6.0.0.dir/__/__/mesh/core/src/network.c.obj
 .text          0x0000000000000000        0x0 CMakeFiles/dfu_no_serial_nrf52832_xxAA_s132_6.0.0.dir/__/__/mesh/core/src/net_packet.c.obj
 .data          0x0000000000000000        0x0 CMakeFiles/dfu_no_serial_nrf52832_xxAA_s132_6.0.0.dir/__/__/mesh/core/src/net_packet.c.obj
 .bss           0x0000000000000000        0x0 CMakeFiles/dfu_no_serial_nrf52832_xxAA_s132_6.0.0.dir/__/__/mesh/core/src/net_packet.c.obj
 .text.net_packet_enc_start_get
                0x0000000000000000        0x4 CMakeFiles/dfu_no_serial_nrf52832_xxAA_s132_6.0.0.dir/__/__/mesh/core/src/net_packet.c.obj
 .text.net_packet_payload_get
                0x0000000000000000        0x4 CMakeFiles/dfu_no_serial_nrf52832_xxAA_s132_6.0.0.dir/__/__/mesh/core/src/net_packet.c.obj
 .text          0x0000000000000000        0x0 CMakeFiles/dfu_no_serial_nrf52832_xxAA_s132_6.0.0.dir/__/__/mesh/core/src/msqueue.c.obj
 .data          0x0000000000000000        0x0 CMakeFiles/dfu_no_serial_nrf52832_xxAA_s132_6.0.0.dir/__/__/mesh/core/src/msqueue.c.obj
 .bss           0x0000000000000000        0x0 CMakeFiles/dfu_no_serial_nrf52832_xxAA_s132_6.0.0.dir/__/__/mesh/core/src/msqueue.c.obj
 .text.msq_reset
                0x0000000000000000       0x24 CMakeFiles/dfu_no_serial_nrf52832_xxAA_s132_6.0.0.dir/__/__/mesh/core/src/msqueue.c.obj
 .text          0x0000000000000000        0x0 CMakeFiles/dfu_no_serial_nrf52832_xxAA_s132_6.0.0.dir/__/__/mesh/core/src/nrf_mesh_keygen.c.obj
 .data          0x0000000000000000        0x0 CMakeFiles/dfu_no_serial_nrf52832_xxAA_s132_6.0.0.dir/__/__/mesh/core/src/nrf_mesh_keygen.c.obj
 .bss           0x0000000000000000        0x0 CMakeFiles/dfu_no_serial_nrf52832_xxAA_s132_6.0.0.dir/__/__/mesh/core/src/nrf_mesh_keygen.c.obj
 .text.nrf_mesh_keygen_identitykey
                0x0000000000000000       0x4c CMakeFiles/dfu_no_serial_nrf52832_xxAA_s132_6.0.0.dir/__/__/mesh/core/src/nrf_mesh_keygen.c.obj
 .text          0x0000000000000000        0x0 CMakeFiles/dfu_no_serial_nrf52832_xxAA_s132_6.0.0.dir/__/__/mesh/core/src/cache.c.obj
 .data          0x0000000000000000        0x0 CMakeFiles/dfu_no_serial_nrf52832_xxAA_s132_6.0.0.dir/__/__/mesh/core/src/cache.c.obj
 .bss           0x0000000000000000        0x0 CMakeFiles/dfu_no_serial_nrf52832_xxAA_s132_6.0.0.dir/__/__/mesh/core/src/cache.c.obj
 .text.cache_init
                0x0000000000000000       0x40 CMakeFiles/dfu_no_serial_nrf52832_xxAA_s132_6.0.0.dir/__/__/mesh/core/src/cache.c.obj
 .text.cache_has_elem
                0x0000000000000000       0x54 CMakeFiles/dfu_no_serial_nrf52832_xxAA_s132_6.0.0.dir/__/__/mesh/core/src/cache.c.obj
 .text.cache_put
                0x0000000000000000       0x2c CMakeFiles/dfu_no_serial_nrf52832_xxAA_s132_6.0.0.dir/__/__/mesh/core/src/cache.c.obj
 .text.cache_erase_elem
                0x0000000000000000       0x6c CMakeFiles/dfu_no_serial_nrf52832_xxAA_s132_6.0.0.dir/__/__/mesh/core/src/cache.c.obj
 .debug_info    0x0000000000000000      0xbf9 CMakeFiles/dfu_no_serial_nrf52832_xxAA_s132_6.0.0.dir/__/__/mesh/core/src/cache.c.obj
 .debug_abbrev  0x0000000000000000      0x2e2 CMakeFiles/dfu_no_serial_nrf52832_xxAA_s132_6.0.0.dir/__/__/mesh/core/src/cache.c.obj
 .debug_loc     0x0000000000000000      0x3dc CMakeFiles/dfu_no_serial_nrf52832_xxAA_s132_6.0.0.dir/__/__/mesh/core/src/cache.c.obj
 .debug_aranges
                0x0000000000000000       0x38 CMakeFiles/dfu_no_serial_nrf52832_xxAA_s132_6.0.0.dir/__/__/mesh/core/src/cache.c.obj
 .debug_ranges  0x0000000000000000       0xb0 CMakeFiles/dfu_no_serial_nrf52832_xxAA_s132_6.0.0.dir/__/__/mesh/core/src/cache.c.obj
 .debug_line    0x0000000000000000      0x255 CMakeFiles/dfu_no_serial_nrf52832_xxAA_s132_6.0.0.dir/__/__/mesh/core/src/cache.c.obj
 .debug_str     0x0000000000000000      0x70f CMakeFiles/dfu_no_serial_nrf52832_xxAA_s132_6.0.0.dir/__/__/mesh/core/src/cache.c.obj
 .comment       0x0000000000000000       0x7f CMakeFiles/dfu_no_serial_nrf52832_xxAA_s132_6.0.0.dir/__/__/mesh/core/src/cache.c.obj
 .debug_frame   0x0000000000000000       0x90 CMakeFiles/dfu_no_serial_nrf52832_xxAA_s132_6.0.0.dir/__/__/mesh/core/src/cache.c.obj
 .ARM.attributes
                0x0000000000000000       0x39 CMakeFiles/dfu_no_serial_nrf52832_xxAA_s132_6.0.0.dir/__/__/mesh/core/src/cache.c.obj
 .text          0x0000000000000000        0x0 CMakeFiles/dfu_no_serial_nrf52832_xxAA_s132_6.0.0.dir/__/__/mesh/core/src/uri.c.obj
 .data          0x0000000000000000        0x0 CMakeFiles/dfu_no_serial_nrf52832_xxAA_s132_6.0.0.dir/__/__/mesh/core/src/uri.c.obj
 .bss           0x0000000000000000        0x0 CMakeFiles/dfu_no_serial_nrf52832_xxAA_s132_6.0.0.dir/__/__/mesh/core/src/uri.c.obj
 .text.uri_data_generate
                0x0000000000000000       0x88 CMakeFiles/dfu_no_serial_nrf52832_xxAA_s132_6.0.0.dir/__/__/mesh/core/src/uri.c.obj
 .text.uri_data_parse
                0x0000000000000000       0x84 CMakeFiles/dfu_no_serial_nrf52832_xxAA_s132_6.0.0.dir/__/__/mesh/core/src/uri.c.obj
 .text.uri_scheme_name_code_point
                0x0000000000000000       0x5c CMakeFiles/dfu_no_serial_nrf52832_xxAA_s132_6.0.0.dir/__/__/mesh/core/src/uri.c.obj
 .text.uri_scheme_name_string
                0x0000000000000000       0x14 CMakeFiles/dfu_no_serial_nrf52832_xxAA_s132_6.0.0.dir/__/__/mesh/core/src/uri.c.obj
 .rodata.m_code_point_strings
                0x0000000000000000      0x2ec CMakeFiles/dfu_no_serial_nrf52832_xxAA_s132_6.0.0.dir/__/__/mesh/core/src/uri.c.obj
 .rodata.str1.4
                0x0000000000000000      0x6ba CMakeFiles/dfu_no_serial_nrf52832_xxAA_s132_6.0.0.dir/__/__/mesh/core/src/uri.c.obj
 .debug_info    0x0000000000000000      0xd55 CMakeFiles/dfu_no_serial_nrf52832_xxAA_s132_6.0.0.dir/__/__/mesh/core/src/uri.c.obj
 .debug_abbrev  0x0000000000000000      0x331 CMakeFiles/dfu_no_serial_nrf52832_xxAA_s132_6.0.0.dir/__/__/mesh/core/src/uri.c.obj
 .debug_loc     0x0000000000000000      0x38d CMakeFiles/dfu_no_serial_nrf52832_xxAA_s132_6.0.0.dir/__/__/mesh/core/src/uri.c.obj
 .debug_aranges
                0x0000000000000000       0x38 CMakeFiles/dfu_no_serial_nrf52832_xxAA_s132_6.0.0.dir/__/__/mesh/core/src/uri.c.obj
 .debug_ranges  0x0000000000000000       0x58 CMakeFiles/dfu_no_serial_nrf52832_xxAA_s132_6.0.0.dir/__/__/mesh/core/src/uri.c.obj
 .debug_line    0x0000000000000000      0x31f CMakeFiles/dfu_no_serial_nrf52832_xxAA_s132_6.0.0.dir/__/__/mesh/core/src/uri.c.obj
 .debug_str     0x0000000000000000      0x73d CMakeFiles/dfu_no_serial_nrf52832_xxAA_s132_6.0.0.dir/__/__/mesh/core/src/uri.c.obj
 .comment       0x0000000000000000       0x7f CMakeFiles/dfu_no_serial_nrf52832_xxAA_s132_6.0.0.dir/__/__/mesh/core/src/uri.c.obj
 .debug_frame   0x0000000000000000       0x8c CMakeFiles/dfu_no_serial_nrf52832_xxAA_s132_6.0.0.dir/__/__/mesh/core/src/uri.c.obj
 .ARM.attributes
                0x0000000000000000       0x39 CMakeFiles/dfu_no_serial_nrf52832_xxAA_s132_6.0.0.dir/__/__/mesh/core/src/uri.c.obj
 .text          0x0000000000000000        0x0 CMakeFiles/dfu_no_serial_nrf52832_xxAA_s132_6.0.0.dir/__/__/mesh/core/src/list.c.obj
 .data          0x0000000000000000        0x0 CMakeFiles/dfu_no_serial_nrf52832_xxAA_s132_6.0.0.dir/__/__/mesh/core/src/list.c.obj
 .bss           0x0000000000000000        0x0 CMakeFiles/dfu_no_serial_nrf52832_xxAA_s132_6.0.0.dir/__/__/mesh/core/src/list.c.obj
 .text.list_size_get
                0x0000000000000000       0x14 CMakeFiles/dfu_no_serial_nrf52832_xxAA_s132_6.0.0.dir/__/__/mesh/core/src/list.c.obj
 .text.list_sorted_add
                0x0000000000000000       0x88 CMakeFiles/dfu_no_serial_nrf52832_xxAA_s132_6.0.0.dir/__/__/mesh/core/src/list.c.obj
 .text          0x0000000000000000        0x0 CMakeFiles/dfu_no_serial_nrf52832_xxAA_s132_6.0.0.dir/__/__/mesh/core/src/log.c.obj
 .data          0x0000000000000000        0x0 CMakeFiles/dfu_no_serial_nrf52832_xxAA_s132_6.0.0.dir/__/__/mesh/core/src/log.c.obj
 .bss           0x0000000000000000        0x0 CMakeFiles/dfu_no_serial_nrf52832_xxAA_s132_6.0.0.dir/__/__/mesh/core/src/log.c.obj
 .text.log_callback_logview
                0x0000000000000000       0x38 CMakeFiles/dfu_no_serial_nrf52832_xxAA_s132_6.0.0.dir/__/__/mesh/core/src/log.c.obj
 .text.log_set_callback
                0x0000000000000000        0xc CMakeFiles/dfu_no_serial_nrf52832_xxAA_s132_6.0.0.dir/__/__/mesh/core/src/log.c.obj
 .text.log_vprintf
                0x0000000000000000       0x1c CMakeFiles/dfu_no_serial_nrf52832_xxAA_s132_6.0.0.dir/__/__/mesh/core/src/log.c.obj
 .rodata.log_callback_logview.str1.4
                0x0000000000000000       0x12 CMakeFiles/dfu_no_serial_nrf52832_xxAA_s132_6.0.0.dir/__/__/mesh/core/src/log.c.obj
 .text          0x0000000000000000        0x0 CMakeFiles/dfu_no_serial_nrf52832_xxAA_s132_6.0.0.dir/__/__/mesh/core/src/flash_manager.c.obj
 .data          0x0000000000000000        0x0 CMakeFiles/dfu_no_serial_nrf52832_xxAA_s132_6.0.0.dir/__/__/mesh/core/src/flash_manager.c.obj
 .bss           0x0000000000000000        0x0 CMakeFiles/dfu_no_serial_nrf52832_xxAA_s132_6.0.0.dir/__/__/mesh/core/src/flash_manager.c.obj
 .text.flash_manager_entry_count_get
                0x0000000000000000       0xfc CMakeFiles/dfu_no_serial_nrf52832_xxAA_s132_6.0.0.dir/__/__/mesh/core/src/flash_manager.c.obj
 .text.flash_manager_entry_release
                0x0000000000000000       0x74 CMakeFiles/dfu_no_serial_nrf52832_xxAA_s132_6.0.0.dir/__/__/mesh/core/src/flash_manager.c.obj
 .text          0x0000000000000000        0x0 CMakeFiles/dfu_no_serial_nrf52832_xxAA_s132_6.0.0.dir/__/__/mesh/core/src/ccm_soft.c.obj
 .data          0x0000000000000000        0x0 CMakeFiles/dfu_no_serial_nrf52832_xxAA_s132_6.0.0.dir/__/__/mesh/core/src/ccm_soft.c.obj
 .bss           0x0000000000000000        0x0 CMakeFiles/dfu_no_serial_nrf52832_xxAA_s132_6.0.0.dir/__/__/mesh/core/src/ccm_soft.c.obj
 .text          0x0000000000000000        0x0 CMakeFiles/dfu_no_serial_nrf52832_xxAA_s132_6.0.0.dir/__/__/mesh/core/src/toolchain.c.obj
 .data          0x0000000000000000        0x0 CMakeFiles/dfu_no_serial_nrf52832_xxAA_s132_6.0.0.dir/__/__/mesh/core/src/toolchain.c.obj
 .bss           0x0000000000000000        0x0 CMakeFiles/dfu_no_serial_nrf52832_xxAA_s132_6.0.0.dir/__/__/mesh/core/src/toolchain.c.obj
 .debug_info    0x0000000000000000       0xac CMakeFiles/dfu_no_serial_nrf52832_xxAA_s132_6.0.0.dir/__/__/mesh/core/src/toolchain.c.obj
 .debug_abbrev  0x0000000000000000       0x5c CMakeFiles/dfu_no_serial_nrf52832_xxAA_s132_6.0.0.dir/__/__/mesh/core/src/toolchain.c.obj
 .debug_aranges
                0x0000000000000000       0x18 CMakeFiles/dfu_no_serial_nrf52832_xxAA_s132_6.0.0.dir/__/__/mesh/core/src/toolchain.c.obj
 .debug_line    0x0000000000000000      0x12e CMakeFiles/dfu_no_serial_nrf52832_xxAA_s132_6.0.0.dir/__/__/mesh/core/src/toolchain.c.obj
 .debug_str     0x0000000000000000      0x25a CMakeFiles/dfu_no_serial_nrf52832_xxAA_s132_6.0.0.dir/__/__/mesh/core/src/toolchain.c.obj
 .comment       0x0000000000000000       0x7f CMakeFiles/dfu_no_serial_nrf52832_xxAA_s132_6.0.0.dir/__/__/mesh/core/src/toolchain.c.obj
 .ARM.attributes
                0x0000000000000000       0x39 CMakeFiles/dfu_no_serial_nrf52832_xxAA_s132_6.0.0.dir/__/__/mesh/core/src/toolchain.c.obj
 .text          0x0000000000000000        0x0 CMakeFiles/dfu_no_serial_nrf52832_xxAA_s132_6.0.0.dir/__/__/mesh/core/src/replay_cache.c.obj
 .data          0x0000000000000000        0x0 CMakeFiles/dfu_no_serial_nrf52832_xxAA_s132_6.0.0.dir/__/__/mesh/core/src/replay_cache.c.obj
 .bss           0x0000000000000000        0x0 CMakeFiles/dfu_no_serial_nrf52832_xxAA_s132_6.0.0.dir/__/__/mesh/core/src/replay_cache.c.obj
 .text.replay_cache_on_iv_update
                0x0000000000000000       0x2c CMakeFiles/dfu_no_serial_nrf52832_xxAA_s132_6.0.0.dir/__/__/mesh/core/src/replay_cache.c.obj
 .text.replay_cache_clear
                0x0000000000000000       0x20 CMakeFiles/dfu_no_serial_nrf52832_xxAA_s132_6.0.0.dir/__/__/mesh/core/src/replay_cache.c.obj
 .text          0x0000000000000000        0x0 CMakeFiles/dfu_no_serial_nrf52832_xxAA_s132_6.0.0.dir/__/__/mesh/core/src/beacon.c.obj
 .data          0x0000000000000000        0x0 CMakeFiles/dfu_no_serial_nrf52832_xxAA_s132_6.0.0.dir/__/__/mesh/core/src/beacon.c.obj
 .bss           0x0000000000000000        0x0 CMakeFiles/dfu_no_serial_nrf52832_xxAA_s132_6.0.0.dir/__/__/mesh/core/src/beacon.c.obj
 .text          0x0000000000000000        0x0 CMakeFiles/dfu_no_serial_nrf52832_xxAA_s132_6.0.0.dir/__/__/mesh/core/src/flash_manager_internal.c.obj
 .data          0x0000000000000000        0x0 CMakeFiles/dfu_no_serial_nrf52832_xxAA_s132_6.0.0.dir/__/__/mesh/core/src/flash_manager_internal.c.obj
 .bss           0x0000000000000000        0x0 CMakeFiles/dfu_no_serial_nrf52832_xxAA_s132_6.0.0.dir/__/__/mesh/core/src/flash_manager_internal.c.obj
 .text          0x0000000000000000        0x0 CMakeFiles/dfu_no_serial_nrf52832_xxAA_s132_6.0.0.dir/__/__/mesh/core/src/core_tx.c.obj
 .data          0x0000000000000000        0x0 CMakeFiles/dfu_no_serial_nrf52832_xxAA_s132_6.0.0.dir/__/__/mesh/core/src/core_tx.c.obj
 .bss           0x0000000000000000        0x0 CMakeFiles/dfu_no_serial_nrf52832_xxAA_s132_6.0.0.dir/__/__/mesh/core/src/core_tx.c.obj
 .text.core_tx_bearer_type_get
                0x0000000000000000       0x2c CMakeFiles/dfu_no_serial_nrf52832_xxAA_s132_6.0.0.dir/__/__/mesh/core/src/core_tx.c.obj
 .text.core_tx_bearer_count_get
                0x0000000000000000        0xc CMakeFiles/dfu_no_serial_nrf52832_xxAA_s132_6.0.0.dir/__/__/mesh/core/src/core_tx.c.obj
 .text          0x0000000000000000        0x0 CMakeFiles/dfu_no_serial_nrf52832_xxAA_s132_6.0.0.dir/__/__/mesh/core/src/heartbeat.c.obj
 .data          0x0000000000000000        0x0 CMakeFiles/dfu_no_serial_nrf52832_xxAA_s132_6.0.0.dir/__/__/mesh/core/src/heartbeat.c.obj
 .bss           0x0000000000000000        0x0 CMakeFiles/dfu_no_serial_nrf52832_xxAA_s132_6.0.0.dir/__/__/mesh/core/src/heartbeat.c.obj
 .text          0x0000000000000000        0x0 CMakeFiles/dfu_no_serial_nrf52832_xxAA_s132_6.0.0.dir/__/__/mesh/core/src/net_beacon.c.obj
 .data          0x0000000000000000        0x0 CMakeFiles/dfu_no_serial_nrf52832_xxAA_s132_6.0.0.dir/__/__/mesh/core/src/net_beacon.c.obj
 .bss           0x0000000000000000        0x0 CMakeFiles/dfu_no_serial_nrf52832_xxAA_s132_6.0.0.dir/__/__/mesh/core/src/net_beacon.c.obj
 .text.net_beacon_build
                0x0000000000000000       0x68 CMakeFiles/dfu_no_serial_nrf52832_xxAA_s132_6.0.0.dir/__/__/mesh/core/src/net_beacon.c.obj
 .text          0x0000000000000000        0x0 CMakeFiles/dfu_no_serial_nrf52832_xxAA_s132_6.0.0.dir/__/__/mesh/core/src/fsm.c.obj
 .data          0x0000000000000000        0x0 CMakeFiles/dfu_no_serial_nrf52832_xxAA_s132_6.0.0.dir/__/__/mesh/core/src/fsm.c.obj
 .bss           0x0000000000000000        0x0 CMakeFiles/dfu_no_serial_nrf52832_xxAA_s132_6.0.0.dir/__/__/mesh/core/src/fsm.c.obj
 .text.fsm_event_post_try
                0x0000000000000000      0x24c CMakeFiles/dfu_no_serial_nrf52832_xxAA_s132_6.0.0.dir/__/__/mesh/core/src/fsm.c.obj
 .text.fsm_init
                0x0000000000000000      0x100 CMakeFiles/dfu_no_serial_nrf52832_xxAA_s132_6.0.0.dir/__/__/mesh/core/src/fsm.c.obj
 .text.fsm_event_post
                0x0000000000000000       0xbc CMakeFiles/dfu_no_serial_nrf52832_xxAA_s132_6.0.0.dir/__/__/mesh/core/src/fsm.c.obj
 .text.fsm_is_processing
                0x0000000000000000        0xc CMakeFiles/dfu_no_serial_nrf52832_xxAA_s132_6.0.0.dir/__/__/mesh/core/src/fsm.c.obj
 .rodata.fsm_event_post.str1.4
                0x0000000000000000        0xb CMakeFiles/dfu_no_serial_nrf52832_xxAA_s132_6.0.0.dir/__/__/mesh/core/src/fsm.c.obj
 .rodata.fsm_event_post_try.str1.4
                0x0000000000000000       0x7c CMakeFiles/dfu_no_serial_nrf52832_xxAA_s132_6.0.0.dir/__/__/mesh/core/src/fsm.c.obj
 .rodata.fsm_init.str1.4
                0x0000000000000000        0xa CMakeFiles/dfu_no_serial_nrf52832_xxAA_s132_6.0.0.dir/__/__/mesh/core/src/fsm.c.obj
 .debug_info    0x0000000000000000     0x13e3 CMakeFiles/dfu_no_serial_nrf52832_xxAA_s132_6.0.0.dir/__/__/mesh/core/src/fsm.c.obj
 .debug_abbrev  0x0000000000000000      0x35d CMakeFiles/dfu_no_serial_nrf52832_xxAA_s132_6.0.0.dir/__/__/mesh/core/src/fsm.c.obj
 .debug_loc     0x0000000000000000      0x4f3 CMakeFiles/dfu_no_serial_nrf52832_xxAA_s132_6.0.0.dir/__/__/mesh/core/src/fsm.c.obj
 .debug_aranges
                0x0000000000000000       0x38 CMakeFiles/dfu_no_serial_nrf52832_xxAA_s132_6.0.0.dir/__/__/mesh/core/src/fsm.c.obj
 .debug_ranges  0x0000000000000000       0xd8 CMakeFiles/dfu_no_serial_nrf52832_xxAA_s132_6.0.0.dir/__/__/mesh/core/src/fsm.c.obj
 .debug_line    0x0000000000000000      0x487 CMakeFiles/dfu_no_serial_nrf52832_xxAA_s132_6.0.0.dir/__/__/mesh/core/src/fsm.c.obj
 .debug_str     0x0000000000000000      0x9e4 CMakeFiles/dfu_no_serial_nrf52832_xxAA_s132_6.0.0.dir/__/__/mesh/core/src/fsm.c.obj
 .comment       0x0000000000000000       0x7f CMakeFiles/dfu_no_serial_nrf52832_xxAA_s132_6.0.0.dir/__/__/mesh/core/src/fsm.c.obj
 .debug_frame   0x0000000000000000       0xb0 CMakeFiles/dfu_no_serial_nrf52832_xxAA_s132_6.0.0.dir/__/__/mesh/core/src/fsm.c.obj
 .ARM.attributes
                0x0000000000000000       0x39 CMakeFiles/dfu_no_serial_nrf52832_xxAA_s132_6.0.0.dir/__/__/mesh/core/src/fsm.c.obj
 .text          0x0000000000000000        0x0 CMakeFiles/dfu_no_serial_nrf52832_xxAA_s132_6.0.0.dir/__/__/mesh/core/src/core_tx_adv.c.obj
 .data          0x0000000000000000        0x0 CMakeFiles/dfu_no_serial_nrf52832_xxAA_s132_6.0.0.dir/__/__/mesh/core/src/core_tx_adv.c.obj
 .bss           0x0000000000000000        0x0 CMakeFiles/dfu_no_serial_nrf52832_xxAA_s132_6.0.0.dir/__/__/mesh/core/src/core_tx_adv.c.obj
 .text.core_tx_adv_address_set
                0x0000000000000000       0x28 CMakeFiles/dfu_no_serial_nrf52832_xxAA_s132_6.0.0.dir/__/__/mesh/core/src/core_tx_adv.c.obj
 .text          0x0000000000000000        0x0 CMakeFiles/dfu_no_serial_nrf52832_xxAA_s132_6.0.0.dir/__/__/mesh/bearer/src/ad_listener.c.obj
 .data          0x0000000000000000        0x0 CMakeFiles/dfu_no_serial_nrf52832_xxAA_s132_6.0.0.dir/__/__/mesh/bearer/src/ad_listener.c.obj
 .bss           0x0000000000000000        0x0 CMakeFiles/dfu_no_serial_nrf52832_xxAA_s132_6.0.0.dir/__/__/mesh/bearer/src/ad_listener.c.obj
 .text.ad_listener_unsubscribe
                0x0000000000000000       0x78 CMakeFiles/dfu_no_serial_nrf52832_xxAA_s132_6.0.0.dir/__/__/mesh/bearer/src/ad_listener.c.obj
 .text          0x0000000000000000        0x0 CMakeFiles/dfu_no_serial_nrf52832_xxAA_s132_6.0.0.dir/__/__/mesh/bearer/src/ad_type_filter.c.obj
 .data          0x0000000000000000        0x0 CMakeFiles/dfu_no_serial_nrf52832_xxAA_s132_6.0.0.dir/__/__/mesh/bearer/src/ad_type_filter.c.obj
 .bss           0x0000000000000000        0x0 CMakeFiles/dfu_no_serial_nrf52832_xxAA_s132_6.0.0.dir/__/__/mesh/bearer/src/ad_type_filter.c.obj
 .text.bearer_adtype_remove
                0x0000000000000000       0x28 CMakeFiles/dfu_no_serial_nrf52832_xxAA_s132_6.0.0.dir/__/__/mesh/bearer/src/ad_type_filter.c.obj
 .text.bearer_adtype_clear
                0x0000000000000000       0x10 CMakeFiles/dfu_no_serial_nrf52832_xxAA_s132_6.0.0.dir/__/__/mesh/bearer/src/ad_type_filter.c.obj
 .text.bearer_invalid_length_amount_get
                0x0000000000000000        0xc CMakeFiles/dfu_no_serial_nrf52832_xxAA_s132_6.0.0.dir/__/__/mesh/bearer/src/ad_type_filter.c.obj
 .text.bearer_adtype_filtered_amount_get
                0x0000000000000000        0xc CMakeFiles/dfu_no_serial_nrf52832_xxAA_s132_6.0.0.dir/__/__/mesh/bearer/src/ad_type_filter.c.obj
 .text          0x0000000000000000        0x0 CMakeFiles/dfu_no_serial_nrf52832_xxAA_s132_6.0.0.dir/__/__/mesh/bearer/src/adv_packet_filter.c.obj
 .data          0x0000000000000000        0x0 CMakeFiles/dfu_no_serial_nrf52832_xxAA_s132_6.0.0.dir/__/__/mesh/bearer/src/adv_packet_filter.c.obj
 .bss           0x0000000000000000        0x0 CMakeFiles/dfu_no_serial_nrf52832_xxAA_s132_6.0.0.dir/__/__/mesh/bearer/src/adv_packet_filter.c.obj
 .text.adv_filter_handle
                0x0000000000000000       0x40 CMakeFiles/dfu_no_serial_nrf52832_xxAA_s132_6.0.0.dir/__/__/mesh/bearer/src/adv_packet_filter.c.obj
 .text.bearer_adv_packet_filtering_set
                0x0000000000000000       0x1c CMakeFiles/dfu_no_serial_nrf52832_xxAA_s132_6.0.0.dir/__/__/mesh/bearer/src/adv_packet_filter.c.obj
 .text.bearer_adv_packet_remove
                0x0000000000000000       0x18 CMakeFiles/dfu_no_serial_nrf52832_xxAA_s132_6.0.0.dir/__/__/mesh/bearer/src/adv_packet_filter.c.obj
 .text.bearer_adv_packet_add
                0x0000000000000000       0x14 CMakeFiles/dfu_no_serial_nrf52832_xxAA_s132_6.0.0.dir/__/__/mesh/bearer/src/adv_packet_filter.c.obj
 .text.bearer_adv_packet_clear
                0x0000000000000000        0xc CMakeFiles/dfu_no_serial_nrf52832_xxAA_s132_6.0.0.dir/__/__/mesh/bearer/src/adv_packet_filter.c.obj
 .text.bearer_adv_packet_filter_mode_set
                0x0000000000000000       0x18 CMakeFiles/dfu_no_serial_nrf52832_xxAA_s132_6.0.0.dir/__/__/mesh/bearer/src/adv_packet_filter.c.obj
 .text.bearer_adv_packet_filtered_amount_get
                0x0000000000000000        0xc CMakeFiles/dfu_no_serial_nrf52832_xxAA_s132_6.0.0.dir/__/__/mesh/bearer/src/adv_packet_filter.c.obj
 .bss.m_adv_packet_filter
                0x0000000000000000       0x14 CMakeFiles/dfu_no_serial_nrf52832_xxAA_s132_6.0.0.dir/__/__/mesh/bearer/src/adv_packet_filter.c.obj
 .debug_info    0x0000000000000000      0xd92 CMakeFiles/dfu_no_serial_nrf52832_xxAA_s132_6.0.0.dir/__/__/mesh/bearer/src/adv_packet_filter.c.obj
 .debug_abbrev  0x0000000000000000      0x2cb CMakeFiles/dfu_no_serial_nrf52832_xxAA_s132_6.0.0.dir/__/__/mesh/bearer/src/adv_packet_filter.c.obj
 .debug_loc     0x0000000000000000      0x1b2 CMakeFiles/dfu_no_serial_nrf52832_xxAA_s132_6.0.0.dir/__/__/mesh/bearer/src/adv_packet_filter.c.obj
 .debug_aranges
                0x0000000000000000       0x50 CMakeFiles/dfu_no_serial_nrf52832_xxAA_s132_6.0.0.dir/__/__/mesh/bearer/src/adv_packet_filter.c.obj
 .debug_ranges  0x0000000000000000       0x40 CMakeFiles/dfu_no_serial_nrf52832_xxAA_s132_6.0.0.dir/__/__/mesh/bearer/src/adv_packet_filter.c.obj
 .debug_line    0x0000000000000000      0x486 CMakeFiles/dfu_no_serial_nrf52832_xxAA_s132_6.0.0.dir/__/__/mesh/bearer/src/adv_packet_filter.c.obj
 .debug_str     0x0000000000000000      0xa88 CMakeFiles/dfu_no_serial_nrf52832_xxAA_s132_6.0.0.dir/__/__/mesh/bearer/src/adv_packet_filter.c.obj
 .comment       0x0000000000000000       0x7f CMakeFiles/dfu_no_serial_nrf52832_xxAA_s132_6.0.0.dir/__/__/mesh/bearer/src/adv_packet_filter.c.obj
 .debug_frame   0x0000000000000000       0x88 CMakeFiles/dfu_no_serial_nrf52832_xxAA_s132_6.0.0.dir/__/__/mesh/bearer/src/adv_packet_filter.c.obj
 .ARM.attributes
                0x0000000000000000       0x39 CMakeFiles/dfu_no_serial_nrf52832_xxAA_s132_6.0.0.dir/__/__/mesh/bearer/src/adv_packet_filter.c.obj
 .text          0x0000000000000000        0x0 CMakeFiles/dfu_no_serial_nrf52832_xxAA_s132_6.0.0.dir/__/__/mesh/bearer/src/advertiser.c.obj
 .data          0x0000000000000000        0x0 CMakeFiles/dfu_no_serial_nrf52832_xxAA_s132_6.0.0.dir/__/__/mesh/bearer/src/advertiser.c.obj
 .bss           0x0000000000000000        0x0 CMakeFiles/dfu_no_serial_nrf52832_xxAA_s132_6.0.0.dir/__/__/mesh/bearer/src/advertiser.c.obj
 .text.advertiser_disable
                0x0000000000000000        0xc CMakeFiles/dfu_no_serial_nrf52832_xxAA_s132_6.0.0.dir/__/__/mesh/bearer/src/advertiser.c.obj
 .text.advertiser_config_set
                0x0000000000000000      0x184 CMakeFiles/dfu_no_serial_nrf52832_xxAA_s132_6.0.0.dir/__/__/mesh/bearer/src/advertiser.c.obj
 .text.advertiser_channels_set
                0x0000000000000000       0x98 CMakeFiles/dfu_no_serial_nrf52832_xxAA_s132_6.0.0.dir/__/__/mesh/bearer/src/advertiser.c.obj
 .text.advertiser_address_set
                0x0000000000000000       0x74 CMakeFiles/dfu_no_serial_nrf52832_xxAA_s132_6.0.0.dir/__/__/mesh/bearer/src/advertiser.c.obj
 .text.advertiser_config_get
                0x0000000000000000       0x24 CMakeFiles/dfu_no_serial_nrf52832_xxAA_s132_6.0.0.dir/__/__/mesh/bearer/src/advertiser.c.obj
 .text          0x0000000000000000        0x0 CMakeFiles/dfu_no_serial_nrf52832_xxAA_s132_6.0.0.dir/__/__/mesh/bearer/src/bearer_handler.c.obj
 .data          0x0000000000000000        0x0 CMakeFiles/dfu_no_serial_nrf52832_xxAA_s132_6.0.0.dir/__/__/mesh/bearer/src/bearer_handler.c.obj
 .bss           0x0000000000000000        0x0 CMakeFiles/dfu_no_serial_nrf52832_xxAA_s132_6.0.0.dir/__/__/mesh/bearer/src/bearer_handler.c.obj
 .text.bearer_handler_stop
                0x0000000000000000       0x20 CMakeFiles/dfu_no_serial_nrf52832_xxAA_s132_6.0.0.dir/__/__/mesh/bearer/src/bearer_handler.c.obj
 .text.bearer_handler_action_fire
                0x0000000000000000       0xa0 CMakeFiles/dfu_no_serial_nrf52832_xxAA_s132_6.0.0.dir/__/__/mesh/bearer/src/bearer_handler.c.obj
 .text          0x0000000000000000        0x0 CMakeFiles/dfu_no_serial_nrf52832_xxAA_s132_6.0.0.dir/__/__/mesh/bearer/src/broadcast.c.obj
 .data          0x0000000000000000        0x0 CMakeFiles/dfu_no_serial_nrf52832_xxAA_s132_6.0.0.dir/__/__/mesh/bearer/src/broadcast.c.obj
 .bss           0x0000000000000000        0x0 CMakeFiles/dfu_no_serial_nrf52832_xxAA_s132_6.0.0.dir/__/__/mesh/bearer/src/broadcast.c.obj
 .text          0x0000000000000000        0x0 CMakeFiles/dfu_no_serial_nrf52832_xxAA_s132_6.0.0.dir/__/__/mesh/bearer/src/filter_engine.c.obj
 .data          0x0000000000000000        0x0 CMakeFiles/dfu_no_serial_nrf52832_xxAA_s132_6.0.0.dir/__/__/mesh/bearer/src/filter_engine.c.obj
 .bss           0x0000000000000000        0x0 CMakeFiles/dfu_no_serial_nrf52832_xxAA_s132_6.0.0.dir/__/__/mesh/bearer/src/filter_engine.c.obj
 .text.fen_accepted_amount_get
                0x0000000000000000        0xc CMakeFiles/dfu_no_serial_nrf52832_xxAA_s132_6.0.0.dir/__/__/mesh/bearer/src/filter_engine.c.obj
 .text          0x0000000000000000        0x0 CMakeFiles/dfu_no_serial_nrf52832_xxAA_s132_6.0.0.dir/__/__/mesh/bearer/src/gap_address_filter.c.obj
 .data          0x0000000000000000        0x0 CMakeFiles/dfu_no_serial_nrf52832_xxAA_s132_6.0.0.dir/__/__/mesh/bearer/src/gap_address_filter.c.obj
 .bss           0x0000000000000000        0x0 CMakeFiles/dfu_no_serial_nrf52832_xxAA_s132_6.0.0.dir/__/__/mesh/bearer/src/gap_address_filter.c.obj
 .text.gap_address_filter_handle
                0x0000000000000000       0xb8 CMakeFiles/dfu_no_serial_nrf52832_xxAA_s132_6.0.0.dir/__/__/mesh/bearer/src/gap_address_filter.c.obj
 .text.bearer_filter_gap_addr_whitelist_set
                0x0000000000000000       0x48 CMakeFiles/dfu_no_serial_nrf52832_xxAA_s132_6.0.0.dir/__/__/mesh/bearer/src/gap_address_filter.c.obj
 .text.bearer_filter_gap_addr_blacklist_set
                0x0000000000000000       0x4c CMakeFiles/dfu_no_serial_nrf52832_xxAA_s132_6.0.0.dir/__/__/mesh/bearer/src/gap_address_filter.c.obj
 .text.bearer_filter_gap_addr_range_set
                0x0000000000000000       0x64 CMakeFiles/dfu_no_serial_nrf52832_xxAA_s132_6.0.0.dir/__/__/mesh/bearer/src/gap_address_filter.c.obj
 .text.bearer_filter_gap_addr_clear
                0x0000000000000000       0x24 CMakeFiles/dfu_no_serial_nrf52832_xxAA_s132_6.0.0.dir/__/__/mesh/bearer/src/gap_address_filter.c.obj
 .text.bearer_gap_addr_filtered_amount_get
                0x0000000000000000        0xc CMakeFiles/dfu_no_serial_nrf52832_xxAA_s132_6.0.0.dir/__/__/mesh/bearer/src/gap_address_filter.c.obj
 .bss.m_addr_filter
                0x0000000000000000       0x18 CMakeFiles/dfu_no_serial_nrf52832_xxAA_s132_6.0.0.dir/__/__/mesh/bearer/src/gap_address_filter.c.obj
 .debug_info    0x0000000000000000      0xf34 CMakeFiles/dfu_no_serial_nrf52832_xxAA_s132_6.0.0.dir/__/__/mesh/bearer/src/gap_address_filter.c.obj
 .debug_abbrev  0x0000000000000000      0x2f8 CMakeFiles/dfu_no_serial_nrf52832_xxAA_s132_6.0.0.dir/__/__/mesh/bearer/src/gap_address_filter.c.obj
 .debug_loc     0x0000000000000000      0x823 CMakeFiles/dfu_no_serial_nrf52832_xxAA_s132_6.0.0.dir/__/__/mesh/bearer/src/gap_address_filter.c.obj
 .debug_aranges
                0x0000000000000000       0x48 CMakeFiles/dfu_no_serial_nrf52832_xxAA_s132_6.0.0.dir/__/__/mesh/bearer/src/gap_address_filter.c.obj
 .debug_ranges  0x0000000000000000      0x100 CMakeFiles/dfu_no_serial_nrf52832_xxAA_s132_6.0.0.dir/__/__/mesh/bearer/src/gap_address_filter.c.obj
 .debug_line    0x0000000000000000      0x516 CMakeFiles/dfu_no_serial_nrf52832_xxAA_s132_6.0.0.dir/__/__/mesh/bearer/src/gap_address_filter.c.obj
 .debug_str     0x0000000000000000      0x9e2 CMakeFiles/dfu_no_serial_nrf52832_xxAA_s132_6.0.0.dir/__/__/mesh/bearer/src/gap_address_filter.c.obj
 .comment       0x0000000000000000       0x7f CMakeFiles/dfu_no_serial_nrf52832_xxAA_s132_6.0.0.dir/__/__/mesh/bearer/src/gap_address_filter.c.obj
 .debug_frame   0x0000000000000000       0xd4 CMakeFiles/dfu_no_serial_nrf52832_xxAA_s132_6.0.0.dir/__/__/mesh/bearer/src/gap_address_filter.c.obj
 .ARM.attributes
                0x0000000000000000       0x39 CMakeFiles/dfu_no_serial_nrf52832_xxAA_s132_6.0.0.dir/__/__/mesh/bearer/src/gap_address_filter.c.obj
 .text          0x0000000000000000        0x0 CMakeFiles/dfu_no_serial_nrf52832_xxAA_s132_6.0.0.dir/__/__/mesh/bearer/src/radio_config.c.obj
 .data          0x0000000000000000        0x0 CMakeFiles/dfu_no_serial_nrf52832_xxAA_s132_6.0.0.dir/__/__/mesh/bearer/src/radio_config.c.obj
 .bss           0x0000000000000000        0x0 CMakeFiles/dfu_no_serial_nrf52832_xxAA_s132_6.0.0.dir/__/__/mesh/bearer/src/radio_config.c.obj
 .text.radio_config_access_addr_get
                0x0000000000000000       0x58 CMakeFiles/dfu_no_serial_nrf52832_xxAA_s132_6.0.0.dir/__/__/mesh/bearer/src/radio_config.c.obj
 .text          0x0000000000000000        0x0 CMakeFiles/dfu_no_serial_nrf52832_xxAA_s132_6.0.0.dir/__/__/mesh/bearer/src/rssi_filter.c.obj
 .data          0x0000000000000000        0x0 CMakeFiles/dfu_no_serial_nrf52832_xxAA_s132_6.0.0.dir/__/__/mesh/bearer/src/rssi_filter.c.obj
 .bss           0x0000000000000000        0x0 CMakeFiles/dfu_no_serial_nrf52832_xxAA_s132_6.0.0.dir/__/__/mesh/bearer/src/rssi_filter.c.obj
 .text.rssi_filter_handle
                0x0000000000000000       0x20 CMakeFiles/dfu_no_serial_nrf52832_xxAA_s132_6.0.0.dir/__/__/mesh/bearer/src/rssi_filter.c.obj
 .text.bearer_rssi_filtering_set
                0x0000000000000000       0x38 CMakeFiles/dfu_no_serial_nrf52832_xxAA_s132_6.0.0.dir/__/__/mesh/bearer/src/rssi_filter.c.obj
 .text.bearer_rssi_filtered_amount_get
                0x0000000000000000        0xc CMakeFiles/dfu_no_serial_nrf52832_xxAA_s132_6.0.0.dir/__/__/mesh/bearer/src/rssi_filter.c.obj
 .bss.m_rssi_filter
                0x0000000000000000       0x18 CMakeFiles/dfu_no_serial_nrf52832_xxAA_s132_6.0.0.dir/__/__/mesh/bearer/src/rssi_filter.c.obj
 .debug_info    0x0000000000000000      0xc70 CMakeFiles/dfu_no_serial_nrf52832_xxAA_s132_6.0.0.dir/__/__/mesh/bearer/src/rssi_filter.c.obj
 .debug_abbrev  0x0000000000000000      0x290 CMakeFiles/dfu_no_serial_nrf52832_xxAA_s132_6.0.0.dir/__/__/mesh/bearer/src/rssi_filter.c.obj
 .debug_loc     0x0000000000000000       0xbe CMakeFiles/dfu_no_serial_nrf52832_xxAA_s132_6.0.0.dir/__/__/mesh/bearer/src/rssi_filter.c.obj
 .debug_aranges
                0x0000000000000000       0x30 CMakeFiles/dfu_no_serial_nrf52832_xxAA_s132_6.0.0.dir/__/__/mesh/bearer/src/rssi_filter.c.obj
 .debug_ranges  0x0000000000000000       0x20 CMakeFiles/dfu_no_serial_nrf52832_xxAA_s132_6.0.0.dir/__/__/mesh/bearer/src/rssi_filter.c.obj
 .debug_line    0x0000000000000000      0x3f8 CMakeFiles/dfu_no_serial_nrf52832_xxAA_s132_6.0.0.dir/__/__/mesh/bearer/src/rssi_filter.c.obj
 .debug_str     0x0000000000000000      0x89d CMakeFiles/dfu_no_serial_nrf52832_xxAA_s132_6.0.0.dir/__/__/mesh/bearer/src/rssi_filter.c.obj
 .comment       0x0000000000000000       0x7f CMakeFiles/dfu_no_serial_nrf52832_xxAA_s132_6.0.0.dir/__/__/mesh/bearer/src/rssi_filter.c.obj
 .debug_frame   0x0000000000000000       0x58 CMakeFiles/dfu_no_serial_nrf52832_xxAA_s132_6.0.0.dir/__/__/mesh/bearer/src/rssi_filter.c.obj
 .ARM.attributes
                0x0000000000000000       0x39 CMakeFiles/dfu_no_serial_nrf52832_xxAA_s132_6.0.0.dir/__/__/mesh/bearer/src/rssi_filter.c.obj
 .text          0x0000000000000000        0x0 CMakeFiles/dfu_no_serial_nrf52832_xxAA_s132_6.0.0.dir/__/__/mesh/bearer/src/scanner.c.obj
 .data          0x0000000000000000        0x0 CMakeFiles/dfu_no_serial_nrf52832_xxAA_s132_6.0.0.dir/__/__/mesh/bearer/src/scanner.c.obj
 .bss           0x0000000000000000        0x0 CMakeFiles/dfu_no_serial_nrf52832_xxAA_s132_6.0.0.dir/__/__/mesh/bearer/src/scanner.c.obj
 .text.scanner_rx_callback_set
                0x0000000000000000       0x20 CMakeFiles/dfu_no_serial_nrf52832_xxAA_s132_6.0.0.dir/__/__/mesh/bearer/src/scanner.c.obj
 .text.scanner_disable
                0x0000000000000000       0x50 CMakeFiles/dfu_no_serial_nrf52832_xxAA_s132_6.0.0.dir/__/__/mesh/bearer/src/scanner.c.obj
 .text.scanner_is_enabled
                0x0000000000000000       0x14 CMakeFiles/dfu_no_serial_nrf52832_xxAA_s132_6.0.0.dir/__/__/mesh/bearer/src/scanner.c.obj
 .text.scanner_stats_get
                0x0000000000000000        0x8 CMakeFiles/dfu_no_serial_nrf52832_xxAA_s132_6.0.0.dir/__/__/mesh/bearer/src/scanner.c.obj
 .text.scanner_config_radio_mode_set
                0x0000000000000000       0x10 CMakeFiles/dfu_no_serial_nrf52832_xxAA_s132_6.0.0.dir/__/__/mesh/bearer/src/scanner.c.obj
 .text.scanner_config_scan_time_set
                0x0000000000000000       0x88 CMakeFiles/dfu_no_serial_nrf52832_xxAA_s132_6.0.0.dir/__/__/mesh/bearer/src/scanner.c.obj
 .text.scanner_config_channels_set
                0x0000000000000000       0x50 CMakeFiles/dfu_no_serial_nrf52832_xxAA_s132_6.0.0.dir/__/__/mesh/bearer/src/scanner.c.obj
 .text.scanner_config_access_addresses_set
                0x0000000000000000       0x38 CMakeFiles/dfu_no_serial_nrf52832_xxAA_s132_6.0.0.dir/__/__/mesh/bearer/src/scanner.c.obj
 .text          0x0000000000000000        0x0 CMakeFiles/dfu_no_serial_nrf52832_xxAA_s132_6.0.0.dir/home/mazzer/work/nordic/sdk/nRF5_SDK_15.0.0/modules/nrfx/mdk/system_nrf52.c.obj
 .data          0x0000000000000000        0x0 CMakeFiles/dfu_no_serial_nrf52832_xxAA_s132_6.0.0.dir/home/mazzer/work/nordic/sdk/nRF5_SDK_15.0.0/modules/nrfx/mdk/system_nrf52.c.obj
 .bss           0x0000000000000000        0x0 CMakeFiles/dfu_no_serial_nrf52832_xxAA_s132_6.0.0.dir/home/mazzer/work/nordic/sdk/nRF5_SDK_15.0.0/modules/nrfx/mdk/system_nrf52.c.obj
 .text.SystemCoreClockUpdate
                0x0000000000000000       0x10 CMakeFiles/dfu_no_serial_nrf52832_xxAA_s132_6.0.0.dir/home/mazzer/work/nordic/sdk/nRF5_SDK_15.0.0/modules/nrfx/mdk/system_nrf52.c.obj
 .data          0x0000000000000000        0x0 CMakeFiles/dfu_no_serial_nrf52832_xxAA_s132_6.0.0.dir/home/mazzer/work/nordic/sdk/nRF5_SDK_15.0.0/modules/nrfx/mdk/gcc_startup_nrf52.S.obj
 .bss           0x0000000000000000        0x0 CMakeFiles/dfu_no_serial_nrf52832_xxAA_s132_6.0.0.dir/home/mazzer/work/nordic/sdk/nRF5_SDK_15.0.0/modules/nrfx/mdk/gcc_startup_nrf52.S.obj
 .text          0x0000000000000000        0x0 CMakeFiles/dfu_no_serial_nrf52832_xxAA_s132_6.0.0.dir/home/mazzer/work/nordic/sdk/nRF5_SDK_15.0.0/components/libraries/util/app_error.c.obj
 .data          0x0000000000000000        0x0 CMakeFiles/dfu_no_serial_nrf52832_xxAA_s132_6.0.0.dir/home/mazzer/work/nordic/sdk/nRF5_SDK_15.0.0/components/libraries/util/app_error.c.obj
 .bss           0x0000000000000000        0x0 CMakeFiles/dfu_no_serial_nrf52832_xxAA_s132_6.0.0.dir/home/mazzer/work/nordic/sdk/nRF5_SDK_15.0.0/components/libraries/util/app_error.c.obj
 .text.app_error_save_and_stop
                0x0000000000000000       0x64 CMakeFiles/dfu_no_serial_nrf52832_xxAA_s132_6.0.0.dir/home/mazzer/work/nordic/sdk/nRF5_SDK_15.0.0/components/libraries/util/app_error.c.obj
 .bss.m_error_data.8037
                0x0000000000000000       0x20 CMakeFiles/dfu_no_serial_nrf52832_xxAA_s132_6.0.0.dir/home/mazzer/work/nordic/sdk/nRF5_SDK_15.0.0/components/libraries/util/app_error.c.obj
 .text          0x0000000000000000        0x0 CMakeFiles/dfu_no_serial_nrf52832_xxAA_s132_6.0.0.dir/home/mazzer/work/nordic/sdk/nRF5_SDK_15.0.0/components/libraries/util/app_error_handler_gcc.c.obj
 .data          0x0000000000000000        0x0 CMakeFiles/dfu_no_serial_nrf52832_xxAA_s132_6.0.0.dir/home/mazzer/work/nordic/sdk/nRF5_SDK_15.0.0/components/libraries/util/app_error_handler_gcc.c.obj
 .bss           0x0000000000000000        0x0 CMakeFiles/dfu_no_serial_nrf52832_xxAA_s132_6.0.0.dir/home/mazzer/work/nordic/sdk/nRF5_SDK_15.0.0/components/libraries/util/app_error_handler_gcc.c.obj
 .text          0x0000000000000000        0x0 ../../external/rtt/librtt_nrf52832_xxAA.a(SEGGER_RTT.c.obj)
 .data          0x0000000000000000        0x0 ../../external/rtt/librtt_nrf52832_xxAA.a(SEGGER_RTT.c.obj)
 .bss           0x0000000000000000        0x0 ../../external/rtt/librtt_nrf52832_xxAA.a(SEGGER_RTT.c.obj)
 .text.SEGGER_RTT_ReadNoLock
                0x0000000000000000       0xfc ../../external/rtt/librtt_nrf52832_xxAA.a(SEGGER_RTT.c.obj)
 .text.SEGGER_RTT_Read
                0x0000000000000000      0x118 ../../external/rtt/librtt_nrf52832_xxAA.a(SEGGER_RTT.c.obj)
 .text.SEGGER_RTT_WriteSkipNoLock
                0x0000000000000000      0x1a8 ../../external/rtt/librtt_nrf52832_xxAA.a(SEGGER_RTT.c.obj)
 .text.SEGGER_RTT_WriteNoLock
                0x0000000000000000      0x168 ../../external/rtt/librtt_nrf52832_xxAA.a(SEGGER_RTT.c.obj)
 .text.SEGGER_RTT_WriteString
                0x0000000000000000      0x1f8 ../../external/rtt/librtt_nrf52832_xxAA.a(SEGGER_RTT.c.obj)
 .text.SEGGER_RTT_GetKey
                0x0000000000000000       0xf8 ../../external/rtt/librtt_nrf52832_xxAA.a(SEGGER_RTT.c.obj)
 .text.SEGGER_RTT_WaitKey
                0x0000000000000000       0xfc ../../external/rtt/librtt_nrf52832_xxAA.a(SEGGER_RTT.c.obj)
 .text.SEGGER_RTT_HasKey
                0x0000000000000000       0x6c ../../external/rtt/librtt_nrf52832_xxAA.a(SEGGER_RTT.c.obj)
 .text.SEGGER_RTT_HasData
                0x0000000000000000       0x18 ../../external/rtt/librtt_nrf52832_xxAA.a(SEGGER_RTT.c.obj)
 .text.SEGGER_RTT_AllocDownBuffer
                0x0000000000000000       0xb8 ../../external/rtt/librtt_nrf52832_xxAA.a(SEGGER_RTT.c.obj)
 .text.SEGGER_RTT_AllocUpBuffer
                0x0000000000000000       0xd4 ../../external/rtt/librtt_nrf52832_xxAA.a(SEGGER_RTT.c.obj)
 .text.SEGGER_RTT_ConfigUpBuffer
                0x0000000000000000       0xd0 ../../external/rtt/librtt_nrf52832_xxAA.a(SEGGER_RTT.c.obj)
 .text.SEGGER_RTT_ConfigDownBuffer
                0x0000000000000000       0xb4 ../../external/rtt/librtt_nrf52832_xxAA.a(SEGGER_RTT.c.obj)
 .text.SEGGER_RTT_SetNameUpBuffer
                0x0000000000000000       0x90 ../../external/rtt/librtt_nrf52832_xxAA.a(SEGGER_RTT.c.obj)
 .text.SEGGER_RTT_SetNameDownBuffer
                0x0000000000000000       0x90 ../../external/rtt/librtt_nrf52832_xxAA.a(SEGGER_RTT.c.obj)
 .text.SEGGER_RTT_Init
                0x0000000000000000       0x64 ../../external/rtt/librtt_nrf52832_xxAA.a(SEGGER_RTT.c.obj)
 .text.SEGGER_RTT_SetTerminal
                0x0000000000000000      0x16c ../../external/rtt/librtt_nrf52832_xxAA.a(SEGGER_RTT.c.obj)
 .text.SEGGER_RTT_TerminalOut
                0x0000000000000000      0x4d8 ../../external/rtt/librtt_nrf52832_xxAA.a(SEGGER_RTT.c.obj)
 .bss._ActiveTerminal
                0x0000000000000000        0x1 ../../external/rtt/librtt_nrf52832_xxAA.a(SEGGER_RTT.c.obj)
 .rodata._aTerminalId
                0x0000000000000000       0x10 ../../external/rtt/librtt_nrf52832_xxAA.a(SEGGER_RTT.c.obj)
 .text          0x0000000000000000        0x0 ../../external/rtt/librtt_nrf52832_xxAA.a(SEGGER_RTT_printf.c.obj)
 .data          0x0000000000000000        0x0 ../../external/rtt/librtt_nrf52832_xxAA.a(SEGGER_RTT_printf.c.obj)
 .bss           0x0000000000000000        0x0 ../../external/rtt/librtt_nrf52832_xxAA.a(SEGGER_RTT_printf.c.obj)
 .text          0x0000000000000000        0x0 ../../external/micro-ecc/libuECC_nrf52832_xxAA.a(uECC.c.obj)
 .data          0x0000000000000000        0x0 ../../external/micro-ecc/libuECC_nrf52832_xxAA.a(uECC.c.obj)
 .bss           0x0000000000000000        0x0 ../../external/micro-ecc/libuECC_nrf52832_xxAA.a(uECC.c.obj)
 .text.HMAC_finish
                0x0000000000000000       0x70 ../../external/micro-ecc/libuECC_nrf52832_xxAA.a(uECC.c.obj)
 .text.uECC_vli_mmod
                0x0000000000000000      0x418 ../../external/micro-ecc/libuECC_nrf52832_xxAA.a(uECC.c.obj)
 .text.uECC_vli_modSub.isra.2
                0x0000000000000000       0x98 ../../external/micro-ecc/libuECC_nrf52832_xxAA.a(uECC.c.obj)
 .text.bits2int
                0x0000000000000000      0x160 ../../external/micro-ecc/libuECC_nrf52832_xxAA.a(uECC.c.obj)
 .text.uECC_sign_with_k
                0x0000000000000000      0x630 ../../external/micro-ecc/libuECC_nrf52832_xxAA.a(uECC.c.obj)
 .text.uECC_set_rng
                0x0000000000000000        0xc ../../external/micro-ecc/libuECC_nrf52832_xxAA.a(uECC.c.obj)
 .text.uECC_get_rng
                0x0000000000000000        0xc ../../external/micro-ecc/libuECC_nrf52832_xxAA.a(uECC.c.obj)
 .text.uECC_curve_private_key_size
                0x0000000000000000       0x10 ../../external/micro-ecc/libuECC_nrf52832_xxAA.a(uECC.c.obj)
 .text.uECC_curve_public_key_size
                0x0000000000000000        0x8 ../../external/micro-ecc/libuECC_nrf52832_xxAA.a(uECC.c.obj)
 .text.uECC_valid_point
                0x0000000000000000      0x154 ../../external/micro-ecc/libuECC_nrf52832_xxAA.a(uECC.c.obj)
 .text.uECC_compute_public_key
                0x0000000000000000      0x2e8 ../../external/micro-ecc/libuECC_nrf52832_xxAA.a(uECC.c.obj)
 .text.uECC_sign
                0x0000000000000000       0x5c ../../external/micro-ecc/libuECC_nrf52832_xxAA.a(uECC.c.obj)
 .text.uECC_sign_deterministic
                0x0000000000000000      0x414 ../../external/micro-ecc/libuECC_nrf52832_xxAA.a(uECC.c.obj)
 .text.uECC_verify
                0x0000000000000000      0x960 ../../external/micro-ecc/libuECC_nrf52832_xxAA.a(uECC.c.obj)
 .text          0x0000000000000000        0x0 /usr/bin/../lib/gcc/arm-none-eabi/7.2.1/../../../../arm-none-eabi/lib/thumb/v7e-m/fpv4-sp/hard/libg_nano.a(lib_a-exit.o)
 .data          0x0000000000000000        0x0 /usr/bin/../lib/gcc/arm-none-eabi/7.2.1/../../../../arm-none-eabi/lib/thumb/v7e-m/fpv4-sp/hard/libg_nano.a(lib_a-exit.o)
 .bss           0x0000000000000000        0x0 /usr/bin/../lib/gcc/arm-none-eabi/7.2.1/../../../../arm-none-eabi/lib/thumb/v7e-m/fpv4-sp/hard/libg_nano.a(lib_a-exit.o)
 .text          0x0000000000000000        0x0 /usr/bin/../lib/gcc/arm-none-eabi/7.2.1/../../../../arm-none-eabi/lib/thumb/v7e-m/fpv4-sp/hard/libg_nano.a(lib_a-impure.o)
 .data          0x0000000000000000        0x0 /usr/bin/../lib/gcc/arm-none-eabi/7.2.1/../../../../arm-none-eabi/lib/thumb/v7e-m/fpv4-sp/hard/libg_nano.a(lib_a-impure.o)
 .bss           0x0000000000000000        0x0 /usr/bin/../lib/gcc/arm-none-eabi/7.2.1/../../../../arm-none-eabi/lib/thumb/v7e-m/fpv4-sp/hard/libg_nano.a(lib_a-impure.o)
 .text          0x0000000000000000        0x0 /usr/bin/../lib/gcc/arm-none-eabi/7.2.1/../../../../arm-none-eabi/lib/thumb/v7e-m/fpv4-sp/hard/libg_nano.a(lib_a-init.o)
 .data          0x0000000000000000        0x0 /usr/bin/../lib/gcc/arm-none-eabi/7.2.1/../../../../arm-none-eabi/lib/thumb/v7e-m/fpv4-sp/hard/libg_nano.a(lib_a-init.o)
 .bss           0x0000000000000000        0x0 /usr/bin/../lib/gcc/arm-none-eabi/7.2.1/../../../../arm-none-eabi/lib/thumb/v7e-m/fpv4-sp/hard/libg_nano.a(lib_a-init.o)
 .text          0x0000000000000000        0x0 /usr/bin/../lib/gcc/arm-none-eabi/7.2.1/../../../../arm-none-eabi/lib/thumb/v7e-m/fpv4-sp/hard/libg_nano.a(lib_a-malloc.o)
 .data          0x0000000000000000        0x0 /usr/bin/../lib/gcc/arm-none-eabi/7.2.1/../../../../arm-none-eabi/lib/thumb/v7e-m/fpv4-sp/hard/libg_nano.a(lib_a-malloc.o)
 .bss           0x0000000000000000        0x0 /usr/bin/../lib/gcc/arm-none-eabi/7.2.1/../../../../arm-none-eabi/lib/thumb/v7e-m/fpv4-sp/hard/libg_nano.a(lib_a-malloc.o)
 .text          0x0000000000000000        0x0 /usr/bin/../lib/gcc/arm-none-eabi/7.2.1/../../../../arm-none-eabi/lib/thumb/v7e-m/fpv4-sp/hard/libg_nano.a(lib_a-memcmp.o)
 .data          0x0000000000000000        0x0 /usr/bin/../lib/gcc/arm-none-eabi/7.2.1/../../../../arm-none-eabi/lib/thumb/v7e-m/fpv4-sp/hard/libg_nano.a(lib_a-memcmp.o)
 .bss           0x0000000000000000        0x0 /usr/bin/../lib/gcc/arm-none-eabi/7.2.1/../../../../arm-none-eabi/lib/thumb/v7e-m/fpv4-sp/hard/libg_nano.a(lib_a-memcmp.o)
 .text          0x0000000000000000        0x0 /usr/bin/../lib/gcc/arm-none-eabi/7.2.1/../../../../arm-none-eabi/lib/thumb/v7e-m/fpv4-sp/hard/libg_nano.a(lib_a-memcpy-stub.o)
 .data          0x0000000000000000        0x0 /usr/bin/../lib/gcc/arm-none-eabi/7.2.1/../../../../arm-none-eabi/lib/thumb/v7e-m/fpv4-sp/hard/libg_nano.a(lib_a-memcpy-stub.o)
 .bss           0x0000000000000000        0x0 /usr/bin/../lib/gcc/arm-none-eabi/7.2.1/../../../../arm-none-eabi/lib/thumb/v7e-m/fpv4-sp/hard/libg_nano.a(lib_a-memcpy-stub.o)
 .text          0x0000000000000000        0x0 /usr/bin/../lib/gcc/arm-none-eabi/7.2.1/../../../../arm-none-eabi/lib/thumb/v7e-m/fpv4-sp/hard/libg_nano.a(lib_a-memset.o)
 .data          0x0000000000000000        0x0 /usr/bin/../lib/gcc/arm-none-eabi/7.2.1/../../../../arm-none-eabi/lib/thumb/v7e-m/fpv4-sp/hard/libg_nano.a(lib_a-memset.o)
 .bss           0x0000000000000000        0x0 /usr/bin/../lib/gcc/arm-none-eabi/7.2.1/../../../../arm-none-eabi/lib/thumb/v7e-m/fpv4-sp/hard/libg_nano.a(lib_a-memset.o)
 .text          0x0000000000000000        0x0 /usr/bin/../lib/gcc/arm-none-eabi/7.2.1/../../../../arm-none-eabi/lib/thumb/v7e-m/fpv4-sp/hard/libg_nano.a(lib_a-nano-freer.o)
 .data          0x0000000000000000        0x0 /usr/bin/../lib/gcc/arm-none-eabi/7.2.1/../../../../arm-none-eabi/lib/thumb/v7e-m/fpv4-sp/hard/libg_nano.a(lib_a-nano-freer.o)
 .bss           0x0000000000000000        0x0 /usr/bin/../lib/gcc/arm-none-eabi/7.2.1/../../../../arm-none-eabi/lib/thumb/v7e-m/fpv4-sp/hard/libg_nano.a(lib_a-nano-freer.o)
 .text          0x0000000000000000        0x0 /usr/bin/../lib/gcc/arm-none-eabi/7.2.1/../../../../arm-none-eabi/lib/thumb/v7e-m/fpv4-sp/hard/libg_nano.a(lib_a-nano-mallocr.o)
 .data          0x0000000000000000        0x0 /usr/bin/../lib/gcc/arm-none-eabi/7.2.1/../../../../arm-none-eabi/lib/thumb/v7e-m/fpv4-sp/hard/libg_nano.a(lib_a-nano-mallocr.o)
 .bss           0x0000000000000000        0x0 /usr/bin/../lib/gcc/arm-none-eabi/7.2.1/../../../../arm-none-eabi/lib/thumb/v7e-m/fpv4-sp/hard/libg_nano.a(lib_a-nano-mallocr.o)
 .text          0x0000000000000000        0x0 /usr/bin/../lib/gcc/arm-none-eabi/7.2.1/../../../../arm-none-eabi/lib/thumb/v7e-m/fpv4-sp/hard/libg_nano.a(lib_a-sbrkr.o)
 .data          0x0000000000000000        0x0 /usr/bin/../lib/gcc/arm-none-eabi/7.2.1/../../../../arm-none-eabi/lib/thumb/v7e-m/fpv4-sp/hard/libg_nano.a(lib_a-sbrkr.o)
 .bss           0x0000000000000000        0x0 /usr/bin/../lib/gcc/arm-none-eabi/7.2.1/../../../../arm-none-eabi/lib/thumb/v7e-m/fpv4-sp/hard/libg_nano.a(lib_a-sbrkr.o)
 .text          0x0000000000000000        0x0 /usr/bin/../lib/gcc/arm-none-eabi/7.2.1/../../../../arm-none-eabi/lib/thumb/v7e-m/fpv4-sp/hard/libg_nano.a(lib_a-strcpy.o)
 .data          0x0000000000000000        0x0 /usr/bin/../lib/gcc/arm-none-eabi/7.2.1/../../../../arm-none-eabi/lib/thumb/v7e-m/fpv4-sp/hard/libg_nano.a(lib_a-strcpy.o)
 .bss           0x0000000000000000        0x0 /usr/bin/../lib/gcc/arm-none-eabi/7.2.1/../../../../arm-none-eabi/lib/thumb/v7e-m/fpv4-sp/hard/libg_nano.a(lib_a-strcpy.o)
 .data          0x0000000000000000        0x0 /usr/bin/../lib/gcc/arm-none-eabi/7.2.1/../../../../arm-none-eabi/lib/thumb/v7e-m/fpv4-sp/hard/libg_nano.a(lib_a-strlen.o)
 .bss           0x0000000000000000        0x0 /usr/bin/../lib/gcc/arm-none-eabi/7.2.1/../../../../arm-none-eabi/lib/thumb/v7e-m/fpv4-sp/hard/libg_nano.a(lib_a-strlen.o)
 .text          0x0000000000000000        0x0 /usr/bin/../lib/gcc/arm-none-eabi/7.2.1/../../../../arm-none-eabi/lib/thumb/v7e-m/fpv4-sp/hard/libg_nano.a(lib_a-strrchr.o)
 .data          0x0000000000000000        0x0 /usr/bin/../lib/gcc/arm-none-eabi/7.2.1/../../../../arm-none-eabi/lib/thumb/v7e-m/fpv4-sp/hard/libg_nano.a(lib_a-strrchr.o)
 .bss           0x0000000000000000        0x0 /usr/bin/../lib/gcc/arm-none-eabi/7.2.1/../../../../arm-none-eabi/lib/thumb/v7e-m/fpv4-sp/hard/libg_nano.a(lib_a-strrchr.o)
 .text          0x0000000000000000        0x0 /usr/bin/../lib/gcc/arm-none-eabi/7.2.1/../../../../arm-none-eabi/lib/thumb/v7e-m/fpv4-sp/hard/libg_nano.a(lib_a-mlock.o)
 .data          0x0000000000000000        0x0 /usr/bin/../lib/gcc/arm-none-eabi/7.2.1/../../../../arm-none-eabi/lib/thumb/v7e-m/fpv4-sp/hard/libg_nano.a(lib_a-mlock.o)
 .bss           0x0000000000000000        0x0 /usr/bin/../lib/gcc/arm-none-eabi/7.2.1/../../../../arm-none-eabi/lib/thumb/v7e-m/fpv4-sp/hard/libg_nano.a(lib_a-mlock.o)
 .text          0x0000000000000000        0x0 /usr/bin/../lib/gcc/arm-none-eabi/7.2.1/../../../../arm-none-eabi/lib/thumb/v7e-m/fpv4-sp/hard/libg_nano.a(lib_a-reent.o)
 .data          0x0000000000000000        0x0 /usr/bin/../lib/gcc/arm-none-eabi/7.2.1/../../../../arm-none-eabi/lib/thumb/v7e-m/fpv4-sp/hard/libg_nano.a(lib_a-reent.o)
 .bss           0x0000000000000000        0x0 /usr/bin/../lib/gcc/arm-none-eabi/7.2.1/../../../../arm-none-eabi/lib/thumb/v7e-m/fpv4-sp/hard/libg_nano.a(lib_a-reent.o)
 .text.cleanup_glue
                0x0000000000000000       0x1a /usr/bin/../lib/gcc/arm-none-eabi/7.2.1/../../../../arm-none-eabi/lib/thumb/v7e-m/fpv4-sp/hard/libg_nano.a(lib_a-reent.o)
 .text._reclaim_reent
                0x0000000000000000       0xb8 /usr/bin/../lib/gcc/arm-none-eabi/7.2.1/../../../../arm-none-eabi/lib/thumb/v7e-m/fpv4-sp/hard/libg_nano.a(lib_a-reent.o)
 .text          0x0000000000000000        0x0 /usr/bin/../lib/gcc/arm-none-eabi/7.2.1/../../../../arm-none-eabi/lib/thumb/v7e-m/fpv4-sp/hard/libg_nano.a(lib_a-strchr.o)
 .data          0x0000000000000000        0x0 /usr/bin/../lib/gcc/arm-none-eabi/7.2.1/../../../../arm-none-eabi/lib/thumb/v7e-m/fpv4-sp/hard/libg_nano.a(lib_a-strchr.o)
 .bss           0x0000000000000000        0x0 /usr/bin/../lib/gcc/arm-none-eabi/7.2.1/../../../../arm-none-eabi/lib/thumb/v7e-m/fpv4-sp/hard/libg_nano.a(lib_a-strchr.o)
 .text          0x0000000000000000        0x0 /usr/bin/../lib/gcc/arm-none-eabi/7.2.1/thumb/v7e-m/fpv4-sp/hard/crtend.o
 .data          0x0000000000000000        0x0 /usr/bin/../lib/gcc/arm-none-eabi/7.2.1/thumb/v7e-m/fpv4-sp/hard/crtend.o
 .bss           0x0000000000000000        0x0 /usr/bin/../lib/gcc/arm-none-eabi/7.2.1/thumb/v7e-m/fpv4-sp/hard/crtend.o
 .text          0x0000000000000000        0x0 /usr/bin/../lib/gcc/arm-none-eabi/7.2.1/thumb/v7e-m/fpv4-sp/hard/crtn.o
 .data          0x0000000000000000        0x0 /usr/bin/../lib/gcc/arm-none-eabi/7.2.1/thumb/v7e-m/fpv4-sp/hard/crtn.o
 .bss           0x0000000000000000        0x0 /usr/bin/../lib/gcc/arm-none-eabi/7.2.1/thumb/v7e-m/fpv4-sp/hard/crtn.o
 .text          0x0000000000000000        0x0 /usr/bin/../lib/gcc/arm-none-eabi/7.2.1/../../../../arm-none-eabi/lib/thumb/v7e-m/fpv4-sp/hard/libnosys.a(sbrk.o)
 .data          0x0000000000000000        0x0 /usr/bin/../lib/gcc/arm-none-eabi/7.2.1/../../../../arm-none-eabi/lib/thumb/v7e-m/fpv4-sp/hard/libnosys.a(sbrk.o)
 .bss           0x0000000000000000        0x0 /usr/bin/../lib/gcc/arm-none-eabi/7.2.1/../../../../arm-none-eabi/lib/thumb/v7e-m/fpv4-sp/hard/libnosys.a(sbrk.o)
 .text          0x0000000000000000        0x0 /usr/bin/../lib/gcc/arm-none-eabi/7.2.1/../../../../arm-none-eabi/lib/thumb/v7e-m/fpv4-sp/hard/libnosys.a(_exit.o)
 .data          0x0000000000000000        0x0 /usr/bin/../lib/gcc/arm-none-eabi/7.2.1/../../../../arm-none-eabi/lib/thumb/v7e-m/fpv4-sp/hard/libnosys.a(_exit.o)
 .bss           0x0000000000000000        0x0 /usr/bin/../lib/gcc/arm-none-eabi/7.2.1/../../../../arm-none-eabi/lib/thumb/v7e-m/fpv4-sp/hard/libnosys.a(_exit.o)

Memory Configuration

Name             Origin             Length             Attributes
FLASH            0x0000000000026000 0x0000000000051000 xr
RAM              0x00000000200032c8 0x000000000000ca38 xrw
*default*        0x0000000000000000 0xffffffffffffffff

Linker script and memory map


.text           0x0000000000026000    0x1ffd0
 *(.isr_vector)
 .isr_vector    0x0000000000026000      0x200 CMakeFiles/dfu_no_serial_nrf52832_xxAA_s132_6.0.0.dir/home/mazzer/work/nordic/sdk/nRF5_SDK_15.0.0/modules/nrfx/mdk/gcc_startup_nrf52.S.obj
                0x0000000000026000                __isr_vector
 *(.text*)
 .text          0x0000000000026200       0x40 /usr/bin/../lib/gcc/arm-none-eabi/7.2.1/thumb/v7e-m/fpv4-sp/hard/crtbegin.o
 .text          0x0000000000026240       0x74 /usr/bin/../lib/gcc/arm-none-eabi/7.2.1/../../../../arm-none-eabi/lib/thumb/v7e-m/fpv4-sp/hard/crt0.o
                0x0000000000026240                _mainCRTStartup
                0x0000000000026240                _start
 .text.sd_app_evt_wait
                0x00000000000262b4        0x4 CMakeFiles/dfu_no_serial_nrf52832_xxAA_s132_6.0.0.dir/src/main.c.obj
 .text.config_server_evt_cb
                0x00000000000262b8       0x88 CMakeFiles/dfu_no_serial_nrf52832_xxAA_s132_6.0.0.dir/src/main.c.obj
 .text.mesh_evt_handler
                0x0000000000026340       0xe0 CMakeFiles/dfu_no_serial_nrf52832_xxAA_s132_6.0.0.dir/src/main.c.obj
 .text.startup.main
                0x0000000000026420      0x448 CMakeFiles/dfu_no_serial_nrf52832_xxAA_s132_6.0.0.dir/src/main.c.obj
                0x0000000000026420                main
 .text.mesh_evt_handler
                0x0000000000026868       0x10 CMakeFiles/dfu_no_serial_nrf52832_xxAA_s132_6.0.0.dir/__/__/mesh/stack/src/mesh_stack.c.obj
 .text.mesh_stack_init
                0x0000000000026878       0x94 CMakeFiles/dfu_no_serial_nrf52832_xxAA_s132_6.0.0.dir/__/__/mesh/stack/src/mesh_stack.c.obj
                0x0000000000026878                mesh_stack_init
 .text.mesh_stack_start
                0x000000000002690c        0x4 CMakeFiles/dfu_no_serial_nrf52832_xxAA_s132_6.0.0.dir/__/__/mesh/stack/src/mesh_stack.c.obj
                0x000000000002690c                mesh_stack_start
 .text.mesh_stack_provisioning_data_store
                0x0000000000026910       0x78 CMakeFiles/dfu_no_serial_nrf52832_xxAA_s132_6.0.0.dir/__/__/mesh/stack/src/mesh_stack.c.obj
                0x0000000000026910                mesh_stack_provisioning_data_store
 .text.mesh_stack_config_clear
                0x0000000000026988       0x14 CMakeFiles/dfu_no_serial_nrf52832_xxAA_s132_6.0.0.dir/__/__/mesh/stack/src/mesh_stack.c.obj
                0x0000000000026988                mesh_stack_config_clear
 .text.mesh_stack_device_reset
                0x000000000002699c       0x20 CMakeFiles/dfu_no_serial_nrf52832_xxAA_s132_6.0.0.dir/__/__/mesh/stack/src/mesh_stack.c.obj
                0x000000000002699c                mesh_stack_device_reset
 .text.sd_evt_get
                0x00000000000269bc        0x4 CMakeFiles/dfu_no_serial_nrf52832_xxAA_s132_6.0.0.dir/__/common/src/mesh_softdevice_init.c.obj
 .text.sd_softdevice_enable
                0x00000000000269c0        0x4 CMakeFiles/dfu_no_serial_nrf52832_xxAA_s132_6.0.0.dir/__/common/src/mesh_softdevice_init.c.obj
 .text.sd_ble_enable
                0x00000000000269c4        0x4 CMakeFiles/dfu_no_serial_nrf52832_xxAA_s132_6.0.0.dir/__/common/src/mesh_softdevice_init.c.obj
 .text.SWI2_EGU2_IRQHandler
                0x00000000000269c8       0x1c CMakeFiles/dfu_no_serial_nrf52832_xxAA_s132_6.0.0.dir/__/common/src/mesh_softdevice_init.c.obj
                0x00000000000269c8                SWI2_EGU2_IRQHandler
 .text.mesh_softdevice_init
                0x00000000000269e4      0x1f8 CMakeFiles/dfu_no_serial_nrf52832_xxAA_s132_6.0.0.dir/__/common/src/mesh_softdevice_init.c.obj
                0x00000000000269e4                mesh_softdevice_init
 .text.prov_evt_handler
                0x0000000000026bdc       0x70 CMakeFiles/dfu_no_serial_nrf52832_xxAA_s132_6.0.0.dir/__/common/src/mesh_provisionee.c.obj
 .text.mesh_provisionee_prov_start
                0x0000000000026c4c       0x88 CMakeFiles/dfu_no_serial_nrf52832_xxAA_s132_6.0.0.dir/__/common/src/mesh_provisionee.c.obj
                0x0000000000026c4c                mesh_provisionee_prov_start
 .text.hal_led_mask_set
                0x0000000000026cd4       0x14 CMakeFiles/dfu_no_serial_nrf52832_xxAA_s132_6.0.0.dir/__/common/src/simple_hal.c.obj
                0x0000000000026cd4                hal_led_mask_set
 .text.hal_led_blink_ms
                0x0000000000026ce8       0x50 CMakeFiles/dfu_no_serial_nrf52832_xxAA_s132_6.0.0.dir/__/common/src/simple_hal.c.obj
                0x0000000000026ce8                hal_led_blink_ms
 .text.hal_leds_init
                0x0000000000026d38       0x3c CMakeFiles/dfu_no_serial_nrf52832_xxAA_s132_6.0.0.dir/__/common/src/simple_hal.c.obj
                0x0000000000026d38                hal_leds_init
 .text.GPIOTE_IRQHandler
                0x0000000000026d74       0x70 CMakeFiles/dfu_no_serial_nrf52832_xxAA_s132_6.0.0.dir/__/common/src/simple_hal.c.obj
                0x0000000000026d74                GPIOTE_IRQHandler
 .text.schedule_publication_timer
                0x0000000000026de4      0x2d0 CMakeFiles/dfu_no_serial_nrf52832_xxAA_s132_6.0.0.dir/__/__/mesh/access/src/access_publish.c.obj
 .text.publish_timer_tick
                0x00000000000270b4      0x140 CMakeFiles/dfu_no_serial_nrf52832_xxAA_s132_6.0.0.dir/__/__/mesh/access/src/access_publish.c.obj
 .text.access_publish_init
                0x00000000000271f4       0x38 CMakeFiles/dfu_no_serial_nrf52832_xxAA_s132_6.0.0.dir/__/__/mesh/access/src/access_publish.c.obj
                0x00000000000271f4                access_publish_init
 .text.access_publish_period_set
                0x000000000002722c      0x118 CMakeFiles/dfu_no_serial_nrf52832_xxAA_s132_6.0.0.dir/__/__/mesh/access/src/access_publish.c.obj
                0x000000000002722c                access_publish_period_set
 .text.access_publish_period_get
                0x0000000000027344       0x2c CMakeFiles/dfu_no_serial_nrf52832_xxAA_s132_6.0.0.dir/__/__/mesh/access/src/access_publish.c.obj
                0x0000000000027344                access_publish_period_get
 .text.flash_manager_mem_available
                0x0000000000027370        0x4 CMakeFiles/dfu_no_serial_nrf52832_xxAA_s132_6.0.0.dir/__/__/mesh/access/src/access.c.obj
 .text.flash_invalidate_complete
                0x0000000000027374        0x8 CMakeFiles/dfu_no_serial_nrf52832_xxAA_s132_6.0.0.dir/__/__/mesh/access/src/access.c.obj
 .text.access_flash_config_clear
                0x000000000002737c       0x28 CMakeFiles/dfu_no_serial_nrf52832_xxAA_s132_6.0.0.dir/__/__/mesh/access/src/access.c.obj
 .text.handle_incoming
                0x00000000000273a4      0x19c CMakeFiles/dfu_no_serial_nrf52832_xxAA_s132_6.0.0.dir/__/__/mesh/access/src/access.c.obj
 .text.mesh_evt_cb
                0x0000000000027540      0x158 CMakeFiles/dfu_no_serial_nrf52832_xxAA_s132_6.0.0.dir/__/__/mesh/access/src/access.c.obj
 .text.add_flash_manager
                0x0000000000027698       0x58 CMakeFiles/dfu_no_serial_nrf52832_xxAA_s132_6.0.0.dir/__/__/mesh/access/src/access.c.obj
 .text.flash_write_complete
                0x00000000000276f0       0x4c CMakeFiles/dfu_no_serial_nrf52832_xxAA_s132_6.0.0.dir/__/__/mesh/access/src/access.c.obj
 .text.access_flash_config_store
                0x000000000002773c      0x158 CMakeFiles/dfu_no_serial_nrf52832_xxAA_s132_6.0.0.dir/__/__/mesh/access/src/access.c.obj
                0x000000000002773c                access_flash_config_store
 .text.flash_remove_complete
                0x0000000000027894       0xb0 CMakeFiles/dfu_no_serial_nrf52832_xxAA_s132_6.0.0.dir/__/__/mesh/access/src/access.c.obj
 .text.access_flash_config_load
                0x0000000000027944      0x290 CMakeFiles/dfu_no_serial_nrf52832_xxAA_s132_6.0.0.dir/__/__/mesh/access/src/access.c.obj
                0x0000000000027944                access_flash_config_load
 .text.access_clear
                0x0000000000027bd4       0x6c CMakeFiles/dfu_no_serial_nrf52832_xxAA_s132_6.0.0.dir/__/__/mesh/access/src/access.c.obj
                0x0000000000027bd4                access_clear
 .text.access_init
                0x0000000000027c40       0xb4 CMakeFiles/dfu_no_serial_nrf52832_xxAA_s132_6.0.0.dir/__/__/mesh/access/src/access.c.obj
                0x0000000000027c40                access_init
 .text.access_model_add
                0x0000000000027cf4      0x20c CMakeFiles/dfu_no_serial_nrf52832_xxAA_s132_6.0.0.dir/__/__/mesh/access/src/access.c.obj
                0x0000000000027cf4                access_model_add
 .text.access_model_publish
                0x0000000000027f00      0x3b8 CMakeFiles/dfu_no_serial_nrf52832_xxAA_s132_6.0.0.dir/__/__/mesh/access/src/access.c.obj
                0x0000000000027f00                access_model_publish
 .text.access_model_reply
                0x00000000000282b8      0x3d4 CMakeFiles/dfu_no_serial_nrf52832_xxAA_s132_6.0.0.dir/__/__/mesh/access/src/access.c.obj
                0x00000000000282b8                access_model_reply
 .text.access_model_publish_address_set
                0x000000000002868c       0x3c CMakeFiles/dfu_no_serial_nrf52832_xxAA_s132_6.0.0.dir/__/__/mesh/access/src/access.c.obj
                0x000000000002868c                access_model_publish_address_set
 .text.access_model_publish_address_get
                0x00000000000286c8       0x2c CMakeFiles/dfu_no_serial_nrf52832_xxAA_s132_6.0.0.dir/__/__/mesh/access/src/access.c.obj
                0x00000000000286c8                access_model_publish_address_get
 .text.access_model_publish_retransmit_set
                0x00000000000286f4       0x58 CMakeFiles/dfu_no_serial_nrf52832_xxAA_s132_6.0.0.dir/__/__/mesh/access/src/access.c.obj
                0x00000000000286f4                access_model_publish_retransmit_set
 .text.access_model_publish_retransmit_get
                0x000000000002874c       0x2c CMakeFiles/dfu_no_serial_nrf52832_xxAA_s132_6.0.0.dir/__/__/mesh/access/src/access.c.obj
                0x000000000002874c                access_model_publish_retransmit_get
 .text.access_model_publish_period_set
                0x0000000000028778       0x78 CMakeFiles/dfu_no_serial_nrf52832_xxAA_s132_6.0.0.dir/__/__/mesh/access/src/access.c.obj
                0x0000000000028778                access_model_publish_period_set
 .text.access_model_publish_period_get
                0x00000000000287f0       0x40 CMakeFiles/dfu_no_serial_nrf52832_xxAA_s132_6.0.0.dir/__/__/mesh/access/src/access.c.obj
                0x00000000000287f0                access_model_publish_period_get
 .text.access_model_subscription_add
                0x0000000000028830       0x64 CMakeFiles/dfu_no_serial_nrf52832_xxAA_s132_6.0.0.dir/__/__/mesh/access/src/access.c.obj
                0x0000000000028830                access_model_subscription_add
 .text.access_model_subscription_remove
                0x0000000000028894       0x60 CMakeFiles/dfu_no_serial_nrf52832_xxAA_s132_6.0.0.dir/__/__/mesh/access/src/access.c.obj
                0x0000000000028894                access_model_subscription_remove
 .text.access_model_subscriptions_get
                0x00000000000288f4       0x80 CMakeFiles/dfu_no_serial_nrf52832_xxAA_s132_6.0.0.dir/__/__/mesh/access/src/access.c.obj
                0x00000000000288f4                access_model_subscriptions_get
 .text.access_model_application_bind
                0x0000000000028974       0x58 CMakeFiles/dfu_no_serial_nrf52832_xxAA_s132_6.0.0.dir/__/__/mesh/access/src/access.c.obj
                0x0000000000028974                access_model_application_bind
 .text.access_model_application_unbind
                0x00000000000289cc       0x58 CMakeFiles/dfu_no_serial_nrf52832_xxAA_s132_6.0.0.dir/__/__/mesh/access/src/access.c.obj
                0x00000000000289cc                access_model_application_unbind
 .text.access_model_applications_get
                0x0000000000028a24      0x100 CMakeFiles/dfu_no_serial_nrf52832_xxAA_s132_6.0.0.dir/__/__/mesh/access/src/access.c.obj
                0x0000000000028a24                access_model_applications_get
 .text.access_model_publish_application_set
                0x0000000000028b24       0x3c CMakeFiles/dfu_no_serial_nrf52832_xxAA_s132_6.0.0.dir/__/__/mesh/access/src/access.c.obj
                0x0000000000028b24                access_model_publish_application_set
 .text.access_model_publish_application_get
                0x0000000000028b60       0x2c CMakeFiles/dfu_no_serial_nrf52832_xxAA_s132_6.0.0.dir/__/__/mesh/access/src/access.c.obj
                0x0000000000028b60                access_model_publish_application_get
 .text.access_default_ttl_set
                0x0000000000028b8c       0x1c CMakeFiles/dfu_no_serial_nrf52832_xxAA_s132_6.0.0.dir/__/__/mesh/access/src/access.c.obj
                0x0000000000028b8c                access_default_ttl_set
 .text.access_default_ttl_get
                0x0000000000028ba8        0xc CMakeFiles/dfu_no_serial_nrf52832_xxAA_s132_6.0.0.dir/__/__/mesh/access/src/access.c.obj
                0x0000000000028ba8                access_default_ttl_get
 .text.access_model_publish_ttl_set
                0x0000000000028bb4       0x40 CMakeFiles/dfu_no_serial_nrf52832_xxAA_s132_6.0.0.dir/__/__/mesh/access/src/access.c.obj
                0x0000000000028bb4                access_model_publish_ttl_set
 .text.access_model_publish_ttl_get
                0x0000000000028bf4       0x2c CMakeFiles/dfu_no_serial_nrf52832_xxAA_s132_6.0.0.dir/__/__/mesh/access/src/access.c.obj
                0x0000000000028bf4                access_model_publish_ttl_get
 .text.access_element_location_get
                0x0000000000028c20       0x18 CMakeFiles/dfu_no_serial_nrf52832_xxAA_s132_6.0.0.dir/__/__/mesh/access/src/access.c.obj
                0x0000000000028c20                access_element_location_get
 .text.access_element_sig_model_count_get
                0x0000000000028c38       0x18 CMakeFiles/dfu_no_serial_nrf52832_xxAA_s132_6.0.0.dir/__/__/mesh/access/src/access.c.obj
                0x0000000000028c38                access_element_sig_model_count_get
 .text.access_element_vendor_model_count_get
                0x0000000000028c50       0x18 CMakeFiles/dfu_no_serial_nrf52832_xxAA_s132_6.0.0.dir/__/__/mesh/access/src/access.c.obj
                0x0000000000028c50                access_element_vendor_model_count_get
 .text.access_model_id_get
                0x0000000000028c68       0x40 CMakeFiles/dfu_no_serial_nrf52832_xxAA_s132_6.0.0.dir/__/__/mesh/access/src/access.c.obj
                0x0000000000028c68                access_model_id_get
 .text.access_handle_get
                0x0000000000028ca8       0x5c CMakeFiles/dfu_no_serial_nrf52832_xxAA_s132_6.0.0.dir/__/__/mesh/access/src/access.c.obj
                0x0000000000028ca8                access_handle_get
 .text.access_element_models_get
                0x0000000000028d04       0x60 CMakeFiles/dfu_no_serial_nrf52832_xxAA_s132_6.0.0.dir/__/__/mesh/access/src/access.c.obj
                0x0000000000028d04                access_element_models_get
 .text.access_model_p_args_get
                0x0000000000028d64       0x2c CMakeFiles/dfu_no_serial_nrf52832_xxAA_s132_6.0.0.dir/__/__/mesh/access/src/access.c.obj
                0x0000000000028d64                access_model_p_args_get
 .text.access_model_publication_stop
                0x0000000000028d90       0x5c CMakeFiles/dfu_no_serial_nrf52832_xxAA_s132_6.0.0.dir/__/__/mesh/access/src/access.c.obj
                0x0000000000028d90                access_model_publication_stop
 .text.access_model_publication_by_appkey_stop
                0x0000000000028dec       0x98 CMakeFiles/dfu_no_serial_nrf52832_xxAA_s132_6.0.0.dir/__/__/mesh/access/src/access.c.obj
                0x0000000000028dec                access_model_publication_by_appkey_stop
 .text.remove_and_reschedule
                0x0000000000028e84       0xc8 CMakeFiles/dfu_no_serial_nrf52832_xxAA_s132_6.0.0.dir/__/__/mesh/access/src/access_reliable.c.obj
 .text.reliable_timer_cb
                0x0000000000028f4c      0x1a0 CMakeFiles/dfu_no_serial_nrf52832_xxAA_s132_6.0.0.dir/__/__/mesh/access/src/access_reliable.c.obj
 .text.access_reliable_message_rx_cb
                0x00000000000290ec       0x70 CMakeFiles/dfu_no_serial_nrf52832_xxAA_s132_6.0.0.dir/__/__/mesh/access/src/access_reliable.c.obj
                0x00000000000290ec                access_reliable_message_rx_cb
 .text.access_reliable_init
                0x000000000002915c       0x1c CMakeFiles/dfu_no_serial_nrf52832_xxAA_s132_6.0.0.dir/__/__/mesh/access/src/access_reliable.c.obj
                0x000000000002915c                access_reliable_init
 .text.access_reliable_cancel_all
                0x0000000000029178       0xa8 CMakeFiles/dfu_no_serial_nrf52832_xxAA_s132_6.0.0.dir/__/__/mesh/access/src/access_reliable.c.obj
                0x0000000000029178                access_reliable_cancel_all
 .text.access_model_reliable_cancel
                0x0000000000029220       0x78 CMakeFiles/dfu_no_serial_nrf52832_xxAA_s132_6.0.0.dir/__/__/mesh/access/src/access_reliable.c.obj
                0x0000000000029220                access_model_reliable_cancel
 .text.addr_nonvirtual_to_dsm_entry
                0x0000000000029298       0x48 CMakeFiles/dfu_no_serial_nrf52832_xxAA_s132_6.0.0.dir/__/__/mesh/access/src/device_state_manager.c.obj
 .text.addr_nonvirtual_to_flash_entry
                0x00000000000292e0       0x10 CMakeFiles/dfu_no_serial_nrf52832_xxAA_s132_6.0.0.dir/__/__/mesh/access/src/device_state_manager.c.obj
 .text.devkey_to_flash_entry
                0x00000000000292f0       0x28 CMakeFiles/dfu_no_serial_nrf52832_xxAA_s132_6.0.0.dir/__/__/mesh/access/src/device_state_manager.c.obj
 .text.addr_virtual_to_flash_entry
                0x0000000000029318       0x18 CMakeFiles/dfu_no_serial_nrf52832_xxAA_s132_6.0.0.dir/__/__/mesh/access/src/device_state_manager.c.obj
 .text.addr_unicast_to_dsm_entry
                0x0000000000029330        0xc CMakeFiles/dfu_no_serial_nrf52832_xxAA_s132_6.0.0.dir/__/__/mesh/access/src/device_state_manager.c.obj
 .text.addr_unicast_to_flash_entry
                0x000000000002933c       0x10 CMakeFiles/dfu_no_serial_nrf52832_xxAA_s132_6.0.0.dir/__/__/mesh/access/src/device_state_manager.c.obj
 .text.flash_mem_listener_callback
                0x000000000002934c       0x1c CMakeFiles/dfu_no_serial_nrf52832_xxAA_s132_6.0.0.dir/__/__/mesh/access/src/device_state_manager.c.obj
 .text.appkey_to_flash_entry
                0x0000000000029368       0x54 CMakeFiles/dfu_no_serial_nrf52832_xxAA_s132_6.0.0.dir/__/__/mesh/access/src/device_state_manager.c.obj
 .text.subnet_to_flash_entry
                0x00000000000293bc       0x60 CMakeFiles/dfu_no_serial_nrf52832_xxAA_s132_6.0.0.dir/__/__/mesh/access/src/device_state_manager.c.obj
 .text.reset_flash_area
                0x000000000002941c       0x28 CMakeFiles/dfu_no_serial_nrf52832_xxAA_s132_6.0.0.dir/__/__/mesh/access/src/device_state_manager.c.obj
 .text.build_flash_area
                0x0000000000029444       0x90 CMakeFiles/dfu_no_serial_nrf52832_xxAA_s132_6.0.0.dir/__/__/mesh/access/src/device_state_manager.c.obj
 .text.flash_invalidate_complete
                0x00000000000294d4       0x54 CMakeFiles/dfu_no_serial_nrf52832_xxAA_s132_6.0.0.dir/__/__/mesh/access/src/device_state_manager.c.obj
 .text.flash_write_complete
                0x0000000000029528       0x50 CMakeFiles/dfu_no_serial_nrf52832_xxAA_s132_6.0.0.dir/__/__/mesh/access/src/device_state_manager.c.obj
 .text.devkey_to_dsm_entry
                0x0000000000029578       0x70 CMakeFiles/dfu_no_serial_nrf52832_xxAA_s132_6.0.0.dir/__/__/mesh/access/src/device_state_manager.c.obj
 .text.addr_virtual_to_dsm_entry
                0x00000000000295e8       0x60 CMakeFiles/dfu_no_serial_nrf52832_xxAA_s132_6.0.0.dir/__/__/mesh/access/src/device_state_manager.c.obj
 .text.appkey_to_dsm_entry
                0x0000000000029648       0xf4 CMakeFiles/dfu_no_serial_nrf52832_xxAA_s132_6.0.0.dir/__/__/mesh/access/src/device_state_manager.c.obj
 .text.subnet_to_dsm_entry
                0x000000000002973c      0x11c CMakeFiles/dfu_no_serial_nrf52832_xxAA_s132_6.0.0.dir/__/__/mesh/access/src/device_state_manager.c.obj
 .text.flash_remove_complete
                0x0000000000029858       0x90 CMakeFiles/dfu_no_serial_nrf52832_xxAA_s132_6.0.0.dir/__/__/mesh/access/src/device_state_manager.c.obj
 .text.address_delete_if_unused
                0x00000000000298e8       0xf4 CMakeFiles/dfu_no_serial_nrf52832_xxAA_s132_6.0.0.dir/__/__/mesh/access/src/device_state_manager.c.obj
 .text.flash_update_all
                0x00000000000299dc      0x184 CMakeFiles/dfu_no_serial_nrf52832_xxAA_s132_6.0.0.dir/__/__/mesh/access/src/device_state_manager.c.obj
 .text.mesh_evt_handler
                0x0000000000029b60      0x258 CMakeFiles/dfu_no_serial_nrf52832_xxAA_s132_6.0.0.dir/__/__/mesh/access/src/device_state_manager.c.obj
 .text.dsm_flash_config_load
                0x0000000000029db8      0x1f8 CMakeFiles/dfu_no_serial_nrf52832_xxAA_s132_6.0.0.dir/__/__/mesh/access/src/device_state_manager.c.obj
                0x0000000000029db8                dsm_flash_config_load
 .text.dsm_flash_area_get
                0x0000000000029fb0        0xc CMakeFiles/dfu_no_serial_nrf52832_xxAA_s132_6.0.0.dir/__/__/mesh/access/src/device_state_manager.c.obj
                0x0000000000029fb0                dsm_flash_area_get
 .text.dsm_clear
                0x0000000000029fbc      0x100 CMakeFiles/dfu_no_serial_nrf52832_xxAA_s132_6.0.0.dir/__/__/mesh/access/src/device_state_manager.c.obj
                0x0000000000029fbc                dsm_clear
 .text.dsm_init
                0x000000000002a0bc       0xbc CMakeFiles/dfu_no_serial_nrf52832_xxAA_s132_6.0.0.dir/__/__/mesh/access/src/device_state_manager.c.obj
                0x000000000002a0bc                dsm_init
 .text.dsm_local_unicast_addresses_set
                0x000000000002a178       0xbc CMakeFiles/dfu_no_serial_nrf52832_xxAA_s132_6.0.0.dir/__/__/mesh/access/src/device_state_manager.c.obj
                0x000000000002a178                dsm_local_unicast_addresses_set
 .text.dsm_local_unicast_addresses_get
                0x000000000002a234       0x20 CMakeFiles/dfu_no_serial_nrf52832_xxAA_s132_6.0.0.dir/__/__/mesh/access/src/device_state_manager.c.obj
                0x000000000002a234                dsm_local_unicast_addresses_get
 .text.dsm_address_publish_add
                0x000000000002a254      0x318 CMakeFiles/dfu_no_serial_nrf52832_xxAA_s132_6.0.0.dir/__/__/mesh/access/src/device_state_manager.c.obj
                0x000000000002a254                dsm_address_publish_add
 .text.dsm_address_publish_add_handle
                0x000000000002a56c       0x54 CMakeFiles/dfu_no_serial_nrf52832_xxAA_s132_6.0.0.dir/__/__/mesh/access/src/device_state_manager.c.obj
                0x000000000002a56c                dsm_address_publish_add_handle
 .text.dsm_address_publish_virtual_add
                0x000000000002a5c0      0x2b4 CMakeFiles/dfu_no_serial_nrf52832_xxAA_s132_6.0.0.dir/__/__/mesh/access/src/device_state_manager.c.obj
                0x000000000002a5c0                dsm_address_publish_virtual_add
 .text.dsm_address_publish_remove
                0x000000000002a874       0xcc CMakeFiles/dfu_no_serial_nrf52832_xxAA_s132_6.0.0.dir/__/__/mesh/access/src/device_state_manager.c.obj
                0x000000000002a874                dsm_address_publish_remove
 .text.dsm_address_subscription_add
                0x000000000002a940      0x354 CMakeFiles/dfu_no_serial_nrf52832_xxAA_s132_6.0.0.dir/__/__/mesh/access/src/device_state_manager.c.obj
                0x000000000002a940                dsm_address_subscription_add
 .text.dsm_address_subscription_virtual_add
                0x000000000002ac94      0x2b4 CMakeFiles/dfu_no_serial_nrf52832_xxAA_s132_6.0.0.dir/__/__/mesh/access/src/device_state_manager.c.obj
                0x000000000002ac94                dsm_address_subscription_virtual_add
 .text.dsm_address_subscription_add_handle
                0x000000000002af48       0x54 CMakeFiles/dfu_no_serial_nrf52832_xxAA_s132_6.0.0.dir/__/__/mesh/access/src/device_state_manager.c.obj
                0x000000000002af48                dsm_address_subscription_add_handle
 .text.dsm_address_subscription_get
                0x000000000002af9c       0x5c CMakeFiles/dfu_no_serial_nrf52832_xxAA_s132_6.0.0.dir/__/__/mesh/access/src/device_state_manager.c.obj
                0x000000000002af9c                dsm_address_subscription_get
 .text.dsm_address_subscription_remove
                0x000000000002aff8       0x90 CMakeFiles/dfu_no_serial_nrf52832_xxAA_s132_6.0.0.dir/__/__/mesh/access/src/device_state_manager.c.obj
                0x000000000002aff8                dsm_address_subscription_remove
 .text.dsm_address_get
                0x000000000002b088       0x78 CMakeFiles/dfu_no_serial_nrf52832_xxAA_s132_6.0.0.dir/__/__/mesh/access/src/device_state_manager.c.obj
                0x000000000002b088                dsm_address_get
 .text.dsm_address_handle_get
                0x000000000002b100      0x3a4 CMakeFiles/dfu_no_serial_nrf52832_xxAA_s132_6.0.0.dir/__/__/mesh/access/src/device_state_manager.c.obj
                0x000000000002b100                dsm_address_handle_get
 .text.dsm_net_key_index_to_subnet_handle
                0x000000000002b4a4       0x5c CMakeFiles/dfu_no_serial_nrf52832_xxAA_s132_6.0.0.dir/__/__/mesh/access/src/device_state_manager.c.obj
                0x000000000002b4a4                dsm_net_key_index_to_subnet_handle
 .text.dsm_subnet_handle_get
                0x000000000002b500       0xa8 CMakeFiles/dfu_no_serial_nrf52832_xxAA_s132_6.0.0.dir/__/__/mesh/access/src/device_state_manager.c.obj
                0x000000000002b500                dsm_subnet_handle_get
 .text.dsm_appkey_index_to_appkey_handle
                0x000000000002b5a8       0xa0 CMakeFiles/dfu_no_serial_nrf52832_xxAA_s132_6.0.0.dir/__/__/mesh/access/src/device_state_manager.c.obj
                0x000000000002b5a8                dsm_appkey_index_to_appkey_handle
 .text.dsm_appkey_handle_get
                0x000000000002b648       0x44 CMakeFiles/dfu_no_serial_nrf52832_xxAA_s132_6.0.0.dir/__/__/mesh/access/src/device_state_manager.c.obj
                0x000000000002b648                dsm_appkey_handle_get
 .text.dsm_appkey_handle_to_appkey_index
                0x000000000002b68c       0x34 CMakeFiles/dfu_no_serial_nrf52832_xxAA_s132_6.0.0.dir/__/__/mesh/access/src/device_state_manager.c.obj
                0x000000000002b68c                dsm_appkey_handle_to_appkey_index
 .text.dsm_appkey_handle_to_subnet_handle
                0x000000000002b6c0       0xb8 CMakeFiles/dfu_no_serial_nrf52832_xxAA_s132_6.0.0.dir/__/__/mesh/access/src/device_state_manager.c.obj
                0x000000000002b6c0                dsm_appkey_handle_to_subnet_handle
 .text.dsm_subnet_add
                0x000000000002b778      0x210 CMakeFiles/dfu_no_serial_nrf52832_xxAA_s132_6.0.0.dir/__/__/mesh/access/src/device_state_manager.c.obj
                0x000000000002b778                dsm_subnet_add
 .text.dsm_subnet_kr_phase_get
                0x000000000002b988       0x30 CMakeFiles/dfu_no_serial_nrf52832_xxAA_s132_6.0.0.dir/__/__/mesh/access/src/device_state_manager.c.obj
                0x000000000002b988                dsm_subnet_kr_phase_get
 .text.dsm_subnet_update
                0x000000000002b9b8      0x118 CMakeFiles/dfu_no_serial_nrf52832_xxAA_s132_6.0.0.dir/__/__/mesh/access/src/device_state_manager.c.obj
                0x000000000002b9b8                dsm_subnet_update
 .text.dsm_subnet_update_swap_keys
                0x000000000002bad0       0xa8 CMakeFiles/dfu_no_serial_nrf52832_xxAA_s132_6.0.0.dir/__/__/mesh/access/src/device_state_manager.c.obj
                0x000000000002bad0                dsm_subnet_update_swap_keys
 .text.dsm_subnet_update_commit
                0x000000000002bb78      0x1b8 CMakeFiles/dfu_no_serial_nrf52832_xxAA_s132_6.0.0.dir/__/__/mesh/access/src/device_state_manager.c.obj
                0x000000000002bb78                dsm_subnet_update_commit
 .text.dsm_subnet_delete
                0x000000000002bd30      0x330 CMakeFiles/dfu_no_serial_nrf52832_xxAA_s132_6.0.0.dir/__/__/mesh/access/src/device_state_manager.c.obj
                0x000000000002bd30                dsm_subnet_delete
 .text.dsm_subnet_get_all
                0x000000000002c060       0x90 CMakeFiles/dfu_no_serial_nrf52832_xxAA_s132_6.0.0.dir/__/__/mesh/access/src/device_state_manager.c.obj
                0x000000000002c060                dsm_subnet_get_all
 .text.dsm_devkey_add
                0x000000000002c0f0      0x108 CMakeFiles/dfu_no_serial_nrf52832_xxAA_s132_6.0.0.dir/__/__/mesh/access/src/device_state_manager.c.obj
                0x000000000002c0f0                dsm_devkey_add
 .text.dsm_appkey_add
                0x000000000002c1f8      0x288 CMakeFiles/dfu_no_serial_nrf52832_xxAA_s132_6.0.0.dir/__/__/mesh/access/src/device_state_manager.c.obj
                0x000000000002c1f8                dsm_appkey_add
 .text.dsm_appkey_update
                0x000000000002c480       0xf8 CMakeFiles/dfu_no_serial_nrf52832_xxAA_s132_6.0.0.dir/__/__/mesh/access/src/device_state_manager.c.obj
                0x000000000002c480                dsm_appkey_update
 .text.dsm_appkey_delete
                0x000000000002c578       0x68 CMakeFiles/dfu_no_serial_nrf52832_xxAA_s132_6.0.0.dir/__/__/mesh/access/src/device_state_manager.c.obj
                0x000000000002c578                dsm_appkey_delete
 .text.dsm_appkey_get_all
                0x000000000002c5e0      0x15c CMakeFiles/dfu_no_serial_nrf52832_xxAA_s132_6.0.0.dir/__/__/mesh/access/src/device_state_manager.c.obj
                0x000000000002c5e0                dsm_appkey_get_all
 .text.dsm_tx_secmat_get
                0x000000000002c73c       0xdc CMakeFiles/dfu_no_serial_nrf52832_xxAA_s132_6.0.0.dir/__/__/mesh/access/src/device_state_manager.c.obj
                0x000000000002c73c                dsm_tx_secmat_get
 .text.dsm_net_secmat_from_keyindex_get
                0x000000000002c818       0x7c CMakeFiles/dfu_no_serial_nrf52832_xxAA_s132_6.0.0.dir/__/__/mesh/access/src/device_state_manager.c.obj
                0x000000000002c818                dsm_net_secmat_from_keyindex_get
 .text.nrf_mesh_net_secmat_next_get
                0x000000000002c894      0x230 CMakeFiles/dfu_no_serial_nrf52832_xxAA_s132_6.0.0.dir/__/__/mesh/access/src/device_state_manager.c.obj
                0x000000000002c894                nrf_mesh_net_secmat_next_get
 .text.nrf_mesh_app_secmat_next_get
                0x000000000002cac4      0x278 CMakeFiles/dfu_no_serial_nrf52832_xxAA_s132_6.0.0.dir/__/__/mesh/access/src/device_state_manager.c.obj
                0x000000000002cac4                nrf_mesh_app_secmat_next_get
 .text.nrf_mesh_devkey_secmat_get
                0x000000000002cd3c       0x30 CMakeFiles/dfu_no_serial_nrf52832_xxAA_s132_6.0.0.dir/__/__/mesh/access/src/device_state_manager.c.obj
                0x000000000002cd3c                nrf_mesh_devkey_secmat_get
 .text.nrf_mesh_beacon_info_next_get
                0x000000000002cd6c      0x170 CMakeFiles/dfu_no_serial_nrf52832_xxAA_s132_6.0.0.dir/__/__/mesh/access/src/device_state_manager.c.obj
                0x000000000002cd6c                nrf_mesh_beacon_info_next_get
 .text.nrf_mesh_rx_address_get
                0x000000000002cedc      0x570 CMakeFiles/dfu_no_serial_nrf52832_xxAA_s132_6.0.0.dir/__/__/mesh/access/src/device_state_manager.c.obj
                0x000000000002cedc                nrf_mesh_rx_address_get
 .text.nrf_mesh_unicast_address_get
                0x000000000002d44c       0x24 CMakeFiles/dfu_no_serial_nrf52832_xxAA_s132_6.0.0.dir/__/__/mesh/access/src/device_state_manager.c.obj
                0x000000000002d44c                nrf_mesh_unicast_address_get
 .text.config_composition_data_get
                0x000000000002d470      0x1cc CMakeFiles/dfu_no_serial_nrf52832_xxAA_s132_6.0.0.dir/__/__/models/config/src/composition_data.c.obj
                0x000000000002d470                config_composition_data_get
 .text.config_server_heartbeat_publication_count_decrement
                0x000000000002d63c       0x1c CMakeFiles/dfu_no_serial_nrf52832_xxAA_s132_6.0.0.dir/__/__/models/config/src/config_server.c.obj
 .text.config_server_heartbeat_publication_params_get
                0x000000000002d658       0x38 CMakeFiles/dfu_no_serial_nrf52832_xxAA_s132_6.0.0.dir/__/__/models/config/src/config_server.c.obj
 .text.handle_config_network_transmit_set
                0x000000000002d690      0x118 CMakeFiles/dfu_no_serial_nrf52832_xxAA_s132_6.0.0.dir/__/__/models/config/src/config_server.c.obj
 .text.handle_node_reset
                0x000000000002d7a8       0x30 CMakeFiles/dfu_no_serial_nrf52832_xxAA_s132_6.0.0.dir/__/__/models/config/src/config_server.c.obj
 .text.handle_config_relay_set
                0x000000000002d7d8      0x1a8 CMakeFiles/dfu_no_serial_nrf52832_xxAA_s132_6.0.0.dir/__/__/models/config/src/config_server.c.obj
 .text.send_subscription_status
                0x000000000002d980       0x50 CMakeFiles/dfu_no_serial_nrf52832_xxAA_s132_6.0.0.dir/__/__/models/config/src/config_server.c.obj
 .text.handle_netkey_get
                0x000000000002d9d0       0x70 CMakeFiles/dfu_no_serial_nrf52832_xxAA_s132_6.0.0.dir/__/__/models/config/src/config_server.c.obj
 .text.handle_model_app_bind_unbind
                0x000000000002da40      0x228 CMakeFiles/dfu_no_serial_nrf52832_xxAA_s132_6.0.0.dir/__/__/models/config/src/config_server.c.obj
 .text.status_error_sub_send
                0x000000000002dc68      0x180 CMakeFiles/dfu_no_serial_nrf52832_xxAA_s132_6.0.0.dir/__/__/models/config/src/config_server.c.obj
 .text.send_publication_status
                0x000000000002dde8      0x1a8 CMakeFiles/dfu_no_serial_nrf52832_xxAA_s132_6.0.0.dir/__/__/models/config/src/config_server.c.obj
 .text.handle_config_key_refresh_phase_set
                0x000000000002df90       0xf0 CMakeFiles/dfu_no_serial_nrf52832_xxAA_s132_6.0.0.dir/__/__/models/config/src/config_server.c.obj
 .text.handle_config_default_ttl_set
                0x000000000002e080       0x70 CMakeFiles/dfu_no_serial_nrf52832_xxAA_s132_6.0.0.dir/__/__/models/config/src/config_server.c.obj
 .text.handle_heartbeat_publication_set
                0x000000000002e0f0      0x168 CMakeFiles/dfu_no_serial_nrf52832_xxAA_s132_6.0.0.dir/__/__/models/config/src/config_server.c.obj
 .text.mesh_event_cb
                0x000000000002e258       0x70 CMakeFiles/dfu_no_serial_nrf52832_xxAA_s132_6.0.0.dir/__/__/models/config/src/config_server.c.obj
 .text.handle_node_identity_set
                0x000000000002e2c8       0x48 CMakeFiles/dfu_no_serial_nrf52832_xxAA_s132_6.0.0.dir/__/__/models/config/src/config_server.c.obj
 .text.handle_node_identity_get
                0x000000000002e310       0x44 CMakeFiles/dfu_no_serial_nrf52832_xxAA_s132_6.0.0.dir/__/__/models/config/src/config_server.c.obj
 .text.handle_config_gatt_proxy_set
                0x000000000002e354       0x40 CMakeFiles/dfu_no_serial_nrf52832_xxAA_s132_6.0.0.dir/__/__/models/config/src/config_server.c.obj
 .text.handle_config_friend_set
                0x000000000002e394       0x40 CMakeFiles/dfu_no_serial_nrf52832_xxAA_s132_6.0.0.dir/__/__/models/config/src/config_server.c.obj
 .text.status_error_pub_send
                0x000000000002e3d4       0xc8 CMakeFiles/dfu_no_serial_nrf52832_xxAA_s132_6.0.0.dir/__/__/models/config/src/config_server.c.obj
 .text.handle_config_key_refresh_phase_get
                0x000000000002e49c       0x70 CMakeFiles/dfu_no_serial_nrf52832_xxAA_s132_6.0.0.dir/__/__/models/config/src/config_server.c.obj
 .text.handle_config_default_ttl_get
                0x000000000002e50c       0x48 CMakeFiles/dfu_no_serial_nrf52832_xxAA_s132_6.0.0.dir/__/__/models/config/src/config_server.c.obj
 .text.handle_config_beacon_set
                0x000000000002e554       0x80 CMakeFiles/dfu_no_serial_nrf52832_xxAA_s132_6.0.0.dir/__/__/models/config/src/config_server.c.obj
 .text.handle_composition_data_get
                0x000000000002e5d4       0x64 CMakeFiles/dfu_no_serial_nrf52832_xxAA_s132_6.0.0.dir/__/__/models/config/src/config_server.c.obj
 .text.handle_appkey_update
                0x000000000002e638      0x108 CMakeFiles/dfu_no_serial_nrf52832_xxAA_s132_6.0.0.dir/__/__/models/config/src/config_server.c.obj
 .text.handle_model_app_get
                0x000000000002e740      0x230 CMakeFiles/dfu_no_serial_nrf52832_xxAA_s132_6.0.0.dir/__/__/models/config/src/config_server.c.obj
 .text.handle_appkey_get
                0x000000000002e970      0x100 CMakeFiles/dfu_no_serial_nrf52832_xxAA_s132_6.0.0.dir/__/__/models/config/src/config_server.c.obj
 .text.handle_heartbeat_subscription_get
                0x000000000002ea70       0xdc CMakeFiles/dfu_no_serial_nrf52832_xxAA_s132_6.0.0.dir/__/__/models/config/src/config_server.c.obj
 .text.handle_config_gatt_proxy_get
                0x000000000002eb4c       0x38 CMakeFiles/dfu_no_serial_nrf52832_xxAA_s132_6.0.0.dir/__/__/models/config/src/config_server.c.obj
 .text.handle_config_friend_get
                0x000000000002eb84       0x38 CMakeFiles/dfu_no_serial_nrf52832_xxAA_s132_6.0.0.dir/__/__/models/config/src/config_server.c.obj
 .text.handle_heartbeat_subscription_set
                0x000000000002ebbc      0x114 CMakeFiles/dfu_no_serial_nrf52832_xxAA_s132_6.0.0.dir/__/__/models/config/src/config_server.c.obj
 .text.handle_heartbeat_publication_get
                0x000000000002ecd0       0xcc CMakeFiles/dfu_no_serial_nrf52832_xxAA_s132_6.0.0.dir/__/__/models/config/src/config_server.c.obj
 .text.handle_config_beacon_get
                0x000000000002ed9c       0x40 CMakeFiles/dfu_no_serial_nrf52832_xxAA_s132_6.0.0.dir/__/__/models/config/src/config_server.c.obj
 .text.handle_appkey_delete
                0x000000000002eddc      0x11c CMakeFiles/dfu_no_serial_nrf52832_xxAA_s132_6.0.0.dir/__/__/models/config/src/config_server.c.obj
 .text.handle_appkey_add
                0x000000000002eef8      0x124 CMakeFiles/dfu_no_serial_nrf52832_xxAA_s132_6.0.0.dir/__/__/models/config/src/config_server.c.obj
 .text.handle_config_vendor_model_subscription_get
                0x000000000002f01c      0x188 CMakeFiles/dfu_no_serial_nrf52832_xxAA_s132_6.0.0.dir/__/__/models/config/src/config_server.c.obj
 .text.handle_netkey_add_update
                0x000000000002f1a4       0xec CMakeFiles/dfu_no_serial_nrf52832_xxAA_s132_6.0.0.dir/__/__/models/config/src/config_server.c.obj
 .text.handle_netkey_delete
                0x000000000002f290      0x14c CMakeFiles/dfu_no_serial_nrf52832_xxAA_s132_6.0.0.dir/__/__/models/config/src/config_server.c.obj
 .text.handle_config_network_transmit_get
                0x000000000002f3dc       0x94 CMakeFiles/dfu_no_serial_nrf52832_xxAA_s132_6.0.0.dir/__/__/models/config/src/config_server.c.obj
 .text.handle_config_model_publication_get
                0x000000000002f470      0x144 CMakeFiles/dfu_no_serial_nrf52832_xxAA_s132_6.0.0.dir/__/__/models/config/src/config_server.c.obj
 .text.handle_config_relay_get
                0x000000000002f5b4       0xcc CMakeFiles/dfu_no_serial_nrf52832_xxAA_s132_6.0.0.dir/__/__/models/config/src/config_server.c.obj
 .text.handle_config_model_publication_set
                0x000000000002f680      0x3d4 CMakeFiles/dfu_no_serial_nrf52832_xxAA_s132_6.0.0.dir/__/__/models/config/src/config_server.c.obj
 .text.handle_config_model_subscription_delete_all
                0x000000000002fa54      0x2ec CMakeFiles/dfu_no_serial_nrf52832_xxAA_s132_6.0.0.dir/__/__/models/config/src/config_server.c.obj
 .text.handle_config_model_subscription_virtual_address_delete
                0x000000000002fd40      0x2e0 CMakeFiles/dfu_no_serial_nrf52832_xxAA_s132_6.0.0.dir/__/__/models/config/src/config_server.c.obj
 .text.handle_config_model_subscription_virtual_address_add
                0x0000000000030020      0x2cc CMakeFiles/dfu_no_serial_nrf52832_xxAA_s132_6.0.0.dir/__/__/models/config/src/config_server.c.obj
 .text.handle_config_model_subscription_delete
                0x00000000000302ec      0x2dc CMakeFiles/dfu_no_serial_nrf52832_xxAA_s132_6.0.0.dir/__/__/models/config/src/config_server.c.obj
 .text.handle_config_model_subscription_add
                0x00000000000305c8      0x2a8 CMakeFiles/dfu_no_serial_nrf52832_xxAA_s132_6.0.0.dir/__/__/models/config/src/config_server.c.obj
 .text.handle_config_model_subscription_virtual_address_overwrite
                0x0000000000030870      0x354 CMakeFiles/dfu_no_serial_nrf52832_xxAA_s132_6.0.0.dir/__/__/models/config/src/config_server.c.obj
 .text.handle_config_model_subscription_overwrite
                0x0000000000030bc4      0x334 CMakeFiles/dfu_no_serial_nrf52832_xxAA_s132_6.0.0.dir/__/__/models/config/src/config_server.c.obj
 .text.handle_config_sig_model_subscription_get
                0x0000000000030ef8      0x29c CMakeFiles/dfu_no_serial_nrf52832_xxAA_s132_6.0.0.dir/__/__/models/config/src/config_server.c.obj
 .text.config_server_init
                0x0000000000031194       0x70 CMakeFiles/dfu_no_serial_nrf52832_xxAA_s132_6.0.0.dir/__/__/models/config/src/config_server.c.obj
                0x0000000000031194                config_server_init
 .text.config_server_bind
                0x0000000000031204       0x10 CMakeFiles/dfu_no_serial_nrf52832_xxAA_s132_6.0.0.dir/__/__/models/config/src/config_server.c.obj
                0x0000000000031204                config_server_bind
 .text.packed_index_list_create
                0x0000000000031214       0x3c CMakeFiles/dfu_no_serial_nrf52832_xxAA_s132_6.0.0.dir/__/__/models/config/src/packed_index_list.c.obj
                0x0000000000031214                packed_index_list_create
 .text.attention_timer_handler
                0x0000000000031250       0x6c CMakeFiles/dfu_no_serial_nrf52832_xxAA_s132_6.0.0.dir/__/__/models/health/src/health_server.c.obj
 .text.handle_attention_get
                0x00000000000312bc       0x40 CMakeFiles/dfu_no_serial_nrf52832_xxAA_s132_6.0.0.dir/__/__/models/health/src/health_server.c.obj
 .text.handle_period_get
                0x00000000000312fc       0x3c CMakeFiles/dfu_no_serial_nrf52832_xxAA_s132_6.0.0.dir/__/__/models/health/src/health_server.c.obj
 .text.handle_attention_set
                0x0000000000031338       0xdc CMakeFiles/dfu_no_serial_nrf52832_xxAA_s132_6.0.0.dir/__/__/models/health/src/health_server.c.obj
 .text.handle_period_set
                0x0000000000031414       0x54 CMakeFiles/dfu_no_serial_nrf52832_xxAA_s132_6.0.0.dir/__/__/models/health/src/health_server.c.obj
 .text.send_fault_status
                0x0000000000031468      0x3b4 CMakeFiles/dfu_no_serial_nrf52832_xxAA_s132_6.0.0.dir/__/__/models/health/src/health_server.c.obj
 .text.health_publish_timeout_handler
                0x000000000003181c        0xc CMakeFiles/dfu_no_serial_nrf52832_xxAA_s132_6.0.0.dir/__/__/models/health/src/health_server.c.obj
 .text.handle_fault_test
                0x0000000000031828       0x8c CMakeFiles/dfu_no_serial_nrf52832_xxAA_s132_6.0.0.dir/__/__/models/health/src/health_server.c.obj
 .text.handle_fault_clear
                0x00000000000318b4       0x54 CMakeFiles/dfu_no_serial_nrf52832_xxAA_s132_6.0.0.dir/__/__/models/health/src/health_server.c.obj
 .text.handle_fault_get
                0x0000000000031908       0x40 CMakeFiles/dfu_no_serial_nrf52832_xxAA_s132_6.0.0.dir/__/__/models/health/src/health_server.c.obj
 .text.health_server_init
                0x0000000000031948       0x68 CMakeFiles/dfu_no_serial_nrf52832_xxAA_s132_6.0.0.dir/__/__/models/health/src/health_server.c.obj
                0x0000000000031948                health_server_init
 .text.prov_provisioner_auth_data
                0x00000000000319b0       0xe8 CMakeFiles/dfu_no_serial_nrf52832_xxAA_s132_6.0.0.dir/__/__/mesh/prov/src/prov_provisioner.c.obj
                0x00000000000319b0                prov_provisioner_auth_data
 .text.prov_provisionee_cb_link_established
                0x0000000000031a98       0x40 CMakeFiles/dfu_no_serial_nrf52832_xxAA_s132_6.0.0.dir/__/__/mesh/prov/src/prov_provisionee.c.obj
 .text.prov_provisionee_cb_link_closed
                0x0000000000031ad8       0x50 CMakeFiles/dfu_no_serial_nrf52832_xxAA_s132_6.0.0.dir/__/__/mesh/prov/src/prov_provisionee.c.obj
 .text.request_authentication
                0x0000000000031b28       0x90 CMakeFiles/dfu_no_serial_nrf52832_xxAA_s132_6.0.0.dir/__/__/mesh/prov/src/prov_provisionee.c.obj
 .text.send_failed
                0x0000000000031bb8       0x38 CMakeFiles/dfu_no_serial_nrf52832_xxAA_s132_6.0.0.dir/__/__/mesh/prov/src/prov_provisionee.c.obj
 .text.prov_provisionee_cb_ack_received
                0x0000000000031bf0      0x174 CMakeFiles/dfu_no_serial_nrf52832_xxAA_s132_6.0.0.dir/__/__/mesh/prov/src/prov_provisionee.c.obj
 .text.prov_provisionee_pkt_in
                0x0000000000031d64      0x428 CMakeFiles/dfu_no_serial_nrf52832_xxAA_s132_6.0.0.dir/__/__/mesh/prov/src/prov_provisionee.c.obj
 .text.prov_provisionee_listen
                0x000000000003218c       0x34 CMakeFiles/dfu_no_serial_nrf52832_xxAA_s132_6.0.0.dir/__/__/mesh/prov/src/prov_provisionee.c.obj
                0x000000000003218c                prov_provisionee_listen
 .text.prov_provisionee_auth_data
                0x00000000000321c0      0x100 CMakeFiles/dfu_no_serial_nrf52832_xxAA_s132_6.0.0.dir/__/__/mesh/prov/src/prov_provisionee.c.obj
                0x00000000000321c0                prov_provisionee_auth_data
 .text.bearer_compare_callback
                0x00000000000322c0       0x10 CMakeFiles/dfu_no_serial_nrf52832_xxAA_s132_6.0.0.dir/__/__/mesh/prov/src/nrf_mesh_prov.c.obj
 .text.nrf_mesh_prov_init
                0x00000000000322d0       0x3c CMakeFiles/dfu_no_serial_nrf52832_xxAA_s132_6.0.0.dir/__/__/mesh/prov/src/nrf_mesh_prov.c.obj
                0x00000000000322d0                nrf_mesh_prov_init
 .text.nrf_mesh_prov_bearer_add
                0x000000000003230c       0x2c CMakeFiles/dfu_no_serial_nrf52832_xxAA_s132_6.0.0.dir/__/__/mesh/prov/src/nrf_mesh_prov.c.obj
                0x000000000003230c                nrf_mesh_prov_bearer_add
 .text.nrf_mesh_prov_generate_keys
                0x0000000000032338        0x4 CMakeFiles/dfu_no_serial_nrf52832_xxAA_s132_6.0.0.dir/__/__/mesh/prov/src/nrf_mesh_prov.c.obj
                0x0000000000032338                nrf_mesh_prov_generate_keys
 .text.nrf_mesh_prov_listen
                0x000000000003233c       0xf0 CMakeFiles/dfu_no_serial_nrf52832_xxAA_s132_6.0.0.dir/__/__/mesh/prov/src/nrf_mesh_prov.c.obj
                0x000000000003233c                nrf_mesh_prov_listen
 .text.nrf_mesh_prov_auth_data_provide
                0x000000000003242c       0x10 CMakeFiles/dfu_no_serial_nrf52832_xxAA_s132_6.0.0.dir/__/__/mesh/prov/src/nrf_mesh_prov.c.obj
                0x000000000003242c                nrf_mesh_prov_auth_data_provide
 .text.prov_packet_length_valid
                0x000000000003243c       0x20 CMakeFiles/dfu_no_serial_nrf52832_xxAA_s132_6.0.0.dir/__/__/mesh/prov/src/provisioning.c.obj
                0x000000000003243c                prov_packet_length_valid
 .text.prov_tx_capabilities
                0x000000000003245c       0x38 CMakeFiles/dfu_no_serial_nrf52832_xxAA_s132_6.0.0.dir/__/__/mesh/prov/src/provisioning.c.obj
                0x000000000003245c                prov_tx_capabilities
 .text.prov_tx_public_key
                0x0000000000032494       0x30 CMakeFiles/dfu_no_serial_nrf52832_xxAA_s132_6.0.0.dir/__/__/mesh/prov/src/provisioning.c.obj
                0x0000000000032494                prov_tx_public_key
 .text.prov_tx_input_complete
                0x00000000000324c4       0x28 CMakeFiles/dfu_no_serial_nrf52832_xxAA_s132_6.0.0.dir/__/__/mesh/prov/src/provisioning.c.obj
                0x00000000000324c4                prov_tx_input_complete
 .text.prov_tx_confirmation
                0x00000000000324ec       0x30 CMakeFiles/dfu_no_serial_nrf52832_xxAA_s132_6.0.0.dir/__/__/mesh/prov/src/provisioning.c.obj
                0x00000000000324ec                prov_tx_confirmation
 .text.prov_tx_random
                0x000000000003251c       0x30 CMakeFiles/dfu_no_serial_nrf52832_xxAA_s132_6.0.0.dir/__/__/mesh/prov/src/provisioning.c.obj
                0x000000000003251c                prov_tx_random
 .text.prov_tx_complete
                0x000000000003254c       0x28 CMakeFiles/dfu_no_serial_nrf52832_xxAA_s132_6.0.0.dir/__/__/mesh/prov/src/provisioning.c.obj
                0x000000000003254c                prov_tx_complete
 .text.prov_tx_failed
                0x0000000000032574       0x2c CMakeFiles/dfu_no_serial_nrf52832_xxAA_s132_6.0.0.dir/__/__/mesh/prov/src/provisioning.c.obj
                0x0000000000032574                prov_tx_failed
 .text.prov_beacon_unprov_build
                0x00000000000325a0       0x54 CMakeFiles/dfu_no_serial_nrf52832_xxAA_s132_6.0.0.dir/__/__/mesh/prov/src/prov_beacon.c.obj
                0x00000000000325a0                prov_beacon_unprov_build
 .text.prov_beacon_unprov_packet_in
                0x00000000000325f4       0xd0 CMakeFiles/dfu_no_serial_nrf52832_xxAA_s132_6.0.0.dir/__/__/mesh/prov/src/prov_beacon.c.obj
                0x00000000000325f4                prov_beacon_unprov_packet_in
 .text.prov_utils_opt_set
                0x00000000000326c4       0x24 CMakeFiles/dfu_no_serial_nrf52832_xxAA_s132_6.0.0.dir/__/__/mesh/prov/src/prov_utils.c.obj
                0x00000000000326c4                prov_utils_opt_set
 .text.prov_utils_opt_get
                0x00000000000326e8       0x1c CMakeFiles/dfu_no_serial_nrf52832_xxAA_s132_6.0.0.dir/__/__/mesh/prov/src/prov_utils.c.obj
                0x00000000000326e8                prov_utils_opt_get
 .text.prov_utils_use_ecdh_offloading
                0x0000000000032704        0xc CMakeFiles/dfu_no_serial_nrf52832_xxAA_s132_6.0.0.dir/__/__/mesh/prov/src/prov_utils.c.obj
                0x0000000000032704                prov_utils_use_ecdh_offloading
 .text.prov_utils_authentication_values_derive
                0x0000000000032710       0xac CMakeFiles/dfu_no_serial_nrf52832_xxAA_s132_6.0.0.dir/__/__/mesh/prov/src/prov_utils.c.obj
                0x0000000000032710                prov_utils_authentication_values_derive
 .text.prov_utils_keys_generate
                0x00000000000327bc       0x20 CMakeFiles/dfu_no_serial_nrf52832_xxAA_s132_6.0.0.dir/__/__/mesh/prov/src/prov_utils.c.obj
                0x00000000000327bc                prov_utils_keys_generate
 .text.prov_utils_derive_keys
                0x00000000000327dc       0xb4 CMakeFiles/dfu_no_serial_nrf52832_xxAA_s132_6.0.0.dir/__/__/mesh/prov/src/prov_utils.c.obj
                0x00000000000327dc                prov_utils_derive_keys
 .text.prov_utils_calculate_shared_secret
                0x0000000000032890       0x34 CMakeFiles/dfu_no_serial_nrf52832_xxAA_s132_6.0.0.dir/__/__/mesh/prov/src/prov_utils.c.obj
                0x0000000000032890                prov_utils_calculate_shared_secret
 .text.prov_utils_generate_oob_data
                0x00000000000328c4      0x1b8 CMakeFiles/dfu_no_serial_nrf52832_xxAA_s132_6.0.0.dir/__/__/mesh/prov/src/prov_utils.c.obj
                0x00000000000328c4                prov_utils_generate_oob_data
 .text.prov_utils_confirmation_check
                0x0000000000032a7c       0x5c CMakeFiles/dfu_no_serial_nrf52832_xxAA_s132_6.0.0.dir/__/__/mesh/prov/src/prov_utils.c.obj
                0x0000000000032a7c                prov_utils_confirmation_check
 .text.link_timeout_cb
                0x0000000000032ad8       0x10 CMakeFiles/dfu_no_serial_nrf52832_xxAA_s132_6.0.0.dir/__/__/mesh/prov/src/prov_bearer_adv.c.obj
 .text.prov_bearer_adv_listen_stop
                0x0000000000032ae8       0x98 CMakeFiles/dfu_no_serial_nrf52832_xxAA_s132_6.0.0.dir/__/__/mesh/prov/src/prov_bearer_adv.c.obj
 .text.tx_complete_cb
                0x0000000000032b80       0x20 CMakeFiles/dfu_no_serial_nrf52832_xxAA_s132_6.0.0.dir/__/__/mesh/prov/src/prov_bearer_adv.c.obj
 .text.prov_bearer_adv_listen
                0x0000000000032ba0      0x15c CMakeFiles/dfu_no_serial_nrf52832_xxAA_s132_6.0.0.dir/__/__/mesh/prov/src/prov_bearer_adv.c.obj
 .text.close_link
                0x0000000000032cfc       0xd8 CMakeFiles/dfu_no_serial_nrf52832_xxAA_s132_6.0.0.dir/__/__/mesh/prov/src/prov_bearer_adv.c.obj
 .text.send_link_ack
                0x0000000000032dd4       0x70 CMakeFiles/dfu_no_serial_nrf52832_xxAA_s132_6.0.0.dir/__/__/mesh/prov/src/prov_bearer_adv.c.obj
 .text.send_transaction_ack
                0x0000000000032e44       0x68 CMakeFiles/dfu_no_serial_nrf52832_xxAA_s132_6.0.0.dir/__/__/mesh/prov/src/prov_bearer_adv.c.obj
 .text.prov_buffer_rx
                0x0000000000032eac       0xa0 CMakeFiles/dfu_no_serial_nrf52832_xxAA_s132_6.0.0.dir/__/__/mesh/prov/src/prov_bearer_adv.c.obj
 .text.prov_bearer_adv_link_open
                0x0000000000032f4c      0x1b8 CMakeFiles/dfu_no_serial_nrf52832_xxAA_s132_6.0.0.dir/__/__/mesh/prov/src/prov_bearer_adv.c.obj
 .text.prov_bearer_adv_link_close
                0x0000000000033104       0xcc CMakeFiles/dfu_no_serial_nrf52832_xxAA_s132_6.0.0.dir/__/__/mesh/prov/src/prov_bearer_adv.c.obj
 .text.prov_buffer_tx
                0x00000000000331d0      0x1e4 CMakeFiles/dfu_no_serial_nrf52832_xxAA_s132_6.0.0.dir/__/__/mesh/prov/src/prov_bearer_adv.c.obj
 .text.tx_retry_cb
                0x00000000000333b4      0x130 CMakeFiles/dfu_no_serial_nrf52832_xxAA_s132_6.0.0.dir/__/__/mesh/prov/src/prov_bearer_adv.c.obj
 .text.prov_bearer_adv_tx
                0x00000000000334e4       0xe8 CMakeFiles/dfu_no_serial_nrf52832_xxAA_s132_6.0.0.dir/__/__/mesh/prov/src/prov_bearer_adv.c.obj
 .text.async_process
                0x00000000000335cc      0x118 CMakeFiles/dfu_no_serial_nrf52832_xxAA_s132_6.0.0.dir/__/__/mesh/prov/src/prov_bearer_adv.c.obj
 .text.nrf_mesh_prov_bearer_adv_interface_get
                0x00000000000336e4       0x40 CMakeFiles/dfu_no_serial_nrf52832_xxAA_s132_6.0.0.dir/__/__/mesh/prov/src/prov_bearer_adv.c.obj
                0x00000000000336e4                nrf_mesh_prov_bearer_adv_interface_get
 .text.prov_bearer_adv_packet_in
                0x0000000000033724      0x914 CMakeFiles/dfu_no_serial_nrf52832_xxAA_s132_6.0.0.dir/__/__/mesh/prov/src/prov_bearer_adv.c.obj
                0x0000000000033724                prov_bearer_adv_packet_in
 .text.tx_complete_cb
                0x0000000000034038        0x4 CMakeFiles/dfu_no_serial_nrf52832_xxAA_s132_6.0.0.dir/__/__/mesh/dfu/src/nrf_mesh_dfu.c.obj
 .text.tx_timeout
                0x000000000003403c      0x21c CMakeFiles/dfu_no_serial_nrf52832_xxAA_s132_6.0.0.dir/__/__/mesh/dfu/src/nrf_mesh_dfu.c.obj
 .text.abort_timeout
                0x0000000000034258      0x140 CMakeFiles/dfu_no_serial_nrf52832_xxAA_s132_6.0.0.dir/__/__/mesh/dfu/src/nrf_mesh_dfu.c.obj
 .text.timer_timeout
                0x0000000000034398       0xf4 CMakeFiles/dfu_no_serial_nrf52832_xxAA_s132_6.0.0.dir/__/__/mesh/dfu/src/nrf_mesh_dfu.c.obj
 .text.flash_op_complete
                0x000000000003448c      0x1fc CMakeFiles/dfu_no_serial_nrf52832_xxAA_s132_6.0.0.dir/__/__/mesh/dfu/src/nrf_mesh_dfu.c.obj
 .text.dfu_evt_handler
                0x0000000000034688      0xa98 CMakeFiles/dfu_no_serial_nrf52832_xxAA_s132_6.0.0.dir/__/__/mesh/dfu/src/nrf_mesh_dfu.c.obj
 .text.nrf_mesh_dfu_rx
                0x0000000000035120      0x2e8 CMakeFiles/dfu_no_serial_nrf52832_xxAA_s132_6.0.0.dir/__/__/mesh/dfu/src/nrf_mesh_dfu.c.obj
                0x0000000000035120                nrf_mesh_dfu_rx
 .text.nrf_mesh_dfu_request
                0x0000000000035408      0x12c CMakeFiles/dfu_no_serial_nrf52832_xxAA_s132_6.0.0.dir/__/__/mesh/dfu/src/nrf_mesh_dfu.c.obj
                0x0000000000035408                nrf_mesh_dfu_request
 .text.nrf_mesh_dfu_relay
                0x0000000000035534      0x10c CMakeFiles/dfu_no_serial_nrf52832_xxAA_s132_6.0.0.dir/__/__/mesh/dfu/src/nrf_mesh_dfu.c.obj
                0x0000000000035534                nrf_mesh_dfu_relay
 .text.nrf_mesh_dfu_bank_flash
                0x0000000000035640       0xb8 CMakeFiles/dfu_no_serial_nrf52832_xxAA_s132_6.0.0.dir/__/__/mesh/dfu/src/nrf_mesh_dfu.c.obj
                0x0000000000035640                nrf_mesh_dfu_bank_flash
 .text.nrf_mesh_dfu_cmd_send
                0x00000000000356f8       0xa8 CMakeFiles/dfu_no_serial_nrf52832_xxAA_s132_6.0.0.dir/__/__/mesh/dfu/src/nrf_mesh_dfu.c.obj
                0x00000000000356f8                nrf_mesh_dfu_cmd_send
 .text.nrf_mesh_dfu_init
                0x00000000000357a0      0x1f4 CMakeFiles/dfu_no_serial_nrf52832_xxAA_s132_6.0.0.dir/__/__/mesh/dfu/src/nrf_mesh_dfu.c.obj
                0x00000000000357a0                nrf_mesh_dfu_init
 .text.app_error_fault_handler
                0x0000000000035994      0x238 CMakeFiles/dfu_no_serial_nrf52832_xxAA_s132_6.0.0.dir/__/common/src/app_error_weak.c.obj
                0x0000000000035994                app_error_fault_handler
 .text.mesh_assertion_handler
                0x0000000000035bcc       0x24 CMakeFiles/dfu_no_serial_nrf52832_xxAA_s132_6.0.0.dir/__/common/src/assertion_handler_weak.c.obj
                0x0000000000035bcc                mesh_assertion_handler
 .text.nrf_mesh_configure_device_uuid_set
                0x0000000000035bf0       0x10 CMakeFiles/dfu_no_serial_nrf52832_xxAA_s132_6.0.0.dir/__/__/mesh/core/src/nrf_mesh_configure.c.obj
                0x0000000000035bf0                nrf_mesh_configure_device_uuid_set
 .text.nrf_mesh_configure_device_uuid_reset
                0x0000000000035c00       0x2c CMakeFiles/dfu_no_serial_nrf52832_xxAA_s132_6.0.0.dir/__/__/mesh/core/src/nrf_mesh_configure.c.obj
                0x0000000000035c00                nrf_mesh_configure_device_uuid_reset
 .text.nrf_mesh_configure_device_uuid_get
                0x0000000000035c2c        0x8 CMakeFiles/dfu_no_serial_nrf52832_xxAA_s132_6.0.0.dir/__/__/mesh/core/src/nrf_mesh_configure.c.obj
                0x0000000000035c2c                nrf_mesh_configure_device_uuid_get
 .text.sd_ecb_block_encrypt
                0x0000000000035c34        0x4 CMakeFiles/dfu_no_serial_nrf52832_xxAA_s132_6.0.0.dir/__/__/mesh/core/src/aes.c.obj
 .text.aes_encrypt
                0x0000000000035c38       0x34 CMakeFiles/dfu_no_serial_nrf52832_xxAA_s132_6.0.0.dir/__/__/mesh/core/src/aes.c.obj
                0x0000000000035c38                aes_encrypt
 .text.msg_cache_init
                0x0000000000035c6c       0x24 CMakeFiles/dfu_no_serial_nrf52832_xxAA_s132_6.0.0.dir/__/__/mesh/core/src/msg_cache.c.obj
                0x0000000000035c6c                msg_cache_init
 .text.msg_cache_entry_exists
                0x0000000000035c90       0x40 CMakeFiles/dfu_no_serial_nrf52832_xxAA_s132_6.0.0.dir/__/__/mesh/core/src/msg_cache.c.obj
                0x0000000000035c90                msg_cache_entry_exists
 .text.msg_cache_entry_add
                0x0000000000035cd0       0x2c CMakeFiles/dfu_no_serial_nrf52832_xxAA_s132_6.0.0.dir/__/__/mesh/core/src/msg_cache.c.obj
                0x0000000000035cd0                msg_cache_entry_add
 .text.tx_complete
                0x0000000000035cfc       0x30 CMakeFiles/dfu_no_serial_nrf52832_xxAA_s132_6.0.0.dir/__/__/mesh/core/src/transport.c.obj
 .text.upper_trs_packet_encrypt
                0x0000000000035d2c       0xa8 CMakeFiles/dfu_no_serial_nrf52832_xxAA_s132_6.0.0.dir/__/__/mesh/core/src/transport.c.obj
 .text.trs_sar_packet_out
                0x0000000000035dd4      0x19c CMakeFiles/dfu_no_serial_nrf52832_xxAA_s132_6.0.0.dir/__/__/mesh/core/src/transport.c.obj
 .text.upper_transport_access_packet_in
                0x0000000000035f70      0x33c CMakeFiles/dfu_no_serial_nrf52832_xxAA_s132_6.0.0.dir/__/__/mesh/core/src/transport.c.obj
 .text.sar_ctx_cancel
                0x00000000000362ac      0x148 CMakeFiles/dfu_no_serial_nrf52832_xxAA_s132_6.0.0.dir/__/__/mesh/core/src/transport.c.obj
 .text.retry_timeout
                0x00000000000363f4       0x98 CMakeFiles/dfu_no_serial_nrf52832_xxAA_s132_6.0.0.dir/__/__/mesh/core/src/transport.c.obj
 .text.upper_transport_packet_in
                0x000000000003648c      0x2a4 CMakeFiles/dfu_no_serial_nrf52832_xxAA_s132_6.0.0.dir/__/__/mesh/core/src/transport.c.obj
 .text.upper_transport_tx.part.27
                0x0000000000036730      0x370 CMakeFiles/dfu_no_serial_nrf52832_xxAA_s132_6.0.0.dir/__/__/mesh/core/src/transport.c.obj
 .text.sar_ack_send.part.31
                0x0000000000036aa0       0xd4 CMakeFiles/dfu_no_serial_nrf52832_xxAA_s132_6.0.0.dir/__/__/mesh/core/src/transport.c.obj
 .text.transport_sar_process
                0x0000000000036b74      0x274 CMakeFiles/dfu_no_serial_nrf52832_xxAA_s132_6.0.0.dir/__/__/mesh/core/src/transport.c.obj
 .text.abort_timeout
                0x0000000000036de8      0x138 CMakeFiles/dfu_no_serial_nrf52832_xxAA_s132_6.0.0.dir/__/__/mesh/core/src/transport.c.obj
 .text.ack_timeout
                0x0000000000036f20       0xf8 CMakeFiles/dfu_no_serial_nrf52832_xxAA_s132_6.0.0.dir/__/__/mesh/core/src/transport.c.obj
 .text.transport_init
                0x0000000000037018       0xac CMakeFiles/dfu_no_serial_nrf52832_xxAA_s132_6.0.0.dir/__/__/mesh/core/src/transport.c.obj
                0x0000000000037018                transport_init
 .text.transport_packet_in
                0x00000000000370c4      0x778 CMakeFiles/dfu_no_serial_nrf52832_xxAA_s132_6.0.0.dir/__/__/mesh/core/src/transport.c.obj
                0x00000000000370c4                transport_packet_in
 .text.transport_tx
                0x000000000003783c       0xec CMakeFiles/dfu_no_serial_nrf52832_xxAA_s132_6.0.0.dir/__/__/mesh/core/src/transport.c.obj
                0x000000000003783c                transport_tx
 .text.transport_control_tx
                0x0000000000037928       0xc4 CMakeFiles/dfu_no_serial_nrf52832_xxAA_s132_6.0.0.dir/__/__/mesh/core/src/transport.c.obj
                0x0000000000037928                transport_control_tx
 .text.transport_opt_set
                0x00000000000379ec       0xdc CMakeFiles/dfu_no_serial_nrf52832_xxAA_s132_6.0.0.dir/__/__/mesh/core/src/transport.c.obj
                0x00000000000379ec                transport_opt_set
 .text.transport_opt_get
                0x0000000000037ac8       0x84 CMakeFiles/dfu_no_serial_nrf52832_xxAA_s132_6.0.0.dir/__/__/mesh/core/src/transport.c.obj
                0x0000000000037ac8                transport_opt_get
 .text.transport_control_packet_consumer_add
                0x0000000000037b4c       0x68 CMakeFiles/dfu_no_serial_nrf52832_xxAA_s132_6.0.0.dir/__/__/mesh/core/src/transport.c.obj
                0x0000000000037b4c                transport_control_packet_consumer_add
 .text.event_handle
                0x0000000000037bb4       0x28 CMakeFiles/dfu_no_serial_nrf52832_xxAA_s132_6.0.0.dir/__/__/mesh/core/src/event.c.obj
                0x0000000000037bb4                event_handle
 .text.event_handler_add
                0x0000000000037bdc       0x28 CMakeFiles/dfu_no_serial_nrf52832_xxAA_s132_6.0.0.dir/__/__/mesh/core/src/event.c.obj
                0x0000000000037bdc                event_handler_add
 .text.event_handler_remove
                0x0000000000037c04       0x28 CMakeFiles/dfu_no_serial_nrf52832_xxAA_s132_6.0.0.dir/__/__/mesh/core/src/event.c.obj
                0x0000000000037c04                event_handler_remove
 .text.packet_buffer_init
                0x0000000000037c2c       0xb4 CMakeFiles/dfu_no_serial_nrf52832_xxAA_s132_6.0.0.dir/__/__/mesh/core/src/packet_buffer.c.obj
                0x0000000000037c2c                packet_buffer_init
 .text.packet_buffer_flush
                0x0000000000037ce0       0x6c CMakeFiles/dfu_no_serial_nrf52832_xxAA_s132_6.0.0.dir/__/__/mesh/core/src/packet_buffer.c.obj
                0x0000000000037ce0                packet_buffer_flush
 .text.packet_buffer_reserve
                0x0000000000037d4c       0xa4 CMakeFiles/dfu_no_serial_nrf52832_xxAA_s132_6.0.0.dir/__/__/mesh/core/src/packet_buffer.c.obj
                0x0000000000037d4c                packet_buffer_reserve
 .text.packet_buffer_commit
                0x0000000000037df0       0x7c CMakeFiles/dfu_no_serial_nrf52832_xxAA_s132_6.0.0.dir/__/__/mesh/core/src/packet_buffer.c.obj
                0x0000000000037df0                packet_buffer_commit
 .text.packet_buffer_pop
                0x0000000000037e6c       0x44 CMakeFiles/dfu_no_serial_nrf52832_xxAA_s132_6.0.0.dir/__/__/mesh/core/src/packet_buffer.c.obj
                0x0000000000037e6c                packet_buffer_pop
 .text.packet_buffer_can_pop
                0x0000000000037eb0       0x24 CMakeFiles/dfu_no_serial_nrf52832_xxAA_s132_6.0.0.dir/__/__/mesh/core/src/packet_buffer.c.obj
                0x0000000000037eb0                packet_buffer_can_pop
 .text.packet_buffer_packets_ready_to_pop
                0x0000000000037ed4       0x5c CMakeFiles/dfu_no_serial_nrf52832_xxAA_s132_6.0.0.dir/__/__/mesh/core/src/packet_buffer.c.obj
                0x0000000000037ed4                packet_buffer_packets_ready_to_pop
 .text.packet_buffer_free
                0x0000000000037f30       0x8c CMakeFiles/dfu_no_serial_nrf52832_xxAA_s132_6.0.0.dir/__/__/mesh/core/src/packet_buffer.c.obj
                0x0000000000037f30                packet_buffer_free
 .text.erase_source
                0x0000000000037fbc       0x34 CMakeFiles/dfu_no_serial_nrf52832_xxAA_s132_6.0.0.dir/__/__/mesh/core/src/flash_manager_defrag.c.obj
 .text.erase_recovery_area
                0x0000000000037ff0       0x34 CMakeFiles/dfu_no_serial_nrf52832_xxAA_s132_6.0.0.dir/__/__/mesh/core/src/flash_manager_defrag.c.obj
 .text.write_back
                0x0000000000038024       0x44 CMakeFiles/dfu_no_serial_nrf52832_xxAA_s132_6.0.0.dir/__/__/mesh/core/src/flash_manager_defrag.c.obj
 .text.write_defrag_start_pointer
                0x0000000000038068       0x38 CMakeFiles/dfu_no_serial_nrf52832_xxAA_s132_6.0.0.dir/__/__/mesh/core/src/flash_manager_defrag.c.obj
 .text.copy_metadata
                0x00000000000380a0       0x58 CMakeFiles/dfu_no_serial_nrf52832_xxAA_s132_6.0.0.dir/__/__/mesh/core/src/flash_manager_defrag.c.obj
 .text.seal_storage_page
                0x00000000000380f8       0x70 CMakeFiles/dfu_no_serial_nrf52832_xxAA_s132_6.0.0.dir/__/__/mesh/core/src/flash_manager_defrag.c.obj
 .text.post_process
                0x0000000000038168       0x64 CMakeFiles/dfu_no_serial_nrf52832_xxAA_s132_6.0.0.dir/__/__/mesh/core/src/flash_manager_defrag.c.obj
 .text.check_for_invalid_entries
                0x00000000000381cc       0x40 CMakeFiles/dfu_no_serial_nrf52832_xxAA_s132_6.0.0.dir/__/__/mesh/core/src/flash_manager_defrag.c.obj
 .text.execute_procedure_step
                0x000000000003820c       0x98 CMakeFiles/dfu_no_serial_nrf52832_xxAA_s132_6.0.0.dir/__/__/mesh/core/src/flash_manager_defrag.c.obj
 .text.on_flash_op_end
                0x00000000000382a4       0x48 CMakeFiles/dfu_no_serial_nrf52832_xxAA_s132_6.0.0.dir/__/__/mesh/core/src/flash_manager_defrag.c.obj
 .text.invalidate_duplicate_entries
                0x00000000000382ec      0x150 CMakeFiles/dfu_no_serial_nrf52832_xxAA_s132_6.0.0.dir/__/__/mesh/core/src/flash_manager_defrag.c.obj
 .text.backup_entries
                0x000000000003843c      0x1c8 CMakeFiles/dfu_no_serial_nrf52832_xxAA_s132_6.0.0.dir/__/__/mesh/core/src/flash_manager_defrag.c.obj
 .text.flash_manager_defrag_init
                0x0000000000038604       0x6c CMakeFiles/dfu_no_serial_nrf52832_xxAA_s132_6.0.0.dir/__/__/mesh/core/src/flash_manager_defrag.c.obj
                0x0000000000038604                flash_manager_defrag_init
 .text.flash_manager_defrag_is_running
                0x0000000000038670       0x10 CMakeFiles/dfu_no_serial_nrf52832_xxAA_s132_6.0.0.dir/__/__/mesh/core/src/flash_manager_defrag.c.obj
                0x0000000000038670                flash_manager_defrag_is_running
 .text.flash_manager_defrag
                0x0000000000038680       0x48 CMakeFiles/dfu_no_serial_nrf52832_xxAA_s132_6.0.0.dir/__/__/mesh/core/src/flash_manager_defrag.c.obj
                0x0000000000038680                flash_manager_defrag
 .text.flash_manager_defrag_recovery_page_get
                0x00000000000386c8        0xc CMakeFiles/dfu_no_serial_nrf52832_xxAA_s132_6.0.0.dir/__/__/mesh/core/src/flash_manager_defrag.c.obj
                0x00000000000386c8                flash_manager_defrag_recovery_page_get
 .text.fifo_init
                0x00000000000386d4       0x38 CMakeFiles/dfu_no_serial_nrf52832_xxAA_s132_6.0.0.dir/__/__/mesh/core/src/fifo.c.obj
                0x00000000000386d4                fifo_init
 .text.fifo_push
                0x000000000003870c       0x60 CMakeFiles/dfu_no_serial_nrf52832_xxAA_s132_6.0.0.dir/__/__/mesh/core/src/fifo.c.obj
                0x000000000003870c                fifo_push
 .text.fifo_pop
                0x000000000003876c       0x5c CMakeFiles/dfu_no_serial_nrf52832_xxAA_s132_6.0.0.dir/__/__/mesh/core/src/fifo.c.obj
                0x000000000003876c                fifo_pop
 .text.nrf_flash_erase
                0x00000000000387c8       0x5c CMakeFiles/dfu_no_serial_nrf52832_xxAA_s132_6.0.0.dir/__/__/mesh/core/src/nrf_flash.c.obj
                0x00000000000387c8                nrf_flash_erase
 .text.nrf_flash_write
                0x0000000000038824       0x70 CMakeFiles/dfu_no_serial_nrf52832_xxAA_s132_6.0.0.dir/__/__/mesh/core/src/nrf_flash.c.obj
                0x0000000000038824                nrf_flash_write
 .text.packet_mgr_init
                0x0000000000038894       0x48 CMakeFiles/dfu_no_serial_nrf52832_xxAA_s132_6.0.0.dir/__/__/mesh/core/src/packet_mgr.c.obj
                0x0000000000038894                packet_mgr_init
 .text.flash_store_iv_index
                0x00000000000388dc       0x38 CMakeFiles/dfu_no_serial_nrf52832_xxAA_s132_6.0.0.dir/__/__/mesh/core/src/net_state.c.obj
 .text.flash_mem_available
                0x0000000000038914       0x1c CMakeFiles/dfu_no_serial_nrf52832_xxAA_s132_6.0.0.dir/__/__/mesh/core/src/net_state.c.obj
 .text.init_flash_storage
                0x0000000000038930       0x44 CMakeFiles/dfu_no_serial_nrf52832_xxAA_s132_6.0.0.dir/__/__/mesh/core/src/net_state.c.obj
 .text.flash_write_complete
                0x0000000000038974       0x6c CMakeFiles/dfu_no_serial_nrf52832_xxAA_s132_6.0.0.dir/__/__/mesh/core/src/net_state.c.obj
 .text.seqnum_block_allocate
                0x00000000000389e0       0x4c CMakeFiles/dfu_no_serial_nrf52832_xxAA_s132_6.0.0.dir/__/__/mesh/core/src/net_state.c.obj
 .text.net_state_reset
                0x0000000000038a2c       0x78 CMakeFiles/dfu_no_serial_nrf52832_xxAA_s132_6.0.0.dir/__/__/mesh/core/src/net_state.c.obj
                0x0000000000038a2c                net_state_reset
 .text.iv_update_trigger_if_pending
                0x0000000000038aa4      0x174 CMakeFiles/dfu_no_serial_nrf52832_xxAA_s132_6.0.0.dir/__/__/mesh/core/src/net_state.c.obj
 .text.iv_update_timer_handler
                0x0000000000038c18       0x70 CMakeFiles/dfu_no_serial_nrf52832_xxAA_s132_6.0.0.dir/__/__/mesh/core/src/net_state.c.obj
 .text.mesh_evt_handler
                0x0000000000038c88      0x104 CMakeFiles/dfu_no_serial_nrf52832_xxAA_s132_6.0.0.dir/__/__/mesh/core/src/net_state.c.obj
 .text.net_state_recover_from_flash
                0x0000000000038d8c      0x118 CMakeFiles/dfu_no_serial_nrf52832_xxAA_s132_6.0.0.dir/__/__/mesh/core/src/net_state.c.obj
                0x0000000000038d8c                net_state_recover_from_flash
 .text.net_state_flash_area_get
                0x0000000000038ea4        0xc CMakeFiles/dfu_no_serial_nrf52832_xxAA_s132_6.0.0.dir/__/__/mesh/core/src/net_state.c.obj
                0x0000000000038ea4                net_state_flash_area_get
 .text.net_state_init
                0x0000000000038eb0       0x94 CMakeFiles/dfu_no_serial_nrf52832_xxAA_s132_6.0.0.dir/__/__/mesh/core/src/net_state.c.obj
                0x0000000000038eb0                net_state_init
 .text.net_state_seqnum_alloc
                0x0000000000038f44       0xd0 CMakeFiles/dfu_no_serial_nrf52832_xxAA_s132_6.0.0.dir/__/__/mesh/core/src/net_state.c.obj
                0x0000000000038f44                net_state_seqnum_alloc
 .text.net_state_iv_index_lock
                0x0000000000039014      0x188 CMakeFiles/dfu_no_serial_nrf52832_xxAA_s132_6.0.0.dir/__/__/mesh/core/src/net_state.c.obj
                0x0000000000039014                net_state_iv_index_lock
 .text.net_state_key_refresh_phase_changed
                0x000000000003919c       0x20 CMakeFiles/dfu_no_serial_nrf52832_xxAA_s132_6.0.0.dir/__/__/mesh/core/src/net_state.c.obj
                0x000000000003919c                net_state_key_refresh_phase_changed
 .text.net_state_beacon_iv_index_get
                0x00000000000391bc        0xc CMakeFiles/dfu_no_serial_nrf52832_xxAA_s132_6.0.0.dir/__/__/mesh/core/src/net_state.c.obj
                0x00000000000391bc                net_state_beacon_iv_index_get
 .text.net_state_tx_iv_index_get
                0x00000000000391c8       0x14 CMakeFiles/dfu_no_serial_nrf52832_xxAA_s132_6.0.0.dir/__/__/mesh/core/src/net_state.c.obj
                0x00000000000391c8                net_state_tx_iv_index_get
 .text.net_state_rx_iv_index_get
                0x00000000000391dc       0x18 CMakeFiles/dfu_no_serial_nrf52832_xxAA_s132_6.0.0.dir/__/__/mesh/core/src/net_state.c.obj
                0x00000000000391dc                net_state_rx_iv_index_get
 .text.net_state_iv_update_get
                0x00000000000391f4        0xc CMakeFiles/dfu_no_serial_nrf52832_xxAA_s132_6.0.0.dir/__/__/mesh/core/src/net_state.c.obj
                0x00000000000391f4                net_state_iv_update_get
 .text.net_state_iv_index_set
                0x0000000000039200       0x88 CMakeFiles/dfu_no_serial_nrf52832_xxAA_s132_6.0.0.dir/__/__/mesh/core/src/net_state.c.obj
                0x0000000000039200                net_state_iv_index_set
 .text.send_end_events
                0x0000000000039288       0x98 CMakeFiles/dfu_no_serial_nrf52832_xxAA_s132_6.0.0.dir/__/__/mesh/core/src/mesh_flash.c.obj
 .text.flash_op_start
                0x0000000000039320      0x214 CMakeFiles/dfu_no_serial_nrf52832_xxAA_s132_6.0.0.dir/__/__/mesh/core/src/mesh_flash.c.obj
 .text.mesh_flash_init
                0x0000000000039534       0x78 CMakeFiles/dfu_no_serial_nrf52832_xxAA_s132_6.0.0.dir/__/__/mesh/core/src/mesh_flash.c.obj
                0x0000000000039534                mesh_flash_init
 .text.mesh_flash_user_callback_set
                0x00000000000395ac       0x20 CMakeFiles/dfu_no_serial_nrf52832_xxAA_s132_6.0.0.dir/__/__/mesh/core/src/mesh_flash.c.obj
                0x00000000000395ac                mesh_flash_user_callback_set
 .text.mesh_flash_op_push
                0x00000000000395cc      0x198 CMakeFiles/dfu_no_serial_nrf52832_xxAA_s132_6.0.0.dir/__/__/mesh/core/src/mesh_flash.c.obj
                0x00000000000395cc                mesh_flash_op_push
 .text.mesh_flash_in_progress
                0x0000000000039764       0x34 CMakeFiles/dfu_no_serial_nrf52832_xxAA_s132_6.0.0.dir/__/__/mesh/core/src/mesh_flash.c.obj
                0x0000000000039764                mesh_flash_in_progress
 .text.mesh_flash_set_suspended
                0x0000000000039798      0x21c CMakeFiles/dfu_no_serial_nrf52832_xxAA_s132_6.0.0.dir/__/__/mesh/core/src/mesh_flash.c.obj
                0x0000000000039798                mesh_flash_set_suspended
 .text.nrf_mesh_address_type_get
                0x00000000000399b4       0x10 CMakeFiles/dfu_no_serial_nrf52832_xxAA_s132_6.0.0.dir/__/__/mesh/core/src/nrf_mesh_utils.c.obj
                0x00000000000399b4                nrf_mesh_address_type_get
 .text.sd_softdevice_is_enabled
                0x00000000000399c4        0x4 CMakeFiles/dfu_no_serial_nrf52832_xxAA_s132_6.0.0.dir/__/__/mesh/core/src/nrf_mesh.c.obj
 .text.nrf_mesh_listen
                0x00000000000399c8      0x184 CMakeFiles/dfu_no_serial_nrf52832_xxAA_s132_6.0.0.dir/__/__/mesh/core/src/nrf_mesh.c.obj
 .text.flash_stable_cb
                0x0000000000039b4c       0x20 CMakeFiles/dfu_no_serial_nrf52832_xxAA_s132_6.0.0.dir/__/__/mesh/core/src/nrf_mesh.c.obj
 .text.scanner_packet_process_cb
                0x0000000000039b6c       0x88 CMakeFiles/dfu_no_serial_nrf52832_xxAA_s132_6.0.0.dir/__/__/mesh/core/src/nrf_mesh.c.obj
 .text.nrf_mesh_init
                0x0000000000039bf4       0xe4 CMakeFiles/dfu_no_serial_nrf52832_xxAA_s132_6.0.0.dir/__/__/mesh/core/src/nrf_mesh.c.obj
                0x0000000000039bf4                nrf_mesh_init
 .text.nrf_mesh_enable
                0x0000000000039cd8       0x48 CMakeFiles/dfu_no_serial_nrf52832_xxAA_s132_6.0.0.dir/__/__/mesh/core/src/nrf_mesh.c.obj
                0x0000000000039cd8                nrf_mesh_enable
 .text.nrf_mesh_packet_send
                0x0000000000039d20       0x94 CMakeFiles/dfu_no_serial_nrf52832_xxAA_s132_6.0.0.dir/__/__/mesh/core/src/nrf_mesh.c.obj
                0x0000000000039d20                nrf_mesh_packet_send
 .text.nrf_mesh_evt_handler_add
                0x0000000000039db4        0x4 CMakeFiles/dfu_no_serial_nrf52832_xxAA_s132_6.0.0.dir/__/__/mesh/core/src/nrf_mesh.c.obj
                0x0000000000039db4                nrf_mesh_evt_handler_add
 .text.nrf_mesh_on_sd_evt
                0x0000000000039db8        0xc CMakeFiles/dfu_no_serial_nrf52832_xxAA_s132_6.0.0.dir/__/__/mesh/core/src/nrf_mesh.c.obj
                0x0000000000039db8                nrf_mesh_on_sd_evt
 .text.nrf_mesh_subnet_added
                0x0000000000039dc4        0x4 CMakeFiles/dfu_no_serial_nrf52832_xxAA_s132_6.0.0.dir/__/__/mesh/core/src/nrf_mesh.c.obj
                0x0000000000039dc4                nrf_mesh_subnet_added
 .text.queue_init
                0x0000000000039dc8       0x1c CMakeFiles/dfu_no_serial_nrf52832_xxAA_s132_6.0.0.dir/__/__/mesh/core/src/queue.c.obj
                0x0000000000039dc8                queue_init
 .text.queue_push
                0x0000000000039de4       0x3c CMakeFiles/dfu_no_serial_nrf52832_xxAA_s132_6.0.0.dir/__/__/mesh/core/src/queue.c.obj
                0x0000000000039de4                queue_push
 .text.queue_pop
                0x0000000000039e20       0x2c CMakeFiles/dfu_no_serial_nrf52832_xxAA_s132_6.0.0.dir/__/__/mesh/core/src/queue.c.obj
                0x0000000000039e20                queue_pop
 .text.queue_peek
                0x0000000000039e4c       0x14 CMakeFiles/dfu_no_serial_nrf52832_xxAA_s132_6.0.0.dir/__/__/mesh/core/src/queue.c.obj
                0x0000000000039e4c                queue_peek
 .text.sd_power_reset_reason_clr
                0x0000000000039e60        0x4 CMakeFiles/dfu_no_serial_nrf52832_xxAA_s132_6.0.0.dir/__/__/mesh/core/src/hal.c.obj
 .text.sd_power_gpregret_set
                0x0000000000039e64        0x4 CMakeFiles/dfu_no_serial_nrf52832_xxAA_s132_6.0.0.dir/__/__/mesh/core/src/hal.c.obj
 .text.hal_device_reset
                0x0000000000039e68       0x38 CMakeFiles/dfu_no_serial_nrf52832_xxAA_s132_6.0.0.dir/__/__/mesh/core/src/hal.c.obj
                0x0000000000039e68                hal_device_reset
 .text.hal_lfclk_ppm_get
                0x0000000000039ea0       0x14 CMakeFiles/dfu_no_serial_nrf52832_xxAA_s132_6.0.0.dir/__/__/mesh/core/src/hal.c.obj
                0x0000000000039ea0                hal_lfclk_ppm_get
 .text.aes_cmac_subkey_generate
                0x0000000000039eb4      0x294 CMakeFiles/dfu_no_serial_nrf52832_xxAA_s132_6.0.0.dir/__/__/mesh/core/src/aes_cmac.c.obj
                0x0000000000039eb4                aes_cmac_subkey_generate
 .text.aes_cmac
                0x000000000003a148      0x4b8 CMakeFiles/dfu_no_serial_nrf52832_xxAA_s132_6.0.0.dir/__/__/mesh/core/src/aes_cmac.c.obj
                0x000000000003a148                aes_cmac
 .text.timer_cb
                0x000000000003a600        0xc CMakeFiles/dfu_no_serial_nrf52832_xxAA_s132_6.0.0.dir/__/__/mesh/core/src/timer_scheduler.c.obj
 .text.add_evt.constprop.1
                0x000000000003a60c       0x60 CMakeFiles/dfu_no_serial_nrf52832_xxAA_s132_6.0.0.dir/__/__/mesh/core/src/timer_scheduler.c.obj
 .text.flag_event_cb
                0x000000000003a66c      0x2f0 CMakeFiles/dfu_no_serial_nrf52832_xxAA_s132_6.0.0.dir/__/__/mesh/core/src/timer_scheduler.c.obj
 .text.timer_sch_init
                0x000000000003a95c       0x24 CMakeFiles/dfu_no_serial_nrf52832_xxAA_s132_6.0.0.dir/__/__/mesh/core/src/timer_scheduler.c.obj
                0x000000000003a95c                timer_sch_init
 .text.timer_sch_schedule
                0x000000000003a980       0x68 CMakeFiles/dfu_no_serial_nrf52832_xxAA_s132_6.0.0.dir/__/__/mesh/core/src/timer_scheduler.c.obj
                0x000000000003a980                timer_sch_schedule
 .text.timer_sch_abort
                0x000000000003a9e8       0x5c CMakeFiles/dfu_no_serial_nrf52832_xxAA_s132_6.0.0.dir/__/__/mesh/core/src/timer_scheduler.c.obj
                0x000000000003a9e8                timer_sch_abort
 .text.timer_sch_reschedule
                0x000000000003aa44       0x90 CMakeFiles/dfu_no_serial_nrf52832_xxAA_s132_6.0.0.dir/__/__/mesh/core/src/timer_scheduler.c.obj
                0x000000000003aa44                timer_sch_reschedule
 .text.timer_event_handler
                0x000000000003aad4       0xd0 CMakeFiles/dfu_no_serial_nrf52832_xxAA_s132_6.0.0.dir/__/__/mesh/core/src/timer.c.obj
                0x000000000003aad4                timer_event_handler
 .text.timer_order_cb
                0x000000000003aba4       0x9c CMakeFiles/dfu_no_serial_nrf52832_xxAA_s132_6.0.0.dir/__/__/mesh/core/src/timer.c.obj
                0x000000000003aba4                timer_order_cb
 .text.timer_now
                0x000000000003ac40       0x58 CMakeFiles/dfu_no_serial_nrf52832_xxAA_s132_6.0.0.dir/__/__/mesh/core/src/timer.c.obj
                0x000000000003ac40                timer_now
 .text.timer_on_ts_begin
                0x000000000003ac98      0x100 CMakeFiles/dfu_no_serial_nrf52832_xxAA_s132_6.0.0.dir/__/__/mesh/core/src/timer.c.obj
                0x000000000003ac98                timer_on_ts_begin
 .text.timer_on_ts_end
                0x000000000003ad98       0x78 CMakeFiles/dfu_no_serial_nrf52832_xxAA_s132_6.0.0.dir/__/__/mesh/core/src/timer.c.obj
                0x000000000003ad98                timer_on_ts_end
 .text.timer_cb
                0x000000000003ae10       0x10 CMakeFiles/dfu_no_serial_nrf52832_xxAA_s132_6.0.0.dir/__/__/mesh/core/src/ticker.c.obj
 .text.ticker_init
                0x000000000003ae20       0x3c CMakeFiles/dfu_no_serial_nrf52832_xxAA_s132_6.0.0.dir/__/__/mesh/core/src/ticker.c.obj
                0x000000000003ae20                ticker_init
 .text.sd_rand_application_bytes_available_get
                0x000000000003ae5c        0x4 CMakeFiles/dfu_no_serial_nrf52832_xxAA_s132_6.0.0.dir/__/__/mesh/core/src/rand.c.obj
 .text.sd_rand_application_vector_get
                0x000000000003ae60        0x4 CMakeFiles/dfu_no_serial_nrf52832_xxAA_s132_6.0.0.dir/__/__/mesh/core/src/rand.c.obj
 .text.rand_prng_seed
                0x000000000003ae64       0x78 CMakeFiles/dfu_no_serial_nrf52832_xxAA_s132_6.0.0.dir/__/__/mesh/core/src/rand.c.obj
                0x000000000003ae64                rand_prng_seed
 .text.rand_prng_get
                0x000000000003aedc       0x28 CMakeFiles/dfu_no_serial_nrf52832_xxAA_s132_6.0.0.dir/__/__/mesh/core/src/rand.c.obj
                0x000000000003aedc                rand_prng_get
 .text.rand_hw_rng_get
                0x000000000003af04       0x60 CMakeFiles/dfu_no_serial_nrf52832_xxAA_s132_6.0.0.dir/__/__/mesh/core/src/rand.c.obj
                0x000000000003af04                rand_hw_rng_get
 .text.nrf_mesh_opt_set
                0x000000000003af64       0x28 CMakeFiles/dfu_no_serial_nrf52832_xxAA_s132_6.0.0.dir/__/__/mesh/core/src/nrf_mesh_opt.c.obj
                0x000000000003af64                nrf_mesh_opt_set
 .text.nrf_mesh_opt_get
                0x000000000003af8c       0x28 CMakeFiles/dfu_no_serial_nrf52832_xxAA_s132_6.0.0.dir/__/__/mesh/core/src/nrf_mesh_opt.c.obj
                0x000000000003af8c                nrf_mesh_opt_get
 .text.sd_radio_session_open
                0x000000000003afb4        0x4 CMakeFiles/dfu_no_serial_nrf52832_xxAA_s132_6.0.0.dir/__/__/mesh/core/src/timeslot.c.obj
 .text.sd_radio_session_close
                0x000000000003afb8        0x4 CMakeFiles/dfu_no_serial_nrf52832_xxAA_s132_6.0.0.dir/__/__/mesh/core/src/timeslot.c.obj
 .text.sd_radio_request
                0x000000000003afbc        0x4 CMakeFiles/dfu_no_serial_nrf52832_xxAA_s132_6.0.0.dir/__/__/mesh/core/src/timeslot.c.obj
 .text.end_timer_handler
                0x000000000003afc0       0x2c CMakeFiles/dfu_no_serial_nrf52832_xxAA_s132_6.0.0.dir/__/__/mesh/core/src/timeslot.c.obj
 .text.radio_signal_callback
                0x000000000003afec      0x2b4 CMakeFiles/dfu_no_serial_nrf52832_xxAA_s132_6.0.0.dir/__/__/mesh/core/src/timeslot.c.obj
 .text.timeslot_sd_event_handler
                0x000000000003b2a0       0x44 CMakeFiles/dfu_no_serial_nrf52832_xxAA_s132_6.0.0.dir/__/__/mesh/core/src/timeslot.c.obj
                0x000000000003b2a0                timeslot_sd_event_handler
 .text.timeslot_init
                0x000000000003b2e4       0x4c CMakeFiles/dfu_no_serial_nrf52832_xxAA_s132_6.0.0.dir/__/__/mesh/core/src/timeslot.c.obj
                0x000000000003b2e4                timeslot_init
 .text.timeslot_start
                0x000000000003b330       0x20 CMakeFiles/dfu_no_serial_nrf52832_xxAA_s132_6.0.0.dir/__/__/mesh/core/src/timeslot.c.obj
                0x000000000003b330                timeslot_start
 .text.timeslot_stop
                0x000000000003b350       0x30 CMakeFiles/dfu_no_serial_nrf52832_xxAA_s132_6.0.0.dir/__/__/mesh/core/src/timeslot.c.obj
                0x000000000003b350                timeslot_stop
 .text.timeslot_state_lock
                0x000000000003b380       0x44 CMakeFiles/dfu_no_serial_nrf52832_xxAA_s132_6.0.0.dir/__/__/mesh/core/src/timeslot.c.obj
                0x000000000003b380                timeslot_state_lock
 .text.timeslot_end_is_pending
                0x000000000003b3c4       0x24 CMakeFiles/dfu_no_serial_nrf52832_xxAA_s132_6.0.0.dir/__/__/mesh/core/src/timeslot.c.obj
                0x000000000003b3c4                timeslot_end_is_pending
 .text.timeslot_start_time_get
                0x000000000003b3e8        0xc CMakeFiles/dfu_no_serial_nrf52832_xxAA_s132_6.0.0.dir/__/__/mesh/core/src/timeslot.c.obj
                0x000000000003b3e8                timeslot_start_time_get
 .text.timeslot_remaining_time_get
                0x000000000003b3f4       0x40 CMakeFiles/dfu_no_serial_nrf52832_xxAA_s132_6.0.0.dir/__/__/mesh/core/src/timeslot.c.obj
                0x000000000003b3f4                timeslot_remaining_time_get
 .text.timeslot_is_in_cb
                0x000000000003b434        0xc CMakeFiles/dfu_no_serial_nrf52832_xxAA_s132_6.0.0.dir/__/__/mesh/core/src/timeslot.c.obj
                0x000000000003b434                timeslot_is_in_cb
 .text.timeslot_trigger
                0x000000000003b440       0x24 CMakeFiles/dfu_no_serial_nrf52832_xxAA_s132_6.0.0.dir/__/__/mesh/core/src/timeslot.c.obj
                0x000000000003b440                timeslot_trigger
 .text.bearer_event_init
                0x000000000003b464       0x4c CMakeFiles/dfu_no_serial_nrf52832_xxAA_s132_6.0.0.dir/__/__/mesh/core/src/bearer_event.c.obj
                0x000000000003b464                bearer_event_init
 .text.bearer_event_timer_post
                0x000000000003b4b0       0x50 CMakeFiles/dfu_no_serial_nrf52832_xxAA_s132_6.0.0.dir/__/__/mesh/core/src/bearer_event.c.obj
                0x000000000003b4b0                bearer_event_timer_post
 .text.bearer_event_critical_section_begin
                0x000000000003b500       0x44 CMakeFiles/dfu_no_serial_nrf52832_xxAA_s132_6.0.0.dir/__/__/mesh/core/src/bearer_event.c.obj
                0x000000000003b500                bearer_event_critical_section_begin
 .text.bearer_event_critical_section_end
                0x000000000003b544       0x40 CMakeFiles/dfu_no_serial_nrf52832_xxAA_s132_6.0.0.dir/__/__/mesh/core/src/bearer_event.c.obj
                0x000000000003b544                bearer_event_critical_section_end
 .text.bearer_event_flag_add
                0x000000000003b584       0x40 CMakeFiles/dfu_no_serial_nrf52832_xxAA_s132_6.0.0.dir/__/__/mesh/core/src/bearer_event.c.obj
                0x000000000003b584                bearer_event_flag_add
 .text.bearer_event_flag_set
                0x000000000003b5c4       0x5c CMakeFiles/dfu_no_serial_nrf52832_xxAA_s132_6.0.0.dir/__/__/mesh/core/src/bearer_event.c.obj
                0x000000000003b5c4                bearer_event_flag_set
 .text.bearer_event_sequential_add
                0x000000000003b620       0x34 CMakeFiles/dfu_no_serial_nrf52832_xxAA_s132_6.0.0.dir/__/__/mesh/core/src/bearer_event.c.obj
                0x000000000003b620                bearer_event_sequential_add
 .text.bearer_event_sequential_post
                0x000000000003b654       0x64 CMakeFiles/dfu_no_serial_nrf52832_xxAA_s132_6.0.0.dir/__/__/mesh/core/src/bearer_event.c.obj
                0x000000000003b654                bearer_event_sequential_post
 .text.bearer_event_sequential_pending
                0x000000000003b6b8       0x14 CMakeFiles/dfu_no_serial_nrf52832_xxAA_s132_6.0.0.dir/__/__/mesh/core/src/bearer_event.c.obj
                0x000000000003b6b8                bearer_event_sequential_pending
 .text.bearer_event_handler
                0x000000000003b6cc      0x16c CMakeFiles/dfu_no_serial_nrf52832_xxAA_s132_6.0.0.dir/__/__/mesh/core/src/bearer_event.c.obj
                0x000000000003b6cc                bearer_event_handler
 .text.QDEC_IRQHandler
                0x000000000003b838        0x4 CMakeFiles/dfu_no_serial_nrf52832_xxAA_s132_6.0.0.dir/__/__/mesh/core/src/bearer_event.c.obj
                0x000000000003b838                QDEC_IRQHandler
 .text.enc_aes_encrypt
                0x000000000003b83c        0x4 CMakeFiles/dfu_no_serial_nrf52832_xxAA_s132_6.0.0.dir/__/__/mesh/core/src/enc.c.obj
                0x000000000003b83c                enc_aes_encrypt
 .text.enc_aes_cmac
                0x000000000003b840        0x4 CMakeFiles/dfu_no_serial_nrf52832_xxAA_s132_6.0.0.dir/__/__/mesh/core/src/enc.c.obj
                0x000000000003b840                enc_aes_cmac
 .text.enc_aes_ccm_encrypt
                0x000000000003b844        0x4 CMakeFiles/dfu_no_serial_nrf52832_xxAA_s132_6.0.0.dir/__/__/mesh/core/src/enc.c.obj
                0x000000000003b844                enc_aes_ccm_encrypt
 .text.enc_aes_ccm_decrypt
                0x000000000003b848        0x4 CMakeFiles/dfu_no_serial_nrf52832_xxAA_s132_6.0.0.dir/__/__/mesh/core/src/enc.c.obj
                0x000000000003b848                enc_aes_ccm_decrypt
 .text.enc_nonce_generate
                0x000000000003b84c       0xc8 CMakeFiles/dfu_no_serial_nrf52832_xxAA_s132_6.0.0.dir/__/__/mesh/core/src/enc.c.obj
                0x000000000003b84c                enc_nonce_generate
 .text.enc_s1   0x000000000003b914       0x30 CMakeFiles/dfu_no_serial_nrf52832_xxAA_s132_6.0.0.dir/__/__/mesh/core/src/enc.c.obj
                0x000000000003b914                enc_s1
 .text.enc_k1   0x000000000003b944       0x40 CMakeFiles/dfu_no_serial_nrf52832_xxAA_s132_6.0.0.dir/__/__/mesh/core/src/enc.c.obj
                0x000000000003b944                enc_k1
 .text.enc_k2   0x000000000003b984       0xe0 CMakeFiles/dfu_no_serial_nrf52832_xxAA_s132_6.0.0.dir/__/__/mesh/core/src/enc.c.obj
                0x000000000003b984                enc_k2
 .text.enc_k3   0x000000000003ba64       0x68 CMakeFiles/dfu_no_serial_nrf52832_xxAA_s132_6.0.0.dir/__/__/mesh/core/src/enc.c.obj
                0x000000000003ba64                enc_k3
 .text.enc_k4   0x000000000003bacc       0x60 CMakeFiles/dfu_no_serial_nrf52832_xxAA_s132_6.0.0.dir/__/__/mesh/core/src/enc.c.obj
                0x000000000003bacc                enc_k4
 .text.network_init
                0x000000000003bb2c       0x28 CMakeFiles/dfu_no_serial_nrf52832_xxAA_s132_6.0.0.dir/__/__/mesh/core/src/network.c.obj
                0x000000000003bb2c                network_init
 .text.network_opt_set
                0x000000000003bb54       0x84 CMakeFiles/dfu_no_serial_nrf52832_xxAA_s132_6.0.0.dir/__/__/mesh/core/src/network.c.obj
                0x000000000003bb54                network_opt_set
 .text.network_opt_get
                0x000000000003bbd8       0x5c CMakeFiles/dfu_no_serial_nrf52832_xxAA_s132_6.0.0.dir/__/__/mesh/core/src/network.c.obj
                0x000000000003bbd8                network_opt_get
 .text.network_packet_alloc
                0x000000000003bc34       0xa0 CMakeFiles/dfu_no_serial_nrf52832_xxAA_s132_6.0.0.dir/__/__/mesh/core/src/network.c.obj
                0x000000000003bc34                network_packet_alloc
 .text.network_packet_send
                0x000000000003bcd4       0x58 CMakeFiles/dfu_no_serial_nrf52832_xxAA_s132_6.0.0.dir/__/__/mesh/core/src/network.c.obj
                0x000000000003bcd4                network_packet_send
 .text.network_packet_in
                0x000000000003bd2c      0x1c8 CMakeFiles/dfu_no_serial_nrf52832_xxAA_s132_6.0.0.dir/__/__/mesh/core/src/network.c.obj
                0x000000000003bd2c                network_packet_in
 .text.net_packet_decrypt
                0x000000000003bef4      0x2bc CMakeFiles/dfu_no_serial_nrf52832_xxAA_s132_6.0.0.dir/__/__/mesh/core/src/net_packet.c.obj
                0x000000000003bef4                net_packet_decrypt
 .text.net_packet_encrypt
                0x000000000003c1b0      0x100 CMakeFiles/dfu_no_serial_nrf52832_xxAA_s132_6.0.0.dir/__/__/mesh/core/src/net_packet.c.obj
                0x000000000003c1b0                net_packet_encrypt
 .text.net_packet_header_set
                0x000000000003c2b0       0xc0 CMakeFiles/dfu_no_serial_nrf52832_xxAA_s132_6.0.0.dir/__/__/mesh/core/src/net_packet.c.obj
                0x000000000003c2b0                net_packet_header_set
 .text.net_packet_payload_len_get
                0x000000000003c370       0x14 CMakeFiles/dfu_no_serial_nrf52832_xxAA_s132_6.0.0.dir/__/__/mesh/core/src/net_packet.c.obj
                0x000000000003c370                net_packet_payload_len_get
 .text.net_packet_from_payload
                0x000000000003c384        0x4 CMakeFiles/dfu_no_serial_nrf52832_xxAA_s132_6.0.0.dir/__/__/mesh/core/src/net_packet.c.obj
                0x000000000003c384                net_packet_from_payload
 .text.net_packet_obfuscation_start_get
                0x000000000003c388        0x4 CMakeFiles/dfu_no_serial_nrf52832_xxAA_s132_6.0.0.dir/__/__/mesh/core/src/net_packet.c.obj
                0x000000000003c388                net_packet_obfuscation_start_get
 .text.msq_init
                0x000000000003c38c       0x6c CMakeFiles/dfu_no_serial_nrf52832_xxAA_s132_6.0.0.dir/__/__/mesh/core/src/msqueue.c.obj
                0x000000000003c38c                msq_init
 .text.msq_get  0x000000000003c3f8       0x54 CMakeFiles/dfu_no_serial_nrf52832_xxAA_s132_6.0.0.dir/__/__/mesh/core/src/msqueue.c.obj
                0x000000000003c3f8                msq_get
 .text.msq_move
                0x000000000003c44c       0x4c CMakeFiles/dfu_no_serial_nrf52832_xxAA_s132_6.0.0.dir/__/__/mesh/core/src/msqueue.c.obj
                0x000000000003c44c                msq_move
 .text.msq_available
                0x000000000003c498       0x44 CMakeFiles/dfu_no_serial_nrf52832_xxAA_s132_6.0.0.dir/__/__/mesh/core/src/msqueue.c.obj
                0x000000000003c498                msq_available
 .text.nrf_mesh_keygen_aid
                0x000000000003c4dc       0x18 CMakeFiles/dfu_no_serial_nrf52832_xxAA_s132_6.0.0.dir/__/__/mesh/core/src/nrf_mesh_keygen.c.obj
                0x000000000003c4dc                nrf_mesh_keygen_aid
 .text.nrf_mesh_keygen_network_secmat
                0x000000000003c4f4       0x24 CMakeFiles/dfu_no_serial_nrf52832_xxAA_s132_6.0.0.dir/__/__/mesh/core/src/nrf_mesh_keygen.c.obj
                0x000000000003c4f4                nrf_mesh_keygen_network_secmat
 .text.nrf_mesh_keygen_beacon_secmat
                0x000000000003c518       0x50 CMakeFiles/dfu_no_serial_nrf52832_xxAA_s132_6.0.0.dir/__/__/mesh/core/src/nrf_mesh_keygen.c.obj
                0x000000000003c518                nrf_mesh_keygen_beacon_secmat
 .text.nrf_mesh_keygen_virtual_address
                0x000000000003c568       0x50 CMakeFiles/dfu_no_serial_nrf52832_xxAA_s132_6.0.0.dir/__/__/mesh/core/src/nrf_mesh_keygen.c.obj
                0x000000000003c568                nrf_mesh_keygen_virtual_address
 .text.list_add
                0x000000000003c5b8       0x64 CMakeFiles/dfu_no_serial_nrf52832_xxAA_s132_6.0.0.dir/__/__/mesh/core/src/list.c.obj
                0x000000000003c5b8                list_add
 .text.list_remove
                0x000000000003c61c       0x44 CMakeFiles/dfu_no_serial_nrf52832_xxAA_s132_6.0.0.dir/__/__/mesh/core/src/list.c.obj
                0x000000000003c61c                list_remove
 .text.list_compare_add
                0x000000000003c660       0x80 CMakeFiles/dfu_no_serial_nrf52832_xxAA_s132_6.0.0.dir/__/__/mesh/core/src/list.c.obj
                0x000000000003c660                list_compare_add
 .text.log_callback_rtt
                0x000000000003c6e0       0x2c CMakeFiles/dfu_no_serial_nrf52832_xxAA_s132_6.0.0.dir/__/__/mesh/core/src/log.c.obj
                0x000000000003c6e0                log_callback_rtt
 .text.log_init
                0x000000000003c70c       0x20 CMakeFiles/dfu_no_serial_nrf52832_xxAA_s132_6.0.0.dir/__/__/mesh/core/src/log.c.obj
                0x000000000003c70c                log_init
 .text.log_printf
                0x000000000003c72c       0x20 CMakeFiles/dfu_no_serial_nrf52832_xxAA_s132_6.0.0.dir/__/__/mesh/core/src/log.c.obj
                0x000000000003c72c                log_printf
 .text.process_action_queue
                0x000000000003c74c      0x794 CMakeFiles/dfu_no_serial_nrf52832_xxAA_s132_6.0.0.dir/__/__/mesh/core/src/flash_manager.c.obj
 .text.flash_op_ended_callback
                0x000000000003cee0       0x24 CMakeFiles/dfu_no_serial_nrf52832_xxAA_s132_6.0.0.dir/__/__/mesh/core/src/flash_manager.c.obj
 .text.flash_manager_init
                0x000000000003cf04       0x68 CMakeFiles/dfu_no_serial_nrf52832_xxAA_s132_6.0.0.dir/__/__/mesh/core/src/flash_manager.c.obj
                0x000000000003cf04                flash_manager_init
 .text.flash_manager_remove
                0x000000000003cf6c       0x6c CMakeFiles/dfu_no_serial_nrf52832_xxAA_s132_6.0.0.dir/__/__/mesh/core/src/flash_manager.c.obj
                0x000000000003cf6c                flash_manager_remove
 .text.flash_manager_entry_get
                0x000000000003cfd8       0x48 CMakeFiles/dfu_no_serial_nrf52832_xxAA_s132_6.0.0.dir/__/__/mesh/core/src/flash_manager.c.obj
                0x000000000003cfd8                flash_manager_entry_get
 .text.flash_manager_entry_next_get
                0x000000000003d020      0x144 CMakeFiles/dfu_no_serial_nrf52832_xxAA_s132_6.0.0.dir/__/__/mesh/core/src/flash_manager.c.obj
                0x000000000003d020                flash_manager_entry_next_get
 .text.flash_manager_entry_alloc
                0x000000000003d164       0x80 CMakeFiles/dfu_no_serial_nrf52832_xxAA_s132_6.0.0.dir/__/__/mesh/core/src/flash_manager.c.obj
                0x000000000003d164                flash_manager_entry_alloc
 .text.flash_manager_entry_commit
                0x000000000003d1e4       0x58 CMakeFiles/dfu_no_serial_nrf52832_xxAA_s132_6.0.0.dir/__/__/mesh/core/src/flash_manager.c.obj
                0x000000000003d1e4                flash_manager_entry_commit
 .text.flash_manager_entry_invalidate
                0x000000000003d23c       0x98 CMakeFiles/dfu_no_serial_nrf52832_xxAA_s132_6.0.0.dir/__/__/mesh/core/src/flash_manager.c.obj
                0x000000000003d23c                flash_manager_entry_invalidate
 .text.flash_manager_add
                0x000000000003d2d4      0x3f4 CMakeFiles/dfu_no_serial_nrf52832_xxAA_s132_6.0.0.dir/__/__/mesh/core/src/flash_manager.c.obj
                0x000000000003d2d4                flash_manager_add
 .text.flash_manager_mem_listener_register
                0x000000000003d6c8       0x38 CMakeFiles/dfu_no_serial_nrf52832_xxAA_s132_6.0.0.dir/__/__/mesh/core/src/flash_manager.c.obj
                0x000000000003d6c8                flash_manager_mem_listener_register
 .text.flash_manager_is_stable
                0x000000000003d700       0x20 CMakeFiles/dfu_no_serial_nrf52832_xxAA_s132_6.0.0.dir/__/__/mesh/core/src/flash_manager.c.obj
                0x000000000003d700                flash_manager_is_stable
 .text.flash_manager_on_defrag_end
                0x000000000003d720       0x58 CMakeFiles/dfu_no_serial_nrf52832_xxAA_s132_6.0.0.dir/__/__/mesh/core/src/flash_manager.c.obj
                0x000000000003d720                flash_manager_on_defrag_end
 .text.flash_manager_recovery_page_get
                0x000000000003d778        0x4 CMakeFiles/dfu_no_serial_nrf52832_xxAA_s132_6.0.0.dir/__/__/mesh/core/src/flash_manager.c.obj
                0x000000000003d778                flash_manager_recovery_page_get
 .text.flash_manager_action_queue_empty_cb_set
                0x000000000003d77c       0x20 CMakeFiles/dfu_no_serial_nrf52832_xxAA_s132_6.0.0.dir/__/__/mesh/core/src/flash_manager.c.obj
                0x000000000003d77c                flash_manager_action_queue_empty_cb_set
 .text.ccm_soft_crypt.constprop.0
                0x000000000003d79c      0x274 CMakeFiles/dfu_no_serial_nrf52832_xxAA_s132_6.0.0.dir/__/__/mesh/core/src/ccm_soft.c.obj
 .text.ccm_soft_authenticate
                0x000000000003da10      0x308 CMakeFiles/dfu_no_serial_nrf52832_xxAA_s132_6.0.0.dir/__/__/mesh/core/src/ccm_soft.c.obj
 .text.ccm_soft_encrypt
                0x000000000003dd18       0x7c CMakeFiles/dfu_no_serial_nrf52832_xxAA_s132_6.0.0.dir/__/__/mesh/core/src/ccm_soft.c.obj
                0x000000000003dd18                ccm_soft_encrypt
 .text.ccm_soft_decrypt
                0x000000000003dd94      0x114 CMakeFiles/dfu_no_serial_nrf52832_xxAA_s132_6.0.0.dir/__/__/mesh/core/src/ccm_soft.c.obj
                0x000000000003dd94                ccm_soft_decrypt
 .text.replay_cache_init
                0x000000000003dea8       0x20 CMakeFiles/dfu_no_serial_nrf52832_xxAA_s132_6.0.0.dir/__/__/mesh/core/src/replay_cache.c.obj
                0x000000000003dea8                replay_cache_init
 .text.replay_cache_add
                0x000000000003dec8       0x60 CMakeFiles/dfu_no_serial_nrf52832_xxAA_s132_6.0.0.dir/__/__/mesh/core/src/replay_cache.c.obj
                0x000000000003dec8                replay_cache_add
 .text.replay_cache_has_elem
                0x000000000003df28       0x40 CMakeFiles/dfu_no_serial_nrf52832_xxAA_s132_6.0.0.dir/__/__/mesh/core/src/replay_cache.c.obj
                0x000000000003df28                replay_cache_has_elem
 .text.beacon_create
                0x000000000003df68       0x50 CMakeFiles/dfu_no_serial_nrf52832_xxAA_s132_6.0.0.dir/__/__/mesh/core/src/beacon.c.obj
                0x000000000003df68                beacon_create
 .text.beacon_packet_in
                0x000000000003dfb8      0x178 CMakeFiles/dfu_no_serial_nrf52832_xxAA_s132_6.0.0.dir/__/__/mesh/core/src/beacon.c.obj
                0x000000000003dfb8                beacon_packet_in
 .text.entry_get
                0x000000000003e130       0x7c CMakeFiles/dfu_no_serial_nrf52832_xxAA_s132_6.0.0.dir/__/__/mesh/core/src/flash_manager_internal.c.obj
                0x000000000003e130                entry_get
 .text.core_tx_complete_cb_set
                0x000000000003e1ac        0xc CMakeFiles/dfu_no_serial_nrf52832_xxAA_s132_6.0.0.dir/__/__/mesh/core/src/core_tx.c.obj
                0x000000000003e1ac                core_tx_complete_cb_set
 .text.core_tx_packet_alloc
                0x000000000003e1b8       0xc0 CMakeFiles/dfu_no_serial_nrf52832_xxAA_s132_6.0.0.dir/__/__/mesh/core/src/core_tx.c.obj
                0x000000000003e1b8                core_tx_packet_alloc
 .text.core_tx_packet_send
                0x000000000003e278       0x5c CMakeFiles/dfu_no_serial_nrf52832_xxAA_s132_6.0.0.dir/__/__/mesh/core/src/core_tx.c.obj
                0x000000000003e278                core_tx_packet_send
 .text.core_tx_packet_discard
                0x000000000003e2d4       0x54 CMakeFiles/dfu_no_serial_nrf52832_xxAA_s132_6.0.0.dir/__/__/mesh/core/src/core_tx.c.obj
                0x000000000003e2d4                core_tx_packet_discard
 .text.core_tx_complete
                0x000000000003e328       0x38 CMakeFiles/dfu_no_serial_nrf52832_xxAA_s132_6.0.0.dir/__/__/mesh/core/src/core_tx.c.obj
                0x000000000003e328                core_tx_complete
 .text.core_tx_bearer_add
                0x000000000003e360       0x90 CMakeFiles/dfu_no_serial_nrf52832_xxAA_s132_6.0.0.dir/__/__/mesh/core/src/core_tx.c.obj
                0x000000000003e360                core_tx_bearer_add
 .text.heartbeat_subscription_timer_cb
                0x000000000003e3f0       0x1c CMakeFiles/dfu_no_serial_nrf52832_xxAA_s132_6.0.0.dir/__/__/mesh/core/src/heartbeat.c.obj
 .text.heartbeat_opcode_handle
                0x000000000003e40c       0x8c CMakeFiles/dfu_no_serial_nrf52832_xxAA_s132_6.0.0.dir/__/__/mesh/core/src/heartbeat.c.obj
 .text.heartbeat_send
                0x000000000003e498       0xbc CMakeFiles/dfu_no_serial_nrf52832_xxAA_s132_6.0.0.dir/__/__/mesh/core/src/heartbeat.c.obj
 .text.heartbeat_core_evt_cb
                0x000000000003e554       0x94 CMakeFiles/dfu_no_serial_nrf52832_xxAA_s132_6.0.0.dir/__/__/mesh/core/src/heartbeat.c.obj
 .text.heartbeat_publication_timer_cb
                0x000000000003e5e8       0xb0 CMakeFiles/dfu_no_serial_nrf52832_xxAA_s132_6.0.0.dir/__/__/mesh/core/src/heartbeat.c.obj
 .text.heartbeat_on_feature_change_trigger
                0x000000000003e698       0x48 CMakeFiles/dfu_no_serial_nrf52832_xxAA_s132_6.0.0.dir/__/__/mesh/core/src/heartbeat.c.obj
                0x000000000003e698                heartbeat_on_feature_change_trigger
 .text.heartbeat_init
                0x000000000003e6e0       0x7c CMakeFiles/dfu_no_serial_nrf52832_xxAA_s132_6.0.0.dir/__/__/mesh/core/src/heartbeat.c.obj
                0x000000000003e6e0                heartbeat_init
 .text.heartbeat_subscription_set
                0x000000000003e75c       0xa4 CMakeFiles/dfu_no_serial_nrf52832_xxAA_s132_6.0.0.dir/__/__/mesh/core/src/heartbeat.c.obj
                0x000000000003e75c                heartbeat_subscription_set
 .text.heartbeat_subscription_get
                0x000000000003e800        0x8 CMakeFiles/dfu_no_serial_nrf52832_xxAA_s132_6.0.0.dir/__/__/mesh/core/src/heartbeat.c.obj
                0x000000000003e800                heartbeat_subscription_get
 .text.heartbeat_config_server_cb_set
                0x000000000003e808       0x30 CMakeFiles/dfu_no_serial_nrf52832_xxAA_s132_6.0.0.dir/__/__/mesh/core/src/heartbeat.c.obj
                0x000000000003e808                heartbeat_config_server_cb_set
 .text.heartbeat_publication_state_updated
                0x000000000003e838       0x78 CMakeFiles/dfu_no_serial_nrf52832_xxAA_s132_6.0.0.dir/__/__/mesh/core/src/heartbeat.c.obj
                0x000000000003e838                heartbeat_publication_state_updated
 .text.beacon_tx
                0x000000000003e8b0      0x194 CMakeFiles/dfu_no_serial_nrf52832_xxAA_s132_6.0.0.dir/__/__/mesh/core/src/net_beacon.c.obj
 .text.tx_complete_cb
                0x000000000003ea44       0x10 CMakeFiles/dfu_no_serial_nrf52832_xxAA_s132_6.0.0.dir/__/__/mesh/core/src/net_beacon.c.obj
 .text.beacon_tx_timeout
                0x000000000003ea54        0x4 CMakeFiles/dfu_no_serial_nrf52832_xxAA_s132_6.0.0.dir/__/__/mesh/core/src/net_beacon.c.obj
 .text.net_beacon_init
                0x000000000003ea58       0x94 CMakeFiles/dfu_no_serial_nrf52832_xxAA_s132_6.0.0.dir/__/__/mesh/core/src/net_beacon.c.obj
                0x000000000003ea58                net_beacon_init
 .text.net_beacon_state_set
                0x000000000003eaec       0x3c CMakeFiles/dfu_no_serial_nrf52832_xxAA_s132_6.0.0.dir/__/__/mesh/core/src/net_beacon.c.obj
                0x000000000003eaec                net_beacon_state_set
 .text.net_beacon_state_get
                0x000000000003eb28        0xc CMakeFiles/dfu_no_serial_nrf52832_xxAA_s132_6.0.0.dir/__/__/mesh/core/src/net_beacon.c.obj
                0x000000000003eb28                net_beacon_state_get
 .text.net_beacon_packet_in
                0x000000000003eb34      0x134 CMakeFiles/dfu_no_serial_nrf52832_xxAA_s132_6.0.0.dir/__/__/mesh/core/src/net_beacon.c.obj
                0x000000000003eb34                net_beacon_packet_in
 .text.packet_discard
                0x000000000003ec68       0x40 CMakeFiles/dfu_no_serial_nrf52832_xxAA_s132_6.0.0.dir/__/__/mesh/core/src/core_tx_adv.c.obj
 .text.packet_send
                0x000000000003eca8       0x58 CMakeFiles/dfu_no_serial_nrf52832_xxAA_s132_6.0.0.dir/__/__/mesh/core/src/core_tx_adv.c.obj
 .text.packet_alloc
                0x000000000003ed00       0x5c CMakeFiles/dfu_no_serial_nrf52832_xxAA_s132_6.0.0.dir/__/__/mesh/core/src/core_tx_adv.c.obj
 .text.adv_tx_complete_callback
                0x000000000003ed5c       0x28 CMakeFiles/dfu_no_serial_nrf52832_xxAA_s132_6.0.0.dir/__/__/mesh/core/src/core_tx_adv.c.obj
 .text.core_tx_adv_init
                0x000000000003ed84       0x60 CMakeFiles/dfu_no_serial_nrf52832_xxAA_s132_6.0.0.dir/__/__/mesh/core/src/core_tx_adv.c.obj
                0x000000000003ed84                core_tx_adv_init
 .text.core_tx_adv_count_set
                0x000000000003ede4       0x2c CMakeFiles/dfu_no_serial_nrf52832_xxAA_s132_6.0.0.dir/__/__/mesh/core/src/core_tx_adv.c.obj
                0x000000000003ede4                core_tx_adv_count_set
 .text.core_tx_adv_count_get
                0x000000000003ee10       0x20 CMakeFiles/dfu_no_serial_nrf52832_xxAA_s132_6.0.0.dir/__/__/mesh/core/src/core_tx_adv.c.obj
                0x000000000003ee10                core_tx_adv_count_get
 .text.core_tx_adv_interval_set
                0x000000000003ee30       0x28 CMakeFiles/dfu_no_serial_nrf52832_xxAA_s132_6.0.0.dir/__/__/mesh/core/src/core_tx_adv.c.obj
                0x000000000003ee30                core_tx_adv_interval_set
 .text.core_tx_adv_interval_get
                0x000000000003ee58       0x2c CMakeFiles/dfu_no_serial_nrf52832_xxAA_s132_6.0.0.dir/__/__/mesh/core/src/core_tx_adv.c.obj
                0x000000000003ee58                core_tx_adv_interval_get
 .text.ad_listener_subscribe
                0x000000000003ee84       0x60 CMakeFiles/dfu_no_serial_nrf52832_xxAA_s132_6.0.0.dir/__/__/mesh/bearer/src/ad_listener.c.obj
                0x000000000003ee84                ad_listener_subscribe
 .text.ad_listener_process
                0x000000000003eee4       0x84 CMakeFiles/dfu_no_serial_nrf52832_xxAA_s132_6.0.0.dir/__/__/mesh/bearer/src/ad_listener.c.obj
                0x000000000003eee4                ad_listener_process
 .text.adtype_filter_handle
                0x000000000003ef68       0x94 CMakeFiles/dfu_no_serial_nrf52832_xxAA_s132_6.0.0.dir/__/__/mesh/bearer/src/ad_type_filter.c.obj
 .text.bearer_adtype_filtering_set
                0x000000000003effc       0x1c CMakeFiles/dfu_no_serial_nrf52832_xxAA_s132_6.0.0.dir/__/__/mesh/bearer/src/ad_type_filter.c.obj
                0x000000000003effc                bearer_adtype_filtering_set
 .text.bearer_adtype_add
                0x000000000003f018       0x24 CMakeFiles/dfu_no_serial_nrf52832_xxAA_s132_6.0.0.dir/__/__/mesh/bearer/src/ad_type_filter.c.obj
                0x000000000003f018                bearer_adtype_add
 .text.bearer_adtype_mode_set
                0x000000000003f03c       0x18 CMakeFiles/dfu_no_serial_nrf52832_xxAA_s132_6.0.0.dir/__/__/mesh/bearer/src/ad_type_filter.c.obj
                0x000000000003f03c                bearer_adtype_mode_set
 .text.tx_complete_event_callback
                0x000000000003f054       0x34 CMakeFiles/dfu_no_serial_nrf52832_xxAA_s132_6.0.0.dir/__/__/mesh/bearer/src/advertiser.c.obj
 .text.broadcast_complete_cb
                0x000000000003f088       0x48 CMakeFiles/dfu_no_serial_nrf52832_xxAA_s132_6.0.0.dir/__/__/mesh/bearer/src/advertiser.c.obj
 .text.timeout_event
                0x000000000003f0d0      0x12c CMakeFiles/dfu_no_serial_nrf52832_xxAA_s132_6.0.0.dir/__/__/mesh/bearer/src/advertiser.c.obj
 .text.advertiser_init
                0x000000000003f1fc        0xc CMakeFiles/dfu_no_serial_nrf52832_xxAA_s132_6.0.0.dir/__/__/mesh/bearer/src/advertiser.c.obj
                0x000000000003f1fc                advertiser_init
 .text.advertiser_instance_init
                0x000000000003f208      0x100 CMakeFiles/dfu_no_serial_nrf52832_xxAA_s132_6.0.0.dir/__/__/mesh/bearer/src/advertiser.c.obj
                0x000000000003f208                advertiser_instance_init
 .text.advertiser_enable
                0x000000000003f308       0x44 CMakeFiles/dfu_no_serial_nrf52832_xxAA_s132_6.0.0.dir/__/__/mesh/bearer/src/advertiser.c.obj
                0x000000000003f308                advertiser_enable
 .text.advertiser_packet_alloc
                0x000000000003f34c       0x80 CMakeFiles/dfu_no_serial_nrf52832_xxAA_s132_6.0.0.dir/__/__/mesh/bearer/src/advertiser.c.obj
                0x000000000003f34c                advertiser_packet_alloc
 .text.advertiser_packet_send
                0x000000000003f3cc       0x84 CMakeFiles/dfu_no_serial_nrf52832_xxAA_s132_6.0.0.dir/__/__/mesh/bearer/src/advertiser.c.obj
                0x000000000003f3cc                advertiser_packet_send
 .text.advertiser_packet_discard
                0x000000000003f450       0x2c CMakeFiles/dfu_no_serial_nrf52832_xxAA_s132_6.0.0.dir/__/__/mesh/bearer/src/advertiser.c.obj
                0x000000000003f450                advertiser_packet_discard
 .text.advertiser_interval_set
                0x000000000003f47c       0x6c CMakeFiles/dfu_no_serial_nrf52832_xxAA_s132_6.0.0.dir/__/__/mesh/bearer/src/advertiser.c.obj
                0x000000000003f47c                advertiser_interval_set
 .text.advertiser_flush
                0x000000000003f4e8       0x20 CMakeFiles/dfu_no_serial_nrf52832_xxAA_s132_6.0.0.dir/__/__/mesh/bearer/src/advertiser.c.obj
                0x000000000003f4e8                advertiser_flush
 .text.advertiser_address_default_get
                0x000000000003f508       0x5c CMakeFiles/dfu_no_serial_nrf52832_xxAA_s132_6.0.0.dir/__/__/mesh/bearer/src/advertiser.c.obj
                0x000000000003f508                advertiser_address_default_get
 .text.action_switch.part.2
                0x000000000003f564       0xb4 CMakeFiles/dfu_no_serial_nrf52832_xxAA_s132_6.0.0.dir/__/__/mesh/bearer/src/bearer_handler.c.obj
 .text.bearer_handler_init
                0x000000000003f618       0x2c CMakeFiles/dfu_no_serial_nrf52832_xxAA_s132_6.0.0.dir/__/__/mesh/bearer/src/bearer_handler.c.obj
                0x000000000003f618                bearer_handler_init
 .text.bearer_handler_start
                0x000000000003f644       0x1c CMakeFiles/dfu_no_serial_nrf52832_xxAA_s132_6.0.0.dir/__/__/mesh/bearer/src/bearer_handler.c.obj
                0x000000000003f644                bearer_handler_start
 .text.bearer_handler_action_enqueue
                0x000000000003f660       0x88 CMakeFiles/dfu_no_serial_nrf52832_xxAA_s132_6.0.0.dir/__/__/mesh/bearer/src/bearer_handler.c.obj
                0x000000000003f660                bearer_handler_action_enqueue
 .text.bearer_handler_action_end
                0x000000000003f6e8       0x68 CMakeFiles/dfu_no_serial_nrf52832_xxAA_s132_6.0.0.dir/__/__/mesh/bearer/src/bearer_handler.c.obj
                0x000000000003f6e8                bearer_handler_action_end
 .text.bearer_handler_radio_irq_handler
                0x000000000003f750       0x58 CMakeFiles/dfu_no_serial_nrf52832_xxAA_s132_6.0.0.dir/__/__/mesh/bearer/src/bearer_handler.c.obj
                0x000000000003f750                bearer_handler_radio_irq_handler
 .text.bearer_handler_timer_irq_handler
                0x000000000003f7a8       0x34 CMakeFiles/dfu_no_serial_nrf52832_xxAA_s132_6.0.0.dir/__/__/mesh/bearer/src/bearer_handler.c.obj
                0x000000000003f7a8                bearer_handler_timer_irq_handler
 .text.bearer_handler_on_ts_begin
                0x000000000003f7dc       0x3c CMakeFiles/dfu_no_serial_nrf52832_xxAA_s132_6.0.0.dir/__/__/mesh/bearer/src/bearer_handler.c.obj
                0x000000000003f7dc                bearer_handler_on_ts_begin
 .text.bearer_handler_on_ts_end
                0x000000000003f818       0x38 CMakeFiles/dfu_no_serial_nrf52832_xxAA_s132_6.0.0.dir/__/__/mesh/bearer/src/bearer_handler.c.obj
                0x000000000003f818                bearer_handler_on_ts_end
 .text.radio_irq_handler
                0x000000000003f850       0x98 CMakeFiles/dfu_no_serial_nrf52832_xxAA_s132_6.0.0.dir/__/__/mesh/bearer/src/broadcast.c.obj
 .text.broadcast_start
                0x000000000003f8e8       0x8c CMakeFiles/dfu_no_serial_nrf52832_xxAA_s132_6.0.0.dir/__/__/mesh/bearer/src/broadcast.c.obj
 .text.broadcast_send
                0x000000000003f974       0x74 CMakeFiles/dfu_no_serial_nrf52832_xxAA_s132_6.0.0.dir/__/__/mesh/bearer/src/broadcast.c.obj
                0x000000000003f974                broadcast_send
 .text.fen_filter_start
                0x000000000003f9e8       0x38 CMakeFiles/dfu_no_serial_nrf52832_xxAA_s132_6.0.0.dir/__/__/mesh/bearer/src/filter_engine.c.obj
                0x000000000003f9e8                fen_filter_start
 .text.fen_filter_stop
                0x000000000003fa20       0x2c CMakeFiles/dfu_no_serial_nrf52832_xxAA_s132_6.0.0.dir/__/__/mesh/bearer/src/filter_engine.c.obj
                0x000000000003fa20                fen_filter_stop
 .text.fen_filters_apply
                0x000000000003fa4c       0x34 CMakeFiles/dfu_no_serial_nrf52832_xxAA_s132_6.0.0.dir/__/__/mesh/bearer/src/filter_engine.c.obj
                0x000000000003fa4c                fen_filters_apply
 .text.radio_config_reset
                0x000000000003fa80       0x38 CMakeFiles/dfu_no_serial_nrf52832_xxAA_s132_6.0.0.dir/__/__/mesh/bearer/src/radio_config.c.obj
                0x000000000003fa80                radio_config_reset
 .text.radio_config_channel_set
                0x000000000003fab8       0x28 CMakeFiles/dfu_no_serial_nrf52832_xxAA_s132_6.0.0.dir/__/__/mesh/bearer/src/radio_config.c.obj
                0x000000000003fab8                radio_config_channel_set
 .text.radio_config_config
                0x000000000003fae0       0x94 CMakeFiles/dfu_no_serial_nrf52832_xxAA_s132_6.0.0.dir/__/__/mesh/bearer/src/radio_config.c.obj
                0x000000000003fae0                radio_config_config
 .text.radio_config_access_addr_set
                0x000000000003fb74       0x58 CMakeFiles/dfu_no_serial_nrf52832_xxAA_s132_6.0.0.dir/__/__/mesh/bearer/src/radio_config.c.obj
                0x000000000003fb74                radio_config_access_addr_set
 .text.scan_window_end
                0x000000000003fbcc       0x28 CMakeFiles/dfu_no_serial_nrf52832_xxAA_s132_6.0.0.dir/__/__/mesh/bearer/src/scanner.c.obj
 .text.scan_window_start
                0x000000000003fbf4       0x38 CMakeFiles/dfu_no_serial_nrf52832_xxAA_s132_6.0.0.dir/__/__/mesh/bearer/src/scanner.c.obj
 .text.radio_start
                0x000000000003fc2c      0x1a8 CMakeFiles/dfu_no_serial_nrf52832_xxAA_s132_6.0.0.dir/__/__/mesh/bearer/src/scanner.c.obj
 .text.scanner_radio_start
                0x000000000003fdd4      0x14c CMakeFiles/dfu_no_serial_nrf52832_xxAA_s132_6.0.0.dir/__/__/mesh/bearer/src/scanner.c.obj
                0x000000000003fdd4                scanner_radio_start
 .text.scanner_radio_stop
                0x000000000003ff20       0x34 CMakeFiles/dfu_no_serial_nrf52832_xxAA_s132_6.0.0.dir/__/__/mesh/bearer/src/scanner.c.obj
                0x000000000003ff20                scanner_radio_stop
 .text.scanner_radio_irq_handler
                0x000000000003ff54      0x200 CMakeFiles/dfu_no_serial_nrf52832_xxAA_s132_6.0.0.dir/__/__/mesh/bearer/src/scanner.c.obj
                0x000000000003ff54                scanner_radio_irq_handler
 .text.scanner_enable
                0x0000000000040154       0x50 CMakeFiles/dfu_no_serial_nrf52832_xxAA_s132_6.0.0.dir/__/__/mesh/bearer/src/scanner.c.obj
                0x0000000000040154                scanner_enable
 .text.scanner_rx
                0x00000000000401a4       0x8c CMakeFiles/dfu_no_serial_nrf52832_xxAA_s132_6.0.0.dir/__/__/mesh/bearer/src/scanner.c.obj
                0x00000000000401a4                scanner_rx
 .text.scanner_packet_release
                0x0000000000040230       0x40 CMakeFiles/dfu_no_serial_nrf52832_xxAA_s132_6.0.0.dir/__/__/mesh/bearer/src/scanner.c.obj
                0x0000000000040230                scanner_packet_release
 .text.scanner_rx_pending
                0x0000000000040270        0xc CMakeFiles/dfu_no_serial_nrf52832_xxAA_s132_6.0.0.dir/__/__/mesh/bearer/src/scanner.c.obj
                0x0000000000040270                scanner_rx_pending
 .text.scanner_config_reset
                0x000000000004027c       0xa4 CMakeFiles/dfu_no_serial_nrf52832_xxAA_s132_6.0.0.dir/__/__/mesh/bearer/src/scanner.c.obj
                0x000000000004027c                scanner_config_reset
 .text.scanner_init
                0x0000000000040320       0x54 CMakeFiles/dfu_no_serial_nrf52832_xxAA_s132_6.0.0.dir/__/__/mesh/bearer/src/scanner.c.obj
                0x0000000000040320                scanner_init
 .text.SystemInit
                0x0000000000040374      0x3c0 CMakeFiles/dfu_no_serial_nrf52832_xxAA_s132_6.0.0.dir/home/mazzer/work/nordic/sdk/nRF5_SDK_15.0.0/modules/nrfx/mdk/system_nrf52.c.obj
                0x0000000000040374                SystemInit
 .text          0x0000000000040734       0x3c CMakeFiles/dfu_no_serial_nrf52832_xxAA_s132_6.0.0.dir/home/mazzer/work/nordic/sdk/nRF5_SDK_15.0.0/modules/nrfx/mdk/gcc_startup_nrf52.S.obj
                0x0000000000040734                Reset_Handler
                0x000000000004075c                NMI_Handler
                0x000000000004075e                HardFault_Handler
                0x0000000000040760                MemoryManagement_Handler
                0x0000000000040762                BusFault_Handler
                0x0000000000040764                UsageFault_Handler
                0x0000000000040766                SVC_Handler
                0x0000000000040768                DebugMon_Handler
                0x000000000004076a                PendSV_Handler
                0x000000000004076c                SysTick_Handler
                0x000000000004076e                TIMER2_IRQHandler
                0x000000000004076e                RTC0_IRQHandler
                0x000000000004076e                SWI0_EGU0_IRQHandler
                0x000000000004076e                PWM1_IRQHandler
                0x000000000004076e                POWER_CLOCK_IRQHandler
                0x000000000004076e                RADIO_IRQHandler
                0x000000000004076e                PDM_IRQHandler
                0x000000000004076e                TEMP_IRQHandler
                0x000000000004076e                TIMER3_IRQHandler
                0x000000000004076e                FPU_IRQHandler
                0x000000000004076e                SPIM0_SPIS0_TWIM0_TWIS0_SPI0_TWI0_IRQHandler
                0x000000000004076e                UARTE0_UART0_IRQHandler
                0x000000000004076e                TIMER4_IRQHandler
                0x000000000004076e                I2S_IRQHandler
                0x000000000004076e                SWI4_EGU4_IRQHandler
                0x000000000004076e                TIMER0_IRQHandler
                0x000000000004076e                TIMER1_IRQHandler
                0x000000000004076e                PWM2_IRQHandler
                0x000000000004076e                ECB_IRQHandler
                0x000000000004076e                SPIM1_SPIS1_TWIM1_TWIS1_SPI1_TWI1_IRQHandler
                0x000000000004076e                Default_Handler
                0x000000000004076e                SAADC_IRQHandler
                0x000000000004076e                CCM_AAR_IRQHandler
                0x000000000004076e                WDT_IRQHandler
                0x000000000004076e                SWI5_EGU5_IRQHandler
                0x000000000004076e                RNG_IRQHandler
                0x000000000004076e                RTC2_IRQHandler
                0x000000000004076e                PWM0_IRQHandler
                0x000000000004076e                SWI3_EGU3_IRQHandler
                0x000000000004076e                RTC1_IRQHandler
                0x000000000004076e                SWI1_EGU1_IRQHandler
                0x000000000004076e                SPIM2_SPIS2_SPI2_IRQHandler
                0x000000000004076e                NFCT_IRQHandler
                0x000000000004076e                MWU_IRQHandler
                0x000000000004076e                COMP_LPCOMP_IRQHandler
 .text.app_error_handler_bare
                0x0000000000040770       0x20 CMakeFiles/dfu_no_serial_nrf52832_xxAA_s132_6.0.0.dir/home/mazzer/work/nordic/sdk/nRF5_SDK_15.0.0/components/libraries/util/app_error.c.obj
                0x0000000000040770                app_error_handler_bare
 .text.app_error_handler
                0x0000000000040790       0x1c CMakeFiles/dfu_no_serial_nrf52832_xxAA_s132_6.0.0.dir/home/mazzer/work/nordic/sdk/nRF5_SDK_15.0.0/components/libraries/util/app_error_handler_gcc.c.obj
                0x0000000000040790                app_error_handler
 .text.SEGGER_RTT_Write
                0x00000000000407ac      0x1f4 ../../external/rtt/librtt_nrf52832_xxAA.a(SEGGER_RTT.c.obj)
                0x00000000000407ac                SEGGER_RTT_Write
 .text._PrintUnsigned
                0x00000000000409a0      0x17c ../../external/rtt/librtt_nrf52832_xxAA.a(SEGGER_RTT_printf.c.obj)
 .text.SEGGER_RTT_vprintf
                0x0000000000040b1c      0x524 ../../external/rtt/librtt_nrf52832_xxAA.a(SEGGER_RTT_printf.c.obj)
                0x0000000000040b1c                SEGGER_RTT_vprintf
 .text.SEGGER_RTT_printf
                0x0000000000041040       0x20 ../../external/rtt/librtt_nrf52832_xxAA.a(SEGGER_RTT_printf.c.obj)
                0x0000000000041040                SEGGER_RTT_printf
 .text.default_RNG
                0x0000000000041060        0xc ../../external/micro-ecc/libuECC_nrf52832_xxAA.a(uECC.c.obj)
 .text.uECC_generate_random_int
                0x000000000004106c      0x17c ../../external/micro-ecc/libuECC_nrf52832_xxAA.a(uECC.c.obj)
 .text.apply_z  0x00000000000411e8      0x1a8 ../../external/micro-ecc/libuECC_nrf52832_xxAA.a(uECC.c.obj)
 .text.uECC_vli_modAdd
                0x0000000000041390       0xd8 ../../external/micro-ecc/libuECC_nrf52832_xxAA.a(uECC.c.obj)
 .text.x_side_default
                0x0000000000041468      0x26c ../../external/micro-ecc/libuECC_nrf52832_xxAA.a(uECC.c.obj)
 .text.vli_mmod_fast_secp256r1
                0x00000000000416d4      0x514 ../../external/micro-ecc/libuECC_nrf52832_xxAA.a(uECC.c.obj)
 .text.XYcZ_add
                0x0000000000041be8      0x6e0 ../../external/micro-ecc/libuECC_nrf52832_xxAA.a(uECC.c.obj)
 .text.XYcZ_addC
                0x00000000000422c8      0xabc ../../external/micro-ecc/libuECC_nrf52832_xxAA.a(uECC.c.obj)
 .text.uECC_vli_modInv.part.4
                0x0000000000042d84      0x71c ../../external/micro-ecc/libuECC_nrf52832_xxAA.a(uECC.c.obj)
 .text.EccPoint_mult
                0x00000000000434a0      0x4a4 ../../external/micro-ecc/libuECC_nrf52832_xxAA.a(uECC.c.obj)
 .text.double_jacobian_default
                0x0000000000043944      0x814 ../../external/micro-ecc/libuECC_nrf52832_xxAA.a(uECC.c.obj)
 .text.uECC_secp256r1
                0x0000000000044158        0x8 ../../external/micro-ecc/libuECC_nrf52832_xxAA.a(uECC.c.obj)
                0x0000000000044158                uECC_secp256r1
 .text.uECC_make_key
                0x0000000000044160      0x240 ../../external/micro-ecc/libuECC_nrf52832_xxAA.a(uECC.c.obj)
                0x0000000000044160                uECC_make_key
 .text.uECC_shared_secret
                0x00000000000443a0      0x314 ../../external/micro-ecc/libuECC_nrf52832_xxAA.a(uECC.c.obj)
                0x00000000000443a0                uECC_shared_secret
 .text.uECC_valid_public_key
                0x00000000000446b4      0x230 ../../external/micro-ecc/libuECC_nrf52832_xxAA.a(uECC.c.obj)
                0x00000000000446b4                uECC_valid_public_key
 .text.exit     0x00000000000448e4       0x28 /usr/bin/../lib/gcc/arm-none-eabi/7.2.1/../../../../arm-none-eabi/lib/thumb/v7e-m/fpv4-sp/hard/libg_nano.a(lib_a-exit.o)
                0x00000000000448e4                exit
 .text.__libc_init_array
                0x000000000004490c       0x48 /usr/bin/../lib/gcc/arm-none-eabi/7.2.1/../../../../arm-none-eabi/lib/thumb/v7e-m/fpv4-sp/hard/libg_nano.a(lib_a-init.o)
                0x000000000004490c                __libc_init_array
 .text.malloc   0x0000000000044954       0x10 /usr/bin/../lib/gcc/arm-none-eabi/7.2.1/../../../../arm-none-eabi/lib/thumb/v7e-m/fpv4-sp/hard/libg_nano.a(lib_a-malloc.o)
                0x0000000000044954                malloc
 .text.free     0x0000000000044964       0x10 /usr/bin/../lib/gcc/arm-none-eabi/7.2.1/../../../../arm-none-eabi/lib/thumb/v7e-m/fpv4-sp/hard/libg_nano.a(lib_a-malloc.o)
                0x0000000000044964                free
 .text.memcmp   0x0000000000044974       0x1e /usr/bin/../lib/gcc/arm-none-eabi/7.2.1/../../../../arm-none-eabi/lib/thumb/v7e-m/fpv4-sp/hard/libg_nano.a(lib_a-memcmp.o)
                0x0000000000044974                memcmp
 .text.memcpy   0x0000000000044992       0x16 /usr/bin/../lib/gcc/arm-none-eabi/7.2.1/../../../../arm-none-eabi/lib/thumb/v7e-m/fpv4-sp/hard/libg_nano.a(lib_a-memcpy-stub.o)
                0x0000000000044992                memcpy
 .text.memset   0x00000000000449a8       0x10 /usr/bin/../lib/gcc/arm-none-eabi/7.2.1/../../../../arm-none-eabi/lib/thumb/v7e-m/fpv4-sp/hard/libg_nano.a(lib_a-memset.o)
                0x00000000000449a8                memset
 .text._free_r  0x00000000000449b8       0x9c /usr/bin/../lib/gcc/arm-none-eabi/7.2.1/../../../../arm-none-eabi/lib/thumb/v7e-m/fpv4-sp/hard/libg_nano.a(lib_a-nano-freer.o)
                0x00000000000449b8                _free_r
 .text._malloc_r
                0x0000000000044a54       0xb4 /usr/bin/../lib/gcc/arm-none-eabi/7.2.1/../../../../arm-none-eabi/lib/thumb/v7e-m/fpv4-sp/hard/libg_nano.a(lib_a-nano-mallocr.o)
                0x0000000000044a54                _malloc_r
 .text._sbrk_r  0x0000000000044b08       0x20 /usr/bin/../lib/gcc/arm-none-eabi/7.2.1/../../../../arm-none-eabi/lib/thumb/v7e-m/fpv4-sp/hard/libg_nano.a(lib_a-sbrkr.o)
                0x0000000000044b08                _sbrk_r
 .text.strcpy   0x0000000000044b28       0x10 /usr/bin/../lib/gcc/arm-none-eabi/7.2.1/../../../../arm-none-eabi/lib/thumb/v7e-m/fpv4-sp/hard/libg_nano.a(lib_a-strcpy.o)
                0x0000000000044b28                strcpy
 .text          0x0000000000044b38       0x10 /usr/bin/../lib/gcc/arm-none-eabi/7.2.1/../../../../arm-none-eabi/lib/thumb/v7e-m/fpv4-sp/hard/libg_nano.a(lib_a-strlen.o)
                0x0000000000044b38                strlen
 .text.strrchr  0x0000000000044b48       0x28 /usr/bin/../lib/gcc/arm-none-eabi/7.2.1/../../../../arm-none-eabi/lib/thumb/v7e-m/fpv4-sp/hard/libg_nano.a(lib_a-strrchr.o)
                0x0000000000044b48                strrchr
 .text.__malloc_lock
                0x0000000000044b70        0x2 /usr/bin/../lib/gcc/arm-none-eabi/7.2.1/../../../../arm-none-eabi/lib/thumb/v7e-m/fpv4-sp/hard/libg_nano.a(lib_a-mlock.o)
                0x0000000000044b70                __malloc_lock
 .text.__malloc_unlock
                0x0000000000044b72        0x2 /usr/bin/../lib/gcc/arm-none-eabi/7.2.1/../../../../arm-none-eabi/lib/thumb/v7e-m/fpv4-sp/hard/libg_nano.a(lib_a-mlock.o)
                0x0000000000044b72                __malloc_unlock
 .text.strchr   0x0000000000044b74       0x1a /usr/bin/../lib/gcc/arm-none-eabi/7.2.1/../../../../arm-none-eabi/lib/thumb/v7e-m/fpv4-sp/hard/libg_nano.a(lib_a-strchr.o)
                0x0000000000044b74                strchr
 *fill*         0x0000000000044b8e        0x2 
 .text._sbrk    0x0000000000044b90       0x1c /usr/bin/../lib/gcc/arm-none-eabi/7.2.1/../../../../arm-none-eabi/lib/thumb/v7e-m/fpv4-sp/hard/libnosys.a(sbrk.o)
                0x0000000000044b90                _sbrk
 .text._exit    0x0000000000044bac        0x4 /usr/bin/../lib/gcc/arm-none-eabi/7.2.1/../../../../arm-none-eabi/lib/thumb/v7e-m/fpv4-sp/hard/libnosys.a(_exit.o)
                0x0000000000044bac                _exit
 *(.init)
 .init          0x0000000000044bb0        0x4 /usr/bin/../lib/gcc/arm-none-eabi/7.2.1/thumb/v7e-m/fpv4-sp/hard/crti.o
                0x0000000000044bb0                _init
 .init          0x0000000000044bb4        0x8 /usr/bin/../lib/gcc/arm-none-eabi/7.2.1/thumb/v7e-m/fpv4-sp/hard/crtn.o
 *(.fini)
 .fini          0x0000000000044bbc        0x4 /usr/bin/../lib/gcc/arm-none-eabi/7.2.1/thumb/v7e-m/fpv4-sp/hard/crti.o
                0x0000000000044bbc                _fini
 .fini          0x0000000000044bc0        0x8 /usr/bin/../lib/gcc/arm-none-eabi/7.2.1/thumb/v7e-m/fpv4-sp/hard/crtn.o
 *crtbegin.o(.ctors)
 *crtbegin?.o(.ctors)
 *(EXCLUDE_FILE(*crtend.o *crtend?.o) .ctors)
 *(SORT_BY_NAME(.ctors.*))
 *(.ctors)
 *crtbegin.o(.dtors)
 *crtbegin?.o(.dtors)
 *(EXCLUDE_FILE(*crtend.o *crtend?.o) .dtors)
 *(SORT_BY_NAME(.dtors.*))
 *(.dtors)
 *(.rodata*)
 .rodata.config_server_evt_cb.str1.4
                0x0000000000044bc8       0x6d CMakeFiles/dfu_no_serial_nrf52832_xxAA_s132_6.0.0.dir/src/main.c.obj
 *fill*         0x0000000000044c35        0x3 
 .rodata.main.str1.4
                0x0000000000044c38       0x9a CMakeFiles/dfu_no_serial_nrf52832_xxAA_s132_6.0.0.dir/src/main.c.obj
 *fill*         0x0000000000044cd2        0x2 
 .rodata.static_auth_data.12751
                0x0000000000044cd4       0x10 CMakeFiles/dfu_no_serial_nrf52832_xxAA_s132_6.0.0.dir/src/main.c.obj
 .rodata.mesh_softdevice_init.str1.4
                0x0000000000044ce4       0xe1 CMakeFiles/dfu_no_serial_nrf52832_xxAA_s132_6.0.0.dir/__/common/src/mesh_softdevice_init.c.obj
 *fill*         0x0000000000044dc5        0x3 
 .rodata        0x0000000000044dc8        0xb CMakeFiles/dfu_no_serial_nrf52832_xxAA_s132_6.0.0.dir/__/common/src/mesh_provisionee.c.obj
 *fill*         0x0000000000044dd3        0xd 
 .rodata.delay_bytecode.8588
                0x0000000000044de0        0x6 CMakeFiles/dfu_no_serial_nrf52832_xxAA_s132_6.0.0.dir/__/common/src/simple_hal.c.obj
 *fill*         0x0000000000044de6        0x2 
 .rodata.m_buttons_list
                0x0000000000044de8        0x4 CMakeFiles/dfu_no_serial_nrf52832_xxAA_s132_6.0.0.dir/__/common/src/simple_hal.c.obj
 .rodata.access_model_publish.str1.4
                0x0000000000044dec       0x24 CMakeFiles/dfu_no_serial_nrf52832_xxAA_s132_6.0.0.dir/__/__/mesh/access/src/access.c.obj
 .rodata.mesh_evt_cb.str1.4
                0x0000000000044e10       0x67 CMakeFiles/dfu_no_serial_nrf52832_xxAA_s132_6.0.0.dir/__/__/mesh/access/src/access.c.obj
 *fill*         0x0000000000044e77        0x1 
 .rodata.multiply_de_bruijn_bit_position.9421
                0x0000000000044e78       0x20 CMakeFiles/dfu_no_serial_nrf52832_xxAA_s132_6.0.0.dir/__/__/mesh/access/src/access.c.obj
 .rodata.m_flash_groups
                0x0000000000044e98       0xa8 CMakeFiles/dfu_no_serial_nrf52832_xxAA_s132_6.0.0.dir/__/__/mesh/access/src/device_state_manager.c.obj
 .rodata.multiply_de_bruijn_bit_position.9527
                0x0000000000044f40       0x20 CMakeFiles/dfu_no_serial_nrf52832_xxAA_s132_6.0.0.dir/__/__/mesh/access/src/device_state_manager.c.obj
 .rodata        0x0000000000044f60        0x8 CMakeFiles/dfu_no_serial_nrf52832_xxAA_s132_6.0.0.dir/__/__/models/config/src/config_server.c.obj
 .rodata.CSWTCH.178
                0x0000000000044f68       0x10 CMakeFiles/dfu_no_serial_nrf52832_xxAA_s132_6.0.0.dir/__/__/models/config/src/config_server.c.obj
 .rodata.opcode_handlers
                0x0000000000044f78      0x170 CMakeFiles/dfu_no_serial_nrf52832_xxAA_s132_6.0.0.dir/__/__/models/config/src/config_server.c.obj
 .rodata.m_opcode_handlers
                0x00000000000450e8       0x58 CMakeFiles/dfu_no_serial_nrf52832_xxAA_s132_6.0.0.dir/__/__/models/health/src/health_server.c.obj
 .rodata.multiply_de_bruijn_bit_position.9465
                0x0000000000045140       0x20 CMakeFiles/dfu_no_serial_nrf52832_xxAA_s132_6.0.0.dir/__/__/models/health/src/health_server.c.obj
 .rodata.m_prov_callbacks
                0x0000000000045160       0x10 CMakeFiles/dfu_no_serial_nrf52832_xxAA_s132_6.0.0.dir/__/__/mesh/prov/src/prov_provisionee.c.obj
 .rodata.prov_provisionee_cb_ack_received.str1.4
                0x0000000000045170       0x8b CMakeFiles/dfu_no_serial_nrf52832_xxAA_s132_6.0.0.dir/__/__/mesh/prov/src/prov_provisionee.c.obj
 *fill*         0x00000000000451fb        0x1 
 .rodata.multiply_de_bruijn_bit_position.9474
                0x00000000000451fc       0x20 CMakeFiles/dfu_no_serial_nrf52832_xxAA_s132_6.0.0.dir/__/__/mesh/prov/src/nrf_mesh_prov.c.obj
 .rodata.pdu_sizes.11435
                0x000000000004521c        0xa CMakeFiles/dfu_no_serial_nrf52832_xxAA_s132_6.0.0.dir/__/__/mesh/prov/src/provisioning.c.obj
 *fill*         0x0000000000045226        0x2 
 .rodata.alphanumeric.11540
                0x0000000000045228       0x25 CMakeFiles/dfu_no_serial_nrf52832_xxAA_s132_6.0.0.dir/__/__/mesh/prov/src/prov_utils.c.obj
 *fill*         0x000000000004524d        0x3 
 .rodata.numeric_max.11534
                0x0000000000045250       0x24 CMakeFiles/dfu_no_serial_nrf52832_xxAA_s132_6.0.0.dir/__/__/mesh/prov/src/prov_utils.c.obj
 .rodata.prov_utils_authentication_values_derive.str1.4
                0x0000000000045274        0x5 CMakeFiles/dfu_no_serial_nrf52832_xxAA_s132_6.0.0.dir/__/__/mesh/prov/src/prov_utils.c.obj
 *fill*         0x0000000000045279        0x3 
 .rodata.prov_utils_derive_keys.str1.4
                0x000000000004527c       0x15 CMakeFiles/dfu_no_serial_nrf52832_xxAA_s132_6.0.0.dir/__/__/mesh/prov/src/prov_utils.c.obj
 *fill*         0x0000000000045291        0x3 
 .rodata.crctable.11169
                0x0000000000045294      0x100 CMakeFiles/dfu_no_serial_nrf52832_xxAA_s132_6.0.0.dir/__/__/mesh/prov/src/prov_bearer_adv.c.obj
 .rodata.interface.11399
                0x0000000000045394       0x14 CMakeFiles/dfu_no_serial_nrf52832_xxAA_s132_6.0.0.dir/__/__/mesh/prov/src/prov_bearer_adv.c.obj
 .rodata.prov_bearer_adv_listen.str1.4
                0x00000000000453a8       0x88 CMakeFiles/dfu_no_serial_nrf52832_xxAA_s132_6.0.0.dir/__/__/mesh/prov/src/prov_bearer_adv.c.obj
 .rodata.prov_bearer_adv_packet_in.str1.4
                0x0000000000045430      0x283 CMakeFiles/dfu_no_serial_nrf52832_xxAA_s132_6.0.0.dir/__/__/mesh/prov/src/prov_bearer_adv.c.obj
 *fill*         0x00000000000456b3        0x1 
 .rodata.tx_retry_cb.str1.4
                0x00000000000456b4       0x14 CMakeFiles/dfu_no_serial_nrf52832_xxAA_s132_6.0.0.dir/__/__/mesh/prov/src/prov_bearer_adv.c.obj
 .rodata.abort_timeout.str1.4
                0x00000000000456c8       0x8c CMakeFiles/dfu_no_serial_nrf52832_xxAA_s132_6.0.0.dir/__/__/mesh/dfu/src/nrf_mesh_dfu.c.obj
 .rodata.dfu_evt_handler.str1.4
                0x0000000000045754      0x174 CMakeFiles/dfu_no_serial_nrf52832_xxAA_s132_6.0.0.dir/__/__/mesh/dfu/src/nrf_mesh_dfu.c.obj
 .rodata.flash_op_complete.str1.4
                0x00000000000458c8       0x3d CMakeFiles/dfu_no_serial_nrf52832_xxAA_s132_6.0.0.dir/__/__/mesh/dfu/src/nrf_mesh_dfu.c.obj
 *fill*         0x0000000000045905        0x3 
 .rodata.m_adv_channels
                0x0000000000045908        0x3 CMakeFiles/dfu_no_serial_nrf52832_xxAA_s132_6.0.0.dir/__/__/mesh/dfu/src/nrf_mesh_dfu.c.obj
 *fill*         0x000000000004590b        0x1 
 .rodata.timer_timeout.str1.4
                0x000000000004590c       0x13 CMakeFiles/dfu_no_serial_nrf52832_xxAA_s132_6.0.0.dir/__/__/mesh/dfu/src/nrf_mesh_dfu.c.obj
 *fill*         0x000000000004591f        0x1 
 .rodata.app_error_fault_handler.str1.4
                0x0000000000045920       0xfd CMakeFiles/dfu_no_serial_nrf52832_xxAA_s132_6.0.0.dir/__/common/src/app_error_weak.c.obj
 .rodata.mesh_assertion_handler.str1.4
                0x0000000000045a1d       0xfd CMakeFiles/dfu_no_serial_nrf52832_xxAA_s132_6.0.0.dir/__/common/src/assertion_handler_weak.c.obj
                                          0x1 (size before relaxing)
 *fill*         0x0000000000045a1d        0x3 
 .rodata.sar_ctx_cancel.str1.4
                0x0000000000045a20       0x23 CMakeFiles/dfu_no_serial_nrf52832_xxAA_s132_6.0.0.dir/__/__/mesh/core/src/transport.c.obj
 *fill*         0x0000000000045a43        0x1 
 .rodata.transport_packet_in.str1.4
                0x0000000000045a44       0x24 CMakeFiles/dfu_no_serial_nrf52832_xxAA_s132_6.0.0.dir/__/__/mesh/core/src/transport.c.obj
 .rodata.upper_transport_access_packet_in.str1.4
                0x0000000000045a68       0x91 CMakeFiles/dfu_no_serial_nrf52832_xxAA_s132_6.0.0.dir/__/__/mesh/core/src/transport.c.obj
 *fill*         0x0000000000045af9        0x3 
 .rodata.upper_transport_packet_in.str1.4
                0x0000000000045afc       0x2e CMakeFiles/dfu_no_serial_nrf52832_xxAA_s132_6.0.0.dir/__/__/mesh/core/src/transport.c.obj
 *fill*         0x0000000000045b2a        0x2 
 .rodata.upper_transport_tx.part.27.str1.4
                0x0000000000045b2c        0xe CMakeFiles/dfu_no_serial_nrf52832_xxAA_s132_6.0.0.dir/__/__/mesh/core/src/transport.c.obj
                                         0x18 (size before relaxing)
 *fill*         0x0000000000045b3a        0x2 
 .rodata.m_procedure_steps
                0x0000000000045b3c       0x28 CMakeFiles/dfu_no_serial_nrf52832_xxAA_s132_6.0.0.dir/__/__/mesh/core/src/flash_manager_defrag.c.obj
 .rodata.m_all_operations
                0x0000000000045b64       0x10 CMakeFiles/dfu_no_serial_nrf52832_xxAA_s132_6.0.0.dir/__/__/mesh/core/src/mesh_flash.c.obj
 .rodata.types_lookup.9220
                0x0000000000045b74        0x4 CMakeFiles/dfu_no_serial_nrf52832_xxAA_s132_6.0.0.dir/__/__/mesh/core/src/nrf_mesh_utils.c.obj
 .rodata.__func__.11692
                0x0000000000045b78       0x15 CMakeFiles/dfu_no_serial_nrf52832_xxAA_s132_6.0.0.dir/__/__/mesh/core/src/nrf_mesh.c.obj
 *fill*         0x0000000000045b8d        0x3 
 .rodata.nrf_mesh_listen.str1.4
                0x0000000000045b90       0xab CMakeFiles/dfu_no_serial_nrf52832_xxAA_s132_6.0.0.dir/__/__/mesh/core/src/nrf_mesh.c.obj
 .rodata.nrf_mesh_packet_send.str1.4
                0x0000000000045c3b       0xab CMakeFiles/dfu_no_serial_nrf52832_xxAA_s132_6.0.0.dir/__/__/mesh/core/src/nrf_mesh.c.obj
                                          0x4 (size before relaxing)
 *fill*         0x0000000000045c3b        0x1 
 .rodata.CSWTCH.8
                0x0000000000045c3c       0x20 CMakeFiles/dfu_no_serial_nrf52832_xxAA_s132_6.0.0.dir/__/__/mesh/core/src/hal.c.obj
 .rodata        0x0000000000045c5c       0x18 CMakeFiles/dfu_no_serial_nrf52832_xxAA_s132_6.0.0.dir/__/__/mesh/core/src/enc.c.obj
 .rodata.network_packet_in.str1.4
                0x0000000000045c74       0x81 CMakeFiles/dfu_no_serial_nrf52832_xxAA_s132_6.0.0.dir/__/__/mesh/core/src/network.c.obj
 *fill*         0x0000000000045cf5        0x3 
 .rodata.net_packet_decrypt.str1.4
                0x0000000000045cf8       0x6b CMakeFiles/dfu_no_serial_nrf52832_xxAA_s132_6.0.0.dir/__/__/mesh/core/src/net_packet.c.obj
                                         0x74 (size before relaxing)
 *fill*         0x0000000000045d63        0x1 
 .rodata        0x0000000000045d64        0x7 CMakeFiles/dfu_no_serial_nrf52832_xxAA_s132_6.0.0.dir/__/__/mesh/core/src/nrf_mesh_keygen.c.obj
 *fill*         0x0000000000045d6b        0x1 
 .rodata.log_callback_rtt.str1.4
                0x0000000000045d6c       0x15 CMakeFiles/dfu_no_serial_nrf52832_xxAA_s132_6.0.0.dir/__/__/mesh/core/src/log.c.obj
 *fill*         0x0000000000045d81        0x3 
 .rodata.str1.4
                0x0000000000045d84       0x11 CMakeFiles/dfu_no_serial_nrf52832_xxAA_s132_6.0.0.dir/__/__/mesh/core/src/log.c.obj
 *fill*         0x0000000000045d95        0x3 
 .rodata.INVALID_HEADER
                0x0000000000045d98        0x4 CMakeFiles/dfu_no_serial_nrf52832_xxAA_s132_6.0.0.dir/__/__/mesh/core/src/flash_manager.c.obj
                0x0000000000045d98                INVALID_HEADER
 .rodata.PADDING_HEADER
                0x0000000000045d9c        0x4 CMakeFiles/dfu_no_serial_nrf52832_xxAA_s132_6.0.0.dir/__/__/mesh/core/src/flash_manager.c.obj
                0x0000000000045d9c                PADDING_HEADER
 .rodata.SEAL_HEADER
                0x0000000000045da0        0x4 CMakeFiles/dfu_no_serial_nrf52832_xxAA_s132_6.0.0.dir/__/__/mesh/core/src/flash_manager.c.obj
                0x0000000000045da0                SEAL_HEADER
 .rodata.beacon_packet_in.str1.4
                0x0000000000045da4       0x8d CMakeFiles/dfu_no_serial_nrf52832_xxAA_s132_6.0.0.dir/__/__/mesh/core/src/beacon.c.obj
                                         0x98 (size before relaxing)
 *fill*         0x0000000000045e31        0x3 
 .rodata.cp_handler
                0x0000000000045e34        0x8 CMakeFiles/dfu_no_serial_nrf52832_xxAA_s132_6.0.0.dir/__/__/mesh/core/src/heartbeat.c.obj
 .rodata.beacon_tx.str1.4
                0x0000000000045e3c       0x6f CMakeFiles/dfu_no_serial_nrf52832_xxAA_s132_6.0.0.dir/__/__/mesh/core/src/net_beacon.c.obj
 *fill*         0x0000000000045eab        0x1 
 .rodata.net_beacon_init.str1.4
                0x0000000000045eac        0x5 CMakeFiles/dfu_no_serial_nrf52832_xxAA_s132_6.0.0.dir/__/__/mesh/core/src/net_beacon.c.obj
 *fill*         0x0000000000045eb1        0x3 
 .rodata.m_interface
                0x0000000000045eb4        0xc CMakeFiles/dfu_no_serial_nrf52832_xxAA_s132_6.0.0.dir/__/__/mesh/core/src/core_tx_adv.c.obj
 .rodata.radio_mode_to_us_per_byte.9613
                0x0000000000045ec0        0x6 CMakeFiles/dfu_no_serial_nrf52832_xxAA_s132_6.0.0.dir/__/__/mesh/bearer/src/broadcast.c.obj
 *fill*         0x0000000000045ec6        0x2 
 .rodata.channel_rf_offsets.8831
                0x0000000000045ec8       0x28 CMakeFiles/dfu_no_serial_nrf52832_xxAA_s132_6.0.0.dir/__/__/mesh/bearer/src/radio_config.c.obj
 .rodata.SEGGER_RTT_ReadNoLock.str1.4
                0x0000000000045ef0       0x18 ../../external/rtt/librtt_nrf52832_xxAA.a(SEGGER_RTT.c.obj)
                                         0x17 (size before relaxing)
 .rodata._aV2C.5639
                0x0000000000045f08       0x10 ../../external/rtt/librtt_nrf52832_xxAA.a(SEGGER_RTT_printf.c.obj)
 .rodata.curve_secp256r1
                0x0000000000045f18       0xb0 ../../external/micro-ecc/libuECC_nrf52832_xxAA.a(uECC.c.obj)
 .rodata._global_impure_ptr
                0x0000000000045fc8        0x4 /usr/bin/../lib/gcc/arm-none-eabi/7.2.1/../../../../arm-none-eabi/lib/thumb/v7e-m/fpv4-sp/hard/libg_nano.a(lib_a-impure.o)
                0x0000000000045fc8                _global_impure_ptr
 *(.eh_frame*)
 .eh_frame      0x0000000000045fcc        0x0 /usr/bin/../lib/gcc/arm-none-eabi/7.2.1/thumb/v7e-m/fpv4-sp/hard/crtbegin.o
 .eh_frame      0x0000000000045fcc        0x4 /usr/bin/../lib/gcc/arm-none-eabi/7.2.1/thumb/v7e-m/fpv4-sp/hard/crtend.o

.glue_7         0x0000000000045fd0        0x0
 .glue_7        0x0000000000045fd0        0x0 linker stubs

.glue_7t        0x0000000000045fd0        0x0
 .glue_7t       0x0000000000045fd0        0x0 linker stubs

.vfp11_veneer   0x0000000000045fd0        0x0
 .vfp11_veneer  0x0000000000045fd0        0x0 linker stubs

.v4_bx          0x0000000000045fd0        0x0
 .v4_bx         0x0000000000045fd0        0x0 linker stubs

.iplt           0x0000000000045fd0        0x0
 .iplt          0x0000000000045fd0        0x0 /usr/bin/../lib/gcc/arm-none-eabi/7.2.1/thumb/v7e-m/fpv4-sp/hard/crtbegin.o

.pwr_mgmt_data  0x0000000000045fd0        0x0
                [!provide]                        PROVIDE (__start_pwr_mgmt_data, .)
 *(SORT_BY_NAME(.pwr_mgmt_data*))
                [!provide]                        PROVIDE (__stop_pwr_mgmt_data, .)

.log_const_data
                0x0000000000045fd0        0x0
                [!provide]                        PROVIDE (__start_log_const_data, .)
 *(.log_const_data)
                [!provide]                        PROVIDE (__stop_log_const_data, .)

.cli_command    0x0000000000045fd0        0x0
                [!provide]                        PROVIDE (__start_cli_command, .)
 *(.cli_command)
                [!provide]                        PROVIDE (__stop_cli_command, .)

.sdh_stack_observers
                0x0000000000045fd0        0x0
                [!provide]                        PROVIDE (__start_sdh_stack_observers, .)
 *(SORT_BY_NAME(.sdh_stack_observers*))
                [!provide]                        PROVIDE (__stop_sdh_stack_observers, .)

.sdh_req_observers
                0x0000000000045fd0        0x0
                [!provide]                        PROVIDE (__start_sdh_req_observers, .)
 *(SORT_BY_NAME(.sdh_req_observers*))
                [!provide]                        PROVIDE (__stop_sdh_req_observers, .)

.sdh_state_observers
                0x0000000000045fd0        0x0
                [!provide]                        PROVIDE (__start_sdh_state_observers, .)
 *(SORT_BY_NAME(.sdh_state_observers*))
                [!provide]                        PROVIDE (__stop_sdh_state_observers, .)

.sdh_ant_observers
                0x0000000000045fd0        0x0
                [!provide]                        PROVIDE (__start_sdh_ant_observers, .)
 *(SORT_BY_NAME(.sdh_ant_observers*))
                [!provide]                        PROVIDE (__stop_sdh_ant_observers, .)

.sdh_ble_observers
                0x0000000000045fd0        0x0
                [!provide]                        PROVIDE (__start_sdh_ble_observers, .)
 *(SORT_BY_NAME(.sdh_ble_observers*))
                [!provide]                        PROVIDE (__stop_sdh_ble_observers, .)

.sdh_soc_observers
                0x0000000000045fd0        0x0
                [!provide]                        PROVIDE (__start_sdh_soc_observers, .)
 *(SORT_BY_NAME(.sdh_soc_observers*))
                [!provide]                        PROVIDE (__stop_sdh_soc_observers, .)

.ARM.extab
 *(.ARM.extab* .gnu.linkonce.armextab.*)
                0x0000000000045fd0                __exidx_start = .

.ARM.exidx      0x0000000000045fd0        0x8
 *(.ARM.exidx* .gnu.linkonce.armexidx.*)
 .ARM.exidx     0x0000000000045fd0        0x8 /usr/bin/../lib/gcc/arm-none-eabi/7.2.1/../../../../arm-none-eabi/lib/thumb/v7e-m/fpv4-sp/hard/crt0.o
                0x0000000000045fd8                __exidx_end = .
                0x0000000000045fd8                __etext = .

.rel.dyn        0x0000000000045fd8        0x0
 .rel.iplt      0x0000000000045fd8        0x0 /usr/bin/../lib/gcc/arm-none-eabi/7.2.1/thumb/v7e-m/fpv4-sp/hard/crtbegin.o

.data           0x00000000200032c8      0x148 load address 0x0000000000045fd8
                0x00000000200032c8                __data_start__ = .
 *(vtable)
 *(.data*)
 .data.rom_base
                0x00000000200032c8        0x4 CMakeFiles/dfu_no_serial_nrf52832_xxAA_s132_6.0.0.dir/src/main.c.obj
                0x00000000200032c8                rom_base
 .data.rom_end  0x00000000200032cc        0x4 CMakeFiles/dfu_no_serial_nrf52832_xxAA_s132_6.0.0.dir/src/main.c.obj
                0x00000000200032cc                rom_end
 .data.s_evt_handler.11216
                0x00000000200032d0        0x8 CMakeFiles/dfu_no_serial_nrf52832_xxAA_s132_6.0.0.dir/__/__/mesh/stack/src/mesh_stack.c.obj
 .data.flash_add_mem_available_struct.10545
                0x00000000200032d8       0x10 CMakeFiles/dfu_no_serial_nrf52832_xxAA_s132_6.0.0.dir/__/__/mesh/access/src/access.c.obj
 .data.flash_clear_mem_available_struct.10634
                0x00000000200032e8       0x10 CMakeFiles/dfu_no_serial_nrf52832_xxAA_s132_6.0.0.dir/__/__/mesh/access/src/access.c.obj
 .data.flash_store_mem_available_struct.10658
                0x00000000200032f8       0x10 CMakeFiles/dfu_no_serial_nrf52832_xxAA_s132_6.0.0.dir/__/__/mesh/access/src/access.c.obj
 .data.m_default_ttl
                0x0000000020003308        0x1 CMakeFiles/dfu_no_serial_nrf52832_xxAA_s132_6.0.0.dir/__/__/mesh/access/src/access.c.obj
 *fill*         0x0000000020003309        0x3 
 .data.mem_listener.10834
                0x000000002000330c       0x10 CMakeFiles/dfu_no_serial_nrf52832_xxAA_s132_6.0.0.dir/__/__/mesh/access/src/device_state_manager.c.obj
 .data.mem_listener.10860
                0x000000002000331c       0x10 CMakeFiles/dfu_no_serial_nrf52832_xxAA_s132_6.0.0.dir/__/__/mesh/access/src/device_state_manager.c.obj
 .data.m_config_server_handle
                0x000000002000332c        0x2 CMakeFiles/dfu_no_serial_nrf52832_xxAA_s132_6.0.0.dir/__/__/models/config/src/config_server.c.obj
 *fill*         0x000000002000332e        0x2 
 .data.m_mesh_evt_handler
                0x0000000020003330        0x8 CMakeFiles/dfu_no_serial_nrf52832_xxAA_s132_6.0.0.dir/__/__/models/config/src/config_server.c.obj
 .data.m_async_process_flag
                0x0000000020003338        0x4 CMakeFiles/dfu_no_serial_nrf52832_xxAA_s132_6.0.0.dir/__/__/mesh/prov/src/prov_bearer_adv.c.obj
 .data.wait.9133
                0x000000002000333c        0x1 CMakeFiles/dfu_no_serial_nrf52832_xxAA_s132_6.0.0.dir/__/common/src/app_error_weak.c.obj
 *fill*         0x000000002000333d        0x3 
 .data.mem_listener.10007
                0x0000000020003340       0x10 CMakeFiles/dfu_no_serial_nrf52832_xxAA_s132_6.0.0.dir/__/__/mesh/core/src/net_state.c.obj
 .data.mem_listener.9971
                0x0000000020003350       0x10 CMakeFiles/dfu_no_serial_nrf52832_xxAA_s132_6.0.0.dir/__/__/mesh/core/src/net_state.c.obj
 .data.mem_listener.9976
                0x0000000020003360       0x10 CMakeFiles/dfu_no_serial_nrf52832_xxAA_s132_6.0.0.dir/__/__/mesh/core/src/net_state.c.obj
 .data.mem_listener.9990
                0x0000000020003370       0x10 CMakeFiles/dfu_no_serial_nrf52832_xxAA_s132_6.0.0.dir/__/__/mesh/core/src/net_state.c.obj
 .data.m_nrf_mesh_listener
                0x0000000020003380        0xc CMakeFiles/dfu_no_serial_nrf52832_xxAA_s132_6.0.0.dir/__/__/mesh/core/src/nrf_mesh.c.obj
 .data.g_log_dbg_lvl
                0x000000002000338c        0x4 CMakeFiles/dfu_no_serial_nrf52832_xxAA_s132_6.0.0.dir/__/__/mesh/core/src/log.c.obj
                0x000000002000338c                g_log_dbg_lvl
 .data.g_log_dbg_msk
                0x0000000020003390        0x4 CMakeFiles/dfu_no_serial_nrf52832_xxAA_s132_6.0.0.dir/__/__/mesh/core/src/log.c.obj
                0x0000000020003390                g_log_dbg_msk
 .data.g_log_hex_digits
                0x0000000020003394        0x4 CMakeFiles/dfu_no_serial_nrf52832_xxAA_s132_6.0.0.dir/__/__/mesh/core/src/log.c.obj
                0x0000000020003394                g_log_hex_digits
 .data.m_log_callback
                0x0000000020003398        0x4 CMakeFiles/dfu_no_serial_nrf52832_xxAA_s132_6.0.0.dir/__/__/mesh/core/src/log.c.obj
                0x0000000020003398                m_log_callback
 .data.SystemCoreClock
                0x000000002000339c        0x4 CMakeFiles/dfu_no_serial_nrf52832_xxAA_s132_6.0.0.dir/home/mazzer/work/nordic/sdk/nRF5_SDK_15.0.0/modules/nrfx/mdk/system_nrf52.c.obj
                0x000000002000339c                SystemCoreClock
 .data.g_rng_function
                0x00000000200033a0        0x4 ../../external/micro-ecc/libuECC_nrf52832_xxAA.a(uECC.c.obj)
 .data._impure_ptr
                0x00000000200033a4        0x4 /usr/bin/../lib/gcc/arm-none-eabi/7.2.1/../../../../arm-none-eabi/lib/thumb/v7e-m/fpv4-sp/hard/libg_nano.a(lib_a-impure.o)
                0x00000000200033a4                _impure_ptr
 .data.impure_data
                0x00000000200033a8       0x60 /usr/bin/../lib/gcc/arm-none-eabi/7.2.1/../../../../arm-none-eabi/lib/thumb/v7e-m/fpv4-sp/hard/libg_nano.a(lib_a-impure.o)
                0x0000000020003408                . = ALIGN (0x4)
                0x0000000020003408                PROVIDE (__preinit_array_start, .)
 *(.preinit_array)
                0x0000000020003408                PROVIDE (__preinit_array_end, .)
                0x0000000020003408                . = ALIGN (0x4)
                0x0000000020003408                PROVIDE (__init_array_start, .)
 *(SORT_BY_NAME(.init_array.*))
 *(.init_array)
 .init_array    0x0000000020003408        0x4 /usr/bin/../lib/gcc/arm-none-eabi/7.2.1/thumb/v7e-m/fpv4-sp/hard/crtbegin.o
                0x000000002000340c                PROVIDE (__init_array_end, .)
                0x000000002000340c                . = ALIGN (0x4)
                [!provide]                        PROVIDE (__fini_array_start, .)
 *(SORT_BY_NAME(.fini_array.*))
 *(.fini_array)
 .fini_array    0x000000002000340c        0x4 /usr/bin/../lib/gcc/arm-none-eabi/7.2.1/thumb/v7e-m/fpv4-sp/hard/crtbegin.o
                [!provide]                        PROVIDE (__fini_array_end, .)
 *(.jcr*)
                0x0000000020003410                . = ALIGN (0x4)
                0x0000000020003410                __data_end__ = .
LOAD /usr/bin/../lib/gcc/arm-none-eabi/7.2.1/thumb/v7e-m/fpv4-sp/hard/crti.o
LOAD /usr/bin/../lib/gcc/arm-none-eabi/7.2.1/thumb/v7e-m/fpv4-sp/hard/crtbegin.o
LOAD /usr/bin/../lib/gcc/arm-none-eabi/7.2.1/../../../../arm-none-eabi/lib/thumb/v7e-m/fpv4-sp/hard/crt0.o
LOAD CMakeFiles/dfu_no_serial_nrf52832_xxAA_s132_6.0.0.dir/src/main.c.obj
LOAD CMakeFiles/dfu_no_serial_nrf52832_xxAA_s132_6.0.0.dir/__/__/mesh/stack/src/mesh_stack.c.obj
LOAD CMakeFiles/dfu_no_serial_nrf52832_xxAA_s132_6.0.0.dir/__/common/src/mesh_softdevice_init.c.obj
LOAD CMakeFiles/dfu_no_serial_nrf52832_xxAA_s132_6.0.0.dir/__/common/src/mesh_provisionee.c.obj
LOAD CMakeFiles/dfu_no_serial_nrf52832_xxAA_s132_6.0.0.dir/__/common/src/simple_hal.c.obj
LOAD CMakeFiles/dfu_no_serial_nrf52832_xxAA_s132_6.0.0.dir/__/__/mesh/access/src/access_publish.c.obj
LOAD CMakeFiles/dfu_no_serial_nrf52832_xxAA_s132_6.0.0.dir/__/__/mesh/access/src/access.c.obj
LOAD CMakeFiles/dfu_no_serial_nrf52832_xxAA_s132_6.0.0.dir/__/__/mesh/access/src/access_reliable.c.obj
LOAD CMakeFiles/dfu_no_serial_nrf52832_xxAA_s132_6.0.0.dir/__/__/mesh/access/src/device_state_manager.c.obj
LOAD CMakeFiles/dfu_no_serial_nrf52832_xxAA_s132_6.0.0.dir/__/__/models/config/src/composition_data.c.obj
LOAD CMakeFiles/dfu_no_serial_nrf52832_xxAA_s132_6.0.0.dir/__/__/models/config/src/config_server.c.obj
LOAD CMakeFiles/dfu_no_serial_nrf52832_xxAA_s132_6.0.0.dir/__/__/models/config/src/packed_index_list.c.obj
LOAD CMakeFiles/dfu_no_serial_nrf52832_xxAA_s132_6.0.0.dir/__/__/models/health/src/health_server.c.obj
LOAD CMakeFiles/dfu_no_serial_nrf52832_xxAA_s132_6.0.0.dir/__/__/mesh/prov/src/prov_provisioner.c.obj
LOAD CMakeFiles/dfu_no_serial_nrf52832_xxAA_s132_6.0.0.dir/__/__/mesh/prov/src/prov_provisionee.c.obj
LOAD CMakeFiles/dfu_no_serial_nrf52832_xxAA_s132_6.0.0.dir/__/__/mesh/prov/src/nrf_mesh_prov.c.obj
LOAD CMakeFiles/dfu_no_serial_nrf52832_xxAA_s132_6.0.0.dir/__/__/mesh/prov/src/provisioning.c.obj
LOAD CMakeFiles/dfu_no_serial_nrf52832_xxAA_s132_6.0.0.dir/__/__/mesh/prov/src/prov_beacon.c.obj
LOAD CMakeFiles/dfu_no_serial_nrf52832_xxAA_s132_6.0.0.dir/__/__/mesh/prov/src/prov_utils.c.obj
LOAD CMakeFiles/dfu_no_serial_nrf52832_xxAA_s132_6.0.0.dir/__/__/mesh/prov/src/prov_bearer_adv.c.obj
LOAD CMakeFiles/dfu_no_serial_nrf52832_xxAA_s132_6.0.0.dir/__/__/mesh/dfu/src/nrf_mesh_dfu.c.obj
LOAD CMakeFiles/dfu_no_serial_nrf52832_xxAA_s132_6.0.0.dir/__/nrf_mesh_weak.c.obj
LOAD CMakeFiles/dfu_no_serial_nrf52832_xxAA_s132_6.0.0.dir/__/common/src/app_error_weak.c.obj
LOAD CMakeFiles/dfu_no_serial_nrf52832_xxAA_s132_6.0.0.dir/__/common/src/assertion_handler_weak.c.obj
LOAD CMakeFiles/dfu_no_serial_nrf52832_xxAA_s132_6.0.0.dir/__/__/mesh/core/src/internal_event.c.obj
LOAD CMakeFiles/dfu_no_serial_nrf52832_xxAA_s132_6.0.0.dir/__/__/mesh/core/src/nrf_mesh_configure.c.obj
LOAD CMakeFiles/dfu_no_serial_nrf52832_xxAA_s132_6.0.0.dir/__/__/mesh/core/src/aes.c.obj
LOAD CMakeFiles/dfu_no_serial_nrf52832_xxAA_s132_6.0.0.dir/__/__/mesh/core/src/msg_cache.c.obj
LOAD CMakeFiles/dfu_no_serial_nrf52832_xxAA_s132_6.0.0.dir/__/__/mesh/core/src/transport.c.obj
LOAD CMakeFiles/dfu_no_serial_nrf52832_xxAA_s132_6.0.0.dir/__/__/mesh/core/src/event.c.obj
LOAD CMakeFiles/dfu_no_serial_nrf52832_xxAA_s132_6.0.0.dir/__/__/mesh/core/src/packet_buffer.c.obj
LOAD CMakeFiles/dfu_no_serial_nrf52832_xxAA_s132_6.0.0.dir/__/__/mesh/core/src/flash_manager_defrag.c.obj
LOAD CMakeFiles/dfu_no_serial_nrf52832_xxAA_s132_6.0.0.dir/__/__/mesh/core/src/fifo.c.obj
LOAD CMakeFiles/dfu_no_serial_nrf52832_xxAA_s132_6.0.0.dir/__/__/mesh/core/src/nrf_flash.c.obj
LOAD CMakeFiles/dfu_no_serial_nrf52832_xxAA_s132_6.0.0.dir/__/__/mesh/core/src/packet_mgr.c.obj
LOAD CMakeFiles/dfu_no_serial_nrf52832_xxAA_s132_6.0.0.dir/__/__/mesh/core/src/net_state.c.obj
LOAD CMakeFiles/dfu_no_serial_nrf52832_xxAA_s132_6.0.0.dir/__/__/mesh/core/src/mesh_flash.c.obj
LOAD CMakeFiles/dfu_no_serial_nrf52832_xxAA_s132_6.0.0.dir/__/__/mesh/core/src/nrf_mesh_utils.c.obj
LOAD CMakeFiles/dfu_no_serial_nrf52832_xxAA_s132_6.0.0.dir/__/__/mesh/core/src/nrf_mesh.c.obj
LOAD CMakeFiles/dfu_no_serial_nrf52832_xxAA_s132_6.0.0.dir/__/__/mesh/core/src/queue.c.obj
LOAD CMakeFiles/dfu_no_serial_nrf52832_xxAA_s132_6.0.0.dir/__/__/mesh/core/src/hal.c.obj
LOAD CMakeFiles/dfu_no_serial_nrf52832_xxAA_s132_6.0.0.dir/__/__/mesh/core/src/aes_cmac.c.obj
LOAD CMakeFiles/dfu_no_serial_nrf52832_xxAA_s132_6.0.0.dir/__/__/mesh/core/src/timer_scheduler.c.obj
LOAD CMakeFiles/dfu_no_serial_nrf52832_xxAA_s132_6.0.0.dir/__/__/mesh/core/src/timer.c.obj
LOAD CMakeFiles/dfu_no_serial_nrf52832_xxAA_s132_6.0.0.dir/__/__/mesh/core/src/ticker.c.obj
LOAD CMakeFiles/dfu_no_serial_nrf52832_xxAA_s132_6.0.0.dir/__/__/mesh/core/src/rand.c.obj
LOAD CMakeFiles/dfu_no_serial_nrf52832_xxAA_s132_6.0.0.dir/__/__/mesh/core/src/nrf_mesh_opt.c.obj
LOAD CMakeFiles/dfu_no_serial_nrf52832_xxAA_s132_6.0.0.dir/__/__/mesh/core/src/timeslot.c.obj
LOAD CMakeFiles/dfu_no_serial_nrf52832_xxAA_s132_6.0.0.dir/__/__/mesh/core/src/bearer_event.c.obj
LOAD CMakeFiles/dfu_no_serial_nrf52832_xxAA_s132_6.0.0.dir/__/__/mesh/core/src/enc.c.obj
LOAD CMakeFiles/dfu_no_serial_nrf52832_xxAA_s132_6.0.0.dir/__/__/mesh/core/src/network.c.obj
LOAD CMakeFiles/dfu_no_serial_nrf52832_xxAA_s132_6.0.0.dir/__/__/mesh/core/src/net_packet.c.obj
LOAD CMakeFiles/dfu_no_serial_nrf52832_xxAA_s132_6.0.0.dir/__/__/mesh/core/src/msqueue.c.obj
LOAD CMakeFiles/dfu_no_serial_nrf52832_xxAA_s132_6.0.0.dir/__/__/mesh/core/src/nrf_mesh_keygen.c.obj
LOAD CMakeFiles/dfu_no_serial_nrf52832_xxAA_s132_6.0.0.dir/__/__/mesh/core/src/cache.c.obj
LOAD CMakeFiles/dfu_no_serial_nrf52832_xxAA_s132_6.0.0.dir/__/__/mesh/core/src/uri.c.obj
LOAD CMakeFiles/dfu_no_serial_nrf52832_xxAA_s132_6.0.0.dir/__/__/mesh/core/src/list.c.obj
LOAD CMakeFiles/dfu_no_serial_nrf52832_xxAA_s132_6.0.0.dir/__/__/mesh/core/src/log.c.obj
LOAD CMakeFiles/dfu_no_serial_nrf52832_xxAA_s132_6.0.0.dir/__/__/mesh/core/src/flash_manager.c.obj
LOAD CMakeFiles/dfu_no_serial_nrf52832_xxAA_s132_6.0.0.dir/__/__/mesh/core/src/ccm_soft.c.obj
LOAD CMakeFiles/dfu_no_serial_nrf52832_xxAA_s132_6.0.0.dir/__/__/mesh/core/src/toolchain.c.obj
LOAD CMakeFiles/dfu_no_serial_nrf52832_xxAA_s132_6.0.0.dir/__/__/mesh/core/src/replay_cache.c.obj
LOAD CMakeFiles/dfu_no_serial_nrf52832_xxAA_s132_6.0.0.dir/__/__/mesh/core/src/beacon.c.obj
LOAD CMakeFiles/dfu_no_serial_nrf52832_xxAA_s132_6.0.0.dir/__/__/mesh/core/src/flash_manager_internal.c.obj
LOAD CMakeFiles/dfu_no_serial_nrf52832_xxAA_s132_6.0.0.dir/__/__/mesh/core/src/core_tx.c.obj
LOAD CMakeFiles/dfu_no_serial_nrf52832_xxAA_s132_6.0.0.dir/__/__/mesh/core/src/heartbeat.c.obj
LOAD CMakeFiles/dfu_no_serial_nrf52832_xxAA_s132_6.0.0.dir/__/__/mesh/core/src/net_beacon.c.obj
LOAD CMakeFiles/dfu_no_serial_nrf52832_xxAA_s132_6.0.0.dir/__/__/mesh/core/src/fsm.c.obj
LOAD CMakeFiles/dfu_no_serial_nrf52832_xxAA_s132_6.0.0.dir/__/__/mesh/core/src/core_tx_adv.c.obj
LOAD CMakeFiles/dfu_no_serial_nrf52832_xxAA_s132_6.0.0.dir/__/__/mesh/bearer/src/ad_listener.c.obj
LOAD CMakeFiles/dfu_no_serial_nrf52832_xxAA_s132_6.0.0.dir/__/__/mesh/bearer/src/ad_type_filter.c.obj
LOAD CMakeFiles/dfu_no_serial_nrf52832_xxAA_s132_6.0.0.dir/__/__/mesh/bearer/src/adv_packet_filter.c.obj
LOAD CMakeFiles/dfu_no_serial_nrf52832_xxAA_s132_6.0.0.dir/__/__/mesh/bearer/src/advertiser.c.obj
LOAD CMakeFiles/dfu_no_serial_nrf52832_xxAA_s132_6.0.0.dir/__/__/mesh/bearer/src/bearer_handler.c.obj
LOAD CMakeFiles/dfu_no_serial_nrf52832_xxAA_s132_6.0.0.dir/__/__/mesh/bearer/src/broadcast.c.obj
LOAD CMakeFiles/dfu_no_serial_nrf52832_xxAA_s132_6.0.0.dir/__/__/mesh/bearer/src/filter_engine.c.obj
LOAD CMakeFiles/dfu_no_serial_nrf52832_xxAA_s132_6.0.0.dir/__/__/mesh/bearer/src/gap_address_filter.c.obj
LOAD CMakeFiles/dfu_no_serial_nrf52832_xxAA_s132_6.0.0.dir/__/__/mesh/bearer/src/radio_config.c.obj
LOAD CMakeFiles/dfu_no_serial_nrf52832_xxAA_s132_6.0.0.dir/__/__/mesh/bearer/src/rssi_filter.c.obj
LOAD CMakeFiles/dfu_no_serial_nrf52832_xxAA_s132_6.0.0.dir/__/__/mesh/bearer/src/scanner.c.obj
LOAD CMakeFiles/dfu_no_serial_nrf52832_xxAA_s132_6.0.0.dir/home/mazzer/work/nordic/sdk/nRF5_SDK_15.0.0/modules/nrfx/mdk/system_nrf52.c.obj
LOAD CMakeFiles/dfu_no_serial_nrf52832_xxAA_s132_6.0.0.dir/home/mazzer/work/nordic/sdk/nRF5_SDK_15.0.0/modules/nrfx/mdk/gcc_startup_nrf52.S.obj
LOAD CMakeFiles/dfu_no_serial_nrf52832_xxAA_s132_6.0.0.dir/home/mazzer/work/nordic/sdk/nRF5_SDK_15.0.0/components/libraries/util/app_error.c.obj
LOAD CMakeFiles/dfu_no_serial_nrf52832_xxAA_s132_6.0.0.dir/home/mazzer/work/nordic/sdk/nRF5_SDK_15.0.0/components/libraries/util/app_error_handler_gcc.c.obj
LOAD ../../external/rtt/librtt_nrf52832_xxAA.a
LOAD ../../external/micro-ecc/libuECC_nrf52832_xxAA.a
START GROUP
LOAD /usr/bin/../lib/gcc/arm-none-eabi/7.2.1/thumb/v7e-m/fpv4-sp/hard/libgcc.a
LOAD /usr/bin/../lib/gcc/arm-none-eabi/7.2.1/../../../../arm-none-eabi/lib/thumb/v7e-m/fpv4-sp/hard/libg_nano.a
LOAD /usr/bin/../lib/gcc/arm-none-eabi/7.2.1/../../../../arm-none-eabi/lib/thumb/v7e-m/fpv4-sp/hard/libc_nano.a
END GROUP
START GROUP
LOAD /usr/bin/../lib/gcc/arm-none-eabi/7.2.1/thumb/v7e-m/fpv4-sp/hard/libgcc.a
LOAD /usr/bin/../lib/gcc/arm-none-eabi/7.2.1/../../../../arm-none-eabi/lib/thumb/v7e-m/fpv4-sp/hard/libc_nano.a
END GROUP
LOAD /usr/bin/../lib/gcc/arm-none-eabi/7.2.1/thumb/v7e-m/fpv4-sp/hard/crtend.o
LOAD /usr/bin/../lib/gcc/arm-none-eabi/7.2.1/thumb/v7e-m/fpv4-sp/hard/crtn.o
START GROUP
LOAD /usr/bin/../lib/gcc/arm-none-eabi/7.2.1/thumb/v7e-m/fpv4-sp/hard/libgcc.a
LOAD /usr/bin/../lib/gcc/arm-none-eabi/7.2.1/../../../../arm-none-eabi/lib/thumb/v7e-m/fpv4-sp/hard/libc.a
LOAD /usr/bin/../lib/gcc/arm-none-eabi/7.2.1/../../../../arm-none-eabi/lib/thumb/v7e-m/fpv4-sp/hard/libnosys.a
END GROUP

.igot.plt       0x0000000020003410        0x0 load address 0x0000000000046120
 .igot.plt      0x0000000020003410        0x0 /usr/bin/../lib/gcc/arm-none-eabi/7.2.1/thumb/v7e-m/fpv4-sp/hard/crtbegin.o
                0x0000000020003410                . = ALIGN (0x4)

.svc_data       0x0000000020003410        0x0
                [!provide]                        PROVIDE (__start_svc_data, .)
 *(.svc_data)
                [!provide]                        PROVIDE (__stop_svc_data, .)

.fs_data        0x0000000020003410        0x0
                [!provide]                        PROVIDE (__start_fs_data, .)
 *(.fs_data)
                [!provide]                        PROVIDE (__stop_fs_data, .)

.log_dynamic_data
                0x0000000020003410        0x0
                [!provide]                        PROVIDE (__start_log_dynamic_data, .)
 *(.log_dynamic_data)
                [!provide]                        PROVIDE (__stop_log_dynamic_data, .)

.cli_sorted_cmd_ptrs
                0x0000000020003410        0x0
                [!provide]                        PROVIDE (__start_cli_sorted_cmd_ptrs, .)
 *(.cli_sorted_cmd_ptrs)
                [!provide]                        PROVIDE (__stop_cli_sorted_cmd_ptrs, .)

.bss            0x0000000020003410     0x34ac load address 0x0000000000046120
                0x0000000020003410                . = ALIGN (0x4)
                0x0000000020003410                __bss_start__ = .
 *(.bss*)
 .bss           0x0000000020003410       0x1c /usr/bin/../lib/gcc/arm-none-eabi/7.2.1/thumb/v7e-m/fpv4-sp/hard/crtbegin.o
 .bss.m_device_provisioned
                0x000000002000342c        0x1 CMakeFiles/dfu_no_serial_nrf52832_xxAA_s132_6.0.0.dir/src/main.c.obj
 *fill*         0x000000002000342d        0x3 
 .bss.m_evt_handler
                0x0000000020003430        0x8 CMakeFiles/dfu_no_serial_nrf52832_xxAA_s132_6.0.0.dir/src/main.c.obj
 .bss.m_health_server
                0x0000000020003438       0x5c CMakeFiles/dfu_no_serial_nrf52832_xxAA_s132_6.0.0.dir/__/__/mesh/stack/src/mesh_stack.c.obj
 .bss.m_init_params
                0x0000000020003494       0x24 CMakeFiles/dfu_no_serial_nrf52832_xxAA_s132_6.0.0.dir/__/__/mesh/stack/src/mesh_stack.c.obj
 .bss.m_device_provisioned
                0x00000000200034b8        0x1 CMakeFiles/dfu_no_serial_nrf52832_xxAA_s132_6.0.0.dir/__/common/src/mesh_provisionee.c.obj
 *fill*         0x00000000200034b9        0x3 
 .bss.m_params  0x00000000200034bc        0xc CMakeFiles/dfu_no_serial_nrf52832_xxAA_s132_6.0.0.dir/__/common/src/mesh_provisionee.c.obj
 .bss.m_private_key
                0x00000000200034c8       0x20 CMakeFiles/dfu_no_serial_nrf52832_xxAA_s132_6.0.0.dir/__/common/src/mesh_provisionee.c.obj
 .bss.m_prov_bearer_adv
                0x00000000200034e8      0x1c4 CMakeFiles/dfu_no_serial_nrf52832_xxAA_s132_6.0.0.dir/__/common/src/mesh_provisionee.c.obj
 .bss.m_prov_ctx
                0x00000000200036ac      0x134 CMakeFiles/dfu_no_serial_nrf52832_xxAA_s132_6.0.0.dir/__/common/src/mesh_provisionee.c.obj
 .bss.m_public_key
                0x00000000200037e0       0x40 CMakeFiles/dfu_no_serial_nrf52832_xxAA_s132_6.0.0.dir/__/common/src/mesh_provisionee.c.obj
 .bss.m_button_handler_cb
                0x0000000020003820        0x4 CMakeFiles/dfu_no_serial_nrf52832_xxAA_s132_6.0.0.dir/__/common/src/simple_hal.c.obj
 .bss.m_last_button_press
                0x0000000020003824        0x4 CMakeFiles/dfu_no_serial_nrf52832_xxAA_s132_6.0.0.dir/__/common/src/simple_hal.c.obj
 .bss.m_publish_timer
                0x0000000020003828       0x18 CMakeFiles/dfu_no_serial_nrf52832_xxAA_s132_6.0.0.dir/__/__/mesh/access/src/access_publish.c.obj
 .bss.m_publish_timer_counter
                0x0000000020003840        0x4 CMakeFiles/dfu_no_serial_nrf52832_xxAA_s132_6.0.0.dir/__/__/mesh/access/src/access_publish.c.obj
 .bss.m_publish_timer_running
                0x0000000020003844        0x1 CMakeFiles/dfu_no_serial_nrf52832_xxAA_s132_6.0.0.dir/__/__/mesh/access/src/access_publish.c.obj
 .bss.m_timer_resolution
                0x0000000020003845        0x1 CMakeFiles/dfu_no_serial_nrf52832_xxAA_s132_6.0.0.dir/__/__/mesh/access/src/access_publish.c.obj
 *fill*         0x0000000020003846        0x2 
 .bss.mp_publication_list
                0x0000000020003848        0x4 CMakeFiles/dfu_no_serial_nrf52832_xxAA_s132_6.0.0.dir/__/__/mesh/access/src/access_publish.c.obj
 .bss.m_element_pool
                0x000000002000384c        0x6 CMakeFiles/dfu_no_serial_nrf52832_xxAA_s132_6.0.0.dir/__/__/mesh/access/src/access.c.obj
 *fill*         0x0000000020003852        0x2 
 .bss.m_evt_handler
                0x0000000020003854        0x8 CMakeFiles/dfu_no_serial_nrf52832_xxAA_s132_6.0.0.dir/__/__/mesh/access/src/access.c.obj
 .bss.m_flash_manager
                0x000000002000385c       0x24 CMakeFiles/dfu_no_serial_nrf52832_xxAA_s132_6.0.0.dir/__/__/mesh/access/src/access.c.obj
 .bss.m_flash_not_ready
                0x0000000020003880        0x1 CMakeFiles/dfu_no_serial_nrf52832_xxAA_s132_6.0.0.dir/__/__/mesh/access/src/access.c.obj
 .bss.m_metadata_stored
                0x0000000020003881        0x1 CMakeFiles/dfu_no_serial_nrf52832_xxAA_s132_6.0.0.dir/__/__/mesh/access/src/access.c.obj
 *fill*         0x0000000020003882        0x2 
 .bss.m_model_pool
                0x0000000020003884       0x68 CMakeFiles/dfu_no_serial_nrf52832_xxAA_s132_6.0.0.dir/__/__/mesh/access/src/access.c.obj
 .bss.m_subscription_list_pool
                0x00000000200038ec       0x10 CMakeFiles/dfu_no_serial_nrf52832_xxAA_s132_6.0.0.dir/__/__/mesh/access/src/access.c.obj
 .bss.m_reliable
                0x00000000200038fc       0x74 CMakeFiles/dfu_no_serial_nrf52832_xxAA_s132_6.0.0.dir/__/__/mesh/access/src/access_reliable.c.obj
 .bss.m_addr_nonvirtual_allocated
                0x0000000020003970        0x4 CMakeFiles/dfu_no_serial_nrf52832_xxAA_s132_6.0.0.dir/__/__/mesh/access/src/device_state_manager.c.obj
 .bss.m_addr_nonvirtual_needs_flashing
                0x0000000020003974        0x4 CMakeFiles/dfu_no_serial_nrf52832_xxAA_s132_6.0.0.dir/__/__/mesh/access/src/device_state_manager.c.obj
 .bss.m_addr_unicast_allocated
                0x0000000020003978        0x4 CMakeFiles/dfu_no_serial_nrf52832_xxAA_s132_6.0.0.dir/__/__/mesh/access/src/device_state_manager.c.obj
 .bss.m_addr_unicast_needs_flashing
                0x000000002000397c        0x4 CMakeFiles/dfu_no_serial_nrf52832_xxAA_s132_6.0.0.dir/__/__/mesh/access/src/device_state_manager.c.obj
 .bss.m_addr_virtual_allocated
                0x0000000020003980        0x4 CMakeFiles/dfu_no_serial_nrf52832_xxAA_s132_6.0.0.dir/__/__/mesh/access/src/device_state_manager.c.obj
 .bss.m_addr_virtual_needs_flashing
                0x0000000020003984        0x4 CMakeFiles/dfu_no_serial_nrf52832_xxAA_s132_6.0.0.dir/__/__/mesh/access/src/device_state_manager.c.obj
 .bss.m_addresses
                0x0000000020003988       0x40 CMakeFiles/dfu_no_serial_nrf52832_xxAA_s132_6.0.0.dir/__/__/mesh/access/src/device_state_manager.c.obj
 .bss.m_appkey_allocated
                0x00000000200039c8        0x4 CMakeFiles/dfu_no_serial_nrf52832_xxAA_s132_6.0.0.dir/__/__/mesh/access/src/device_state_manager.c.obj
 .bss.m_appkey_needs_flashing
                0x00000000200039cc        0x4 CMakeFiles/dfu_no_serial_nrf52832_xxAA_s132_6.0.0.dir/__/__/mesh/access/src/device_state_manager.c.obj
 .bss.m_appkeys
                0x00000000200039d0      0x150 CMakeFiles/dfu_no_serial_nrf52832_xxAA_s132_6.0.0.dir/__/__/mesh/access/src/device_state_manager.c.obj
 .bss.m_devkey_allocated
                0x0000000020003b20        0x4 CMakeFiles/dfu_no_serial_nrf52832_xxAA_s132_6.0.0.dir/__/__/mesh/access/src/device_state_manager.c.obj
 .bss.m_devkey_needs_flashing
                0x0000000020003b24        0x4 CMakeFiles/dfu_no_serial_nrf52832_xxAA_s132_6.0.0.dir/__/__/mesh/access/src/device_state_manager.c.obj
 .bss.m_devkeys
                0x0000000020003b28       0x16 CMakeFiles/dfu_no_serial_nrf52832_xxAA_s132_6.0.0.dir/__/__/mesh/access/src/device_state_manager.c.obj
 .bss.m_flash_is_available
                0x0000000020003b3e        0x1 CMakeFiles/dfu_no_serial_nrf52832_xxAA_s132_6.0.0.dir/__/__/mesh/access/src/device_state_manager.c.obj
 *fill*         0x0000000020003b3f        0x1 
 .bss.m_flash_manager
                0x0000000020003b40       0x24 CMakeFiles/dfu_no_serial_nrf52832_xxAA_s132_6.0.0.dir/__/__/mesh/access/src/device_state_manager.c.obj
 .bss.m_flash_mem_listener_update_all
                0x0000000020003b64       0x10 CMakeFiles/dfu_no_serial_nrf52832_xxAA_s132_6.0.0.dir/__/__/mesh/access/src/device_state_manager.c.obj
 .bss.m_has_primary_subnet
                0x0000000020003b74        0x1 CMakeFiles/dfu_no_serial_nrf52832_xxAA_s132_6.0.0.dir/__/__/mesh/access/src/device_state_manager.c.obj
 *fill*         0x0000000020003b75        0x3 
 .bss.m_local_unicast_addr
                0x0000000020003b78        0x4 CMakeFiles/dfu_no_serial_nrf52832_xxAA_s132_6.0.0.dir/__/__/mesh/access/src/device_state_manager.c.obj
 .bss.m_mesh_evt_handler
                0x0000000020003b7c        0x8 CMakeFiles/dfu_no_serial_nrf52832_xxAA_s132_6.0.0.dir/__/__/mesh/access/src/device_state_manager.c.obj
 .bss.m_subnet_allocated
                0x0000000020003b84        0x4 CMakeFiles/dfu_no_serial_nrf52832_xxAA_s132_6.0.0.dir/__/__/mesh/access/src/device_state_manager.c.obj
 .bss.m_subnet_needs_flashing
                0x0000000020003b88        0x4 CMakeFiles/dfu_no_serial_nrf52832_xxAA_s132_6.0.0.dir/__/__/mesh/access/src/device_state_manager.c.obj
 .bss.m_subnets
                0x0000000020003b8c      0x2a0 CMakeFiles/dfu_no_serial_nrf52832_xxAA_s132_6.0.0.dir/__/__/mesh/access/src/device_state_manager.c.obj
 .bss.m_virtual_addresses
                0x0000000020003e2c       0xa0 CMakeFiles/dfu_no_serial_nrf52832_xxAA_s132_6.0.0.dir/__/__/mesh/access/src/device_state_manager.c.obj
 .bss.m_evt_cb  0x0000000020003ecc        0x4 CMakeFiles/dfu_no_serial_nrf52832_xxAA_s132_6.0.0.dir/__/__/models/config/src/config_server.c.obj
 .bss.m_heartbeat_publication
                0x0000000020003ed0       0x14 CMakeFiles/dfu_no_serial_nrf52832_xxAA_s132_6.0.0.dir/__/__/models/config/src/config_server.c.obj
 .bss.m_node_reset_pending
                0x0000000020003ee4        0x1 CMakeFiles/dfu_no_serial_nrf52832_xxAA_s132_6.0.0.dir/__/__/models/config/src/config_server.c.obj
 *fill*         0x0000000020003ee5        0x3 
 .bss.m_attention_timer
                0x0000000020003ee8       0x18 CMakeFiles/dfu_no_serial_nrf52832_xxAA_s132_6.0.0.dir/__/__/models/health/src/health_server.c.obj
 .bss.mp_attention_list
                0x0000000020003f00        0x4 CMakeFiles/dfu_no_serial_nrf52832_xxAA_s132_6.0.0.dir/__/__/models/health/src/health_server.c.obj
 .bss.m_event_handler
                0x0000000020003f04        0x4 CMakeFiles/dfu_no_serial_nrf52832_xxAA_s132_6.0.0.dir/__/__/mesh/prov/src/prov_beacon.c.obj
 .bss.m_offload_ecdh
                0x0000000020003f08        0x1 CMakeFiles/dfu_no_serial_nrf52832_xxAA_s132_6.0.0.dir/__/__/mesh/prov/src/prov_utils.c.obj
 *fill*         0x0000000020003f09        0x3 
 .bss.mp_bearer_head
                0x0000000020003f0c        0x4 CMakeFiles/dfu_no_serial_nrf52832_xxAA_s132_6.0.0.dir/__/__/mesh/prov/src/prov_bearer_adv.c.obj
 .bss.m_adv_packet
                0x0000000020003f10       0x28 CMakeFiles/dfu_no_serial_nrf52832_xxAA_s132_6.0.0.dir/__/__/mesh/dfu/src/nrf_mesh_dfu.c.obj
 .bss.m_broadcast
                0x0000000020003f38       0x38 CMakeFiles/dfu_no_serial_nrf52832_xxAA_s132_6.0.0.dir/__/__/mesh/dfu/src/nrf_mesh_dfu.c.obj
 .bss.m_prng    0x0000000020003f70       0x10 CMakeFiles/dfu_no_serial_nrf52832_xxAA_s132_6.0.0.dir/__/__/mesh/dfu/src/nrf_mesh_dfu.c.obj
 .bss.m_timer_evt
                0x0000000020003f80       0x18 CMakeFiles/dfu_no_serial_nrf52832_xxAA_s132_6.0.0.dir/__/__/mesh/dfu/src/nrf_mesh_dfu.c.obj
 .bss.m_transfer_state
                0x0000000020003f98       0x12 CMakeFiles/dfu_no_serial_nrf52832_xxAA_s132_6.0.0.dir/__/__/mesh/dfu/src/nrf_mesh_dfu.c.obj
 *fill*         0x0000000020003faa        0x2 
 .bss.m_tx_slots
                0x0000000020003fac      0x120 CMakeFiles/dfu_no_serial_nrf52832_xxAA_s132_6.0.0.dir/__/__/mesh/dfu/src/nrf_mesh_dfu.c.obj
 .bss.m_tx_timer_evt
                0x00000000200040cc       0x18 CMakeFiles/dfu_no_serial_nrf52832_xxAA_s132_6.0.0.dir/__/__/mesh/dfu/src/nrf_mesh_dfu.c.obj
 .bss.mp_curr_fwid
                0x00000000200040e4        0x4 CMakeFiles/dfu_no_serial_nrf52832_xxAA_s132_6.0.0.dir/__/__/mesh/dfu/src/nrf_mesh_dfu.c.obj
 .bss.m_uuid    0x00000000200040e8       0x10 CMakeFiles/dfu_no_serial_nrf52832_xxAA_s132_6.0.0.dir/__/__/mesh/core/src/nrf_mesh_configure.c.obj
 .bss.m_msg_cache
                0x00000000200040f8      0x100 CMakeFiles/dfu_no_serial_nrf52832_xxAA_s132_6.0.0.dir/__/__/mesh/core/src/msg_cache.c.obj
 .bss.m_msg_cache_head
                0x00000000200041f8        0x4 CMakeFiles/dfu_no_serial_nrf52832_xxAA_s132_6.0.0.dir/__/__/mesh/core/src/msg_cache.c.obj
 .bss.m_control_packet_consumer_count
                0x00000000200041fc        0x4 CMakeFiles/dfu_no_serial_nrf52832_xxAA_s132_6.0.0.dir/__/__/mesh/core/src/transport.c.obj
 .bss.m_control_packet_consumers
                0x0000000020004200        0x8 CMakeFiles/dfu_no_serial_nrf52832_xxAA_s132_6.0.0.dir/__/__/mesh/core/src/transport.c.obj
 .bss.m_sar_alloc
                0x0000000020004208        0x4 CMakeFiles/dfu_no_serial_nrf52832_xxAA_s132_6.0.0.dir/__/__/mesh/core/src/transport.c.obj
 .bss.m_sar_process_flag
                0x000000002000420c        0x4 CMakeFiles/dfu_no_serial_nrf52832_xxAA_s132_6.0.0.dir/__/__/mesh/core/src/transport.c.obj
 .bss.m_sar_release
                0x0000000020004210        0x4 CMakeFiles/dfu_no_serial_nrf52832_xxAA_s132_6.0.0.dir/__/__/mesh/core/src/transport.c.obj
 .bss.m_sar_session_cache
                0x0000000020004214       0x40 CMakeFiles/dfu_no_serial_nrf52832_xxAA_s132_6.0.0.dir/__/__/mesh/core/src/transport.c.obj
 .bss.m_sar_session_cache_head
                0x0000000020004254        0x4 CMakeFiles/dfu_no_serial_nrf52832_xxAA_s132_6.0.0.dir/__/__/mesh/core/src/transport.c.obj
 .bss.m_trs_config
                0x0000000020004258       0x18 CMakeFiles/dfu_no_serial_nrf52832_xxAA_s132_6.0.0.dir/__/__/mesh/core/src/transport.c.obj
 .bss.m_trs_sar_sessions
                0x0000000020004270      0x1b0 CMakeFiles/dfu_no_serial_nrf52832_xxAA_s132_6.0.0.dir/__/__/mesh/core/src/transport.c.obj
 .bss.mp_evt_handlers_head
                0x0000000020004420        0x4 CMakeFiles/dfu_no_serial_nrf52832_xxAA_s132_6.0.0.dir/__/__/mesh/core/src/event.c.obj
 .bss.m_defrag  0x0000000020004424       0x1c CMakeFiles/dfu_no_serial_nrf52832_xxAA_s132_6.0.0.dir/__/__/mesh/core/src/flash_manager_defrag.c.obj
 .bss.m_token   0x0000000020004440        0x2 CMakeFiles/dfu_no_serial_nrf52832_xxAA_s132_6.0.0.dir/__/__/mesh/core/src/flash_manager_defrag.c.obj
 *fill*         0x0000000020004442        0x2 
 .bss.mp_recovery_area
                0x0000000020004444        0x4 CMakeFiles/dfu_no_serial_nrf52832_xxAA_s132_6.0.0.dir/__/__/mesh/core/src/flash_manager_defrag.c.obj
 .bss.p_null_ptr.10402
                0x0000000020004448        0x4 CMakeFiles/dfu_no_serial_nrf52832_xxAA_s132_6.0.0.dir/__/__/mesh/core/src/flash_manager_defrag.c.obj
 .bss.m_pool    0x000000002000444c     0x1000 CMakeFiles/dfu_no_serial_nrf52832_xxAA_s132_6.0.0.dir/__/__/mesh/core/src/packet_mgr.c.obj
 .bss.mp_free_head
                0x000000002000544c        0x4 CMakeFiles/dfu_no_serial_nrf52832_xxAA_s132_6.0.0.dir/__/__/mesh/core/src/packet_mgr.c.obj
 .bss.iv_state_set.10057
                0x0000000020005450        0x1 CMakeFiles/dfu_no_serial_nrf52832_xxAA_s132_6.0.0.dir/__/__/mesh/core/src/net_state.c.obj
 *fill*         0x0000000020005451        0x3 
 .bss.lock_count.10033
                0x0000000020005454        0x4 CMakeFiles/dfu_no_serial_nrf52832_xxAA_s132_6.0.0.dir/__/__/mesh/core/src/net_state.c.obj
 .bss.m_flash_manager
                0x0000000020005458       0x24 CMakeFiles/dfu_no_serial_nrf52832_xxAA_s132_6.0.0.dir/__/__/mesh/core/src/net_state.c.obj
 .bss.m_iv_update_timer
                0x000000002000547c       0x18 CMakeFiles/dfu_no_serial_nrf52832_xxAA_s132_6.0.0.dir/__/__/mesh/core/src/net_state.c.obj
 .bss.m_mesh_evt_handler
                0x0000000020005494        0x8 CMakeFiles/dfu_no_serial_nrf52832_xxAA_s132_6.0.0.dir/__/__/mesh/core/src/net_state.c.obj
 .bss.m_net_state
                0x000000002000549c       0x14 CMakeFiles/dfu_no_serial_nrf52832_xxAA_s132_6.0.0.dir/__/__/mesh/core/src/net_state.c.obj
 .bss.m_seqnum_allocation_in_progress
                0x00000000200054b0        0x1 CMakeFiles/dfu_no_serial_nrf52832_xxAA_s132_6.0.0.dir/__/__/mesh/core/src/net_state.c.obj
 .bss.m_test_mode
                0x00000000200054b1        0x1 CMakeFiles/dfu_no_serial_nrf52832_xxAA_s132_6.0.0.dir/__/__/mesh/core/src/net_state.c.obj
 *fill*         0x00000000200054b2        0x2 
 .bss.m_event_flag
                0x00000000200054b4        0x4 CMakeFiles/dfu_no_serial_nrf52832_xxAA_s132_6.0.0.dir/__/__/mesh/core/src/mesh_flash.c.obj
 .bss.m_suspended
                0x00000000200054b8        0x1 CMakeFiles/dfu_no_serial_nrf52832_xxAA_s132_6.0.0.dir/__/__/mesh/core/src/mesh_flash.c.obj
 *fill*         0x00000000200054b9        0x3 
 .bss.m_users   0x00000000200054bc      0x228 CMakeFiles/dfu_no_serial_nrf52832_xxAA_s132_6.0.0.dir/__/__/mesh/core/src/mesh_flash.c.obj
 .bss.suspend_count.10284
                0x00000000200056e4        0x4 CMakeFiles/dfu_no_serial_nrf52832_xxAA_s132_6.0.0.dir/__/__/mesh/core/src/mesh_flash.c.obj
 .bss.m_is_enabled
                0x00000000200056e8        0x1 CMakeFiles/dfu_no_serial_nrf52832_xxAA_s132_6.0.0.dir/__/__/mesh/core/src/nrf_mesh.c.obj
 .bss.m_is_initialized
                0x00000000200056e9        0x1 CMakeFiles/dfu_no_serial_nrf52832_xxAA_s132_6.0.0.dir/__/__/mesh/core/src/nrf_mesh.c.obj
 *fill*         0x00000000200056ea        0x2 
 .bss.m_rx_cb   0x00000000200056ec        0x4 CMakeFiles/dfu_no_serial_nrf52832_xxAA_s132_6.0.0.dir/__/__/mesh/core/src/nrf_mesh.c.obj
 .bss.m_128buf  0x00000000200056f0       0x10 CMakeFiles/dfu_no_serial_nrf52832_xxAA_s132_6.0.0.dir/__/__/mesh/core/src/aes_cmac.c.obj
 .bss.m_subkey1
                0x0000000020005700       0x10 CMakeFiles/dfu_no_serial_nrf52832_xxAA_s132_6.0.0.dir/__/__/mesh/core/src/aes_cmac.c.obj
 .bss.m_subkey2
                0x0000000020005710       0x10 CMakeFiles/dfu_no_serial_nrf52832_xxAA_s132_6.0.0.dir/__/__/mesh/core/src/aes_cmac.c.obj
 .bss.m_event_flag
                0x0000000020005720        0x4 CMakeFiles/dfu_no_serial_nrf52832_xxAA_s132_6.0.0.dir/__/__/mesh/core/src/timer_scheduler.c.obj
 .bss.m_scheduler
                0x0000000020005724       0x10 CMakeFiles/dfu_no_serial_nrf52832_xxAA_s132_6.0.0.dir/__/__/mesh/core/src/timer_scheduler.c.obj
 .bss.m_attributes
                0x0000000020005734        0x3 CMakeFiles/dfu_no_serial_nrf52832_xxAA_s132_6.0.0.dir/__/__/mesh/core/src/timer.c.obj
 *fill*         0x0000000020005737        0x1 
 .bss.m_callbacks
                0x0000000020005738        0xc CMakeFiles/dfu_no_serial_nrf52832_xxAA_s132_6.0.0.dir/__/__/mesh/core/src/timer.c.obj
 .bss.m_is_in_ts
                0x0000000020005744        0x1 CMakeFiles/dfu_no_serial_nrf52832_xxAA_s132_6.0.0.dir/__/__/mesh/core/src/timer.c.obj
 *fill*         0x0000000020005745        0x3 
 .bss.m_reference_time
                0x0000000020005748        0x4 CMakeFiles/dfu_no_serial_nrf52832_xxAA_s132_6.0.0.dir/__/__/mesh/core/src/timer.c.obj
 .bss.m_timeouts
                0x000000002000574c        0xc CMakeFiles/dfu_no_serial_nrf52832_xxAA_s132_6.0.0.dir/__/__/mesh/core/src/timer.c.obj
 .bss.m_timer_mut
                0x0000000020005758        0x4 CMakeFiles/dfu_no_serial_nrf52832_xxAA_s132_6.0.0.dir/__/__/mesh/core/src/timer.c.obj
 .bss.m_ts_end_time
                0x000000002000575c        0x4 CMakeFiles/dfu_no_serial_nrf52832_xxAA_s132_6.0.0.dir/__/__/mesh/core/src/timer.c.obj
 .bss.mp_ppi_tasks
                0x0000000020005760        0xc CMakeFiles/dfu_no_serial_nrf52832_xxAA_s132_6.0.0.dir/__/__/mesh/core/src/timer.c.obj
 .bss.m_current_time
                0x000000002000576c        0x4 CMakeFiles/dfu_no_serial_nrf52832_xxAA_s132_6.0.0.dir/__/__/mesh/core/src/ticker.c.obj
 .bss.m_timer   0x0000000020005770       0x18 CMakeFiles/dfu_no_serial_nrf52832_xxAA_s132_6.0.0.dir/__/__/mesh/core/src/ticker.c.obj
 .bss.m_current_timeslot
                0x0000000020005788       0x1c CMakeFiles/dfu_no_serial_nrf52832_xxAA_s132_6.0.0.dir/__/__/mesh/core/src/timeslot.c.obj
 .bss.m_lfclk_ppm
                0x00000000200057a4        0x4 CMakeFiles/dfu_no_serial_nrf52832_xxAA_s132_6.0.0.dir/__/__/mesh/core/src/timeslot.c.obj
 .bss.m_radio_request_earliest
                0x00000000200057a8       0x10 CMakeFiles/dfu_no_serial_nrf52832_xxAA_s132_6.0.0.dir/__/__/mesh/core/src/timeslot.c.obj
 .bss.m_state_lock
                0x00000000200057b8        0x1 CMakeFiles/dfu_no_serial_nrf52832_xxAA_s132_6.0.0.dir/__/__/mesh/core/src/timeslot.c.obj
 .bss.m_timeslot_forced_command
                0x00000000200057b9        0x1 CMakeFiles/dfu_no_serial_nrf52832_xxAA_s132_6.0.0.dir/__/__/mesh/core/src/timeslot.c.obj
 *fill*         0x00000000200057ba        0x6 
 .bss.s_last_rtc_value.9460
                0x00000000200057c0        0x8 CMakeFiles/dfu_no_serial_nrf52832_xxAA_s132_6.0.0.dir/__/__/mesh/core/src/timeslot.c.obj
 .bss.m_bearer_event_fifo
                0x00000000200057c8       0x14 CMakeFiles/dfu_no_serial_nrf52832_xxAA_s132_6.0.0.dir/__/__/mesh/core/src/bearer_event.c.obj
 .bss.m_bearer_event_fifo_buffer
                0x00000000200057dc      0x100 CMakeFiles/dfu_no_serial_nrf52832_xxAA_s132_6.0.0.dir/__/__/mesh/core/src/bearer_event.c.obj
 .bss.m_critical
                0x00000000200058dc        0x4 CMakeFiles/dfu_no_serial_nrf52832_xxAA_s132_6.0.0.dir/__/__/mesh/core/src/bearer_event.c.obj
 .bss.m_flag_count
                0x00000000200058e0        0x4 CMakeFiles/dfu_no_serial_nrf52832_xxAA_s132_6.0.0.dir/__/__/mesh/core/src/bearer_event.c.obj
 .bss.m_flag_event_callbacks
                0x00000000200058e4       0x20 CMakeFiles/dfu_no_serial_nrf52832_xxAA_s132_6.0.0.dir/__/__/mesh/core/src/bearer_event.c.obj
 .bss.m_flags   0x0000000020005904        0x4 CMakeFiles/dfu_no_serial_nrf52832_xxAA_s132_6.0.0.dir/__/__/mesh/core/src/bearer_event.c.obj
 .bss.m_irq_priority
                0x0000000020005908        0x1 CMakeFiles/dfu_no_serial_nrf52832_xxAA_s132_6.0.0.dir/__/__/mesh/core/src/bearer_event.c.obj
 *fill*         0x0000000020005909        0x3 
 .bss.m_sequential_event_queue
                0x000000002000590c        0x8 CMakeFiles/dfu_no_serial_nrf52832_xxAA_s132_6.0.0.dir/__/__/mesh/core/src/bearer_event.c.obj
 .bss.s_recursion_guard.9591
                0x0000000020005914        0x1 CMakeFiles/dfu_no_serial_nrf52832_xxAA_s132_6.0.0.dir/__/__/mesh/core/src/bearer_event.c.obj
 *fill*         0x0000000020005915        0x3 
 .bss.m_relay_check_cb
                0x0000000020005918        0x4 CMakeFiles/dfu_no_serial_nrf52832_xxAA_s132_6.0.0.dir/__/__/mesh/core/src/network.c.obj
 .bss.m_relay_enable
                0x000000002000591c        0x1 CMakeFiles/dfu_no_serial_nrf52832_xxAA_s132_6.0.0.dir/__/__/mesh/core/src/network.c.obj
 *fill*         0x000000002000591d        0x3 
 .bss.m_action_queue
                0x0000000020005920        0xc CMakeFiles/dfu_no_serial_nrf52832_xxAA_s132_6.0.0.dir/__/__/mesh/core/src/flash_manager.c.obj
 .bss.m_action_queue_buffer
                0x000000002000592c      0x104 CMakeFiles/dfu_no_serial_nrf52832_xxAA_s132_6.0.0.dir/__/__/mesh/core/src/flash_manager.c.obj
 .bss.m_action_state
                0x0000000020005a30        0x1 CMakeFiles/dfu_no_serial_nrf52832_xxAA_s132_6.0.0.dir/__/__/mesh/core/src/flash_manager.c.obj
 *fill*         0x0000000020005a31        0x3 
 .bss.m_memory_listener_queue
                0x0000000020005a34        0x8 CMakeFiles/dfu_no_serial_nrf52832_xxAA_s132_6.0.0.dir/__/__/mesh/core/src/flash_manager.c.obj
 .bss.m_processing_flag
                0x0000000020005a3c        0x4 CMakeFiles/dfu_no_serial_nrf52832_xxAA_s132_6.0.0.dir/__/__/mesh/core/src/flash_manager.c.obj
 .bss.m_queue_empty_cb
                0x0000000020005a40        0x4 CMakeFiles/dfu_no_serial_nrf52832_xxAA_s132_6.0.0.dir/__/__/mesh/core/src/flash_manager.c.obj
 .bss.m_state   0x0000000020005a44        0x1 CMakeFiles/dfu_no_serial_nrf52832_xxAA_s132_6.0.0.dir/__/__/mesh/core/src/flash_manager.c.obj
 *fill*         0x0000000020005a45        0x1 
 .bss.m_token   0x0000000020005a46        0x2 CMakeFiles/dfu_no_serial_nrf52832_xxAA_s132_6.0.0.dir/__/__/mesh/core/src/flash_manager.c.obj
 .bss.p_current.11346
                0x0000000020005a48        0x4 CMakeFiles/dfu_no_serial_nrf52832_xxAA_s132_6.0.0.dir/__/__/mesh/core/src/flash_manager.c.obj
 .bss.result.11347
                0x0000000020005a4c        0x1 CMakeFiles/dfu_no_serial_nrf52832_xxAA_s132_6.0.0.dir/__/__/mesh/core/src/flash_manager.c.obj
 .bss.m_cache_index
                0x0000000020005a4d        0x1 CMakeFiles/dfu_no_serial_nrf52832_xxAA_s132_6.0.0.dir/__/__/mesh/core/src/replay_cache.c.obj
 *fill*         0x0000000020005a4e        0x2 
 .bss.m_replay_cache
                0x0000000020005a50      0x200 CMakeFiles/dfu_no_serial_nrf52832_xxAA_s132_6.0.0.dir/__/__/mesh/core/src/replay_cache.c.obj
 .bss.m_bearer_count
                0x0000000020005c50        0x1 CMakeFiles/dfu_no_serial_nrf52832_xxAA_s132_6.0.0.dir/__/__/mesh/core/src/core_tx.c.obj
 *fill*         0x0000000020005c51        0x3 
 .bss.m_tx_complete_callback
                0x0000000020005c54        0x4 CMakeFiles/dfu_no_serial_nrf52832_xxAA_s132_6.0.0.dir/__/__/mesh/core/src/core_tx.c.obj
 .bss.mp_bearers
                0x0000000020005c58        0x4 CMakeFiles/dfu_no_serial_nrf52832_xxAA_s132_6.0.0.dir/__/__/mesh/core/src/core_tx.c.obj
 .bss.m_hb_core_evt_handler
                0x0000000020005c5c        0x8 CMakeFiles/dfu_no_serial_nrf52832_xxAA_s132_6.0.0.dir/__/__/mesh/core/src/heartbeat.c.obj
 .bss.m_hb_pending_feat_msg
                0x0000000020005c64        0x1 CMakeFiles/dfu_no_serial_nrf52832_xxAA_s132_6.0.0.dir/__/__/mesh/core/src/heartbeat.c.obj
 .bss.m_hb_pending_pub_msg
                0x0000000020005c65        0x1 CMakeFiles/dfu_no_serial_nrf52832_xxAA_s132_6.0.0.dir/__/__/mesh/core/src/heartbeat.c.obj
 .bss.m_heartbeat_init_done
                0x0000000020005c66        0x1 CMakeFiles/dfu_no_serial_nrf52832_xxAA_s132_6.0.0.dir/__/__/mesh/core/src/heartbeat.c.obj
 *fill*         0x0000000020005c67        0x1 
 .bss.m_heartbeat_subscription
                0x0000000020005c68       0x10 CMakeFiles/dfu_no_serial_nrf52832_xxAA_s132_6.0.0.dir/__/__/mesh/core/src/heartbeat.c.obj
 .bss.m_publication_count_decrement_cb
                0x0000000020005c78        0x4 CMakeFiles/dfu_no_serial_nrf52832_xxAA_s132_6.0.0.dir/__/__/mesh/core/src/heartbeat.c.obj
 .bss.m_publication_get_cb
                0x0000000020005c7c        0x4 CMakeFiles/dfu_no_serial_nrf52832_xxAA_s132_6.0.0.dir/__/__/mesh/core/src/heartbeat.c.obj
 .bss.m_publication_timer
                0x0000000020005c80       0x1c CMakeFiles/dfu_no_serial_nrf52832_xxAA_s132_6.0.0.dir/__/__/mesh/core/src/heartbeat.c.obj
 .bss.m_subscription_timer
                0x0000000020005c9c       0x18 CMakeFiles/dfu_no_serial_nrf52832_xxAA_s132_6.0.0.dir/__/__/mesh/core/src/heartbeat.c.obj
 .bss.m_adv     0x0000000020005cb4       0x98 CMakeFiles/dfu_no_serial_nrf52832_xxAA_s132_6.0.0.dir/__/__/mesh/core/src/net_beacon.c.obj
 .bss.m_adv_buf
                0x0000000020005d4c       0x34 CMakeFiles/dfu_no_serial_nrf52832_xxAA_s132_6.0.0.dir/__/__/mesh/core/src/net_beacon.c.obj
 .bss.m_beacon_salt
                0x0000000020005d80       0x10 CMakeFiles/dfu_no_serial_nrf52832_xxAA_s132_6.0.0.dir/__/__/mesh/core/src/net_beacon.c.obj
 .bss.m_enabled
                0x0000000020005d90        0x1 CMakeFiles/dfu_no_serial_nrf52832_xxAA_s132_6.0.0.dir/__/__/mesh/core/src/net_beacon.c.obj
 *fill*         0x0000000020005d91        0x3 
 .bss.m_tx_timer
                0x0000000020005d94       0x18 CMakeFiles/dfu_no_serial_nrf52832_xxAA_s132_6.0.0.dir/__/__/mesh/core/src/net_beacon.c.obj
 .bss.mp_beacon_info
                0x0000000020005dac        0x4 CMakeFiles/dfu_no_serial_nrf52832_xxAA_s132_6.0.0.dir/__/__/mesh/core/src/net_beacon.c.obj
 .bss.m_bearer  0x0000000020005db0        0xc CMakeFiles/dfu_no_serial_nrf52832_xxAA_s132_6.0.0.dir/__/__/mesh/core/src/core_tx_adv.c.obj
 .bss.m_bearer_roles
                0x0000000020005dbc      0x138 CMakeFiles/dfu_no_serial_nrf52832_xxAA_s132_6.0.0.dir/__/__/mesh/core/src/core_tx_adv.c.obj
 .bss.m_current_alloc
                0x0000000020005ef4        0x8 CMakeFiles/dfu_no_serial_nrf52832_xxAA_s132_6.0.0.dir/__/__/mesh/core/src/core_tx_adv.c.obj
 .bss.m_originator_adv_packet_buffer
                0x0000000020005efc      0x100 CMakeFiles/dfu_no_serial_nrf52832_xxAA_s132_6.0.0.dir/__/__/mesh/core/src/core_tx_adv.c.obj
 .bss.m_relay_adv_packet_buffer
                0x0000000020005ffc       0x80 CMakeFiles/dfu_no_serial_nrf52832_xxAA_s132_6.0.0.dir/__/__/mesh/core/src/core_tx_adv.c.obj
 .bss.m_subscribers
                0x000000002000607c        0x4 CMakeFiles/dfu_no_serial_nrf52832_xxAA_s132_6.0.0.dir/__/__/mesh/bearer/src/ad_listener.c.obj
 .bss.m_adtype_filter
                0x0000000020006080       0x38 CMakeFiles/dfu_no_serial_nrf52832_xxAA_s132_6.0.0.dir/__/__/mesh/bearer/src/ad_type_filter.c.obj
 .bss.m_adv_prng
                0x00000000200060b8       0x10 CMakeFiles/dfu_no_serial_nrf52832_xxAA_s132_6.0.0.dir/__/__/mesh/bearer/src/advertiser.c.obj
 .bss.m_action_queue
                0x00000000200060c8        0x8 CMakeFiles/dfu_no_serial_nrf52832_xxAA_s132_6.0.0.dir/__/__/mesh/bearer/src/bearer_handler.c.obj
 .bss.m_end_time
                0x00000000200060d0        0x4 CMakeFiles/dfu_no_serial_nrf52832_xxAA_s132_6.0.0.dir/__/__/mesh/bearer/src/bearer_handler.c.obj
 .bss.m_scanner_is_active
                0x00000000200060d4        0x1 CMakeFiles/dfu_no_serial_nrf52832_xxAA_s132_6.0.0.dir/__/__/mesh/bearer/src/bearer_handler.c.obj
 .bss.m_stopped
                0x00000000200060d5        0x1 CMakeFiles/dfu_no_serial_nrf52832_xxAA_s132_6.0.0.dir/__/__/mesh/bearer/src/bearer_handler.c.obj
 *fill*         0x00000000200060d6        0x2 
 .bss.mp_action
                0x00000000200060d8        0x4 CMakeFiles/dfu_no_serial_nrf52832_xxAA_s132_6.0.0.dir/__/__/mesh/bearer/src/bearer_handler.c.obj
 .bss.m_next_channel_index
                0x00000000200060dc        0x1 CMakeFiles/dfu_no_serial_nrf52832_xxAA_s132_6.0.0.dir/__/__/mesh/bearer/src/broadcast.c.obj
 *fill*         0x00000000200060dd        0x3 
 .bss.m_accepted_amount
                0x00000000200060e0        0x4 CMakeFiles/dfu_no_serial_nrf52832_xxAA_s132_6.0.0.dir/__/__/mesh/bearer/src/filter_engine.c.obj
 .bss.m_filter_list_head
                0x00000000200060e4        0x4 CMakeFiles/dfu_no_serial_nrf52832_xxAA_s132_6.0.0.dir/__/__/mesh/bearer/src/filter_engine.c.obj
 .bss.m_scanner
                0x00000000200060e8      0x290 CMakeFiles/dfu_no_serial_nrf52832_xxAA_s132_6.0.0.dir/__/__/mesh/bearer/src/scanner.c.obj
 .bss._acDownBuffer
                0x0000000020006378       0x80 ../../external/rtt/librtt_nrf52832_xxAA.a(SEGGER_RTT.c.obj)
 .bss._acUpBuffer
                0x00000000200063f8      0x400 ../../external/rtt/librtt_nrf52832_xxAA.a(SEGGER_RTT.c.obj)
 .bss.__malloc_free_list
                0x00000000200067f8        0x4 /usr/bin/../lib/gcc/arm-none-eabi/7.2.1/../../../../arm-none-eabi/lib/thumb/v7e-m/fpv4-sp/hard/libg_nano.a(lib_a-nano-mallocr.o)
                0x00000000200067f8                __malloc_free_list
 .bss.__malloc_sbrk_start
                0x00000000200067fc        0x4 /usr/bin/../lib/gcc/arm-none-eabi/7.2.1/../../../../arm-none-eabi/lib/thumb/v7e-m/fpv4-sp/hard/libg_nano.a(lib_a-nano-mallocr.o)
                0x00000000200067fc                __malloc_sbrk_start
 .bss.heap_end.5377
                0x0000000020006800        0x4 /usr/bin/../lib/gcc/arm-none-eabi/7.2.1/../../../../arm-none-eabi/lib/thumb/v7e-m/fpv4-sp/hard/libnosys.a(sbrk.o)
 *(COMMON)
 COMMON         0x0000000020006804        0x8 CMakeFiles/dfu_no_serial_nrf52832_xxAA_s132_6.0.0.dir/src/main.c.obj
                0x0000000020006804                bank_addr
                0x0000000020006808                rom_length
 COMMON         0x000000002000680c        0xc CMakeFiles/dfu_no_serial_nrf52832_xxAA_s132_6.0.0.dir/__/common/src/mesh_softdevice_init.c.obj
                0x000000002000680c                nrf_nvic_state
 COMMON         0x0000000020006818        0x4 CMakeFiles/dfu_no_serial_nrf52832_xxAA_s132_6.0.0.dir/__/__/mesh/dfu/src/nrf_mesh_dfu.c.obj
                0x0000000020006818                m_cmd_handler
 COMMON         0x000000002000681c       0x24 CMakeFiles/dfu_no_serial_nrf52832_xxAA_s132_6.0.0.dir/__/__/mesh/core/src/core_tx.c.obj
                0x000000002000681c                m_packet
 COMMON         0x0000000020006840       0x78 ../../external/rtt/librtt_nrf52832_xxAA.a(SEGGER_RTT.c.obj)
                0x0000000020006840                _SEGGER_RTT
 COMMON         0x00000000200068b8        0x4 /usr/bin/../lib/gcc/arm-none-eabi/7.2.1/../../../../arm-none-eabi/lib/thumb/v7e-m/fpv4-sp/hard/libg_nano.a(lib_a-reent.o)
                0x00000000200068b8                errno
                0x00000000200068bc                . = ALIGN (0x4)
                0x00000000200068bc                __bss_end__ = .

.heap           0x00000000200068c0     0x2000
                0x00000000200068c0                __HeapBase = .
                0x00000000200068c0                __end__ = .
                0x00000000200068c0                PROVIDE (end, .)
 *(.heap*)
 .heap          0x00000000200068c0     0x2000 CMakeFiles/dfu_no_serial_nrf52832_xxAA_s132_6.0.0.dir/home/mazzer/work/nordic/sdk/nRF5_SDK_15.0.0/modules/nrfx/mdk/gcc_startup_nrf52.S.obj
                0x00000000200088c0                __HeapLimit = .

.stack_dummy    0x00000000200068c0     0x2000
 *(.stack*)
 .stack         0x00000000200068c0     0x2000 CMakeFiles/dfu_no_serial_nrf52832_xxAA_s132_6.0.0.dir/home/mazzer/work/nordic/sdk/nRF5_SDK_15.0.0/modules/nrfx/mdk/gcc_startup_nrf52.S.obj
                0x000000002000fd00                __StackTop = (ORIGIN (RAM) + LENGTH (RAM))
                0x000000002000dd00                __StackLimit = (__StackTop - SIZEOF (.stack_dummy))
                0x000000002000fd00                PROVIDE (__stack, __StackTop)
                0x0000000000000001                ASSERT ((__StackLimit >= __HeapLimit), region RAM overflowed with stack)
                0x0000000000000148                DataInitFlashUsed = (__bss_start__ - __data_start__)
                0x000000000001ffd8                CodeFlashUsed = (__etext - ORIGIN (FLASH))
                0x0000000000020120                TotalFlashUsed = (CodeFlashUsed + DataInitFlashUsed)
                0x0000000000000001                ASSERT ((TotalFlashUsed <= LENGTH (FLASH)), region FLASH overflowed with .data and user data)
OUTPUT(dfu_no_serial_nrf52832_xxAA_s132_6.0.0.elf elf32-littlearm)

.ARM.attributes
                0x0000000000000000       0x30
 .ARM.attributes
                0x0000000000000000       0x22 /usr/bin/../lib/gcc/arm-none-eabi/7.2.1/thumb/v7e-m/fpv4-sp/hard/crti.o
 .ARM.attributes
                0x0000000000000022       0x34 /usr/bin/../lib/gcc/arm-none-eabi/7.2.1/thumb/v7e-m/fpv4-sp/hard/crtbegin.o
 .ARM.attributes
                0x0000000000000056       0x20 /usr/bin/../lib/gcc/arm-none-eabi/7.2.1/../../../../arm-none-eabi/lib/thumb/v7e-m/fpv4-sp/hard/crt0.o
 .ARM.attributes
                0x0000000000000076       0x39 CMakeFiles/dfu_no_serial_nrf52832_xxAA_s132_6.0.0.dir/src/main.c.obj
 .ARM.attributes
                0x00000000000000af       0x39 CMakeFiles/dfu_no_serial_nrf52832_xxAA_s132_6.0.0.dir/__/__/mesh/stack/src/mesh_stack.c.obj
 .ARM.attributes
                0x00000000000000e8       0x39 CMakeFiles/dfu_no_serial_nrf52832_xxAA_s132_6.0.0.dir/__/common/src/mesh_softdevice_init.c.obj
 .ARM.attributes
                0x0000000000000121       0x39 CMakeFiles/dfu_no_serial_nrf52832_xxAA_s132_6.0.0.dir/__/common/src/mesh_provisionee.c.obj
 .ARM.attributes
                0x000000000000015a       0x39 CMakeFiles/dfu_no_serial_nrf52832_xxAA_s132_6.0.0.dir/__/common/src/simple_hal.c.obj
 .ARM.attributes
                0x0000000000000193       0x39 CMakeFiles/dfu_no_serial_nrf52832_xxAA_s132_6.0.0.dir/__/__/mesh/access/src/access_publish.c.obj
 .ARM.attributes
                0x00000000000001cc       0x39 CMakeFiles/dfu_no_serial_nrf52832_xxAA_s132_6.0.0.dir/__/__/mesh/access/src/access.c.obj
 .ARM.attributes
                0x0000000000000205       0x39 CMakeFiles/dfu_no_serial_nrf52832_xxAA_s132_6.0.0.dir/__/__/mesh/access/src/access_reliable.c.obj
 .ARM.attributes
                0x000000000000023e       0x39 CMakeFiles/dfu_no_serial_nrf52832_xxAA_s132_6.0.0.dir/__/__/mesh/access/src/device_state_manager.c.obj
 .ARM.attributes
                0x0000000000000277       0x39 CMakeFiles/dfu_no_serial_nrf52832_xxAA_s132_6.0.0.dir/__/__/models/config/src/composition_data.c.obj
 .ARM.attributes
                0x00000000000002b0       0x39 CMakeFiles/dfu_no_serial_nrf52832_xxAA_s132_6.0.0.dir/__/__/models/config/src/config_server.c.obj
 .ARM.attributes
                0x00000000000002e9       0x39 CMakeFiles/dfu_no_serial_nrf52832_xxAA_s132_6.0.0.dir/__/__/models/config/src/packed_index_list.c.obj
 .ARM.attributes
                0x0000000000000322       0x39 CMakeFiles/dfu_no_serial_nrf52832_xxAA_s132_6.0.0.dir/__/__/models/health/src/health_server.c.obj
 .ARM.attributes
                0x000000000000035b       0x39 CMakeFiles/dfu_no_serial_nrf52832_xxAA_s132_6.0.0.dir/__/__/mesh/prov/src/prov_provisioner.c.obj
 .ARM.attributes
                0x0000000000000394       0x39 CMakeFiles/dfu_no_serial_nrf52832_xxAA_s132_6.0.0.dir/__/__/mesh/prov/src/prov_provisionee.c.obj
 .ARM.attributes
                0x00000000000003cd       0x39 CMakeFiles/dfu_no_serial_nrf52832_xxAA_s132_6.0.0.dir/__/__/mesh/prov/src/nrf_mesh_prov.c.obj
 .ARM.attributes
                0x0000000000000406       0x39 CMakeFiles/dfu_no_serial_nrf52832_xxAA_s132_6.0.0.dir/__/__/mesh/prov/src/provisioning.c.obj
 .ARM.attributes
                0x000000000000043f       0x39 CMakeFiles/dfu_no_serial_nrf52832_xxAA_s132_6.0.0.dir/__/__/mesh/prov/src/prov_beacon.c.obj
 .ARM.attributes
                0x0000000000000478       0x39 CMakeFiles/dfu_no_serial_nrf52832_xxAA_s132_6.0.0.dir/__/__/mesh/prov/src/prov_utils.c.obj
 .ARM.attributes
                0x00000000000004b1       0x39 CMakeFiles/dfu_no_serial_nrf52832_xxAA_s132_6.0.0.dir/__/__/mesh/prov/src/prov_bearer_adv.c.obj
 .ARM.attributes
                0x00000000000004ea       0x39 CMakeFiles/dfu_no_serial_nrf52832_xxAA_s132_6.0.0.dir/__/__/mesh/dfu/src/nrf_mesh_dfu.c.obj
 .ARM.attributes
                0x0000000000000523       0x39 CMakeFiles/dfu_no_serial_nrf52832_xxAA_s132_6.0.0.dir/__/common/src/app_error_weak.c.obj
 .ARM.attributes
                0x000000000000055c       0x39 CMakeFiles/dfu_no_serial_nrf52832_xxAA_s132_6.0.0.dir/__/common/src/assertion_handler_weak.c.obj
 .ARM.attributes
                0x0000000000000595       0x39 CMakeFiles/dfu_no_serial_nrf52832_xxAA_s132_6.0.0.dir/__/__/mesh/core/src/nrf_mesh_configure.c.obj
 .ARM.attributes
                0x00000000000005ce       0x39 CMakeFiles/dfu_no_serial_nrf52832_xxAA_s132_6.0.0.dir/__/__/mesh/core/src/aes.c.obj
 .ARM.attributes
                0x0000000000000607       0x39 CMakeFiles/dfu_no_serial_nrf52832_xxAA_s132_6.0.0.dir/__/__/mesh/core/src/msg_cache.c.obj
 .ARM.attributes
                0x0000000000000640       0x39 CMakeFiles/dfu_no_serial_nrf52832_xxAA_s132_6.0.0.dir/__/__/mesh/core/src/transport.c.obj
 .ARM.attributes
                0x0000000000000679       0x39 CMakeFiles/dfu_no_serial_nrf52832_xxAA_s132_6.0.0.dir/__/__/mesh/core/src/event.c.obj
 .ARM.attributes
                0x00000000000006b2       0x39 CMakeFiles/dfu_no_serial_nrf52832_xxAA_s132_6.0.0.dir/__/__/mesh/core/src/packet_buffer.c.obj
 .ARM.attributes
                0x00000000000006eb       0x39 CMakeFiles/dfu_no_serial_nrf52832_xxAA_s132_6.0.0.dir/__/__/mesh/core/src/flash_manager_defrag.c.obj
 .ARM.attributes
                0x0000000000000724       0x39 CMakeFiles/dfu_no_serial_nrf52832_xxAA_s132_6.0.0.dir/__/__/mesh/core/src/fifo.c.obj
 .ARM.attributes
                0x000000000000075d       0x39 CMakeFiles/dfu_no_serial_nrf52832_xxAA_s132_6.0.0.dir/__/__/mesh/core/src/nrf_flash.c.obj
 .ARM.attributes
                0x0000000000000796       0x39 CMakeFiles/dfu_no_serial_nrf52832_xxAA_s132_6.0.0.dir/__/__/mesh/core/src/packet_mgr.c.obj
 .ARM.attributes
                0x00000000000007cf       0x39 CMakeFiles/dfu_no_serial_nrf52832_xxAA_s132_6.0.0.dir/__/__/mesh/core/src/net_state.c.obj
 .ARM.attributes
                0x0000000000000808       0x39 CMakeFiles/dfu_no_serial_nrf52832_xxAA_s132_6.0.0.dir/__/__/mesh/core/src/mesh_flash.c.obj
 .ARM.attributes
                0x0000000000000841       0x39 CMakeFiles/dfu_no_serial_nrf52832_xxAA_s132_6.0.0.dir/__/__/mesh/core/src/nrf_mesh_utils.c.obj
 .ARM.attributes
                0x000000000000087a       0x39 CMakeFiles/dfu_no_serial_nrf52832_xxAA_s132_6.0.0.dir/__/__/mesh/core/src/nrf_mesh.c.obj
 .ARM.attributes
                0x00000000000008b3       0x39 CMakeFiles/dfu_no_serial_nrf52832_xxAA_s132_6.0.0.dir/__/__/mesh/core/src/queue.c.obj
 .ARM.attributes
                0x00000000000008ec       0x39 CMakeFiles/dfu_no_serial_nrf52832_xxAA_s132_6.0.0.dir/__/__/mesh/core/src/hal.c.obj
 .ARM.attributes
                0x0000000000000925       0x39 CMakeFiles/dfu_no_serial_nrf52832_xxAA_s132_6.0.0.dir/__/__/mesh/core/src/aes_cmac.c.obj
 .ARM.attributes
                0x000000000000095e       0x39 CMakeFiles/dfu_no_serial_nrf52832_xxAA_s132_6.0.0.dir/__/__/mesh/core/src/timer_scheduler.c.obj
 .ARM.attributes
                0x0000000000000997       0x39 CMakeFiles/dfu_no_serial_nrf52832_xxAA_s132_6.0.0.dir/__/__/mesh/core/src/timer.c.obj
 .ARM.attributes
                0x00000000000009d0       0x39 CMakeFiles/dfu_no_serial_nrf52832_xxAA_s132_6.0.0.dir/__/__/mesh/core/src/ticker.c.obj
 .ARM.attributes
                0x0000000000000a09       0x39 CMakeFiles/dfu_no_serial_nrf52832_xxAA_s132_6.0.0.dir/__/__/mesh/core/src/rand.c.obj
 .ARM.attributes
                0x0000000000000a42       0x39 CMakeFiles/dfu_no_serial_nrf52832_xxAA_s132_6.0.0.dir/__/__/mesh/core/src/nrf_mesh_opt.c.obj
 .ARM.attributes
                0x0000000000000a7b       0x39 CMakeFiles/dfu_no_serial_nrf52832_xxAA_s132_6.0.0.dir/__/__/mesh/core/src/timeslot.c.obj
 .ARM.attributes
                0x0000000000000ab4       0x39 CMakeFiles/dfu_no_serial_nrf52832_xxAA_s132_6.0.0.dir/__/__/mesh/core/src/bearer_event.c.obj
 .ARM.attributes
                0x0000000000000aed       0x39 CMakeFiles/dfu_no_serial_nrf52832_xxAA_s132_6.0.0.dir/__/__/mesh/core/src/enc.c.obj
 .ARM.attributes
                0x0000000000000b26       0x39 CMakeFiles/dfu_no_serial_nrf52832_xxAA_s132_6.0.0.dir/__/__/mesh/core/src/network.c.obj
 .ARM.attributes
                0x0000000000000b5f       0x39 CMakeFiles/dfu_no_serial_nrf52832_xxAA_s132_6.0.0.dir/__/__/mesh/core/src/net_packet.c.obj
 .ARM.attributes
                0x0000000000000b98       0x39 CMakeFiles/dfu_no_serial_nrf52832_xxAA_s132_6.0.0.dir/__/__/mesh/core/src/msqueue.c.obj
 .ARM.attributes
                0x0000000000000bd1       0x39 CMakeFiles/dfu_no_serial_nrf52832_xxAA_s132_6.0.0.dir/__/__/mesh/core/src/nrf_mesh_keygen.c.obj
 .ARM.attributes
                0x0000000000000c0a       0x39 CMakeFiles/dfu_no_serial_nrf52832_xxAA_s132_6.0.0.dir/__/__/mesh/core/src/list.c.obj
 .ARM.attributes
                0x0000000000000c43       0x39 CMakeFiles/dfu_no_serial_nrf52832_xxAA_s132_6.0.0.dir/__/__/mesh/core/src/log.c.obj
 .ARM.attributes
                0x0000000000000c7c       0x39 CMakeFiles/dfu_no_serial_nrf52832_xxAA_s132_6.0.0.dir/__/__/mesh/core/src/flash_manager.c.obj
 .ARM.attributes
                0x0000000000000cb5       0x39 CMakeFiles/dfu_no_serial_nrf52832_xxAA_s132_6.0.0.dir/__/__/mesh/core/src/ccm_soft.c.obj
 .ARM.attributes
                0x0000000000000cee       0x39 CMakeFiles/dfu_no_serial_nrf52832_xxAA_s132_6.0.0.dir/__/__/mesh/core/src/replay_cache.c.obj
 .ARM.attributes
                0x0000000000000d27       0x39 CMakeFiles/dfu_no_serial_nrf52832_xxAA_s132_6.0.0.dir/__/__/mesh/core/src/beacon.c.obj
 .ARM.attributes
                0x0000000000000d60       0x39 CMakeFiles/dfu_no_serial_nrf52832_xxAA_s132_6.0.0.dir/__/__/mesh/core/src/flash_manager_internal.c.obj
 .ARM.attributes
                0x0000000000000d99       0x39 CMakeFiles/dfu_no_serial_nrf52832_xxAA_s132_6.0.0.dir/__/__/mesh/core/src/core_tx.c.obj
 .ARM.attributes
                0x0000000000000dd2       0x39 CMakeFiles/dfu_no_serial_nrf52832_xxAA_s132_6.0.0.dir/__/__/mesh/core/src/heartbeat.c.obj
 .ARM.attributes
                0x0000000000000e0b       0x39 CMakeFiles/dfu_no_serial_nrf52832_xxAA_s132_6.0.0.dir/__/__/mesh/core/src/net_beacon.c.obj
 .ARM.attributes
                0x0000000000000e44       0x39 CMakeFiles/dfu_no_serial_nrf52832_xxAA_s132_6.0.0.dir/__/__/mesh/core/src/core_tx_adv.c.obj
 .ARM.attributes
                0x0000000000000e7d       0x39 CMakeFiles/dfu_no_serial_nrf52832_xxAA_s132_6.0.0.dir/__/__/mesh/bearer/src/ad_listener.c.obj
 .ARM.attributes
                0x0000000000000eb6       0x39 CMakeFiles/dfu_no_serial_nrf52832_xxAA_s132_6.0.0.dir/__/__/mesh/bearer/src/ad_type_filter.c.obj
 .ARM.attributes
                0x0000000000000eef       0x39 CMakeFiles/dfu_no_serial_nrf52832_xxAA_s132_6.0.0.dir/__/__/mesh/bearer/src/advertiser.c.obj
 .ARM.attributes
                0x0000000000000f28       0x39 CMakeFiles/dfu_no_serial_nrf52832_xxAA_s132_6.0.0.dir/__/__/mesh/bearer/src/bearer_handler.c.obj
 .ARM.attributes
                0x0000000000000f61       0x39 CMakeFiles/dfu_no_serial_nrf52832_xxAA_s132_6.0.0.dir/__/__/mesh/bearer/src/broadcast.c.obj
 .ARM.attributes
                0x0000000000000f9a       0x39 CMakeFiles/dfu_no_serial_nrf52832_xxAA_s132_6.0.0.dir/__/__/mesh/bearer/src/filter_engine.c.obj
 .ARM.attributes
                0x0000000000000fd3       0x39 CMakeFiles/dfu_no_serial_nrf52832_xxAA_s132_6.0.0.dir/__/__/mesh/bearer/src/radio_config.c.obj
 .ARM.attributes
                0x000000000000100c       0x39 CMakeFiles/dfu_no_serial_nrf52832_xxAA_s132_6.0.0.dir/__/__/mesh/bearer/src/scanner.c.obj
 .ARM.attributes
                0x0000000000001045       0x39 CMakeFiles/dfu_no_serial_nrf52832_xxAA_s132_6.0.0.dir/home/mazzer/work/nordic/sdk/nRF5_SDK_15.0.0/modules/nrfx/mdk/system_nrf52.c.obj
 .ARM.attributes
                0x000000000000107e       0x20 CMakeFiles/dfu_no_serial_nrf52832_xxAA_s132_6.0.0.dir/home/mazzer/work/nordic/sdk/nRF5_SDK_15.0.0/modules/nrfx/mdk/gcc_startup_nrf52.S.obj
 .ARM.attributes
                0x000000000000109e       0x39 CMakeFiles/dfu_no_serial_nrf52832_xxAA_s132_6.0.0.dir/home/mazzer/work/nordic/sdk/nRF5_SDK_15.0.0/components/libraries/util/app_error.c.obj
 .ARM.attributes
                0x00000000000010d7       0x39 CMakeFiles/dfu_no_serial_nrf52832_xxAA_s132_6.0.0.dir/home/mazzer/work/nordic/sdk/nRF5_SDK_15.0.0/components/libraries/util/app_error_handler_gcc.c.obj
 .ARM.attributes
                0x0000000000001110       0x39 ../../external/rtt/librtt_nrf52832_xxAA.a(SEGGER_RTT.c.obj)
 .ARM.attributes
                0x0000000000001149       0x39 ../../external/rtt/librtt_nrf52832_xxAA.a(SEGGER_RTT_printf.c.obj)
 .ARM.attributes
                0x0000000000001182       0x39 ../../external/micro-ecc/libuECC_nrf52832_xxAA.a(uECC.c.obj)
 .ARM.attributes
                0x00000000000011bb       0x34 /usr/bin/../lib/gcc/arm-none-eabi/7.2.1/../../../../arm-none-eabi/lib/thumb/v7e-m/fpv4-sp/hard/libg_nano.a(lib_a-exit.o)
 .ARM.attributes
                0x00000000000011ef       0x34 /usr/bin/../lib/gcc/arm-none-eabi/7.2.1/../../../../arm-none-eabi/lib/thumb/v7e-m/fpv4-sp/hard/libg_nano.a(lib_a-impure.o)
 .ARM.attributes
                0x0000000000001223       0x34 /usr/bin/../lib/gcc/arm-none-eabi/7.2.1/../../../../arm-none-eabi/lib/thumb/v7e-m/fpv4-sp/hard/libg_nano.a(lib_a-init.o)
 .ARM.attributes
                0x0000000000001257       0x34 /usr/bin/../lib/gcc/arm-none-eabi/7.2.1/../../../../arm-none-eabi/lib/thumb/v7e-m/fpv4-sp/hard/libg_nano.a(lib_a-malloc.o)
 .ARM.attributes
                0x000000000000128b       0x34 /usr/bin/../lib/gcc/arm-none-eabi/7.2.1/../../../../arm-none-eabi/lib/thumb/v7e-m/fpv4-sp/hard/libg_nano.a(lib_a-memcmp.o)
 .ARM.attributes
                0x00000000000012bf       0x34 /usr/bin/../lib/gcc/arm-none-eabi/7.2.1/../../../../arm-none-eabi/lib/thumb/v7e-m/fpv4-sp/hard/libg_nano.a(lib_a-memcpy-stub.o)
 .ARM.attributes
                0x00000000000012f3       0x34 /usr/bin/../lib/gcc/arm-none-eabi/7.2.1/../../../../arm-none-eabi/lib/thumb/v7e-m/fpv4-sp/hard/libg_nano.a(lib_a-memset.o)
 .ARM.attributes
                0x0000000000001327       0x34 /usr/bin/../lib/gcc/arm-none-eabi/7.2.1/../../../../arm-none-eabi/lib/thumb/v7e-m/fpv4-sp/hard/libg_nano.a(lib_a-nano-freer.o)
 .ARM.attributes
                0x000000000000135b       0x34 /usr/bin/../lib/gcc/arm-none-eabi/7.2.1/../../../../arm-none-eabi/lib/thumb/v7e-m/fpv4-sp/hard/libg_nano.a(lib_a-nano-mallocr.o)
 .ARM.attributes
                0x000000000000138f       0x34 /usr/bin/../lib/gcc/arm-none-eabi/7.2.1/../../../../arm-none-eabi/lib/thumb/v7e-m/fpv4-sp/hard/libg_nano.a(lib_a-sbrkr.o)
 .ARM.attributes
                0x00000000000013c3       0x34 /usr/bin/../lib/gcc/arm-none-eabi/7.2.1/../../../../arm-none-eabi/lib/thumb/v7e-m/fpv4-sp/hard/libg_nano.a(lib_a-strcpy.o)
 .ARM.attributes
                0x00000000000013f7       0x1b /usr/bin/../lib/gcc/arm-none-eabi/7.2.1/../../../../arm-none-eabi/lib/thumb/v7e-m/fpv4-sp/hard/libg_nano.a(lib_a-strlen.o)
 .ARM.attributes
                0x0000000000001412       0x34 /usr/bin/../lib/gcc/arm-none-eabi/7.2.1/../../../../arm-none-eabi/lib/thumb/v7e-m/fpv4-sp/hard/libg_nano.a(lib_a-strrchr.o)
 .ARM.attributes
                0x0000000000001446       0x34 /usr/bin/../lib/gcc/arm-none-eabi/7.2.1/../../../../arm-none-eabi/lib/thumb/v7e-m/fpv4-sp/hard/libg_nano.a(lib_a-mlock.o)
 .ARM.attributes
                0x000000000000147a       0x34 /usr/bin/../lib/gcc/arm-none-eabi/7.2.1/../../../../arm-none-eabi/lib/thumb/v7e-m/fpv4-sp/hard/libg_nano.a(lib_a-reent.o)
 .ARM.attributes
                0x00000000000014ae       0x34 /usr/bin/../lib/gcc/arm-none-eabi/7.2.1/../../../../arm-none-eabi/lib/thumb/v7e-m/fpv4-sp/hard/libg_nano.a(lib_a-strchr.o)
 .ARM.attributes
                0x00000000000014e2       0x34 /usr/bin/../lib/gcc/arm-none-eabi/7.2.1/thumb/v7e-m/fpv4-sp/hard/crtend.o
 .ARM.attributes
                0x0000000000001516       0x22 /usr/bin/../lib/gcc/arm-none-eabi/7.2.1/thumb/v7e-m/fpv4-sp/hard/crtn.o
 .ARM.attributes
                0x0000000000001538       0x34 /usr/bin/../lib/gcc/arm-none-eabi/7.2.1/../../../../arm-none-eabi/lib/thumb/v7e-m/fpv4-sp/hard/libnosys.a(sbrk.o)
 .ARM.attributes
                0x000000000000156c       0x34 /usr/bin/../lib/gcc/arm-none-eabi/7.2.1/../../../../arm-none-eabi/lib/thumb/v7e-m/fpv4-sp/hard/libnosys.a(_exit.o)

.comment        0x0000000000000000       0x7e
 .comment       0x0000000000000000       0x7e CMakeFiles/dfu_no_serial_nrf52832_xxAA_s132_6.0.0.dir/src/main.c.obj
                                         0x7f (size before relaxing)
 .comment       0x000000000000007e       0x7f CMakeFiles/dfu_no_serial_nrf52832_xxAA_s132_6.0.0.dir/__/__/mesh/stack/src/mesh_stack.c.obj
 .comment       0x000000000000007e       0x7f CMakeFiles/dfu_no_serial_nrf52832_xxAA_s132_6.0.0.dir/__/common/src/mesh_softdevice_init.c.obj
 .comment       0x000000000000007e       0x7f CMakeFiles/dfu_no_serial_nrf52832_xxAA_s132_6.0.0.dir/__/common/src/mesh_provisionee.c.obj
 .comment       0x000000000000007e       0x7f CMakeFiles/dfu_no_serial_nrf52832_xxAA_s132_6.0.0.dir/__/common/src/simple_hal.c.obj
 .comment       0x000000000000007e       0x7f CMakeFiles/dfu_no_serial_nrf52832_xxAA_s132_6.0.0.dir/__/__/mesh/access/src/access_publish.c.obj
 .comment       0x000000000000007e       0x7f CMakeFiles/dfu_no_serial_nrf52832_xxAA_s132_6.0.0.dir/__/__/mesh/access/src/access.c.obj
 .comment       0x000000000000007e       0x7f CMakeFiles/dfu_no_serial_nrf52832_xxAA_s132_6.0.0.dir/__/__/mesh/access/src/access_reliable.c.obj
 .comment       0x000000000000007e       0x7f CMakeFiles/dfu_no_serial_nrf52832_xxAA_s132_6.0.0.dir/__/__/mesh/access/src/device_state_manager.c.obj
 .comment       0x000000000000007e       0x7f CMakeFiles/dfu_no_serial_nrf52832_xxAA_s132_6.0.0.dir/__/__/models/config/src/composition_data.c.obj
 .comment       0x000000000000007e       0x7f CMakeFiles/dfu_no_serial_nrf52832_xxAA_s132_6.0.0.dir/__/__/models/config/src/config_server.c.obj
 .comment       0x000000000000007e       0x7f CMakeFiles/dfu_no_serial_nrf52832_xxAA_s132_6.0.0.dir/__/__/models/config/src/packed_index_list.c.obj
 .comment       0x000000000000007e       0x7f CMakeFiles/dfu_no_serial_nrf52832_xxAA_s132_6.0.0.dir/__/__/models/health/src/health_server.c.obj
 .comment       0x000000000000007e       0x7f CMakeFiles/dfu_no_serial_nrf52832_xxAA_s132_6.0.0.dir/__/__/mesh/prov/src/prov_provisioner.c.obj
 .comment       0x000000000000007e       0x7f CMakeFiles/dfu_no_serial_nrf52832_xxAA_s132_6.0.0.dir/__/__/mesh/prov/src/prov_provisionee.c.obj
 .comment       0x000000000000007e       0x7f CMakeFiles/dfu_no_serial_nrf52832_xxAA_s132_6.0.0.dir/__/__/mesh/prov/src/nrf_mesh_prov.c.obj
 .comment       0x000000000000007e       0x7f CMakeFiles/dfu_no_serial_nrf52832_xxAA_s132_6.0.0.dir/__/__/mesh/prov/src/provisioning.c.obj
 .comment       0x000000000000007e       0x7f CMakeFiles/dfu_no_serial_nrf52832_xxAA_s132_6.0.0.dir/__/__/mesh/prov/src/prov_beacon.c.obj
 .comment       0x000000000000007e       0x7f CMakeFiles/dfu_no_serial_nrf52832_xxAA_s132_6.0.0.dir/__/__/mesh/prov/src/prov_utils.c.obj
 .comment       0x000000000000007e       0x7f CMakeFiles/dfu_no_serial_nrf52832_xxAA_s132_6.0.0.dir/__/__/mesh/prov/src/prov_bearer_adv.c.obj
 .comment       0x000000000000007e       0x7f CMakeFiles/dfu_no_serial_nrf52832_xxAA_s132_6.0.0.dir/__/__/mesh/dfu/src/nrf_mesh_dfu.c.obj
 .comment       0x000000000000007e       0x7f CMakeFiles/dfu_no_serial_nrf52832_xxAA_s132_6.0.0.dir/__/common/src/app_error_weak.c.obj
 .comment       0x000000000000007e       0x7f CMakeFiles/dfu_no_serial_nrf52832_xxAA_s132_6.0.0.dir/__/common/src/assertion_handler_weak.c.obj
 .comment       0x000000000000007e       0x7f CMakeFiles/dfu_no_serial_nrf52832_xxAA_s132_6.0.0.dir/__/__/mesh/core/src/nrf_mesh_configure.c.obj
 .comment       0x000000000000007e       0x7f CMakeFiles/dfu_no_serial_nrf52832_xxAA_s132_6.0.0.dir/__/__/mesh/core/src/aes.c.obj
 .comment       0x000000000000007e       0x7f CMakeFiles/dfu_no_serial_nrf52832_xxAA_s132_6.0.0.dir/__/__/mesh/core/src/msg_cache.c.obj
 .comment       0x000000000000007e       0x7f CMakeFiles/dfu_no_serial_nrf52832_xxAA_s132_6.0.0.dir/__/__/mesh/core/src/transport.c.obj
 .comment       0x000000000000007e       0x7f CMakeFiles/dfu_no_serial_nrf52832_xxAA_s132_6.0.0.dir/__/__/mesh/core/src/event.c.obj
 .comment       0x000000000000007e       0x7f CMakeFiles/dfu_no_serial_nrf52832_xxAA_s132_6.0.0.dir/__/__/mesh/core/src/packet_buffer.c.obj
 .comment       0x000000000000007e       0x7f CMakeFiles/dfu_no_serial_nrf52832_xxAA_s132_6.0.0.dir/__/__/mesh/core/src/flash_manager_defrag.c.obj
 .comment       0x000000000000007e       0x7f CMakeFiles/dfu_no_serial_nrf52832_xxAA_s132_6.0.0.dir/__/__/mesh/core/src/fifo.c.obj
 .comment       0x000000000000007e       0x7f CMakeFiles/dfu_no_serial_nrf52832_xxAA_s132_6.0.0.dir/__/__/mesh/core/src/nrf_flash.c.obj
 .comment       0x000000000000007e       0x7f CMakeFiles/dfu_no_serial_nrf52832_xxAA_s132_6.0.0.dir/__/__/mesh/core/src/packet_mgr.c.obj
 .comment       0x000000000000007e       0x7f CMakeFiles/dfu_no_serial_nrf52832_xxAA_s132_6.0.0.dir/__/__/mesh/core/src/net_state.c.obj
 .comment       0x000000000000007e       0x7f CMakeFiles/dfu_no_serial_nrf52832_xxAA_s132_6.0.0.dir/__/__/mesh/core/src/mesh_flash.c.obj
 .comment       0x000000000000007e       0x7f CMakeFiles/dfu_no_serial_nrf52832_xxAA_s132_6.0.0.dir/__/__/mesh/core/src/nrf_mesh_utils.c.obj
 .comment       0x000000000000007e       0x7f CMakeFiles/dfu_no_serial_nrf52832_xxAA_s132_6.0.0.dir/__/__/mesh/core/src/nrf_mesh.c.obj
 .comment       0x000000000000007e       0x7f CMakeFiles/dfu_no_serial_nrf52832_xxAA_s132_6.0.0.dir/__/__/mesh/core/src/queue.c.obj
 .comment       0x000000000000007e       0x7f CMakeFiles/dfu_no_serial_nrf52832_xxAA_s132_6.0.0.dir/__/__/mesh/core/src/hal.c.obj
 .comment       0x000000000000007e       0x7f CMakeFiles/dfu_no_serial_nrf52832_xxAA_s132_6.0.0.dir/__/__/mesh/core/src/aes_cmac.c.obj
 .comment       0x000000000000007e       0x7f CMakeFiles/dfu_no_serial_nrf52832_xxAA_s132_6.0.0.dir/__/__/mesh/core/src/timer_scheduler.c.obj
 .comment       0x000000000000007e       0x7f CMakeFiles/dfu_no_serial_nrf52832_xxAA_s132_6.0.0.dir/__/__/mesh/core/src/timer.c.obj
 .comment       0x000000000000007e       0x7f CMakeFiles/dfu_no_serial_nrf52832_xxAA_s132_6.0.0.dir/__/__/mesh/core/src/ticker.c.obj
 .comment       0x000000000000007e       0x7f CMakeFiles/dfu_no_serial_nrf52832_xxAA_s132_6.0.0.dir/__/__/mesh/core/src/rand.c.obj
 .comment       0x000000000000007e       0x7f CMakeFiles/dfu_no_serial_nrf52832_xxAA_s132_6.0.0.dir/__/__/mesh/core/src/nrf_mesh_opt.c.obj
 .comment       0x000000000000007e       0x7f CMakeFiles/dfu_no_serial_nrf52832_xxAA_s132_6.0.0.dir/__/__/mesh/core/src/timeslot.c.obj
 .comment       0x000000000000007e       0x7f CMakeFiles/dfu_no_serial_nrf52832_xxAA_s132_6.0.0.dir/__/__/mesh/core/src/bearer_event.c.obj
 .comment       0x000000000000007e       0x7f CMakeFiles/dfu_no_serial_nrf52832_xxAA_s132_6.0.0.dir/__/__/mesh/core/src/enc.c.obj
 .comment       0x000000000000007e       0x7f CMakeFiles/dfu_no_serial_nrf52832_xxAA_s132_6.0.0.dir/__/__/mesh/core/src/network.c.obj
 .comment       0x000000000000007e       0x7f CMakeFiles/dfu_no_serial_nrf52832_xxAA_s132_6.0.0.dir/__/__/mesh/core/src/net_packet.c.obj
 .comment       0x000000000000007e       0x7f CMakeFiles/dfu_no_serial_nrf52832_xxAA_s132_6.0.0.dir/__/__/mesh/core/src/msqueue.c.obj
 .comment       0x000000000000007e       0x7f CMakeFiles/dfu_no_serial_nrf52832_xxAA_s132_6.0.0.dir/__/__/mesh/core/src/nrf_mesh_keygen.c.obj
 .comment       0x000000000000007e       0x7f CMakeFiles/dfu_no_serial_nrf52832_xxAA_s132_6.0.0.dir/__/__/mesh/core/src/list.c.obj
 .comment       0x000000000000007e       0x7f CMakeFiles/dfu_no_serial_nrf52832_xxAA_s132_6.0.0.dir/__/__/mesh/core/src/log.c.obj
 .comment       0x000000000000007e       0x7f CMakeFiles/dfu_no_serial_nrf52832_xxAA_s132_6.0.0.dir/__/__/mesh/core/src/flash_manager.c.obj
 .comment       0x000000000000007e       0x7f CMakeFiles/dfu_no_serial_nrf52832_xxAA_s132_6.0.0.dir/__/__/mesh/core/src/ccm_soft.c.obj
 .comment       0x000000000000007e       0x7f CMakeFiles/dfu_no_serial_nrf52832_xxAA_s132_6.0.0.dir/__/__/mesh/core/src/replay_cache.c.obj
 .comment       0x000000000000007e       0x7f CMakeFiles/dfu_no_serial_nrf52832_xxAA_s132_6.0.0.dir/__/__/mesh/core/src/beacon.c.obj
 .comment       0x000000000000007e       0x7f CMakeFiles/dfu_no_serial_nrf52832_xxAA_s132_6.0.0.dir/__/__/mesh/core/src/flash_manager_internal.c.obj
 .comment       0x000000000000007e       0x7f CMakeFiles/dfu_no_serial_nrf52832_xxAA_s132_6.0.0.dir/__/__/mesh/core/src/core_tx.c.obj
 .comment       0x000000000000007e       0x7f CMakeFiles/dfu_no_serial_nrf52832_xxAA_s132_6.0.0.dir/__/__/mesh/core/src/heartbeat.c.obj
 .comment       0x000000000000007e       0x7f CMakeFiles/dfu_no_serial_nrf52832_xxAA_s132_6.0.0.dir/__/__/mesh/core/src/net_beacon.c.obj
 .comment       0x000000000000007e       0x7f CMakeFiles/dfu_no_serial_nrf52832_xxAA_s132_6.0.0.dir/__/__/mesh/core/src/core_tx_adv.c.obj
 .comment       0x000000000000007e       0x7f CMakeFiles/dfu_no_serial_nrf52832_xxAA_s132_6.0.0.dir/__/__/mesh/bearer/src/ad_listener.c.obj
 .comment       0x000000000000007e       0x7f CMakeFiles/dfu_no_serial_nrf52832_xxAA_s132_6.0.0.dir/__/__/mesh/bearer/src/ad_type_filter.c.obj
 .comment       0x000000000000007e       0x7f CMakeFiles/dfu_no_serial_nrf52832_xxAA_s132_6.0.0.dir/__/__/mesh/bearer/src/advertiser.c.obj
 .comment       0x000000000000007e       0x7f CMakeFiles/dfu_no_serial_nrf52832_xxAA_s132_6.0.0.dir/__/__/mesh/bearer/src/bearer_handler.c.obj
 .comment       0x000000000000007e       0x7f CMakeFiles/dfu_no_serial_nrf52832_xxAA_s132_6.0.0.dir/__/__/mesh/bearer/src/broadcast.c.obj
 .comment       0x000000000000007e       0x7f CMakeFiles/dfu_no_serial_nrf52832_xxAA_s132_6.0.0.dir/__/__/mesh/bearer/src/filter_engine.c.obj
 .comment       0x000000000000007e       0x7f CMakeFiles/dfu_no_serial_nrf52832_xxAA_s132_6.0.0.dir/__/__/mesh/bearer/src/radio_config.c.obj
 .comment       0x000000000000007e       0x7f CMakeFiles/dfu_no_serial_nrf52832_xxAA_s132_6.0.0.dir/__/__/mesh/bearer/src/scanner.c.obj
 .comment       0x000000000000007e       0x7f CMakeFiles/dfu_no_serial_nrf52832_xxAA_s132_6.0.0.dir/home/mazzer/work/nordic/sdk/nRF5_SDK_15.0.0/modules/nrfx/mdk/system_nrf52.c.obj
 .comment       0x000000000000007e       0x7f CMakeFiles/dfu_no_serial_nrf52832_xxAA_s132_6.0.0.dir/home/mazzer/work/nordic/sdk/nRF5_SDK_15.0.0/components/libraries/util/app_error.c.obj
 .comment       0x000000000000007e       0x7f CMakeFiles/dfu_no_serial_nrf52832_xxAA_s132_6.0.0.dir/home/mazzer/work/nordic/sdk/nRF5_SDK_15.0.0/components/libraries/util/app_error_handler_gcc.c.obj
 .comment       0x000000000000007e       0x7f ../../external/rtt/librtt_nrf52832_xxAA.a(SEGGER_RTT.c.obj)
 .comment       0x000000000000007e       0x7f ../../external/rtt/librtt_nrf52832_xxAA.a(SEGGER_RTT_printf.c.obj)
 .comment       0x000000000000007e       0x7f ../../external/micro-ecc/libuECC_nrf52832_xxAA.a(uECC.c.obj)

.debug_info     0x0000000000000000    0x98aae
 .debug_info    0x0000000000000000     0x3230 CMakeFiles/dfu_no_serial_nrf52832_xxAA_s132_6.0.0.dir/src/main.c.obj
 .debug_info    0x0000000000003230     0x2346 CMakeFiles/dfu_no_serial_nrf52832_xxAA_s132_6.0.0.dir/__/__/mesh/stack/src/mesh_stack.c.obj
 .debug_info    0x0000000000005576     0x17aa CMakeFiles/dfu_no_serial_nrf52832_xxAA_s132_6.0.0.dir/__/common/src/mesh_softdevice_init.c.obj
 .debug_info    0x0000000000006d20     0x218f CMakeFiles/dfu_no_serial_nrf52832_xxAA_s132_6.0.0.dir/__/common/src/mesh_provisionee.c.obj
 .debug_info    0x0000000000008eaf     0x1572 CMakeFiles/dfu_no_serial_nrf52832_xxAA_s132_6.0.0.dir/__/common/src/simple_hal.c.obj
 .debug_info    0x000000000000a421     0x12cf CMakeFiles/dfu_no_serial_nrf52832_xxAA_s132_6.0.0.dir/__/__/mesh/access/src/access_publish.c.obj
 .debug_info    0x000000000000b6f0     0x54c6 CMakeFiles/dfu_no_serial_nrf52832_xxAA_s132_6.0.0.dir/__/__/mesh/access/src/access.c.obj
 .debug_info    0x0000000000010bb6     0x1a56 CMakeFiles/dfu_no_serial_nrf52832_xxAA_s132_6.0.0.dir/__/__/mesh/access/src/access_reliable.c.obj
 .debug_info    0x000000000001260c     0x94c8 CMakeFiles/dfu_no_serial_nrf52832_xxAA_s132_6.0.0.dir/__/__/mesh/access/src/device_state_manager.c.obj
 .debug_info    0x000000000001bad4      0xedb CMakeFiles/dfu_no_serial_nrf52832_xxAA_s132_6.0.0.dir/__/__/models/config/src/composition_data.c.obj
 .debug_info    0x000000000001c9af     0xc313 CMakeFiles/dfu_no_serial_nrf52832_xxAA_s132_6.0.0.dir/__/__/models/config/src/config_server.c.obj
 .debug_info    0x0000000000028cc2      0x126 CMakeFiles/dfu_no_serial_nrf52832_xxAA_s132_6.0.0.dir/__/__/models/config/src/packed_index_list.c.obj
 .debug_info    0x0000000000028de8     0x2e65 CMakeFiles/dfu_no_serial_nrf52832_xxAA_s132_6.0.0.dir/__/__/models/health/src/health_server.c.obj
 .debug_info    0x000000000002bc4d     0x26b6 CMakeFiles/dfu_no_serial_nrf52832_xxAA_s132_6.0.0.dir/__/__/mesh/prov/src/prov_provisioner.c.obj
 .debug_info    0x000000000002e303     0x2c7b CMakeFiles/dfu_no_serial_nrf52832_xxAA_s132_6.0.0.dir/__/__/mesh/prov/src/prov_provisionee.c.obj
 .debug_info    0x0000000000030f7e     0x1fa2 CMakeFiles/dfu_no_serial_nrf52832_xxAA_s132_6.0.0.dir/__/__/mesh/prov/src/nrf_mesh_prov.c.obj
 .debug_info    0x0000000000032f20     0x18dc CMakeFiles/dfu_no_serial_nrf52832_xxAA_s132_6.0.0.dir/__/__/mesh/prov/src/provisioning.c.obj
 .debug_info    0x00000000000347fc     0x1a93 CMakeFiles/dfu_no_serial_nrf52832_xxAA_s132_6.0.0.dir/__/__/mesh/prov/src/prov_beacon.c.obj
 .debug_info    0x000000000003628f     0x2108 CMakeFiles/dfu_no_serial_nrf52832_xxAA_s132_6.0.0.dir/__/__/mesh/prov/src/prov_utils.c.obj
 .debug_info    0x0000000000038397     0x4a03 CMakeFiles/dfu_no_serial_nrf52832_xxAA_s132_6.0.0.dir/__/__/mesh/prov/src/prov_bearer_adv.c.obj
 .debug_info    0x000000000003cd9a     0x5f7e CMakeFiles/dfu_no_serial_nrf52832_xxAA_s132_6.0.0.dir/__/__/mesh/dfu/src/nrf_mesh_dfu.c.obj
 .debug_info    0x0000000000042d18     0x1170 CMakeFiles/dfu_no_serial_nrf52832_xxAA_s132_6.0.0.dir/__/common/src/app_error_weak.c.obj
 .debug_info    0x0000000000043e88      0x994 CMakeFiles/dfu_no_serial_nrf52832_xxAA_s132_6.0.0.dir/__/common/src/assertion_handler_weak.c.obj
 .debug_info    0x000000000004481c      0xcfd CMakeFiles/dfu_no_serial_nrf52832_xxAA_s132_6.0.0.dir/__/__/mesh/core/src/nrf_mesh_configure.c.obj
 .debug_info    0x0000000000045519      0xbcc CMakeFiles/dfu_no_serial_nrf52832_xxAA_s132_6.0.0.dir/__/__/mesh/core/src/aes.c.obj
 .debug_info    0x00000000000460e5      0xa51 CMakeFiles/dfu_no_serial_nrf52832_xxAA_s132_6.0.0.dir/__/__/mesh/core/src/msg_cache.c.obj
 .debug_info    0x0000000000046b36     0x6184 CMakeFiles/dfu_no_serial_nrf52832_xxAA_s132_6.0.0.dir/__/__/mesh/core/src/transport.c.obj
 .debug_info    0x000000000004ccba     0x1763 CMakeFiles/dfu_no_serial_nrf52832_xxAA_s132_6.0.0.dir/__/__/mesh/core/src/event.c.obj
 .debug_info    0x000000000004e41d     0x19a8 CMakeFiles/dfu_no_serial_nrf52832_xxAA_s132_6.0.0.dir/__/__/mesh/core/src/packet_buffer.c.obj
 .debug_info    0x000000000004fdc5     0x2372 CMakeFiles/dfu_no_serial_nrf52832_xxAA_s132_6.0.0.dir/__/__/mesh/core/src/flash_manager_defrag.c.obj
 .debug_info    0x0000000000052137      0xd9a CMakeFiles/dfu_no_serial_nrf52832_xxAA_s132_6.0.0.dir/__/__/mesh/core/src/fifo.c.obj
 .debug_info    0x0000000000052ed1      0xb38 CMakeFiles/dfu_no_serial_nrf52832_xxAA_s132_6.0.0.dir/__/__/mesh/core/src/nrf_flash.c.obj
 .debug_info    0x0000000000053a09     0x118f CMakeFiles/dfu_no_serial_nrf52832_xxAA_s132_6.0.0.dir/__/__/mesh/core/src/packet_mgr.c.obj
 .debug_info    0x0000000000054b98     0x3735 CMakeFiles/dfu_no_serial_nrf52832_xxAA_s132_6.0.0.dir/__/__/mesh/core/src/net_state.c.obj
 .debug_info    0x00000000000582cd     0x1be8 CMakeFiles/dfu_no_serial_nrf52832_xxAA_s132_6.0.0.dir/__/__/mesh/core/src/mesh_flash.c.obj
 .debug_info    0x0000000000059eb5      0xa72 CMakeFiles/dfu_no_serial_nrf52832_xxAA_s132_6.0.0.dir/__/__/mesh/core/src/nrf_mesh_utils.c.obj
 .debug_info    0x000000000005a927     0x2678 CMakeFiles/dfu_no_serial_nrf52832_xxAA_s132_6.0.0.dir/__/__/mesh/core/src/nrf_mesh.c.obj
 .debug_info    0x000000000005cf9f      0xb10 CMakeFiles/dfu_no_serial_nrf52832_xxAA_s132_6.0.0.dir/__/__/mesh/core/src/queue.c.obj
 .debug_info    0x000000000005daaf      0x549 CMakeFiles/dfu_no_serial_nrf52832_xxAA_s132_6.0.0.dir/__/__/mesh/core/src/hal.c.obj
 .debug_info    0x000000000005dff8      0xe8f CMakeFiles/dfu_no_serial_nrf52832_xxAA_s132_6.0.0.dir/__/__/mesh/core/src/aes_cmac.c.obj
 .debug_info    0x000000000005ee87     0x13bd CMakeFiles/dfu_no_serial_nrf52832_xxAA_s132_6.0.0.dir/__/__/mesh/core/src/timer_scheduler.c.obj
 .debug_info    0x0000000000060244      0xdfa CMakeFiles/dfu_no_serial_nrf52832_xxAA_s132_6.0.0.dir/__/__/mesh/core/src/timer.c.obj
 .debug_info    0x000000000006103e      0x20c CMakeFiles/dfu_no_serial_nrf52832_xxAA_s132_6.0.0.dir/__/__/mesh/core/src/ticker.c.obj
 .debug_info    0x000000000006124a      0x4b6 CMakeFiles/dfu_no_serial_nrf52832_xxAA_s132_6.0.0.dir/__/__/mesh/core/src/rand.c.obj
 .debug_info    0x0000000000061700      0xaef CMakeFiles/dfu_no_serial_nrf52832_xxAA_s132_6.0.0.dir/__/__/mesh/core/src/nrf_mesh_opt.c.obj
 .debug_info    0x00000000000621ef     0x1bc6 CMakeFiles/dfu_no_serial_nrf52832_xxAA_s132_6.0.0.dir/__/__/mesh/core/src/timeslot.c.obj
 .debug_info    0x0000000000063db5     0x1c7b CMakeFiles/dfu_no_serial_nrf52832_xxAA_s132_6.0.0.dir/__/__/mesh/core/src/bearer_event.c.obj
 .debug_info    0x0000000000065a30     0x181f CMakeFiles/dfu_no_serial_nrf52832_xxAA_s132_6.0.0.dir/__/__/mesh/core/src/enc.c.obj
 .debug_info    0x000000000006724f     0x1cc0 CMakeFiles/dfu_no_serial_nrf52832_xxAA_s132_6.0.0.dir/__/__/mesh/core/src/network.c.obj
 .debug_info    0x0000000000068f0f     0x1de3 CMakeFiles/dfu_no_serial_nrf52832_xxAA_s132_6.0.0.dir/__/__/mesh/core/src/net_packet.c.obj
 .debug_info    0x000000000006acf2      0xe51 CMakeFiles/dfu_no_serial_nrf52832_xxAA_s132_6.0.0.dir/__/__/mesh/core/src/msqueue.c.obj
 .debug_info    0x000000000006bb43      0x4c0 CMakeFiles/dfu_no_serial_nrf52832_xxAA_s132_6.0.0.dir/__/__/mesh/core/src/nrf_mesh_keygen.c.obj
 .debug_info    0x000000000006c003      0x573 CMakeFiles/dfu_no_serial_nrf52832_xxAA_s132_6.0.0.dir/__/__/mesh/core/src/list.c.obj
 .debug_info    0x000000000006c576      0xe8b CMakeFiles/dfu_no_serial_nrf52832_xxAA_s132_6.0.0.dir/__/__/mesh/core/src/log.c.obj
 .debug_info    0x000000000006d401     0x3cc6 CMakeFiles/dfu_no_serial_nrf52832_xxAA_s132_6.0.0.dir/__/__/mesh/core/src/flash_manager.c.obj
 .debug_info    0x00000000000710c7     0x120f CMakeFiles/dfu_no_serial_nrf52832_xxAA_s132_6.0.0.dir/__/__/mesh/core/src/ccm_soft.c.obj
 .debug_info    0x00000000000722d6      0xa87 CMakeFiles/dfu_no_serial_nrf52832_xxAA_s132_6.0.0.dir/__/__/mesh/core/src/replay_cache.c.obj
 .debug_info    0x0000000000072d5d     0x17c2 CMakeFiles/dfu_no_serial_nrf52832_xxAA_s132_6.0.0.dir/__/__/mesh/core/src/beacon.c.obj
 .debug_info    0x000000000007451f      0xb98 CMakeFiles/dfu_no_serial_nrf52832_xxAA_s132_6.0.0.dir/__/__/mesh/core/src/flash_manager_internal.c.obj
 .debug_info    0x00000000000750b7     0x1264 CMakeFiles/dfu_no_serial_nrf52832_xxAA_s132_6.0.0.dir/__/__/mesh/core/src/core_tx.c.obj
 .debug_info    0x000000000007631b     0x24e7 CMakeFiles/dfu_no_serial_nrf52832_xxAA_s132_6.0.0.dir/__/__/mesh/core/src/heartbeat.c.obj
 .debug_info    0x0000000000078802     0x2a3c CMakeFiles/dfu_no_serial_nrf52832_xxAA_s132_6.0.0.dir/__/__/mesh/core/src/net_beacon.c.obj
 .debug_info    0x000000000007b23e     0x197e CMakeFiles/dfu_no_serial_nrf52832_xxAA_s132_6.0.0.dir/__/__/mesh/core/src/core_tx_adv.c.obj
 .debug_info    0x000000000007cbbc     0x116a CMakeFiles/dfu_no_serial_nrf52832_xxAA_s132_6.0.0.dir/__/__/mesh/bearer/src/ad_listener.c.obj
 .debug_info    0x000000000007dd26      0xfc4 CMakeFiles/dfu_no_serial_nrf52832_xxAA_s132_6.0.0.dir/__/__/mesh/bearer/src/ad_type_filter.c.obj
 .debug_info    0x000000000007ecea     0x29fb CMakeFiles/dfu_no_serial_nrf52832_xxAA_s132_6.0.0.dir/__/__/mesh/bearer/src/advertiser.c.obj
 .debug_info    0x00000000000816e5     0x1a38 CMakeFiles/dfu_no_serial_nrf52832_xxAA_s132_6.0.0.dir/__/__/mesh/bearer/src/bearer_handler.c.obj
 .debug_info    0x000000000008311d     0x19a6 CMakeFiles/dfu_no_serial_nrf52832_xxAA_s132_6.0.0.dir/__/__/mesh/bearer/src/broadcast.c.obj
 .debug_info    0x0000000000084ac3      0xd3e CMakeFiles/dfu_no_serial_nrf52832_xxAA_s132_6.0.0.dir/__/__/mesh/bearer/src/filter_engine.c.obj
 .debug_info    0x0000000000085801      0x8d7 CMakeFiles/dfu_no_serial_nrf52832_xxAA_s132_6.0.0.dir/__/__/mesh/bearer/src/radio_config.c.obj
 .debug_info    0x00000000000860d8     0x2c83 CMakeFiles/dfu_no_serial_nrf52832_xxAA_s132_6.0.0.dir/__/__/mesh/bearer/src/scanner.c.obj
 .debug_info    0x0000000000088d5b     0x1116 CMakeFiles/dfu_no_serial_nrf52832_xxAA_s132_6.0.0.dir/home/mazzer/work/nordic/sdk/nRF5_SDK_15.0.0/modules/nrfx/mdk/system_nrf52.c.obj
 .debug_info    0x0000000000089e71       0x26 CMakeFiles/dfu_no_serial_nrf52832_xxAA_s132_6.0.0.dir/home/mazzer/work/nordic/sdk/nRF5_SDK_15.0.0/modules/nrfx/mdk/gcc_startup_nrf52.S.obj
 .debug_info    0x0000000000089e97      0xae7 CMakeFiles/dfu_no_serial_nrf52832_xxAA_s132_6.0.0.dir/home/mazzer/work/nordic/sdk/nRF5_SDK_15.0.0/components/libraries/util/app_error.c.obj
 .debug_info    0x000000000008a97e      0x96d CMakeFiles/dfu_no_serial_nrf52832_xxAA_s132_6.0.0.dir/home/mazzer/work/nordic/sdk/nRF5_SDK_15.0.0/components/libraries/util/app_error_handler_gcc.c.obj
 .debug_info    0x000000000008b2eb     0x2b01 ../../external/rtt/librtt_nrf52832_xxAA.a(SEGGER_RTT.c.obj)
 .debug_info    0x000000000008ddec     0x11e1 ../../external/rtt/librtt_nrf52832_xxAA.a(SEGGER_RTT_printf.c.obj)
 .debug_info    0x000000000008efcd     0x9ae1 ../../external/micro-ecc/libuECC_nrf52832_xxAA.a(uECC.c.obj)

.debug_abbrev   0x0000000000000000    0x1145b
 .debug_abbrev  0x0000000000000000      0x514 CMakeFiles/dfu_no_serial_nrf52832_xxAA_s132_6.0.0.dir/src/main.c.obj
 .debug_abbrev  0x0000000000000514      0x3b3 CMakeFiles/dfu_no_serial_nrf52832_xxAA_s132_6.0.0.dir/__/__/mesh/stack/src/mesh_stack.c.obj
 .debug_abbrev  0x00000000000008c7      0x408 CMakeFiles/dfu_no_serial_nrf52832_xxAA_s132_6.0.0.dir/__/common/src/mesh_softdevice_init.c.obj
 .debug_abbrev  0x0000000000000ccf      0x393 CMakeFiles/dfu_no_serial_nrf52832_xxAA_s132_6.0.0.dir/__/common/src/mesh_provisionee.c.obj
 .debug_abbrev  0x0000000000001062      0x372 CMakeFiles/dfu_no_serial_nrf52832_xxAA_s132_6.0.0.dir/__/common/src/simple_hal.c.obj
 .debug_abbrev  0x00000000000013d4      0x423 CMakeFiles/dfu_no_serial_nrf52832_xxAA_s132_6.0.0.dir/__/__/mesh/access/src/access_publish.c.obj
 .debug_abbrev  0x00000000000017f7      0x66d CMakeFiles/dfu_no_serial_nrf52832_xxAA_s132_6.0.0.dir/__/__/mesh/access/src/access.c.obj
 .debug_abbrev  0x0000000000001e64      0x448 CMakeFiles/dfu_no_serial_nrf52832_xxAA_s132_6.0.0.dir/__/__/mesh/access/src/access_reliable.c.obj
 .debug_abbrev  0x00000000000022ac      0x5b0 CMakeFiles/dfu_no_serial_nrf52832_xxAA_s132_6.0.0.dir/__/__/mesh/access/src/device_state_manager.c.obj
 .debug_abbrev  0x000000000000285c      0x2e4 CMakeFiles/dfu_no_serial_nrf52832_xxAA_s132_6.0.0.dir/__/__/models/config/src/composition_data.c.obj
 .debug_abbrev  0x0000000000002b40      0x56c CMakeFiles/dfu_no_serial_nrf52832_xxAA_s132_6.0.0.dir/__/__/models/config/src/config_server.c.obj
 .debug_abbrev  0x00000000000030ac       0x95 CMakeFiles/dfu_no_serial_nrf52832_xxAA_s132_6.0.0.dir/__/__/models/config/src/packed_index_list.c.obj
 .debug_abbrev  0x0000000000003141      0x505 CMakeFiles/dfu_no_serial_nrf52832_xxAA_s132_6.0.0.dir/__/__/models/health/src/health_server.c.obj
 .debug_abbrev  0x0000000000003646      0x404 CMakeFiles/dfu_no_serial_nrf52832_xxAA_s132_6.0.0.dir/__/__/mesh/prov/src/prov_provisioner.c.obj
 .debug_abbrev  0x0000000000003a4a      0x47e CMakeFiles/dfu_no_serial_nrf52832_xxAA_s132_6.0.0.dir/__/__/mesh/prov/src/prov_provisionee.c.obj
 .debug_abbrev  0x0000000000003ec8      0x450 CMakeFiles/dfu_no_serial_nrf52832_xxAA_s132_6.0.0.dir/__/__/mesh/prov/src/nrf_mesh_prov.c.obj
 .debug_abbrev  0x0000000000004318      0x2e6 CMakeFiles/dfu_no_serial_nrf52832_xxAA_s132_6.0.0.dir/__/__/mesh/prov/src/provisioning.c.obj
 .debug_abbrev  0x00000000000045fe      0x2fc CMakeFiles/dfu_no_serial_nrf52832_xxAA_s132_6.0.0.dir/__/__/mesh/prov/src/prov_beacon.c.obj
 .debug_abbrev  0x00000000000048fa      0x3f3 CMakeFiles/dfu_no_serial_nrf52832_xxAA_s132_6.0.0.dir/__/__/mesh/prov/src/prov_utils.c.obj
 .debug_abbrev  0x0000000000004ced      0x55d CMakeFiles/dfu_no_serial_nrf52832_xxAA_s132_6.0.0.dir/__/__/mesh/prov/src/prov_bearer_adv.c.obj
 .debug_abbrev  0x000000000000524a      0x577 CMakeFiles/dfu_no_serial_nrf52832_xxAA_s132_6.0.0.dir/__/__/mesh/dfu/src/nrf_mesh_dfu.c.obj
 .debug_abbrev  0x00000000000057c1      0x2d5 CMakeFiles/dfu_no_serial_nrf52832_xxAA_s132_6.0.0.dir/__/common/src/app_error_weak.c.obj
 .debug_abbrev  0x0000000000005a96      0x1f6 CMakeFiles/dfu_no_serial_nrf52832_xxAA_s132_6.0.0.dir/__/common/src/assertion_handler_weak.c.obj
 .debug_abbrev  0x0000000000005c8c      0x24b CMakeFiles/dfu_no_serial_nrf52832_xxAA_s132_6.0.0.dir/__/__/mesh/core/src/nrf_mesh_configure.c.obj
 .debug_abbrev  0x0000000000005ed7      0x266 CMakeFiles/dfu_no_serial_nrf52832_xxAA_s132_6.0.0.dir/__/__/mesh/core/src/aes.c.obj
 .debug_abbrev  0x000000000000613d      0x24e CMakeFiles/dfu_no_serial_nrf52832_xxAA_s132_6.0.0.dir/__/__/mesh/core/src/msg_cache.c.obj
 .debug_abbrev  0x000000000000638b      0x5f7 CMakeFiles/dfu_no_serial_nrf52832_xxAA_s132_6.0.0.dir/__/__/mesh/core/src/transport.c.obj
 .debug_abbrev  0x0000000000006982      0x2d2 CMakeFiles/dfu_no_serial_nrf52832_xxAA_s132_6.0.0.dir/__/__/mesh/core/src/event.c.obj
 .debug_abbrev  0x0000000000006c54      0x44c CMakeFiles/dfu_no_serial_nrf52832_xxAA_s132_6.0.0.dir/__/__/mesh/core/src/packet_buffer.c.obj
 .debug_abbrev  0x00000000000070a0      0x526 CMakeFiles/dfu_no_serial_nrf52832_xxAA_s132_6.0.0.dir/__/__/mesh/core/src/flash_manager_defrag.c.obj
 .debug_abbrev  0x00000000000075c6      0x2fc CMakeFiles/dfu_no_serial_nrf52832_xxAA_s132_6.0.0.dir/__/__/mesh/core/src/fifo.c.obj
 .debug_abbrev  0x00000000000078c2      0x22d CMakeFiles/dfu_no_serial_nrf52832_xxAA_s132_6.0.0.dir/__/__/mesh/core/src/nrf_flash.c.obj
 .debug_abbrev  0x0000000000007aef      0x3bf CMakeFiles/dfu_no_serial_nrf52832_xxAA_s132_6.0.0.dir/__/__/mesh/core/src/packet_mgr.c.obj
 .debug_abbrev  0x0000000000007eae      0x5a6 CMakeFiles/dfu_no_serial_nrf52832_xxAA_s132_6.0.0.dir/__/__/mesh/core/src/net_state.c.obj
 .debug_abbrev  0x0000000000008454      0x467 CMakeFiles/dfu_no_serial_nrf52832_xxAA_s132_6.0.0.dir/__/__/mesh/core/src/mesh_flash.c.obj
 .debug_abbrev  0x00000000000088bb      0x244 CMakeFiles/dfu_no_serial_nrf52832_xxAA_s132_6.0.0.dir/__/__/mesh/core/src/nrf_mesh_utils.c.obj
 .debug_abbrev  0x0000000000008aff      0x47a CMakeFiles/dfu_no_serial_nrf52832_xxAA_s132_6.0.0.dir/__/__/mesh/core/src/nrf_mesh.c.obj
 .debug_abbrev  0x0000000000008f79      0x247 CMakeFiles/dfu_no_serial_nrf52832_xxAA_s132_6.0.0.dir/__/__/mesh/core/src/queue.c.obj
 .debug_abbrev  0x00000000000091c0      0x1ed CMakeFiles/dfu_no_serial_nrf52832_xxAA_s132_6.0.0.dir/__/__/mesh/core/src/hal.c.obj
 .debug_abbrev  0x00000000000093ad      0x2e3 CMakeFiles/dfu_no_serial_nrf52832_xxAA_s132_6.0.0.dir/__/__/mesh/core/src/aes_cmac.c.obj
 .debug_abbrev  0x0000000000009690      0x3f7 CMakeFiles/dfu_no_serial_nrf52832_xxAA_s132_6.0.0.dir/__/__/mesh/core/src/timer_scheduler.c.obj
 .debug_abbrev  0x0000000000009a87      0x378 CMakeFiles/dfu_no_serial_nrf52832_xxAA_s132_6.0.0.dir/__/__/mesh/core/src/timer.c.obj
 .debug_abbrev  0x0000000000009dff      0x154 CMakeFiles/dfu_no_serial_nrf52832_xxAA_s132_6.0.0.dir/__/__/mesh/core/src/ticker.c.obj
 .debug_abbrev  0x0000000000009f53      0x22e CMakeFiles/dfu_no_serial_nrf52832_xxAA_s132_6.0.0.dir/__/__/mesh/core/src/rand.c.obj
 .debug_abbrev  0x000000000000a181      0x24c CMakeFiles/dfu_no_serial_nrf52832_xxAA_s132_6.0.0.dir/__/__/mesh/core/src/nrf_mesh_opt.c.obj
 .debug_abbrev  0x000000000000a3cd      0x4e5 CMakeFiles/dfu_no_serial_nrf52832_xxAA_s132_6.0.0.dir/__/__/mesh/core/src/timeslot.c.obj
 .debug_abbrev  0x000000000000a8b2      0x4f9 CMakeFiles/dfu_no_serial_nrf52832_xxAA_s132_6.0.0.dir/__/__/mesh/core/src/bearer_event.c.obj
 .debug_abbrev  0x000000000000adab      0x39b CMakeFiles/dfu_no_serial_nrf52832_xxAA_s132_6.0.0.dir/__/__/mesh/core/src/enc.c.obj
 .debug_abbrev  0x000000000000b146      0x4e2 CMakeFiles/dfu_no_serial_nrf52832_xxAA_s132_6.0.0.dir/__/__/mesh/core/src/network.c.obj
 .debug_abbrev  0x000000000000b628      0x4a1 CMakeFiles/dfu_no_serial_nrf52832_xxAA_s132_6.0.0.dir/__/__/mesh/core/src/net_packet.c.obj
 .debug_abbrev  0x000000000000bac9      0x2e9 CMakeFiles/dfu_no_serial_nrf52832_xxAA_s132_6.0.0.dir/__/__/mesh/core/src/msqueue.c.obj
 .debug_abbrev  0x000000000000bdb2      0x156 CMakeFiles/dfu_no_serial_nrf52832_xxAA_s132_6.0.0.dir/__/__/mesh/core/src/nrf_mesh_keygen.c.obj
 .debug_abbrev  0x000000000000bf08      0x1ec CMakeFiles/dfu_no_serial_nrf52832_xxAA_s132_6.0.0.dir/__/__/mesh/core/src/list.c.obj
 .debug_abbrev  0x000000000000c0f4      0x2b4 CMakeFiles/dfu_no_serial_nrf52832_xxAA_s132_6.0.0.dir/__/__/mesh/core/src/log.c.obj
 .debug_abbrev  0x000000000000c3a8      0x538 CMakeFiles/dfu_no_serial_nrf52832_xxAA_s132_6.0.0.dir/__/__/mesh/core/src/flash_manager.c.obj
 .debug_abbrev  0x000000000000c8e0      0x2f5 CMakeFiles/dfu_no_serial_nrf52832_xxAA_s132_6.0.0.dir/__/__/mesh/core/src/ccm_soft.c.obj
 .debug_abbrev  0x000000000000cbd5      0x29b CMakeFiles/dfu_no_serial_nrf52832_xxAA_s132_6.0.0.dir/__/__/mesh/core/src/replay_cache.c.obj
 .debug_abbrev  0x000000000000ce70      0x310 CMakeFiles/dfu_no_serial_nrf52832_xxAA_s132_6.0.0.dir/__/__/mesh/core/src/beacon.c.obj
 .debug_abbrev  0x000000000000d180      0x2a4 CMakeFiles/dfu_no_serial_nrf52832_xxAA_s132_6.0.0.dir/__/__/mesh/core/src/flash_manager_internal.c.obj
 .debug_abbrev  0x000000000000d424      0x2fc CMakeFiles/dfu_no_serial_nrf52832_xxAA_s132_6.0.0.dir/__/__/mesh/core/src/core_tx.c.obj
 .debug_abbrev  0x000000000000d720      0x4e3 CMakeFiles/dfu_no_serial_nrf52832_xxAA_s132_6.0.0.dir/__/__/mesh/core/src/heartbeat.c.obj
 .debug_abbrev  0x000000000000dc03      0x512 CMakeFiles/dfu_no_serial_nrf52832_xxAA_s132_6.0.0.dir/__/__/mesh/core/src/net_beacon.c.obj
 .debug_abbrev  0x000000000000e115      0x330 CMakeFiles/dfu_no_serial_nrf52832_xxAA_s132_6.0.0.dir/__/__/mesh/core/src/core_tx_adv.c.obj
 .debug_abbrev  0x000000000000e445      0x340 CMakeFiles/dfu_no_serial_nrf52832_xxAA_s132_6.0.0.dir/__/__/mesh/bearer/src/ad_listener.c.obj
 .debug_abbrev  0x000000000000e785      0x375 CMakeFiles/dfu_no_serial_nrf52832_xxAA_s132_6.0.0.dir/__/__/mesh/bearer/src/ad_type_filter.c.obj
 .debug_abbrev  0x000000000000eafa      0x561 CMakeFiles/dfu_no_serial_nrf52832_xxAA_s132_6.0.0.dir/__/__/mesh/bearer/src/advertiser.c.obj
 .debug_abbrev  0x000000000000f05b      0x3fa CMakeFiles/dfu_no_serial_nrf52832_xxAA_s132_6.0.0.dir/__/__/mesh/bearer/src/bearer_handler.c.obj
 .debug_abbrev  0x000000000000f455      0x3eb CMakeFiles/dfu_no_serial_nrf52832_xxAA_s132_6.0.0.dir/__/__/mesh/bearer/src/broadcast.c.obj
 .debug_abbrev  0x000000000000f840      0x2af CMakeFiles/dfu_no_serial_nrf52832_xxAA_s132_6.0.0.dir/__/__/mesh/bearer/src/filter_engine.c.obj
 .debug_abbrev  0x000000000000faef      0x1e4 CMakeFiles/dfu_no_serial_nrf52832_xxAA_s132_6.0.0.dir/__/__/mesh/bearer/src/radio_config.c.obj
 .debug_abbrev  0x000000000000fcd3      0x59f CMakeFiles/dfu_no_serial_nrf52832_xxAA_s132_6.0.0.dir/__/__/mesh/bearer/src/scanner.c.obj
 .debug_abbrev  0x0000000000010272      0x1df CMakeFiles/dfu_no_serial_nrf52832_xxAA_s132_6.0.0.dir/home/mazzer/work/nordic/sdk/nRF5_SDK_15.0.0/modules/nrfx/mdk/system_nrf52.c.obj
 .debug_abbrev  0x0000000000010451       0x14 CMakeFiles/dfu_no_serial_nrf52832_xxAA_s132_6.0.0.dir/home/mazzer/work/nordic/sdk/nRF5_SDK_15.0.0/modules/nrfx/mdk/gcc_startup_nrf52.S.obj
 .debug_abbrev  0x0000000000010465      0x232 CMakeFiles/dfu_no_serial_nrf52832_xxAA_s132_6.0.0.dir/home/mazzer/work/nordic/sdk/nRF5_SDK_15.0.0/components/libraries/util/app_error.c.obj
 .debug_abbrev  0x0000000000010697      0x1bd CMakeFiles/dfu_no_serial_nrf52832_xxAA_s132_6.0.0.dir/home/mazzer/work/nordic/sdk/nRF5_SDK_15.0.0/components/libraries/util/app_error_handler_gcc.c.obj
 .debug_abbrev  0x0000000000010854      0x3d2 ../../external/rtt/librtt_nrf52832_xxAA.a(SEGGER_RTT.c.obj)
 .debug_abbrev  0x0000000000010c26      0x353 ../../external/rtt/librtt_nrf52832_xxAA.a(SEGGER_RTT_printf.c.obj)
 .debug_abbrev  0x0000000000010f79      0x4e2 ../../external/micro-ecc/libuECC_nrf52832_xxAA.a(uECC.c.obj)

.debug_loc      0x0000000000000000    0x4a2f8
 .debug_loc     0x0000000000000000      0x2f8 CMakeFiles/dfu_no_serial_nrf52832_xxAA_s132_6.0.0.dir/src/main.c.obj
 .debug_loc     0x00000000000002f8      0x1a3 CMakeFiles/dfu_no_serial_nrf52832_xxAA_s132_6.0.0.dir/__/__/mesh/stack/src/mesh_stack.c.obj
 .debug_loc     0x000000000000049b      0x1bb CMakeFiles/dfu_no_serial_nrf52832_xxAA_s132_6.0.0.dir/__/common/src/mesh_softdevice_init.c.obj
 .debug_loc     0x0000000000000656      0x16b CMakeFiles/dfu_no_serial_nrf52832_xxAA_s132_6.0.0.dir/__/common/src/mesh_provisionee.c.obj
 .debug_loc     0x00000000000007c1      0x29c CMakeFiles/dfu_no_serial_nrf52832_xxAA_s132_6.0.0.dir/__/common/src/simple_hal.c.obj
 .debug_loc     0x0000000000000a5d      0x939 CMakeFiles/dfu_no_serial_nrf52832_xxAA_s132_6.0.0.dir/__/__/mesh/access/src/access_publish.c.obj
 .debug_loc     0x0000000000001396     0x3963 CMakeFiles/dfu_no_serial_nrf52832_xxAA_s132_6.0.0.dir/__/__/mesh/access/src/access.c.obj
 .debug_loc     0x0000000000004cf9      0xa76 CMakeFiles/dfu_no_serial_nrf52832_xxAA_s132_6.0.0.dir/__/__/mesh/access/src/access_reliable.c.obj
 .debug_loc     0x000000000000576f     0x963e CMakeFiles/dfu_no_serial_nrf52832_xxAA_s132_6.0.0.dir/__/__/mesh/access/src/device_state_manager.c.obj
 .debug_loc     0x000000000000edad      0x33c CMakeFiles/dfu_no_serial_nrf52832_xxAA_s132_6.0.0.dir/__/__/models/config/src/composition_data.c.obj
 .debug_loc     0x000000000000f0e9     0xa40a CMakeFiles/dfu_no_serial_nrf52832_xxAA_s132_6.0.0.dir/__/__/models/config/src/config_server.c.obj
 .debug_loc     0x00000000000194f3       0xa8 CMakeFiles/dfu_no_serial_nrf52832_xxAA_s132_6.0.0.dir/__/__/models/config/src/packed_index_list.c.obj
 .debug_loc     0x000000000001959b     0x3724 CMakeFiles/dfu_no_serial_nrf52832_xxAA_s132_6.0.0.dir/__/__/models/health/src/health_server.c.obj
 .debug_loc     0x000000000001ccbf      0x919 CMakeFiles/dfu_no_serial_nrf52832_xxAA_s132_6.0.0.dir/__/__/mesh/prov/src/prov_provisioner.c.obj
 .debug_loc     0x000000000001d5d8      0xa9f CMakeFiles/dfu_no_serial_nrf52832_xxAA_s132_6.0.0.dir/__/__/mesh/prov/src/prov_provisionee.c.obj
 .debug_loc     0x000000000001e077      0xaf3 CMakeFiles/dfu_no_serial_nrf52832_xxAA_s132_6.0.0.dir/__/__/mesh/prov/src/nrf_mesh_prov.c.obj
 .debug_loc     0x000000000001eb6a      0xc0a CMakeFiles/dfu_no_serial_nrf52832_xxAA_s132_6.0.0.dir/__/__/mesh/prov/src/provisioning.c.obj
 .debug_loc     0x000000000001f774      0x255 CMakeFiles/dfu_no_serial_nrf52832_xxAA_s132_6.0.0.dir/__/__/mesh/prov/src/prov_beacon.c.obj
 .debug_loc     0x000000000001f9c9      0x492 CMakeFiles/dfu_no_serial_nrf52832_xxAA_s132_6.0.0.dir/__/__/mesh/prov/src/prov_utils.c.obj
 .debug_loc     0x000000000001fe5b     0x2722 CMakeFiles/dfu_no_serial_nrf52832_xxAA_s132_6.0.0.dir/__/__/mesh/prov/src/prov_bearer_adv.c.obj
 .debug_loc     0x000000000002257d     0x172c CMakeFiles/dfu_no_serial_nrf52832_xxAA_s132_6.0.0.dir/__/__/mesh/dfu/src/nrf_mesh_dfu.c.obj
 .debug_loc     0x0000000000023ca9      0x1c6 CMakeFiles/dfu_no_serial_nrf52832_xxAA_s132_6.0.0.dir/__/common/src/app_error_weak.c.obj
 .debug_loc     0x0000000000023e6f       0x2c CMakeFiles/dfu_no_serial_nrf52832_xxAA_s132_6.0.0.dir/__/common/src/assertion_handler_weak.c.obj
 .debug_loc     0x0000000000023e9b       0x2c CMakeFiles/dfu_no_serial_nrf52832_xxAA_s132_6.0.0.dir/__/__/mesh/core/src/nrf_mesh_configure.c.obj
 .debug_loc     0x0000000000023ec7       0x89 CMakeFiles/dfu_no_serial_nrf52832_xxAA_s132_6.0.0.dir/__/__/mesh/core/src/aes.c.obj
 .debug_loc     0x0000000000023f50       0xab CMakeFiles/dfu_no_serial_nrf52832_xxAA_s132_6.0.0.dir/__/__/mesh/core/src/msg_cache.c.obj
 .debug_loc     0x0000000000023ffb     0x41e3 CMakeFiles/dfu_no_serial_nrf52832_xxAA_s132_6.0.0.dir/__/__/mesh/core/src/transport.c.obj
 .debug_loc     0x00000000000281de      0x169 CMakeFiles/dfu_no_serial_nrf52832_xxAA_s132_6.0.0.dir/__/__/mesh/core/src/event.c.obj
 .debug_loc     0x0000000000028347      0xcfb CMakeFiles/dfu_no_serial_nrf52832_xxAA_s132_6.0.0.dir/__/__/mesh/core/src/packet_buffer.c.obj
 .debug_loc     0x0000000000029042      0xbd0 CMakeFiles/dfu_no_serial_nrf52832_xxAA_s132_6.0.0.dir/__/__/mesh/core/src/flash_manager_defrag.c.obj
 .debug_loc     0x0000000000029c12      0x86b CMakeFiles/dfu_no_serial_nrf52832_xxAA_s132_6.0.0.dir/__/__/mesh/core/src/fifo.c.obj
 .debug_loc     0x000000000002a47d      0x194 CMakeFiles/dfu_no_serial_nrf52832_xxAA_s132_6.0.0.dir/__/__/mesh/core/src/nrf_flash.c.obj
 .debug_loc     0x000000000002a611      0x788 CMakeFiles/dfu_no_serial_nrf52832_xxAA_s132_6.0.0.dir/__/__/mesh/core/src/packet_mgr.c.obj
 .debug_loc     0x000000000002ad99      0xfdf CMakeFiles/dfu_no_serial_nrf52832_xxAA_s132_6.0.0.dir/__/__/mesh/core/src/net_state.c.obj
 .debug_loc     0x000000000002bd78      0xfd3 CMakeFiles/dfu_no_serial_nrf52832_xxAA_s132_6.0.0.dir/__/__/mesh/core/src/mesh_flash.c.obj
 .debug_loc     0x000000000002cd4b      0x185 CMakeFiles/dfu_no_serial_nrf52832_xxAA_s132_6.0.0.dir/__/__/mesh/core/src/nrf_mesh_utils.c.obj
 .debug_loc     0x000000000002ced0      0x6be CMakeFiles/dfu_no_serial_nrf52832_xxAA_s132_6.0.0.dir/__/__/mesh/core/src/nrf_mesh.c.obj
 .debug_loc     0x000000000002d58e      0x186 CMakeFiles/dfu_no_serial_nrf52832_xxAA_s132_6.0.0.dir/__/__/mesh/core/src/queue.c.obj
 .debug_loc     0x000000000002d714       0x84 CMakeFiles/dfu_no_serial_nrf52832_xxAA_s132_6.0.0.dir/__/__/mesh/core/src/hal.c.obj
 .debug_loc     0x000000000002d798      0xb75 CMakeFiles/dfu_no_serial_nrf52832_xxAA_s132_6.0.0.dir/__/__/mesh/core/src/aes_cmac.c.obj
 .debug_loc     0x000000000002e30d      0x5b7 CMakeFiles/dfu_no_serial_nrf52832_xxAA_s132_6.0.0.dir/__/__/mesh/core/src/timer_scheduler.c.obj
 .debug_loc     0x000000000002e8c4      0x608 CMakeFiles/dfu_no_serial_nrf52832_xxAA_s132_6.0.0.dir/__/__/mesh/core/src/timer.c.obj
 .debug_loc     0x000000000002eecc      0x1c5 CMakeFiles/dfu_no_serial_nrf52832_xxAA_s132_6.0.0.dir/__/__/mesh/core/src/rand.c.obj
 .debug_loc     0x000000000002f091      0x194 CMakeFiles/dfu_no_serial_nrf52832_xxAA_s132_6.0.0.dir/__/__/mesh/core/src/nrf_mesh_opt.c.obj
 .debug_loc     0x000000000002f225      0x4f1 CMakeFiles/dfu_no_serial_nrf52832_xxAA_s132_6.0.0.dir/__/__/mesh/core/src/timeslot.c.obj
 .debug_loc     0x000000000002f716      0x86e CMakeFiles/dfu_no_serial_nrf52832_xxAA_s132_6.0.0.dir/__/__/mesh/core/src/bearer_event.c.obj
 .debug_loc     0x000000000002ff84      0xb0d CMakeFiles/dfu_no_serial_nrf52832_xxAA_s132_6.0.0.dir/__/__/mesh/core/src/enc.c.obj
 .debug_loc     0x0000000000030a91      0x864 CMakeFiles/dfu_no_serial_nrf52832_xxAA_s132_6.0.0.dir/__/__/mesh/core/src/network.c.obj
 .debug_loc     0x00000000000312f5      0x978 CMakeFiles/dfu_no_serial_nrf52832_xxAA_s132_6.0.0.dir/__/__/mesh/core/src/net_packet.c.obj
 .debug_loc     0x0000000000031c6d      0x438 CMakeFiles/dfu_no_serial_nrf52832_xxAA_s132_6.0.0.dir/__/__/mesh/core/src/msqueue.c.obj
 .debug_loc     0x00000000000320a5      0x210 CMakeFiles/dfu_no_serial_nrf52832_xxAA_s132_6.0.0.dir/__/__/mesh/core/src/nrf_mesh_keygen.c.obj
 .debug_loc     0x00000000000322b5      0x565 CMakeFiles/dfu_no_serial_nrf52832_xxAA_s132_6.0.0.dir/__/__/mesh/core/src/list.c.obj
 .debug_loc     0x000000000003281a      0x3dd CMakeFiles/dfu_no_serial_nrf52832_xxAA_s132_6.0.0.dir/__/__/mesh/core/src/log.c.obj
 .debug_loc     0x0000000000032bf7     0x21f7 CMakeFiles/dfu_no_serial_nrf52832_xxAA_s132_6.0.0.dir/__/__/mesh/core/src/flash_manager.c.obj
 .debug_loc     0x0000000000034dee      0xb6e CMakeFiles/dfu_no_serial_nrf52832_xxAA_s132_6.0.0.dir/__/__/mesh/core/src/ccm_soft.c.obj
 .debug_loc     0x000000000003595c      0x16c CMakeFiles/dfu_no_serial_nrf52832_xxAA_s132_6.0.0.dir/__/__/mesh/core/src/replay_cache.c.obj
 .debug_loc     0x0000000000035ac8      0x416 CMakeFiles/dfu_no_serial_nrf52832_xxAA_s132_6.0.0.dir/__/__/mesh/core/src/beacon.c.obj
 .debug_loc     0x0000000000035ede      0x12d CMakeFiles/dfu_no_serial_nrf52832_xxAA_s132_6.0.0.dir/__/__/mesh/core/src/flash_manager_internal.c.obj
 .debug_loc     0x000000000003600b      0x4c4 CMakeFiles/dfu_no_serial_nrf52832_xxAA_s132_6.0.0.dir/__/__/mesh/core/src/core_tx.c.obj
 .debug_loc     0x00000000000364cf      0x6c5 CMakeFiles/dfu_no_serial_nrf52832_xxAA_s132_6.0.0.dir/__/__/mesh/core/src/heartbeat.c.obj
 .debug_loc     0x0000000000036b94      0x6e9 CMakeFiles/dfu_no_serial_nrf52832_xxAA_s132_6.0.0.dir/__/__/mesh/core/src/net_beacon.c.obj
 .debug_loc     0x000000000003727d      0x3d3 CMakeFiles/dfu_no_serial_nrf52832_xxAA_s132_6.0.0.dir/__/__/mesh/core/src/core_tx_adv.c.obj
 .debug_loc     0x0000000000037650      0x45f CMakeFiles/dfu_no_serial_nrf52832_xxAA_s132_6.0.0.dir/__/__/mesh/bearer/src/ad_listener.c.obj
 .debug_loc     0x0000000000037aaf      0x321 CMakeFiles/dfu_no_serial_nrf52832_xxAA_s132_6.0.0.dir/__/__/mesh/bearer/src/ad_type_filter.c.obj
 .debug_loc     0x0000000000037dd0     0x12af CMakeFiles/dfu_no_serial_nrf52832_xxAA_s132_6.0.0.dir/__/__/mesh/bearer/src/advertiser.c.obj
 .debug_loc     0x000000000003907f      0x394 CMakeFiles/dfu_no_serial_nrf52832_xxAA_s132_6.0.0.dir/__/__/mesh/bearer/src/bearer_handler.c.obj
 .debug_loc     0x0000000000039413      0x30e CMakeFiles/dfu_no_serial_nrf52832_xxAA_s132_6.0.0.dir/__/__/mesh/bearer/src/broadcast.c.obj
 .debug_loc     0x0000000000039721      0x179 CMakeFiles/dfu_no_serial_nrf52832_xxAA_s132_6.0.0.dir/__/__/mesh/bearer/src/filter_engine.c.obj
 .debug_loc     0x000000000003989a      0x239 CMakeFiles/dfu_no_serial_nrf52832_xxAA_s132_6.0.0.dir/__/__/mesh/bearer/src/radio_config.c.obj
 .debug_loc     0x0000000000039ad3      0x899 CMakeFiles/dfu_no_serial_nrf52832_xxAA_s132_6.0.0.dir/__/__/mesh/bearer/src/scanner.c.obj
 .debug_loc     0x000000000003a36c       0xca CMakeFiles/dfu_no_serial_nrf52832_xxAA_s132_6.0.0.dir/home/mazzer/work/nordic/sdk/nRF5_SDK_15.0.0/components/libraries/util/app_error.c.obj
 .debug_loc     0x000000000003a436       0x63 CMakeFiles/dfu_no_serial_nrf52832_xxAA_s132_6.0.0.dir/home/mazzer/work/nordic/sdk/nRF5_SDK_15.0.0/components/libraries/util/app_error_handler_gcc.c.obj
 .debug_loc     0x000000000003a499     0x3e95 ../../external/rtt/librtt_nrf52832_xxAA.a(SEGGER_RTT.c.obj)
 .debug_loc     0x000000000003e32e      0xec5 ../../external/rtt/librtt_nrf52832_xxAA.a(SEGGER_RTT_printf.c.obj)
 .debug_loc     0x000000000003f1f3     0xb105 ../../external/micro-ecc/libuECC_nrf52832_xxAA.a(uECC.c.obj)

.debug_aranges  0x0000000000000000     0x1ea8
 .debug_aranges
                0x0000000000000000       0x38 CMakeFiles/dfu_no_serial_nrf52832_xxAA_s132_6.0.0.dir/src/main.c.obj
 .debug_aranges
                0x0000000000000038       0x50 CMakeFiles/dfu_no_serial_nrf52832_xxAA_s132_6.0.0.dir/__/__/mesh/stack/src/mesh_stack.c.obj
 .debug_aranges
                0x0000000000000088       0x40 CMakeFiles/dfu_no_serial_nrf52832_xxAA_s132_6.0.0.dir/__/common/src/mesh_softdevice_init.c.obj
 .debug_aranges
                0x00000000000000c8       0x28 CMakeFiles/dfu_no_serial_nrf52832_xxAA_s132_6.0.0.dir/__/common/src/mesh_provisionee.c.obj
 .debug_aranges
                0x00000000000000f0       0x50 CMakeFiles/dfu_no_serial_nrf52832_xxAA_s132_6.0.0.dir/__/common/src/simple_hal.c.obj
 .debug_aranges
                0x0000000000000140       0x40 CMakeFiles/dfu_no_serial_nrf52832_xxAA_s132_6.0.0.dir/__/__/mesh/access/src/access_publish.c.obj
 .debug_aranges
                0x0000000000000180      0x180 CMakeFiles/dfu_no_serial_nrf52832_xxAA_s132_6.0.0.dir/__/__/mesh/access/src/access.c.obj
 .debug_aranges
                0x0000000000000300       0x50 CMakeFiles/dfu_no_serial_nrf52832_xxAA_s132_6.0.0.dir/__/__/mesh/access/src/access_reliable.c.obj
 .debug_aranges
                0x0000000000000350      0x250 CMakeFiles/dfu_no_serial_nrf52832_xxAA_s132_6.0.0.dir/__/__/mesh/access/src/device_state_manager.c.obj
 .debug_aranges
                0x00000000000005a0       0x20 CMakeFiles/dfu_no_serial_nrf52832_xxAA_s132_6.0.0.dir/__/__/models/config/src/composition_data.c.obj
 .debug_aranges
                0x00000000000005c0      0x1b0 CMakeFiles/dfu_no_serial_nrf52832_xxAA_s132_6.0.0.dir/__/__/models/config/src/config_server.c.obj
 .debug_aranges
                0x0000000000000770       0x20 CMakeFiles/dfu_no_serial_nrf52832_xxAA_s132_6.0.0.dir/__/__/models/config/src/packed_index_list.c.obj
 .debug_aranges
                0x0000000000000790       0xa0 CMakeFiles/dfu_no_serial_nrf52832_xxAA_s132_6.0.0.dir/__/__/models/health/src/health_server.c.obj
 .debug_aranges
                0x0000000000000830       0x68 CMakeFiles/dfu_no_serial_nrf52832_xxAA_s132_6.0.0.dir/__/__/mesh/prov/src/prov_provisioner.c.obj
 .debug_aranges
                0x0000000000000898       0x60 CMakeFiles/dfu_no_serial_nrf52832_xxAA_s132_6.0.0.dir/__/__/mesh/prov/src/prov_provisionee.c.obj
 .debug_aranges
                0x00000000000008f8       0x80 CMakeFiles/dfu_no_serial_nrf52832_xxAA_s132_6.0.0.dir/__/__/mesh/prov/src/nrf_mesh_prov.c.obj
 .debug_aranges
                0x0000000000000978       0x78 CMakeFiles/dfu_no_serial_nrf52832_xxAA_s132_6.0.0.dir/__/__/mesh/prov/src/provisioning.c.obj
 .debug_aranges
                0x00000000000009f0       0x38 CMakeFiles/dfu_no_serial_nrf52832_xxAA_s132_6.0.0.dir/__/__/mesh/prov/src/prov_beacon.c.obj
 .debug_aranges
                0x0000000000000a28       0x60 CMakeFiles/dfu_no_serial_nrf52832_xxAA_s132_6.0.0.dir/__/__/mesh/prov/src/prov_utils.c.obj
 .debug_aranges
                0x0000000000000a88       0xa0 CMakeFiles/dfu_no_serial_nrf52832_xxAA_s132_6.0.0.dir/__/__/mesh/prov/src/prov_bearer_adv.c.obj
 .debug_aranges
                0x0000000000000b28       0x98 CMakeFiles/dfu_no_serial_nrf52832_xxAA_s132_6.0.0.dir/__/__/mesh/dfu/src/nrf_mesh_dfu.c.obj
 .debug_aranges
                0x0000000000000bc0       0x20 CMakeFiles/dfu_no_serial_nrf52832_xxAA_s132_6.0.0.dir/__/common/src/app_error_weak.c.obj
 .debug_aranges
                0x0000000000000be0       0x20 CMakeFiles/dfu_no_serial_nrf52832_xxAA_s132_6.0.0.dir/__/common/src/assertion_handler_weak.c.obj
 .debug_aranges
                0x0000000000000c00       0x30 CMakeFiles/dfu_no_serial_nrf52832_xxAA_s132_6.0.0.dir/__/__/mesh/core/src/nrf_mesh_configure.c.obj
 .debug_aranges
                0x0000000000000c30       0x28 CMakeFiles/dfu_no_serial_nrf52832_xxAA_s132_6.0.0.dir/__/__/mesh/core/src/aes.c.obj
 .debug_aranges
                0x0000000000000c58       0x38 CMakeFiles/dfu_no_serial_nrf52832_xxAA_s132_6.0.0.dir/__/__/mesh/core/src/msg_cache.c.obj
 .debug_aranges
                0x0000000000000c90       0xc0 CMakeFiles/dfu_no_serial_nrf52832_xxAA_s132_6.0.0.dir/__/__/mesh/core/src/transport.c.obj
 .debug_aranges
                0x0000000000000d50       0x30 CMakeFiles/dfu_no_serial_nrf52832_xxAA_s132_6.0.0.dir/__/__/mesh/core/src/event.c.obj
 .debug_aranges
                0x0000000000000d80       0x60 CMakeFiles/dfu_no_serial_nrf52832_xxAA_s132_6.0.0.dir/__/__/mesh/core/src/packet_buffer.c.obj
 .debug_aranges
                0x0000000000000de0       0xa0 CMakeFiles/dfu_no_serial_nrf52832_xxAA_s132_6.0.0.dir/__/__/mesh/core/src/flash_manager_defrag.c.obj
 .debug_aranges
                0x0000000000000e80       0x60 CMakeFiles/dfu_no_serial_nrf52832_xxAA_s132_6.0.0.dir/__/__/mesh/core/src/fifo.c.obj
 .debug_aranges
                0x0000000000000ee0       0x28 CMakeFiles/dfu_no_serial_nrf52832_xxAA_s132_6.0.0.dir/__/__/mesh/core/src/nrf_flash.c.obj
 .debug_aranges
                0x0000000000000f08       0x48 CMakeFiles/dfu_no_serial_nrf52832_xxAA_s132_6.0.0.dir/__/__/mesh/core/src/packet_mgr.c.obj
 .debug_aranges
                0x0000000000000f50       0xd0 CMakeFiles/dfu_no_serial_nrf52832_xxAA_s132_6.0.0.dir/__/__/mesh/core/src/net_state.c.obj
 .debug_aranges
                0x0000000000001020       0x58 CMakeFiles/dfu_no_serial_nrf52832_xxAA_s132_6.0.0.dir/__/__/mesh/core/src/mesh_flash.c.obj
 .debug_aranges
                0x0000000000001078       0x30 CMakeFiles/dfu_no_serial_nrf52832_xxAA_s132_6.0.0.dir/__/__/mesh/core/src/nrf_mesh_utils.c.obj
 .debug_aranges
                0x00000000000010a8       0x90 CMakeFiles/dfu_no_serial_nrf52832_xxAA_s132_6.0.0.dir/__/__/mesh/core/src/nrf_mesh.c.obj
 .debug_aranges
                0x0000000000001138       0x38 CMakeFiles/dfu_no_serial_nrf52832_xxAA_s132_6.0.0.dir/__/__/mesh/core/src/queue.c.obj
 .debug_aranges
                0x0000000000001170       0x38 CMakeFiles/dfu_no_serial_nrf52832_xxAA_s132_6.0.0.dir/__/__/mesh/core/src/hal.c.obj
 .debug_aranges
                0x00000000000011a8       0x28 CMakeFiles/dfu_no_serial_nrf52832_xxAA_s132_6.0.0.dir/__/__/mesh/core/src/aes_cmac.c.obj
 .debug_aranges
                0x00000000000011d0       0x50 CMakeFiles/dfu_no_serial_nrf52832_xxAA_s132_6.0.0.dir/__/__/mesh/core/src/timer_scheduler.c.obj
 .debug_aranges
                0x0000000000001220       0x58 CMakeFiles/dfu_no_serial_nrf52832_xxAA_s132_6.0.0.dir/__/__/mesh/core/src/timer.c.obj
 .debug_aranges
                0x0000000000001278       0x30 CMakeFiles/dfu_no_serial_nrf52832_xxAA_s132_6.0.0.dir/__/__/mesh/core/src/ticker.c.obj
 .debug_aranges
                0x00000000000012a8       0x40 CMakeFiles/dfu_no_serial_nrf52832_xxAA_s132_6.0.0.dir/__/__/mesh/core/src/rand.c.obj
 .debug_aranges
                0x00000000000012e8       0x28 CMakeFiles/dfu_no_serial_nrf52832_xxAA_s132_6.0.0.dir/__/__/mesh/core/src/nrf_mesh_opt.c.obj
 .debug_aranges
                0x0000000000001310       0xa8 CMakeFiles/dfu_no_serial_nrf52832_xxAA_s132_6.0.0.dir/__/__/mesh/core/src/timeslot.c.obj
 .debug_aranges
                0x00000000000013b8       0x88 CMakeFiles/dfu_no_serial_nrf52832_xxAA_s132_6.0.0.dir/__/__/mesh/core/src/bearer_event.c.obj
 .debug_aranges
                0x0000000000001440       0x70 CMakeFiles/dfu_no_serial_nrf52832_xxAA_s132_6.0.0.dir/__/__/mesh/core/src/enc.c.obj
 .debug_aranges
                0x00000000000014b0       0x50 CMakeFiles/dfu_no_serial_nrf52832_xxAA_s132_6.0.0.dir/__/__/mesh/core/src/network.c.obj
 .debug_aranges
                0x0000000000001500       0x58 CMakeFiles/dfu_no_serial_nrf52832_xxAA_s132_6.0.0.dir/__/__/mesh/core/src/net_packet.c.obj
 .debug_aranges
                0x0000000000001558       0x40 CMakeFiles/dfu_no_serial_nrf52832_xxAA_s132_6.0.0.dir/__/__/mesh/core/src/msqueue.c.obj
 .debug_aranges
                0x0000000000001598       0x40 CMakeFiles/dfu_no_serial_nrf52832_xxAA_s132_6.0.0.dir/__/__/mesh/core/src/nrf_mesh_keygen.c.obj
 .debug_aranges
                0x00000000000015d8       0x40 CMakeFiles/dfu_no_serial_nrf52832_xxAA_s132_6.0.0.dir/__/__/mesh/core/src/list.c.obj
 .debug_aranges
                0x0000000000001618       0x48 CMakeFiles/dfu_no_serial_nrf52832_xxAA_s132_6.0.0.dir/__/__/mesh/core/src/log.c.obj
 .debug_aranges
                0x0000000000001660       0xa0 CMakeFiles/dfu_no_serial_nrf52832_xxAA_s132_6.0.0.dir/__/__/mesh/core/src/flash_manager.c.obj
 .debug_aranges
                0x0000000000001700       0x38 CMakeFiles/dfu_no_serial_nrf52832_xxAA_s132_6.0.0.dir/__/__/mesh/core/src/ccm_soft.c.obj
 .debug_aranges
                0x0000000000001738       0x38 CMakeFiles/dfu_no_serial_nrf52832_xxAA_s132_6.0.0.dir/__/__/mesh/core/src/replay_cache.c.obj
 .debug_aranges
                0x0000000000001770       0x28 CMakeFiles/dfu_no_serial_nrf52832_xxAA_s132_6.0.0.dir/__/__/mesh/core/src/beacon.c.obj
 .debug_aranges
                0x0000000000001798       0x20 CMakeFiles/dfu_no_serial_nrf52832_xxAA_s132_6.0.0.dir/__/__/mesh/core/src/flash_manager_internal.c.obj
 .debug_aranges
                0x00000000000017b8       0x58 CMakeFiles/dfu_no_serial_nrf52832_xxAA_s132_6.0.0.dir/__/__/mesh/core/src/core_tx.c.obj
 .debug_aranges
                0x0000000000001810       0x70 CMakeFiles/dfu_no_serial_nrf52832_xxAA_s132_6.0.0.dir/__/__/mesh/core/src/heartbeat.c.obj
 .debug_aranges
                0x0000000000001880       0x58 CMakeFiles/dfu_no_serial_nrf52832_xxAA_s132_6.0.0.dir/__/__/mesh/core/src/net_beacon.c.obj
 .debug_aranges
                0x00000000000018d8       0x68 CMakeFiles/dfu_no_serial_nrf52832_xxAA_s132_6.0.0.dir/__/__/mesh/core/src/core_tx_adv.c.obj
 .debug_aranges
                0x0000000000001940       0x30 CMakeFiles/dfu_no_serial_nrf52832_xxAA_s132_6.0.0.dir/__/__/mesh/bearer/src/ad_listener.c.obj
 .debug_aranges
                0x0000000000001970       0x58 CMakeFiles/dfu_no_serial_nrf52832_xxAA_s132_6.0.0.dir/__/__/mesh/bearer/src/ad_type_filter.c.obj
 .debug_aranges
                0x00000000000019c8       0xa0 CMakeFiles/dfu_no_serial_nrf52832_xxAA_s132_6.0.0.dir/__/__/mesh/bearer/src/advertiser.c.obj
 .debug_aranges
                0x0000000000001a68       0x70 CMakeFiles/dfu_no_serial_nrf52832_xxAA_s132_6.0.0.dir/__/__/mesh/bearer/src/bearer_handler.c.obj
 .debug_aranges
                0x0000000000001ad8       0x30 CMakeFiles/dfu_no_serial_nrf52832_xxAA_s132_6.0.0.dir/__/__/mesh/bearer/src/broadcast.c.obj
 .debug_aranges
                0x0000000000001b08       0x38 CMakeFiles/dfu_no_serial_nrf52832_xxAA_s132_6.0.0.dir/__/__/mesh/bearer/src/filter_engine.c.obj
 .debug_aranges
                0x0000000000001b40       0x40 CMakeFiles/dfu_no_serial_nrf52832_xxAA_s132_6.0.0.dir/__/__/mesh/bearer/src/radio_config.c.obj
 .debug_aranges
                0x0000000000001b80       0xb8 CMakeFiles/dfu_no_serial_nrf52832_xxAA_s132_6.0.0.dir/__/__/mesh/bearer/src/scanner.c.obj
 .debug_aranges
                0x0000000000001c38       0x28 CMakeFiles/dfu_no_serial_nrf52832_xxAA_s132_6.0.0.dir/home/mazzer/work/nordic/sdk/nRF5_SDK_15.0.0/modules/nrfx/mdk/system_nrf52.c.obj
 .debug_aranges
                0x0000000000001c60       0x20 CMakeFiles/dfu_no_serial_nrf52832_xxAA_s132_6.0.0.dir/home/mazzer/work/nordic/sdk/nRF5_SDK_15.0.0/modules/nrfx/mdk/gcc_startup_nrf52.S.obj
 .debug_aranges
                0x0000000000001c80       0x28 CMakeFiles/dfu_no_serial_nrf52832_xxAA_s132_6.0.0.dir/home/mazzer/work/nordic/sdk/nRF5_SDK_15.0.0/components/libraries/util/app_error.c.obj
 .debug_aranges
                0x0000000000001ca8       0x20 CMakeFiles/dfu_no_serial_nrf52832_xxAA_s132_6.0.0.dir/home/mazzer/work/nordic/sdk/nRF5_SDK_15.0.0/components/libraries/util/app_error_handler_gcc.c.obj
 .debug_aranges
                0x0000000000001cc8       0xb0 ../../external/rtt/librtt_nrf52832_xxAA.a(SEGGER_RTT.c.obj)
 .debug_aranges
                0x0000000000001d78       0x30 ../../external/rtt/librtt_nrf52832_xxAA.a(SEGGER_RTT_printf.c.obj)
 .debug_aranges
                0x0000000000001da8      0x100 ../../external/micro-ecc/libuECC_nrf52832_xxAA.a(uECC.c.obj)

.debug_ranges   0x0000000000000000     0xe0a0
 .debug_ranges  0x0000000000000000      0x278 CMakeFiles/dfu_no_serial_nrf52832_xxAA_s132_6.0.0.dir/src/main.c.obj
 .debug_ranges  0x0000000000000278       0x88 CMakeFiles/dfu_no_serial_nrf52832_xxAA_s132_6.0.0.dir/__/__/mesh/stack/src/mesh_stack.c.obj
 .debug_ranges  0x0000000000000300       0xe8 CMakeFiles/dfu_no_serial_nrf52832_xxAA_s132_6.0.0.dir/__/common/src/mesh_softdevice_init.c.obj
 .debug_ranges  0x00000000000003e8       0x90 CMakeFiles/dfu_no_serial_nrf52832_xxAA_s132_6.0.0.dir/__/common/src/mesh_provisionee.c.obj
 .debug_ranges  0x0000000000000478       0xc0 CMakeFiles/dfu_no_serial_nrf52832_xxAA_s132_6.0.0.dir/__/common/src/simple_hal.c.obj
 .debug_ranges  0x0000000000000538      0x318 CMakeFiles/dfu_no_serial_nrf52832_xxAA_s132_6.0.0.dir/__/__/mesh/access/src/access_publish.c.obj
 .debug_ranges  0x0000000000000850      0xd30 CMakeFiles/dfu_no_serial_nrf52832_xxAA_s132_6.0.0.dir/__/__/mesh/access/src/access.c.obj
 .debug_ranges  0x0000000000001580      0x258 CMakeFiles/dfu_no_serial_nrf52832_xxAA_s132_6.0.0.dir/__/__/mesh/access/src/access_reliable.c.obj
 .debug_ranges  0x00000000000017d8     0x2018 CMakeFiles/dfu_no_serial_nrf52832_xxAA_s132_6.0.0.dir/__/__/mesh/access/src/device_state_manager.c.obj
 .debug_ranges  0x00000000000037f0       0xa8 CMakeFiles/dfu_no_serial_nrf52832_xxAA_s132_6.0.0.dir/__/__/models/config/src/composition_data.c.obj
 .debug_ranges  0x0000000000003898     0x1618 CMakeFiles/dfu_no_serial_nrf52832_xxAA_s132_6.0.0.dir/__/__/models/config/src/config_server.c.obj
 .debug_ranges  0x0000000000004eb0       0x10 CMakeFiles/dfu_no_serial_nrf52832_xxAA_s132_6.0.0.dir/__/__/models/config/src/packed_index_list.c.obj
 .debug_ranges  0x0000000000004ec0      0x6c8 CMakeFiles/dfu_no_serial_nrf52832_xxAA_s132_6.0.0.dir/__/__/models/health/src/health_server.c.obj
 .debug_ranges  0x0000000000005588      0x108 CMakeFiles/dfu_no_serial_nrf52832_xxAA_s132_6.0.0.dir/__/__/mesh/prov/src/prov_provisioner.c.obj
 .debug_ranges  0x0000000000005690      0x1b0 CMakeFiles/dfu_no_serial_nrf52832_xxAA_s132_6.0.0.dir/__/__/mesh/prov/src/prov_provisionee.c.obj
 .debug_ranges  0x0000000000005840      0x140 CMakeFiles/dfu_no_serial_nrf52832_xxAA_s132_6.0.0.dir/__/__/mesh/prov/src/nrf_mesh_prov.c.obj
 .debug_ranges  0x0000000000005980      0x170 CMakeFiles/dfu_no_serial_nrf52832_xxAA_s132_6.0.0.dir/__/__/mesh/prov/src/provisioning.c.obj
 .debug_ranges  0x0000000000005af0       0x40 CMakeFiles/dfu_no_serial_nrf52832_xxAA_s132_6.0.0.dir/__/__/mesh/prov/src/prov_beacon.c.obj
 .debug_ranges  0x0000000000005b30       0x88 CMakeFiles/dfu_no_serial_nrf52832_xxAA_s132_6.0.0.dir/__/__/mesh/prov/src/prov_utils.c.obj
 .debug_ranges  0x0000000000005bb8      0x9c8 CMakeFiles/dfu_no_serial_nrf52832_xxAA_s132_6.0.0.dir/__/__/mesh/prov/src/prov_bearer_adv.c.obj
 .debug_ranges  0x0000000000006580      0x908 CMakeFiles/dfu_no_serial_nrf52832_xxAA_s132_6.0.0.dir/__/__/mesh/dfu/src/nrf_mesh_dfu.c.obj
 .debug_ranges  0x0000000000006e88       0xc8 CMakeFiles/dfu_no_serial_nrf52832_xxAA_s132_6.0.0.dir/__/common/src/app_error_weak.c.obj
 .debug_ranges  0x0000000000006f50       0x10 CMakeFiles/dfu_no_serial_nrf52832_xxAA_s132_6.0.0.dir/__/common/src/assertion_handler_weak.c.obj
 .debug_ranges  0x0000000000006f60       0x20 CMakeFiles/dfu_no_serial_nrf52832_xxAA_s132_6.0.0.dir/__/__/mesh/core/src/nrf_mesh_configure.c.obj
 .debug_ranges  0x0000000000006f80       0x18 CMakeFiles/dfu_no_serial_nrf52832_xxAA_s132_6.0.0.dir/__/__/mesh/core/src/aes.c.obj
 .debug_ranges  0x0000000000006f98       0x40 CMakeFiles/dfu_no_serial_nrf52832_xxAA_s132_6.0.0.dir/__/__/mesh/core/src/msg_cache.c.obj
 .debug_ranges  0x0000000000006fd8      0xf08 CMakeFiles/dfu_no_serial_nrf52832_xxAA_s132_6.0.0.dir/__/__/mesh/core/src/transport.c.obj
 .debug_ranges  0x0000000000007ee0       0x20 CMakeFiles/dfu_no_serial_nrf52832_xxAA_s132_6.0.0.dir/__/__/mesh/core/src/event.c.obj
 .debug_ranges  0x0000000000007f00      0x118 CMakeFiles/dfu_no_serial_nrf52832_xxAA_s132_6.0.0.dir/__/__/mesh/core/src/packet_buffer.c.obj
 .debug_ranges  0x0000000000008018      0x4c8 CMakeFiles/dfu_no_serial_nrf52832_xxAA_s132_6.0.0.dir/__/__/mesh/core/src/flash_manager_defrag.c.obj
 .debug_ranges  0x00000000000084e0       0xc0 CMakeFiles/dfu_no_serial_nrf52832_xxAA_s132_6.0.0.dir/__/__/mesh/core/src/fifo.c.obj
 .debug_ranges  0x00000000000085a0       0x30 CMakeFiles/dfu_no_serial_nrf52832_xxAA_s132_6.0.0.dir/__/__/mesh/core/src/nrf_flash.c.obj
 .debug_ranges  0x00000000000085d0       0xe8 CMakeFiles/dfu_no_serial_nrf52832_xxAA_s132_6.0.0.dir/__/__/mesh/core/src/packet_mgr.c.obj
 .debug_ranges  0x00000000000086b8      0x868 CMakeFiles/dfu_no_serial_nrf52832_xxAA_s132_6.0.0.dir/__/__/mesh/core/src/net_state.c.obj
 .debug_ranges  0x0000000000008f20      0x300 CMakeFiles/dfu_no_serial_nrf52832_xxAA_s132_6.0.0.dir/__/__/mesh/core/src/mesh_flash.c.obj
 .debug_ranges  0x0000000000009220       0x20 CMakeFiles/dfu_no_serial_nrf52832_xxAA_s132_6.0.0.dir/__/__/mesh/core/src/nrf_mesh_utils.c.obj
 .debug_ranges  0x0000000000009240      0x150 CMakeFiles/dfu_no_serial_nrf52832_xxAA_s132_6.0.0.dir/__/__/mesh/core/src/nrf_mesh.c.obj
 .debug_ranges  0x0000000000009390       0x28 CMakeFiles/dfu_no_serial_nrf52832_xxAA_s132_6.0.0.dir/__/__/mesh/core/src/queue.c.obj
 .debug_ranges  0x00000000000093b8       0x28 CMakeFiles/dfu_no_serial_nrf52832_xxAA_s132_6.0.0.dir/__/__/mesh/core/src/hal.c.obj
 .debug_ranges  0x00000000000093e0      0x150 CMakeFiles/dfu_no_serial_nrf52832_xxAA_s132_6.0.0.dir/__/__/mesh/core/src/aes_cmac.c.obj
 .debug_ranges  0x0000000000009530      0x288 CMakeFiles/dfu_no_serial_nrf52832_xxAA_s132_6.0.0.dir/__/__/mesh/core/src/timer_scheduler.c.obj
 .debug_ranges  0x00000000000097b8      0x178 CMakeFiles/dfu_no_serial_nrf52832_xxAA_s132_6.0.0.dir/__/__/mesh/core/src/timer.c.obj
 .debug_ranges  0x0000000000009930       0x20 CMakeFiles/dfu_no_serial_nrf52832_xxAA_s132_6.0.0.dir/__/__/mesh/core/src/ticker.c.obj
 .debug_ranges  0x0000000000009950       0x48 CMakeFiles/dfu_no_serial_nrf52832_xxAA_s132_6.0.0.dir/__/__/mesh/core/src/rand.c.obj
 .debug_ranges  0x0000000000009998       0x18 CMakeFiles/dfu_no_serial_nrf52832_xxAA_s132_6.0.0.dir/__/__/mesh/core/src/nrf_mesh_opt.c.obj
 .debug_ranges  0x00000000000099b0      0x250 CMakeFiles/dfu_no_serial_nrf52832_xxAA_s132_6.0.0.dir/__/__/mesh/core/src/timeslot.c.obj
 .debug_ranges  0x0000000000009c00      0x288 CMakeFiles/dfu_no_serial_nrf52832_xxAA_s132_6.0.0.dir/__/__/mesh/core/src/bearer_event.c.obj
 .debug_ranges  0x0000000000009e88      0x1b8 CMakeFiles/dfu_no_serial_nrf52832_xxAA_s132_6.0.0.dir/__/__/mesh/core/src/enc.c.obj
 .debug_ranges  0x000000000000a040      0x1b8 CMakeFiles/dfu_no_serial_nrf52832_xxAA_s132_6.0.0.dir/__/__/mesh/core/src/network.c.obj
 .debug_ranges  0x000000000000a1f8      0x208 CMakeFiles/dfu_no_serial_nrf52832_xxAA_s132_6.0.0.dir/__/__/mesh/core/src/net_packet.c.obj
 .debug_ranges  0x000000000000a400       0x78 CMakeFiles/dfu_no_serial_nrf52832_xxAA_s132_6.0.0.dir/__/__/mesh/core/src/msqueue.c.obj
 .debug_ranges  0x000000000000a478       0x30 CMakeFiles/dfu_no_serial_nrf52832_xxAA_s132_6.0.0.dir/__/__/mesh/core/src/nrf_mesh_keygen.c.obj
 .debug_ranges  0x000000000000a4a8       0xf0 CMakeFiles/dfu_no_serial_nrf52832_xxAA_s132_6.0.0.dir/__/__/mesh/core/src/list.c.obj
 .debug_ranges  0x000000000000a598       0x58 CMakeFiles/dfu_no_serial_nrf52832_xxAA_s132_6.0.0.dir/__/__/mesh/core/src/log.c.obj
 .debug_ranges  0x000000000000a5f0      0xc18 CMakeFiles/dfu_no_serial_nrf52832_xxAA_s132_6.0.0.dir/__/__/mesh/core/src/flash_manager.c.obj
 .debug_ranges  0x000000000000b208       0xf8 CMakeFiles/dfu_no_serial_nrf52832_xxAA_s132_6.0.0.dir/__/__/mesh/core/src/ccm_soft.c.obj
 .debug_ranges  0x000000000000b300       0x48 CMakeFiles/dfu_no_serial_nrf52832_xxAA_s132_6.0.0.dir/__/__/mesh/core/src/replay_cache.c.obj
 .debug_ranges  0x000000000000b348       0x90 CMakeFiles/dfu_no_serial_nrf52832_xxAA_s132_6.0.0.dir/__/__/mesh/core/src/beacon.c.obj
 .debug_ranges  0x000000000000b3d8       0x30 CMakeFiles/dfu_no_serial_nrf52832_xxAA_s132_6.0.0.dir/__/__/mesh/core/src/flash_manager_internal.c.obj
 .debug_ranges  0x000000000000b408       0xc0 CMakeFiles/dfu_no_serial_nrf52832_xxAA_s132_6.0.0.dir/__/__/mesh/core/src/core_tx.c.obj
 .debug_ranges  0x000000000000b4c8      0x120 CMakeFiles/dfu_no_serial_nrf52832_xxAA_s132_6.0.0.dir/__/__/mesh/core/src/heartbeat.c.obj
 .debug_ranges  0x000000000000b5e8      0x1b8 CMakeFiles/dfu_no_serial_nrf52832_xxAA_s132_6.0.0.dir/__/__/mesh/core/src/net_beacon.c.obj
 .debug_ranges  0x000000000000b7a0       0x58 CMakeFiles/dfu_no_serial_nrf52832_xxAA_s132_6.0.0.dir/__/__/mesh/core/src/core_tx_adv.c.obj
 .debug_ranges  0x000000000000b7f8      0x118 CMakeFiles/dfu_no_serial_nrf52832_xxAA_s132_6.0.0.dir/__/__/mesh/bearer/src/ad_listener.c.obj
 .debug_ranges  0x000000000000b910       0xc8 CMakeFiles/dfu_no_serial_nrf52832_xxAA_s132_6.0.0.dir/__/__/mesh/bearer/src/ad_type_filter.c.obj
 .debug_ranges  0x000000000000b9d8      0x478 CMakeFiles/dfu_no_serial_nrf52832_xxAA_s132_6.0.0.dir/__/__/mesh/bearer/src/advertiser.c.obj
 .debug_ranges  0x000000000000be50      0x188 CMakeFiles/dfu_no_serial_nrf52832_xxAA_s132_6.0.0.dir/__/__/mesh/bearer/src/bearer_handler.c.obj
 .debug_ranges  0x000000000000bfd8       0xa0 CMakeFiles/dfu_no_serial_nrf52832_xxAA_s132_6.0.0.dir/__/__/mesh/bearer/src/broadcast.c.obj
 .debug_ranges  0x000000000000c078       0x28 CMakeFiles/dfu_no_serial_nrf52832_xxAA_s132_6.0.0.dir/__/__/mesh/bearer/src/filter_engine.c.obj
 .debug_ranges  0x000000000000c0a0       0x48 CMakeFiles/dfu_no_serial_nrf52832_xxAA_s132_6.0.0.dir/__/__/mesh/bearer/src/radio_config.c.obj
 .debug_ranges  0x000000000000c0e8      0x400 CMakeFiles/dfu_no_serial_nrf52832_xxAA_s132_6.0.0.dir/__/__/mesh/bearer/src/scanner.c.obj
 .debug_ranges  0x000000000000c4e8      0x168 CMakeFiles/dfu_no_serial_nrf52832_xxAA_s132_6.0.0.dir/home/mazzer/work/nordic/sdk/nRF5_SDK_15.0.0/modules/nrfx/mdk/system_nrf52.c.obj
 .debug_ranges  0x000000000000c650       0x18 CMakeFiles/dfu_no_serial_nrf52832_xxAA_s132_6.0.0.dir/home/mazzer/work/nordic/sdk/nRF5_SDK_15.0.0/components/libraries/util/app_error.c.obj
 .debug_ranges  0x000000000000c668       0x10 CMakeFiles/dfu_no_serial_nrf52832_xxAA_s132_6.0.0.dir/home/mazzer/work/nordic/sdk/nRF5_SDK_15.0.0/components/libraries/util/app_error_handler_gcc.c.obj
 .debug_ranges  0x000000000000c678      0x5d8 ../../external/rtt/librtt_nrf52832_xxAA.a(SEGGER_RTT.c.obj)
 .debug_ranges  0x000000000000cc50      0x1b8 ../../external/rtt/librtt_nrf52832_xxAA.a(SEGGER_RTT_printf.c.obj)
 .debug_ranges  0x000000000000ce08     0x1298 ../../external/micro-ecc/libuECC_nrf52832_xxAA.a(uECC.c.obj)

.debug_line     0x0000000000000000    0x21604
 .debug_line    0x0000000000000000      0x87f CMakeFiles/dfu_no_serial_nrf52832_xxAA_s132_6.0.0.dir/src/main.c.obj
 .debug_line    0x000000000000087f      0x6a9 CMakeFiles/dfu_no_serial_nrf52832_xxAA_s132_6.0.0.dir/__/__/mesh/stack/src/mesh_stack.c.obj
 .debug_line    0x0000000000000f28      0x49c CMakeFiles/dfu_no_serial_nrf52832_xxAA_s132_6.0.0.dir/__/common/src/mesh_softdevice_init.c.obj
 .debug_line    0x00000000000013c4      0x6ff CMakeFiles/dfu_no_serial_nrf52832_xxAA_s132_6.0.0.dir/__/common/src/mesh_provisionee.c.obj
 .debug_line    0x0000000000001ac3      0x572 CMakeFiles/dfu_no_serial_nrf52832_xxAA_s132_6.0.0.dir/__/common/src/simple_hal.c.obj
 .debug_line    0x0000000000002035      0x5c8 CMakeFiles/dfu_no_serial_nrf52832_xxAA_s132_6.0.0.dir/__/__/mesh/access/src/access_publish.c.obj
 .debug_line    0x00000000000025fd     0x1396 CMakeFiles/dfu_no_serial_nrf52832_xxAA_s132_6.0.0.dir/__/__/mesh/access/src/access.c.obj
 .debug_line    0x0000000000003993      0x65c CMakeFiles/dfu_no_serial_nrf52832_xxAA_s132_6.0.0.dir/__/__/mesh/access/src/access_reliable.c.obj
 .debug_line    0x0000000000003fef     0x27fa CMakeFiles/dfu_no_serial_nrf52832_xxAA_s132_6.0.0.dir/__/__/mesh/access/src/device_state_manager.c.obj
 .debug_line    0x00000000000067e9      0x3d2 CMakeFiles/dfu_no_serial_nrf52832_xxAA_s132_6.0.0.dir/__/__/models/config/src/composition_data.c.obj
 .debug_line    0x0000000000006bbb     0x218a CMakeFiles/dfu_no_serial_nrf52832_xxAA_s132_6.0.0.dir/__/__/models/config/src/config_server.c.obj
 .debug_line    0x0000000000008d45      0x10a CMakeFiles/dfu_no_serial_nrf52832_xxAA_s132_6.0.0.dir/__/__/models/config/src/packed_index_list.c.obj
 .debug_line    0x0000000000008e4f      0xb56 CMakeFiles/dfu_no_serial_nrf52832_xxAA_s132_6.0.0.dir/__/__/models/health/src/health_server.c.obj
 .debug_line    0x00000000000099a5      0x749 CMakeFiles/dfu_no_serial_nrf52832_xxAA_s132_6.0.0.dir/__/__/mesh/prov/src/prov_provisioner.c.obj
 .debug_line    0x000000000000a0ee      0x803 CMakeFiles/dfu_no_serial_nrf52832_xxAA_s132_6.0.0.dir/__/__/mesh/prov/src/prov_provisionee.c.obj
 .debug_line    0x000000000000a8f1      0x687 CMakeFiles/dfu_no_serial_nrf52832_xxAA_s132_6.0.0.dir/__/__/mesh/prov/src/nrf_mesh_prov.c.obj
 .debug_line    0x000000000000af78      0x514 CMakeFiles/dfu_no_serial_nrf52832_xxAA_s132_6.0.0.dir/__/__/mesh/prov/src/provisioning.c.obj
 .debug_line    0x000000000000b48c      0x5c4 CMakeFiles/dfu_no_serial_nrf52832_xxAA_s132_6.0.0.dir/__/__/mesh/prov/src/prov_beacon.c.obj
 .debug_line    0x000000000000ba50      0x594 CMakeFiles/dfu_no_serial_nrf52832_xxAA_s132_6.0.0.dir/__/__/mesh/prov/src/prov_utils.c.obj
 .debug_line    0x000000000000bfe4      0xf19 CMakeFiles/dfu_no_serial_nrf52832_xxAA_s132_6.0.0.dir/__/__/mesh/prov/src/prov_bearer_adv.c.obj
 .debug_line    0x000000000000cefd     0x1340 CMakeFiles/dfu_no_serial_nrf52832_xxAA_s132_6.0.0.dir/__/__/mesh/dfu/src/nrf_mesh_dfu.c.obj
 .debug_line    0x000000000000e23d      0x4e6 CMakeFiles/dfu_no_serial_nrf52832_xxAA_s132_6.0.0.dir/__/common/src/app_error_weak.c.obj
 .debug_line    0x000000000000e723      0x272 CMakeFiles/dfu_no_serial_nrf52832_xxAA_s132_6.0.0.dir/__/common/src/assertion_handler_weak.c.obj
 .debug_line    0x000000000000e995      0x24a CMakeFiles/dfu_no_serial_nrf52832_xxAA_s132_6.0.0.dir/__/__/mesh/core/src/nrf_mesh_configure.c.obj
 .debug_line    0x000000000000ebdf      0x282 CMakeFiles/dfu_no_serial_nrf52832_xxAA_s132_6.0.0.dir/__/__/mesh/core/src/aes.c.obj
 .debug_line    0x000000000000ee61      0x2bf CMakeFiles/dfu_no_serial_nrf52832_xxAA_s132_6.0.0.dir/__/__/mesh/core/src/msg_cache.c.obj
 .debug_line    0x000000000000f120     0x1258 CMakeFiles/dfu_no_serial_nrf52832_xxAA_s132_6.0.0.dir/__/__/mesh/core/src/transport.c.obj
 .debug_line    0x0000000000010378      0x3df CMakeFiles/dfu_no_serial_nrf52832_xxAA_s132_6.0.0.dir/__/__/mesh/core/src/event.c.obj
 .debug_line    0x0000000000010757      0x55a CMakeFiles/dfu_no_serial_nrf52832_xxAA_s132_6.0.0.dir/__/__/mesh/core/src/packet_buffer.c.obj
 .debug_line    0x0000000000010cb1      0x8ba CMakeFiles/dfu_no_serial_nrf52832_xxAA_s132_6.0.0.dir/__/__/mesh/core/src/flash_manager_defrag.c.obj
 .debug_line    0x000000000001156b      0x468 CMakeFiles/dfu_no_serial_nrf52832_xxAA_s132_6.0.0.dir/__/__/mesh/core/src/fifo.c.obj
 .debug_line    0x00000000000119d3      0x27a CMakeFiles/dfu_no_serial_nrf52832_xxAA_s132_6.0.0.dir/__/__/mesh/core/src/nrf_flash.c.obj
 .debug_line    0x0000000000011c4d      0x4cc CMakeFiles/dfu_no_serial_nrf52832_xxAA_s132_6.0.0.dir/__/__/mesh/core/src/packet_mgr.c.obj
 .debug_line    0x0000000000012119      0xae0 CMakeFiles/dfu_no_serial_nrf52832_xxAA_s132_6.0.0.dir/__/__/mesh/core/src/net_state.c.obj
 .debug_line    0x0000000000012bf9      0x67a CMakeFiles/dfu_no_serial_nrf52832_xxAA_s132_6.0.0.dir/__/__/mesh/core/src/mesh_flash.c.obj
 .debug_line    0x0000000000013273      0x2f8 CMakeFiles/dfu_no_serial_nrf52832_xxAA_s132_6.0.0.dir/__/__/mesh/core/src/nrf_mesh_utils.c.obj
 .debug_line    0x000000000001356b      0x92f CMakeFiles/dfu_no_serial_nrf52832_xxAA_s132_6.0.0.dir/__/__/mesh/core/src/nrf_mesh.c.obj
 .debug_line    0x0000000000013e9a      0x337 CMakeFiles/dfu_no_serial_nrf52832_xxAA_s132_6.0.0.dir/__/__/mesh/core/src/queue.c.obj
 .debug_line    0x00000000000141d1      0x25e CMakeFiles/dfu_no_serial_nrf52832_xxAA_s132_6.0.0.dir/__/__/mesh/core/src/hal.c.obj
 .debug_line    0x000000000001442f      0x465 CMakeFiles/dfu_no_serial_nrf52832_xxAA_s132_6.0.0.dir/__/__/mesh/core/src/aes_cmac.c.obj
 .debug_line    0x0000000000014894      0x503 CMakeFiles/dfu_no_serial_nrf52832_xxAA_s132_6.0.0.dir/__/__/mesh/core/src/timer_scheduler.c.obj
 .debug_line    0x0000000000014d97      0x557 CMakeFiles/dfu_no_serial_nrf52832_xxAA_s132_6.0.0.dir/__/__/mesh/core/src/timer.c.obj
 .debug_line    0x00000000000152ee      0x17f CMakeFiles/dfu_no_serial_nrf52832_xxAA_s132_6.0.0.dir/__/__/mesh/core/src/ticker.c.obj
 .debug_line    0x000000000001546d      0x341 CMakeFiles/dfu_no_serial_nrf52832_xxAA_s132_6.0.0.dir/__/__/mesh/core/src/rand.c.obj
 .debug_line    0x00000000000157ae      0x336 CMakeFiles/dfu_no_serial_nrf52832_xxAA_s132_6.0.0.dir/__/__/mesh/core/src/nrf_mesh_opt.c.obj
 .debug_line    0x0000000000015ae4      0x70e CMakeFiles/dfu_no_serial_nrf52832_xxAA_s132_6.0.0.dir/__/__/mesh/core/src/timeslot.c.obj
 .debug_line    0x00000000000161f2      0x69b CMakeFiles/dfu_no_serial_nrf52832_xxAA_s132_6.0.0.dir/__/__/mesh/core/src/bearer_event.c.obj
 .debug_line    0x000000000001688d      0x521 CMakeFiles/dfu_no_serial_nrf52832_xxAA_s132_6.0.0.dir/__/__/mesh/core/src/enc.c.obj
 .debug_line    0x0000000000016dae      0x62d CMakeFiles/dfu_no_serial_nrf52832_xxAA_s132_6.0.0.dir/__/__/mesh/core/src/network.c.obj
 .debug_line    0x00000000000173db      0x61f CMakeFiles/dfu_no_serial_nrf52832_xxAA_s132_6.0.0.dir/__/__/mesh/core/src/net_packet.c.obj
 .debug_line    0x00000000000179fa      0x38a CMakeFiles/dfu_no_serial_nrf52832_xxAA_s132_6.0.0.dir/__/__/mesh/core/src/msqueue.c.obj
 .debug_line    0x0000000000017d84      0x2f2 CMakeFiles/dfu_no_serial_nrf52832_xxAA_s132_6.0.0.dir/__/__/mesh/core/src/nrf_mesh_keygen.c.obj
 .debug_line    0x0000000000018076      0x3e6 CMakeFiles/dfu_no_serial_nrf52832_xxAA_s132_6.0.0.dir/__/__/mesh/core/src/list.c.obj
 .debug_line    0x000000000001845c      0x331 CMakeFiles/dfu_no_serial_nrf52832_xxAA_s132_6.0.0.dir/__/__/mesh/core/src/log.c.obj
 .debug_line    0x000000000001878d      0xc3a CMakeFiles/dfu_no_serial_nrf52832_xxAA_s132_6.0.0.dir/__/__/mesh/core/src/flash_manager.c.obj
 .debug_line    0x00000000000193c7      0x4a9 CMakeFiles/dfu_no_serial_nrf52832_xxAA_s132_6.0.0.dir/__/__/mesh/core/src/ccm_soft.c.obj
 .debug_line    0x0000000000019870      0x1dc CMakeFiles/dfu_no_serial_nrf52832_xxAA_s132_6.0.0.dir/__/__/mesh/core/src/replay_cache.c.obj
 .debug_line    0x0000000000019a4c      0x5c5 CMakeFiles/dfu_no_serial_nrf52832_xxAA_s132_6.0.0.dir/__/__/mesh/core/src/beacon.c.obj
 .debug_line    0x000000000001a011      0x31b CMakeFiles/dfu_no_serial_nrf52832_xxAA_s132_6.0.0.dir/__/__/mesh/core/src/flash_manager_internal.c.obj
 .debug_line    0x000000000001a32c      0x42e CMakeFiles/dfu_no_serial_nrf52832_xxAA_s132_6.0.0.dir/__/__/mesh/core/src/core_tx.c.obj
 .debug_line    0x000000000001a75a      0x6b8 CMakeFiles/dfu_no_serial_nrf52832_xxAA_s132_6.0.0.dir/__/__/mesh/core/src/heartbeat.c.obj
 .debug_line    0x000000000001ae12      0x756 CMakeFiles/dfu_no_serial_nrf52832_xxAA_s132_6.0.0.dir/__/__/mesh/core/src/net_beacon.c.obj
 .debug_line    0x000000000001b568      0x5cc CMakeFiles/dfu_no_serial_nrf52832_xxAA_s132_6.0.0.dir/__/__/mesh/core/src/core_tx_adv.c.obj
 .debug_line    0x000000000001bb34      0x43b CMakeFiles/dfu_no_serial_nrf52832_xxAA_s132_6.0.0.dir/__/__/mesh/bearer/src/ad_listener.c.obj
 .debug_line    0x000000000001bf6f      0x50f CMakeFiles/dfu_no_serial_nrf52832_xxAA_s132_6.0.0.dir/__/__/mesh/bearer/src/ad_type_filter.c.obj
 .debug_line    0x000000000001c47e      0x8cd CMakeFiles/dfu_no_serial_nrf52832_xxAA_s132_6.0.0.dir/__/__/mesh/bearer/src/advertiser.c.obj
 .debug_line    0x000000000001cd4b      0x617 CMakeFiles/dfu_no_serial_nrf52832_xxAA_s132_6.0.0.dir/__/__/mesh/bearer/src/bearer_handler.c.obj
 .debug_line    0x000000000001d362      0x42f CMakeFiles/dfu_no_serial_nrf52832_xxAA_s132_6.0.0.dir/__/__/mesh/bearer/src/broadcast.c.obj
 .debug_line    0x000000000001d791      0x450 CMakeFiles/dfu_no_serial_nrf52832_xxAA_s132_6.0.0.dir/__/__/mesh/bearer/src/filter_engine.c.obj
 .debug_line    0x000000000001dbe1      0x346 CMakeFiles/dfu_no_serial_nrf52832_xxAA_s132_6.0.0.dir/__/__/mesh/bearer/src/radio_config.c.obj
 .debug_line    0x000000000001df27      0x8ef CMakeFiles/dfu_no_serial_nrf52832_xxAA_s132_6.0.0.dir/__/__/mesh/bearer/src/scanner.c.obj
 .debug_line    0x000000000001e816      0x2bd CMakeFiles/dfu_no_serial_nrf52832_xxAA_s132_6.0.0.dir/home/mazzer/work/nordic/sdk/nRF5_SDK_15.0.0/modules/nrfx/mdk/system_nrf52.c.obj
 .debug_line    0x000000000001ead3       0xa1 CMakeFiles/dfu_no_serial_nrf52832_xxAA_s132_6.0.0.dir/home/mazzer/work/nordic/sdk/nRF5_SDK_15.0.0/modules/nrfx/mdk/gcc_startup_nrf52.S.obj
 .debug_line    0x000000000001eb74      0x271 CMakeFiles/dfu_no_serial_nrf52832_xxAA_s132_6.0.0.dir/home/mazzer/work/nordic/sdk/nRF5_SDK_15.0.0/components/libraries/util/app_error.c.obj
 .debug_line    0x000000000001ede5      0x214 CMakeFiles/dfu_no_serial_nrf52832_xxAA_s132_6.0.0.dir/home/mazzer/work/nordic/sdk/nRF5_SDK_15.0.0/components/libraries/util/app_error_handler_gcc.c.obj
 .debug_line    0x000000000001eff9      0xaaf ../../external/rtt/librtt_nrf52832_xxAA.a(SEGGER_RTT.c.obj)
 .debug_line    0x000000000001faa8      0x401 ../../external/rtt/librtt_nrf52832_xxAA.a(SEGGER_RTT_printf.c.obj)
 .debug_line    0x000000000001fea9     0x175b ../../external/micro-ecc/libuECC_nrf52832_xxAA.a(uECC.c.obj)

.debug_str      0x0000000000000000    0x15022
 .debug_str     0x0000000000000000     0x2b79 CMakeFiles/dfu_no_serial_nrf52832_xxAA_s132_6.0.0.dir/src/main.c.obj
                                       0x3010 (size before relaxing)
 .debug_str     0x0000000000002b79      0x310 CMakeFiles/dfu_no_serial_nrf52832_xxAA_s132_6.0.0.dir/__/__/mesh/stack/src/mesh_stack.c.obj
                                       0x278e (size before relaxing)
 .debug_str     0x0000000000002e89      0x34e CMakeFiles/dfu_no_serial_nrf52832_xxAA_s132_6.0.0.dir/__/common/src/mesh_softdevice_init.c.obj
                                       0x11dc (size before relaxing)
 .debug_str     0x00000000000031d7     0x1856 CMakeFiles/dfu_no_serial_nrf52832_xxAA_s132_6.0.0.dir/__/common/src/mesh_provisionee.c.obj
                                       0x24a1 (size before relaxing)
 .debug_str     0x0000000000004a2d      0x23d CMakeFiles/dfu_no_serial_nrf52832_xxAA_s132_6.0.0.dir/__/common/src/simple_hal.c.obj
                                        0xd4b (size before relaxing)
 .debug_str     0x0000000000004c6a      0x39c CMakeFiles/dfu_no_serial_nrf52832_xxAA_s132_6.0.0.dir/__/__/mesh/access/src/access_publish.c.obj
                                        0xc2c (size before relaxing)
 .debug_str     0x0000000000005006     0x1335 CMakeFiles/dfu_no_serial_nrf52832_xxAA_s132_6.0.0.dir/__/__/mesh/access/src/access.c.obj
                                       0x2fd6 (size before relaxing)
 .debug_str     0x000000000000633b      0x24a CMakeFiles/dfu_no_serial_nrf52832_xxAA_s132_6.0.0.dir/__/__/mesh/access/src/access_reliable.c.obj
                                       0x1066 (size before relaxing)
 .debug_str     0x0000000000006585     0x115e CMakeFiles/dfu_no_serial_nrf52832_xxAA_s132_6.0.0.dir/__/__/mesh/access/src/device_state_manager.c.obj
                                       0x30d9 (size before relaxing)
 .debug_str     0x00000000000076e3      0x1cf CMakeFiles/dfu_no_serial_nrf52832_xxAA_s132_6.0.0.dir/__/__/models/config/src/composition_data.c.obj
                                        0x93d (size before relaxing)
 .debug_str     0x00000000000078b2     0x244b CMakeFiles/dfu_no_serial_nrf52832_xxAA_s132_6.0.0.dir/__/__/models/config/src/config_server.c.obj
                                       0x5065 (size before relaxing)
 .debug_str     0x0000000000009cfd       0xa0 CMakeFiles/dfu_no_serial_nrf52832_xxAA_s132_6.0.0.dir/__/__/models/config/src/packed_index_list.c.obj
                                        0x2b6 (size before relaxing)
 .debug_str     0x0000000000009d9d      0x604 CMakeFiles/dfu_no_serial_nrf52832_xxAA_s132_6.0.0.dir/__/__/models/health/src/health_server.c.obj
                                       0x16ff (size before relaxing)
 .debug_str     0x000000000000a3a1      0x594 CMakeFiles/dfu_no_serial_nrf52832_xxAA_s132_6.0.0.dir/__/__/mesh/prov/src/prov_provisioner.c.obj
                                       0x1fd4 (size before relaxing)
 .debug_str     0x000000000000a935      0x2c4 CMakeFiles/dfu_no_serial_nrf52832_xxAA_s132_6.0.0.dir/__/__/mesh/prov/src/prov_provisionee.c.obj
                                       0x2248 (size before relaxing)
 .debug_str     0x000000000000abf9      0x205 CMakeFiles/dfu_no_serial_nrf52832_xxAA_s132_6.0.0.dir/__/__/mesh/prov/src/nrf_mesh_prov.c.obj
                                       0x1e3a (size before relaxing)
 .debug_str     0x000000000000adfe       0xfa CMakeFiles/dfu_no_serial_nrf52832_xxAA_s132_6.0.0.dir/__/__/mesh/prov/src/provisioning.c.obj
                                        0xf8b (size before relaxing)
 .debug_str     0x000000000000aef8      0x14a CMakeFiles/dfu_no_serial_nrf52832_xxAA_s132_6.0.0.dir/__/__/mesh/prov/src/prov_beacon.c.obj
                                       0x19bc (size before relaxing)
 .debug_str     0x000000000000b042      0x23e CMakeFiles/dfu_no_serial_nrf52832_xxAA_s132_6.0.0.dir/__/__/mesh/prov/src/prov_utils.c.obj
                                       0x1f89 (size before relaxing)
 .debug_str     0x000000000000b280      0x575 CMakeFiles/dfu_no_serial_nrf52832_xxAA_s132_6.0.0.dir/__/__/mesh/prov/src/prov_bearer_adv.c.obj
                                       0x1c20 (size before relaxing)
 .debug_str     0x000000000000b7f5     0x16c5 CMakeFiles/dfu_no_serial_nrf52832_xxAA_s132_6.0.0.dir/__/__/mesh/dfu/src/nrf_mesh_dfu.c.obj
                                       0x376e (size before relaxing)
 .debug_str     0x000000000000ceba       0xce CMakeFiles/dfu_no_serial_nrf52832_xxAA_s132_6.0.0.dir/__/common/src/app_error_weak.c.obj
                                        0x8bd (size before relaxing)
 .debug_str     0x000000000000cf88       0x67 CMakeFiles/dfu_no_serial_nrf52832_xxAA_s132_6.0.0.dir/__/common/src/assertion_handler_weak.c.obj
                                        0x6d2 (size before relaxing)
 .debug_str     0x000000000000cfef       0xac CMakeFiles/dfu_no_serial_nrf52832_xxAA_s132_6.0.0.dir/__/__/mesh/core/src/nrf_mesh_configure.c.obj
                                        0x7de (size before relaxing)
 .debug_str     0x000000000000d09b       0xf8 CMakeFiles/dfu_no_serial_nrf52832_xxAA_s132_6.0.0.dir/__/__/mesh/core/src/aes.c.obj
                                        0xae9 (size before relaxing)
 .debug_str     0x000000000000d193       0xf2 CMakeFiles/dfu_no_serial_nrf52832_xxAA_s132_6.0.0.dir/__/__/mesh/core/src/msg_cache.c.obj
                                        0x719 (size before relaxing)
 .debug_str     0x000000000000d285     0x11bf CMakeFiles/dfu_no_serial_nrf52832_xxAA_s132_6.0.0.dir/__/__/mesh/core/src/transport.c.obj
                                       0x3177 (size before relaxing)
 .debug_str     0x000000000000e444       0xb9 CMakeFiles/dfu_no_serial_nrf52832_xxAA_s132_6.0.0.dir/__/__/mesh/core/src/event.c.obj
                                       0x1713 (size before relaxing)
 .debug_str     0x000000000000e4fd      0x33c CMakeFiles/dfu_no_serial_nrf52832_xxAA_s132_6.0.0.dir/__/__/mesh/core/src/packet_buffer.c.obj
                                        0xb0c (size before relaxing)
 .debug_str     0x000000000000e839      0x4d6 CMakeFiles/dfu_no_serial_nrf52832_xxAA_s132_6.0.0.dir/__/__/mesh/core/src/flash_manager_defrag.c.obj
                                       0x1164 (size before relaxing)
 .debug_str     0x000000000000ed0f       0xd5 CMakeFiles/dfu_no_serial_nrf52832_xxAA_s132_6.0.0.dir/__/__/mesh/core/src/fifo.c.obj
                                        0x73b (size before relaxing)
 .debug_str     0x000000000000ede4       0xe1 CMakeFiles/dfu_no_serial_nrf52832_xxAA_s132_6.0.0.dir/__/__/mesh/core/src/nrf_flash.c.obj
                                        0x71b (size before relaxing)
 .debug_str     0x000000000000eec5      0x2ad CMakeFiles/dfu_no_serial_nrf52832_xxAA_s132_6.0.0.dir/__/__/mesh/core/src/packet_mgr.c.obj
                                        0xa05 (size before relaxing)
 .debug_str     0x000000000000f172      0x406 CMakeFiles/dfu_no_serial_nrf52832_xxAA_s132_6.0.0.dir/__/__/mesh/core/src/net_state.c.obj
                                       0x21b9 (size before relaxing)
 .debug_str     0x000000000000f578      0x38e CMakeFiles/dfu_no_serial_nrf52832_xxAA_s132_6.0.0.dir/__/__/mesh/core/src/mesh_flash.c.obj
                                        0xd3c (size before relaxing)
 .debug_str     0x000000000000f906       0xc2 CMakeFiles/dfu_no_serial_nrf52832_xxAA_s132_6.0.0.dir/__/__/mesh/core/src/nrf_mesh_utils.c.obj
                                        0x7b1 (size before relaxing)
 .debug_str     0x000000000000f9c8      0x4a1 CMakeFiles/dfu_no_serial_nrf52832_xxAA_s132_6.0.0.dir/__/__/mesh/core/src/nrf_mesh.c.obj
                                       0x2197 (size before relaxing)
 .debug_str     0x000000000000fe69       0x92 CMakeFiles/dfu_no_serial_nrf52832_xxAA_s132_6.0.0.dir/__/__/mesh/core/src/queue.c.obj
                                        0x6e3 (size before relaxing)
 .debug_str     0x000000000000fefb       0xec CMakeFiles/dfu_no_serial_nrf52832_xxAA_s132_6.0.0.dir/__/__/mesh/core/src/hal.c.obj
                                        0x7a9 (size before relaxing)
 .debug_str     0x000000000000ffe7      0x107 CMakeFiles/dfu_no_serial_nrf52832_xxAA_s132_6.0.0.dir/__/__/mesh/core/src/aes_cmac.c.obj
                                        0x775 (size before relaxing)
 .debug_str     0x00000000000100ee      0x174 CMakeFiles/dfu_no_serial_nrf52832_xxAA_s132_6.0.0.dir/__/__/mesh/core/src/timer_scheduler.c.obj
                                        0x994 (size before relaxing)
 .debug_str     0x0000000000010262      0x263 CMakeFiles/dfu_no_serial_nrf52832_xxAA_s132_6.0.0.dir/__/__/mesh/core/src/timer.c.obj
                                        0x8c9 (size before relaxing)
 .debug_str     0x00000000000104c5       0x73 CMakeFiles/dfu_no_serial_nrf52832_xxAA_s132_6.0.0.dir/__/__/mesh/core/src/ticker.c.obj
                                        0x3b5 (size before relaxing)
 .debug_str     0x0000000000010538       0xbf CMakeFiles/dfu_no_serial_nrf52832_xxAA_s132_6.0.0.dir/__/__/mesh/core/src/rand.c.obj
                                        0x73d (size before relaxing)
 .debug_str     0x00000000000105f7       0x77 CMakeFiles/dfu_no_serial_nrf52832_xxAA_s132_6.0.0.dir/__/__/mesh/core/src/nrf_mesh_opt.c.obj
                                        0x950 (size before relaxing)
 .debug_str     0x000000000001066e      0x8e6 CMakeFiles/dfu_no_serial_nrf52832_xxAA_s132_6.0.0.dir/__/__/mesh/core/src/timeslot.c.obj
                                       0x1856 (size before relaxing)
 .debug_str     0x0000000000010f54      0x2c9 CMakeFiles/dfu_no_serial_nrf52832_xxAA_s132_6.0.0.dir/__/__/mesh/core/src/bearer_event.c.obj
                                        0xf19 (size before relaxing)
 .debug_str     0x000000000001121d      0x18a CMakeFiles/dfu_no_serial_nrf52832_xxAA_s132_6.0.0.dir/__/__/mesh/core/src/enc.c.obj
                                        0xa48 (size before relaxing)
 .debug_str     0x00000000000113a7      0x330 CMakeFiles/dfu_no_serial_nrf52832_xxAA_s132_6.0.0.dir/__/__/mesh/core/src/network.c.obj
                                       0x1348 (size before relaxing)
 .debug_str     0x00000000000116d7      0x329 CMakeFiles/dfu_no_serial_nrf52832_xxAA_s132_6.0.0.dir/__/__/mesh/core/src/net_packet.c.obj
                                        0xee6 (size before relaxing)
 .debug_str     0x0000000000011a00       0x8a CMakeFiles/dfu_no_serial_nrf52832_xxAA_s132_6.0.0.dir/__/__/mesh/core/src/msqueue.c.obj
                                        0x71f (size before relaxing)
 .debug_str     0x0000000000011a8a       0x8e CMakeFiles/dfu_no_serial_nrf52832_xxAA_s132_6.0.0.dir/__/__/mesh/core/src/nrf_mesh_keygen.c.obj
                                        0x3f7 (size before relaxing)
 .debug_str     0x0000000000011b18       0x9c CMakeFiles/dfu_no_serial_nrf52832_xxAA_s132_6.0.0.dir/__/__/mesh/core/src/list.c.obj
                                        0x31e (size before relaxing)
 .debug_str     0x0000000000011bb4      0x1bb CMakeFiles/dfu_no_serial_nrf52832_xxAA_s132_6.0.0.dir/__/__/mesh/core/src/log.c.obj
                                        0x830 (size before relaxing)
 .debug_str     0x0000000000011d6f      0x51b CMakeFiles/dfu_no_serial_nrf52832_xxAA_s132_6.0.0.dir/__/__/mesh/core/src/flash_manager.c.obj
                                       0x15d8 (size before relaxing)
 .debug_str     0x000000000001228a       0xbc CMakeFiles/dfu_no_serial_nrf52832_xxAA_s132_6.0.0.dir/__/__/mesh/core/src/ccm_soft.c.obj
                                        0x7bd (size before relaxing)
 .debug_str     0x0000000000012346       0xc9 CMakeFiles/dfu_no_serial_nrf52832_xxAA_s132_6.0.0.dir/__/__/mesh/core/src/replay_cache.c.obj
                                        0x6ed (size before relaxing)
 .debug_str     0x000000000001240f       0xc2 CMakeFiles/dfu_no_serial_nrf52832_xxAA_s132_6.0.0.dir/__/__/mesh/core/src/beacon.c.obj
                                       0x1163 (size before relaxing)
 .debug_str     0x00000000000124d1       0x6f CMakeFiles/dfu_no_serial_nrf52832_xxAA_s132_6.0.0.dir/__/__/mesh/core/src/flash_manager_internal.c.obj
                                        0x804 (size before relaxing)
 .debug_str     0x0000000000012540      0x2f5 CMakeFiles/dfu_no_serial_nrf52832_xxAA_s132_6.0.0.dir/__/__/mesh/core/src/core_tx.c.obj
                                        0xc4f (size before relaxing)
 .debug_str     0x0000000000012835      0x392 CMakeFiles/dfu_no_serial_nrf52832_xxAA_s132_6.0.0.dir/__/__/mesh/core/src/heartbeat.c.obj
                                       0x22a0 (size before relaxing)
 .debug_str     0x0000000000012bc7      0x1e5 CMakeFiles/dfu_no_serial_nrf52832_xxAA_s132_6.0.0.dir/__/__/mesh/core/src/net_beacon.c.obj
                                       0x2100 (size before relaxing)
 .debug_str     0x0000000000012dac      0x13e CMakeFiles/dfu_no_serial_nrf52832_xxAA_s132_6.0.0.dir/__/__/mesh/core/src/core_tx_adv.c.obj
                                       0x1339 (size before relaxing)
 .debug_str     0x0000000000012eea      0x1b0 CMakeFiles/dfu_no_serial_nrf52832_xxAA_s132_6.0.0.dir/__/__/mesh/bearer/src/ad_listener.c.obj
                                        0xc42 (size before relaxing)
 .debug_str     0x000000000001309a      0x186 CMakeFiles/dfu_no_serial_nrf52832_xxAA_s132_6.0.0.dir/__/__/mesh/bearer/src/ad_type_filter.c.obj
                                        0x9ff (size before relaxing)
 .debug_str     0x0000000000013220      0x30d CMakeFiles/dfu_no_serial_nrf52832_xxAA_s132_6.0.0.dir/__/__/mesh/bearer/src/advertiser.c.obj
                                       0x1552 (size before relaxing)
 .debug_str     0x000000000001352d      0x35f CMakeFiles/dfu_no_serial_nrf52832_xxAA_s132_6.0.0.dir/__/__/mesh/bearer/src/bearer_handler.c.obj
                                        0xfd5 (size before relaxing)
 .debug_str     0x000000000001388c      0x1e3 CMakeFiles/dfu_no_serial_nrf52832_xxAA_s132_6.0.0.dir/__/__/mesh/bearer/src/broadcast.c.obj
                                        0xf8c (size before relaxing)
 .debug_str     0x0000000000013a6f       0xa9 CMakeFiles/dfu_no_serial_nrf52832_xxAA_s132_6.0.0.dir/__/__/mesh/bearer/src/filter_engine.c.obj
                                        0x86c (size before relaxing)
 .debug_str     0x0000000000013b18       0xb0 CMakeFiles/dfu_no_serial_nrf52832_xxAA_s132_6.0.0.dir/__/__/mesh/bearer/src/radio_config.c.obj
                                        0x7da (size before relaxing)
 .debug_str     0x0000000000013bc8      0x494 CMakeFiles/dfu_no_serial_nrf52832_xxAA_s132_6.0.0.dir/__/__/mesh/bearer/src/scanner.c.obj
                                       0x191e (size before relaxing)
 .debug_str     0x000000000001405c      0x2f6 CMakeFiles/dfu_no_serial_nrf52832_xxAA_s132_6.0.0.dir/home/mazzer/work/nordic/sdk/nRF5_SDK_15.0.0/modules/nrfx/mdk/system_nrf52.c.obj
                                        0x7b2 (size before relaxing)
 .debug_str     0x0000000000014352       0x61 CMakeFiles/dfu_no_serial_nrf52832_xxAA_s132_6.0.0.dir/home/mazzer/work/nordic/sdk/nRF5_SDK_15.0.0/modules/nrfx/mdk/gcc_startup_nrf52.S.obj
                                         0xaa (size before relaxing)
 .debug_str     0x00000000000143b3       0xac CMakeFiles/dfu_no_serial_nrf52832_xxAA_s132_6.0.0.dir/home/mazzer/work/nordic/sdk/nRF5_SDK_15.0.0/components/libraries/util/app_error.c.obj
                                        0x75d (size before relaxing)
 .debug_str     0x000000000001445f       0x5f CMakeFiles/dfu_no_serial_nrf52832_xxAA_s132_6.0.0.dir/home/mazzer/work/nordic/sdk/nRF5_SDK_15.0.0/components/libraries/util/app_error_handler_gcc.c.obj
                                        0x6c2 (size before relaxing)
 .debug_str     0x00000000000144be      0x351 ../../external/rtt/librtt_nrf52832_xxAA.a(SEGGER_RTT.c.obj)
                                        0x982 (size before relaxing)
 .debug_str     0x000000000001480f      0x116 ../../external/rtt/librtt_nrf52832_xxAA.a(SEGGER_RTT_printf.c.obj)
                                        0x7f2 (size before relaxing)
 .debug_str     0x0000000000014925      0x6fd ../../external/micro-ecc/libuECC_nrf52832_xxAA.a(uECC.c.obj)
                                        0x8df (size before relaxing)

.debug_frame    0x0000000000000000     0x6e88
 .debug_frame   0x0000000000000000       0xa0 CMakeFiles/dfu_no_serial_nrf52832_xxAA_s132_6.0.0.dir/src/main.c.obj
 .debug_frame   0x00000000000000a0       0xdc CMakeFiles/dfu_no_serial_nrf52832_xxAA_s132_6.0.0.dir/__/__/mesh/stack/src/mesh_stack.c.obj
 .debug_frame   0x000000000000017c       0x88 CMakeFiles/dfu_no_serial_nrf52832_xxAA_s132_6.0.0.dir/__/common/src/mesh_softdevice_init.c.obj
 .debug_frame   0x0000000000000204       0x64 CMakeFiles/dfu_no_serial_nrf52832_xxAA_s132_6.0.0.dir/__/common/src/mesh_provisionee.c.obj
 .debug_frame   0x0000000000000268       0xbc CMakeFiles/dfu_no_serial_nrf52832_xxAA_s132_6.0.0.dir/__/common/src/simple_hal.c.obj
 .debug_frame   0x0000000000000324       0xf4 CMakeFiles/dfu_no_serial_nrf52832_xxAA_s132_6.0.0.dir/__/__/mesh/access/src/access_publish.c.obj
 .debug_frame   0x0000000000000418      0x648 CMakeFiles/dfu_no_serial_nrf52832_xxAA_s132_6.0.0.dir/__/__/mesh/access/src/access.c.obj
 .debug_frame   0x0000000000000a60      0x148 CMakeFiles/dfu_no_serial_nrf52832_xxAA_s132_6.0.0.dir/__/__/mesh/access/src/access_reliable.c.obj
 .debug_frame   0x0000000000000ba8      0xbd4 CMakeFiles/dfu_no_serial_nrf52832_xxAA_s132_6.0.0.dir/__/__/mesh/access/src/device_state_manager.c.obj
 .debug_frame   0x000000000000177c       0x48 CMakeFiles/dfu_no_serial_nrf52832_xxAA_s132_6.0.0.dir/__/__/models/config/src/composition_data.c.obj
 .debug_frame   0x00000000000017c4      0x858 CMakeFiles/dfu_no_serial_nrf52832_xxAA_s132_6.0.0.dir/__/__/models/config/src/config_server.c.obj
 .debug_frame   0x000000000000201c       0x30 CMakeFiles/dfu_no_serial_nrf52832_xxAA_s132_6.0.0.dir/__/__/models/config/src/packed_index_list.c.obj
 .debug_frame   0x000000000000204c      0x27c CMakeFiles/dfu_no_serial_nrf52832_xxAA_s132_6.0.0.dir/__/__/models/health/src/health_server.c.obj
 .debug_frame   0x00000000000022c8      0x1a8 CMakeFiles/dfu_no_serial_nrf52832_xxAA_s132_6.0.0.dir/__/__/mesh/prov/src/prov_provisioner.c.obj
 .debug_frame   0x0000000000002470      0x198 CMakeFiles/dfu_no_serial_nrf52832_xxAA_s132_6.0.0.dir/__/__/mesh/prov/src/prov_provisionee.c.obj
 .debug_frame   0x0000000000002608      0x1c8 CMakeFiles/dfu_no_serial_nrf52832_xxAA_s132_6.0.0.dir/__/__/mesh/prov/src/nrf_mesh_prov.c.obj
 .debug_frame   0x00000000000027d0      0x1a0 CMakeFiles/dfu_no_serial_nrf52832_xxAA_s132_6.0.0.dir/__/__/mesh/prov/src/provisioning.c.obj
 .debug_frame   0x0000000000002970       0x88 CMakeFiles/dfu_no_serial_nrf52832_xxAA_s132_6.0.0.dir/__/__/mesh/prov/src/prov_beacon.c.obj
 .debug_frame   0x00000000000029f8      0x11c CMakeFiles/dfu_no_serial_nrf52832_xxAA_s132_6.0.0.dir/__/__/mesh/prov/src/prov_utils.c.obj
 .debug_frame   0x0000000000002b14      0x2d8 CMakeFiles/dfu_no_serial_nrf52832_xxAA_s132_6.0.0.dir/__/__/mesh/prov/src/prov_bearer_adv.c.obj
 .debug_frame   0x0000000000002dec      0x2f0 CMakeFiles/dfu_no_serial_nrf52832_xxAA_s132_6.0.0.dir/__/__/mesh/dfu/src/nrf_mesh_dfu.c.obj
 .debug_frame   0x00000000000030dc       0x34 CMakeFiles/dfu_no_serial_nrf52832_xxAA_s132_6.0.0.dir/__/common/src/app_error_weak.c.obj
 .debug_frame   0x0000000000003110       0x2c CMakeFiles/dfu_no_serial_nrf52832_xxAA_s132_6.0.0.dir/__/common/src/assertion_handler_weak.c.obj
 .debug_frame   0x000000000000313c       0x4c CMakeFiles/dfu_no_serial_nrf52832_xxAA_s132_6.0.0.dir/__/__/mesh/core/src/nrf_mesh_configure.c.obj
 .debug_frame   0x0000000000003188       0x40 CMakeFiles/dfu_no_serial_nrf52832_xxAA_s132_6.0.0.dir/__/__/mesh/core/src/aes.c.obj
 .debug_frame   0x00000000000031c8       0x7c CMakeFiles/dfu_no_serial_nrf52832_xxAA_s132_6.0.0.dir/__/__/mesh/core/src/msg_cache.c.obj
 .debug_frame   0x0000000000003244      0x3fc CMakeFiles/dfu_no_serial_nrf52832_xxAA_s132_6.0.0.dir/__/__/mesh/core/src/transport.c.obj
 .debug_frame   0x0000000000003640       0x74 CMakeFiles/dfu_no_serial_nrf52832_xxAA_s132_6.0.0.dir/__/__/mesh/core/src/event.c.obj
 .debug_frame   0x00000000000036b4      0x10c CMakeFiles/dfu_no_serial_nrf52832_xxAA_s132_6.0.0.dir/__/__/mesh/core/src/packet_buffer.c.obj
 .debug_frame   0x00000000000037c0      0x268 CMakeFiles/dfu_no_serial_nrf52832_xxAA_s132_6.0.0.dir/__/__/mesh/core/src/flash_manager_defrag.c.obj
 .debug_frame   0x0000000000003a28       0xd8 CMakeFiles/dfu_no_serial_nrf52832_xxAA_s132_6.0.0.dir/__/__/mesh/core/src/fifo.c.obj
 .debug_frame   0x0000000000003b00       0x3c CMakeFiles/dfu_no_serial_nrf52832_xxAA_s132_6.0.0.dir/__/__/mesh/core/src/nrf_flash.c.obj
 .debug_frame   0x0000000000003b3c       0xac CMakeFiles/dfu_no_serial_nrf52832_xxAA_s132_6.0.0.dir/__/__/mesh/core/src/packet_mgr.c.obj
 .debug_frame   0x0000000000003be8      0x31c CMakeFiles/dfu_no_serial_nrf52832_xxAA_s132_6.0.0.dir/__/__/mesh/core/src/net_state.c.obj
 .debug_frame   0x0000000000003f04      0x130 CMakeFiles/dfu_no_serial_nrf52832_xxAA_s132_6.0.0.dir/__/__/mesh/core/src/mesh_flash.c.obj
 .debug_frame   0x0000000000004034       0x60 CMakeFiles/dfu_no_serial_nrf52832_xxAA_s132_6.0.0.dir/__/__/mesh/core/src/nrf_mesh_utils.c.obj
 .debug_frame   0x0000000000004094      0x200 CMakeFiles/dfu_no_serial_nrf52832_xxAA_s132_6.0.0.dir/__/__/mesh/core/src/nrf_mesh.c.obj
 .debug_frame   0x0000000000004294       0x74 CMakeFiles/dfu_no_serial_nrf52832_xxAA_s132_6.0.0.dir/__/__/mesh/core/src/queue.c.obj
 .debug_frame   0x0000000000004308       0x58 CMakeFiles/dfu_no_serial_nrf52832_xxAA_s132_6.0.0.dir/__/__/mesh/core/src/hal.c.obj
 .debug_frame   0x0000000000004360       0x60 CMakeFiles/dfu_no_serial_nrf52832_xxAA_s132_6.0.0.dir/__/__/mesh/core/src/aes_cmac.c.obj
 .debug_frame   0x00000000000043c0       0xe4 CMakeFiles/dfu_no_serial_nrf52832_xxAA_s132_6.0.0.dir/__/__/mesh/core/src/timer_scheduler.c.obj
 .debug_frame   0x00000000000044a4      0x158 CMakeFiles/dfu_no_serial_nrf52832_xxAA_s132_6.0.0.dir/__/__/mesh/core/src/timer.c.obj
 .debug_frame   0x00000000000045fc       0x4c CMakeFiles/dfu_no_serial_nrf52832_xxAA_s132_6.0.0.dir/__/__/mesh/core/src/ticker.c.obj
 .debug_frame   0x0000000000004648       0x9c CMakeFiles/dfu_no_serial_nrf52832_xxAA_s132_6.0.0.dir/__/__/mesh/core/src/rand.c.obj
 .debug_frame   0x00000000000046e4       0x30 CMakeFiles/dfu_no_serial_nrf52832_xxAA_s132_6.0.0.dir/__/__/mesh/core/src/nrf_mesh_opt.c.obj
 .debug_frame   0x0000000000004714      0x190 CMakeFiles/dfu_no_serial_nrf52832_xxAA_s132_6.0.0.dir/__/__/mesh/core/src/timeslot.c.obj
 .debug_frame   0x00000000000048a4      0x1ac CMakeFiles/dfu_no_serial_nrf52832_xxAA_s132_6.0.0.dir/__/__/mesh/core/src/bearer_event.c.obj
 .debug_frame   0x0000000000004a50      0x158 CMakeFiles/dfu_no_serial_nrf52832_xxAA_s132_6.0.0.dir/__/__/mesh/core/src/enc.c.obj
 .debug_frame   0x0000000000004ba8      0x10c CMakeFiles/dfu_no_serial_nrf52832_xxAA_s132_6.0.0.dir/__/__/mesh/core/src/network.c.obj
 .debug_frame   0x0000000000004cb4       0xec CMakeFiles/dfu_no_serial_nrf52832_xxAA_s132_6.0.0.dir/__/__/mesh/core/src/net_packet.c.obj
 .debug_frame   0x0000000000004da0       0x94 CMakeFiles/dfu_no_serial_nrf52832_xxAA_s132_6.0.0.dir/__/__/mesh/core/src/msqueue.c.obj
 .debug_frame   0x0000000000004e34       0xc8 CMakeFiles/dfu_no_serial_nrf52832_xxAA_s132_6.0.0.dir/__/__/mesh/core/src/nrf_mesh_keygen.c.obj
 .debug_frame   0x0000000000004efc       0x98 CMakeFiles/dfu_no_serial_nrf52832_xxAA_s132_6.0.0.dir/__/__/mesh/core/src/list.c.obj
 .debug_frame   0x0000000000004f94       0xc0 CMakeFiles/dfu_no_serial_nrf52832_xxAA_s132_6.0.0.dir/__/__/mesh/core/src/log.c.obj
 .debug_frame   0x0000000000005054      0x258 CMakeFiles/dfu_no_serial_nrf52832_xxAA_s132_6.0.0.dir/__/__/mesh/core/src/flash_manager.c.obj
 .debug_frame   0x00000000000052ac       0xcc CMakeFiles/dfu_no_serial_nrf52832_xxAA_s132_6.0.0.dir/__/__/mesh/core/src/ccm_soft.c.obj
 .debug_frame   0x0000000000005378       0xb8 CMakeFiles/dfu_no_serial_nrf52832_xxAA_s132_6.0.0.dir/__/__/mesh/core/src/replay_cache.c.obj
 .debug_frame   0x0000000000005430       0x7c CMakeFiles/dfu_no_serial_nrf52832_xxAA_s132_6.0.0.dir/__/__/mesh/core/src/beacon.c.obj
 .debug_frame   0x00000000000054ac       0x34 CMakeFiles/dfu_no_serial_nrf52832_xxAA_s132_6.0.0.dir/__/__/mesh/core/src/flash_manager_internal.c.obj
 .debug_frame   0x00000000000054e0       0xf8 CMakeFiles/dfu_no_serial_nrf52832_xxAA_s132_6.0.0.dir/__/__/mesh/core/src/core_tx.c.obj
 .debug_frame   0x00000000000055d8      0x184 CMakeFiles/dfu_no_serial_nrf52832_xxAA_s132_6.0.0.dir/__/__/mesh/core/src/heartbeat.c.obj
 .debug_frame   0x000000000000575c      0x114 CMakeFiles/dfu_no_serial_nrf52832_xxAA_s132_6.0.0.dir/__/__/mesh/core/src/net_beacon.c.obj
 .debug_frame   0x0000000000005870      0x138 CMakeFiles/dfu_no_serial_nrf52832_xxAA_s132_6.0.0.dir/__/__/mesh/core/src/core_tx_adv.c.obj
 .debug_frame   0x00000000000059a8       0x94 CMakeFiles/dfu_no_serial_nrf52832_xxAA_s132_6.0.0.dir/__/__/mesh/bearer/src/ad_listener.c.obj
 .debug_frame   0x0000000000005a3c       0xc0 CMakeFiles/dfu_no_serial_nrf52832_xxAA_s132_6.0.0.dir/__/__/mesh/bearer/src/ad_type_filter.c.obj
 .debug_frame   0x0000000000005afc      0x278 CMakeFiles/dfu_no_serial_nrf52832_xxAA_s132_6.0.0.dir/__/__/mesh/bearer/src/advertiser.c.obj
 .debug_frame   0x0000000000005d74      0x170 CMakeFiles/dfu_no_serial_nrf52832_xxAA_s132_6.0.0.dir/__/__/mesh/bearer/src/bearer_handler.c.obj
 .debug_frame   0x0000000000005ee4       0x74 CMakeFiles/dfu_no_serial_nrf52832_xxAA_s132_6.0.0.dir/__/__/mesh/bearer/src/broadcast.c.obj
 .debug_frame   0x0000000000005f58       0x88 CMakeFiles/dfu_no_serial_nrf52832_xxAA_s132_6.0.0.dir/__/__/mesh/bearer/src/filter_engine.c.obj
 .debug_frame   0x0000000000005fe0       0x98 CMakeFiles/dfu_no_serial_nrf52832_xxAA_s132_6.0.0.dir/__/__/mesh/bearer/src/radio_config.c.obj
 .debug_frame   0x0000000000006078      0x244 CMakeFiles/dfu_no_serial_nrf52832_xxAA_s132_6.0.0.dir/__/__/mesh/bearer/src/scanner.c.obj
 .debug_frame   0x00000000000062bc       0x40 CMakeFiles/dfu_no_serial_nrf52832_xxAA_s132_6.0.0.dir/home/mazzer/work/nordic/sdk/nRF5_SDK_15.0.0/modules/nrfx/mdk/system_nrf52.c.obj
 .debug_frame   0x00000000000062fc       0x54 CMakeFiles/dfu_no_serial_nrf52832_xxAA_s132_6.0.0.dir/home/mazzer/work/nordic/sdk/nRF5_SDK_15.0.0/components/libraries/util/app_error.c.obj
 .debug_frame   0x0000000000006350       0x20 CMakeFiles/dfu_no_serial_nrf52832_xxAA_s132_6.0.0.dir/home/mazzer/work/nordic/sdk/nRF5_SDK_15.0.0/components/libraries/util/app_error_handler_gcc.c.obj
 .debug_frame   0x0000000000006370      0x2e4 ../../external/rtt/librtt_nrf52832_xxAA.a(SEGGER_RTT.c.obj)
 .debug_frame   0x0000000000006654       0xa0 ../../external/rtt/librtt_nrf52832_xxAA.a(SEGGER_RTT_printf.c.obj)
 .debug_frame   0x00000000000066f4      0x4c8 ../../external/micro-ecc/libuECC_nrf52832_xxAA.a(uECC.c.obj)
 .debug_frame   0x0000000000006bbc       0x28 /usr/bin/../lib/gcc/arm-none-eabi/7.2.1/../../../../arm-none-eabi/lib/thumb/v7e-m/fpv4-sp/hard/libg_nano.a(lib_a-exit.o)
 .debug_frame   0x0000000000006be4       0x2c /usr/bin/../lib/gcc/arm-none-eabi/7.2.1/../../../../arm-none-eabi/lib/thumb/v7e-m/fpv4-sp/hard/libg_nano.a(lib_a-init.o)
 .debug_frame   0x0000000000006c10       0x30 /usr/bin/../lib/gcc/arm-none-eabi/7.2.1/../../../../arm-none-eabi/lib/thumb/v7e-m/fpv4-sp/hard/libg_nano.a(lib_a-malloc.o)
 .debug_frame   0x0000000000006c40       0x2c /usr/bin/../lib/gcc/arm-none-eabi/7.2.1/../../../../arm-none-eabi/lib/thumb/v7e-m/fpv4-sp/hard/libg_nano.a(lib_a-memcmp.o)
 .debug_frame   0x0000000000006c6c       0x28 /usr/bin/../lib/gcc/arm-none-eabi/7.2.1/../../../../arm-none-eabi/lib/thumb/v7e-m/fpv4-sp/hard/libg_nano.a(lib_a-memcpy-stub.o)
 .debug_frame   0x0000000000006c94       0x20 /usr/bin/../lib/gcc/arm-none-eabi/7.2.1/../../../../arm-none-eabi/lib/thumb/v7e-m/fpv4-sp/hard/libg_nano.a(lib_a-memset.o)
 .debug_frame   0x0000000000006cb4       0x38 /usr/bin/../lib/gcc/arm-none-eabi/7.2.1/../../../../arm-none-eabi/lib/thumb/v7e-m/fpv4-sp/hard/libg_nano.a(lib_a-nano-freer.o)
 .debug_frame   0x0000000000006cec       0x2c /usr/bin/../lib/gcc/arm-none-eabi/7.2.1/../../../../arm-none-eabi/lib/thumb/v7e-m/fpv4-sp/hard/libg_nano.a(lib_a-nano-mallocr.o)
 .debug_frame   0x0000000000006d18       0x2c /usr/bin/../lib/gcc/arm-none-eabi/7.2.1/../../../../arm-none-eabi/lib/thumb/v7e-m/fpv4-sp/hard/libg_nano.a(lib_a-sbrkr.o)
 .debug_frame   0x0000000000006d44       0x20 /usr/bin/../lib/gcc/arm-none-eabi/7.2.1/../../../../arm-none-eabi/lib/thumb/v7e-m/fpv4-sp/hard/libg_nano.a(lib_a-strcpy.o)
 .debug_frame   0x0000000000006d64       0x38 /usr/bin/../lib/gcc/arm-none-eabi/7.2.1/../../../../arm-none-eabi/lib/thumb/v7e-m/fpv4-sp/hard/libg_nano.a(lib_a-strrchr.o)
 .debug_frame   0x0000000000006d9c       0x30 /usr/bin/../lib/gcc/arm-none-eabi/7.2.1/../../../../arm-none-eabi/lib/thumb/v7e-m/fpv4-sp/hard/libg_nano.a(lib_a-mlock.o)
 .debug_frame   0x0000000000006dcc       0x5c /usr/bin/../lib/gcc/arm-none-eabi/7.2.1/../../../../arm-none-eabi/lib/thumb/v7e-m/fpv4-sp/hard/libg_nano.a(lib_a-reent.o)
 .debug_frame   0x0000000000006e28       0x20 /usr/bin/../lib/gcc/arm-none-eabi/7.2.1/../../../../arm-none-eabi/lib/thumb/v7e-m/fpv4-sp/hard/libg_nano.a(lib_a-strchr.o)
 .debug_frame   0x0000000000006e48       0x20 /usr/bin/../lib/gcc/arm-none-eabi/7.2.1/../../../../arm-none-eabi/lib/thumb/v7e-m/fpv4-sp/hard/libnosys.a(sbrk.o)
 .debug_frame   0x0000000000006e68       0x20 /usr/bin/../lib/gcc/arm-none-eabi/7.2.1/../../../../arm-none-eabi/lib/thumb/v7e-m/fpv4-sp/hard/libnosys.a(_exit.o)
