Archive member included to satisfy reference by file (symbol)

../../../external/rtt/librtt_nrf52840_xxAA.a(SEGGER_RTT.c.obj)
                              CMakeFiles/light_switch_provisioner_nrf52840_xxAA_s140_6.0.0.dir/__/__/__/mesh/core/src/log.c.obj (SEGGER_RTT_Write)
../../../external/rtt/librtt_nrf52840_xxAA.a(SEGGER_RTT_printf.c.obj)
                              CMakeFiles/light_switch_provisioner_nrf52840_xxAA_s140_6.0.0.dir/__/__/__/mesh/core/src/log.c.obj (SEGGER_RTT_vprintf)
../../../external/micro-ecc/libuECC_nrf52840_xxAA.a(uECC.c.obj)
                              CMakeFiles/light_switch_provisioner_nrf52840_xxAA_s140_6.0.0.dir/__/__/__/mesh/prov/src/prov_utils.c.obj (uECC_secp256r1)
/usr/bin/../lib/gcc/arm-none-eabi/7.2.1/thumb/v7e-m/fpv4-sp/hard/libgcc.a(_aeabi_ldivmod.o)
                              CMakeFiles/light_switch_provisioner_nrf52840_xxAA_s140_6.0.0.dir/__/__/common/src/rtt_input.c.obj (__aeabi_ldivmod)
/usr/bin/../lib/gcc/arm-none-eabi/7.2.1/thumb/v7e-m/fpv4-sp/hard/libgcc.a(_aeabi_uldivmod.o)
                              CMakeFiles/light_switch_provisioner_nrf52840_xxAA_s140_6.0.0.dir/__/__/common/src/rtt_input.c.obj (__aeabi_uldivmod)
/usr/bin/../lib/gcc/arm-none-eabi/7.2.1/thumb/v7e-m/fpv4-sp/hard/libgcc.a(_udivmoddi4.o)
                              /usr/bin/../lib/gcc/arm-none-eabi/7.2.1/thumb/v7e-m/fpv4-sp/hard/libgcc.a(_aeabi_ldivmod.o) (__udivmoddi4)
/usr/bin/../lib/gcc/arm-none-eabi/7.2.1/thumb/v7e-m/fpv4-sp/hard/libgcc.a(_dvmd_tls.o)
                              /usr/bin/../lib/gcc/arm-none-eabi/7.2.1/thumb/v7e-m/fpv4-sp/hard/libgcc.a(_aeabi_ldivmod.o) (__aeabi_ldiv0)
/usr/bin/../lib/gcc/arm-none-eabi/7.2.1/../../../../arm-none-eabi/lib/thumb/v7e-m/fpv4-sp/hard/libg_nano.a(lib_a-exit.o)
                              /usr/bin/../lib/gcc/arm-none-eabi/7.2.1/../../../../arm-none-eabi/lib/thumb/v7e-m/fpv4-sp/hard/crt0.o (exit)
/usr/bin/../lib/gcc/arm-none-eabi/7.2.1/../../../../arm-none-eabi/lib/thumb/v7e-m/fpv4-sp/hard/libg_nano.a(lib_a-impure.o)
                              /usr/bin/../lib/gcc/arm-none-eabi/7.2.1/../../../../arm-none-eabi/lib/thumb/v7e-m/fpv4-sp/hard/libg_nano.a(lib_a-exit.o) (_global_impure_ptr)
/usr/bin/../lib/gcc/arm-none-eabi/7.2.1/../../../../arm-none-eabi/lib/thumb/v7e-m/fpv4-sp/hard/libg_nano.a(lib_a-init.o)
                              /usr/bin/../lib/gcc/arm-none-eabi/7.2.1/../../../../arm-none-eabi/lib/thumb/v7e-m/fpv4-sp/hard/crt0.o (__libc_init_array)
/usr/bin/../lib/gcc/arm-none-eabi/7.2.1/../../../../arm-none-eabi/lib/thumb/v7e-m/fpv4-sp/hard/libg_nano.a(lib_a-malloc.o)
                              CMakeFiles/light_switch_provisioner_nrf52840_xxAA_s140_6.0.0.dir/__/__/__/mesh/core/src/transport.c.obj (malloc)
/usr/bin/../lib/gcc/arm-none-eabi/7.2.1/../../../../arm-none-eabi/lib/thumb/v7e-m/fpv4-sp/hard/libg_nano.a(lib_a-memcmp.o)
                              CMakeFiles/light_switch_provisioner_nrf52840_xxAA_s140_6.0.0.dir/src/provisioner_helper.c.obj (memcmp)
/usr/bin/../lib/gcc/arm-none-eabi/7.2.1/../../../../arm-none-eabi/lib/thumb/v7e-m/fpv4-sp/hard/libg_nano.a(lib_a-memcpy-stub.o)
                              CMakeFiles/light_switch_provisioner_nrf52840_xxAA_s140_6.0.0.dir/src/main.c.obj (memcpy)
/usr/bin/../lib/gcc/arm-none-eabi/7.2.1/../../../../arm-none-eabi/lib/thumb/v7e-m/fpv4-sp/hard/libg_nano.a(lib_a-memset.o)
                              /usr/bin/../lib/gcc/arm-none-eabi/7.2.1/../../../../arm-none-eabi/lib/thumb/v7e-m/fpv4-sp/hard/crt0.o (memset)
/usr/bin/../lib/gcc/arm-none-eabi/7.2.1/../../../../arm-none-eabi/lib/thumb/v7e-m/fpv4-sp/hard/libg_nano.a(lib_a-nano-freer.o)
                              /usr/bin/../lib/gcc/arm-none-eabi/7.2.1/../../../../arm-none-eabi/lib/thumb/v7e-m/fpv4-sp/hard/libg_nano.a(lib_a-malloc.o) (_free_r)
/usr/bin/../lib/gcc/arm-none-eabi/7.2.1/../../../../arm-none-eabi/lib/thumb/v7e-m/fpv4-sp/hard/libg_nano.a(lib_a-nano-mallocr.o)
                              /usr/bin/../lib/gcc/arm-none-eabi/7.2.1/../../../../arm-none-eabi/lib/thumb/v7e-m/fpv4-sp/hard/libg_nano.a(lib_a-malloc.o) (_malloc_r)
/usr/bin/../lib/gcc/arm-none-eabi/7.2.1/../../../../arm-none-eabi/lib/thumb/v7e-m/fpv4-sp/hard/libg_nano.a(lib_a-sbrkr.o)
                              /usr/bin/../lib/gcc/arm-none-eabi/7.2.1/../../../../arm-none-eabi/lib/thumb/v7e-m/fpv4-sp/hard/libg_nano.a(lib_a-nano-mallocr.o) (_sbrk_r)
/usr/bin/../lib/gcc/arm-none-eabi/7.2.1/../../../../arm-none-eabi/lib/thumb/v7e-m/fpv4-sp/hard/libg_nano.a(lib_a-strcpy.o)
                              ../../../external/rtt/librtt_nrf52840_xxAA.a(SEGGER_RTT.c.obj) (strcpy)
/usr/bin/../lib/gcc/arm-none-eabi/7.2.1/../../../../arm-none-eabi/lib/thumb/v7e-m/fpv4-sp/hard/libg_nano.a(lib_a-strlen.o)
                              CMakeFiles/light_switch_provisioner_nrf52840_xxAA_s140_6.0.0.dir/__/__/__/mesh/core/src/uri.c.obj (strlen)
/usr/bin/../lib/gcc/arm-none-eabi/7.2.1/../../../../arm-none-eabi/lib/thumb/v7e-m/fpv4-sp/hard/libg_nano.a(lib_a-strrchr.o)
                              CMakeFiles/light_switch_provisioner_nrf52840_xxAA_s140_6.0.0.dir/src/main.c.obj (strrchr)
/usr/bin/../lib/gcc/arm-none-eabi/7.2.1/../../../../arm-none-eabi/lib/thumb/v7e-m/fpv4-sp/hard/libg_nano.a(lib_a-mlock.o)
                              /usr/bin/../lib/gcc/arm-none-eabi/7.2.1/../../../../arm-none-eabi/lib/thumb/v7e-m/fpv4-sp/hard/libg_nano.a(lib_a-nano-freer.o) (__malloc_lock)
/usr/bin/../lib/gcc/arm-none-eabi/7.2.1/../../../../arm-none-eabi/lib/thumb/v7e-m/fpv4-sp/hard/libg_nano.a(lib_a-reent.o)
                              /usr/bin/../lib/gcc/arm-none-eabi/7.2.1/../../../../arm-none-eabi/lib/thumb/v7e-m/fpv4-sp/hard/libg_nano.a(lib_a-sbrkr.o) (errno)
/usr/bin/../lib/gcc/arm-none-eabi/7.2.1/../../../../arm-none-eabi/lib/thumb/v7e-m/fpv4-sp/hard/libg_nano.a(lib_a-strchr.o)
                              /usr/bin/../lib/gcc/arm-none-eabi/7.2.1/../../../../arm-none-eabi/lib/thumb/v7e-m/fpv4-sp/hard/libg_nano.a(lib_a-strrchr.o) (strchr)
/usr/bin/../lib/gcc/arm-none-eabi/7.2.1/../../../../arm-none-eabi/lib/thumb/v7e-m/fpv4-sp/hard/libnosys.a(sbrk.o)
                              /usr/bin/../lib/gcc/arm-none-eabi/7.2.1/../../../../arm-none-eabi/lib/thumb/v7e-m/fpv4-sp/hard/libg_nano.a(lib_a-sbrkr.o) (_sbrk)
/usr/bin/../lib/gcc/arm-none-eabi/7.2.1/../../../../arm-none-eabi/lib/thumb/v7e-m/fpv4-sp/hard/libnosys.a(_exit.o)
                              /usr/bin/../lib/gcc/arm-none-eabi/7.2.1/../../../../arm-none-eabi/lib/thumb/v7e-m/fpv4-sp/hard/libg_nano.a(lib_a-exit.o) (_exit)

Allocating common symbols
Common symbol       size              file

nrf_nvic_state      0xc               CMakeFiles/light_switch_provisioner_nrf52840_xxAA_s140_6.0.0.dir/__/__/common/src/mesh_softdevice_init.c.obj
m_packet            0x24              CMakeFiles/light_switch_provisioner_nrf52840_xxAA_s140_6.0.0.dir/__/__/__/mesh/core/src/core_tx.c.obj
errno               0x4               /usr/bin/../lib/gcc/arm-none-eabi/7.2.1/../../../../arm-none-eabi/lib/thumb/v7e-m/fpv4-sp/hard/libg_nano.a(lib_a-reent.o)
_SEGGER_RTT         0x78              ../../../external/rtt/librtt_nrf52840_xxAA.a(SEGGER_RTT.c.obj)

Discarded input sections

 .text          0x0000000000000000        0x0 /usr/bin/../lib/gcc/arm-none-eabi/7.2.1/thumb/v7e-m/fpv4-sp/hard/crti.o
 .data          0x0000000000000000        0x0 /usr/bin/../lib/gcc/arm-none-eabi/7.2.1/thumb/v7e-m/fpv4-sp/hard/crti.o
 .bss           0x0000000000000000        0x0 /usr/bin/../lib/gcc/arm-none-eabi/7.2.1/thumb/v7e-m/fpv4-sp/hard/crti.o
 .data          0x0000000000000000        0x4 /usr/bin/../lib/gcc/arm-none-eabi/7.2.1/thumb/v7e-m/fpv4-sp/hard/crtbegin.o
 .data          0x0000000000000000        0x0 /usr/bin/../lib/gcc/arm-none-eabi/7.2.1/../../../../arm-none-eabi/lib/thumb/v7e-m/fpv4-sp/hard/crt0.o
 .bss           0x0000000000000000        0x0 /usr/bin/../lib/gcc/arm-none-eabi/7.2.1/../../../../arm-none-eabi/lib/thumb/v7e-m/fpv4-sp/hard/crt0.o
 .ARM.extab     0x0000000000000000        0x0 /usr/bin/../lib/gcc/arm-none-eabi/7.2.1/../../../../arm-none-eabi/lib/thumb/v7e-m/fpv4-sp/hard/crt0.o
 .text          0x0000000000000000        0x0 CMakeFiles/light_switch_provisioner_nrf52840_xxAA_s140_6.0.0.dir/src/main.c.obj
 .data          0x0000000000000000        0x0 CMakeFiles/light_switch_provisioner_nrf52840_xxAA_s140_6.0.0.dir/src/main.c.obj
 .bss           0x0000000000000000        0x0 CMakeFiles/light_switch_provisioner_nrf52840_xxAA_s140_6.0.0.dir/src/main.c.obj
 .text          0x0000000000000000        0x0 CMakeFiles/light_switch_provisioner_nrf52840_xxAA_s140_6.0.0.dir/__/__/__/mesh/stack/src/mesh_stack.c.obj
 .data          0x0000000000000000        0x0 CMakeFiles/light_switch_provisioner_nrf52840_xxAA_s140_6.0.0.dir/__/__/__/mesh/stack/src/mesh_stack.c.obj
 .bss           0x0000000000000000        0x0 CMakeFiles/light_switch_provisioner_nrf52840_xxAA_s140_6.0.0.dir/__/__/__/mesh/stack/src/mesh_stack.c.obj
 .text.mesh_evt_handler
                0x0000000000000000       0x10 CMakeFiles/light_switch_provisioner_nrf52840_xxAA_s140_6.0.0.dir/__/__/__/mesh/stack/src/mesh_stack.c.obj
 .text.mesh_stack_start
                0x0000000000000000        0x4 CMakeFiles/light_switch_provisioner_nrf52840_xxAA_s140_6.0.0.dir/__/__/__/mesh/stack/src/mesh_stack.c.obj
 .text.mesh_stack_provisioning_data_store
                0x0000000000000000       0x78 CMakeFiles/light_switch_provisioner_nrf52840_xxAA_s140_6.0.0.dir/__/__/__/mesh/stack/src/mesh_stack.c.obj
 .text.mesh_stack_is_device_provisioned
                0x0000000000000000       0x1c CMakeFiles/light_switch_provisioner_nrf52840_xxAA_s140_6.0.0.dir/__/__/__/mesh/stack/src/mesh_stack.c.obj
 .text.mesh_stack_device_reset
                0x0000000000000000       0x20 CMakeFiles/light_switch_provisioner_nrf52840_xxAA_s140_6.0.0.dir/__/__/__/mesh/stack/src/mesh_stack.c.obj
 .data.s_evt_handler.11509
                0x0000000000000000        0x8 CMakeFiles/light_switch_provisioner_nrf52840_xxAA_s140_6.0.0.dir/__/__/__/mesh/stack/src/mesh_stack.c.obj
 .text          0x0000000000000000        0x0 CMakeFiles/light_switch_provisioner_nrf52840_xxAA_s140_6.0.0.dir/src/provisioner_helper.c.obj
 .data          0x0000000000000000        0x0 CMakeFiles/light_switch_provisioner_nrf52840_xxAA_s140_6.0.0.dir/src/provisioner_helper.c.obj
 .bss           0x0000000000000000        0x0 CMakeFiles/light_switch_provisioner_nrf52840_xxAA_s140_6.0.0.dir/src/provisioner_helper.c.obj
 .text.prov_helper_element_count_get
                0x0000000000000000        0xc CMakeFiles/light_switch_provisioner_nrf52840_xxAA_s140_6.0.0.dir/src/provisioner_helper.c.obj
 .text          0x0000000000000000        0x0 CMakeFiles/light_switch_provisioner_nrf52840_xxAA_s140_6.0.0.dir/src/node_setup.c.obj
 .data          0x0000000000000000        0x0 CMakeFiles/light_switch_provisioner_nrf52840_xxAA_s140_6.0.0.dir/src/node_setup.c.obj
 .bss           0x0000000000000000        0x0 CMakeFiles/light_switch_provisioner_nrf52840_xxAA_s140_6.0.0.dir/src/node_setup.c.obj
 .text          0x0000000000000000        0x0 CMakeFiles/light_switch_provisioner_nrf52840_xxAA_s140_6.0.0.dir/__/__/common/src/mesh_softdevice_init.c.obj
 .data          0x0000000000000000        0x0 CMakeFiles/light_switch_provisioner_nrf52840_xxAA_s140_6.0.0.dir/__/__/common/src/mesh_softdevice_init.c.obj
 .bss           0x0000000000000000        0x0 CMakeFiles/light_switch_provisioner_nrf52840_xxAA_s140_6.0.0.dir/__/__/common/src/mesh_softdevice_init.c.obj
 .text          0x0000000000000000        0x0 CMakeFiles/light_switch_provisioner_nrf52840_xxAA_s140_6.0.0.dir/__/__/common/src/rtt_input.c.obj
 .data          0x0000000000000000        0x0 CMakeFiles/light_switch_provisioner_nrf52840_xxAA_s140_6.0.0.dir/__/__/common/src/rtt_input.c.obj
 .bss           0x0000000000000000        0x0 CMakeFiles/light_switch_provisioner_nrf52840_xxAA_s140_6.0.0.dir/__/__/common/src/rtt_input.c.obj
 .text.rtt_input_disable
                0x0000000000000000       0x28 CMakeFiles/light_switch_provisioner_nrf52840_xxAA_s140_6.0.0.dir/__/__/common/src/rtt_input.c.obj
 .text          0x0000000000000000        0x0 CMakeFiles/light_switch_provisioner_nrf52840_xxAA_s140_6.0.0.dir/__/__/common/src/simple_hal.c.obj
 .data          0x0000000000000000        0x0 CMakeFiles/light_switch_provisioner_nrf52840_xxAA_s140_6.0.0.dir/__/__/common/src/simple_hal.c.obj
 .bss           0x0000000000000000        0x0 CMakeFiles/light_switch_provisioner_nrf52840_xxAA_s140_6.0.0.dir/__/__/common/src/simple_hal.c.obj
 .text.hal_led_pin_get
                0x0000000000000000       0x18 CMakeFiles/light_switch_provisioner_nrf52840_xxAA_s140_6.0.0.dir/__/__/common/src/simple_hal.c.obj
 .text          0x0000000000000000        0x0 CMakeFiles/light_switch_provisioner_nrf52840_xxAA_s140_6.0.0.dir/__/__/nrf_mesh_weak.c.obj
 .data          0x0000000000000000        0x0 CMakeFiles/light_switch_provisioner_nrf52840_xxAA_s140_6.0.0.dir/__/__/nrf_mesh_weak.c.obj
 .bss           0x0000000000000000        0x0 CMakeFiles/light_switch_provisioner_nrf52840_xxAA_s140_6.0.0.dir/__/__/nrf_mesh_weak.c.obj
 .text._weak_handler_ptr
                0x0000000000000000        0x4 CMakeFiles/light_switch_provisioner_nrf52840_xxAA_s140_6.0.0.dir/__/__/nrf_mesh_weak.c.obj
 .text          0x0000000000000000        0x0 CMakeFiles/light_switch_provisioner_nrf52840_xxAA_s140_6.0.0.dir/__/__/common/src/app_error_weak.c.obj
 .data          0x0000000000000000        0x0 CMakeFiles/light_switch_provisioner_nrf52840_xxAA_s140_6.0.0.dir/__/__/common/src/app_error_weak.c.obj
 .bss           0x0000000000000000        0x0 CMakeFiles/light_switch_provisioner_nrf52840_xxAA_s140_6.0.0.dir/__/__/common/src/app_error_weak.c.obj
 .text          0x0000000000000000        0x0 CMakeFiles/light_switch_provisioner_nrf52840_xxAA_s140_6.0.0.dir/__/__/common/src/assertion_handler_weak.c.obj
 .data          0x0000000000000000        0x0 CMakeFiles/light_switch_provisioner_nrf52840_xxAA_s140_6.0.0.dir/__/__/common/src/assertion_handler_weak.c.obj
 .bss           0x0000000000000000        0x0 CMakeFiles/light_switch_provisioner_nrf52840_xxAA_s140_6.0.0.dir/__/__/common/src/assertion_handler_weak.c.obj
 .text          0x0000000000000000        0x0 CMakeFiles/light_switch_provisioner_nrf52840_xxAA_s140_6.0.0.dir/__/__/__/mesh/core/src/internal_event.c.obj
 .data          0x0000000000000000        0x0 CMakeFiles/light_switch_provisioner_nrf52840_xxAA_s140_6.0.0.dir/__/__/__/mesh/core/src/internal_event.c.obj
 .bss           0x0000000000000000        0x0 CMakeFiles/light_switch_provisioner_nrf52840_xxAA_s140_6.0.0.dir/__/__/__/mesh/core/src/internal_event.c.obj
 .debug_info    0x0000000000000000      0x8eb CMakeFiles/light_switch_provisioner_nrf52840_xxAA_s140_6.0.0.dir/__/__/__/mesh/core/src/internal_event.c.obj
 .debug_abbrev  0x0000000000000000      0x192 CMakeFiles/light_switch_provisioner_nrf52840_xxAA_s140_6.0.0.dir/__/__/__/mesh/core/src/internal_event.c.obj
 .debug_aranges
                0x0000000000000000       0x18 CMakeFiles/light_switch_provisioner_nrf52840_xxAA_s140_6.0.0.dir/__/__/__/mesh/core/src/internal_event.c.obj
 .debug_line    0x0000000000000000      0x1dc CMakeFiles/light_switch_provisioner_nrf52840_xxAA_s140_6.0.0.dir/__/__/__/mesh/core/src/internal_event.c.obj
 .debug_str     0x0000000000000000      0x677 CMakeFiles/light_switch_provisioner_nrf52840_xxAA_s140_6.0.0.dir/__/__/__/mesh/core/src/internal_event.c.obj
 .comment       0x0000000000000000       0x7f CMakeFiles/light_switch_provisioner_nrf52840_xxAA_s140_6.0.0.dir/__/__/__/mesh/core/src/internal_event.c.obj
 .ARM.attributes
                0x0000000000000000       0x39 CMakeFiles/light_switch_provisioner_nrf52840_xxAA_s140_6.0.0.dir/__/__/__/mesh/core/src/internal_event.c.obj
 .text          0x0000000000000000        0x0 CMakeFiles/light_switch_provisioner_nrf52840_xxAA_s140_6.0.0.dir/__/__/__/mesh/core/src/nrf_mesh_configure.c.obj
 .data          0x0000000000000000        0x0 CMakeFiles/light_switch_provisioner_nrf52840_xxAA_s140_6.0.0.dir/__/__/__/mesh/core/src/nrf_mesh_configure.c.obj
 .bss           0x0000000000000000        0x0 CMakeFiles/light_switch_provisioner_nrf52840_xxAA_s140_6.0.0.dir/__/__/__/mesh/core/src/nrf_mesh_configure.c.obj
 .text          0x0000000000000000        0x0 CMakeFiles/light_switch_provisioner_nrf52840_xxAA_s140_6.0.0.dir/__/__/__/mesh/core/src/aes.c.obj
 .data          0x0000000000000000        0x0 CMakeFiles/light_switch_provisioner_nrf52840_xxAA_s140_6.0.0.dir/__/__/__/mesh/core/src/aes.c.obj
 .bss           0x0000000000000000        0x0 CMakeFiles/light_switch_provisioner_nrf52840_xxAA_s140_6.0.0.dir/__/__/__/mesh/core/src/aes.c.obj
 .text          0x0000000000000000        0x0 CMakeFiles/light_switch_provisioner_nrf52840_xxAA_s140_6.0.0.dir/__/__/__/mesh/core/src/msg_cache.c.obj
 .data          0x0000000000000000        0x0 CMakeFiles/light_switch_provisioner_nrf52840_xxAA_s140_6.0.0.dir/__/__/__/mesh/core/src/msg_cache.c.obj
 .bss           0x0000000000000000        0x0 CMakeFiles/light_switch_provisioner_nrf52840_xxAA_s140_6.0.0.dir/__/__/__/mesh/core/src/msg_cache.c.obj
 .text.msg_cache_clear
                0x0000000000000000       0x18 CMakeFiles/light_switch_provisioner_nrf52840_xxAA_s140_6.0.0.dir/__/__/__/mesh/core/src/msg_cache.c.obj
 .text          0x0000000000000000        0x0 CMakeFiles/light_switch_provisioner_nrf52840_xxAA_s140_6.0.0.dir/__/__/__/mesh/core/src/transport.c.obj
 .data          0x0000000000000000        0x0 CMakeFiles/light_switch_provisioner_nrf52840_xxAA_s140_6.0.0.dir/__/__/__/mesh/core/src/transport.c.obj
 .bss           0x0000000000000000        0x0 CMakeFiles/light_switch_provisioner_nrf52840_xxAA_s140_6.0.0.dir/__/__/__/mesh/core/src/transport.c.obj
 .text.transport_sar_mem_funcs_set
                0x0000000000000000       0x64 CMakeFiles/light_switch_provisioner_nrf52840_xxAA_s140_6.0.0.dir/__/__/__/mesh/core/src/transport.c.obj
 .text.transport_sar_mem_funcs_reset
                0x0000000000000000       0x30 CMakeFiles/light_switch_provisioner_nrf52840_xxAA_s140_6.0.0.dir/__/__/__/mesh/core/src/transport.c.obj
 .text          0x0000000000000000        0x0 CMakeFiles/light_switch_provisioner_nrf52840_xxAA_s140_6.0.0.dir/__/__/__/mesh/core/src/event.c.obj
 .data          0x0000000000000000        0x0 CMakeFiles/light_switch_provisioner_nrf52840_xxAA_s140_6.0.0.dir/__/__/__/mesh/core/src/event.c.obj
 .bss           0x0000000000000000        0x0 CMakeFiles/light_switch_provisioner_nrf52840_xxAA_s140_6.0.0.dir/__/__/__/mesh/core/src/event.c.obj
 .text          0x0000000000000000        0x0 CMakeFiles/light_switch_provisioner_nrf52840_xxAA_s140_6.0.0.dir/__/__/__/mesh/core/src/packet_buffer.c.obj
 .data          0x0000000000000000        0x0 CMakeFiles/light_switch_provisioner_nrf52840_xxAA_s140_6.0.0.dir/__/__/__/mesh/core/src/packet_buffer.c.obj
 .bss           0x0000000000000000        0x0 CMakeFiles/light_switch_provisioner_nrf52840_xxAA_s140_6.0.0.dir/__/__/__/mesh/core/src/packet_buffer.c.obj
 .text.packet_buffer_max_packet_len_get
                0x0000000000000000       0x24 CMakeFiles/light_switch_provisioner_nrf52840_xxAA_s140_6.0.0.dir/__/__/__/mesh/core/src/packet_buffer.c.obj
 .text          0x0000000000000000        0x0 CMakeFiles/light_switch_provisioner_nrf52840_xxAA_s140_6.0.0.dir/__/__/__/mesh/core/src/flash_manager_defrag.c.obj
 .data          0x0000000000000000        0x0 CMakeFiles/light_switch_provisioner_nrf52840_xxAA_s140_6.0.0.dir/__/__/__/mesh/core/src/flash_manager_defrag.c.obj
 .bss           0x0000000000000000        0x0 CMakeFiles/light_switch_provisioner_nrf52840_xxAA_s140_6.0.0.dir/__/__/__/mesh/core/src/flash_manager_defrag.c.obj
 .text.flash_manager_defragging
                0x0000000000000000       0x44 CMakeFiles/light_switch_provisioner_nrf52840_xxAA_s140_6.0.0.dir/__/__/__/mesh/core/src/flash_manager_defrag.c.obj
 .text          0x0000000000000000        0x0 CMakeFiles/light_switch_provisioner_nrf52840_xxAA_s140_6.0.0.dir/__/__/__/mesh/core/src/fifo.c.obj
 .data          0x0000000000000000        0x0 CMakeFiles/light_switch_provisioner_nrf52840_xxAA_s140_6.0.0.dir/__/__/__/mesh/core/src/fifo.c.obj
 .bss           0x0000000000000000        0x0 CMakeFiles/light_switch_provisioner_nrf52840_xxAA_s140_6.0.0.dir/__/__/__/mesh/core/src/fifo.c.obj
 .text.fifo_peek_at
                0x0000000000000000       0x58 CMakeFiles/light_switch_provisioner_nrf52840_xxAA_s140_6.0.0.dir/__/__/__/mesh/core/src/fifo.c.obj
 .text.fifo_peek
                0x0000000000000000       0x54 CMakeFiles/light_switch_provisioner_nrf52840_xxAA_s140_6.0.0.dir/__/__/__/mesh/core/src/fifo.c.obj
 .text.fifo_flush
                0x0000000000000000        0x8 CMakeFiles/light_switch_provisioner_nrf52840_xxAA_s140_6.0.0.dir/__/__/__/mesh/core/src/fifo.c.obj
 .text.fifo_get_len
                0x0000000000000000        0x8 CMakeFiles/light_switch_provisioner_nrf52840_xxAA_s140_6.0.0.dir/__/__/__/mesh/core/src/fifo.c.obj
 .text.fifo_is_full
                0x0000000000000000       0x14 CMakeFiles/light_switch_provisioner_nrf52840_xxAA_s140_6.0.0.dir/__/__/__/mesh/core/src/fifo.c.obj
 .text.fifo_is_empty
                0x0000000000000000       0x10 CMakeFiles/light_switch_provisioner_nrf52840_xxAA_s140_6.0.0.dir/__/__/__/mesh/core/src/fifo.c.obj
 .text          0x0000000000000000        0x0 CMakeFiles/light_switch_provisioner_nrf52840_xxAA_s140_6.0.0.dir/__/__/__/mesh/core/src/nrf_flash.c.obj
 .data          0x0000000000000000        0x0 CMakeFiles/light_switch_provisioner_nrf52840_xxAA_s140_6.0.0.dir/__/__/__/mesh/core/src/nrf_flash.c.obj
 .bss           0x0000000000000000        0x0 CMakeFiles/light_switch_provisioner_nrf52840_xxAA_s140_6.0.0.dir/__/__/__/mesh/core/src/nrf_flash.c.obj
 .text          0x0000000000000000        0x0 CMakeFiles/light_switch_provisioner_nrf52840_xxAA_s140_6.0.0.dir/__/__/__/mesh/core/src/packet_mgr.c.obj
 .data          0x0000000000000000        0x0 CMakeFiles/light_switch_provisioner_nrf52840_xxAA_s140_6.0.0.dir/__/__/__/mesh/core/src/packet_mgr.c.obj
 .bss           0x0000000000000000        0x0 CMakeFiles/light_switch_provisioner_nrf52840_xxAA_s140_6.0.0.dir/__/__/__/mesh/core/src/packet_mgr.c.obj
 .text.packet_mgr_get_free_space
                0x0000000000000000       0x1c CMakeFiles/light_switch_provisioner_nrf52840_xxAA_s140_6.0.0.dir/__/__/__/mesh/core/src/packet_mgr.c.obj
 .text.packet_mgr_refcount_get
                0x0000000000000000        0x8 CMakeFiles/light_switch_provisioner_nrf52840_xxAA_s140_6.0.0.dir/__/__/__/mesh/core/src/packet_mgr.c.obj
 .text.packet_mgr_size_get
                0x0000000000000000        0x8 CMakeFiles/light_switch_provisioner_nrf52840_xxAA_s140_6.0.0.dir/__/__/__/mesh/core/src/packet_mgr.c.obj
 .text          0x0000000000000000        0x0 CMakeFiles/light_switch_provisioner_nrf52840_xxAA_s140_6.0.0.dir/__/__/__/mesh/core/src/net_state.c.obj
 .data          0x0000000000000000        0x0 CMakeFiles/light_switch_provisioner_nrf52840_xxAA_s140_6.0.0.dir/__/__/__/mesh/core/src/net_state.c.obj
 .bss           0x0000000000000000        0x0 CMakeFiles/light_switch_provisioner_nrf52840_xxAA_s140_6.0.0.dir/__/__/__/mesh/core/src/net_state.c.obj
 .text.net_state_iv_update_start
                0x0000000000000000       0x94 CMakeFiles/light_switch_provisioner_nrf52840_xxAA_s140_6.0.0.dir/__/__/__/mesh/core/src/net_state.c.obj
 .text.net_state_iv_update_test_mode_set
                0x0000000000000000        0xc CMakeFiles/light_switch_provisioner_nrf52840_xxAA_s140_6.0.0.dir/__/__/__/mesh/core/src/net_state.c.obj
 .text.net_state_test_mode_transition_run
                0x0000000000000000      0x170 CMakeFiles/light_switch_provisioner_nrf52840_xxAA_s140_6.0.0.dir/__/__/__/mesh/core/src/net_state.c.obj
 .text.net_state_iv_index_set
                0x0000000000000000       0x88 CMakeFiles/light_switch_provisioner_nrf52840_xxAA_s140_6.0.0.dir/__/__/__/mesh/core/src/net_state.c.obj
 .bss.iv_state_set.10350
                0x0000000000000000        0x1 CMakeFiles/light_switch_provisioner_nrf52840_xxAA_s140_6.0.0.dir/__/__/__/mesh/core/src/net_state.c.obj
 .text          0x0000000000000000        0x0 CMakeFiles/light_switch_provisioner_nrf52840_xxAA_s140_6.0.0.dir/__/__/__/mesh/core/src/mesh_flash.c.obj
 .data          0x0000000000000000        0x0 CMakeFiles/light_switch_provisioner_nrf52840_xxAA_s140_6.0.0.dir/__/__/__/mesh/core/src/mesh_flash.c.obj
 .bss           0x0000000000000000        0x0 CMakeFiles/light_switch_provisioner_nrf52840_xxAA_s140_6.0.0.dir/__/__/__/mesh/core/src/mesh_flash.c.obj
 .text.mesh_flash_op_available_slots
                0x0000000000000000       0x2c CMakeFiles/light_switch_provisioner_nrf52840_xxAA_s140_6.0.0.dir/__/__/__/mesh/core/src/mesh_flash.c.obj
 .text.mesh_flash_in_progress
                0x0000000000000000       0x34 CMakeFiles/light_switch_provisioner_nrf52840_xxAA_s140_6.0.0.dir/__/__/__/mesh/core/src/mesh_flash.c.obj
 .text.mesh_flash_set_suspended
                0x0000000000000000      0x21c CMakeFiles/light_switch_provisioner_nrf52840_xxAA_s140_6.0.0.dir/__/__/__/mesh/core/src/mesh_flash.c.obj
 .bss.suspend_count.10577
                0x0000000000000000        0x4 CMakeFiles/light_switch_provisioner_nrf52840_xxAA_s140_6.0.0.dir/__/__/__/mesh/core/src/mesh_flash.c.obj
 .text          0x0000000000000000        0x0 CMakeFiles/light_switch_provisioner_nrf52840_xxAA_s140_6.0.0.dir/__/__/__/mesh/core/src/nrf_mesh_utils.c.obj
 .data          0x0000000000000000        0x0 CMakeFiles/light_switch_provisioner_nrf52840_xxAA_s140_6.0.0.dir/__/__/__/mesh/core/src/nrf_mesh_utils.c.obj
 .bss           0x0000000000000000        0x0 CMakeFiles/light_switch_provisioner_nrf52840_xxAA_s140_6.0.0.dir/__/__/__/mesh/core/src/nrf_mesh_utils.c.obj
 .text.nrf_mesh_rand_get
                0x0000000000000000       0x10 CMakeFiles/light_switch_provisioner_nrf52840_xxAA_s140_6.0.0.dir/__/__/__/mesh/core/src/nrf_mesh_utils.c.obj
 .text.nrf_mesh_gap_address_type_get
                0x0000000000000000       0x34 CMakeFiles/light_switch_provisioner_nrf52840_xxAA_s140_6.0.0.dir/__/__/__/mesh/core/src/nrf_mesh_utils.c.obj
 .text          0x0000000000000000        0x0 CMakeFiles/light_switch_provisioner_nrf52840_xxAA_s140_6.0.0.dir/__/__/__/mesh/core/src/nrf_mesh.c.obj
 .data          0x0000000000000000        0x0 CMakeFiles/light_switch_provisioner_nrf52840_xxAA_s140_6.0.0.dir/__/__/__/mesh/core/src/nrf_mesh.c.obj
 .bss           0x0000000000000000        0x0 CMakeFiles/light_switch_provisioner_nrf52840_xxAA_s140_6.0.0.dir/__/__/__/mesh/core/src/nrf_mesh.c.obj
 .text.nrf_mesh_disable
                0x0000000000000000       0x30 CMakeFiles/light_switch_provisioner_nrf52840_xxAA_s140_6.0.0.dir/__/__/__/mesh/core/src/nrf_mesh.c.obj
 .text.nrf_mesh_process
                0x0000000000000000        0x4 CMakeFiles/light_switch_provisioner_nrf52840_xxAA_s140_6.0.0.dir/__/__/__/mesh/core/src/nrf_mesh.c.obj
 .text.nrf_mesh_evt_handler_remove
                0x0000000000000000        0x4 CMakeFiles/light_switch_provisioner_nrf52840_xxAA_s140_6.0.0.dir/__/__/__/mesh/core/src/nrf_mesh.c.obj
 .text.nrf_mesh_rx_cb_set
                0x0000000000000000        0xc CMakeFiles/light_switch_provisioner_nrf52840_xxAA_s140_6.0.0.dir/__/__/__/mesh/core/src/nrf_mesh.c.obj
 .text.nrf_mesh_rx_cb_clear
                0x0000000000000000        0xc CMakeFiles/light_switch_provisioner_nrf52840_xxAA_s140_6.0.0.dir/__/__/__/mesh/core/src/nrf_mesh.c.obj
 .text          0x0000000000000000        0x0 CMakeFiles/light_switch_provisioner_nrf52840_xxAA_s140_6.0.0.dir/__/__/__/mesh/core/src/queue.c.obj
 .data          0x0000000000000000        0x0 CMakeFiles/light_switch_provisioner_nrf52840_xxAA_s140_6.0.0.dir/__/__/__/mesh/core/src/queue.c.obj
 .bss           0x0000000000000000        0x0 CMakeFiles/light_switch_provisioner_nrf52840_xxAA_s140_6.0.0.dir/__/__/__/mesh/core/src/queue.c.obj
 .text          0x0000000000000000        0x0 CMakeFiles/light_switch_provisioner_nrf52840_xxAA_s140_6.0.0.dir/__/__/__/mesh/core/src/hal.c.obj
 .data          0x0000000000000000        0x0 CMakeFiles/light_switch_provisioner_nrf52840_xxAA_s140_6.0.0.dir/__/__/__/mesh/core/src/hal.c.obj
 .bss           0x0000000000000000        0x0 CMakeFiles/light_switch_provisioner_nrf52840_xxAA_s140_6.0.0.dir/__/__/__/mesh/core/src/hal.c.obj
 .text          0x0000000000000000        0x0 CMakeFiles/light_switch_provisioner_nrf52840_xxAA_s140_6.0.0.dir/__/__/__/mesh/core/src/aes_cmac.c.obj
 .data          0x0000000000000000        0x0 CMakeFiles/light_switch_provisioner_nrf52840_xxAA_s140_6.0.0.dir/__/__/__/mesh/core/src/aes_cmac.c.obj
 .bss           0x0000000000000000        0x0 CMakeFiles/light_switch_provisioner_nrf52840_xxAA_s140_6.0.0.dir/__/__/__/mesh/core/src/aes_cmac.c.obj
 .text          0x0000000000000000        0x0 CMakeFiles/light_switch_provisioner_nrf52840_xxAA_s140_6.0.0.dir/__/__/__/mesh/core/src/timer_scheduler.c.obj
 .data          0x0000000000000000        0x0 CMakeFiles/light_switch_provisioner_nrf52840_xxAA_s140_6.0.0.dir/__/__/__/mesh/core/src/timer_scheduler.c.obj
 .bss           0x0000000000000000        0x0 CMakeFiles/light_switch_provisioner_nrf52840_xxAA_s140_6.0.0.dir/__/__/__/mesh/core/src/timer_scheduler.c.obj
 .text          0x0000000000000000        0x0 CMakeFiles/light_switch_provisioner_nrf52840_xxAA_s140_6.0.0.dir/__/__/__/mesh/core/src/timer.c.obj
 .data          0x0000000000000000        0x0 CMakeFiles/light_switch_provisioner_nrf52840_xxAA_s140_6.0.0.dir/__/__/__/mesh/core/src/timer.c.obj
 .bss           0x0000000000000000        0x0 CMakeFiles/light_switch_provisioner_nrf52840_xxAA_s140_6.0.0.dir/__/__/__/mesh/core/src/timer.c.obj
 .text.timer_order_cb_ppi
                0x0000000000000000       0xd8 CMakeFiles/light_switch_provisioner_nrf52840_xxAA_s140_6.0.0.dir/__/__/__/mesh/core/src/timer.c.obj
 .text.timer_order_ppi
                0x0000000000000000       0xcc CMakeFiles/light_switch_provisioner_nrf52840_xxAA_s140_6.0.0.dir/__/__/__/mesh/core/src/timer.c.obj
 .text.timer_abort
                0x0000000000000000       0x84 CMakeFiles/light_switch_provisioner_nrf52840_xxAA_s140_6.0.0.dir/__/__/__/mesh/core/src/timer.c.obj
 .text          0x0000000000000000        0x0 CMakeFiles/light_switch_provisioner_nrf52840_xxAA_s140_6.0.0.dir/__/__/__/mesh/core/src/ticker.c.obj
 .data          0x0000000000000000        0x0 CMakeFiles/light_switch_provisioner_nrf52840_xxAA_s140_6.0.0.dir/__/__/__/mesh/core/src/ticker.c.obj
 .bss           0x0000000000000000        0x0 CMakeFiles/light_switch_provisioner_nrf52840_xxAA_s140_6.0.0.dir/__/__/__/mesh/core/src/ticker.c.obj
 .text.ticker_get
                0x0000000000000000        0xc CMakeFiles/light_switch_provisioner_nrf52840_xxAA_s140_6.0.0.dir/__/__/__/mesh/core/src/ticker.c.obj
 .text          0x0000000000000000        0x0 CMakeFiles/light_switch_provisioner_nrf52840_xxAA_s140_6.0.0.dir/__/__/__/mesh/core/src/rand.c.obj
 .data          0x0000000000000000        0x0 CMakeFiles/light_switch_provisioner_nrf52840_xxAA_s140_6.0.0.dir/__/__/__/mesh/core/src/rand.c.obj
 .bss           0x0000000000000000        0x0 CMakeFiles/light_switch_provisioner_nrf52840_xxAA_s140_6.0.0.dir/__/__/__/mesh/core/src/rand.c.obj
 .text          0x0000000000000000        0x0 CMakeFiles/light_switch_provisioner_nrf52840_xxAA_s140_6.0.0.dir/__/__/__/mesh/core/src/nrf_mesh_opt.c.obj
 .data          0x0000000000000000        0x0 CMakeFiles/light_switch_provisioner_nrf52840_xxAA_s140_6.0.0.dir/__/__/__/mesh/core/src/nrf_mesh_opt.c.obj
 .bss           0x0000000000000000        0x0 CMakeFiles/light_switch_provisioner_nrf52840_xxAA_s140_6.0.0.dir/__/__/__/mesh/core/src/nrf_mesh_opt.c.obj
 .text          0x0000000000000000        0x0 CMakeFiles/light_switch_provisioner_nrf52840_xxAA_s140_6.0.0.dir/__/__/__/mesh/core/src/timeslot.c.obj
 .data          0x0000000000000000        0x0 CMakeFiles/light_switch_provisioner_nrf52840_xxAA_s140_6.0.0.dir/__/__/__/mesh/core/src/timeslot.c.obj
 .bss           0x0000000000000000        0x0 CMakeFiles/light_switch_provisioner_nrf52840_xxAA_s140_6.0.0.dir/__/__/__/mesh/core/src/timeslot.c.obj
 .text.timeslot_restart
                0x0000000000000000       0x30 CMakeFiles/light_switch_provisioner_nrf52840_xxAA_s140_6.0.0.dir/__/__/__/mesh/core/src/timeslot.c.obj
 .text.timeslot_end_time_get
                0x0000000000000000       0x30 CMakeFiles/light_switch_provisioner_nrf52840_xxAA_s140_6.0.0.dir/__/__/__/mesh/core/src/timeslot.c.obj
 .text.timeslot_is_in_ts
                0x0000000000000000        0xc CMakeFiles/light_switch_provisioner_nrf52840_xxAA_s140_6.0.0.dir/__/__/__/mesh/core/src/timeslot.c.obj
 .text          0x0000000000000000        0x0 CMakeFiles/light_switch_provisioner_nrf52840_xxAA_s140_6.0.0.dir/__/__/__/mesh/core/src/bearer_event.c.obj
 .data          0x0000000000000000        0x0 CMakeFiles/light_switch_provisioner_nrf52840_xxAA_s140_6.0.0.dir/__/__/__/mesh/core/src/bearer_event.c.obj
 .bss           0x0000000000000000        0x0 CMakeFiles/light_switch_provisioner_nrf52840_xxAA_s140_6.0.0.dir/__/__/__/mesh/core/src/bearer_event.c.obj
 .text.bearer_event_generic_post
                0x0000000000000000       0x50 CMakeFiles/light_switch_provisioner_nrf52840_xxAA_s140_6.0.0.dir/__/__/__/mesh/core/src/bearer_event.c.obj
 .text.bearer_event_timer_sch_post
                0x0000000000000000       0x54 CMakeFiles/light_switch_provisioner_nrf52840_xxAA_s140_6.0.0.dir/__/__/__/mesh/core/src/bearer_event.c.obj
 .text.bearer_event_in_correct_irq_priority
                0x0000000000000000       0x58 CMakeFiles/light_switch_provisioner_nrf52840_xxAA_s140_6.0.0.dir/__/__/__/mesh/core/src/bearer_event.c.obj
 .text          0x0000000000000000        0x0 CMakeFiles/light_switch_provisioner_nrf52840_xxAA_s140_6.0.0.dir/__/__/__/mesh/core/src/enc.c.obj
 .data          0x0000000000000000        0x0 CMakeFiles/light_switch_provisioner_nrf52840_xxAA_s140_6.0.0.dir/__/__/__/mesh/core/src/enc.c.obj
 .bss           0x0000000000000000        0x0 CMakeFiles/light_switch_provisioner_nrf52840_xxAA_s140_6.0.0.dir/__/__/__/mesh/core/src/enc.c.obj
 .text.enc_key_generate
                0x0000000000000000        0x8 CMakeFiles/light_switch_provisioner_nrf52840_xxAA_s140_6.0.0.dir/__/__/__/mesh/core/src/enc.c.obj
 .text          0x0000000000000000        0x0 CMakeFiles/light_switch_provisioner_nrf52840_xxAA_s140_6.0.0.dir/__/__/__/mesh/core/src/network.c.obj
 .data          0x0000000000000000        0x0 CMakeFiles/light_switch_provisioner_nrf52840_xxAA_s140_6.0.0.dir/__/__/__/mesh/core/src/network.c.obj
 .bss           0x0000000000000000        0x0 CMakeFiles/light_switch_provisioner_nrf52840_xxAA_s140_6.0.0.dir/__/__/__/mesh/core/src/network.c.obj
 .text.network_packet_discard
                0x0000000000000000       0x28 CMakeFiles/light_switch_provisioner_nrf52840_xxAA_s140_6.0.0.dir/__/__/__/mesh/core/src/network.c.obj
 .text          0x0000000000000000        0x0 CMakeFiles/light_switch_provisioner_nrf52840_xxAA_s140_6.0.0.dir/__/__/__/mesh/core/src/net_packet.c.obj
 .data          0x0000000000000000        0x0 CMakeFiles/light_switch_provisioner_nrf52840_xxAA_s140_6.0.0.dir/__/__/__/mesh/core/src/net_packet.c.obj
 .bss           0x0000000000000000        0x0 CMakeFiles/light_switch_provisioner_nrf52840_xxAA_s140_6.0.0.dir/__/__/__/mesh/core/src/net_packet.c.obj
 .text.net_packet_enc_start_get
                0x0000000000000000        0x4 CMakeFiles/light_switch_provisioner_nrf52840_xxAA_s140_6.0.0.dir/__/__/__/mesh/core/src/net_packet.c.obj
 .text.net_packet_payload_get
                0x0000000000000000        0x4 CMakeFiles/light_switch_provisioner_nrf52840_xxAA_s140_6.0.0.dir/__/__/__/mesh/core/src/net_packet.c.obj
 .text          0x0000000000000000        0x0 CMakeFiles/light_switch_provisioner_nrf52840_xxAA_s140_6.0.0.dir/__/__/__/mesh/core/src/msqueue.c.obj
 .data          0x0000000000000000        0x0 CMakeFiles/light_switch_provisioner_nrf52840_xxAA_s140_6.0.0.dir/__/__/__/mesh/core/src/msqueue.c.obj
 .bss           0x0000000000000000        0x0 CMakeFiles/light_switch_provisioner_nrf52840_xxAA_s140_6.0.0.dir/__/__/__/mesh/core/src/msqueue.c.obj
 .text.msq_reset
                0x0000000000000000       0x24 CMakeFiles/light_switch_provisioner_nrf52840_xxAA_s140_6.0.0.dir/__/__/__/mesh/core/src/msqueue.c.obj
 .text          0x0000000000000000        0x0 CMakeFiles/light_switch_provisioner_nrf52840_xxAA_s140_6.0.0.dir/__/__/__/mesh/core/src/nrf_mesh_keygen.c.obj
 .data          0x0000000000000000        0x0 CMakeFiles/light_switch_provisioner_nrf52840_xxAA_s140_6.0.0.dir/__/__/__/mesh/core/src/nrf_mesh_keygen.c.obj
 .bss           0x0000000000000000        0x0 CMakeFiles/light_switch_provisioner_nrf52840_xxAA_s140_6.0.0.dir/__/__/__/mesh/core/src/nrf_mesh_keygen.c.obj
 .text.nrf_mesh_keygen_identitykey
                0x0000000000000000       0x4c CMakeFiles/light_switch_provisioner_nrf52840_xxAA_s140_6.0.0.dir/__/__/__/mesh/core/src/nrf_mesh_keygen.c.obj
 .text          0x0000000000000000        0x0 CMakeFiles/light_switch_provisioner_nrf52840_xxAA_s140_6.0.0.dir/__/__/__/mesh/core/src/cache.c.obj
 .data          0x0000000000000000        0x0 CMakeFiles/light_switch_provisioner_nrf52840_xxAA_s140_6.0.0.dir/__/__/__/mesh/core/src/cache.c.obj
 .bss           0x0000000000000000        0x0 CMakeFiles/light_switch_provisioner_nrf52840_xxAA_s140_6.0.0.dir/__/__/__/mesh/core/src/cache.c.obj
 .text.cache_init
                0x0000000000000000       0x40 CMakeFiles/light_switch_provisioner_nrf52840_xxAA_s140_6.0.0.dir/__/__/__/mesh/core/src/cache.c.obj
 .text.cache_has_elem
                0x0000000000000000       0x54 CMakeFiles/light_switch_provisioner_nrf52840_xxAA_s140_6.0.0.dir/__/__/__/mesh/core/src/cache.c.obj
 .text.cache_put
                0x0000000000000000       0x2c CMakeFiles/light_switch_provisioner_nrf52840_xxAA_s140_6.0.0.dir/__/__/__/mesh/core/src/cache.c.obj
 .text.cache_erase_elem
                0x0000000000000000       0x6c CMakeFiles/light_switch_provisioner_nrf52840_xxAA_s140_6.0.0.dir/__/__/__/mesh/core/src/cache.c.obj
 .debug_info    0x0000000000000000      0xbf9 CMakeFiles/light_switch_provisioner_nrf52840_xxAA_s140_6.0.0.dir/__/__/__/mesh/core/src/cache.c.obj
 .debug_abbrev  0x0000000000000000      0x2e2 CMakeFiles/light_switch_provisioner_nrf52840_xxAA_s140_6.0.0.dir/__/__/__/mesh/core/src/cache.c.obj
 .debug_loc     0x0000000000000000      0x3dc CMakeFiles/light_switch_provisioner_nrf52840_xxAA_s140_6.0.0.dir/__/__/__/mesh/core/src/cache.c.obj
 .debug_aranges
                0x0000000000000000       0x38 CMakeFiles/light_switch_provisioner_nrf52840_xxAA_s140_6.0.0.dir/__/__/__/mesh/core/src/cache.c.obj
 .debug_ranges  0x0000000000000000       0xb0 CMakeFiles/light_switch_provisioner_nrf52840_xxAA_s140_6.0.0.dir/__/__/__/mesh/core/src/cache.c.obj
 .debug_line    0x0000000000000000      0x255 CMakeFiles/light_switch_provisioner_nrf52840_xxAA_s140_6.0.0.dir/__/__/__/mesh/core/src/cache.c.obj
 .debug_str     0x0000000000000000      0x724 CMakeFiles/light_switch_provisioner_nrf52840_xxAA_s140_6.0.0.dir/__/__/__/mesh/core/src/cache.c.obj
 .comment       0x0000000000000000       0x7f CMakeFiles/light_switch_provisioner_nrf52840_xxAA_s140_6.0.0.dir/__/__/__/mesh/core/src/cache.c.obj
 .debug_frame   0x0000000000000000       0x90 CMakeFiles/light_switch_provisioner_nrf52840_xxAA_s140_6.0.0.dir/__/__/__/mesh/core/src/cache.c.obj
 .ARM.attributes
                0x0000000000000000       0x39 CMakeFiles/light_switch_provisioner_nrf52840_xxAA_s140_6.0.0.dir/__/__/__/mesh/core/src/cache.c.obj
 .text          0x0000000000000000        0x0 CMakeFiles/light_switch_provisioner_nrf52840_xxAA_s140_6.0.0.dir/__/__/__/mesh/core/src/uri.c.obj
 .data          0x0000000000000000        0x0 CMakeFiles/light_switch_provisioner_nrf52840_xxAA_s140_6.0.0.dir/__/__/__/mesh/core/src/uri.c.obj
 .bss           0x0000000000000000        0x0 CMakeFiles/light_switch_provisioner_nrf52840_xxAA_s140_6.0.0.dir/__/__/__/mesh/core/src/uri.c.obj
 .text.uri_data_generate
                0x0000000000000000       0x88 CMakeFiles/light_switch_provisioner_nrf52840_xxAA_s140_6.0.0.dir/__/__/__/mesh/core/src/uri.c.obj
 .text.uri_data_parse
                0x0000000000000000       0x84 CMakeFiles/light_switch_provisioner_nrf52840_xxAA_s140_6.0.0.dir/__/__/__/mesh/core/src/uri.c.obj
 .text.uri_scheme_name_code_point
                0x0000000000000000       0x5c CMakeFiles/light_switch_provisioner_nrf52840_xxAA_s140_6.0.0.dir/__/__/__/mesh/core/src/uri.c.obj
 .text.uri_scheme_name_string
                0x0000000000000000       0x14 CMakeFiles/light_switch_provisioner_nrf52840_xxAA_s140_6.0.0.dir/__/__/__/mesh/core/src/uri.c.obj
 .rodata.m_code_point_strings
                0x0000000000000000      0x2ec CMakeFiles/light_switch_provisioner_nrf52840_xxAA_s140_6.0.0.dir/__/__/__/mesh/core/src/uri.c.obj
 .rodata.str1.4
                0x0000000000000000      0x6ba CMakeFiles/light_switch_provisioner_nrf52840_xxAA_s140_6.0.0.dir/__/__/__/mesh/core/src/uri.c.obj
 .debug_info    0x0000000000000000      0xd55 CMakeFiles/light_switch_provisioner_nrf52840_xxAA_s140_6.0.0.dir/__/__/__/mesh/core/src/uri.c.obj
 .debug_abbrev  0x0000000000000000      0x331 CMakeFiles/light_switch_provisioner_nrf52840_xxAA_s140_6.0.0.dir/__/__/__/mesh/core/src/uri.c.obj
 .debug_loc     0x0000000000000000      0x38d CMakeFiles/light_switch_provisioner_nrf52840_xxAA_s140_6.0.0.dir/__/__/__/mesh/core/src/uri.c.obj
 .debug_aranges
                0x0000000000000000       0x38 CMakeFiles/light_switch_provisioner_nrf52840_xxAA_s140_6.0.0.dir/__/__/__/mesh/core/src/uri.c.obj
 .debug_ranges  0x0000000000000000       0x58 CMakeFiles/light_switch_provisioner_nrf52840_xxAA_s140_6.0.0.dir/__/__/__/mesh/core/src/uri.c.obj
 .debug_line    0x0000000000000000      0x322 CMakeFiles/light_switch_provisioner_nrf52840_xxAA_s140_6.0.0.dir/__/__/__/mesh/core/src/uri.c.obj
 .debug_str     0x0000000000000000      0x752 CMakeFiles/light_switch_provisioner_nrf52840_xxAA_s140_6.0.0.dir/__/__/__/mesh/core/src/uri.c.obj
 .comment       0x0000000000000000       0x7f CMakeFiles/light_switch_provisioner_nrf52840_xxAA_s140_6.0.0.dir/__/__/__/mesh/core/src/uri.c.obj
 .debug_frame   0x0000000000000000       0x8c CMakeFiles/light_switch_provisioner_nrf52840_xxAA_s140_6.0.0.dir/__/__/__/mesh/core/src/uri.c.obj
 .ARM.attributes
                0x0000000000000000       0x39 CMakeFiles/light_switch_provisioner_nrf52840_xxAA_s140_6.0.0.dir/__/__/__/mesh/core/src/uri.c.obj
 .text          0x0000000000000000        0x0 CMakeFiles/light_switch_provisioner_nrf52840_xxAA_s140_6.0.0.dir/__/__/__/mesh/core/src/list.c.obj
 .data          0x0000000000000000        0x0 CMakeFiles/light_switch_provisioner_nrf52840_xxAA_s140_6.0.0.dir/__/__/__/mesh/core/src/list.c.obj
 .bss           0x0000000000000000        0x0 CMakeFiles/light_switch_provisioner_nrf52840_xxAA_s140_6.0.0.dir/__/__/__/mesh/core/src/list.c.obj
 .text.list_size_get
                0x0000000000000000       0x14 CMakeFiles/light_switch_provisioner_nrf52840_xxAA_s140_6.0.0.dir/__/__/__/mesh/core/src/list.c.obj
 .text.list_sorted_add
                0x0000000000000000       0x88 CMakeFiles/light_switch_provisioner_nrf52840_xxAA_s140_6.0.0.dir/__/__/__/mesh/core/src/list.c.obj
 .text          0x0000000000000000        0x0 CMakeFiles/light_switch_provisioner_nrf52840_xxAA_s140_6.0.0.dir/__/__/__/mesh/core/src/log.c.obj
 .data          0x0000000000000000        0x0 CMakeFiles/light_switch_provisioner_nrf52840_xxAA_s140_6.0.0.dir/__/__/__/mesh/core/src/log.c.obj
 .bss           0x0000000000000000        0x0 CMakeFiles/light_switch_provisioner_nrf52840_xxAA_s140_6.0.0.dir/__/__/__/mesh/core/src/log.c.obj
 .text.log_callback_logview
                0x0000000000000000       0x38 CMakeFiles/light_switch_provisioner_nrf52840_xxAA_s140_6.0.0.dir/__/__/__/mesh/core/src/log.c.obj
 .text.log_set_callback
                0x0000000000000000        0xc CMakeFiles/light_switch_provisioner_nrf52840_xxAA_s140_6.0.0.dir/__/__/__/mesh/core/src/log.c.obj
 .text.log_vprintf
                0x0000000000000000       0x1c CMakeFiles/light_switch_provisioner_nrf52840_xxAA_s140_6.0.0.dir/__/__/__/mesh/core/src/log.c.obj
 .rodata.log_callback_logview.str1.4
                0x0000000000000000       0x12 CMakeFiles/light_switch_provisioner_nrf52840_xxAA_s140_6.0.0.dir/__/__/__/mesh/core/src/log.c.obj
 .text          0x0000000000000000        0x0 CMakeFiles/light_switch_provisioner_nrf52840_xxAA_s140_6.0.0.dir/__/__/__/mesh/core/src/flash_manager.c.obj
 .data          0x0000000000000000        0x0 CMakeFiles/light_switch_provisioner_nrf52840_xxAA_s140_6.0.0.dir/__/__/__/mesh/core/src/flash_manager.c.obj
 .bss           0x0000000000000000        0x0 CMakeFiles/light_switch_provisioner_nrf52840_xxAA_s140_6.0.0.dir/__/__/__/mesh/core/src/flash_manager.c.obj
 .text.flash_manager_entry_count_get
                0x0000000000000000       0xfc CMakeFiles/light_switch_provisioner_nrf52840_xxAA_s140_6.0.0.dir/__/__/__/mesh/core/src/flash_manager.c.obj
 .text.flash_manager_entry_release
                0x0000000000000000       0x74 CMakeFiles/light_switch_provisioner_nrf52840_xxAA_s140_6.0.0.dir/__/__/__/mesh/core/src/flash_manager.c.obj
 .text          0x0000000000000000        0x0 CMakeFiles/light_switch_provisioner_nrf52840_xxAA_s140_6.0.0.dir/__/__/__/mesh/core/src/ccm_soft.c.obj
 .data          0x0000000000000000        0x0 CMakeFiles/light_switch_provisioner_nrf52840_xxAA_s140_6.0.0.dir/__/__/__/mesh/core/src/ccm_soft.c.obj
 .bss           0x0000000000000000        0x0 CMakeFiles/light_switch_provisioner_nrf52840_xxAA_s140_6.0.0.dir/__/__/__/mesh/core/src/ccm_soft.c.obj
 .text          0x0000000000000000        0x0 CMakeFiles/light_switch_provisioner_nrf52840_xxAA_s140_6.0.0.dir/__/__/__/mesh/core/src/toolchain.c.obj
 .data          0x0000000000000000        0x0 CMakeFiles/light_switch_provisioner_nrf52840_xxAA_s140_6.0.0.dir/__/__/__/mesh/core/src/toolchain.c.obj
 .bss           0x0000000000000000        0x0 CMakeFiles/light_switch_provisioner_nrf52840_xxAA_s140_6.0.0.dir/__/__/__/mesh/core/src/toolchain.c.obj
 .debug_info    0x0000000000000000       0xac CMakeFiles/light_switch_provisioner_nrf52840_xxAA_s140_6.0.0.dir/__/__/__/mesh/core/src/toolchain.c.obj
 .debug_abbrev  0x0000000000000000       0x5c CMakeFiles/light_switch_provisioner_nrf52840_xxAA_s140_6.0.0.dir/__/__/__/mesh/core/src/toolchain.c.obj
 .debug_aranges
                0x0000000000000000       0x18 CMakeFiles/light_switch_provisioner_nrf52840_xxAA_s140_6.0.0.dir/__/__/__/mesh/core/src/toolchain.c.obj
 .debug_line    0x0000000000000000      0x131 CMakeFiles/light_switch_provisioner_nrf52840_xxAA_s140_6.0.0.dir/__/__/__/mesh/core/src/toolchain.c.obj
 .debug_str     0x0000000000000000      0x26f CMakeFiles/light_switch_provisioner_nrf52840_xxAA_s140_6.0.0.dir/__/__/__/mesh/core/src/toolchain.c.obj
 .comment       0x0000000000000000       0x7f CMakeFiles/light_switch_provisioner_nrf52840_xxAA_s140_6.0.0.dir/__/__/__/mesh/core/src/toolchain.c.obj
 .ARM.attributes
                0x0000000000000000       0x39 CMakeFiles/light_switch_provisioner_nrf52840_xxAA_s140_6.0.0.dir/__/__/__/mesh/core/src/toolchain.c.obj
 .text          0x0000000000000000        0x0 CMakeFiles/light_switch_provisioner_nrf52840_xxAA_s140_6.0.0.dir/__/__/__/mesh/core/src/replay_cache.c.obj
 .data          0x0000000000000000        0x0 CMakeFiles/light_switch_provisioner_nrf52840_xxAA_s140_6.0.0.dir/__/__/__/mesh/core/src/replay_cache.c.obj
 .bss           0x0000000000000000        0x0 CMakeFiles/light_switch_provisioner_nrf52840_xxAA_s140_6.0.0.dir/__/__/__/mesh/core/src/replay_cache.c.obj
 .text.replay_cache_on_iv_update
                0x0000000000000000       0x30 CMakeFiles/light_switch_provisioner_nrf52840_xxAA_s140_6.0.0.dir/__/__/__/mesh/core/src/replay_cache.c.obj
 .text.replay_cache_clear
                0x0000000000000000       0x20 CMakeFiles/light_switch_provisioner_nrf52840_xxAA_s140_6.0.0.dir/__/__/__/mesh/core/src/replay_cache.c.obj
 .text          0x0000000000000000        0x0 CMakeFiles/light_switch_provisioner_nrf52840_xxAA_s140_6.0.0.dir/__/__/__/mesh/core/src/beacon.c.obj
 .data          0x0000000000000000        0x0 CMakeFiles/light_switch_provisioner_nrf52840_xxAA_s140_6.0.0.dir/__/__/__/mesh/core/src/beacon.c.obj
 .bss           0x0000000000000000        0x0 CMakeFiles/light_switch_provisioner_nrf52840_xxAA_s140_6.0.0.dir/__/__/__/mesh/core/src/beacon.c.obj
 .text          0x0000000000000000        0x0 CMakeFiles/light_switch_provisioner_nrf52840_xxAA_s140_6.0.0.dir/__/__/__/mesh/core/src/flash_manager_internal.c.obj
 .data          0x0000000000000000        0x0 CMakeFiles/light_switch_provisioner_nrf52840_xxAA_s140_6.0.0.dir/__/__/__/mesh/core/src/flash_manager_internal.c.obj
 .bss           0x0000000000000000        0x0 CMakeFiles/light_switch_provisioner_nrf52840_xxAA_s140_6.0.0.dir/__/__/__/mesh/core/src/flash_manager_internal.c.obj
 .text          0x0000000000000000        0x0 CMakeFiles/light_switch_provisioner_nrf52840_xxAA_s140_6.0.0.dir/__/__/__/mesh/core/src/core_tx.c.obj
 .data          0x0000000000000000        0x0 CMakeFiles/light_switch_provisioner_nrf52840_xxAA_s140_6.0.0.dir/__/__/__/mesh/core/src/core_tx.c.obj
 .bss           0x0000000000000000        0x0 CMakeFiles/light_switch_provisioner_nrf52840_xxAA_s140_6.0.0.dir/__/__/__/mesh/core/src/core_tx.c.obj
 .text.core_tx_bearer_type_get
                0x0000000000000000       0x2c CMakeFiles/light_switch_provisioner_nrf52840_xxAA_s140_6.0.0.dir/__/__/__/mesh/core/src/core_tx.c.obj
 .text.core_tx_bearer_count_get
                0x0000000000000000        0xc CMakeFiles/light_switch_provisioner_nrf52840_xxAA_s140_6.0.0.dir/__/__/__/mesh/core/src/core_tx.c.obj
 .text          0x0000000000000000        0x0 CMakeFiles/light_switch_provisioner_nrf52840_xxAA_s140_6.0.0.dir/__/__/__/mesh/core/src/heartbeat.c.obj
 .data          0x0000000000000000        0x0 CMakeFiles/light_switch_provisioner_nrf52840_xxAA_s140_6.0.0.dir/__/__/__/mesh/core/src/heartbeat.c.obj
 .bss           0x0000000000000000        0x0 CMakeFiles/light_switch_provisioner_nrf52840_xxAA_s140_6.0.0.dir/__/__/__/mesh/core/src/heartbeat.c.obj
 .text          0x0000000000000000        0x0 CMakeFiles/light_switch_provisioner_nrf52840_xxAA_s140_6.0.0.dir/__/__/__/mesh/core/src/net_beacon.c.obj
 .data          0x0000000000000000        0x0 CMakeFiles/light_switch_provisioner_nrf52840_xxAA_s140_6.0.0.dir/__/__/__/mesh/core/src/net_beacon.c.obj
 .bss           0x0000000000000000        0x0 CMakeFiles/light_switch_provisioner_nrf52840_xxAA_s140_6.0.0.dir/__/__/__/mesh/core/src/net_beacon.c.obj
 .text.net_beacon_build
                0x0000000000000000       0x68 CMakeFiles/light_switch_provisioner_nrf52840_xxAA_s140_6.0.0.dir/__/__/__/mesh/core/src/net_beacon.c.obj
 .text          0x0000000000000000        0x0 CMakeFiles/light_switch_provisioner_nrf52840_xxAA_s140_6.0.0.dir/__/__/__/mesh/core/src/fsm.c.obj
 .data          0x0000000000000000        0x0 CMakeFiles/light_switch_provisioner_nrf52840_xxAA_s140_6.0.0.dir/__/__/__/mesh/core/src/fsm.c.obj
 .bss           0x0000000000000000        0x0 CMakeFiles/light_switch_provisioner_nrf52840_xxAA_s140_6.0.0.dir/__/__/__/mesh/core/src/fsm.c.obj
 .text.fsm_event_post_try
                0x0000000000000000      0x24c CMakeFiles/light_switch_provisioner_nrf52840_xxAA_s140_6.0.0.dir/__/__/__/mesh/core/src/fsm.c.obj
 .text.fsm_init
                0x0000000000000000      0x100 CMakeFiles/light_switch_provisioner_nrf52840_xxAA_s140_6.0.0.dir/__/__/__/mesh/core/src/fsm.c.obj
 .text.fsm_event_post
                0x0000000000000000       0xbc CMakeFiles/light_switch_provisioner_nrf52840_xxAA_s140_6.0.0.dir/__/__/__/mesh/core/src/fsm.c.obj
 .text.fsm_is_processing
                0x0000000000000000        0xc CMakeFiles/light_switch_provisioner_nrf52840_xxAA_s140_6.0.0.dir/__/__/__/mesh/core/src/fsm.c.obj
 .rodata.fsm_event_post.str1.4
                0x0000000000000000        0xb CMakeFiles/light_switch_provisioner_nrf52840_xxAA_s140_6.0.0.dir/__/__/__/mesh/core/src/fsm.c.obj
 .rodata.fsm_event_post_try.str1.4
                0x0000000000000000       0x7c CMakeFiles/light_switch_provisioner_nrf52840_xxAA_s140_6.0.0.dir/__/__/__/mesh/core/src/fsm.c.obj
 .rodata.fsm_init.str1.4
                0x0000000000000000        0xa CMakeFiles/light_switch_provisioner_nrf52840_xxAA_s140_6.0.0.dir/__/__/__/mesh/core/src/fsm.c.obj
 .debug_info    0x0000000000000000     0x13e3 CMakeFiles/light_switch_provisioner_nrf52840_xxAA_s140_6.0.0.dir/__/__/__/mesh/core/src/fsm.c.obj
 .debug_abbrev  0x0000000000000000      0x35d CMakeFiles/light_switch_provisioner_nrf52840_xxAA_s140_6.0.0.dir/__/__/__/mesh/core/src/fsm.c.obj
 .debug_loc     0x0000000000000000      0x4f3 CMakeFiles/light_switch_provisioner_nrf52840_xxAA_s140_6.0.0.dir/__/__/__/mesh/core/src/fsm.c.obj
 .debug_aranges
                0x0000000000000000       0x38 CMakeFiles/light_switch_provisioner_nrf52840_xxAA_s140_6.0.0.dir/__/__/__/mesh/core/src/fsm.c.obj
 .debug_ranges  0x0000000000000000       0xd8 CMakeFiles/light_switch_provisioner_nrf52840_xxAA_s140_6.0.0.dir/__/__/__/mesh/core/src/fsm.c.obj
 .debug_line    0x0000000000000000      0x48d CMakeFiles/light_switch_provisioner_nrf52840_xxAA_s140_6.0.0.dir/__/__/__/mesh/core/src/fsm.c.obj
 .debug_str     0x0000000000000000      0x9f9 CMakeFiles/light_switch_provisioner_nrf52840_xxAA_s140_6.0.0.dir/__/__/__/mesh/core/src/fsm.c.obj
 .comment       0x0000000000000000       0x7f CMakeFiles/light_switch_provisioner_nrf52840_xxAA_s140_6.0.0.dir/__/__/__/mesh/core/src/fsm.c.obj
 .debug_frame   0x0000000000000000       0xb0 CMakeFiles/light_switch_provisioner_nrf52840_xxAA_s140_6.0.0.dir/__/__/__/mesh/core/src/fsm.c.obj
 .ARM.attributes
                0x0000000000000000       0x39 CMakeFiles/light_switch_provisioner_nrf52840_xxAA_s140_6.0.0.dir/__/__/__/mesh/core/src/fsm.c.obj
 .text          0x0000000000000000        0x0 CMakeFiles/light_switch_provisioner_nrf52840_xxAA_s140_6.0.0.dir/__/__/__/mesh/core/src/core_tx_adv.c.obj
 .data          0x0000000000000000        0x0 CMakeFiles/light_switch_provisioner_nrf52840_xxAA_s140_6.0.0.dir/__/__/__/mesh/core/src/core_tx_adv.c.obj
 .bss           0x0000000000000000        0x0 CMakeFiles/light_switch_provisioner_nrf52840_xxAA_s140_6.0.0.dir/__/__/__/mesh/core/src/core_tx_adv.c.obj
 .text.core_tx_adv_address_set
                0x0000000000000000       0x28 CMakeFiles/light_switch_provisioner_nrf52840_xxAA_s140_6.0.0.dir/__/__/__/mesh/core/src/core_tx_adv.c.obj
 .text          0x0000000000000000        0x0 CMakeFiles/light_switch_provisioner_nrf52840_xxAA_s140_6.0.0.dir/__/__/__/mesh/bearer/src/ad_listener.c.obj
 .data          0x0000000000000000        0x0 CMakeFiles/light_switch_provisioner_nrf52840_xxAA_s140_6.0.0.dir/__/__/__/mesh/bearer/src/ad_listener.c.obj
 .bss           0x0000000000000000        0x0 CMakeFiles/light_switch_provisioner_nrf52840_xxAA_s140_6.0.0.dir/__/__/__/mesh/bearer/src/ad_listener.c.obj
 .text.ad_listener_unsubscribe
                0x0000000000000000       0x78 CMakeFiles/light_switch_provisioner_nrf52840_xxAA_s140_6.0.0.dir/__/__/__/mesh/bearer/src/ad_listener.c.obj
 .text          0x0000000000000000        0x0 CMakeFiles/light_switch_provisioner_nrf52840_xxAA_s140_6.0.0.dir/__/__/__/mesh/bearer/src/ad_type_filter.c.obj
 .data          0x0000000000000000        0x0 CMakeFiles/light_switch_provisioner_nrf52840_xxAA_s140_6.0.0.dir/__/__/__/mesh/bearer/src/ad_type_filter.c.obj
 .bss           0x0000000000000000        0x0 CMakeFiles/light_switch_provisioner_nrf52840_xxAA_s140_6.0.0.dir/__/__/__/mesh/bearer/src/ad_type_filter.c.obj
 .text.bearer_adtype_remove
                0x0000000000000000       0x28 CMakeFiles/light_switch_provisioner_nrf52840_xxAA_s140_6.0.0.dir/__/__/__/mesh/bearer/src/ad_type_filter.c.obj
 .text.bearer_adtype_clear
                0x0000000000000000       0x10 CMakeFiles/light_switch_provisioner_nrf52840_xxAA_s140_6.0.0.dir/__/__/__/mesh/bearer/src/ad_type_filter.c.obj
 .text.bearer_invalid_length_amount_get
                0x0000000000000000        0xc CMakeFiles/light_switch_provisioner_nrf52840_xxAA_s140_6.0.0.dir/__/__/__/mesh/bearer/src/ad_type_filter.c.obj
 .text.bearer_adtype_filtered_amount_get
                0x0000000000000000        0xc CMakeFiles/light_switch_provisioner_nrf52840_xxAA_s140_6.0.0.dir/__/__/__/mesh/bearer/src/ad_type_filter.c.obj
 .text          0x0000000000000000        0x0 CMakeFiles/light_switch_provisioner_nrf52840_xxAA_s140_6.0.0.dir/__/__/__/mesh/bearer/src/adv_packet_filter.c.obj
 .data          0x0000000000000000        0x0 CMakeFiles/light_switch_provisioner_nrf52840_xxAA_s140_6.0.0.dir/__/__/__/mesh/bearer/src/adv_packet_filter.c.obj
 .bss           0x0000000000000000        0x0 CMakeFiles/light_switch_provisioner_nrf52840_xxAA_s140_6.0.0.dir/__/__/__/mesh/bearer/src/adv_packet_filter.c.obj
 .text.adv_filter_handle
                0x0000000000000000       0x40 CMakeFiles/light_switch_provisioner_nrf52840_xxAA_s140_6.0.0.dir/__/__/__/mesh/bearer/src/adv_packet_filter.c.obj
 .text.bearer_adv_packet_filtering_set
                0x0000000000000000       0x1c CMakeFiles/light_switch_provisioner_nrf52840_xxAA_s140_6.0.0.dir/__/__/__/mesh/bearer/src/adv_packet_filter.c.obj
 .text.bearer_adv_packet_remove
                0x0000000000000000       0x18 CMakeFiles/light_switch_provisioner_nrf52840_xxAA_s140_6.0.0.dir/__/__/__/mesh/bearer/src/adv_packet_filter.c.obj
 .text.bearer_adv_packet_add
                0x0000000000000000       0x14 CMakeFiles/light_switch_provisioner_nrf52840_xxAA_s140_6.0.0.dir/__/__/__/mesh/bearer/src/adv_packet_filter.c.obj
 .text.bearer_adv_packet_clear
                0x0000000000000000        0xc CMakeFiles/light_switch_provisioner_nrf52840_xxAA_s140_6.0.0.dir/__/__/__/mesh/bearer/src/adv_packet_filter.c.obj
 .text.bearer_adv_packet_filter_mode_set
                0x0000000000000000       0x18 CMakeFiles/light_switch_provisioner_nrf52840_xxAA_s140_6.0.0.dir/__/__/__/mesh/bearer/src/adv_packet_filter.c.obj
 .text.bearer_adv_packet_filtered_amount_get
                0x0000000000000000        0xc CMakeFiles/light_switch_provisioner_nrf52840_xxAA_s140_6.0.0.dir/__/__/__/mesh/bearer/src/adv_packet_filter.c.obj
 .bss.m_adv_packet_filter
                0x0000000000000000       0x14 CMakeFiles/light_switch_provisioner_nrf52840_xxAA_s140_6.0.0.dir/__/__/__/mesh/bearer/src/adv_packet_filter.c.obj
 .debug_info    0x0000000000000000      0xd92 CMakeFiles/light_switch_provisioner_nrf52840_xxAA_s140_6.0.0.dir/__/__/__/mesh/bearer/src/adv_packet_filter.c.obj
 .debug_abbrev  0x0000000000000000      0x2cb CMakeFiles/light_switch_provisioner_nrf52840_xxAA_s140_6.0.0.dir/__/__/__/mesh/bearer/src/adv_packet_filter.c.obj
 .debug_loc     0x0000000000000000      0x1b2 CMakeFiles/light_switch_provisioner_nrf52840_xxAA_s140_6.0.0.dir/__/__/__/mesh/bearer/src/adv_packet_filter.c.obj
 .debug_aranges
                0x0000000000000000       0x50 CMakeFiles/light_switch_provisioner_nrf52840_xxAA_s140_6.0.0.dir/__/__/__/mesh/bearer/src/adv_packet_filter.c.obj
 .debug_ranges  0x0000000000000000       0x40 CMakeFiles/light_switch_provisioner_nrf52840_xxAA_s140_6.0.0.dir/__/__/__/mesh/bearer/src/adv_packet_filter.c.obj
 .debug_line    0x0000000000000000      0x489 CMakeFiles/light_switch_provisioner_nrf52840_xxAA_s140_6.0.0.dir/__/__/__/mesh/bearer/src/adv_packet_filter.c.obj
 .debug_str     0x0000000000000000      0xa9d CMakeFiles/light_switch_provisioner_nrf52840_xxAA_s140_6.0.0.dir/__/__/__/mesh/bearer/src/adv_packet_filter.c.obj
 .comment       0x0000000000000000       0x7f CMakeFiles/light_switch_provisioner_nrf52840_xxAA_s140_6.0.0.dir/__/__/__/mesh/bearer/src/adv_packet_filter.c.obj
 .debug_frame   0x0000000000000000       0x88 CMakeFiles/light_switch_provisioner_nrf52840_xxAA_s140_6.0.0.dir/__/__/__/mesh/bearer/src/adv_packet_filter.c.obj
 .ARM.attributes
                0x0000000000000000       0x39 CMakeFiles/light_switch_provisioner_nrf52840_xxAA_s140_6.0.0.dir/__/__/__/mesh/bearer/src/adv_packet_filter.c.obj
 .text          0x0000000000000000        0x0 CMakeFiles/light_switch_provisioner_nrf52840_xxAA_s140_6.0.0.dir/__/__/__/mesh/bearer/src/advertiser.c.obj
 .data          0x0000000000000000        0x0 CMakeFiles/light_switch_provisioner_nrf52840_xxAA_s140_6.0.0.dir/__/__/__/mesh/bearer/src/advertiser.c.obj
 .bss           0x0000000000000000        0x0 CMakeFiles/light_switch_provisioner_nrf52840_xxAA_s140_6.0.0.dir/__/__/__/mesh/bearer/src/advertiser.c.obj
 .text.advertiser_disable
                0x0000000000000000        0xc CMakeFiles/light_switch_provisioner_nrf52840_xxAA_s140_6.0.0.dir/__/__/__/mesh/bearer/src/advertiser.c.obj
 .text.advertiser_config_set
                0x0000000000000000      0x184 CMakeFiles/light_switch_provisioner_nrf52840_xxAA_s140_6.0.0.dir/__/__/__/mesh/bearer/src/advertiser.c.obj
 .text.advertiser_channels_set
                0x0000000000000000       0x98 CMakeFiles/light_switch_provisioner_nrf52840_xxAA_s140_6.0.0.dir/__/__/__/mesh/bearer/src/advertiser.c.obj
 .text.advertiser_address_set
                0x0000000000000000       0x74 CMakeFiles/light_switch_provisioner_nrf52840_xxAA_s140_6.0.0.dir/__/__/__/mesh/bearer/src/advertiser.c.obj
 .text.advertiser_config_get
                0x0000000000000000       0x24 CMakeFiles/light_switch_provisioner_nrf52840_xxAA_s140_6.0.0.dir/__/__/__/mesh/bearer/src/advertiser.c.obj
 .text.advertiser_address_default_get
                0x0000000000000000       0x5c CMakeFiles/light_switch_provisioner_nrf52840_xxAA_s140_6.0.0.dir/__/__/__/mesh/bearer/src/advertiser.c.obj
 .text          0x0000000000000000        0x0 CMakeFiles/light_switch_provisioner_nrf52840_xxAA_s140_6.0.0.dir/__/__/__/mesh/bearer/src/bearer_handler.c.obj
 .data          0x0000000000000000        0x0 CMakeFiles/light_switch_provisioner_nrf52840_xxAA_s140_6.0.0.dir/__/__/__/mesh/bearer/src/bearer_handler.c.obj
 .bss           0x0000000000000000        0x0 CMakeFiles/light_switch_provisioner_nrf52840_xxAA_s140_6.0.0.dir/__/__/__/mesh/bearer/src/bearer_handler.c.obj
 .text.bearer_handler_stop
                0x0000000000000000       0x20 CMakeFiles/light_switch_provisioner_nrf52840_xxAA_s140_6.0.0.dir/__/__/__/mesh/bearer/src/bearer_handler.c.obj
 .text.bearer_handler_action_fire
                0x0000000000000000       0xa0 CMakeFiles/light_switch_provisioner_nrf52840_xxAA_s140_6.0.0.dir/__/__/__/mesh/bearer/src/bearer_handler.c.obj
 .text          0x0000000000000000        0x0 CMakeFiles/light_switch_provisioner_nrf52840_xxAA_s140_6.0.0.dir/__/__/__/mesh/bearer/src/broadcast.c.obj
 .data          0x0000000000000000        0x0 CMakeFiles/light_switch_provisioner_nrf52840_xxAA_s140_6.0.0.dir/__/__/__/mesh/bearer/src/broadcast.c.obj
 .bss           0x0000000000000000        0x0 CMakeFiles/light_switch_provisioner_nrf52840_xxAA_s140_6.0.0.dir/__/__/__/mesh/bearer/src/broadcast.c.obj
 .text          0x0000000000000000        0x0 CMakeFiles/light_switch_provisioner_nrf52840_xxAA_s140_6.0.0.dir/__/__/__/mesh/bearer/src/filter_engine.c.obj
 .data          0x0000000000000000        0x0 CMakeFiles/light_switch_provisioner_nrf52840_xxAA_s140_6.0.0.dir/__/__/__/mesh/bearer/src/filter_engine.c.obj
 .bss           0x0000000000000000        0x0 CMakeFiles/light_switch_provisioner_nrf52840_xxAA_s140_6.0.0.dir/__/__/__/mesh/bearer/src/filter_engine.c.obj
 .text.fen_accepted_amount_get
                0x0000000000000000        0xc CMakeFiles/light_switch_provisioner_nrf52840_xxAA_s140_6.0.0.dir/__/__/__/mesh/bearer/src/filter_engine.c.obj
 .text          0x0000000000000000        0x0 CMakeFiles/light_switch_provisioner_nrf52840_xxAA_s140_6.0.0.dir/__/__/__/mesh/bearer/src/gap_address_filter.c.obj
 .data          0x0000000000000000        0x0 CMakeFiles/light_switch_provisioner_nrf52840_xxAA_s140_6.0.0.dir/__/__/__/mesh/bearer/src/gap_address_filter.c.obj
 .bss           0x0000000000000000        0x0 CMakeFiles/light_switch_provisioner_nrf52840_xxAA_s140_6.0.0.dir/__/__/__/mesh/bearer/src/gap_address_filter.c.obj
 .text.gap_address_filter_handle
                0x0000000000000000       0xb8 CMakeFiles/light_switch_provisioner_nrf52840_xxAA_s140_6.0.0.dir/__/__/__/mesh/bearer/src/gap_address_filter.c.obj
 .text.bearer_filter_gap_addr_whitelist_set
                0x0000000000000000       0x48 CMakeFiles/light_switch_provisioner_nrf52840_xxAA_s140_6.0.0.dir/__/__/__/mesh/bearer/src/gap_address_filter.c.obj
 .text.bearer_filter_gap_addr_blacklist_set
                0x0000000000000000       0x4c CMakeFiles/light_switch_provisioner_nrf52840_xxAA_s140_6.0.0.dir/__/__/__/mesh/bearer/src/gap_address_filter.c.obj
 .text.bearer_filter_gap_addr_range_set
                0x0000000000000000       0x64 CMakeFiles/light_switch_provisioner_nrf52840_xxAA_s140_6.0.0.dir/__/__/__/mesh/bearer/src/gap_address_filter.c.obj
 .text.bearer_filter_gap_addr_clear
                0x0000000000000000       0x24 CMakeFiles/light_switch_provisioner_nrf52840_xxAA_s140_6.0.0.dir/__/__/__/mesh/bearer/src/gap_address_filter.c.obj
 .text.bearer_gap_addr_filtered_amount_get
                0x0000000000000000        0xc CMakeFiles/light_switch_provisioner_nrf52840_xxAA_s140_6.0.0.dir/__/__/__/mesh/bearer/src/gap_address_filter.c.obj
 .bss.m_addr_filter
                0x0000000000000000       0x18 CMakeFiles/light_switch_provisioner_nrf52840_xxAA_s140_6.0.0.dir/__/__/__/mesh/bearer/src/gap_address_filter.c.obj
 .debug_info    0x0000000000000000      0xf34 CMakeFiles/light_switch_provisioner_nrf52840_xxAA_s140_6.0.0.dir/__/__/__/mesh/bearer/src/gap_address_filter.c.obj
 .debug_abbrev  0x0000000000000000      0x2f8 CMakeFiles/light_switch_provisioner_nrf52840_xxAA_s140_6.0.0.dir/__/__/__/mesh/bearer/src/gap_address_filter.c.obj
 .debug_loc     0x0000000000000000      0x823 CMakeFiles/light_switch_provisioner_nrf52840_xxAA_s140_6.0.0.dir/__/__/__/mesh/bearer/src/gap_address_filter.c.obj
 .debug_aranges
                0x0000000000000000       0x48 CMakeFiles/light_switch_provisioner_nrf52840_xxAA_s140_6.0.0.dir/__/__/__/mesh/bearer/src/gap_address_filter.c.obj
 .debug_ranges  0x0000000000000000      0x100 CMakeFiles/light_switch_provisioner_nrf52840_xxAA_s140_6.0.0.dir/__/__/__/mesh/bearer/src/gap_address_filter.c.obj
 .debug_line    0x0000000000000000      0x519 CMakeFiles/light_switch_provisioner_nrf52840_xxAA_s140_6.0.0.dir/__/__/__/mesh/bearer/src/gap_address_filter.c.obj
 .debug_str     0x0000000000000000      0x9f7 CMakeFiles/light_switch_provisioner_nrf52840_xxAA_s140_6.0.0.dir/__/__/__/mesh/bearer/src/gap_address_filter.c.obj
 .comment       0x0000000000000000       0x7f CMakeFiles/light_switch_provisioner_nrf52840_xxAA_s140_6.0.0.dir/__/__/__/mesh/bearer/src/gap_address_filter.c.obj
 .debug_frame   0x0000000000000000       0xd4 CMakeFiles/light_switch_provisioner_nrf52840_xxAA_s140_6.0.0.dir/__/__/__/mesh/bearer/src/gap_address_filter.c.obj
 .ARM.attributes
                0x0000000000000000       0x39 CMakeFiles/light_switch_provisioner_nrf52840_xxAA_s140_6.0.0.dir/__/__/__/mesh/bearer/src/gap_address_filter.c.obj
 .text          0x0000000000000000        0x0 CMakeFiles/light_switch_provisioner_nrf52840_xxAA_s140_6.0.0.dir/__/__/__/mesh/bearer/src/radio_config.c.obj
 .data          0x0000000000000000        0x0 CMakeFiles/light_switch_provisioner_nrf52840_xxAA_s140_6.0.0.dir/__/__/__/mesh/bearer/src/radio_config.c.obj
 .bss           0x0000000000000000        0x0 CMakeFiles/light_switch_provisioner_nrf52840_xxAA_s140_6.0.0.dir/__/__/__/mesh/bearer/src/radio_config.c.obj
 .text.radio_config_access_addr_get
                0x0000000000000000       0x58 CMakeFiles/light_switch_provisioner_nrf52840_xxAA_s140_6.0.0.dir/__/__/__/mesh/bearer/src/radio_config.c.obj
 .text          0x0000000000000000        0x0 CMakeFiles/light_switch_provisioner_nrf52840_xxAA_s140_6.0.0.dir/__/__/__/mesh/bearer/src/rssi_filter.c.obj
 .data          0x0000000000000000        0x0 CMakeFiles/light_switch_provisioner_nrf52840_xxAA_s140_6.0.0.dir/__/__/__/mesh/bearer/src/rssi_filter.c.obj
 .bss           0x0000000000000000        0x0 CMakeFiles/light_switch_provisioner_nrf52840_xxAA_s140_6.0.0.dir/__/__/__/mesh/bearer/src/rssi_filter.c.obj
 .text.rssi_filter_handle
                0x0000000000000000       0x20 CMakeFiles/light_switch_provisioner_nrf52840_xxAA_s140_6.0.0.dir/__/__/__/mesh/bearer/src/rssi_filter.c.obj
 .text.bearer_rssi_filtering_set
                0x0000000000000000       0x38 CMakeFiles/light_switch_provisioner_nrf52840_xxAA_s140_6.0.0.dir/__/__/__/mesh/bearer/src/rssi_filter.c.obj
 .text.bearer_rssi_filtered_amount_get
                0x0000000000000000        0xc CMakeFiles/light_switch_provisioner_nrf52840_xxAA_s140_6.0.0.dir/__/__/__/mesh/bearer/src/rssi_filter.c.obj
 .bss.m_rssi_filter
                0x0000000000000000       0x18 CMakeFiles/light_switch_provisioner_nrf52840_xxAA_s140_6.0.0.dir/__/__/__/mesh/bearer/src/rssi_filter.c.obj
 .debug_info    0x0000000000000000      0xc70 CMakeFiles/light_switch_provisioner_nrf52840_xxAA_s140_6.0.0.dir/__/__/__/mesh/bearer/src/rssi_filter.c.obj
 .debug_abbrev  0x0000000000000000      0x290 CMakeFiles/light_switch_provisioner_nrf52840_xxAA_s140_6.0.0.dir/__/__/__/mesh/bearer/src/rssi_filter.c.obj
 .debug_loc     0x0000000000000000       0xbe CMakeFiles/light_switch_provisioner_nrf52840_xxAA_s140_6.0.0.dir/__/__/__/mesh/bearer/src/rssi_filter.c.obj
 .debug_aranges
                0x0000000000000000       0x30 CMakeFiles/light_switch_provisioner_nrf52840_xxAA_s140_6.0.0.dir/__/__/__/mesh/bearer/src/rssi_filter.c.obj
 .debug_ranges  0x0000000000000000       0x20 CMakeFiles/light_switch_provisioner_nrf52840_xxAA_s140_6.0.0.dir/__/__/__/mesh/bearer/src/rssi_filter.c.obj
 .debug_line    0x0000000000000000      0x3fb CMakeFiles/light_switch_provisioner_nrf52840_xxAA_s140_6.0.0.dir/__/__/__/mesh/bearer/src/rssi_filter.c.obj
 .debug_str     0x0000000000000000      0x8b2 CMakeFiles/light_switch_provisioner_nrf52840_xxAA_s140_6.0.0.dir/__/__/__/mesh/bearer/src/rssi_filter.c.obj
 .comment       0x0000000000000000       0x7f CMakeFiles/light_switch_provisioner_nrf52840_xxAA_s140_6.0.0.dir/__/__/__/mesh/bearer/src/rssi_filter.c.obj
 .debug_frame   0x0000000000000000       0x58 CMakeFiles/light_switch_provisioner_nrf52840_xxAA_s140_6.0.0.dir/__/__/__/mesh/bearer/src/rssi_filter.c.obj
 .ARM.attributes
                0x0000000000000000       0x39 CMakeFiles/light_switch_provisioner_nrf52840_xxAA_s140_6.0.0.dir/__/__/__/mesh/bearer/src/rssi_filter.c.obj
 .text          0x0000000000000000        0x0 CMakeFiles/light_switch_provisioner_nrf52840_xxAA_s140_6.0.0.dir/__/__/__/mesh/bearer/src/scanner.c.obj
 .data          0x0000000000000000        0x0 CMakeFiles/light_switch_provisioner_nrf52840_xxAA_s140_6.0.0.dir/__/__/__/mesh/bearer/src/scanner.c.obj
 .bss           0x0000000000000000        0x0 CMakeFiles/light_switch_provisioner_nrf52840_xxAA_s140_6.0.0.dir/__/__/__/mesh/bearer/src/scanner.c.obj
 .text.scanner_rx_callback_set
                0x0000000000000000       0x20 CMakeFiles/light_switch_provisioner_nrf52840_xxAA_s140_6.0.0.dir/__/__/__/mesh/bearer/src/scanner.c.obj
 .text.scanner_disable
                0x0000000000000000       0x50 CMakeFiles/light_switch_provisioner_nrf52840_xxAA_s140_6.0.0.dir/__/__/__/mesh/bearer/src/scanner.c.obj
 .text.scanner_is_enabled
                0x0000000000000000       0x14 CMakeFiles/light_switch_provisioner_nrf52840_xxAA_s140_6.0.0.dir/__/__/__/mesh/bearer/src/scanner.c.obj
 .text.scanner_stats_get
                0x0000000000000000        0x8 CMakeFiles/light_switch_provisioner_nrf52840_xxAA_s140_6.0.0.dir/__/__/__/mesh/bearer/src/scanner.c.obj
 .text.scanner_config_radio_mode_set
                0x0000000000000000       0x10 CMakeFiles/light_switch_provisioner_nrf52840_xxAA_s140_6.0.0.dir/__/__/__/mesh/bearer/src/scanner.c.obj
 .text.scanner_config_scan_time_set
                0x0000000000000000       0x88 CMakeFiles/light_switch_provisioner_nrf52840_xxAA_s140_6.0.0.dir/__/__/__/mesh/bearer/src/scanner.c.obj
 .text.scanner_config_channels_set
                0x0000000000000000       0x50 CMakeFiles/light_switch_provisioner_nrf52840_xxAA_s140_6.0.0.dir/__/__/__/mesh/bearer/src/scanner.c.obj
 .text.scanner_config_access_addresses_set
                0x0000000000000000       0x38 CMakeFiles/light_switch_provisioner_nrf52840_xxAA_s140_6.0.0.dir/__/__/__/mesh/bearer/src/scanner.c.obj
 .text          0x0000000000000000        0x0 CMakeFiles/light_switch_provisioner_nrf52840_xxAA_s140_6.0.0.dir/__/__/__/models/simple_on_off/src/simple_on_off_client.c.obj
 .data          0x0000000000000000        0x0 CMakeFiles/light_switch_provisioner_nrf52840_xxAA_s140_6.0.0.dir/__/__/__/models/simple_on_off/src/simple_on_off_client.c.obj
 .bss           0x0000000000000000        0x0 CMakeFiles/light_switch_provisioner_nrf52840_xxAA_s140_6.0.0.dir/__/__/__/models/simple_on_off/src/simple_on_off_client.c.obj
 .text.handle_publish_timeout
                0x0000000000000000        0x8 CMakeFiles/light_switch_provisioner_nrf52840_xxAA_s140_6.0.0.dir/__/__/__/models/simple_on_off/src/simple_on_off_client.c.obj
 .text.reliable_status_cb
                0x0000000000000000       0x7c CMakeFiles/light_switch_provisioner_nrf52840_xxAA_s140_6.0.0.dir/__/__/__/models/simple_on_off/src/simple_on_off_client.c.obj
 .text.handle_status_cb
                0x0000000000000000       0x58 CMakeFiles/light_switch_provisioner_nrf52840_xxAA_s140_6.0.0.dir/__/__/__/models/simple_on_off/src/simple_on_off_client.c.obj
 .text.simple_on_off_client_init
                0x0000000000000000       0x40 CMakeFiles/light_switch_provisioner_nrf52840_xxAA_s140_6.0.0.dir/__/__/__/models/simple_on_off/src/simple_on_off_client.c.obj
 .text.simple_on_off_client_set
                0x0000000000000000       0x74 CMakeFiles/light_switch_provisioner_nrf52840_xxAA_s140_6.0.0.dir/__/__/__/models/simple_on_off/src/simple_on_off_client.c.obj
 .text.simple_on_off_client_set_unreliable
                0x0000000000000000       0x5c CMakeFiles/light_switch_provisioner_nrf52840_xxAA_s140_6.0.0.dir/__/__/__/models/simple_on_off/src/simple_on_off_client.c.obj
 .text.simple_on_off_client_get
                0x0000000000000000       0x60 CMakeFiles/light_switch_provisioner_nrf52840_xxAA_s140_6.0.0.dir/__/__/__/models/simple_on_off/src/simple_on_off_client.c.obj
 .text.simple_on_off_client_pending_msg_cancel
                0x0000000000000000        0x8 CMakeFiles/light_switch_provisioner_nrf52840_xxAA_s140_6.0.0.dir/__/__/__/models/simple_on_off/src/simple_on_off_client.c.obj
 .bss.m_tid     0x0000000000000000        0x1 CMakeFiles/light_switch_provisioner_nrf52840_xxAA_s140_6.0.0.dir/__/__/__/models/simple_on_off/src/simple_on_off_client.c.obj
 .rodata.m_opcode_handlers
                0x0000000000000000        0x8 CMakeFiles/light_switch_provisioner_nrf52840_xxAA_s140_6.0.0.dir/__/__/__/models/simple_on_off/src/simple_on_off_client.c.obj
 .debug_info    0x0000000000000000     0x168b CMakeFiles/light_switch_provisioner_nrf52840_xxAA_s140_6.0.0.dir/__/__/__/models/simple_on_off/src/simple_on_off_client.c.obj
 .debug_abbrev  0x0000000000000000      0x3c9 CMakeFiles/light_switch_provisioner_nrf52840_xxAA_s140_6.0.0.dir/__/__/__/models/simple_on_off/src/simple_on_off_client.c.obj
 .debug_loc     0x0000000000000000      0x805 CMakeFiles/light_switch_provisioner_nrf52840_xxAA_s140_6.0.0.dir/__/__/__/models/simple_on_off/src/simple_on_off_client.c.obj
 .debug_aranges
                0x0000000000000000       0x58 CMakeFiles/light_switch_provisioner_nrf52840_xxAA_s140_6.0.0.dir/__/__/__/models/simple_on_off/src/simple_on_off_client.c.obj
 .debug_ranges  0x0000000000000000       0xc0 CMakeFiles/light_switch_provisioner_nrf52840_xxAA_s140_6.0.0.dir/__/__/__/models/simple_on_off/src/simple_on_off_client.c.obj
 .debug_line    0x0000000000000000      0x5de CMakeFiles/light_switch_provisioner_nrf52840_xxAA_s140_6.0.0.dir/__/__/__/models/simple_on_off/src/simple_on_off_client.c.obj
 .debug_str     0x0000000000000000     0x115f CMakeFiles/light_switch_provisioner_nrf52840_xxAA_s140_6.0.0.dir/__/__/__/models/simple_on_off/src/simple_on_off_client.c.obj
 .comment       0x0000000000000000       0x7f CMakeFiles/light_switch_provisioner_nrf52840_xxAA_s140_6.0.0.dir/__/__/__/models/simple_on_off/src/simple_on_off_client.c.obj
 .debug_frame   0x0000000000000000      0x130 CMakeFiles/light_switch_provisioner_nrf52840_xxAA_s140_6.0.0.dir/__/__/__/models/simple_on_off/src/simple_on_off_client.c.obj
 .ARM.attributes
                0x0000000000000000       0x39 CMakeFiles/light_switch_provisioner_nrf52840_xxAA_s140_6.0.0.dir/__/__/__/models/simple_on_off/src/simple_on_off_client.c.obj
 .text          0x0000000000000000        0x0 CMakeFiles/light_switch_provisioner_nrf52840_xxAA_s140_6.0.0.dir/__/__/__/models/config/src/config_client.c.obj
 .data          0x0000000000000000        0x0 CMakeFiles/light_switch_provisioner_nrf52840_xxAA_s140_6.0.0.dir/__/__/__/models/config/src/config_client.c.obj
 .bss           0x0000000000000000        0x0 CMakeFiles/light_switch_provisioner_nrf52840_xxAA_s140_6.0.0.dir/__/__/__/models/config/src/config_client.c.obj
 .text.config_client_appkey_delete
                0x0000000000000000       0xdc CMakeFiles/light_switch_provisioner_nrf52840_xxAA_s140_6.0.0.dir/__/__/__/models/config/src/config_client.c.obj
 .text.config_client_appkey_get
                0x0000000000000000       0xb4 CMakeFiles/light_switch_provisioner_nrf52840_xxAA_s140_6.0.0.dir/__/__/__/models/config/src/config_client.c.obj
 .text.config_client_appkey_update
                0x0000000000000000       0xe0 CMakeFiles/light_switch_provisioner_nrf52840_xxAA_s140_6.0.0.dir/__/__/__/models/config/src/config_client.c.obj
 .text.config_client_model_publication_get
                0x0000000000000000       0xe0 CMakeFiles/light_switch_provisioner_nrf52840_xxAA_s140_6.0.0.dir/__/__/__/models/config/src/config_client.c.obj
 .text.config_client_net_beacon_get
                0x0000000000000000       0x94 CMakeFiles/light_switch_provisioner_nrf52840_xxAA_s140_6.0.0.dir/__/__/__/models/config/src/config_client.c.obj
 .text.config_client_net_beacon_set
                0x0000000000000000       0xb0 CMakeFiles/light_switch_provisioner_nrf52840_xxAA_s140_6.0.0.dir/__/__/__/models/config/src/config_client.c.obj
 .text.config_client_default_ttl_get
                0x0000000000000000       0x78 CMakeFiles/light_switch_provisioner_nrf52840_xxAA_s140_6.0.0.dir/__/__/__/models/config/src/config_client.c.obj
 .text.config_client_default_ttl_set
                0x0000000000000000       0xbc CMakeFiles/light_switch_provisioner_nrf52840_xxAA_s140_6.0.0.dir/__/__/__/models/config/src/config_client.c.obj
 .text.config_client_model_subscription_delete
                0x0000000000000000      0x188 CMakeFiles/light_switch_provisioner_nrf52840_xxAA_s140_6.0.0.dir/__/__/__/models/config/src/config_client.c.obj
 .text.config_client_model_subscription_delete_all
                0x0000000000000000       0xe0 CMakeFiles/light_switch_provisioner_nrf52840_xxAA_s140_6.0.0.dir/__/__/__/models/config/src/config_client.c.obj
 .text.config_client_model_subscription_get
                0x0000000000000000       0xec CMakeFiles/light_switch_provisioner_nrf52840_xxAA_s140_6.0.0.dir/__/__/__/models/config/src/config_client.c.obj
 .text.config_client_model_subscription_overwrite
                0x0000000000000000      0x188 CMakeFiles/light_switch_provisioner_nrf52840_xxAA_s140_6.0.0.dir/__/__/__/models/config/src/config_client.c.obj
 .text.config_client_relay_get
                0x0000000000000000       0x78 CMakeFiles/light_switch_provisioner_nrf52840_xxAA_s140_6.0.0.dir/__/__/__/models/config/src/config_client.c.obj
 .text.config_client_relay_set
                0x0000000000000000       0xdc CMakeFiles/light_switch_provisioner_nrf52840_xxAA_s140_6.0.0.dir/__/__/__/models/config/src/config_client.c.obj
 .text.config_client_model_app_get
                0x0000000000000000       0xec CMakeFiles/light_switch_provisioner_nrf52840_xxAA_s140_6.0.0.dir/__/__/__/models/config/src/config_client.c.obj
 .text.config_client_model_app_unbind
                0x0000000000000000       0xf0 CMakeFiles/light_switch_provisioner_nrf52840_xxAA_s140_6.0.0.dir/__/__/__/models/config/src/config_client.c.obj
 .text.config_client_netkey_add
                0x0000000000000000       0xc0 CMakeFiles/light_switch_provisioner_nrf52840_xxAA_s140_6.0.0.dir/__/__/__/models/config/src/config_client.c.obj
 .text.config_client_netkey_delete
                0x0000000000000000       0xb4 CMakeFiles/light_switch_provisioner_nrf52840_xxAA_s140_6.0.0.dir/__/__/__/models/config/src/config_client.c.obj
 .text.config_client_netkey_get
                0x0000000000000000       0x94 CMakeFiles/light_switch_provisioner_nrf52840_xxAA_s140_6.0.0.dir/__/__/__/models/config/src/config_client.c.obj
 .text.config_client_netkey_update
                0x0000000000000000       0xc0 CMakeFiles/light_switch_provisioner_nrf52840_xxAA_s140_6.0.0.dir/__/__/__/models/config/src/config_client.c.obj
 .text.config_client_node_reset
                0x0000000000000000       0x94 CMakeFiles/light_switch_provisioner_nrf52840_xxAA_s140_6.0.0.dir/__/__/__/models/config/src/config_client.c.obj
 .text.config_client_key_refresh_phase_get
                0x0000000000000000       0xb4 CMakeFiles/light_switch_provisioner_nrf52840_xxAA_s140_6.0.0.dir/__/__/__/models/config/src/config_client.c.obj
 .text.config_client_key_refresh_phase_set
                0x0000000000000000       0xc8 CMakeFiles/light_switch_provisioner_nrf52840_xxAA_s140_6.0.0.dir/__/__/__/models/config/src/config_client.c.obj
 .text.config_client_friend_get
                0x0000000000000000        0x4 CMakeFiles/light_switch_provisioner_nrf52840_xxAA_s140_6.0.0.dir/__/__/__/models/config/src/config_client.c.obj
 .text.config_client_friend_set
                0x0000000000000000        0x4 CMakeFiles/light_switch_provisioner_nrf52840_xxAA_s140_6.0.0.dir/__/__/__/models/config/src/config_client.c.obj
 .text.config_client_gatt_proxy_get
                0x0000000000000000        0x4 CMakeFiles/light_switch_provisioner_nrf52840_xxAA_s140_6.0.0.dir/__/__/__/models/config/src/config_client.c.obj
 .text.config_client_gatt_proxy_set
                0x0000000000000000        0x4 CMakeFiles/light_switch_provisioner_nrf52840_xxAA_s140_6.0.0.dir/__/__/__/models/config/src/config_client.c.obj
 .text.config_client_node_identity_get
                0x0000000000000000        0x4 CMakeFiles/light_switch_provisioner_nrf52840_xxAA_s140_6.0.0.dir/__/__/__/models/config/src/config_client.c.obj
 .text.config_client_node_identity_set
                0x0000000000000000        0x4 CMakeFiles/light_switch_provisioner_nrf52840_xxAA_s140_6.0.0.dir/__/__/__/models/config/src/config_client.c.obj
 .text.config_client_heartbeat_publication_get
                0x0000000000000000       0x94 CMakeFiles/light_switch_provisioner_nrf52840_xxAA_s140_6.0.0.dir/__/__/__/models/config/src/config_client.c.obj
 .text.config_client_heartbeat_publication_set
                0x0000000000000000       0xc4 CMakeFiles/light_switch_provisioner_nrf52840_xxAA_s140_6.0.0.dir/__/__/__/models/config/src/config_client.c.obj
 .text.config_client_heartbeat_subscription_get
                0x0000000000000000       0x94 CMakeFiles/light_switch_provisioner_nrf52840_xxAA_s140_6.0.0.dir/__/__/__/models/config/src/config_client.c.obj
 .text.config_client_heartbeat_subscription_set
                0x0000000000000000       0xc4 CMakeFiles/light_switch_provisioner_nrf52840_xxAA_s140_6.0.0.dir/__/__/__/models/config/src/config_client.c.obj
 .text          0x0000000000000000        0x0 CMakeFiles/light_switch_provisioner_nrf52840_xxAA_s140_6.0.0.dir/__/__/__/models/config/src/composition_data.c.obj
 .data          0x0000000000000000        0x0 CMakeFiles/light_switch_provisioner_nrf52840_xxAA_s140_6.0.0.dir/__/__/__/models/config/src/composition_data.c.obj
 .bss           0x0000000000000000        0x0 CMakeFiles/light_switch_provisioner_nrf52840_xxAA_s140_6.0.0.dir/__/__/__/models/config/src/composition_data.c.obj
 .text          0x0000000000000000        0x0 CMakeFiles/light_switch_provisioner_nrf52840_xxAA_s140_6.0.0.dir/__/__/__/models/config/src/config_server.c.obj
 .data          0x0000000000000000        0x0 CMakeFiles/light_switch_provisioner_nrf52840_xxAA_s140_6.0.0.dir/__/__/__/models/config/src/config_server.c.obj
 .bss           0x0000000000000000        0x0 CMakeFiles/light_switch_provisioner_nrf52840_xxAA_s140_6.0.0.dir/__/__/__/models/config/src/config_server.c.obj
 .text          0x0000000000000000        0x0 CMakeFiles/light_switch_provisioner_nrf52840_xxAA_s140_6.0.0.dir/__/__/__/models/config/src/packed_index_list.c.obj
 .data          0x0000000000000000        0x0 CMakeFiles/light_switch_provisioner_nrf52840_xxAA_s140_6.0.0.dir/__/__/__/models/config/src/packed_index_list.c.obj
 .bss           0x0000000000000000        0x0 CMakeFiles/light_switch_provisioner_nrf52840_xxAA_s140_6.0.0.dir/__/__/__/models/config/src/packed_index_list.c.obj
 .text          0x0000000000000000        0x0 CMakeFiles/light_switch_provisioner_nrf52840_xxAA_s140_6.0.0.dir/__/__/__/models/health/src/health_server.c.obj
 .data          0x0000000000000000        0x0 CMakeFiles/light_switch_provisioner_nrf52840_xxAA_s140_6.0.0.dir/__/__/__/models/health/src/health_server.c.obj
 .bss           0x0000000000000000        0x0 CMakeFiles/light_switch_provisioner_nrf52840_xxAA_s140_6.0.0.dir/__/__/__/models/health/src/health_server.c.obj
 .text.health_server_fault_register
                0x0000000000000000      0x23c CMakeFiles/light_switch_provisioner_nrf52840_xxAA_s140_6.0.0.dir/__/__/__/models/health/src/health_server.c.obj
 .text.health_server_fault_clear
                0x0000000000000000      0x2d8 CMakeFiles/light_switch_provisioner_nrf52840_xxAA_s140_6.0.0.dir/__/__/__/models/health/src/health_server.c.obj
 .text.health_server_fault_is_set
                0x0000000000000000       0x1c CMakeFiles/light_switch_provisioner_nrf52840_xxAA_s140_6.0.0.dir/__/__/__/models/health/src/health_server.c.obj
 .text.health_server_fault_count_get
                0x0000000000000000      0x14c CMakeFiles/light_switch_provisioner_nrf52840_xxAA_s140_6.0.0.dir/__/__/__/models/health/src/health_server.c.obj
 .text.health_server_attention_get
                0x0000000000000000        0x8 CMakeFiles/light_switch_provisioner_nrf52840_xxAA_s140_6.0.0.dir/__/__/__/models/health/src/health_server.c.obj
 .text.health_server_attention_set
                0x0000000000000000       0x90 CMakeFiles/light_switch_provisioner_nrf52840_xxAA_s140_6.0.0.dir/__/__/__/models/health/src/health_server.c.obj
 .text          0x0000000000000000        0x0 CMakeFiles/light_switch_provisioner_nrf52840_xxAA_s140_6.0.0.dir/__/__/__/models/health/src/health_client.c.obj
 .data          0x0000000000000000        0x0 CMakeFiles/light_switch_provisioner_nrf52840_xxAA_s140_6.0.0.dir/__/__/__/models/health/src/health_client.c.obj
 .bss           0x0000000000000000        0x0 CMakeFiles/light_switch_provisioner_nrf52840_xxAA_s140_6.0.0.dir/__/__/__/models/health/src/health_client.c.obj
 .text.reliable_status_cb
                0x0000000000000000       0x50 CMakeFiles/light_switch_provisioner_nrf52840_xxAA_s140_6.0.0.dir/__/__/__/models/health/src/health_client.c.obj
 .text.health_client_fault_get
                0x0000000000000000       0xa4 CMakeFiles/light_switch_provisioner_nrf52840_xxAA_s140_6.0.0.dir/__/__/__/models/health/src/health_client.c.obj
 .text.health_client_fault_clear
                0x0000000000000000       0xd0 CMakeFiles/light_switch_provisioner_nrf52840_xxAA_s140_6.0.0.dir/__/__/__/models/health/src/health_client.c.obj
 .text.health_client_fault_test
                0x0000000000000000       0xd8 CMakeFiles/light_switch_provisioner_nrf52840_xxAA_s140_6.0.0.dir/__/__/__/models/health/src/health_client.c.obj
 .text.health_client_period_get
                0x0000000000000000       0x88 CMakeFiles/light_switch_provisioner_nrf52840_xxAA_s140_6.0.0.dir/__/__/__/models/health/src/health_client.c.obj
 .text.health_client_period_set
                0x0000000000000000       0xcc CMakeFiles/light_switch_provisioner_nrf52840_xxAA_s140_6.0.0.dir/__/__/__/models/health/src/health_client.c.obj
 .text.health_client_attention_get
                0x0000000000000000       0x88 CMakeFiles/light_switch_provisioner_nrf52840_xxAA_s140_6.0.0.dir/__/__/__/models/health/src/health_client.c.obj
 .text.health_client_attention_set
                0x0000000000000000       0xcc CMakeFiles/light_switch_provisioner_nrf52840_xxAA_s140_6.0.0.dir/__/__/__/models/health/src/health_client.c.obj
 .text.health_client_pending_msg_cancel
                0x0000000000000000        0x8 CMakeFiles/light_switch_provisioner_nrf52840_xxAA_s140_6.0.0.dir/__/__/__/models/health/src/health_client.c.obj
 .text          0x0000000000000000        0x0 CMakeFiles/light_switch_provisioner_nrf52840_xxAA_s140_6.0.0.dir/__/__/__/mesh/access/src/access_publish.c.obj
 .data          0x0000000000000000        0x0 CMakeFiles/light_switch_provisioner_nrf52840_xxAA_s140_6.0.0.dir/__/__/__/mesh/access/src/access_publish.c.obj
 .bss           0x0000000000000000        0x0 CMakeFiles/light_switch_provisioner_nrf52840_xxAA_s140_6.0.0.dir/__/__/__/mesh/access/src/access_publish.c.obj
 .text          0x0000000000000000        0x0 CMakeFiles/light_switch_provisioner_nrf52840_xxAA_s140_6.0.0.dir/__/__/__/mesh/access/src/access.c.obj
 .data          0x0000000000000000        0x0 CMakeFiles/light_switch_provisioner_nrf52840_xxAA_s140_6.0.0.dir/__/__/__/mesh/access/src/access.c.obj
 .bss           0x0000000000000000        0x0 CMakeFiles/light_switch_provisioner_nrf52840_xxAA_s140_6.0.0.dir/__/__/__/mesh/access/src/access.c.obj
 .text.access_model_subscription_lists_share
                0x0000000000000000       0x58 CMakeFiles/light_switch_provisioner_nrf52840_xxAA_s140_6.0.0.dir/__/__/__/mesh/access/src/access.c.obj
 .text.access_element_location_set
                0x0000000000000000       0x20 CMakeFiles/light_switch_provisioner_nrf52840_xxAA_s140_6.0.0.dir/__/__/__/mesh/access/src/access.c.obj
 .text          0x0000000000000000        0x0 CMakeFiles/light_switch_provisioner_nrf52840_xxAA_s140_6.0.0.dir/__/__/__/mesh/access/src/access_reliable.c.obj
 .data          0x0000000000000000        0x0 CMakeFiles/light_switch_provisioner_nrf52840_xxAA_s140_6.0.0.dir/__/__/__/mesh/access/src/access_reliable.c.obj
 .bss           0x0000000000000000        0x0 CMakeFiles/light_switch_provisioner_nrf52840_xxAA_s140_6.0.0.dir/__/__/__/mesh/access/src/access_reliable.c.obj
 .text          0x0000000000000000        0x0 CMakeFiles/light_switch_provisioner_nrf52840_xxAA_s140_6.0.0.dir/__/__/__/mesh/access/src/device_state_manager.c.obj
 .data          0x0000000000000000        0x0 CMakeFiles/light_switch_provisioner_nrf52840_xxAA_s140_6.0.0.dir/__/__/__/mesh/access/src/device_state_manager.c.obj
 .bss           0x0000000000000000        0x0 CMakeFiles/light_switch_provisioner_nrf52840_xxAA_s140_6.0.0.dir/__/__/__/mesh/access/src/device_state_manager.c.obj
 .text.dsm_has_unflashed_data
                0x0000000000000000       0x58 CMakeFiles/light_switch_provisioner_nrf52840_xxAA_s140_6.0.0.dir/__/__/__/mesh/access/src/device_state_manager.c.obj
 .text.dsm_address_subscription_count_get
                0x0000000000000000       0x7c CMakeFiles/light_switch_provisioner_nrf52840_xxAA_s140_6.0.0.dir/__/__/__/mesh/access/src/device_state_manager.c.obj
 .text.dsm_address_get_all
                0x0000000000000000       0x64 CMakeFiles/light_switch_provisioner_nrf52840_xxAA_s140_6.0.0.dir/__/__/__/mesh/access/src/device_state_manager.c.obj
 .text.dsm_subnet_handle_to_netkey_index
                0x0000000000000000       0x24 CMakeFiles/light_switch_provisioner_nrf52840_xxAA_s140_6.0.0.dir/__/__/__/mesh/access/src/device_state_manager.c.obj
 .text.dsm_devkey_delete
                0x0000000000000000       0x7c CMakeFiles/light_switch_provisioner_nrf52840_xxAA_s140_6.0.0.dir/__/__/__/mesh/access/src/device_state_manager.c.obj
 .text.dsm_beacon_info_get
                0x0000000000000000       0x24 CMakeFiles/light_switch_provisioner_nrf52840_xxAA_s140_6.0.0.dir/__/__/__/mesh/access/src/device_state_manager.c.obj
 .text          0x0000000000000000        0x0 CMakeFiles/light_switch_provisioner_nrf52840_xxAA_s140_6.0.0.dir/__/__/__/mesh/prov/src/prov_provisioner.c.obj
 .data          0x0000000000000000        0x0 CMakeFiles/light_switch_provisioner_nrf52840_xxAA_s140_6.0.0.dir/__/__/__/mesh/prov/src/prov_provisioner.c.obj
 .bss           0x0000000000000000        0x0 CMakeFiles/light_switch_provisioner_nrf52840_xxAA_s140_6.0.0.dir/__/__/__/mesh/prov/src/prov_provisioner.c.obj
 .text.prov_provisioner_shared_secret
                0x0000000000000000       0xb8 CMakeFiles/light_switch_provisioner_nrf52840_xxAA_s140_6.0.0.dir/__/__/__/mesh/prov/src/prov_provisioner.c.obj
 .text.prov_provisioner_oob_pubkey
                0x0000000000000000       0x30 CMakeFiles/light_switch_provisioner_nrf52840_xxAA_s140_6.0.0.dir/__/__/__/mesh/prov/src/prov_provisioner.c.obj
 .text          0x0000000000000000        0x0 CMakeFiles/light_switch_provisioner_nrf52840_xxAA_s140_6.0.0.dir/__/__/__/mesh/prov/src/nrf_mesh_prov.c.obj
 .data          0x0000000000000000        0x0 CMakeFiles/light_switch_provisioner_nrf52840_xxAA_s140_6.0.0.dir/__/__/__/mesh/prov/src/nrf_mesh_prov.c.obj
 .bss           0x0000000000000000        0x0 CMakeFiles/light_switch_provisioner_nrf52840_xxAA_s140_6.0.0.dir/__/__/__/mesh/prov/src/nrf_mesh_prov.c.obj
 .text.nrf_mesh_prov_listen
                0x0000000000000000       0xf0 CMakeFiles/light_switch_provisioner_nrf52840_xxAA_s140_6.0.0.dir/__/__/__/mesh/prov/src/nrf_mesh_prov.c.obj
 .text.nrf_mesh_prov_listen_stop
                0x0000000000000000       0x30 CMakeFiles/light_switch_provisioner_nrf52840_xxAA_s140_6.0.0.dir/__/__/__/mesh/prov/src/nrf_mesh_prov.c.obj
 .text.nrf_mesh_prov_shared_secret_provide
                0x0000000000000000       0x10 CMakeFiles/light_switch_provisioner_nrf52840_xxAA_s140_6.0.0.dir/__/__/__/mesh/prov/src/nrf_mesh_prov.c.obj
 .text.nrf_mesh_prov_pubkey_provide
                0x0000000000000000       0x10 CMakeFiles/light_switch_provisioner_nrf52840_xxAA_s140_6.0.0.dir/__/__/__/mesh/prov/src/nrf_mesh_prov.c.obj
 .text.nrf_mesh_prov_scan_stop
                0x0000000000000000        0x4 CMakeFiles/light_switch_provisioner_nrf52840_xxAA_s140_6.0.0.dir/__/__/__/mesh/prov/src/nrf_mesh_prov.c.obj
 .rodata.multiply_de_bruijn_bit_position.9767
                0x0000000000000000       0x20 CMakeFiles/light_switch_provisioner_nrf52840_xxAA_s140_6.0.0.dir/__/__/__/mesh/prov/src/nrf_mesh_prov.c.obj
 .text          0x0000000000000000        0x0 CMakeFiles/light_switch_provisioner_nrf52840_xxAA_s140_6.0.0.dir/__/__/__/mesh/prov/src/provisioning.c.obj
 .data          0x0000000000000000        0x0 CMakeFiles/light_switch_provisioner_nrf52840_xxAA_s140_6.0.0.dir/__/__/__/mesh/prov/src/provisioning.c.obj
 .bss           0x0000000000000000        0x0 CMakeFiles/light_switch_provisioner_nrf52840_xxAA_s140_6.0.0.dir/__/__/__/mesh/prov/src/provisioning.c.obj
 .text.prov_tx_capabilities
                0x0000000000000000       0x38 CMakeFiles/light_switch_provisioner_nrf52840_xxAA_s140_6.0.0.dir/__/__/__/mesh/prov/src/provisioning.c.obj
 .text.prov_tx_input_complete
                0x0000000000000000       0x28 CMakeFiles/light_switch_provisioner_nrf52840_xxAA_s140_6.0.0.dir/__/__/__/mesh/prov/src/provisioning.c.obj
 .text.prov_tx_complete
                0x0000000000000000       0x28 CMakeFiles/light_switch_provisioner_nrf52840_xxAA_s140_6.0.0.dir/__/__/__/mesh/prov/src/provisioning.c.obj
 .text.prov_tx_failed
                0x0000000000000000       0x2c CMakeFiles/light_switch_provisioner_nrf52840_xxAA_s140_6.0.0.dir/__/__/__/mesh/prov/src/provisioning.c.obj
 .text.prov_tx  0x0000000000000000       0x3c CMakeFiles/light_switch_provisioner_nrf52840_xxAA_s140_6.0.0.dir/__/__/__/mesh/prov/src/provisioning.c.obj
 .text          0x0000000000000000        0x0 CMakeFiles/light_switch_provisioner_nrf52840_xxAA_s140_6.0.0.dir/__/__/__/mesh/prov/src/prov_beacon.c.obj
 .data          0x0000000000000000        0x0 CMakeFiles/light_switch_provisioner_nrf52840_xxAA_s140_6.0.0.dir/__/__/__/mesh/prov/src/prov_beacon.c.obj
 .bss           0x0000000000000000        0x0 CMakeFiles/light_switch_provisioner_nrf52840_xxAA_s140_6.0.0.dir/__/__/__/mesh/prov/src/prov_beacon.c.obj
 .text.prov_beacon_scan_stop
                0x0000000000000000        0xc CMakeFiles/light_switch_provisioner_nrf52840_xxAA_s140_6.0.0.dir/__/__/__/mesh/prov/src/prov_beacon.c.obj
 .text          0x0000000000000000        0x0 CMakeFiles/light_switch_provisioner_nrf52840_xxAA_s140_6.0.0.dir/__/__/__/mesh/prov/src/prov_utils.c.obj
 .data          0x0000000000000000        0x0 CMakeFiles/light_switch_provisioner_nrf52840_xxAA_s140_6.0.0.dir/__/__/__/mesh/prov/src/prov_utils.c.obj
 .bss           0x0000000000000000        0x0 CMakeFiles/light_switch_provisioner_nrf52840_xxAA_s140_6.0.0.dir/__/__/__/mesh/prov/src/prov_utils.c.obj
 .text          0x0000000000000000        0x0 CMakeFiles/light_switch_provisioner_nrf52840_xxAA_s140_6.0.0.dir/__/__/__/mesh/prov/src/prov_bearer_adv.c.obj
 .data          0x0000000000000000        0x0 CMakeFiles/light_switch_provisioner_nrf52840_xxAA_s140_6.0.0.dir/__/__/__/mesh/prov/src/prov_bearer_adv.c.obj
 .bss           0x0000000000000000        0x0 CMakeFiles/light_switch_provisioner_nrf52840_xxAA_s140_6.0.0.dir/__/__/__/mesh/prov/src/prov_bearer_adv.c.obj
 .text.calculate_3GPP_CRC
                0x0000000000000000       0x28 CMakeFiles/light_switch_provisioner_nrf52840_xxAA_s140_6.0.0.dir/__/__/__/mesh/prov/src/prov_bearer_adv.c.obj
 .text          0x0000000000000000        0x0 CMakeFiles/light_switch_provisioner_nrf52840_xxAA_s140_6.0.0.dir/home/mazzer/work/nordic/sdk/nRF5_SDK_15.0.0/modules/nrfx/mdk/system_nrf52840.c.obj
 .data          0x0000000000000000        0x0 CMakeFiles/light_switch_provisioner_nrf52840_xxAA_s140_6.0.0.dir/home/mazzer/work/nordic/sdk/nRF5_SDK_15.0.0/modules/nrfx/mdk/system_nrf52840.c.obj
 .bss           0x0000000000000000        0x0 CMakeFiles/light_switch_provisioner_nrf52840_xxAA_s140_6.0.0.dir/home/mazzer/work/nordic/sdk/nRF5_SDK_15.0.0/modules/nrfx/mdk/system_nrf52840.c.obj
 .text.SystemCoreClockUpdate
                0x0000000000000000       0x10 CMakeFiles/light_switch_provisioner_nrf52840_xxAA_s140_6.0.0.dir/home/mazzer/work/nordic/sdk/nRF5_SDK_15.0.0/modules/nrfx/mdk/system_nrf52840.c.obj
 .data          0x0000000000000000        0x0 CMakeFiles/light_switch_provisioner_nrf52840_xxAA_s140_6.0.0.dir/home/mazzer/work/nordic/sdk/nRF5_SDK_15.0.0/modules/nrfx/mdk/gcc_startup_nrf52840.S.obj
 .bss           0x0000000000000000        0x0 CMakeFiles/light_switch_provisioner_nrf52840_xxAA_s140_6.0.0.dir/home/mazzer/work/nordic/sdk/nRF5_SDK_15.0.0/modules/nrfx/mdk/gcc_startup_nrf52840.S.obj
 .text          0x0000000000000000        0x0 CMakeFiles/light_switch_provisioner_nrf52840_xxAA_s140_6.0.0.dir/home/mazzer/work/nordic/sdk/nRF5_SDK_15.0.0/components/libraries/util/app_error.c.obj
 .data          0x0000000000000000        0x0 CMakeFiles/light_switch_provisioner_nrf52840_xxAA_s140_6.0.0.dir/home/mazzer/work/nordic/sdk/nRF5_SDK_15.0.0/components/libraries/util/app_error.c.obj
 .bss           0x0000000000000000        0x0 CMakeFiles/light_switch_provisioner_nrf52840_xxAA_s140_6.0.0.dir/home/mazzer/work/nordic/sdk/nRF5_SDK_15.0.0/components/libraries/util/app_error.c.obj
 .text.app_error_handler_bare
                0x0000000000000000       0x20 CMakeFiles/light_switch_provisioner_nrf52840_xxAA_s140_6.0.0.dir/home/mazzer/work/nordic/sdk/nRF5_SDK_15.0.0/components/libraries/util/app_error.c.obj
 .text.app_error_save_and_stop
                0x0000000000000000       0x64 CMakeFiles/light_switch_provisioner_nrf52840_xxAA_s140_6.0.0.dir/home/mazzer/work/nordic/sdk/nRF5_SDK_15.0.0/components/libraries/util/app_error.c.obj
 .bss.m_error_data.8293
                0x0000000000000000       0x20 CMakeFiles/light_switch_provisioner_nrf52840_xxAA_s140_6.0.0.dir/home/mazzer/work/nordic/sdk/nRF5_SDK_15.0.0/components/libraries/util/app_error.c.obj
 .debug_info    0x0000000000000000      0xae7 CMakeFiles/light_switch_provisioner_nrf52840_xxAA_s140_6.0.0.dir/home/mazzer/work/nordic/sdk/nRF5_SDK_15.0.0/components/libraries/util/app_error.c.obj
 .debug_abbrev  0x0000000000000000      0x232 CMakeFiles/light_switch_provisioner_nrf52840_xxAA_s140_6.0.0.dir/home/mazzer/work/nordic/sdk/nRF5_SDK_15.0.0/components/libraries/util/app_error.c.obj
 .debug_loc     0x0000000000000000       0xca CMakeFiles/light_switch_provisioner_nrf52840_xxAA_s140_6.0.0.dir/home/mazzer/work/nordic/sdk/nRF5_SDK_15.0.0/components/libraries/util/app_error.c.obj
 .debug_aranges
                0x0000000000000000       0x28 CMakeFiles/light_switch_provisioner_nrf52840_xxAA_s140_6.0.0.dir/home/mazzer/work/nordic/sdk/nRF5_SDK_15.0.0/components/libraries/util/app_error.c.obj
 .debug_ranges  0x0000000000000000       0x18 CMakeFiles/light_switch_provisioner_nrf52840_xxAA_s140_6.0.0.dir/home/mazzer/work/nordic/sdk/nRF5_SDK_15.0.0/components/libraries/util/app_error.c.obj
 .debug_line    0x0000000000000000      0x274 CMakeFiles/light_switch_provisioner_nrf52840_xxAA_s140_6.0.0.dir/home/mazzer/work/nordic/sdk/nRF5_SDK_15.0.0/components/libraries/util/app_error.c.obj
 .debug_str     0x0000000000000000      0x772 CMakeFiles/light_switch_provisioner_nrf52840_xxAA_s140_6.0.0.dir/home/mazzer/work/nordic/sdk/nRF5_SDK_15.0.0/components/libraries/util/app_error.c.obj
 .comment       0x0000000000000000       0x7f CMakeFiles/light_switch_provisioner_nrf52840_xxAA_s140_6.0.0.dir/home/mazzer/work/nordic/sdk/nRF5_SDK_15.0.0/components/libraries/util/app_error.c.obj
 .debug_frame   0x0000000000000000       0x54 CMakeFiles/light_switch_provisioner_nrf52840_xxAA_s140_6.0.0.dir/home/mazzer/work/nordic/sdk/nRF5_SDK_15.0.0/components/libraries/util/app_error.c.obj
 .ARM.attributes
                0x0000000000000000       0x39 CMakeFiles/light_switch_provisioner_nrf52840_xxAA_s140_6.0.0.dir/home/mazzer/work/nordic/sdk/nRF5_SDK_15.0.0/components/libraries/util/app_error.c.obj
 .text          0x0000000000000000        0x0 CMakeFiles/light_switch_provisioner_nrf52840_xxAA_s140_6.0.0.dir/home/mazzer/work/nordic/sdk/nRF5_SDK_15.0.0/components/libraries/util/app_error_handler_gcc.c.obj
 .data          0x0000000000000000        0x0 CMakeFiles/light_switch_provisioner_nrf52840_xxAA_s140_6.0.0.dir/home/mazzer/work/nordic/sdk/nRF5_SDK_15.0.0/components/libraries/util/app_error_handler_gcc.c.obj
 .bss           0x0000000000000000        0x0 CMakeFiles/light_switch_provisioner_nrf52840_xxAA_s140_6.0.0.dir/home/mazzer/work/nordic/sdk/nRF5_SDK_15.0.0/components/libraries/util/app_error_handler_gcc.c.obj
 .text          0x0000000000000000        0x0 ../../../external/rtt/librtt_nrf52840_xxAA.a(SEGGER_RTT.c.obj)
 .data          0x0000000000000000        0x0 ../../../external/rtt/librtt_nrf52840_xxAA.a(SEGGER_RTT.c.obj)
 .bss           0x0000000000000000        0x0 ../../../external/rtt/librtt_nrf52840_xxAA.a(SEGGER_RTT.c.obj)
 .text.SEGGER_RTT_ReadNoLock
                0x0000000000000000       0xfc ../../../external/rtt/librtt_nrf52840_xxAA.a(SEGGER_RTT.c.obj)
 .text.SEGGER_RTT_Read
                0x0000000000000000      0x118 ../../../external/rtt/librtt_nrf52840_xxAA.a(SEGGER_RTT.c.obj)
 .text.SEGGER_RTT_WriteSkipNoLock
                0x0000000000000000      0x1a8 ../../../external/rtt/librtt_nrf52840_xxAA.a(SEGGER_RTT.c.obj)
 .text.SEGGER_RTT_WriteNoLock
                0x0000000000000000      0x168 ../../../external/rtt/librtt_nrf52840_xxAA.a(SEGGER_RTT.c.obj)
 .text.SEGGER_RTT_WriteString
                0x0000000000000000      0x1f8 ../../../external/rtt/librtt_nrf52840_xxAA.a(SEGGER_RTT.c.obj)
 .text.SEGGER_RTT_WaitKey
                0x0000000000000000       0xfc ../../../external/rtt/librtt_nrf52840_xxAA.a(SEGGER_RTT.c.obj)
 .text.SEGGER_RTT_HasKey
                0x0000000000000000       0x6c ../../../external/rtt/librtt_nrf52840_xxAA.a(SEGGER_RTT.c.obj)
 .text.SEGGER_RTT_HasData
                0x0000000000000000       0x18 ../../../external/rtt/librtt_nrf52840_xxAA.a(SEGGER_RTT.c.obj)
 .text.SEGGER_RTT_AllocDownBuffer
                0x0000000000000000       0xb8 ../../../external/rtt/librtt_nrf52840_xxAA.a(SEGGER_RTT.c.obj)
 .text.SEGGER_RTT_AllocUpBuffer
                0x0000000000000000       0xd4 ../../../external/rtt/librtt_nrf52840_xxAA.a(SEGGER_RTT.c.obj)
 .text.SEGGER_RTT_ConfigUpBuffer
                0x0000000000000000       0xd0 ../../../external/rtt/librtt_nrf52840_xxAA.a(SEGGER_RTT.c.obj)
 .text.SEGGER_RTT_ConfigDownBuffer
                0x0000000000000000       0xb4 ../../../external/rtt/librtt_nrf52840_xxAA.a(SEGGER_RTT.c.obj)
 .text.SEGGER_RTT_SetNameUpBuffer
                0x0000000000000000       0x90 ../../../external/rtt/librtt_nrf52840_xxAA.a(SEGGER_RTT.c.obj)
 .text.SEGGER_RTT_SetNameDownBuffer
                0x0000000000000000       0x90 ../../../external/rtt/librtt_nrf52840_xxAA.a(SEGGER_RTT.c.obj)
 .text.SEGGER_RTT_Init
                0x0000000000000000       0x64 ../../../external/rtt/librtt_nrf52840_xxAA.a(SEGGER_RTT.c.obj)
 .text.SEGGER_RTT_SetTerminal
                0x0000000000000000      0x16c ../../../external/rtt/librtt_nrf52840_xxAA.a(SEGGER_RTT.c.obj)
 .text.SEGGER_RTT_TerminalOut
                0x0000000000000000      0x4d8 ../../../external/rtt/librtt_nrf52840_xxAA.a(SEGGER_RTT.c.obj)
 .bss._ActiveTerminal
                0x0000000000000000        0x1 ../../../external/rtt/librtt_nrf52840_xxAA.a(SEGGER_RTT.c.obj)
 .rodata._aTerminalId
                0x0000000000000000       0x10 ../../../external/rtt/librtt_nrf52840_xxAA.a(SEGGER_RTT.c.obj)
 .text          0x0000000000000000        0x0 ../../../external/rtt/librtt_nrf52840_xxAA.a(SEGGER_RTT_printf.c.obj)
 .data          0x0000000000000000        0x0 ../../../external/rtt/librtt_nrf52840_xxAA.a(SEGGER_RTT_printf.c.obj)
 .bss           0x0000000000000000        0x0 ../../../external/rtt/librtt_nrf52840_xxAA.a(SEGGER_RTT_printf.c.obj)
 .text          0x0000000000000000        0x0 ../../../external/micro-ecc/libuECC_nrf52840_xxAA.a(uECC.c.obj)
 .data          0x0000000000000000        0x0 ../../../external/micro-ecc/libuECC_nrf52840_xxAA.a(uECC.c.obj)
 .bss           0x0000000000000000        0x0 ../../../external/micro-ecc/libuECC_nrf52840_xxAA.a(uECC.c.obj)
 .text.HMAC_finish
                0x0000000000000000       0x70 ../../../external/micro-ecc/libuECC_nrf52840_xxAA.a(uECC.c.obj)
 .text.uECC_vli_mmod
                0x0000000000000000      0x418 ../../../external/micro-ecc/libuECC_nrf52840_xxAA.a(uECC.c.obj)
 .text.uECC_vli_modSub.isra.2
                0x0000000000000000       0x98 ../../../external/micro-ecc/libuECC_nrf52840_xxAA.a(uECC.c.obj)
 .text.bits2int
                0x0000000000000000      0x160 ../../../external/micro-ecc/libuECC_nrf52840_xxAA.a(uECC.c.obj)
 .text.uECC_sign_with_k
                0x0000000000000000      0x630 ../../../external/micro-ecc/libuECC_nrf52840_xxAA.a(uECC.c.obj)
 .text.uECC_set_rng
                0x0000000000000000        0xc ../../../external/micro-ecc/libuECC_nrf52840_xxAA.a(uECC.c.obj)
 .text.uECC_get_rng
                0x0000000000000000        0xc ../../../external/micro-ecc/libuECC_nrf52840_xxAA.a(uECC.c.obj)
 .text.uECC_curve_private_key_size
                0x0000000000000000       0x10 ../../../external/micro-ecc/libuECC_nrf52840_xxAA.a(uECC.c.obj)
 .text.uECC_curve_public_key_size
                0x0000000000000000        0x8 ../../../external/micro-ecc/libuECC_nrf52840_xxAA.a(uECC.c.obj)
 .text.uECC_valid_point
                0x0000000000000000      0x154 ../../../external/micro-ecc/libuECC_nrf52840_xxAA.a(uECC.c.obj)
 .text.uECC_compute_public_key
                0x0000000000000000      0x2e8 ../../../external/micro-ecc/libuECC_nrf52840_xxAA.a(uECC.c.obj)
 .text.uECC_sign
                0x0000000000000000       0x5c ../../../external/micro-ecc/libuECC_nrf52840_xxAA.a(uECC.c.obj)
 .text.uECC_sign_deterministic
                0x0000000000000000      0x414 ../../../external/micro-ecc/libuECC_nrf52840_xxAA.a(uECC.c.obj)
 .text.uECC_verify
                0x0000000000000000      0x960 ../../../external/micro-ecc/libuECC_nrf52840_xxAA.a(uECC.c.obj)
 .text          0x0000000000000000       0xa0 /usr/bin/../lib/gcc/arm-none-eabi/7.2.1/thumb/v7e-m/fpv4-sp/hard/libgcc.a(_aeabi_ldivmod.o)
 .data          0x0000000000000000        0x0 /usr/bin/../lib/gcc/arm-none-eabi/7.2.1/thumb/v7e-m/fpv4-sp/hard/libgcc.a(_aeabi_ldivmod.o)
 .bss           0x0000000000000000        0x0 /usr/bin/../lib/gcc/arm-none-eabi/7.2.1/thumb/v7e-m/fpv4-sp/hard/libgcc.a(_aeabi_ldivmod.o)
 .debug_frame   0x0000000000000000       0x44 /usr/bin/../lib/gcc/arm-none-eabi/7.2.1/thumb/v7e-m/fpv4-sp/hard/libgcc.a(_aeabi_ldivmod.o)
 .ARM.attributes
                0x0000000000000000       0x22 /usr/bin/../lib/gcc/arm-none-eabi/7.2.1/thumb/v7e-m/fpv4-sp/hard/libgcc.a(_aeabi_ldivmod.o)
 .data          0x0000000000000000        0x0 /usr/bin/../lib/gcc/arm-none-eabi/7.2.1/thumb/v7e-m/fpv4-sp/hard/libgcc.a(_aeabi_uldivmod.o)
 .bss           0x0000000000000000        0x0 /usr/bin/../lib/gcc/arm-none-eabi/7.2.1/thumb/v7e-m/fpv4-sp/hard/libgcc.a(_aeabi_uldivmod.o)
 .data          0x0000000000000000        0x0 /usr/bin/../lib/gcc/arm-none-eabi/7.2.1/thumb/v7e-m/fpv4-sp/hard/libgcc.a(_udivmoddi4.o)
 .bss           0x0000000000000000        0x0 /usr/bin/../lib/gcc/arm-none-eabi/7.2.1/thumb/v7e-m/fpv4-sp/hard/libgcc.a(_udivmoddi4.o)
 .ARM.extab     0x0000000000000000        0x0 /usr/bin/../lib/gcc/arm-none-eabi/7.2.1/thumb/v7e-m/fpv4-sp/hard/libgcc.a(_udivmoddi4.o)
 .data          0x0000000000000000        0x0 /usr/bin/../lib/gcc/arm-none-eabi/7.2.1/thumb/v7e-m/fpv4-sp/hard/libgcc.a(_dvmd_tls.o)
 .bss           0x0000000000000000        0x0 /usr/bin/../lib/gcc/arm-none-eabi/7.2.1/thumb/v7e-m/fpv4-sp/hard/libgcc.a(_dvmd_tls.o)
 .text          0x0000000000000000        0x0 /usr/bin/../lib/gcc/arm-none-eabi/7.2.1/../../../../arm-none-eabi/lib/thumb/v7e-m/fpv4-sp/hard/libg_nano.a(lib_a-exit.o)
 .data          0x0000000000000000        0x0 /usr/bin/../lib/gcc/arm-none-eabi/7.2.1/../../../../arm-none-eabi/lib/thumb/v7e-m/fpv4-sp/hard/libg_nano.a(lib_a-exit.o)
 .bss           0x0000000000000000        0x0 /usr/bin/../lib/gcc/arm-none-eabi/7.2.1/../../../../arm-none-eabi/lib/thumb/v7e-m/fpv4-sp/hard/libg_nano.a(lib_a-exit.o)
 .text          0x0000000000000000        0x0 /usr/bin/../lib/gcc/arm-none-eabi/7.2.1/../../../../arm-none-eabi/lib/thumb/v7e-m/fpv4-sp/hard/libg_nano.a(lib_a-impure.o)
 .data          0x0000000000000000        0x0 /usr/bin/../lib/gcc/arm-none-eabi/7.2.1/../../../../arm-none-eabi/lib/thumb/v7e-m/fpv4-sp/hard/libg_nano.a(lib_a-impure.o)
 .bss           0x0000000000000000        0x0 /usr/bin/../lib/gcc/arm-none-eabi/7.2.1/../../../../arm-none-eabi/lib/thumb/v7e-m/fpv4-sp/hard/libg_nano.a(lib_a-impure.o)
 .text          0x0000000000000000        0x0 /usr/bin/../lib/gcc/arm-none-eabi/7.2.1/../../../../arm-none-eabi/lib/thumb/v7e-m/fpv4-sp/hard/libg_nano.a(lib_a-init.o)
 .data          0x0000000000000000        0x0 /usr/bin/../lib/gcc/arm-none-eabi/7.2.1/../../../../arm-none-eabi/lib/thumb/v7e-m/fpv4-sp/hard/libg_nano.a(lib_a-init.o)
 .bss           0x0000000000000000        0x0 /usr/bin/../lib/gcc/arm-none-eabi/7.2.1/../../../../arm-none-eabi/lib/thumb/v7e-m/fpv4-sp/hard/libg_nano.a(lib_a-init.o)
 .text          0x0000000000000000        0x0 /usr/bin/../lib/gcc/arm-none-eabi/7.2.1/../../../../arm-none-eabi/lib/thumb/v7e-m/fpv4-sp/hard/libg_nano.a(lib_a-malloc.o)
 .data          0x0000000000000000        0x0 /usr/bin/../lib/gcc/arm-none-eabi/7.2.1/../../../../arm-none-eabi/lib/thumb/v7e-m/fpv4-sp/hard/libg_nano.a(lib_a-malloc.o)
 .bss           0x0000000000000000        0x0 /usr/bin/../lib/gcc/arm-none-eabi/7.2.1/../../../../arm-none-eabi/lib/thumb/v7e-m/fpv4-sp/hard/libg_nano.a(lib_a-malloc.o)
 .text          0x0000000000000000        0x0 /usr/bin/../lib/gcc/arm-none-eabi/7.2.1/../../../../arm-none-eabi/lib/thumb/v7e-m/fpv4-sp/hard/libg_nano.a(lib_a-memcmp.o)
 .data          0x0000000000000000        0x0 /usr/bin/../lib/gcc/arm-none-eabi/7.2.1/../../../../arm-none-eabi/lib/thumb/v7e-m/fpv4-sp/hard/libg_nano.a(lib_a-memcmp.o)
 .bss           0x0000000000000000        0x0 /usr/bin/../lib/gcc/arm-none-eabi/7.2.1/../../../../arm-none-eabi/lib/thumb/v7e-m/fpv4-sp/hard/libg_nano.a(lib_a-memcmp.o)
 .text          0x0000000000000000        0x0 /usr/bin/../lib/gcc/arm-none-eabi/7.2.1/../../../../arm-none-eabi/lib/thumb/v7e-m/fpv4-sp/hard/libg_nano.a(lib_a-memcpy-stub.o)
 .data          0x0000000000000000        0x0 /usr/bin/../lib/gcc/arm-none-eabi/7.2.1/../../../../arm-none-eabi/lib/thumb/v7e-m/fpv4-sp/hard/libg_nano.a(lib_a-memcpy-stub.o)
 .bss           0x0000000000000000        0x0 /usr/bin/../lib/gcc/arm-none-eabi/7.2.1/../../../../arm-none-eabi/lib/thumb/v7e-m/fpv4-sp/hard/libg_nano.a(lib_a-memcpy-stub.o)
 .text          0x0000000000000000        0x0 /usr/bin/../lib/gcc/arm-none-eabi/7.2.1/../../../../arm-none-eabi/lib/thumb/v7e-m/fpv4-sp/hard/libg_nano.a(lib_a-memset.o)
 .data          0x0000000000000000        0x0 /usr/bin/../lib/gcc/arm-none-eabi/7.2.1/../../../../arm-none-eabi/lib/thumb/v7e-m/fpv4-sp/hard/libg_nano.a(lib_a-memset.o)
 .bss           0x0000000000000000        0x0 /usr/bin/../lib/gcc/arm-none-eabi/7.2.1/../../../../arm-none-eabi/lib/thumb/v7e-m/fpv4-sp/hard/libg_nano.a(lib_a-memset.o)
 .text          0x0000000000000000        0x0 /usr/bin/../lib/gcc/arm-none-eabi/7.2.1/../../../../arm-none-eabi/lib/thumb/v7e-m/fpv4-sp/hard/libg_nano.a(lib_a-nano-freer.o)
 .data          0x0000000000000000        0x0 /usr/bin/../lib/gcc/arm-none-eabi/7.2.1/../../../../arm-none-eabi/lib/thumb/v7e-m/fpv4-sp/hard/libg_nano.a(lib_a-nano-freer.o)
 .bss           0x0000000000000000        0x0 /usr/bin/../lib/gcc/arm-none-eabi/7.2.1/../../../../arm-none-eabi/lib/thumb/v7e-m/fpv4-sp/hard/libg_nano.a(lib_a-nano-freer.o)
 .text          0x0000000000000000        0x0 /usr/bin/../lib/gcc/arm-none-eabi/7.2.1/../../../../arm-none-eabi/lib/thumb/v7e-m/fpv4-sp/hard/libg_nano.a(lib_a-nano-mallocr.o)
 .data          0x0000000000000000        0x0 /usr/bin/../lib/gcc/arm-none-eabi/7.2.1/../../../../arm-none-eabi/lib/thumb/v7e-m/fpv4-sp/hard/libg_nano.a(lib_a-nano-mallocr.o)
 .bss           0x0000000000000000        0x0 /usr/bin/../lib/gcc/arm-none-eabi/7.2.1/../../../../arm-none-eabi/lib/thumb/v7e-m/fpv4-sp/hard/libg_nano.a(lib_a-nano-mallocr.o)
 .text          0x0000000000000000        0x0 /usr/bin/../lib/gcc/arm-none-eabi/7.2.1/../../../../arm-none-eabi/lib/thumb/v7e-m/fpv4-sp/hard/libg_nano.a(lib_a-sbrkr.o)
 .data          0x0000000000000000        0x0 /usr/bin/../lib/gcc/arm-none-eabi/7.2.1/../../../../arm-none-eabi/lib/thumb/v7e-m/fpv4-sp/hard/libg_nano.a(lib_a-sbrkr.o)
 .bss           0x0000000000000000        0x0 /usr/bin/../lib/gcc/arm-none-eabi/7.2.1/../../../../arm-none-eabi/lib/thumb/v7e-m/fpv4-sp/hard/libg_nano.a(lib_a-sbrkr.o)
 .text          0x0000000000000000        0x0 /usr/bin/../lib/gcc/arm-none-eabi/7.2.1/../../../../arm-none-eabi/lib/thumb/v7e-m/fpv4-sp/hard/libg_nano.a(lib_a-strcpy.o)
 .data          0x0000000000000000        0x0 /usr/bin/../lib/gcc/arm-none-eabi/7.2.1/../../../../arm-none-eabi/lib/thumb/v7e-m/fpv4-sp/hard/libg_nano.a(lib_a-strcpy.o)
 .bss           0x0000000000000000        0x0 /usr/bin/../lib/gcc/arm-none-eabi/7.2.1/../../../../arm-none-eabi/lib/thumb/v7e-m/fpv4-sp/hard/libg_nano.a(lib_a-strcpy.o)
 .data          0x0000000000000000        0x0 /usr/bin/../lib/gcc/arm-none-eabi/7.2.1/../../../../arm-none-eabi/lib/thumb/v7e-m/fpv4-sp/hard/libg_nano.a(lib_a-strlen.o)
 .bss           0x0000000000000000        0x0 /usr/bin/../lib/gcc/arm-none-eabi/7.2.1/../../../../arm-none-eabi/lib/thumb/v7e-m/fpv4-sp/hard/libg_nano.a(lib_a-strlen.o)
 .text          0x0000000000000000        0x0 /usr/bin/../lib/gcc/arm-none-eabi/7.2.1/../../../../arm-none-eabi/lib/thumb/v7e-m/fpv4-sp/hard/libg_nano.a(lib_a-strrchr.o)
 .data          0x0000000000000000        0x0 /usr/bin/../lib/gcc/arm-none-eabi/7.2.1/../../../../arm-none-eabi/lib/thumb/v7e-m/fpv4-sp/hard/libg_nano.a(lib_a-strrchr.o)
 .bss           0x0000000000000000        0x0 /usr/bin/../lib/gcc/arm-none-eabi/7.2.1/../../../../arm-none-eabi/lib/thumb/v7e-m/fpv4-sp/hard/libg_nano.a(lib_a-strrchr.o)
 .text          0x0000000000000000        0x0 /usr/bin/../lib/gcc/arm-none-eabi/7.2.1/../../../../arm-none-eabi/lib/thumb/v7e-m/fpv4-sp/hard/libg_nano.a(lib_a-mlock.o)
 .data          0x0000000000000000        0x0 /usr/bin/../lib/gcc/arm-none-eabi/7.2.1/../../../../arm-none-eabi/lib/thumb/v7e-m/fpv4-sp/hard/libg_nano.a(lib_a-mlock.o)
 .bss           0x0000000000000000        0x0 /usr/bin/../lib/gcc/arm-none-eabi/7.2.1/../../../../arm-none-eabi/lib/thumb/v7e-m/fpv4-sp/hard/libg_nano.a(lib_a-mlock.o)
 .text          0x0000000000000000        0x0 /usr/bin/../lib/gcc/arm-none-eabi/7.2.1/../../../../arm-none-eabi/lib/thumb/v7e-m/fpv4-sp/hard/libg_nano.a(lib_a-reent.o)
 .data          0x0000000000000000        0x0 /usr/bin/../lib/gcc/arm-none-eabi/7.2.1/../../../../arm-none-eabi/lib/thumb/v7e-m/fpv4-sp/hard/libg_nano.a(lib_a-reent.o)
 .bss           0x0000000000000000        0x0 /usr/bin/../lib/gcc/arm-none-eabi/7.2.1/../../../../arm-none-eabi/lib/thumb/v7e-m/fpv4-sp/hard/libg_nano.a(lib_a-reent.o)
 .text.cleanup_glue
                0x0000000000000000       0x1a /usr/bin/../lib/gcc/arm-none-eabi/7.2.1/../../../../arm-none-eabi/lib/thumb/v7e-m/fpv4-sp/hard/libg_nano.a(lib_a-reent.o)
 .text._reclaim_reent
                0x0000000000000000       0xb8 /usr/bin/../lib/gcc/arm-none-eabi/7.2.1/../../../../arm-none-eabi/lib/thumb/v7e-m/fpv4-sp/hard/libg_nano.a(lib_a-reent.o)
 .text          0x0000000000000000        0x0 /usr/bin/../lib/gcc/arm-none-eabi/7.2.1/../../../../arm-none-eabi/lib/thumb/v7e-m/fpv4-sp/hard/libg_nano.a(lib_a-strchr.o)
 .data          0x0000000000000000        0x0 /usr/bin/../lib/gcc/arm-none-eabi/7.2.1/../../../../arm-none-eabi/lib/thumb/v7e-m/fpv4-sp/hard/libg_nano.a(lib_a-strchr.o)
 .bss           0x0000000000000000        0x0 /usr/bin/../lib/gcc/arm-none-eabi/7.2.1/../../../../arm-none-eabi/lib/thumb/v7e-m/fpv4-sp/hard/libg_nano.a(lib_a-strchr.o)
 .text          0x0000000000000000        0x0 /usr/bin/../lib/gcc/arm-none-eabi/7.2.1/thumb/v7e-m/fpv4-sp/hard/crtend.o
 .data          0x0000000000000000        0x0 /usr/bin/../lib/gcc/arm-none-eabi/7.2.1/thumb/v7e-m/fpv4-sp/hard/crtend.o
 .bss           0x0000000000000000        0x0 /usr/bin/../lib/gcc/arm-none-eabi/7.2.1/thumb/v7e-m/fpv4-sp/hard/crtend.o
 .text          0x0000000000000000        0x0 /usr/bin/../lib/gcc/arm-none-eabi/7.2.1/thumb/v7e-m/fpv4-sp/hard/crtn.o
 .data          0x0000000000000000        0x0 /usr/bin/../lib/gcc/arm-none-eabi/7.2.1/thumb/v7e-m/fpv4-sp/hard/crtn.o
 .bss           0x0000000000000000        0x0 /usr/bin/../lib/gcc/arm-none-eabi/7.2.1/thumb/v7e-m/fpv4-sp/hard/crtn.o
 .text          0x0000000000000000        0x0 /usr/bin/../lib/gcc/arm-none-eabi/7.2.1/../../../../arm-none-eabi/lib/thumb/v7e-m/fpv4-sp/hard/libnosys.a(sbrk.o)
 .data          0x0000000000000000        0x0 /usr/bin/../lib/gcc/arm-none-eabi/7.2.1/../../../../arm-none-eabi/lib/thumb/v7e-m/fpv4-sp/hard/libnosys.a(sbrk.o)
 .bss           0x0000000000000000        0x0 /usr/bin/../lib/gcc/arm-none-eabi/7.2.1/../../../../arm-none-eabi/lib/thumb/v7e-m/fpv4-sp/hard/libnosys.a(sbrk.o)
 .text          0x0000000000000000        0x0 /usr/bin/../lib/gcc/arm-none-eabi/7.2.1/../../../../arm-none-eabi/lib/thumb/v7e-m/fpv4-sp/hard/libnosys.a(_exit.o)
 .data          0x0000000000000000        0x0 /usr/bin/../lib/gcc/arm-none-eabi/7.2.1/../../../../arm-none-eabi/lib/thumb/v7e-m/fpv4-sp/hard/libnosys.a(_exit.o)
 .bss           0x0000000000000000        0x0 /usr/bin/../lib/gcc/arm-none-eabi/7.2.1/../../../../arm-none-eabi/lib/thumb/v7e-m/fpv4-sp/hard/libnosys.a(_exit.o)

Memory Configuration

Name             Origin             Length             Attributes
FLASH            0x0000000000026000 0x00000000000d1000 xr
RAM              0x00000000200032c8 0x000000000003ca38 xrw
*default*        0x0000000000000000 0xffffffffffffffff

Linker script and memory map


.text           0x0000000000026000    0x21148
 *(.isr_vector)
 .isr_vector    0x0000000000026000      0x200 CMakeFiles/light_switch_provisioner_nrf52840_xxAA_s140_6.0.0.dir/home/mazzer/work/nordic/sdk/nRF5_SDK_15.0.0/modules/nrfx/mdk/gcc_startup_nrf52840.S.obj
                0x0000000000026000                __isr_vector
 *(.text*)
 .text          0x0000000000026200       0x40 /usr/bin/../lib/gcc/arm-none-eabi/7.2.1/thumb/v7e-m/fpv4-sp/hard/crtbegin.o
 .text          0x0000000000026240       0x74 /usr/bin/../lib/gcc/arm-none-eabi/7.2.1/../../../../arm-none-eabi/lib/thumb/v7e-m/fpv4-sp/hard/crt0.o
                0x0000000000026240                _mainCRTStartup
                0x0000000000026240                _start
 .text.sd_app_evt_wait
                0x00000000000262b4        0x4 CMakeFiles/light_switch_provisioner_nrf52840_xxAA_s140_6.0.0.dir/src/main.c.obj
 .text.flash_manager_mem_available
                0x00000000000262b8        0x4 CMakeFiles/light_switch_provisioner_nrf52840_xxAA_s140_6.0.0.dir/src/main.c.obj
 .text.flash_invalidate_complete
                0x00000000000262bc       0x10 CMakeFiles/light_switch_provisioner_nrf52840_xxAA_s140_6.0.0.dir/src/main.c.obj
 .text.models_init_cb
                0x00000000000262cc       0xc0 CMakeFiles/light_switch_provisioner_nrf52840_xxAA_s140_6.0.0.dir/src/main.c.obj
                0x00000000000262cc                models_init_cb
 .text.app_config_client_event_cb
                0x000000000002638c       0x84 CMakeFiles/light_switch_provisioner_nrf52840_xxAA_s140_6.0.0.dir/src/main.c.obj
 .text.app_config_failed_cb
                0x0000000000026410       0x90 CMakeFiles/light_switch_provisioner_nrf52840_xxAA_s140_6.0.0.dir/src/main.c.obj
 .text.app_prov_failed_cb
                0x00000000000264a0       0x84 CMakeFiles/light_switch_provisioner_nrf52840_xxAA_s140_6.0.0.dir/src/main.c.obj
 .text.app_prov_success_cb
                0x0000000000026524       0x84 CMakeFiles/light_switch_provisioner_nrf52840_xxAA_s140_6.0.0.dir/src/main.c.obj
 .text.clear_app_data
                0x00000000000265a8       0x2c CMakeFiles/light_switch_provisioner_nrf52840_xxAA_s140_6.0.0.dir/src/main.c.obj
 .text.store_app_data
                0x00000000000265d4       0x3c CMakeFiles/light_switch_provisioner_nrf52840_xxAA_s140_6.0.0.dir/src/main.c.obj
 .text.app_mesh_core_event_cb
                0x0000000000026610      0x7d8 CMakeFiles/light_switch_provisioner_nrf52840_xxAA_s140_6.0.0.dir/src/main.c.obj
 .text.app_config_server_event_cb
                0x0000000000026de8       0x88 CMakeFiles/light_switch_provisioner_nrf52840_xxAA_s140_6.0.0.dir/src/main.c.obj
 .text.flash_write_complete
                0x0000000000026e70       0x98 CMakeFiles/light_switch_provisioner_nrf52840_xxAA_s140_6.0.0.dir/src/main.c.obj
 .text.app_health_event_cb
                0x0000000000026f08       0x90 CMakeFiles/light_switch_provisioner_nrf52840_xxAA_s140_6.0.0.dir/src/main.c.obj
 .text.flash_remove_complete
                0x0000000000026f98       0x70 CMakeFiles/light_switch_provisioner_nrf52840_xxAA_s140_6.0.0.dir/src/main.c.obj
 .text.app_flash_manager_add
                0x0000000000027008       0xb8 CMakeFiles/light_switch_provisioner_nrf52840_xxAA_s140_6.0.0.dir/src/main.c.obj
 .text.button_event_handler
                0x00000000000270c0      0x368 CMakeFiles/light_switch_provisioner_nrf52840_xxAA_s140_6.0.0.dir/src/main.c.obj
 .text.app_data_store_cb
                0x0000000000027428       0x3c CMakeFiles/light_switch_provisioner_nrf52840_xxAA_s140_6.0.0.dir/src/main.c.obj
 .text.app_config_successful_cb
                0x0000000000027464      0x154 CMakeFiles/light_switch_provisioner_nrf52840_xxAA_s140_6.0.0.dir/src/main.c.obj
 .text.app_rtt_input_handler
                0x00000000000275b8      0x368 CMakeFiles/light_switch_provisioner_nrf52840_xxAA_s140_6.0.0.dir/src/main.c.obj
 .text.app_default_models_bind_setup
                0x0000000000027920       0x50 CMakeFiles/light_switch_provisioner_nrf52840_xxAA_s140_6.0.0.dir/src/main.c.obj
                0x0000000000027920                app_default_models_bind_setup
 .text.startup.main
                0x0000000000027970      0x3d8 CMakeFiles/light_switch_provisioner_nrf52840_xxAA_s140_6.0.0.dir/src/main.c.obj
                0x0000000000027970                main
 .text.mesh_stack_init
                0x0000000000027d48       0x90 CMakeFiles/light_switch_provisioner_nrf52840_xxAA_s140_6.0.0.dir/__/__/__/mesh/stack/src/mesh_stack.c.obj
                0x0000000000027d48                mesh_stack_init
 .text.mesh_stack_config_clear
                0x0000000000027dd8       0x14 CMakeFiles/light_switch_provisioner_nrf52840_xxAA_s140_6.0.0.dir/__/__/__/mesh/stack/src/mesh_stack.c.obj
                0x0000000000027dd8                mesh_stack_config_clear
 .text.prov_evt_handler
                0x0000000000027dec      0xa2c CMakeFiles/light_switch_provisioner_nrf52840_xxAA_s140_6.0.0.dir/src/provisioner_helper.c.obj
 .text.prov_helper_provision_next_device
                0x0000000000028818       0xc8 CMakeFiles/light_switch_provisioner_nrf52840_xxAA_s140_6.0.0.dir/src/provisioner_helper.c.obj
                0x0000000000028818                prov_helper_provision_next_device
 .text.prov_helper_scan_start
                0x00000000000288e0       0x90 CMakeFiles/light_switch_provisioner_nrf52840_xxAA_s140_6.0.0.dir/src/provisioner_helper.c.obj
                0x00000000000288e0                prov_helper_scan_start
 .text.prov_helper_device_handles_load
                0x0000000000028970       0xec CMakeFiles/light_switch_provisioner_nrf52840_xxAA_s140_6.0.0.dir/src/provisioner_helper.c.obj
                0x0000000000028970                prov_helper_device_handles_load
 .text.prov_helper_init
                0x0000000000028a5c       0x54 CMakeFiles/light_switch_provisioner_nrf52840_xxAA_s140_6.0.0.dir/src/provisioner_helper.c.obj
                0x0000000000028a5c                prov_helper_init
 .text.prov_helper_provision_self
                0x0000000000028ab0      0x110 CMakeFiles/light_switch_provisioner_nrf52840_xxAA_s140_6.0.0.dir/src/provisioner_helper.c.obj
                0x0000000000028ab0                prov_helper_provision_self
 .text.client_pub_state_set
                0x0000000000028bc0       0xb8 CMakeFiles/light_switch_provisioner_nrf52840_xxAA_s140_6.0.0.dir/src/node_setup.c.obj
 .text.retry_on_fail
                0x0000000000028c78       0xb8 CMakeFiles/light_switch_provisioner_nrf52840_xxAA_s140_6.0.0.dir/src/node_setup.c.obj
 .text.config_step_execute
                0x0000000000028d30      0x674 CMakeFiles/light_switch_provisioner_nrf52840_xxAA_s140_6.0.0.dir/src/node_setup.c.obj
 .text.client_send_timer_cb
                0x00000000000293a4       0x14 CMakeFiles/light_switch_provisioner_nrf52840_xxAA_s140_6.0.0.dir/src/node_setup.c.obj
 .text.node_setup_config_client_event_process
                0x00000000000293b8      0x33c CMakeFiles/light_switch_provisioner_nrf52840_xxAA_s140_6.0.0.dir/src/node_setup.c.obj
                0x00000000000293b8                node_setup_config_client_event_process
 .text.node_setup_start
                0x00000000000296f4      0x254 CMakeFiles/light_switch_provisioner_nrf52840_xxAA_s140_6.0.0.dir/src/node_setup.c.obj
                0x00000000000296f4                node_setup_start
 .text.node_setup_cb_set
                0x0000000000029948       0x30 CMakeFiles/light_switch_provisioner_nrf52840_xxAA_s140_6.0.0.dir/src/node_setup.c.obj
                0x0000000000029948                node_setup_cb_set
 .text.sd_evt_get
                0x0000000000029978        0x4 CMakeFiles/light_switch_provisioner_nrf52840_xxAA_s140_6.0.0.dir/__/__/common/src/mesh_softdevice_init.c.obj
 .text.sd_softdevice_enable
                0x000000000002997c        0x4 CMakeFiles/light_switch_provisioner_nrf52840_xxAA_s140_6.0.0.dir/__/__/common/src/mesh_softdevice_init.c.obj
 .text.sd_ble_enable
                0x0000000000029980        0x4 CMakeFiles/light_switch_provisioner_nrf52840_xxAA_s140_6.0.0.dir/__/__/common/src/mesh_softdevice_init.c.obj
 .text.SWI2_EGU2_IRQHandler
                0x0000000000029984       0x1c CMakeFiles/light_switch_provisioner_nrf52840_xxAA_s140_6.0.0.dir/__/__/common/src/mesh_softdevice_init.c.obj
                0x0000000000029984                SWI2_EGU2_IRQHandler
 .text.mesh_softdevice_init
                0x00000000000299a0      0x1f8 CMakeFiles/light_switch_provisioner_nrf52840_xxAA_s140_6.0.0.dir/__/__/common/src/mesh_softdevice_init.c.obj
                0x00000000000299a0                mesh_softdevice_init
 .text.TIMER2_IRQHandler
                0x0000000000029b98       0x3c CMakeFiles/light_switch_provisioner_nrf52840_xxAA_s140_6.0.0.dir/__/__/common/src/rtt_input.c.obj
                0x0000000000029b98                TIMER2_IRQHandler
 .text.rtt_input_enable
                0x0000000000029bd4       0x5c CMakeFiles/light_switch_provisioner_nrf52840_xxAA_s140_6.0.0.dir/__/__/common/src/rtt_input.c.obj
                0x0000000000029bd4                rtt_input_enable
 .text.hal_led_pin_set
                0x0000000000029c30       0x18 CMakeFiles/light_switch_provisioner_nrf52840_xxAA_s140_6.0.0.dir/__/__/common/src/simple_hal.c.obj
                0x0000000000029c30                hal_led_pin_set
 .text.hal_led_mask_set
                0x0000000000029c48       0x14 CMakeFiles/light_switch_provisioner_nrf52840_xxAA_s140_6.0.0.dir/__/__/common/src/simple_hal.c.obj
                0x0000000000029c48                hal_led_mask_set
 .text.hal_led_blink_ms
                0x0000000000029c5c       0x50 CMakeFiles/light_switch_provisioner_nrf52840_xxAA_s140_6.0.0.dir/__/__/common/src/simple_hal.c.obj
                0x0000000000029c5c                hal_led_blink_ms
 .text.hal_leds_init
                0x0000000000029cac       0x3c CMakeFiles/light_switch_provisioner_nrf52840_xxAA_s140_6.0.0.dir/__/__/common/src/simple_hal.c.obj
                0x0000000000029cac                hal_leds_init
 .text.hal_buttons_init
                0x0000000000029ce8       0x54 CMakeFiles/light_switch_provisioner_nrf52840_xxAA_s140_6.0.0.dir/__/__/common/src/simple_hal.c.obj
                0x0000000000029ce8                hal_buttons_init
 .text.GPIOTE_IRQHandler
                0x0000000000029d3c       0x70 CMakeFiles/light_switch_provisioner_nrf52840_xxAA_s140_6.0.0.dir/__/__/common/src/simple_hal.c.obj
                0x0000000000029d3c                GPIOTE_IRQHandler
 .text._weak_handler
                0x0000000000029dac        0x4 CMakeFiles/light_switch_provisioner_nrf52840_xxAA_s140_6.0.0.dir/__/__/nrf_mesh_weak.c.obj
                0x0000000000029dac                nrf_mesh_dfu_init
                0x0000000000029dac                nrf_mesh_dfu_jump_to_bootloader
                0x0000000000029dac                nrf_mesh_dfu_rx
                0x0000000000029dac                nrf_mesh_dfu_bank_info_get
                0x0000000000029dac                nrf_mesh_dfu_request
                0x0000000000029dac                nrf_mesh_dfu_bank_flash
                0x0000000000029dac                _weak_handler
                0x0000000000029dac                prov_provisionee_auth_data
                0x0000000000029dac                nrf_mesh_dfu_relay
                0x0000000000029dac                prov_provisionee_shared_secret
                0x0000000000029dac                nrf_mesh_dfu_abort
                0x0000000000029dac                mesh_flash_op_execute
                0x0000000000029dac                prov_provisionee_init
                0x0000000000029dac                nrf_mesh_dfu_state_get
                0x0000000000029dac                prov_provisionee_listen
 .text.app_error_fault_handler
                0x0000000000029db0      0x238 CMakeFiles/light_switch_provisioner_nrf52840_xxAA_s140_6.0.0.dir/__/__/common/src/app_error_weak.c.obj
                0x0000000000029db0                app_error_fault_handler
 .text.mesh_assertion_handler
                0x0000000000029fe8       0x24 CMakeFiles/light_switch_provisioner_nrf52840_xxAA_s140_6.0.0.dir/__/__/common/src/assertion_handler_weak.c.obj
                0x0000000000029fe8                mesh_assertion_handler
 .text.nrf_mesh_configure_device_uuid_set
                0x000000000002a00c       0x10 CMakeFiles/light_switch_provisioner_nrf52840_xxAA_s140_6.0.0.dir/__/__/__/mesh/core/src/nrf_mesh_configure.c.obj
                0x000000000002a00c                nrf_mesh_configure_device_uuid_set
 .text.nrf_mesh_configure_device_uuid_reset
                0x000000000002a01c       0x2c CMakeFiles/light_switch_provisioner_nrf52840_xxAA_s140_6.0.0.dir/__/__/__/mesh/core/src/nrf_mesh_configure.c.obj
                0x000000000002a01c                nrf_mesh_configure_device_uuid_reset
 .text.nrf_mesh_configure_device_uuid_get
                0x000000000002a048        0x8 CMakeFiles/light_switch_provisioner_nrf52840_xxAA_s140_6.0.0.dir/__/__/__/mesh/core/src/nrf_mesh_configure.c.obj
                0x000000000002a048                nrf_mesh_configure_device_uuid_get
 .text.sd_ecb_block_encrypt
                0x000000000002a050        0x4 CMakeFiles/light_switch_provisioner_nrf52840_xxAA_s140_6.0.0.dir/__/__/__/mesh/core/src/aes.c.obj
 .text.aes_encrypt
                0x000000000002a054       0x34 CMakeFiles/light_switch_provisioner_nrf52840_xxAA_s140_6.0.0.dir/__/__/__/mesh/core/src/aes.c.obj
                0x000000000002a054                aes_encrypt
 .text.msg_cache_init
                0x000000000002a088       0x24 CMakeFiles/light_switch_provisioner_nrf52840_xxAA_s140_6.0.0.dir/__/__/__/mesh/core/src/msg_cache.c.obj
                0x000000000002a088                msg_cache_init
 .text.msg_cache_entry_exists
                0x000000000002a0ac       0x40 CMakeFiles/light_switch_provisioner_nrf52840_xxAA_s140_6.0.0.dir/__/__/__/mesh/core/src/msg_cache.c.obj
                0x000000000002a0ac                msg_cache_entry_exists
 .text.msg_cache_entry_add
                0x000000000002a0ec       0x2c CMakeFiles/light_switch_provisioner_nrf52840_xxAA_s140_6.0.0.dir/__/__/__/mesh/core/src/msg_cache.c.obj
                0x000000000002a0ec                msg_cache_entry_add
 .text.tx_complete
                0x000000000002a118       0x30 CMakeFiles/light_switch_provisioner_nrf52840_xxAA_s140_6.0.0.dir/__/__/__/mesh/core/src/transport.c.obj
 .text.upper_trs_packet_encrypt
                0x000000000002a148       0xa8 CMakeFiles/light_switch_provisioner_nrf52840_xxAA_s140_6.0.0.dir/__/__/__/mesh/core/src/transport.c.obj
 .text.trs_sar_packet_out
                0x000000000002a1f0      0x19c CMakeFiles/light_switch_provisioner_nrf52840_xxAA_s140_6.0.0.dir/__/__/__/mesh/core/src/transport.c.obj
 .text.upper_transport_access_packet_in
                0x000000000002a38c      0x33c CMakeFiles/light_switch_provisioner_nrf52840_xxAA_s140_6.0.0.dir/__/__/__/mesh/core/src/transport.c.obj
 .text.sar_ctx_cancel
                0x000000000002a6c8      0x148 CMakeFiles/light_switch_provisioner_nrf52840_xxAA_s140_6.0.0.dir/__/__/__/mesh/core/src/transport.c.obj
 .text.retry_timeout
                0x000000000002a810       0x98 CMakeFiles/light_switch_provisioner_nrf52840_xxAA_s140_6.0.0.dir/__/__/__/mesh/core/src/transport.c.obj
 .text.upper_transport_packet_in
                0x000000000002a8a8      0x2a4 CMakeFiles/light_switch_provisioner_nrf52840_xxAA_s140_6.0.0.dir/__/__/__/mesh/core/src/transport.c.obj
 .text.upper_transport_tx.part.27
                0x000000000002ab4c      0x370 CMakeFiles/light_switch_provisioner_nrf52840_xxAA_s140_6.0.0.dir/__/__/__/mesh/core/src/transport.c.obj
 .text.sar_ack_send.part.31
                0x000000000002aebc       0xd4 CMakeFiles/light_switch_provisioner_nrf52840_xxAA_s140_6.0.0.dir/__/__/__/mesh/core/src/transport.c.obj
 .text.transport_sar_process
                0x000000000002af90      0x274 CMakeFiles/light_switch_provisioner_nrf52840_xxAA_s140_6.0.0.dir/__/__/__/mesh/core/src/transport.c.obj
 .text.abort_timeout
                0x000000000002b204      0x138 CMakeFiles/light_switch_provisioner_nrf52840_xxAA_s140_6.0.0.dir/__/__/__/mesh/core/src/transport.c.obj
 .text.ack_timeout
                0x000000000002b33c       0xf8 CMakeFiles/light_switch_provisioner_nrf52840_xxAA_s140_6.0.0.dir/__/__/__/mesh/core/src/transport.c.obj
 .text.transport_init
                0x000000000002b434       0xac CMakeFiles/light_switch_provisioner_nrf52840_xxAA_s140_6.0.0.dir/__/__/__/mesh/core/src/transport.c.obj
                0x000000000002b434                transport_init
 .text.transport_packet_in
                0x000000000002b4e0      0x778 CMakeFiles/light_switch_provisioner_nrf52840_xxAA_s140_6.0.0.dir/__/__/__/mesh/core/src/transport.c.obj
                0x000000000002b4e0                transport_packet_in
 .text.transport_tx
                0x000000000002bc58       0xec CMakeFiles/light_switch_provisioner_nrf52840_xxAA_s140_6.0.0.dir/__/__/__/mesh/core/src/transport.c.obj
                0x000000000002bc58                transport_tx
 .text.transport_control_tx
                0x000000000002bd44       0xc4 CMakeFiles/light_switch_provisioner_nrf52840_xxAA_s140_6.0.0.dir/__/__/__/mesh/core/src/transport.c.obj
                0x000000000002bd44                transport_control_tx
 .text.transport_opt_set
                0x000000000002be08       0xdc CMakeFiles/light_switch_provisioner_nrf52840_xxAA_s140_6.0.0.dir/__/__/__/mesh/core/src/transport.c.obj
                0x000000000002be08                transport_opt_set
 .text.transport_opt_get
                0x000000000002bee4       0x84 CMakeFiles/light_switch_provisioner_nrf52840_xxAA_s140_6.0.0.dir/__/__/__/mesh/core/src/transport.c.obj
                0x000000000002bee4                transport_opt_get
 .text.transport_control_packet_consumer_add
                0x000000000002bf68       0x68 CMakeFiles/light_switch_provisioner_nrf52840_xxAA_s140_6.0.0.dir/__/__/__/mesh/core/src/transport.c.obj
                0x000000000002bf68                transport_control_packet_consumer_add
 .text.event_handle
                0x000000000002bfd0       0x28 CMakeFiles/light_switch_provisioner_nrf52840_xxAA_s140_6.0.0.dir/__/__/__/mesh/core/src/event.c.obj
                0x000000000002bfd0                event_handle
 .text.event_handler_add
                0x000000000002bff8       0x28 CMakeFiles/light_switch_provisioner_nrf52840_xxAA_s140_6.0.0.dir/__/__/__/mesh/core/src/event.c.obj
                0x000000000002bff8                event_handler_add
 .text.event_handler_remove
                0x000000000002c020       0x28 CMakeFiles/light_switch_provisioner_nrf52840_xxAA_s140_6.0.0.dir/__/__/__/mesh/core/src/event.c.obj
                0x000000000002c020                event_handler_remove
 .text.packet_buffer_init
                0x000000000002c048       0xb4 CMakeFiles/light_switch_provisioner_nrf52840_xxAA_s140_6.0.0.dir/__/__/__/mesh/core/src/packet_buffer.c.obj
                0x000000000002c048                packet_buffer_init
 .text.packet_buffer_flush
                0x000000000002c0fc       0x6c CMakeFiles/light_switch_provisioner_nrf52840_xxAA_s140_6.0.0.dir/__/__/__/mesh/core/src/packet_buffer.c.obj
                0x000000000002c0fc                packet_buffer_flush
 .text.packet_buffer_reserve
                0x000000000002c168       0xa4 CMakeFiles/light_switch_provisioner_nrf52840_xxAA_s140_6.0.0.dir/__/__/__/mesh/core/src/packet_buffer.c.obj
                0x000000000002c168                packet_buffer_reserve
 .text.packet_buffer_commit
                0x000000000002c20c       0x7c CMakeFiles/light_switch_provisioner_nrf52840_xxAA_s140_6.0.0.dir/__/__/__/mesh/core/src/packet_buffer.c.obj
                0x000000000002c20c                packet_buffer_commit
 .text.packet_buffer_pop
                0x000000000002c288       0x44 CMakeFiles/light_switch_provisioner_nrf52840_xxAA_s140_6.0.0.dir/__/__/__/mesh/core/src/packet_buffer.c.obj
                0x000000000002c288                packet_buffer_pop
 .text.packet_buffer_can_pop
                0x000000000002c2cc       0x24 CMakeFiles/light_switch_provisioner_nrf52840_xxAA_s140_6.0.0.dir/__/__/__/mesh/core/src/packet_buffer.c.obj
                0x000000000002c2cc                packet_buffer_can_pop
 .text.packet_buffer_packets_ready_to_pop
                0x000000000002c2f0       0x5c CMakeFiles/light_switch_provisioner_nrf52840_xxAA_s140_6.0.0.dir/__/__/__/mesh/core/src/packet_buffer.c.obj
                0x000000000002c2f0                packet_buffer_packets_ready_to_pop
 .text.packet_buffer_free
                0x000000000002c34c       0x8c CMakeFiles/light_switch_provisioner_nrf52840_xxAA_s140_6.0.0.dir/__/__/__/mesh/core/src/packet_buffer.c.obj
                0x000000000002c34c                packet_buffer_free
 .text.erase_source
                0x000000000002c3d8       0x34 CMakeFiles/light_switch_provisioner_nrf52840_xxAA_s140_6.0.0.dir/__/__/__/mesh/core/src/flash_manager_defrag.c.obj
 .text.erase_recovery_area
                0x000000000002c40c       0x34 CMakeFiles/light_switch_provisioner_nrf52840_xxAA_s140_6.0.0.dir/__/__/__/mesh/core/src/flash_manager_defrag.c.obj
 .text.write_back
                0x000000000002c440       0x44 CMakeFiles/light_switch_provisioner_nrf52840_xxAA_s140_6.0.0.dir/__/__/__/mesh/core/src/flash_manager_defrag.c.obj
 .text.write_defrag_start_pointer
                0x000000000002c484       0x38 CMakeFiles/light_switch_provisioner_nrf52840_xxAA_s140_6.0.0.dir/__/__/__/mesh/core/src/flash_manager_defrag.c.obj
 .text.copy_metadata
                0x000000000002c4bc       0x58 CMakeFiles/light_switch_provisioner_nrf52840_xxAA_s140_6.0.0.dir/__/__/__/mesh/core/src/flash_manager_defrag.c.obj
 .text.seal_storage_page
                0x000000000002c514       0x70 CMakeFiles/light_switch_provisioner_nrf52840_xxAA_s140_6.0.0.dir/__/__/__/mesh/core/src/flash_manager_defrag.c.obj
 .text.post_process
                0x000000000002c584       0x64 CMakeFiles/light_switch_provisioner_nrf52840_xxAA_s140_6.0.0.dir/__/__/__/mesh/core/src/flash_manager_defrag.c.obj
 .text.check_for_invalid_entries
                0x000000000002c5e8       0x40 CMakeFiles/light_switch_provisioner_nrf52840_xxAA_s140_6.0.0.dir/__/__/__/mesh/core/src/flash_manager_defrag.c.obj
 .text.execute_procedure_step
                0x000000000002c628       0x98 CMakeFiles/light_switch_provisioner_nrf52840_xxAA_s140_6.0.0.dir/__/__/__/mesh/core/src/flash_manager_defrag.c.obj
 .text.on_flash_op_end
                0x000000000002c6c0       0x48 CMakeFiles/light_switch_provisioner_nrf52840_xxAA_s140_6.0.0.dir/__/__/__/mesh/core/src/flash_manager_defrag.c.obj
 .text.invalidate_duplicate_entries
                0x000000000002c708      0x150 CMakeFiles/light_switch_provisioner_nrf52840_xxAA_s140_6.0.0.dir/__/__/__/mesh/core/src/flash_manager_defrag.c.obj
 .text.backup_entries
                0x000000000002c858      0x1c8 CMakeFiles/light_switch_provisioner_nrf52840_xxAA_s140_6.0.0.dir/__/__/__/mesh/core/src/flash_manager_defrag.c.obj
 .text.flash_manager_defrag_init
                0x000000000002ca20       0x6c CMakeFiles/light_switch_provisioner_nrf52840_xxAA_s140_6.0.0.dir/__/__/__/mesh/core/src/flash_manager_defrag.c.obj
                0x000000000002ca20                flash_manager_defrag_init
 .text.flash_manager_defrag_is_running
                0x000000000002ca8c       0x10 CMakeFiles/light_switch_provisioner_nrf52840_xxAA_s140_6.0.0.dir/__/__/__/mesh/core/src/flash_manager_defrag.c.obj
                0x000000000002ca8c                flash_manager_defrag_is_running
 .text.flash_manager_defrag
                0x000000000002ca9c       0x48 CMakeFiles/light_switch_provisioner_nrf52840_xxAA_s140_6.0.0.dir/__/__/__/mesh/core/src/flash_manager_defrag.c.obj
                0x000000000002ca9c                flash_manager_defrag
 .text.flash_manager_defrag_recovery_page_get
                0x000000000002cae4        0xc CMakeFiles/light_switch_provisioner_nrf52840_xxAA_s140_6.0.0.dir/__/__/__/mesh/core/src/flash_manager_defrag.c.obj
                0x000000000002cae4                flash_manager_defrag_recovery_page_get
 .text.fifo_init
                0x000000000002caf0       0x38 CMakeFiles/light_switch_provisioner_nrf52840_xxAA_s140_6.0.0.dir/__/__/__/mesh/core/src/fifo.c.obj
                0x000000000002caf0                fifo_init
 .text.fifo_push
                0x000000000002cb28       0x60 CMakeFiles/light_switch_provisioner_nrf52840_xxAA_s140_6.0.0.dir/__/__/__/mesh/core/src/fifo.c.obj
                0x000000000002cb28                fifo_push
 .text.fifo_pop
                0x000000000002cb88       0x5c CMakeFiles/light_switch_provisioner_nrf52840_xxAA_s140_6.0.0.dir/__/__/__/mesh/core/src/fifo.c.obj
                0x000000000002cb88                fifo_pop
 .text.nrf_flash_erase
                0x000000000002cbe4       0x5c CMakeFiles/light_switch_provisioner_nrf52840_xxAA_s140_6.0.0.dir/__/__/__/mesh/core/src/nrf_flash.c.obj
                0x000000000002cbe4                nrf_flash_erase
 .text.nrf_flash_write
                0x000000000002cc40       0x70 CMakeFiles/light_switch_provisioner_nrf52840_xxAA_s140_6.0.0.dir/__/__/__/mesh/core/src/nrf_flash.c.obj
                0x000000000002cc40                nrf_flash_write
 .text.packet_mgr_init
                0x000000000002ccb0       0x48 CMakeFiles/light_switch_provisioner_nrf52840_xxAA_s140_6.0.0.dir/__/__/__/mesh/core/src/packet_mgr.c.obj
                0x000000000002ccb0                packet_mgr_init
 .text.packet_mgr_alloc
                0x000000000002ccf8      0x1a4 CMakeFiles/light_switch_provisioner_nrf52840_xxAA_s140_6.0.0.dir/__/__/__/mesh/core/src/packet_mgr.c.obj
                0x000000000002ccf8                packet_mgr_alloc
 .text.packet_mgr_free
                0x000000000002ce9c       0x5c CMakeFiles/light_switch_provisioner_nrf52840_xxAA_s140_6.0.0.dir/__/__/__/mesh/core/src/packet_mgr.c.obj
                0x000000000002ce9c                packet_mgr_free
 .text.flash_store_iv_index
                0x000000000002cef8       0x38 CMakeFiles/light_switch_provisioner_nrf52840_xxAA_s140_6.0.0.dir/__/__/__/mesh/core/src/net_state.c.obj
 .text.flash_mem_available
                0x000000000002cf30       0x1c CMakeFiles/light_switch_provisioner_nrf52840_xxAA_s140_6.0.0.dir/__/__/__/mesh/core/src/net_state.c.obj
 .text.init_flash_storage
                0x000000000002cf4c       0x44 CMakeFiles/light_switch_provisioner_nrf52840_xxAA_s140_6.0.0.dir/__/__/__/mesh/core/src/net_state.c.obj
 .text.flash_write_complete
                0x000000000002cf90       0x6c CMakeFiles/light_switch_provisioner_nrf52840_xxAA_s140_6.0.0.dir/__/__/__/mesh/core/src/net_state.c.obj
 .text.seqnum_block_allocate
                0x000000000002cffc       0x4c CMakeFiles/light_switch_provisioner_nrf52840_xxAA_s140_6.0.0.dir/__/__/__/mesh/core/src/net_state.c.obj
 .text.net_state_reset
                0x000000000002d048       0x78 CMakeFiles/light_switch_provisioner_nrf52840_xxAA_s140_6.0.0.dir/__/__/__/mesh/core/src/net_state.c.obj
                0x000000000002d048                net_state_reset
 .text.iv_update_trigger_if_pending
                0x000000000002d0c0      0x174 CMakeFiles/light_switch_provisioner_nrf52840_xxAA_s140_6.0.0.dir/__/__/__/mesh/core/src/net_state.c.obj
 .text.iv_update_timer_handler
                0x000000000002d234       0x70 CMakeFiles/light_switch_provisioner_nrf52840_xxAA_s140_6.0.0.dir/__/__/__/mesh/core/src/net_state.c.obj
 .text.mesh_evt_handler
                0x000000000002d2a4      0x104 CMakeFiles/light_switch_provisioner_nrf52840_xxAA_s140_6.0.0.dir/__/__/__/mesh/core/src/net_state.c.obj
 .text.net_state_recover_from_flash
                0x000000000002d3a8      0x118 CMakeFiles/light_switch_provisioner_nrf52840_xxAA_s140_6.0.0.dir/__/__/__/mesh/core/src/net_state.c.obj
                0x000000000002d3a8                net_state_recover_from_flash
 .text.net_state_flash_area_get
                0x000000000002d4c0        0xc CMakeFiles/light_switch_provisioner_nrf52840_xxAA_s140_6.0.0.dir/__/__/__/mesh/core/src/net_state.c.obj
                0x000000000002d4c0                net_state_flash_area_get
 .text.net_state_init
                0x000000000002d4cc       0x94 CMakeFiles/light_switch_provisioner_nrf52840_xxAA_s140_6.0.0.dir/__/__/__/mesh/core/src/net_state.c.obj
                0x000000000002d4cc                net_state_init
 .text.net_state_seqnum_alloc
                0x000000000002d560       0xd0 CMakeFiles/light_switch_provisioner_nrf52840_xxAA_s140_6.0.0.dir/__/__/__/mesh/core/src/net_state.c.obj
                0x000000000002d560                net_state_seqnum_alloc
 .text.net_state_iv_index_lock
                0x000000000002d630      0x188 CMakeFiles/light_switch_provisioner_nrf52840_xxAA_s140_6.0.0.dir/__/__/__/mesh/core/src/net_state.c.obj
                0x000000000002d630                net_state_iv_index_lock
 .text.net_state_key_refresh_phase_changed
                0x000000000002d7b8       0x20 CMakeFiles/light_switch_provisioner_nrf52840_xxAA_s140_6.0.0.dir/__/__/__/mesh/core/src/net_state.c.obj
                0x000000000002d7b8                net_state_key_refresh_phase_changed
 .text.net_state_beacon_iv_index_get
                0x000000000002d7d8        0xc CMakeFiles/light_switch_provisioner_nrf52840_xxAA_s140_6.0.0.dir/__/__/__/mesh/core/src/net_state.c.obj
                0x000000000002d7d8                net_state_beacon_iv_index_get
 .text.net_state_tx_iv_index_get
                0x000000000002d7e4       0x14 CMakeFiles/light_switch_provisioner_nrf52840_xxAA_s140_6.0.0.dir/__/__/__/mesh/core/src/net_state.c.obj
                0x000000000002d7e4                net_state_tx_iv_index_get
 .text.net_state_rx_iv_index_get
                0x000000000002d7f8       0x18 CMakeFiles/light_switch_provisioner_nrf52840_xxAA_s140_6.0.0.dir/__/__/__/mesh/core/src/net_state.c.obj
                0x000000000002d7f8                net_state_rx_iv_index_get
 .text.net_state_iv_update_get
                0x000000000002d810        0xc CMakeFiles/light_switch_provisioner_nrf52840_xxAA_s140_6.0.0.dir/__/__/__/mesh/core/src/net_state.c.obj
                0x000000000002d810                net_state_iv_update_get
 .text.send_end_events
                0x000000000002d81c       0x98 CMakeFiles/light_switch_provisioner_nrf52840_xxAA_s140_6.0.0.dir/__/__/__/mesh/core/src/mesh_flash.c.obj
 .text.flash_op_start
                0x000000000002d8b4      0x214 CMakeFiles/light_switch_provisioner_nrf52840_xxAA_s140_6.0.0.dir/__/__/__/mesh/core/src/mesh_flash.c.obj
 .text.mesh_flash_init
                0x000000000002dac8       0x78 CMakeFiles/light_switch_provisioner_nrf52840_xxAA_s140_6.0.0.dir/__/__/__/mesh/core/src/mesh_flash.c.obj
                0x000000000002dac8                mesh_flash_init
 .text.mesh_flash_user_callback_set
                0x000000000002db40       0x20 CMakeFiles/light_switch_provisioner_nrf52840_xxAA_s140_6.0.0.dir/__/__/__/mesh/core/src/mesh_flash.c.obj
                0x000000000002db40                mesh_flash_user_callback_set
 .text.mesh_flash_op_push
                0x000000000002db60      0x198 CMakeFiles/light_switch_provisioner_nrf52840_xxAA_s140_6.0.0.dir/__/__/__/mesh/core/src/mesh_flash.c.obj
                0x000000000002db60                mesh_flash_op_push
 .text.nrf_mesh_address_type_get
                0x000000000002dcf8       0x10 CMakeFiles/light_switch_provisioner_nrf52840_xxAA_s140_6.0.0.dir/__/__/__/mesh/core/src/nrf_mesh_utils.c.obj
                0x000000000002dcf8                nrf_mesh_address_type_get
 .text.sd_softdevice_is_enabled
                0x000000000002dd08        0x4 CMakeFiles/light_switch_provisioner_nrf52840_xxAA_s140_6.0.0.dir/__/__/__/mesh/core/src/nrf_mesh.c.obj
 .text.nrf_mesh_listen
                0x000000000002dd0c      0x184 CMakeFiles/light_switch_provisioner_nrf52840_xxAA_s140_6.0.0.dir/__/__/__/mesh/core/src/nrf_mesh.c.obj
 .text.flash_stable_cb
                0x000000000002de90       0x20 CMakeFiles/light_switch_provisioner_nrf52840_xxAA_s140_6.0.0.dir/__/__/__/mesh/core/src/nrf_mesh.c.obj
 .text.scanner_packet_process_cb
                0x000000000002deb0       0x88 CMakeFiles/light_switch_provisioner_nrf52840_xxAA_s140_6.0.0.dir/__/__/__/mesh/core/src/nrf_mesh.c.obj
 .text.nrf_mesh_init
                0x000000000002df38       0xe4 CMakeFiles/light_switch_provisioner_nrf52840_xxAA_s140_6.0.0.dir/__/__/__/mesh/core/src/nrf_mesh.c.obj
                0x000000000002df38                nrf_mesh_init
 .text.nrf_mesh_enable
                0x000000000002e01c       0x48 CMakeFiles/light_switch_provisioner_nrf52840_xxAA_s140_6.0.0.dir/__/__/__/mesh/core/src/nrf_mesh.c.obj
                0x000000000002e01c                nrf_mesh_enable
 .text.nrf_mesh_packet_send
                0x000000000002e064       0x94 CMakeFiles/light_switch_provisioner_nrf52840_xxAA_s140_6.0.0.dir/__/__/__/mesh/core/src/nrf_mesh.c.obj
                0x000000000002e064                nrf_mesh_packet_send
 .text.nrf_mesh_evt_handler_add
                0x000000000002e0f8        0x4 CMakeFiles/light_switch_provisioner_nrf52840_xxAA_s140_6.0.0.dir/__/__/__/mesh/core/src/nrf_mesh.c.obj
                0x000000000002e0f8                nrf_mesh_evt_handler_add
 .text.nrf_mesh_on_sd_evt
                0x000000000002e0fc        0xc CMakeFiles/light_switch_provisioner_nrf52840_xxAA_s140_6.0.0.dir/__/__/__/mesh/core/src/nrf_mesh.c.obj
                0x000000000002e0fc                nrf_mesh_on_sd_evt
 .text.nrf_mesh_subnet_added
                0x000000000002e108        0x4 CMakeFiles/light_switch_provisioner_nrf52840_xxAA_s140_6.0.0.dir/__/__/__/mesh/core/src/nrf_mesh.c.obj
                0x000000000002e108                nrf_mesh_subnet_added
 .text.queue_init
                0x000000000002e10c       0x1c CMakeFiles/light_switch_provisioner_nrf52840_xxAA_s140_6.0.0.dir/__/__/__/mesh/core/src/queue.c.obj
                0x000000000002e10c                queue_init
 .text.queue_push
                0x000000000002e128       0x3c CMakeFiles/light_switch_provisioner_nrf52840_xxAA_s140_6.0.0.dir/__/__/__/mesh/core/src/queue.c.obj
                0x000000000002e128                queue_push
 .text.queue_pop
                0x000000000002e164       0x2c CMakeFiles/light_switch_provisioner_nrf52840_xxAA_s140_6.0.0.dir/__/__/__/mesh/core/src/queue.c.obj
                0x000000000002e164                queue_pop
 .text.queue_peek
                0x000000000002e190       0x14 CMakeFiles/light_switch_provisioner_nrf52840_xxAA_s140_6.0.0.dir/__/__/__/mesh/core/src/queue.c.obj
                0x000000000002e190                queue_peek
 .text.sd_power_reset_reason_clr
                0x000000000002e1a4        0x4 CMakeFiles/light_switch_provisioner_nrf52840_xxAA_s140_6.0.0.dir/__/__/__/mesh/core/src/hal.c.obj
 .text.hal_device_reset
                0x000000000002e1a8       0x2c CMakeFiles/light_switch_provisioner_nrf52840_xxAA_s140_6.0.0.dir/__/__/__/mesh/core/src/hal.c.obj
                0x000000000002e1a8                hal_device_reset
 .text.hal_lfclk_ppm_get
                0x000000000002e1d4       0x14 CMakeFiles/light_switch_provisioner_nrf52840_xxAA_s140_6.0.0.dir/__/__/__/mesh/core/src/hal.c.obj
                0x000000000002e1d4                hal_lfclk_ppm_get
 .text.aes_cmac_subkey_generate
                0x000000000002e1e8      0x294 CMakeFiles/light_switch_provisioner_nrf52840_xxAA_s140_6.0.0.dir/__/__/__/mesh/core/src/aes_cmac.c.obj
                0x000000000002e1e8                aes_cmac_subkey_generate
 .text.aes_cmac
                0x000000000002e47c      0x4b8 CMakeFiles/light_switch_provisioner_nrf52840_xxAA_s140_6.0.0.dir/__/__/__/mesh/core/src/aes_cmac.c.obj
                0x000000000002e47c                aes_cmac
 .text.timer_cb
                0x000000000002e934        0xc CMakeFiles/light_switch_provisioner_nrf52840_xxAA_s140_6.0.0.dir/__/__/__/mesh/core/src/timer_scheduler.c.obj
 .text.add_evt.constprop.1
                0x000000000002e940       0x60 CMakeFiles/light_switch_provisioner_nrf52840_xxAA_s140_6.0.0.dir/__/__/__/mesh/core/src/timer_scheduler.c.obj
 .text.flag_event_cb
                0x000000000002e9a0      0x2f0 CMakeFiles/light_switch_provisioner_nrf52840_xxAA_s140_6.0.0.dir/__/__/__/mesh/core/src/timer_scheduler.c.obj
 .text.timer_sch_init
                0x000000000002ec90       0x24 CMakeFiles/light_switch_provisioner_nrf52840_xxAA_s140_6.0.0.dir/__/__/__/mesh/core/src/timer_scheduler.c.obj
                0x000000000002ec90                timer_sch_init
 .text.timer_sch_schedule
                0x000000000002ecb4       0x68 CMakeFiles/light_switch_provisioner_nrf52840_xxAA_s140_6.0.0.dir/__/__/__/mesh/core/src/timer_scheduler.c.obj
                0x000000000002ecb4                timer_sch_schedule
 .text.timer_sch_abort
                0x000000000002ed1c       0x5c CMakeFiles/light_switch_provisioner_nrf52840_xxAA_s140_6.0.0.dir/__/__/__/mesh/core/src/timer_scheduler.c.obj
                0x000000000002ed1c                timer_sch_abort
 .text.timer_sch_reschedule
                0x000000000002ed78       0x90 CMakeFiles/light_switch_provisioner_nrf52840_xxAA_s140_6.0.0.dir/__/__/__/mesh/core/src/timer_scheduler.c.obj
                0x000000000002ed78                timer_sch_reschedule
 .text.timer_event_handler
                0x000000000002ee08       0xd0 CMakeFiles/light_switch_provisioner_nrf52840_xxAA_s140_6.0.0.dir/__/__/__/mesh/core/src/timer.c.obj
                0x000000000002ee08                timer_event_handler
 .text.timer_order_cb
                0x000000000002eed8       0x9c CMakeFiles/light_switch_provisioner_nrf52840_xxAA_s140_6.0.0.dir/__/__/__/mesh/core/src/timer.c.obj
                0x000000000002eed8                timer_order_cb
 .text.timer_now
                0x000000000002ef74       0x58 CMakeFiles/light_switch_provisioner_nrf52840_xxAA_s140_6.0.0.dir/__/__/__/mesh/core/src/timer.c.obj
                0x000000000002ef74                timer_now
 .text.timer_on_ts_begin
                0x000000000002efcc      0x100 CMakeFiles/light_switch_provisioner_nrf52840_xxAA_s140_6.0.0.dir/__/__/__/mesh/core/src/timer.c.obj
                0x000000000002efcc                timer_on_ts_begin
 .text.timer_on_ts_end
                0x000000000002f0cc       0x78 CMakeFiles/light_switch_provisioner_nrf52840_xxAA_s140_6.0.0.dir/__/__/__/mesh/core/src/timer.c.obj
                0x000000000002f0cc                timer_on_ts_end
 .text.timer_cb
                0x000000000002f144       0x10 CMakeFiles/light_switch_provisioner_nrf52840_xxAA_s140_6.0.0.dir/__/__/__/mesh/core/src/ticker.c.obj
 .text.ticker_init
                0x000000000002f154       0x3c CMakeFiles/light_switch_provisioner_nrf52840_xxAA_s140_6.0.0.dir/__/__/__/mesh/core/src/ticker.c.obj
                0x000000000002f154                ticker_init
 .text.sd_rand_application_bytes_available_get
                0x000000000002f190        0x4 CMakeFiles/light_switch_provisioner_nrf52840_xxAA_s140_6.0.0.dir/__/__/__/mesh/core/src/rand.c.obj
 .text.sd_rand_application_vector_get
                0x000000000002f194        0x4 CMakeFiles/light_switch_provisioner_nrf52840_xxAA_s140_6.0.0.dir/__/__/__/mesh/core/src/rand.c.obj
 .text.rand_prng_seed
                0x000000000002f198       0x78 CMakeFiles/light_switch_provisioner_nrf52840_xxAA_s140_6.0.0.dir/__/__/__/mesh/core/src/rand.c.obj
                0x000000000002f198                rand_prng_seed
 .text.rand_prng_get
                0x000000000002f210       0x28 CMakeFiles/light_switch_provisioner_nrf52840_xxAA_s140_6.0.0.dir/__/__/__/mesh/core/src/rand.c.obj
                0x000000000002f210                rand_prng_get
 .text.rand_hw_rng_get
                0x000000000002f238       0x60 CMakeFiles/light_switch_provisioner_nrf52840_xxAA_s140_6.0.0.dir/__/__/__/mesh/core/src/rand.c.obj
                0x000000000002f238                rand_hw_rng_get
 .text.nrf_mesh_opt_set
                0x000000000002f298       0x28 CMakeFiles/light_switch_provisioner_nrf52840_xxAA_s140_6.0.0.dir/__/__/__/mesh/core/src/nrf_mesh_opt.c.obj
                0x000000000002f298                nrf_mesh_opt_set
 .text.nrf_mesh_opt_get
                0x000000000002f2c0       0x28 CMakeFiles/light_switch_provisioner_nrf52840_xxAA_s140_6.0.0.dir/__/__/__/mesh/core/src/nrf_mesh_opt.c.obj
                0x000000000002f2c0                nrf_mesh_opt_get
 .text.sd_radio_session_open
                0x000000000002f2e8        0x4 CMakeFiles/light_switch_provisioner_nrf52840_xxAA_s140_6.0.0.dir/__/__/__/mesh/core/src/timeslot.c.obj
 .text.sd_radio_session_close
                0x000000000002f2ec        0x4 CMakeFiles/light_switch_provisioner_nrf52840_xxAA_s140_6.0.0.dir/__/__/__/mesh/core/src/timeslot.c.obj
 .text.sd_radio_request
                0x000000000002f2f0        0x4 CMakeFiles/light_switch_provisioner_nrf52840_xxAA_s140_6.0.0.dir/__/__/__/mesh/core/src/timeslot.c.obj
 .text.end_timer_handler
                0x000000000002f2f4       0x2c CMakeFiles/light_switch_provisioner_nrf52840_xxAA_s140_6.0.0.dir/__/__/__/mesh/core/src/timeslot.c.obj
 .text.radio_signal_callback
                0x000000000002f320      0x2b4 CMakeFiles/light_switch_provisioner_nrf52840_xxAA_s140_6.0.0.dir/__/__/__/mesh/core/src/timeslot.c.obj
 .text.timeslot_sd_event_handler
                0x000000000002f5d4       0x44 CMakeFiles/light_switch_provisioner_nrf52840_xxAA_s140_6.0.0.dir/__/__/__/mesh/core/src/timeslot.c.obj
                0x000000000002f5d4                timeslot_sd_event_handler
 .text.timeslot_init
                0x000000000002f618       0x4c CMakeFiles/light_switch_provisioner_nrf52840_xxAA_s140_6.0.0.dir/__/__/__/mesh/core/src/timeslot.c.obj
                0x000000000002f618                timeslot_init
 .text.timeslot_start
                0x000000000002f664       0x20 CMakeFiles/light_switch_provisioner_nrf52840_xxAA_s140_6.0.0.dir/__/__/__/mesh/core/src/timeslot.c.obj
                0x000000000002f664                timeslot_start
 .text.timeslot_stop
                0x000000000002f684       0x30 CMakeFiles/light_switch_provisioner_nrf52840_xxAA_s140_6.0.0.dir/__/__/__/mesh/core/src/timeslot.c.obj
                0x000000000002f684                timeslot_stop
 .text.timeslot_state_lock
                0x000000000002f6b4       0x44 CMakeFiles/light_switch_provisioner_nrf52840_xxAA_s140_6.0.0.dir/__/__/__/mesh/core/src/timeslot.c.obj
                0x000000000002f6b4                timeslot_state_lock
 .text.timeslot_end_is_pending
                0x000000000002f6f8       0x24 CMakeFiles/light_switch_provisioner_nrf52840_xxAA_s140_6.0.0.dir/__/__/__/mesh/core/src/timeslot.c.obj
                0x000000000002f6f8                timeslot_end_is_pending
 .text.timeslot_start_time_get
                0x000000000002f71c        0xc CMakeFiles/light_switch_provisioner_nrf52840_xxAA_s140_6.0.0.dir/__/__/__/mesh/core/src/timeslot.c.obj
                0x000000000002f71c                timeslot_start_time_get
 .text.timeslot_remaining_time_get
                0x000000000002f728       0x40 CMakeFiles/light_switch_provisioner_nrf52840_xxAA_s140_6.0.0.dir/__/__/__/mesh/core/src/timeslot.c.obj
                0x000000000002f728                timeslot_remaining_time_get
 .text.timeslot_is_in_cb
                0x000000000002f768        0xc CMakeFiles/light_switch_provisioner_nrf52840_xxAA_s140_6.0.0.dir/__/__/__/mesh/core/src/timeslot.c.obj
                0x000000000002f768                timeslot_is_in_cb
 .text.timeslot_trigger
                0x000000000002f774       0x24 CMakeFiles/light_switch_provisioner_nrf52840_xxAA_s140_6.0.0.dir/__/__/__/mesh/core/src/timeslot.c.obj
                0x000000000002f774                timeslot_trigger
 .text.bearer_event_init
                0x000000000002f798       0x4c CMakeFiles/light_switch_provisioner_nrf52840_xxAA_s140_6.0.0.dir/__/__/__/mesh/core/src/bearer_event.c.obj
                0x000000000002f798                bearer_event_init
 .text.bearer_event_timer_post
                0x000000000002f7e4       0x50 CMakeFiles/light_switch_provisioner_nrf52840_xxAA_s140_6.0.0.dir/__/__/__/mesh/core/src/bearer_event.c.obj
                0x000000000002f7e4                bearer_event_timer_post
 .text.bearer_event_critical_section_begin
                0x000000000002f834       0x44 CMakeFiles/light_switch_provisioner_nrf52840_xxAA_s140_6.0.0.dir/__/__/__/mesh/core/src/bearer_event.c.obj
                0x000000000002f834                bearer_event_critical_section_begin
 .text.bearer_event_critical_section_end
                0x000000000002f878       0x40 CMakeFiles/light_switch_provisioner_nrf52840_xxAA_s140_6.0.0.dir/__/__/__/mesh/core/src/bearer_event.c.obj
                0x000000000002f878                bearer_event_critical_section_end
 .text.bearer_event_flag_add
                0x000000000002f8b8       0x40 CMakeFiles/light_switch_provisioner_nrf52840_xxAA_s140_6.0.0.dir/__/__/__/mesh/core/src/bearer_event.c.obj
                0x000000000002f8b8                bearer_event_flag_add
 .text.bearer_event_flag_set
                0x000000000002f8f8       0x5c CMakeFiles/light_switch_provisioner_nrf52840_xxAA_s140_6.0.0.dir/__/__/__/mesh/core/src/bearer_event.c.obj
                0x000000000002f8f8                bearer_event_flag_set
 .text.bearer_event_sequential_add
                0x000000000002f954       0x34 CMakeFiles/light_switch_provisioner_nrf52840_xxAA_s140_6.0.0.dir/__/__/__/mesh/core/src/bearer_event.c.obj
                0x000000000002f954                bearer_event_sequential_add
 .text.bearer_event_sequential_post
                0x000000000002f988       0x64 CMakeFiles/light_switch_provisioner_nrf52840_xxAA_s140_6.0.0.dir/__/__/__/mesh/core/src/bearer_event.c.obj
                0x000000000002f988                bearer_event_sequential_post
 .text.bearer_event_sequential_pending
                0x000000000002f9ec       0x14 CMakeFiles/light_switch_provisioner_nrf52840_xxAA_s140_6.0.0.dir/__/__/__/mesh/core/src/bearer_event.c.obj
                0x000000000002f9ec                bearer_event_sequential_pending
 .text.bearer_event_handler
                0x000000000002fa00      0x16c CMakeFiles/light_switch_provisioner_nrf52840_xxAA_s140_6.0.0.dir/__/__/__/mesh/core/src/bearer_event.c.obj
                0x000000000002fa00                bearer_event_handler
 .text.QDEC_IRQHandler
                0x000000000002fb6c        0x4 CMakeFiles/light_switch_provisioner_nrf52840_xxAA_s140_6.0.0.dir/__/__/__/mesh/core/src/bearer_event.c.obj
                0x000000000002fb6c                QDEC_IRQHandler
 .text.enc_aes_encrypt
                0x000000000002fb70        0x4 CMakeFiles/light_switch_provisioner_nrf52840_xxAA_s140_6.0.0.dir/__/__/__/mesh/core/src/enc.c.obj
                0x000000000002fb70                enc_aes_encrypt
 .text.enc_aes_cmac
                0x000000000002fb74        0x4 CMakeFiles/light_switch_provisioner_nrf52840_xxAA_s140_6.0.0.dir/__/__/__/mesh/core/src/enc.c.obj
                0x000000000002fb74                enc_aes_cmac
 .text.enc_aes_ccm_encrypt
                0x000000000002fb78        0x4 CMakeFiles/light_switch_provisioner_nrf52840_xxAA_s140_6.0.0.dir/__/__/__/mesh/core/src/enc.c.obj
                0x000000000002fb78                enc_aes_ccm_encrypt
 .text.enc_aes_ccm_decrypt
                0x000000000002fb7c        0x4 CMakeFiles/light_switch_provisioner_nrf52840_xxAA_s140_6.0.0.dir/__/__/__/mesh/core/src/enc.c.obj
                0x000000000002fb7c                enc_aes_ccm_decrypt
 .text.enc_nonce_generate
                0x000000000002fb80       0xc8 CMakeFiles/light_switch_provisioner_nrf52840_xxAA_s140_6.0.0.dir/__/__/__/mesh/core/src/enc.c.obj
                0x000000000002fb80                enc_nonce_generate
 .text.enc_s1   0x000000000002fc48       0x30 CMakeFiles/light_switch_provisioner_nrf52840_xxAA_s140_6.0.0.dir/__/__/__/mesh/core/src/enc.c.obj
                0x000000000002fc48                enc_s1
 .text.enc_k1   0x000000000002fc78       0x40 CMakeFiles/light_switch_provisioner_nrf52840_xxAA_s140_6.0.0.dir/__/__/__/mesh/core/src/enc.c.obj
                0x000000000002fc78                enc_k1
 .text.enc_k2   0x000000000002fcb8       0xe0 CMakeFiles/light_switch_provisioner_nrf52840_xxAA_s140_6.0.0.dir/__/__/__/mesh/core/src/enc.c.obj
                0x000000000002fcb8                enc_k2
 .text.enc_k3   0x000000000002fd98       0x68 CMakeFiles/light_switch_provisioner_nrf52840_xxAA_s140_6.0.0.dir/__/__/__/mesh/core/src/enc.c.obj
                0x000000000002fd98                enc_k3
 .text.enc_k4   0x000000000002fe00       0x60 CMakeFiles/light_switch_provisioner_nrf52840_xxAA_s140_6.0.0.dir/__/__/__/mesh/core/src/enc.c.obj
                0x000000000002fe00                enc_k4
 .text.network_init
                0x000000000002fe60       0x28 CMakeFiles/light_switch_provisioner_nrf52840_xxAA_s140_6.0.0.dir/__/__/__/mesh/core/src/network.c.obj
                0x000000000002fe60                network_init
 .text.network_opt_set
                0x000000000002fe88       0x84 CMakeFiles/light_switch_provisioner_nrf52840_xxAA_s140_6.0.0.dir/__/__/__/mesh/core/src/network.c.obj
                0x000000000002fe88                network_opt_set
 .text.network_opt_get
                0x000000000002ff0c       0x5c CMakeFiles/light_switch_provisioner_nrf52840_xxAA_s140_6.0.0.dir/__/__/__/mesh/core/src/network.c.obj
                0x000000000002ff0c                network_opt_get
 .text.network_packet_alloc
                0x000000000002ff68       0xa0 CMakeFiles/light_switch_provisioner_nrf52840_xxAA_s140_6.0.0.dir/__/__/__/mesh/core/src/network.c.obj
                0x000000000002ff68                network_packet_alloc
 .text.network_packet_send
                0x0000000000030008       0x58 CMakeFiles/light_switch_provisioner_nrf52840_xxAA_s140_6.0.0.dir/__/__/__/mesh/core/src/network.c.obj
                0x0000000000030008                network_packet_send
 .text.network_packet_in
                0x0000000000030060      0x1c8 CMakeFiles/light_switch_provisioner_nrf52840_xxAA_s140_6.0.0.dir/__/__/__/mesh/core/src/network.c.obj
                0x0000000000030060                network_packet_in
 .text.net_packet_decrypt
                0x0000000000030228      0x2bc CMakeFiles/light_switch_provisioner_nrf52840_xxAA_s140_6.0.0.dir/__/__/__/mesh/core/src/net_packet.c.obj
                0x0000000000030228                net_packet_decrypt
 .text.net_packet_encrypt
                0x00000000000304e4      0x100 CMakeFiles/light_switch_provisioner_nrf52840_xxAA_s140_6.0.0.dir/__/__/__/mesh/core/src/net_packet.c.obj
                0x00000000000304e4                net_packet_encrypt
 .text.net_packet_header_set
                0x00000000000305e4       0xc0 CMakeFiles/light_switch_provisioner_nrf52840_xxAA_s140_6.0.0.dir/__/__/__/mesh/core/src/net_packet.c.obj
                0x00000000000305e4                net_packet_header_set
 .text.net_packet_payload_len_get
                0x00000000000306a4       0x14 CMakeFiles/light_switch_provisioner_nrf52840_xxAA_s140_6.0.0.dir/__/__/__/mesh/core/src/net_packet.c.obj
                0x00000000000306a4                net_packet_payload_len_get
 .text.net_packet_from_payload
                0x00000000000306b8        0x4 CMakeFiles/light_switch_provisioner_nrf52840_xxAA_s140_6.0.0.dir/__/__/__/mesh/core/src/net_packet.c.obj
                0x00000000000306b8                net_packet_from_payload
 .text.net_packet_obfuscation_start_get
                0x00000000000306bc        0x4 CMakeFiles/light_switch_provisioner_nrf52840_xxAA_s140_6.0.0.dir/__/__/__/mesh/core/src/net_packet.c.obj
                0x00000000000306bc                net_packet_obfuscation_start_get
 .text.msq_init
                0x00000000000306c0       0x6c CMakeFiles/light_switch_provisioner_nrf52840_xxAA_s140_6.0.0.dir/__/__/__/mesh/core/src/msqueue.c.obj
                0x00000000000306c0                msq_init
 .text.msq_get  0x000000000003072c       0x54 CMakeFiles/light_switch_provisioner_nrf52840_xxAA_s140_6.0.0.dir/__/__/__/mesh/core/src/msqueue.c.obj
                0x000000000003072c                msq_get
 .text.msq_move
                0x0000000000030780       0x4c CMakeFiles/light_switch_provisioner_nrf52840_xxAA_s140_6.0.0.dir/__/__/__/mesh/core/src/msqueue.c.obj
                0x0000000000030780                msq_move
 .text.msq_available
                0x00000000000307cc       0x44 CMakeFiles/light_switch_provisioner_nrf52840_xxAA_s140_6.0.0.dir/__/__/__/mesh/core/src/msqueue.c.obj
                0x00000000000307cc                msq_available
 .text.nrf_mesh_keygen_aid
                0x0000000000030810       0x18 CMakeFiles/light_switch_provisioner_nrf52840_xxAA_s140_6.0.0.dir/__/__/__/mesh/core/src/nrf_mesh_keygen.c.obj
                0x0000000000030810                nrf_mesh_keygen_aid
 .text.nrf_mesh_keygen_network_secmat
                0x0000000000030828       0x24 CMakeFiles/light_switch_provisioner_nrf52840_xxAA_s140_6.0.0.dir/__/__/__/mesh/core/src/nrf_mesh_keygen.c.obj
                0x0000000000030828                nrf_mesh_keygen_network_secmat
 .text.nrf_mesh_keygen_beacon_secmat
                0x000000000003084c       0x50 CMakeFiles/light_switch_provisioner_nrf52840_xxAA_s140_6.0.0.dir/__/__/__/mesh/core/src/nrf_mesh_keygen.c.obj
                0x000000000003084c                nrf_mesh_keygen_beacon_secmat
 .text.nrf_mesh_keygen_virtual_address
                0x000000000003089c       0x50 CMakeFiles/light_switch_provisioner_nrf52840_xxAA_s140_6.0.0.dir/__/__/__/mesh/core/src/nrf_mesh_keygen.c.obj
                0x000000000003089c                nrf_mesh_keygen_virtual_address
 .text.list_add
                0x00000000000308ec       0x64 CMakeFiles/light_switch_provisioner_nrf52840_xxAA_s140_6.0.0.dir/__/__/__/mesh/core/src/list.c.obj
                0x00000000000308ec                list_add
 .text.list_remove
                0x0000000000030950       0x44 CMakeFiles/light_switch_provisioner_nrf52840_xxAA_s140_6.0.0.dir/__/__/__/mesh/core/src/list.c.obj
                0x0000000000030950                list_remove
 .text.list_compare_add
                0x0000000000030994       0x80 CMakeFiles/light_switch_provisioner_nrf52840_xxAA_s140_6.0.0.dir/__/__/__/mesh/core/src/list.c.obj
                0x0000000000030994                list_compare_add
 .text.log_callback_rtt
                0x0000000000030a14       0x2c CMakeFiles/light_switch_provisioner_nrf52840_xxAA_s140_6.0.0.dir/__/__/__/mesh/core/src/log.c.obj
                0x0000000000030a14                log_callback_rtt
 .text.log_init
                0x0000000000030a40       0x20 CMakeFiles/light_switch_provisioner_nrf52840_xxAA_s140_6.0.0.dir/__/__/__/mesh/core/src/log.c.obj
                0x0000000000030a40                log_init
 .text.log_printf
                0x0000000000030a60       0x20 CMakeFiles/light_switch_provisioner_nrf52840_xxAA_s140_6.0.0.dir/__/__/__/mesh/core/src/log.c.obj
                0x0000000000030a60                log_printf
 .text.process_action_queue
                0x0000000000030a80      0x794 CMakeFiles/light_switch_provisioner_nrf52840_xxAA_s140_6.0.0.dir/__/__/__/mesh/core/src/flash_manager.c.obj
 .text.flash_op_ended_callback
                0x0000000000031214       0x24 CMakeFiles/light_switch_provisioner_nrf52840_xxAA_s140_6.0.0.dir/__/__/__/mesh/core/src/flash_manager.c.obj
 .text.flash_manager_init
                0x0000000000031238       0x68 CMakeFiles/light_switch_provisioner_nrf52840_xxAA_s140_6.0.0.dir/__/__/__/mesh/core/src/flash_manager.c.obj
                0x0000000000031238                flash_manager_init
 .text.flash_manager_remove
                0x00000000000312a0       0x6c CMakeFiles/light_switch_provisioner_nrf52840_xxAA_s140_6.0.0.dir/__/__/__/mesh/core/src/flash_manager.c.obj
                0x00000000000312a0                flash_manager_remove
 .text.flash_manager_entry_get
                0x000000000003130c       0x48 CMakeFiles/light_switch_provisioner_nrf52840_xxAA_s140_6.0.0.dir/__/__/__/mesh/core/src/flash_manager.c.obj
                0x000000000003130c                flash_manager_entry_get
 .text.flash_manager_entry_next_get
                0x0000000000031354      0x144 CMakeFiles/light_switch_provisioner_nrf52840_xxAA_s140_6.0.0.dir/__/__/__/mesh/core/src/flash_manager.c.obj
                0x0000000000031354                flash_manager_entry_next_get
 .text.flash_manager_entry_alloc
                0x0000000000031498       0x80 CMakeFiles/light_switch_provisioner_nrf52840_xxAA_s140_6.0.0.dir/__/__/__/mesh/core/src/flash_manager.c.obj
                0x0000000000031498                flash_manager_entry_alloc
 .text.flash_manager_entry_commit
                0x0000000000031518       0x58 CMakeFiles/light_switch_provisioner_nrf52840_xxAA_s140_6.0.0.dir/__/__/__/mesh/core/src/flash_manager.c.obj
                0x0000000000031518                flash_manager_entry_commit
 .text.flash_manager_entry_invalidate
                0x0000000000031570       0x98 CMakeFiles/light_switch_provisioner_nrf52840_xxAA_s140_6.0.0.dir/__/__/__/mesh/core/src/flash_manager.c.obj
                0x0000000000031570                flash_manager_entry_invalidate
 .text.flash_manager_add
                0x0000000000031608      0x3f4 CMakeFiles/light_switch_provisioner_nrf52840_xxAA_s140_6.0.0.dir/__/__/__/mesh/core/src/flash_manager.c.obj
                0x0000000000031608                flash_manager_add
 .text.flash_manager_mem_listener_register
                0x00000000000319fc       0x38 CMakeFiles/light_switch_provisioner_nrf52840_xxAA_s140_6.0.0.dir/__/__/__/mesh/core/src/flash_manager.c.obj
                0x00000000000319fc                flash_manager_mem_listener_register
 .text.flash_manager_is_stable
                0x0000000000031a34       0x20 CMakeFiles/light_switch_provisioner_nrf52840_xxAA_s140_6.0.0.dir/__/__/__/mesh/core/src/flash_manager.c.obj
                0x0000000000031a34                flash_manager_is_stable
 .text.flash_manager_on_defrag_end
                0x0000000000031a54       0x58 CMakeFiles/light_switch_provisioner_nrf52840_xxAA_s140_6.0.0.dir/__/__/__/mesh/core/src/flash_manager.c.obj
                0x0000000000031a54                flash_manager_on_defrag_end
 .text.flash_manager_recovery_page_get
                0x0000000000031aac        0x4 CMakeFiles/light_switch_provisioner_nrf52840_xxAA_s140_6.0.0.dir/__/__/__/mesh/core/src/flash_manager.c.obj
                0x0000000000031aac                flash_manager_recovery_page_get
 .text.flash_manager_action_queue_empty_cb_set
                0x0000000000031ab0       0x20 CMakeFiles/light_switch_provisioner_nrf52840_xxAA_s140_6.0.0.dir/__/__/__/mesh/core/src/flash_manager.c.obj
                0x0000000000031ab0                flash_manager_action_queue_empty_cb_set
 .text.ccm_soft_crypt.constprop.0
                0x0000000000031ad0      0x274 CMakeFiles/light_switch_provisioner_nrf52840_xxAA_s140_6.0.0.dir/__/__/__/mesh/core/src/ccm_soft.c.obj
 .text.ccm_soft_authenticate
                0x0000000000031d44      0x308 CMakeFiles/light_switch_provisioner_nrf52840_xxAA_s140_6.0.0.dir/__/__/__/mesh/core/src/ccm_soft.c.obj
 .text.ccm_soft_encrypt
                0x000000000003204c       0x7c CMakeFiles/light_switch_provisioner_nrf52840_xxAA_s140_6.0.0.dir/__/__/__/mesh/core/src/ccm_soft.c.obj
                0x000000000003204c                ccm_soft_encrypt
 .text.ccm_soft_decrypt
                0x00000000000320c8      0x114 CMakeFiles/light_switch_provisioner_nrf52840_xxAA_s140_6.0.0.dir/__/__/__/mesh/core/src/ccm_soft.c.obj
                0x00000000000320c8                ccm_soft_decrypt
 .text.replay_cache_init
                0x00000000000321dc       0x20 CMakeFiles/light_switch_provisioner_nrf52840_xxAA_s140_6.0.0.dir/__/__/__/mesh/core/src/replay_cache.c.obj
                0x00000000000321dc                replay_cache_init
 .text.replay_cache_add
                0x00000000000321fc       0x68 CMakeFiles/light_switch_provisioner_nrf52840_xxAA_s140_6.0.0.dir/__/__/__/mesh/core/src/replay_cache.c.obj
                0x00000000000321fc                replay_cache_add
 .text.replay_cache_has_elem
                0x0000000000032264       0x44 CMakeFiles/light_switch_provisioner_nrf52840_xxAA_s140_6.0.0.dir/__/__/__/mesh/core/src/replay_cache.c.obj
                0x0000000000032264                replay_cache_has_elem
 .text.beacon_create
                0x00000000000322a8       0x50 CMakeFiles/light_switch_provisioner_nrf52840_xxAA_s140_6.0.0.dir/__/__/__/mesh/core/src/beacon.c.obj
                0x00000000000322a8                beacon_create
 .text.beacon_packet_in
                0x00000000000322f8      0x178 CMakeFiles/light_switch_provisioner_nrf52840_xxAA_s140_6.0.0.dir/__/__/__/mesh/core/src/beacon.c.obj
                0x00000000000322f8                beacon_packet_in
 .text.entry_get
                0x0000000000032470       0x7c CMakeFiles/light_switch_provisioner_nrf52840_xxAA_s140_6.0.0.dir/__/__/__/mesh/core/src/flash_manager_internal.c.obj
                0x0000000000032470                entry_get
 .text.core_tx_complete_cb_set
                0x00000000000324ec        0xc CMakeFiles/light_switch_provisioner_nrf52840_xxAA_s140_6.0.0.dir/__/__/__/mesh/core/src/core_tx.c.obj
                0x00000000000324ec                core_tx_complete_cb_set
 .text.core_tx_packet_alloc
                0x00000000000324f8       0xc0 CMakeFiles/light_switch_provisioner_nrf52840_xxAA_s140_6.0.0.dir/__/__/__/mesh/core/src/core_tx.c.obj
                0x00000000000324f8                core_tx_packet_alloc
 .text.core_tx_packet_send
                0x00000000000325b8       0x5c CMakeFiles/light_switch_provisioner_nrf52840_xxAA_s140_6.0.0.dir/__/__/__/mesh/core/src/core_tx.c.obj
                0x00000000000325b8                core_tx_packet_send
 .text.core_tx_packet_discard
                0x0000000000032614       0x54 CMakeFiles/light_switch_provisioner_nrf52840_xxAA_s140_6.0.0.dir/__/__/__/mesh/core/src/core_tx.c.obj
                0x0000000000032614                core_tx_packet_discard
 .text.core_tx_complete
                0x0000000000032668       0x38 CMakeFiles/light_switch_provisioner_nrf52840_xxAA_s140_6.0.0.dir/__/__/__/mesh/core/src/core_tx.c.obj
                0x0000000000032668                core_tx_complete
 .text.core_tx_bearer_add
                0x00000000000326a0       0x90 CMakeFiles/light_switch_provisioner_nrf52840_xxAA_s140_6.0.0.dir/__/__/__/mesh/core/src/core_tx.c.obj
                0x00000000000326a0                core_tx_bearer_add
 .text.heartbeat_subscription_timer_cb
                0x0000000000032730       0x1c CMakeFiles/light_switch_provisioner_nrf52840_xxAA_s140_6.0.0.dir/__/__/__/mesh/core/src/heartbeat.c.obj
 .text.heartbeat_opcode_handle
                0x000000000003274c       0x8c CMakeFiles/light_switch_provisioner_nrf52840_xxAA_s140_6.0.0.dir/__/__/__/mesh/core/src/heartbeat.c.obj
 .text.heartbeat_send
                0x00000000000327d8       0xbc CMakeFiles/light_switch_provisioner_nrf52840_xxAA_s140_6.0.0.dir/__/__/__/mesh/core/src/heartbeat.c.obj
 .text.heartbeat_core_evt_cb
                0x0000000000032894       0x94 CMakeFiles/light_switch_provisioner_nrf52840_xxAA_s140_6.0.0.dir/__/__/__/mesh/core/src/heartbeat.c.obj
 .text.heartbeat_publication_timer_cb
                0x0000000000032928       0xb0 CMakeFiles/light_switch_provisioner_nrf52840_xxAA_s140_6.0.0.dir/__/__/__/mesh/core/src/heartbeat.c.obj
 .text.heartbeat_on_feature_change_trigger
                0x00000000000329d8       0x48 CMakeFiles/light_switch_provisioner_nrf52840_xxAA_s140_6.0.0.dir/__/__/__/mesh/core/src/heartbeat.c.obj
                0x00000000000329d8                heartbeat_on_feature_change_trigger
 .text.heartbeat_init
                0x0000000000032a20       0x7c CMakeFiles/light_switch_provisioner_nrf52840_xxAA_s140_6.0.0.dir/__/__/__/mesh/core/src/heartbeat.c.obj
                0x0000000000032a20                heartbeat_init
 .text.heartbeat_subscription_set
                0x0000000000032a9c       0xa4 CMakeFiles/light_switch_provisioner_nrf52840_xxAA_s140_6.0.0.dir/__/__/__/mesh/core/src/heartbeat.c.obj
                0x0000000000032a9c                heartbeat_subscription_set
 .text.heartbeat_subscription_get
                0x0000000000032b40        0x8 CMakeFiles/light_switch_provisioner_nrf52840_xxAA_s140_6.0.0.dir/__/__/__/mesh/core/src/heartbeat.c.obj
                0x0000000000032b40                heartbeat_subscription_get
 .text.heartbeat_config_server_cb_set
                0x0000000000032b48       0x30 CMakeFiles/light_switch_provisioner_nrf52840_xxAA_s140_6.0.0.dir/__/__/__/mesh/core/src/heartbeat.c.obj
                0x0000000000032b48                heartbeat_config_server_cb_set
 .text.heartbeat_publication_state_updated
                0x0000000000032b78       0x78 CMakeFiles/light_switch_provisioner_nrf52840_xxAA_s140_6.0.0.dir/__/__/__/mesh/core/src/heartbeat.c.obj
                0x0000000000032b78                heartbeat_publication_state_updated
 .text.beacon_tx
                0x0000000000032bf0      0x194 CMakeFiles/light_switch_provisioner_nrf52840_xxAA_s140_6.0.0.dir/__/__/__/mesh/core/src/net_beacon.c.obj
 .text.tx_complete_cb
                0x0000000000032d84       0x10 CMakeFiles/light_switch_provisioner_nrf52840_xxAA_s140_6.0.0.dir/__/__/__/mesh/core/src/net_beacon.c.obj
 .text.beacon_tx_timeout
                0x0000000000032d94        0x4 CMakeFiles/light_switch_provisioner_nrf52840_xxAA_s140_6.0.0.dir/__/__/__/mesh/core/src/net_beacon.c.obj
 .text.net_beacon_init
                0x0000000000032d98       0x94 CMakeFiles/light_switch_provisioner_nrf52840_xxAA_s140_6.0.0.dir/__/__/__/mesh/core/src/net_beacon.c.obj
                0x0000000000032d98                net_beacon_init
 .text.net_beacon_state_set
                0x0000000000032e2c       0x3c CMakeFiles/light_switch_provisioner_nrf52840_xxAA_s140_6.0.0.dir/__/__/__/mesh/core/src/net_beacon.c.obj
                0x0000000000032e2c                net_beacon_state_set
 .text.net_beacon_state_get
                0x0000000000032e68        0xc CMakeFiles/light_switch_provisioner_nrf52840_xxAA_s140_6.0.0.dir/__/__/__/mesh/core/src/net_beacon.c.obj
                0x0000000000032e68                net_beacon_state_get
 .text.net_beacon_packet_in
                0x0000000000032e74      0x134 CMakeFiles/light_switch_provisioner_nrf52840_xxAA_s140_6.0.0.dir/__/__/__/mesh/core/src/net_beacon.c.obj
                0x0000000000032e74                net_beacon_packet_in
 .text.packet_discard
                0x0000000000032fa8       0x40 CMakeFiles/light_switch_provisioner_nrf52840_xxAA_s140_6.0.0.dir/__/__/__/mesh/core/src/core_tx_adv.c.obj
 .text.packet_send
                0x0000000000032fe8       0x58 CMakeFiles/light_switch_provisioner_nrf52840_xxAA_s140_6.0.0.dir/__/__/__/mesh/core/src/core_tx_adv.c.obj
 .text.packet_alloc
                0x0000000000033040       0x5c CMakeFiles/light_switch_provisioner_nrf52840_xxAA_s140_6.0.0.dir/__/__/__/mesh/core/src/core_tx_adv.c.obj
 .text.adv_tx_complete_callback
                0x000000000003309c       0x28 CMakeFiles/light_switch_provisioner_nrf52840_xxAA_s140_6.0.0.dir/__/__/__/mesh/core/src/core_tx_adv.c.obj
 .text.core_tx_adv_init
                0x00000000000330c4       0x60 CMakeFiles/light_switch_provisioner_nrf52840_xxAA_s140_6.0.0.dir/__/__/__/mesh/core/src/core_tx_adv.c.obj
                0x00000000000330c4                core_tx_adv_init
 .text.core_tx_adv_count_set
                0x0000000000033124       0x2c CMakeFiles/light_switch_provisioner_nrf52840_xxAA_s140_6.0.0.dir/__/__/__/mesh/core/src/core_tx_adv.c.obj
                0x0000000000033124                core_tx_adv_count_set
 .text.core_tx_adv_count_get
                0x0000000000033150       0x20 CMakeFiles/light_switch_provisioner_nrf52840_xxAA_s140_6.0.0.dir/__/__/__/mesh/core/src/core_tx_adv.c.obj
                0x0000000000033150                core_tx_adv_count_get
 .text.core_tx_adv_interval_set
                0x0000000000033170       0x28 CMakeFiles/light_switch_provisioner_nrf52840_xxAA_s140_6.0.0.dir/__/__/__/mesh/core/src/core_tx_adv.c.obj
                0x0000000000033170                core_tx_adv_interval_set
 .text.core_tx_adv_interval_get
                0x0000000000033198       0x2c CMakeFiles/light_switch_provisioner_nrf52840_xxAA_s140_6.0.0.dir/__/__/__/mesh/core/src/core_tx_adv.c.obj
                0x0000000000033198                core_tx_adv_interval_get
 .text.ad_listener_subscribe
                0x00000000000331c4       0x60 CMakeFiles/light_switch_provisioner_nrf52840_xxAA_s140_6.0.0.dir/__/__/__/mesh/bearer/src/ad_listener.c.obj
                0x00000000000331c4                ad_listener_subscribe
 .text.ad_listener_process
                0x0000000000033224       0x84 CMakeFiles/light_switch_provisioner_nrf52840_xxAA_s140_6.0.0.dir/__/__/__/mesh/bearer/src/ad_listener.c.obj
                0x0000000000033224                ad_listener_process
 .text.adtype_filter_handle
                0x00000000000332a8       0x94 CMakeFiles/light_switch_provisioner_nrf52840_xxAA_s140_6.0.0.dir/__/__/__/mesh/bearer/src/ad_type_filter.c.obj
 .text.bearer_adtype_filtering_set
                0x000000000003333c       0x1c CMakeFiles/light_switch_provisioner_nrf52840_xxAA_s140_6.0.0.dir/__/__/__/mesh/bearer/src/ad_type_filter.c.obj
                0x000000000003333c                bearer_adtype_filtering_set
 .text.bearer_adtype_add
                0x0000000000033358       0x24 CMakeFiles/light_switch_provisioner_nrf52840_xxAA_s140_6.0.0.dir/__/__/__/mesh/bearer/src/ad_type_filter.c.obj
                0x0000000000033358                bearer_adtype_add
 .text.bearer_adtype_mode_set
                0x000000000003337c       0x18 CMakeFiles/light_switch_provisioner_nrf52840_xxAA_s140_6.0.0.dir/__/__/__/mesh/bearer/src/ad_type_filter.c.obj
                0x000000000003337c                bearer_adtype_mode_set
 .text.tx_complete_event_callback
                0x0000000000033394       0x34 CMakeFiles/light_switch_provisioner_nrf52840_xxAA_s140_6.0.0.dir/__/__/__/mesh/bearer/src/advertiser.c.obj
 .text.broadcast_complete_cb
                0x00000000000333c8       0x48 CMakeFiles/light_switch_provisioner_nrf52840_xxAA_s140_6.0.0.dir/__/__/__/mesh/bearer/src/advertiser.c.obj
 .text.timeout_event
                0x0000000000033410      0x12c CMakeFiles/light_switch_provisioner_nrf52840_xxAA_s140_6.0.0.dir/__/__/__/mesh/bearer/src/advertiser.c.obj
 .text.advertiser_init
                0x000000000003353c        0xc CMakeFiles/light_switch_provisioner_nrf52840_xxAA_s140_6.0.0.dir/__/__/__/mesh/bearer/src/advertiser.c.obj
                0x000000000003353c                advertiser_init
 .text.advertiser_instance_init
                0x0000000000033548      0x100 CMakeFiles/light_switch_provisioner_nrf52840_xxAA_s140_6.0.0.dir/__/__/__/mesh/bearer/src/advertiser.c.obj
                0x0000000000033548                advertiser_instance_init
 .text.advertiser_enable
                0x0000000000033648       0x44 CMakeFiles/light_switch_provisioner_nrf52840_xxAA_s140_6.0.0.dir/__/__/__/mesh/bearer/src/advertiser.c.obj
                0x0000000000033648                advertiser_enable
 .text.advertiser_packet_alloc
                0x000000000003368c       0x80 CMakeFiles/light_switch_provisioner_nrf52840_xxAA_s140_6.0.0.dir/__/__/__/mesh/bearer/src/advertiser.c.obj
                0x000000000003368c                advertiser_packet_alloc
 .text.advertiser_packet_send
                0x000000000003370c       0x84 CMakeFiles/light_switch_provisioner_nrf52840_xxAA_s140_6.0.0.dir/__/__/__/mesh/bearer/src/advertiser.c.obj
                0x000000000003370c                advertiser_packet_send
 .text.advertiser_packet_discard
                0x0000000000033790       0x2c CMakeFiles/light_switch_provisioner_nrf52840_xxAA_s140_6.0.0.dir/__/__/__/mesh/bearer/src/advertiser.c.obj
                0x0000000000033790                advertiser_packet_discard
 .text.advertiser_interval_set
                0x00000000000337bc       0x6c CMakeFiles/light_switch_provisioner_nrf52840_xxAA_s140_6.0.0.dir/__/__/__/mesh/bearer/src/advertiser.c.obj
                0x00000000000337bc                advertiser_interval_set
 .text.advertiser_flush
                0x0000000000033828       0x20 CMakeFiles/light_switch_provisioner_nrf52840_xxAA_s140_6.0.0.dir/__/__/__/mesh/bearer/src/advertiser.c.obj
                0x0000000000033828                advertiser_flush
 .text.action_switch.part.2
                0x0000000000033848       0xb4 CMakeFiles/light_switch_provisioner_nrf52840_xxAA_s140_6.0.0.dir/__/__/__/mesh/bearer/src/bearer_handler.c.obj
 .text.bearer_handler_init
                0x00000000000338fc       0x2c CMakeFiles/light_switch_provisioner_nrf52840_xxAA_s140_6.0.0.dir/__/__/__/mesh/bearer/src/bearer_handler.c.obj
                0x00000000000338fc                bearer_handler_init
 .text.bearer_handler_start
                0x0000000000033928       0x1c CMakeFiles/light_switch_provisioner_nrf52840_xxAA_s140_6.0.0.dir/__/__/__/mesh/bearer/src/bearer_handler.c.obj
                0x0000000000033928                bearer_handler_start
 .text.bearer_handler_action_enqueue
                0x0000000000033944       0x88 CMakeFiles/light_switch_provisioner_nrf52840_xxAA_s140_6.0.0.dir/__/__/__/mesh/bearer/src/bearer_handler.c.obj
                0x0000000000033944                bearer_handler_action_enqueue
 .text.bearer_handler_action_end
                0x00000000000339cc       0x68 CMakeFiles/light_switch_provisioner_nrf52840_xxAA_s140_6.0.0.dir/__/__/__/mesh/bearer/src/bearer_handler.c.obj
                0x00000000000339cc                bearer_handler_action_end
 .text.bearer_handler_radio_irq_handler
                0x0000000000033a34       0x58 CMakeFiles/light_switch_provisioner_nrf52840_xxAA_s140_6.0.0.dir/__/__/__/mesh/bearer/src/bearer_handler.c.obj
                0x0000000000033a34                bearer_handler_radio_irq_handler
 .text.bearer_handler_timer_irq_handler
                0x0000000000033a8c       0x34 CMakeFiles/light_switch_provisioner_nrf52840_xxAA_s140_6.0.0.dir/__/__/__/mesh/bearer/src/bearer_handler.c.obj
                0x0000000000033a8c                bearer_handler_timer_irq_handler
 .text.bearer_handler_on_ts_begin
                0x0000000000033ac0       0x3c CMakeFiles/light_switch_provisioner_nrf52840_xxAA_s140_6.0.0.dir/__/__/__/mesh/bearer/src/bearer_handler.c.obj
                0x0000000000033ac0                bearer_handler_on_ts_begin
 .text.bearer_handler_on_ts_end
                0x0000000000033afc       0x38 CMakeFiles/light_switch_provisioner_nrf52840_xxAA_s140_6.0.0.dir/__/__/__/mesh/bearer/src/bearer_handler.c.obj
                0x0000000000033afc                bearer_handler_on_ts_end
 .text.radio_irq_handler
                0x0000000000033b34       0x98 CMakeFiles/light_switch_provisioner_nrf52840_xxAA_s140_6.0.0.dir/__/__/__/mesh/bearer/src/broadcast.c.obj
 .text.broadcast_start
                0x0000000000033bcc       0x8c CMakeFiles/light_switch_provisioner_nrf52840_xxAA_s140_6.0.0.dir/__/__/__/mesh/bearer/src/broadcast.c.obj
 .text.broadcast_send
                0x0000000000033c58       0x74 CMakeFiles/light_switch_provisioner_nrf52840_xxAA_s140_6.0.0.dir/__/__/__/mesh/bearer/src/broadcast.c.obj
                0x0000000000033c58                broadcast_send
 .text.fen_filter_start
                0x0000000000033ccc       0x38 CMakeFiles/light_switch_provisioner_nrf52840_xxAA_s140_6.0.0.dir/__/__/__/mesh/bearer/src/filter_engine.c.obj
                0x0000000000033ccc                fen_filter_start
 .text.fen_filter_stop
                0x0000000000033d04       0x2c CMakeFiles/light_switch_provisioner_nrf52840_xxAA_s140_6.0.0.dir/__/__/__/mesh/bearer/src/filter_engine.c.obj
                0x0000000000033d04                fen_filter_stop
 .text.fen_filters_apply
                0x0000000000033d30       0x34 CMakeFiles/light_switch_provisioner_nrf52840_xxAA_s140_6.0.0.dir/__/__/__/mesh/bearer/src/filter_engine.c.obj
                0x0000000000033d30                fen_filters_apply
 .text.radio_config_reset
                0x0000000000033d64       0x38 CMakeFiles/light_switch_provisioner_nrf52840_xxAA_s140_6.0.0.dir/__/__/__/mesh/bearer/src/radio_config.c.obj
                0x0000000000033d64                radio_config_reset
 .text.radio_config_channel_set
                0x0000000000033d9c       0x28 CMakeFiles/light_switch_provisioner_nrf52840_xxAA_s140_6.0.0.dir/__/__/__/mesh/bearer/src/radio_config.c.obj
                0x0000000000033d9c                radio_config_channel_set
 .text.radio_config_config
                0x0000000000033dc4       0x94 CMakeFiles/light_switch_provisioner_nrf52840_xxAA_s140_6.0.0.dir/__/__/__/mesh/bearer/src/radio_config.c.obj
                0x0000000000033dc4                radio_config_config
 .text.radio_config_access_addr_set
                0x0000000000033e58       0x58 CMakeFiles/light_switch_provisioner_nrf52840_xxAA_s140_6.0.0.dir/__/__/__/mesh/bearer/src/radio_config.c.obj
                0x0000000000033e58                radio_config_access_addr_set
 .text.scan_window_end
                0x0000000000033eb0       0x28 CMakeFiles/light_switch_provisioner_nrf52840_xxAA_s140_6.0.0.dir/__/__/__/mesh/bearer/src/scanner.c.obj
 .text.scan_window_start
                0x0000000000033ed8       0x38 CMakeFiles/light_switch_provisioner_nrf52840_xxAA_s140_6.0.0.dir/__/__/__/mesh/bearer/src/scanner.c.obj
 .text.radio_start
                0x0000000000033f10      0x1a8 CMakeFiles/light_switch_provisioner_nrf52840_xxAA_s140_6.0.0.dir/__/__/__/mesh/bearer/src/scanner.c.obj
 .text.scanner_radio_start
                0x00000000000340b8      0x14c CMakeFiles/light_switch_provisioner_nrf52840_xxAA_s140_6.0.0.dir/__/__/__/mesh/bearer/src/scanner.c.obj
                0x00000000000340b8                scanner_radio_start
 .text.scanner_radio_stop
                0x0000000000034204       0x34 CMakeFiles/light_switch_provisioner_nrf52840_xxAA_s140_6.0.0.dir/__/__/__/mesh/bearer/src/scanner.c.obj
                0x0000000000034204                scanner_radio_stop
 .text.scanner_radio_irq_handler
                0x0000000000034238      0x200 CMakeFiles/light_switch_provisioner_nrf52840_xxAA_s140_6.0.0.dir/__/__/__/mesh/bearer/src/scanner.c.obj
                0x0000000000034238                scanner_radio_irq_handler
 .text.scanner_enable
                0x0000000000034438       0x50 CMakeFiles/light_switch_provisioner_nrf52840_xxAA_s140_6.0.0.dir/__/__/__/mesh/bearer/src/scanner.c.obj
                0x0000000000034438                scanner_enable
 .text.scanner_rx
                0x0000000000034488       0x8c CMakeFiles/light_switch_provisioner_nrf52840_xxAA_s140_6.0.0.dir/__/__/__/mesh/bearer/src/scanner.c.obj
                0x0000000000034488                scanner_rx
 .text.scanner_packet_release
                0x0000000000034514       0x40 CMakeFiles/light_switch_provisioner_nrf52840_xxAA_s140_6.0.0.dir/__/__/__/mesh/bearer/src/scanner.c.obj
                0x0000000000034514                scanner_packet_release
 .text.scanner_rx_pending
                0x0000000000034554        0xc CMakeFiles/light_switch_provisioner_nrf52840_xxAA_s140_6.0.0.dir/__/__/__/mesh/bearer/src/scanner.c.obj
                0x0000000000034554                scanner_rx_pending
 .text.scanner_config_reset
                0x0000000000034560       0xa4 CMakeFiles/light_switch_provisioner_nrf52840_xxAA_s140_6.0.0.dir/__/__/__/mesh/bearer/src/scanner.c.obj
                0x0000000000034560                scanner_config_reset
 .text.scanner_init
                0x0000000000034604       0x54 CMakeFiles/light_switch_provisioner_nrf52840_xxAA_s140_6.0.0.dir/__/__/__/mesh/bearer/src/scanner.c.obj
                0x0000000000034604                scanner_init
 .text.config_opcode_handler
                0x0000000000034658      0x100 CMakeFiles/light_switch_provisioner_nrf52840_xxAA_s140_6.0.0.dir/__/__/__/models/config/src/config_client.c.obj
 .text.reliable_status_cb
                0x0000000000034758       0x50 CMakeFiles/light_switch_provisioner_nrf52840_xxAA_s140_6.0.0.dir/__/__/__/models/config/src/config_client.c.obj
 .text.config_client_init
                0x00000000000347a8       0x50 CMakeFiles/light_switch_provisioner_nrf52840_xxAA_s140_6.0.0.dir/__/__/__/models/config/src/config_client.c.obj
                0x00000000000347a8                config_client_init
 .text.config_client_server_set
                0x00000000000347f8       0xa0 CMakeFiles/light_switch_provisioner_nrf52840_xxAA_s140_6.0.0.dir/__/__/__/models/config/src/config_client.c.obj
                0x00000000000347f8                config_client_server_set
 .text.config_client_server_bind
                0x0000000000034898       0x34 CMakeFiles/light_switch_provisioner_nrf52840_xxAA_s140_6.0.0.dir/__/__/__/models/config/src/config_client.c.obj
                0x0000000000034898                config_client_server_bind
 .text.config_client_composition_data_get
                0x00000000000348cc       0xb0 CMakeFiles/light_switch_provisioner_nrf52840_xxAA_s140_6.0.0.dir/__/__/__/models/config/src/config_client.c.obj
                0x00000000000348cc                config_client_composition_data_get
 .text.config_client_appkey_add
                0x000000000003497c       0xec CMakeFiles/light_switch_provisioner_nrf52840_xxAA_s140_6.0.0.dir/__/__/__/models/config/src/config_client.c.obj
                0x000000000003497c                config_client_appkey_add
 .text.config_client_model_publication_set
                0x0000000000034a68      0x1e4 CMakeFiles/light_switch_provisioner_nrf52840_xxAA_s140_6.0.0.dir/__/__/__/models/config/src/config_client.c.obj
                0x0000000000034a68                config_client_model_publication_set
 .text.config_client_model_subscription_add
                0x0000000000034c4c      0x188 CMakeFiles/light_switch_provisioner_nrf52840_xxAA_s140_6.0.0.dir/__/__/__/models/config/src/config_client.c.obj
                0x0000000000034c4c                config_client_model_subscription_add
 .text.config_client_model_app_bind
                0x0000000000034dd4       0xf0 CMakeFiles/light_switch_provisioner_nrf52840_xxAA_s140_6.0.0.dir/__/__/__/models/config/src/config_client.c.obj
                0x0000000000034dd4                config_client_model_app_bind
 .text.config_client_pending_msg_cancel
                0x0000000000034ec4        0xc CMakeFiles/light_switch_provisioner_nrf52840_xxAA_s140_6.0.0.dir/__/__/__/models/config/src/config_client.c.obj
                0x0000000000034ec4                config_client_pending_msg_cancel
 .text.config_composition_data_get
                0x0000000000034ed0      0x1cc CMakeFiles/light_switch_provisioner_nrf52840_xxAA_s140_6.0.0.dir/__/__/__/models/config/src/composition_data.c.obj
                0x0000000000034ed0                config_composition_data_get
 .text.config_server_heartbeat_publication_count_decrement
                0x000000000003509c       0x1c CMakeFiles/light_switch_provisioner_nrf52840_xxAA_s140_6.0.0.dir/__/__/__/models/config/src/config_server.c.obj
 .text.config_server_heartbeat_publication_params_get
                0x00000000000350b8       0x38 CMakeFiles/light_switch_provisioner_nrf52840_xxAA_s140_6.0.0.dir/__/__/__/models/config/src/config_server.c.obj
 .text.handle_config_network_transmit_set
                0x00000000000350f0      0x118 CMakeFiles/light_switch_provisioner_nrf52840_xxAA_s140_6.0.0.dir/__/__/__/models/config/src/config_server.c.obj
 .text.handle_node_reset
                0x0000000000035208       0x30 CMakeFiles/light_switch_provisioner_nrf52840_xxAA_s140_6.0.0.dir/__/__/__/models/config/src/config_server.c.obj
 .text.handle_config_relay_set
                0x0000000000035238      0x1a8 CMakeFiles/light_switch_provisioner_nrf52840_xxAA_s140_6.0.0.dir/__/__/__/models/config/src/config_server.c.obj
 .text.send_subscription_status
                0x00000000000353e0       0x50 CMakeFiles/light_switch_provisioner_nrf52840_xxAA_s140_6.0.0.dir/__/__/__/models/config/src/config_server.c.obj
 .text.handle_netkey_get
                0x0000000000035430       0x70 CMakeFiles/light_switch_provisioner_nrf52840_xxAA_s140_6.0.0.dir/__/__/__/models/config/src/config_server.c.obj
 .text.handle_model_app_bind_unbind
                0x00000000000354a0      0x228 CMakeFiles/light_switch_provisioner_nrf52840_xxAA_s140_6.0.0.dir/__/__/__/models/config/src/config_server.c.obj
 .text.status_error_sub_send
                0x00000000000356c8      0x180 CMakeFiles/light_switch_provisioner_nrf52840_xxAA_s140_6.0.0.dir/__/__/__/models/config/src/config_server.c.obj
 .text.send_publication_status
                0x0000000000035848      0x1a8 CMakeFiles/light_switch_provisioner_nrf52840_xxAA_s140_6.0.0.dir/__/__/__/models/config/src/config_server.c.obj
 .text.handle_config_key_refresh_phase_set
                0x00000000000359f0       0xf0 CMakeFiles/light_switch_provisioner_nrf52840_xxAA_s140_6.0.0.dir/__/__/__/models/config/src/config_server.c.obj
 .text.handle_config_default_ttl_set
                0x0000000000035ae0       0x70 CMakeFiles/light_switch_provisioner_nrf52840_xxAA_s140_6.0.0.dir/__/__/__/models/config/src/config_server.c.obj
 .text.handle_heartbeat_publication_set
                0x0000000000035b50      0x168 CMakeFiles/light_switch_provisioner_nrf52840_xxAA_s140_6.0.0.dir/__/__/__/models/config/src/config_server.c.obj
 .text.mesh_event_cb
                0x0000000000035cb8       0x70 CMakeFiles/light_switch_provisioner_nrf52840_xxAA_s140_6.0.0.dir/__/__/__/models/config/src/config_server.c.obj
 .text.handle_node_identity_set
                0x0000000000035d28       0x48 CMakeFiles/light_switch_provisioner_nrf52840_xxAA_s140_6.0.0.dir/__/__/__/models/config/src/config_server.c.obj
 .text.handle_node_identity_get
                0x0000000000035d70       0x44 CMakeFiles/light_switch_provisioner_nrf52840_xxAA_s140_6.0.0.dir/__/__/__/models/config/src/config_server.c.obj
 .text.handle_config_gatt_proxy_set
                0x0000000000035db4       0x40 CMakeFiles/light_switch_provisioner_nrf52840_xxAA_s140_6.0.0.dir/__/__/__/models/config/src/config_server.c.obj
 .text.handle_config_friend_set
                0x0000000000035df4       0x40 CMakeFiles/light_switch_provisioner_nrf52840_xxAA_s140_6.0.0.dir/__/__/__/models/config/src/config_server.c.obj
 .text.status_error_pub_send
                0x0000000000035e34       0xc8 CMakeFiles/light_switch_provisioner_nrf52840_xxAA_s140_6.0.0.dir/__/__/__/models/config/src/config_server.c.obj
 .text.handle_config_key_refresh_phase_get
                0x0000000000035efc       0x70 CMakeFiles/light_switch_provisioner_nrf52840_xxAA_s140_6.0.0.dir/__/__/__/models/config/src/config_server.c.obj
 .text.handle_config_default_ttl_get
                0x0000000000035f6c       0x48 CMakeFiles/light_switch_provisioner_nrf52840_xxAA_s140_6.0.0.dir/__/__/__/models/config/src/config_server.c.obj
 .text.handle_config_beacon_set
                0x0000000000035fb4       0x80 CMakeFiles/light_switch_provisioner_nrf52840_xxAA_s140_6.0.0.dir/__/__/__/models/config/src/config_server.c.obj
 .text.handle_composition_data_get
                0x0000000000036034       0x64 CMakeFiles/light_switch_provisioner_nrf52840_xxAA_s140_6.0.0.dir/__/__/__/models/config/src/config_server.c.obj
 .text.handle_appkey_update
                0x0000000000036098      0x108 CMakeFiles/light_switch_provisioner_nrf52840_xxAA_s140_6.0.0.dir/__/__/__/models/config/src/config_server.c.obj
 .text.handle_model_app_get
                0x00000000000361a0      0x240 CMakeFiles/light_switch_provisioner_nrf52840_xxAA_s140_6.0.0.dir/__/__/__/models/config/src/config_server.c.obj
 .text.handle_appkey_get
                0x00000000000363e0      0x104 CMakeFiles/light_switch_provisioner_nrf52840_xxAA_s140_6.0.0.dir/__/__/__/models/config/src/config_server.c.obj
 .text.handle_heartbeat_subscription_get
                0x00000000000364e4       0xdc CMakeFiles/light_switch_provisioner_nrf52840_xxAA_s140_6.0.0.dir/__/__/__/models/config/src/config_server.c.obj
 .text.handle_config_gatt_proxy_get
                0x00000000000365c0       0x38 CMakeFiles/light_switch_provisioner_nrf52840_xxAA_s140_6.0.0.dir/__/__/__/models/config/src/config_server.c.obj
 .text.handle_config_friend_get
                0x00000000000365f8       0x38 CMakeFiles/light_switch_provisioner_nrf52840_xxAA_s140_6.0.0.dir/__/__/__/models/config/src/config_server.c.obj
 .text.handle_heartbeat_subscription_set
                0x0000000000036630      0x114 CMakeFiles/light_switch_provisioner_nrf52840_xxAA_s140_6.0.0.dir/__/__/__/models/config/src/config_server.c.obj
 .text.handle_heartbeat_publication_get
                0x0000000000036744       0xcc CMakeFiles/light_switch_provisioner_nrf52840_xxAA_s140_6.0.0.dir/__/__/__/models/config/src/config_server.c.obj
 .text.handle_config_beacon_get
                0x0000000000036810       0x40 CMakeFiles/light_switch_provisioner_nrf52840_xxAA_s140_6.0.0.dir/__/__/__/models/config/src/config_server.c.obj
 .text.handle_appkey_delete
                0x0000000000036850      0x11c CMakeFiles/light_switch_provisioner_nrf52840_xxAA_s140_6.0.0.dir/__/__/__/models/config/src/config_server.c.obj
 .text.handle_appkey_add
                0x000000000003696c      0x124 CMakeFiles/light_switch_provisioner_nrf52840_xxAA_s140_6.0.0.dir/__/__/__/models/config/src/config_server.c.obj
 .text.handle_config_vendor_model_subscription_get
                0x0000000000036a90      0x188 CMakeFiles/light_switch_provisioner_nrf52840_xxAA_s140_6.0.0.dir/__/__/__/models/config/src/config_server.c.obj
 .text.handle_netkey_add_update
                0x0000000000036c18       0xec CMakeFiles/light_switch_provisioner_nrf52840_xxAA_s140_6.0.0.dir/__/__/__/models/config/src/config_server.c.obj
 .text.handle_netkey_delete
                0x0000000000036d04      0x118 CMakeFiles/light_switch_provisioner_nrf52840_xxAA_s140_6.0.0.dir/__/__/__/models/config/src/config_server.c.obj
 .text.handle_config_network_transmit_get
                0x0000000000036e1c       0x94 CMakeFiles/light_switch_provisioner_nrf52840_xxAA_s140_6.0.0.dir/__/__/__/models/config/src/config_server.c.obj
 .text.handle_config_model_publication_get
                0x0000000000036eb0      0x144 CMakeFiles/light_switch_provisioner_nrf52840_xxAA_s140_6.0.0.dir/__/__/__/models/config/src/config_server.c.obj
 .text.handle_config_relay_get
                0x0000000000036ff4       0xcc CMakeFiles/light_switch_provisioner_nrf52840_xxAA_s140_6.0.0.dir/__/__/__/models/config/src/config_server.c.obj
 .text.handle_config_model_publication_set
                0x00000000000370c0      0x3d4 CMakeFiles/light_switch_provisioner_nrf52840_xxAA_s140_6.0.0.dir/__/__/__/models/config/src/config_server.c.obj
 .text.handle_config_model_subscription_delete_all
                0x0000000000037494      0x2ec CMakeFiles/light_switch_provisioner_nrf52840_xxAA_s140_6.0.0.dir/__/__/__/models/config/src/config_server.c.obj
 .text.handle_config_model_subscription_virtual_address_delete
                0x0000000000037780      0x2e0 CMakeFiles/light_switch_provisioner_nrf52840_xxAA_s140_6.0.0.dir/__/__/__/models/config/src/config_server.c.obj
 .text.handle_config_model_subscription_virtual_address_add
                0x0000000000037a60      0x2cc CMakeFiles/light_switch_provisioner_nrf52840_xxAA_s140_6.0.0.dir/__/__/__/models/config/src/config_server.c.obj
 .text.handle_config_model_subscription_delete
                0x0000000000037d2c      0x2dc CMakeFiles/light_switch_provisioner_nrf52840_xxAA_s140_6.0.0.dir/__/__/__/models/config/src/config_server.c.obj
 .text.handle_config_model_subscription_add
                0x0000000000038008      0x2a8 CMakeFiles/light_switch_provisioner_nrf52840_xxAA_s140_6.0.0.dir/__/__/__/models/config/src/config_server.c.obj
 .text.handle_config_model_subscription_virtual_address_overwrite
                0x00000000000382b0      0x354 CMakeFiles/light_switch_provisioner_nrf52840_xxAA_s140_6.0.0.dir/__/__/__/models/config/src/config_server.c.obj
 .text.handle_config_model_subscription_overwrite
                0x0000000000038604      0x334 CMakeFiles/light_switch_provisioner_nrf52840_xxAA_s140_6.0.0.dir/__/__/__/models/config/src/config_server.c.obj
 .text.handle_config_sig_model_subscription_get
                0x0000000000038938      0x29c CMakeFiles/light_switch_provisioner_nrf52840_xxAA_s140_6.0.0.dir/__/__/__/models/config/src/config_server.c.obj
 .text.config_server_init
                0x0000000000038bd4       0x70 CMakeFiles/light_switch_provisioner_nrf52840_xxAA_s140_6.0.0.dir/__/__/__/models/config/src/config_server.c.obj
                0x0000000000038bd4                config_server_init
 .text.config_server_bind
                0x0000000000038c44       0x10 CMakeFiles/light_switch_provisioner_nrf52840_xxAA_s140_6.0.0.dir/__/__/__/models/config/src/config_server.c.obj
                0x0000000000038c44                config_server_bind
 .text.packed_index_list_create
                0x0000000000038c54       0x3c CMakeFiles/light_switch_provisioner_nrf52840_xxAA_s140_6.0.0.dir/__/__/__/models/config/src/packed_index_list.c.obj
                0x0000000000038c54                packed_index_list_create
 .text.attention_timer_handler
                0x0000000000038c90       0x6c CMakeFiles/light_switch_provisioner_nrf52840_xxAA_s140_6.0.0.dir/__/__/__/models/health/src/health_server.c.obj
 .text.handle_attention_get
                0x0000000000038cfc       0x40 CMakeFiles/light_switch_provisioner_nrf52840_xxAA_s140_6.0.0.dir/__/__/__/models/health/src/health_server.c.obj
 .text.handle_period_get
                0x0000000000038d3c       0x3c CMakeFiles/light_switch_provisioner_nrf52840_xxAA_s140_6.0.0.dir/__/__/__/models/health/src/health_server.c.obj
 .text.handle_attention_set
                0x0000000000038d78       0xdc CMakeFiles/light_switch_provisioner_nrf52840_xxAA_s140_6.0.0.dir/__/__/__/models/health/src/health_server.c.obj
 .text.handle_period_set
                0x0000000000038e54       0x54 CMakeFiles/light_switch_provisioner_nrf52840_xxAA_s140_6.0.0.dir/__/__/__/models/health/src/health_server.c.obj
 .text.send_fault_status
                0x0000000000038ea8      0x3b4 CMakeFiles/light_switch_provisioner_nrf52840_xxAA_s140_6.0.0.dir/__/__/__/models/health/src/health_server.c.obj
 .text.health_publish_timeout_handler
                0x000000000003925c        0xc CMakeFiles/light_switch_provisioner_nrf52840_xxAA_s140_6.0.0.dir/__/__/__/models/health/src/health_server.c.obj
 .text.handle_fault_test
                0x0000000000039268       0x8c CMakeFiles/light_switch_provisioner_nrf52840_xxAA_s140_6.0.0.dir/__/__/__/models/health/src/health_server.c.obj
 .text.handle_fault_clear
                0x00000000000392f4       0x54 CMakeFiles/light_switch_provisioner_nrf52840_xxAA_s140_6.0.0.dir/__/__/__/models/health/src/health_server.c.obj
 .text.handle_fault_get
                0x0000000000039348       0x40 CMakeFiles/light_switch_provisioner_nrf52840_xxAA_s140_6.0.0.dir/__/__/__/models/health/src/health_server.c.obj
 .text.health_server_init
                0x0000000000039388       0x68 CMakeFiles/light_switch_provisioner_nrf52840_xxAA_s140_6.0.0.dir/__/__/__/models/health/src/health_server.c.obj
                0x0000000000039388                health_server_init
 .text.handle_fault_status
                0x00000000000393f0       0x4c CMakeFiles/light_switch_provisioner_nrf52840_xxAA_s140_6.0.0.dir/__/__/__/models/health/src/health_client.c.obj
 .text.handle_period_status
                0x000000000003943c       0x2c CMakeFiles/light_switch_provisioner_nrf52840_xxAA_s140_6.0.0.dir/__/__/__/models/health/src/health_client.c.obj
 .text.handle_attention_status
                0x0000000000039468       0x2c CMakeFiles/light_switch_provisioner_nrf52840_xxAA_s140_6.0.0.dir/__/__/__/models/health/src/health_client.c.obj
 .text.health_client_init
                0x0000000000039494       0x54 CMakeFiles/light_switch_provisioner_nrf52840_xxAA_s140_6.0.0.dir/__/__/__/models/health/src/health_client.c.obj
                0x0000000000039494                health_client_init
 .text.schedule_publication_timer
                0x00000000000394e8      0x2d0 CMakeFiles/light_switch_provisioner_nrf52840_xxAA_s140_6.0.0.dir/__/__/__/mesh/access/src/access_publish.c.obj
 .text.publish_timer_tick
                0x00000000000397b8      0x140 CMakeFiles/light_switch_provisioner_nrf52840_xxAA_s140_6.0.0.dir/__/__/__/mesh/access/src/access_publish.c.obj
 .text.access_publish_init
                0x00000000000398f8       0x38 CMakeFiles/light_switch_provisioner_nrf52840_xxAA_s140_6.0.0.dir/__/__/__/mesh/access/src/access_publish.c.obj
                0x00000000000398f8                access_publish_init
 .text.access_publish_period_set
                0x0000000000039930      0x118 CMakeFiles/light_switch_provisioner_nrf52840_xxAA_s140_6.0.0.dir/__/__/__/mesh/access/src/access_publish.c.obj
                0x0000000000039930                access_publish_period_set
 .text.access_publish_period_get
                0x0000000000039a48       0x2c CMakeFiles/light_switch_provisioner_nrf52840_xxAA_s140_6.0.0.dir/__/__/__/mesh/access/src/access_publish.c.obj
                0x0000000000039a48                access_publish_period_get
 .text.flash_manager_mem_available
                0x0000000000039a74        0x4 CMakeFiles/light_switch_provisioner_nrf52840_xxAA_s140_6.0.0.dir/__/__/__/mesh/access/src/access.c.obj
 .text.flash_invalidate_complete
                0x0000000000039a78        0x8 CMakeFiles/light_switch_provisioner_nrf52840_xxAA_s140_6.0.0.dir/__/__/__/mesh/access/src/access.c.obj
 .text.access_flash_config_clear
                0x0000000000039a80       0x28 CMakeFiles/light_switch_provisioner_nrf52840_xxAA_s140_6.0.0.dir/__/__/__/mesh/access/src/access.c.obj
 .text.handle_incoming
                0x0000000000039aa8      0x198 CMakeFiles/light_switch_provisioner_nrf52840_xxAA_s140_6.0.0.dir/__/__/__/mesh/access/src/access.c.obj
 .text.mesh_evt_cb
                0x0000000000039c40      0x158 CMakeFiles/light_switch_provisioner_nrf52840_xxAA_s140_6.0.0.dir/__/__/__/mesh/access/src/access.c.obj
 .text.add_flash_manager
                0x0000000000039d98       0x58 CMakeFiles/light_switch_provisioner_nrf52840_xxAA_s140_6.0.0.dir/__/__/__/mesh/access/src/access.c.obj
 .text.flash_write_complete
                0x0000000000039df0       0x4c CMakeFiles/light_switch_provisioner_nrf52840_xxAA_s140_6.0.0.dir/__/__/__/mesh/access/src/access.c.obj
 .text.access_flash_config_store
                0x0000000000039e3c      0x288 CMakeFiles/light_switch_provisioner_nrf52840_xxAA_s140_6.0.0.dir/__/__/__/mesh/access/src/access.c.obj
                0x0000000000039e3c                access_flash_config_store
 .text.flash_remove_complete
                0x000000000003a0c4       0xec CMakeFiles/light_switch_provisioner_nrf52840_xxAA_s140_6.0.0.dir/__/__/__/mesh/access/src/access.c.obj
 .text.access_flash_config_load
                0x000000000003a1b0      0x2e0 CMakeFiles/light_switch_provisioner_nrf52840_xxAA_s140_6.0.0.dir/__/__/__/mesh/access/src/access.c.obj
                0x000000000003a1b0                access_flash_config_load
 .text.access_clear
                0x000000000003a490       0x78 CMakeFiles/light_switch_provisioner_nrf52840_xxAA_s140_6.0.0.dir/__/__/__/mesh/access/src/access.c.obj
                0x000000000003a490                access_clear
 .text.access_init
                0x000000000003a508       0xc0 CMakeFiles/light_switch_provisioner_nrf52840_xxAA_s140_6.0.0.dir/__/__/__/mesh/access/src/access.c.obj
                0x000000000003a508                access_init
 .text.access_model_add
                0x000000000003a5c8      0x2a0 CMakeFiles/light_switch_provisioner_nrf52840_xxAA_s140_6.0.0.dir/__/__/__/mesh/access/src/access.c.obj
                0x000000000003a5c8                access_model_add
 .text.access_model_publish
                0x000000000003a868      0x3d0 CMakeFiles/light_switch_provisioner_nrf52840_xxAA_s140_6.0.0.dir/__/__/__/mesh/access/src/access.c.obj
                0x000000000003a868                access_model_publish
 .text.access_model_reply
                0x000000000003ac38      0x400 CMakeFiles/light_switch_provisioner_nrf52840_xxAA_s140_6.0.0.dir/__/__/__/mesh/access/src/access.c.obj
                0x000000000003ac38                access_model_reply
 .text.access_model_publish_address_set
                0x000000000003b038       0x40 CMakeFiles/light_switch_provisioner_nrf52840_xxAA_s140_6.0.0.dir/__/__/__/mesh/access/src/access.c.obj
                0x000000000003b038                access_model_publish_address_set
 .text.access_model_publish_address_get
                0x000000000003b078       0x2c CMakeFiles/light_switch_provisioner_nrf52840_xxAA_s140_6.0.0.dir/__/__/__/mesh/access/src/access.c.obj
                0x000000000003b078                access_model_publish_address_get
 .text.access_model_publish_retransmit_set
                0x000000000003b0a4       0x58 CMakeFiles/light_switch_provisioner_nrf52840_xxAA_s140_6.0.0.dir/__/__/__/mesh/access/src/access.c.obj
                0x000000000003b0a4                access_model_publish_retransmit_set
 .text.access_model_publish_retransmit_get
                0x000000000003b0fc       0x2c CMakeFiles/light_switch_provisioner_nrf52840_xxAA_s140_6.0.0.dir/__/__/__/mesh/access/src/access.c.obj
                0x000000000003b0fc                access_model_publish_retransmit_get
 .text.access_model_publish_period_set
                0x000000000003b128       0x78 CMakeFiles/light_switch_provisioner_nrf52840_xxAA_s140_6.0.0.dir/__/__/__/mesh/access/src/access.c.obj
                0x000000000003b128                access_model_publish_period_set
 .text.access_model_publish_period_get
                0x000000000003b1a0       0x40 CMakeFiles/light_switch_provisioner_nrf52840_xxAA_s140_6.0.0.dir/__/__/__/mesh/access/src/access.c.obj
                0x000000000003b1a0                access_model_publish_period_get
 .text.access_model_subscription_list_alloc
                0x000000000003b1e0       0x7c CMakeFiles/light_switch_provisioner_nrf52840_xxAA_s140_6.0.0.dir/__/__/__/mesh/access/src/access.c.obj
                0x000000000003b1e0                access_model_subscription_list_alloc
 .text.access_model_subscription_add
                0x000000000003b25c       0x70 CMakeFiles/light_switch_provisioner_nrf52840_xxAA_s140_6.0.0.dir/__/__/__/mesh/access/src/access.c.obj
                0x000000000003b25c                access_model_subscription_add
 .text.access_model_subscription_remove
                0x000000000003b2cc       0x6c CMakeFiles/light_switch_provisioner_nrf52840_xxAA_s140_6.0.0.dir/__/__/__/mesh/access/src/access.c.obj
                0x000000000003b2cc                access_model_subscription_remove
 .text.access_model_subscriptions_get
                0x000000000003b338       0x8c CMakeFiles/light_switch_provisioner_nrf52840_xxAA_s140_6.0.0.dir/__/__/__/mesh/access/src/access.c.obj
                0x000000000003b338                access_model_subscriptions_get
 .text.access_model_application_bind
                0x000000000003b3c4       0x64 CMakeFiles/light_switch_provisioner_nrf52840_xxAA_s140_6.0.0.dir/__/__/__/mesh/access/src/access.c.obj
                0x000000000003b3c4                access_model_application_bind
 .text.access_model_application_unbind
                0x000000000003b428       0x64 CMakeFiles/light_switch_provisioner_nrf52840_xxAA_s140_6.0.0.dir/__/__/__/mesh/access/src/access.c.obj
                0x000000000003b428                access_model_application_unbind
 .text.access_model_applications_get
                0x000000000003b48c       0x50 CMakeFiles/light_switch_provisioner_nrf52840_xxAA_s140_6.0.0.dir/__/__/__/mesh/access/src/access.c.obj
                0x000000000003b48c                access_model_applications_get
 .text.access_model_publish_application_set
                0x000000000003b4dc       0x40 CMakeFiles/light_switch_provisioner_nrf52840_xxAA_s140_6.0.0.dir/__/__/__/mesh/access/src/access.c.obj
                0x000000000003b4dc                access_model_publish_application_set
 .text.access_model_publish_application_get
                0x000000000003b51c       0x2c CMakeFiles/light_switch_provisioner_nrf52840_xxAA_s140_6.0.0.dir/__/__/__/mesh/access/src/access.c.obj
                0x000000000003b51c                access_model_publish_application_get
 .text.access_default_ttl_set
                0x000000000003b548       0x1c CMakeFiles/light_switch_provisioner_nrf52840_xxAA_s140_6.0.0.dir/__/__/__/mesh/access/src/access.c.obj
                0x000000000003b548                access_default_ttl_set
 .text.access_default_ttl_get
                0x000000000003b564        0xc CMakeFiles/light_switch_provisioner_nrf52840_xxAA_s140_6.0.0.dir/__/__/__/mesh/access/src/access.c.obj
                0x000000000003b564                access_default_ttl_get
 .text.access_model_publish_ttl_set
                0x000000000003b570       0x44 CMakeFiles/light_switch_provisioner_nrf52840_xxAA_s140_6.0.0.dir/__/__/__/mesh/access/src/access.c.obj
                0x000000000003b570                access_model_publish_ttl_set
 .text.access_model_publish_ttl_get
                0x000000000003b5b4       0x2c CMakeFiles/light_switch_provisioner_nrf52840_xxAA_s140_6.0.0.dir/__/__/__/mesh/access/src/access.c.obj
                0x000000000003b5b4                access_model_publish_ttl_get
 .text.access_element_location_get
                0x000000000003b5e0       0x18 CMakeFiles/light_switch_provisioner_nrf52840_xxAA_s140_6.0.0.dir/__/__/__/mesh/access/src/access.c.obj
                0x000000000003b5e0                access_element_location_get
 .text.access_element_sig_model_count_get
                0x000000000003b5f8       0x18 CMakeFiles/light_switch_provisioner_nrf52840_xxAA_s140_6.0.0.dir/__/__/__/mesh/access/src/access.c.obj
                0x000000000003b5f8                access_element_sig_model_count_get
 .text.access_element_vendor_model_count_get
                0x000000000003b610       0x18 CMakeFiles/light_switch_provisioner_nrf52840_xxAA_s140_6.0.0.dir/__/__/__/mesh/access/src/access.c.obj
                0x000000000003b610                access_element_vendor_model_count_get
 .text.access_model_id_get
                0x000000000003b628       0x40 CMakeFiles/light_switch_provisioner_nrf52840_xxAA_s140_6.0.0.dir/__/__/__/mesh/access/src/access.c.obj
                0x000000000003b628                access_model_id_get
 .text.access_handle_get
                0x000000000003b668       0x94 CMakeFiles/light_switch_provisioner_nrf52840_xxAA_s140_6.0.0.dir/__/__/__/mesh/access/src/access.c.obj
                0x000000000003b668                access_handle_get
 .text.access_element_models_get
                0x000000000003b6fc       0xa8 CMakeFiles/light_switch_provisioner_nrf52840_xxAA_s140_6.0.0.dir/__/__/__/mesh/access/src/access.c.obj
                0x000000000003b6fc                access_element_models_get
 .text.access_model_p_args_get
                0x000000000003b7a4       0x2c CMakeFiles/light_switch_provisioner_nrf52840_xxAA_s140_6.0.0.dir/__/__/__/mesh/access/src/access.c.obj
                0x000000000003b7a4                access_model_p_args_get
 .text.access_model_publication_stop
                0x000000000003b7d0       0x5c CMakeFiles/light_switch_provisioner_nrf52840_xxAA_s140_6.0.0.dir/__/__/__/mesh/access/src/access.c.obj
                0x000000000003b7d0                access_model_publication_stop
 .text.access_model_publication_by_appkey_stop
                0x000000000003b82c      0x124 CMakeFiles/light_switch_provisioner_nrf52840_xxAA_s140_6.0.0.dir/__/__/__/mesh/access/src/access.c.obj
                0x000000000003b82c                access_model_publication_by_appkey_stop
 .text.remove_and_reschedule
                0x000000000003b950      0x104 CMakeFiles/light_switch_provisioner_nrf52840_xxAA_s140_6.0.0.dir/__/__/__/mesh/access/src/access_reliable.c.obj
 .text.reliable_timer_cb
                0x000000000003ba54      0x334 CMakeFiles/light_switch_provisioner_nrf52840_xxAA_s140_6.0.0.dir/__/__/__/mesh/access/src/access_reliable.c.obj
 .text.access_reliable_message_rx_cb
                0x000000000003bd88       0x90 CMakeFiles/light_switch_provisioner_nrf52840_xxAA_s140_6.0.0.dir/__/__/__/mesh/access/src/access_reliable.c.obj
                0x000000000003bd88                access_reliable_message_rx_cb
 .text.access_reliable_init
                0x000000000003be18       0x1c CMakeFiles/light_switch_provisioner_nrf52840_xxAA_s140_6.0.0.dir/__/__/__/mesh/access/src/access_reliable.c.obj
                0x000000000003be18                access_reliable_init
 .text.access_reliable_cancel_all
                0x000000000003be34      0x12c CMakeFiles/light_switch_provisioner_nrf52840_xxAA_s140_6.0.0.dir/__/__/__/mesh/access/src/access_reliable.c.obj
                0x000000000003be34                access_reliable_cancel_all
 .text.access_model_reliable_cancel
                0x000000000003bf60       0x98 CMakeFiles/light_switch_provisioner_nrf52840_xxAA_s140_6.0.0.dir/__/__/__/mesh/access/src/access_reliable.c.obj
                0x000000000003bf60                access_model_reliable_cancel
 .text.access_model_reliable_publish
                0x000000000003bff8      0x254 CMakeFiles/light_switch_provisioner_nrf52840_xxAA_s140_6.0.0.dir/__/__/__/mesh/access/src/access_reliable.c.obj
                0x000000000003bff8                access_model_reliable_publish
 .text.addr_nonvirtual_to_dsm_entry
                0x000000000003c24c       0x48 CMakeFiles/light_switch_provisioner_nrf52840_xxAA_s140_6.0.0.dir/__/__/__/mesh/access/src/device_state_manager.c.obj
 .text.addr_nonvirtual_to_flash_entry
                0x000000000003c294       0x10 CMakeFiles/light_switch_provisioner_nrf52840_xxAA_s140_6.0.0.dir/__/__/__/mesh/access/src/device_state_manager.c.obj
 .text.devkey_to_flash_entry
                0x000000000003c2a4       0x28 CMakeFiles/light_switch_provisioner_nrf52840_xxAA_s140_6.0.0.dir/__/__/__/mesh/access/src/device_state_manager.c.obj
 .text.addr_virtual_to_flash_entry
                0x000000000003c2cc       0x18 CMakeFiles/light_switch_provisioner_nrf52840_xxAA_s140_6.0.0.dir/__/__/__/mesh/access/src/device_state_manager.c.obj
 .text.addr_unicast_to_dsm_entry
                0x000000000003c2e4        0xc CMakeFiles/light_switch_provisioner_nrf52840_xxAA_s140_6.0.0.dir/__/__/__/mesh/access/src/device_state_manager.c.obj
 .text.addr_unicast_to_flash_entry
                0x000000000003c2f0       0x10 CMakeFiles/light_switch_provisioner_nrf52840_xxAA_s140_6.0.0.dir/__/__/__/mesh/access/src/device_state_manager.c.obj
 .text.flash_mem_listener_callback
                0x000000000003c300       0x1c CMakeFiles/light_switch_provisioner_nrf52840_xxAA_s140_6.0.0.dir/__/__/__/mesh/access/src/device_state_manager.c.obj
 .text.appkey_to_flash_entry
                0x000000000003c31c       0x54 CMakeFiles/light_switch_provisioner_nrf52840_xxAA_s140_6.0.0.dir/__/__/__/mesh/access/src/device_state_manager.c.obj
 .text.subnet_to_flash_entry
                0x000000000003c370       0x60 CMakeFiles/light_switch_provisioner_nrf52840_xxAA_s140_6.0.0.dir/__/__/__/mesh/access/src/device_state_manager.c.obj
 .text.reset_flash_area
                0x000000000003c3d0       0x28 CMakeFiles/light_switch_provisioner_nrf52840_xxAA_s140_6.0.0.dir/__/__/__/mesh/access/src/device_state_manager.c.obj
 .text.build_flash_area
                0x000000000003c3f8       0x90 CMakeFiles/light_switch_provisioner_nrf52840_xxAA_s140_6.0.0.dir/__/__/__/mesh/access/src/device_state_manager.c.obj
 .text.flash_invalidate_complete
                0x000000000003c488       0x54 CMakeFiles/light_switch_provisioner_nrf52840_xxAA_s140_6.0.0.dir/__/__/__/mesh/access/src/device_state_manager.c.obj
 .text.flash_write_complete
                0x000000000003c4dc       0x50 CMakeFiles/light_switch_provisioner_nrf52840_xxAA_s140_6.0.0.dir/__/__/__/mesh/access/src/device_state_manager.c.obj
 .text.devkey_to_dsm_entry
                0x000000000003c52c       0x70 CMakeFiles/light_switch_provisioner_nrf52840_xxAA_s140_6.0.0.dir/__/__/__/mesh/access/src/device_state_manager.c.obj
 .text.addr_virtual_to_dsm_entry
                0x000000000003c59c       0x60 CMakeFiles/light_switch_provisioner_nrf52840_xxAA_s140_6.0.0.dir/__/__/__/mesh/access/src/device_state_manager.c.obj
 .text.appkey_to_dsm_entry
                0x000000000003c5fc       0xf4 CMakeFiles/light_switch_provisioner_nrf52840_xxAA_s140_6.0.0.dir/__/__/__/mesh/access/src/device_state_manager.c.obj
 .text.address_delete_if_unused
                0x000000000003c6f0       0xe4 CMakeFiles/light_switch_provisioner_nrf52840_xxAA_s140_6.0.0.dir/__/__/__/mesh/access/src/device_state_manager.c.obj
 .text.subnet_to_dsm_entry
                0x000000000003c7d4      0x11c CMakeFiles/light_switch_provisioner_nrf52840_xxAA_s140_6.0.0.dir/__/__/__/mesh/access/src/device_state_manager.c.obj
 .text.flash_remove_complete
                0x000000000003c8f0       0x90 CMakeFiles/light_switch_provisioner_nrf52840_xxAA_s140_6.0.0.dir/__/__/__/mesh/access/src/device_state_manager.c.obj
 .text.flash_update_all
                0x000000000003c980      0x184 CMakeFiles/light_switch_provisioner_nrf52840_xxAA_s140_6.0.0.dir/__/__/__/mesh/access/src/device_state_manager.c.obj
 .text.dsm_flash_config_load
                0x000000000003cb04      0x1f8 CMakeFiles/light_switch_provisioner_nrf52840_xxAA_s140_6.0.0.dir/__/__/__/mesh/access/src/device_state_manager.c.obj
                0x000000000003cb04                dsm_flash_config_load
 .text.dsm_flash_area_get
                0x000000000003ccfc        0xc CMakeFiles/light_switch_provisioner_nrf52840_xxAA_s140_6.0.0.dir/__/__/__/mesh/access/src/device_state_manager.c.obj
                0x000000000003ccfc                dsm_flash_area_get
 .text.dsm_clear
                0x000000000003cd08       0xd8 CMakeFiles/light_switch_provisioner_nrf52840_xxAA_s140_6.0.0.dir/__/__/__/mesh/access/src/device_state_manager.c.obj
                0x000000000003cd08                dsm_clear
 .text.dsm_init
                0x000000000003cde0       0xb8 CMakeFiles/light_switch_provisioner_nrf52840_xxAA_s140_6.0.0.dir/__/__/__/mesh/access/src/device_state_manager.c.obj
                0x000000000003cde0                dsm_init
 .text.dsm_local_unicast_addresses_set
                0x000000000003ce98       0xbc CMakeFiles/light_switch_provisioner_nrf52840_xxAA_s140_6.0.0.dir/__/__/__/mesh/access/src/device_state_manager.c.obj
                0x000000000003ce98                dsm_local_unicast_addresses_set
 .text.dsm_local_unicast_addresses_get
                0x000000000003cf54       0x20 CMakeFiles/light_switch_provisioner_nrf52840_xxAA_s140_6.0.0.dir/__/__/__/mesh/access/src/device_state_manager.c.obj
                0x000000000003cf54                dsm_local_unicast_addresses_get
 .text.dsm_address_publish_add
                0x000000000003cf74      0x120 CMakeFiles/light_switch_provisioner_nrf52840_xxAA_s140_6.0.0.dir/__/__/__/mesh/access/src/device_state_manager.c.obj
                0x000000000003cf74                dsm_address_publish_add
 .text.dsm_address_publish_add_handle
                0x000000000003d094       0x54 CMakeFiles/light_switch_provisioner_nrf52840_xxAA_s140_6.0.0.dir/__/__/__/mesh/access/src/device_state_manager.c.obj
                0x000000000003d094                dsm_address_publish_add_handle
 .text.dsm_address_publish_virtual_add
                0x000000000003d0e8       0xc4 CMakeFiles/light_switch_provisioner_nrf52840_xxAA_s140_6.0.0.dir/__/__/__/mesh/access/src/device_state_manager.c.obj
                0x000000000003d0e8                dsm_address_publish_virtual_add
 .text.dsm_address_publish_remove
                0x000000000003d1ac       0xf4 CMakeFiles/light_switch_provisioner_nrf52840_xxAA_s140_6.0.0.dir/__/__/__/mesh/access/src/device_state_manager.c.obj
                0x000000000003d1ac                dsm_address_publish_remove
 .text.dsm_address_subscription_add
                0x000000000003d2a0      0x128 CMakeFiles/light_switch_provisioner_nrf52840_xxAA_s140_6.0.0.dir/__/__/__/mesh/access/src/device_state_manager.c.obj
                0x000000000003d2a0                dsm_address_subscription_add
 .text.dsm_address_subscription_virtual_add
                0x000000000003d3c8       0xc4 CMakeFiles/light_switch_provisioner_nrf52840_xxAA_s140_6.0.0.dir/__/__/__/mesh/access/src/device_state_manager.c.obj
                0x000000000003d3c8                dsm_address_subscription_virtual_add
 .text.dsm_address_subscription_add_handle
                0x000000000003d48c       0x54 CMakeFiles/light_switch_provisioner_nrf52840_xxAA_s140_6.0.0.dir/__/__/__/mesh/access/src/device_state_manager.c.obj
                0x000000000003d48c                dsm_address_subscription_add_handle
 .text.dsm_address_subscription_get
                0x000000000003d4e0       0x58 CMakeFiles/light_switch_provisioner_nrf52840_xxAA_s140_6.0.0.dir/__/__/__/mesh/access/src/device_state_manager.c.obj
                0x000000000003d4e0                dsm_address_subscription_get
 .text.dsm_address_subscription_remove
                0x000000000003d538       0x8c CMakeFiles/light_switch_provisioner_nrf52840_xxAA_s140_6.0.0.dir/__/__/__/mesh/access/src/device_state_manager.c.obj
                0x000000000003d538                dsm_address_subscription_remove
 .text.dsm_address_get
                0x000000000003d5c4       0x74 CMakeFiles/light_switch_provisioner_nrf52840_xxAA_s140_6.0.0.dir/__/__/__/mesh/access/src/device_state_manager.c.obj
                0x000000000003d5c4                dsm_address_get
 .text.dsm_address_handle_get
                0x000000000003d638       0xa4 CMakeFiles/light_switch_provisioner_nrf52840_xxAA_s140_6.0.0.dir/__/__/__/mesh/access/src/device_state_manager.c.obj
                0x000000000003d638                dsm_address_handle_get
 .text.dsm_net_key_index_to_subnet_handle
                0x000000000003d6dc       0x28 CMakeFiles/light_switch_provisioner_nrf52840_xxAA_s140_6.0.0.dir/__/__/__/mesh/access/src/device_state_manager.c.obj
                0x000000000003d6dc                dsm_net_key_index_to_subnet_handle
 .text.dsm_subnet_handle_get
                0x000000000003d704       0x3c CMakeFiles/light_switch_provisioner_nrf52840_xxAA_s140_6.0.0.dir/__/__/__/mesh/access/src/device_state_manager.c.obj
                0x000000000003d704                dsm_subnet_handle_get
 .text.dsm_appkey_index_to_appkey_handle
                0x000000000003d740       0x28 CMakeFiles/light_switch_provisioner_nrf52840_xxAA_s140_6.0.0.dir/__/__/__/mesh/access/src/device_state_manager.c.obj
                0x000000000003d740                dsm_appkey_index_to_appkey_handle
 .text.dsm_appkey_handle_get
                0x000000000003d768       0x3c CMakeFiles/light_switch_provisioner_nrf52840_xxAA_s140_6.0.0.dir/__/__/__/mesh/access/src/device_state_manager.c.obj
                0x000000000003d768                dsm_appkey_handle_get
 .text.dsm_appkey_handle_to_appkey_index
                0x000000000003d7a4       0x24 CMakeFiles/light_switch_provisioner_nrf52840_xxAA_s140_6.0.0.dir/__/__/__/mesh/access/src/device_state_manager.c.obj
                0x000000000003d7a4                dsm_appkey_handle_to_appkey_index
 .text.dsm_appkey_handle_to_subnet_handle
                0x000000000003d7c8       0xb4 CMakeFiles/light_switch_provisioner_nrf52840_xxAA_s140_6.0.0.dir/__/__/__/mesh/access/src/device_state_manager.c.obj
                0x000000000003d7c8                dsm_appkey_handle_to_subnet_handle
 .text.dsm_subnet_add
                0x000000000003d87c      0x15c CMakeFiles/light_switch_provisioner_nrf52840_xxAA_s140_6.0.0.dir/__/__/__/mesh/access/src/device_state_manager.c.obj
                0x000000000003d87c                dsm_subnet_add
 .text.dsm_subnet_kr_phase_get
                0x000000000003d9d8       0x20 CMakeFiles/light_switch_provisioner_nrf52840_xxAA_s140_6.0.0.dir/__/__/__/mesh/access/src/device_state_manager.c.obj
                0x000000000003d9d8                dsm_subnet_kr_phase_get
 .text.dsm_subnet_update
                0x000000000003d9f8       0xe4 CMakeFiles/light_switch_provisioner_nrf52840_xxAA_s140_6.0.0.dir/__/__/__/mesh/access/src/device_state_manager.c.obj
                0x000000000003d9f8                dsm_subnet_update
 .text.dsm_subnet_update_swap_keys
                0x000000000003dadc       0x94 CMakeFiles/light_switch_provisioner_nrf52840_xxAA_s140_6.0.0.dir/__/__/__/mesh/access/src/device_state_manager.c.obj
                0x000000000003dadc                dsm_subnet_update_swap_keys
 .text.dsm_subnet_update_commit
                0x000000000003db70      0x138 CMakeFiles/light_switch_provisioner_nrf52840_xxAA_s140_6.0.0.dir/__/__/__/mesh/access/src/device_state_manager.c.obj
                0x000000000003db70                dsm_subnet_update_commit
 .text.mesh_evt_handler
                0x000000000003dca8       0xc4 CMakeFiles/light_switch_provisioner_nrf52840_xxAA_s140_6.0.0.dir/__/__/__/mesh/access/src/device_state_manager.c.obj
 .text.dsm_subnet_delete
                0x000000000003dd6c       0xe8 CMakeFiles/light_switch_provisioner_nrf52840_xxAA_s140_6.0.0.dir/__/__/__/mesh/access/src/device_state_manager.c.obj
                0x000000000003dd6c                dsm_subnet_delete
 .text.dsm_subnet_get_all
                0x000000000003de54       0x40 CMakeFiles/light_switch_provisioner_nrf52840_xxAA_s140_6.0.0.dir/__/__/__/mesh/access/src/device_state_manager.c.obj
                0x000000000003de54                dsm_subnet_get_all
 .text.dsm_devkey_add
                0x000000000003de94      0x140 CMakeFiles/light_switch_provisioner_nrf52840_xxAA_s140_6.0.0.dir/__/__/__/mesh/access/src/device_state_manager.c.obj
                0x000000000003de94                dsm_devkey_add
 .text.dsm_devkey_handle_get
                0x000000000003dfd4       0x54 CMakeFiles/light_switch_provisioner_nrf52840_xxAA_s140_6.0.0.dir/__/__/__/mesh/access/src/device_state_manager.c.obj
                0x000000000003dfd4                dsm_devkey_handle_get
 .text.dsm_appkey_add
                0x000000000003e028      0x134 CMakeFiles/light_switch_provisioner_nrf52840_xxAA_s140_6.0.0.dir/__/__/__/mesh/access/src/device_state_manager.c.obj
                0x000000000003e028                dsm_appkey_add
 .text.dsm_appkey_update
                0x000000000003e15c       0xd8 CMakeFiles/light_switch_provisioner_nrf52840_xxAA_s140_6.0.0.dir/__/__/__/mesh/access/src/device_state_manager.c.obj
                0x000000000003e15c                dsm_appkey_update
 .text.dsm_appkey_delete
                0x000000000003e234       0x60 CMakeFiles/light_switch_provisioner_nrf52840_xxAA_s140_6.0.0.dir/__/__/__/mesh/access/src/device_state_manager.c.obj
                0x000000000003e234                dsm_appkey_delete
 .text.dsm_appkey_get_all
                0x000000000003e294       0x58 CMakeFiles/light_switch_provisioner_nrf52840_xxAA_s140_6.0.0.dir/__/__/__/mesh/access/src/device_state_manager.c.obj
                0x000000000003e294                dsm_appkey_get_all
 .text.dsm_tx_secmat_get
                0x000000000003e2ec       0xc8 CMakeFiles/light_switch_provisioner_nrf52840_xxAA_s140_6.0.0.dir/__/__/__/mesh/access/src/device_state_manager.c.obj
                0x000000000003e2ec                dsm_tx_secmat_get
 .text.dsm_net_secmat_from_keyindex_get
                0x000000000003e3b4       0x30 CMakeFiles/light_switch_provisioner_nrf52840_xxAA_s140_6.0.0.dir/__/__/__/mesh/access/src/device_state_manager.c.obj
                0x000000000003e3b4                dsm_net_secmat_from_keyindex_get
 .text.nrf_mesh_net_secmat_next_get
                0x000000000003e3e4       0x80 CMakeFiles/light_switch_provisioner_nrf52840_xxAA_s140_6.0.0.dir/__/__/__/mesh/access/src/device_state_manager.c.obj
                0x000000000003e3e4                nrf_mesh_net_secmat_next_get
 .text.nrf_mesh_app_secmat_next_get
                0x000000000003e464       0x80 CMakeFiles/light_switch_provisioner_nrf52840_xxAA_s140_6.0.0.dir/__/__/__/mesh/access/src/device_state_manager.c.obj
                0x000000000003e464                nrf_mesh_app_secmat_next_get
 .text.nrf_mesh_devkey_secmat_get
                0x000000000003e4e4       0x48 CMakeFiles/light_switch_provisioner_nrf52840_xxAA_s140_6.0.0.dir/__/__/__/mesh/access/src/device_state_manager.c.obj
                0x000000000003e4e4                nrf_mesh_devkey_secmat_get
 .text.nrf_mesh_beacon_info_next_get
                0x000000000003e52c       0xb0 CMakeFiles/light_switch_provisioner_nrf52840_xxAA_s140_6.0.0.dir/__/__/__/mesh/access/src/device_state_manager.c.obj
                0x000000000003e52c                nrf_mesh_beacon_info_next_get
 .text.nrf_mesh_rx_address_get
                0x000000000003e5dc       0xfc CMakeFiles/light_switch_provisioner_nrf52840_xxAA_s140_6.0.0.dir/__/__/__/mesh/access/src/device_state_manager.c.obj
                0x000000000003e5dc                nrf_mesh_rx_address_get
 .text.nrf_mesh_unicast_address_get
                0x000000000003e6d8       0x24 CMakeFiles/light_switch_provisioner_nrf52840_xxAA_s140_6.0.0.dir/__/__/__/mesh/access/src/device_state_manager.c.obj
                0x000000000003e6d8                nrf_mesh_unicast_address_get
 .text.prov_provisioner_cb_link_closed
                0x000000000003e6fc       0x2c CMakeFiles/light_switch_provisioner_nrf52840_xxAA_s140_6.0.0.dir/__/__/__/mesh/prov/src/prov_provisioner.c.obj
 .text.prov_provisioner_cb_link_established
                0x000000000003e728       0x40 CMakeFiles/light_switch_provisioner_nrf52840_xxAA_s140_6.0.0.dir/__/__/__/mesh/prov/src/prov_provisioner.c.obj
 .text.request_authentication
                0x000000000003e768       0xa8 CMakeFiles/light_switch_provisioner_nrf52840_xxAA_s140_6.0.0.dir/__/__/__/mesh/prov/src/prov_provisioner.c.obj
 .text.prov_provisioner_pkt_in
                0x000000000003e810      0x298 CMakeFiles/light_switch_provisioner_nrf52840_xxAA_s140_6.0.0.dir/__/__/__/mesh/prov/src/prov_provisioner.c.obj
 .text.prov_provisioner_cb_ack_received
                0x000000000003eaa8       0x90 CMakeFiles/light_switch_provisioner_nrf52840_xxAA_s140_6.0.0.dir/__/__/__/mesh/prov/src/prov_provisioner.c.obj
 .text.prov_provisioner_provision
                0x000000000003eb38       0x44 CMakeFiles/light_switch_provisioner_nrf52840_xxAA_s140_6.0.0.dir/__/__/__/mesh/prov/src/prov_provisioner.c.obj
                0x000000000003eb38                prov_provisioner_provision
 .text.prov_provisioner_oob_use
                0x000000000003eb7c       0xac CMakeFiles/light_switch_provisioner_nrf52840_xxAA_s140_6.0.0.dir/__/__/__/mesh/prov/src/prov_provisioner.c.obj
                0x000000000003eb7c                prov_provisioner_oob_use
 .text.prov_provisioner_auth_data
                0x000000000003ec28       0xe8 CMakeFiles/light_switch_provisioner_nrf52840_xxAA_s140_6.0.0.dir/__/__/__/mesh/prov/src/prov_provisioner.c.obj
                0x000000000003ec28                prov_provisioner_auth_data
 .text.bearer_compare_callback
                0x000000000003ed10       0x10 CMakeFiles/light_switch_provisioner_nrf52840_xxAA_s140_6.0.0.dir/__/__/__/mesh/prov/src/nrf_mesh_prov.c.obj
 .text.nrf_mesh_prov_init
                0x000000000003ed20       0x3c CMakeFiles/light_switch_provisioner_nrf52840_xxAA_s140_6.0.0.dir/__/__/__/mesh/prov/src/nrf_mesh_prov.c.obj
                0x000000000003ed20                nrf_mesh_prov_init
 .text.nrf_mesh_prov_bearer_add
                0x000000000003ed5c       0x2c CMakeFiles/light_switch_provisioner_nrf52840_xxAA_s140_6.0.0.dir/__/__/__/mesh/prov/src/nrf_mesh_prov.c.obj
                0x000000000003ed5c                nrf_mesh_prov_bearer_add
 .text.nrf_mesh_prov_generate_keys
                0x000000000003ed88        0x4 CMakeFiles/light_switch_provisioner_nrf52840_xxAA_s140_6.0.0.dir/__/__/__/mesh/prov/src/nrf_mesh_prov.c.obj
                0x000000000003ed88                nrf_mesh_prov_generate_keys
 .text.nrf_mesh_prov_provision
                0x000000000003ed8c       0x68 CMakeFiles/light_switch_provisioner_nrf52840_xxAA_s140_6.0.0.dir/__/__/__/mesh/prov/src/nrf_mesh_prov.c.obj
                0x000000000003ed8c                nrf_mesh_prov_provision
 .text.nrf_mesh_prov_oob_use
                0x000000000003edf4       0x18 CMakeFiles/light_switch_provisioner_nrf52840_xxAA_s140_6.0.0.dir/__/__/__/mesh/prov/src/nrf_mesh_prov.c.obj
                0x000000000003edf4                nrf_mesh_prov_oob_use
 .text.nrf_mesh_prov_auth_data_provide
                0x000000000003ee0c       0x10 CMakeFiles/light_switch_provisioner_nrf52840_xxAA_s140_6.0.0.dir/__/__/__/mesh/prov/src/nrf_mesh_prov.c.obj
                0x000000000003ee0c                nrf_mesh_prov_auth_data_provide
 .text.nrf_mesh_prov_scan_start
                0x000000000003ee1c       0x10 CMakeFiles/light_switch_provisioner_nrf52840_xxAA_s140_6.0.0.dir/__/__/__/mesh/prov/src/nrf_mesh_prov.c.obj
                0x000000000003ee1c                nrf_mesh_prov_scan_start
 .text.prov_packet_length_valid
                0x000000000003ee2c       0x20 CMakeFiles/light_switch_provisioner_nrf52840_xxAA_s140_6.0.0.dir/__/__/__/mesh/prov/src/provisioning.c.obj
                0x000000000003ee2c                prov_packet_length_valid
 .text.prov_tx_invite
                0x000000000003ee4c       0x38 CMakeFiles/light_switch_provisioner_nrf52840_xxAA_s140_6.0.0.dir/__/__/__/mesh/prov/src/provisioning.c.obj
                0x000000000003ee4c                prov_tx_invite
 .text.prov_tx_start
                0x000000000003ee84       0x38 CMakeFiles/light_switch_provisioner_nrf52840_xxAA_s140_6.0.0.dir/__/__/__/mesh/prov/src/provisioning.c.obj
                0x000000000003ee84                prov_tx_start
 .text.prov_tx_public_key
                0x000000000003eebc       0x30 CMakeFiles/light_switch_provisioner_nrf52840_xxAA_s140_6.0.0.dir/__/__/__/mesh/prov/src/provisioning.c.obj
                0x000000000003eebc                prov_tx_public_key
 .text.prov_tx_confirmation
                0x000000000003eeec       0x30 CMakeFiles/light_switch_provisioner_nrf52840_xxAA_s140_6.0.0.dir/__/__/__/mesh/prov/src/provisioning.c.obj
                0x000000000003eeec                prov_tx_confirmation
 .text.prov_tx_random
                0x000000000003ef1c       0x30 CMakeFiles/light_switch_provisioner_nrf52840_xxAA_s140_6.0.0.dir/__/__/__/mesh/prov/src/provisioning.c.obj
                0x000000000003ef1c                prov_tx_random
 .text.prov_tx_data
                0x000000000003ef4c       0x34 CMakeFiles/light_switch_provisioner_nrf52840_xxAA_s140_6.0.0.dir/__/__/__/mesh/prov/src/provisioning.c.obj
                0x000000000003ef4c                prov_tx_data
 .text.prov_beacon_unprov_build
                0x000000000003ef80       0x54 CMakeFiles/light_switch_provisioner_nrf52840_xxAA_s140_6.0.0.dir/__/__/__/mesh/prov/src/prov_beacon.c.obj
                0x000000000003ef80                prov_beacon_unprov_build
 .text.prov_beacon_unprov_packet_in
                0x000000000003efd4       0xd0 CMakeFiles/light_switch_provisioner_nrf52840_xxAA_s140_6.0.0.dir/__/__/__/mesh/prov/src/prov_beacon.c.obj
                0x000000000003efd4                prov_beacon_unprov_packet_in
 .text.prov_beacon_scan_start
                0x000000000003f0a4       0x1c CMakeFiles/light_switch_provisioner_nrf52840_xxAA_s140_6.0.0.dir/__/__/__/mesh/prov/src/prov_beacon.c.obj
                0x000000000003f0a4                prov_beacon_scan_start
 .text.prov_utils_opt_set
                0x000000000003f0c0       0x24 CMakeFiles/light_switch_provisioner_nrf52840_xxAA_s140_6.0.0.dir/__/__/__/mesh/prov/src/prov_utils.c.obj
                0x000000000003f0c0                prov_utils_opt_set
 .text.prov_utils_opt_get
                0x000000000003f0e4       0x1c CMakeFiles/light_switch_provisioner_nrf52840_xxAA_s140_6.0.0.dir/__/__/__/mesh/prov/src/prov_utils.c.obj
                0x000000000003f0e4                prov_utils_opt_get
 .text.prov_utils_use_ecdh_offloading
                0x000000000003f100        0xc CMakeFiles/light_switch_provisioner_nrf52840_xxAA_s140_6.0.0.dir/__/__/__/mesh/prov/src/prov_utils.c.obj
                0x000000000003f100                prov_utils_use_ecdh_offloading
 .text.prov_utils_authentication_values_derive
                0x000000000003f10c       0xac CMakeFiles/light_switch_provisioner_nrf52840_xxAA_s140_6.0.0.dir/__/__/__/mesh/prov/src/prov_utils.c.obj
                0x000000000003f10c                prov_utils_authentication_values_derive
 .text.prov_utils_keys_generate
                0x000000000003f1b8       0x20 CMakeFiles/light_switch_provisioner_nrf52840_xxAA_s140_6.0.0.dir/__/__/__/mesh/prov/src/prov_utils.c.obj
                0x000000000003f1b8                prov_utils_keys_generate
 .text.prov_utils_derive_keys
                0x000000000003f1d8       0xb4 CMakeFiles/light_switch_provisioner_nrf52840_xxAA_s140_6.0.0.dir/__/__/__/mesh/prov/src/prov_utils.c.obj
                0x000000000003f1d8                prov_utils_derive_keys
 .text.prov_utils_calculate_shared_secret
                0x000000000003f28c       0x34 CMakeFiles/light_switch_provisioner_nrf52840_xxAA_s140_6.0.0.dir/__/__/__/mesh/prov/src/prov_utils.c.obj
                0x000000000003f28c                prov_utils_calculate_shared_secret
 .text.prov_utils_generate_oob_data
                0x000000000003f2c0      0x1b8 CMakeFiles/light_switch_provisioner_nrf52840_xxAA_s140_6.0.0.dir/__/__/__/mesh/prov/src/prov_utils.c.obj
                0x000000000003f2c0                prov_utils_generate_oob_data
 .text.prov_utils_confirmation_check
                0x000000000003f478       0x5c CMakeFiles/light_switch_provisioner_nrf52840_xxAA_s140_6.0.0.dir/__/__/__/mesh/prov/src/prov_utils.c.obj
                0x000000000003f478                prov_utils_confirmation_check
 .text.link_timeout_cb
                0x000000000003f4d4       0x10 CMakeFiles/light_switch_provisioner_nrf52840_xxAA_s140_6.0.0.dir/__/__/__/mesh/prov/src/prov_bearer_adv.c.obj
 .text.prov_bearer_adv_listen_stop
                0x000000000003f4e4       0x98 CMakeFiles/light_switch_provisioner_nrf52840_xxAA_s140_6.0.0.dir/__/__/__/mesh/prov/src/prov_bearer_adv.c.obj
 .text.tx_complete_cb
                0x000000000003f57c       0x20 CMakeFiles/light_switch_provisioner_nrf52840_xxAA_s140_6.0.0.dir/__/__/__/mesh/prov/src/prov_bearer_adv.c.obj
 .text.prov_bearer_adv_listen
                0x000000000003f59c      0x15c CMakeFiles/light_switch_provisioner_nrf52840_xxAA_s140_6.0.0.dir/__/__/__/mesh/prov/src/prov_bearer_adv.c.obj
 .text.close_link
                0x000000000003f6f8       0xd8 CMakeFiles/light_switch_provisioner_nrf52840_xxAA_s140_6.0.0.dir/__/__/__/mesh/prov/src/prov_bearer_adv.c.obj
 .text.send_link_ack
                0x000000000003f7d0       0x70 CMakeFiles/light_switch_provisioner_nrf52840_xxAA_s140_6.0.0.dir/__/__/__/mesh/prov/src/prov_bearer_adv.c.obj
 .text.send_transaction_ack
                0x000000000003f840       0x68 CMakeFiles/light_switch_provisioner_nrf52840_xxAA_s140_6.0.0.dir/__/__/__/mesh/prov/src/prov_bearer_adv.c.obj
 .text.prov_buffer_rx
                0x000000000003f8a8       0xa0 CMakeFiles/light_switch_provisioner_nrf52840_xxAA_s140_6.0.0.dir/__/__/__/mesh/prov/src/prov_bearer_adv.c.obj
 .text.prov_bearer_adv_link_open
                0x000000000003f948      0x1b8 CMakeFiles/light_switch_provisioner_nrf52840_xxAA_s140_6.0.0.dir/__/__/__/mesh/prov/src/prov_bearer_adv.c.obj
 .text.prov_bearer_adv_link_close
                0x000000000003fb00       0xcc CMakeFiles/light_switch_provisioner_nrf52840_xxAA_s140_6.0.0.dir/__/__/__/mesh/prov/src/prov_bearer_adv.c.obj
 .text.prov_buffer_tx
                0x000000000003fbcc      0x1e4 CMakeFiles/light_switch_provisioner_nrf52840_xxAA_s140_6.0.0.dir/__/__/__/mesh/prov/src/prov_bearer_adv.c.obj
 .text.tx_retry_cb
                0x000000000003fdb0      0x130 CMakeFiles/light_switch_provisioner_nrf52840_xxAA_s140_6.0.0.dir/__/__/__/mesh/prov/src/prov_bearer_adv.c.obj
 .text.prov_bearer_adv_tx
                0x000000000003fee0       0xe8 CMakeFiles/light_switch_provisioner_nrf52840_xxAA_s140_6.0.0.dir/__/__/__/mesh/prov/src/prov_bearer_adv.c.obj
 .text.async_process
                0x000000000003ffc8      0x118 CMakeFiles/light_switch_provisioner_nrf52840_xxAA_s140_6.0.0.dir/__/__/__/mesh/prov/src/prov_bearer_adv.c.obj
 .text.nrf_mesh_prov_bearer_adv_interface_get
                0x00000000000400e0       0x40 CMakeFiles/light_switch_provisioner_nrf52840_xxAA_s140_6.0.0.dir/__/__/__/mesh/prov/src/prov_bearer_adv.c.obj
                0x00000000000400e0                nrf_mesh_prov_bearer_adv_interface_get
 .text.prov_bearer_adv_packet_in
                0x0000000000040120      0x914 CMakeFiles/light_switch_provisioner_nrf52840_xxAA_s140_6.0.0.dir/__/__/__/mesh/prov/src/prov_bearer_adv.c.obj
                0x0000000000040120                prov_bearer_adv_packet_in
 .text.SystemInit
                0x0000000000040a34      0x1c4 CMakeFiles/light_switch_provisioner_nrf52840_xxAA_s140_6.0.0.dir/home/mazzer/work/nordic/sdk/nRF5_SDK_15.0.0/modules/nrfx/mdk/system_nrf52840.c.obj
                0x0000000000040a34                SystemInit
 .text          0x0000000000040bf8       0x3c CMakeFiles/light_switch_provisioner_nrf52840_xxAA_s140_6.0.0.dir/home/mazzer/work/nordic/sdk/nRF5_SDK_15.0.0/modules/nrfx/mdk/gcc_startup_nrf52840.S.obj
                0x0000000000040bf8                Reset_Handler
                0x0000000000040c20                NMI_Handler
                0x0000000000040c22                HardFault_Handler
                0x0000000000040c24                MemoryManagement_Handler
                0x0000000000040c26                BusFault_Handler
                0x0000000000040c28                UsageFault_Handler
                0x0000000000040c2a                SVC_Handler
                0x0000000000040c2c                DebugMon_Handler
                0x0000000000040c2e                PendSV_Handler
                0x0000000000040c30                SysTick_Handler
                0x0000000000040c32                RTC0_IRQHandler
                0x0000000000040c32                SWI0_EGU0_IRQHandler
                0x0000000000040c32                PWM1_IRQHandler
                0x0000000000040c32                POWER_CLOCK_IRQHandler
                0x0000000000040c32                RADIO_IRQHandler
                0x0000000000040c32                PDM_IRQHandler
                0x0000000000040c32                TEMP_IRQHandler
                0x0000000000040c32                TIMER3_IRQHandler
                0x0000000000040c32                PWM3_IRQHandler
                0x0000000000040c32                FPU_IRQHandler
                0x0000000000040c32                USBD_IRQHandler
                0x0000000000040c32                SPIM0_SPIS0_TWIM0_TWIS0_SPI0_TWI0_IRQHandler
                0x0000000000040c32                UARTE0_UART0_IRQHandler
                0x0000000000040c32                TIMER4_IRQHandler
                0x0000000000040c32                CRYPTOCELL_IRQHandler
                0x0000000000040c32                I2S_IRQHandler
                0x0000000000040c32                SWI4_EGU4_IRQHandler
                0x0000000000040c32                TIMER0_IRQHandler
                0x0000000000040c32                UARTE1_IRQHandler
                0x0000000000040c32                TIMER1_IRQHandler
                0x0000000000040c32                SPIM3_IRQHandler
                0x0000000000040c32                PWM2_IRQHandler
                0x0000000000040c32                ECB_IRQHandler
                0x0000000000040c32                SPIM1_SPIS1_TWIM1_TWIS1_SPI1_TWI1_IRQHandler
                0x0000000000040c32                Default_Handler
                0x0000000000040c32                SAADC_IRQHandler
                0x0000000000040c32                CCM_AAR_IRQHandler
                0x0000000000040c32                WDT_IRQHandler
                0x0000000000040c32                SWI5_EGU5_IRQHandler
                0x0000000000040c32                RNG_IRQHandler
                0x0000000000040c32                RTC2_IRQHandler
                0x0000000000040c32                PWM0_IRQHandler
                0x0000000000040c32                SWI3_EGU3_IRQHandler
                0x0000000000040c32                RTC1_IRQHandler
                0x0000000000040c32                SWI1_EGU1_IRQHandler
                0x0000000000040c32                SPIM2_SPIS2_SPI2_IRQHandler
                0x0000000000040c32                NFCT_IRQHandler
                0x0000000000040c32                MWU_IRQHandler
                0x0000000000040c32                QSPI_IRQHandler
                0x0000000000040c32                COMP_LPCOMP_IRQHandler
 .text.app_error_handler
                0x0000000000040c34       0x1c CMakeFiles/light_switch_provisioner_nrf52840_xxAA_s140_6.0.0.dir/home/mazzer/work/nordic/sdk/nRF5_SDK_15.0.0/components/libraries/util/app_error_handler_gcc.c.obj
                0x0000000000040c34                app_error_handler
 .text.SEGGER_RTT_Write
                0x0000000000040c50      0x1f4 ../../../external/rtt/librtt_nrf52840_xxAA.a(SEGGER_RTT.c.obj)
                0x0000000000040c50                SEGGER_RTT_Write
 .text.SEGGER_RTT_GetKey
                0x0000000000040e44       0xf8 ../../../external/rtt/librtt_nrf52840_xxAA.a(SEGGER_RTT.c.obj)
                0x0000000000040e44                SEGGER_RTT_GetKey
 .text._PrintUnsigned
                0x0000000000040f3c      0x17c ../../../external/rtt/librtt_nrf52840_xxAA.a(SEGGER_RTT_printf.c.obj)
 .text.SEGGER_RTT_vprintf
                0x00000000000410b8      0x524 ../../../external/rtt/librtt_nrf52840_xxAA.a(SEGGER_RTT_printf.c.obj)
                0x00000000000410b8                SEGGER_RTT_vprintf
 .text.SEGGER_RTT_printf
                0x00000000000415dc       0x20 ../../../external/rtt/librtt_nrf52840_xxAA.a(SEGGER_RTT_printf.c.obj)
                0x00000000000415dc                SEGGER_RTT_printf
 .text.default_RNG
                0x00000000000415fc        0xc ../../../external/micro-ecc/libuECC_nrf52840_xxAA.a(uECC.c.obj)
 .text.uECC_generate_random_int
                0x0000000000041608      0x17c ../../../external/micro-ecc/libuECC_nrf52840_xxAA.a(uECC.c.obj)
 .text.apply_z  0x0000000000041784      0x1a8 ../../../external/micro-ecc/libuECC_nrf52840_xxAA.a(uECC.c.obj)
 .text.uECC_vli_modAdd
                0x000000000004192c       0xd8 ../../../external/micro-ecc/libuECC_nrf52840_xxAA.a(uECC.c.obj)
 .text.x_side_default
                0x0000000000041a04      0x26c ../../../external/micro-ecc/libuECC_nrf52840_xxAA.a(uECC.c.obj)
 .text.vli_mmod_fast_secp256r1
                0x0000000000041c70      0x514 ../../../external/micro-ecc/libuECC_nrf52840_xxAA.a(uECC.c.obj)
 .text.XYcZ_add
                0x0000000000042184      0x6e0 ../../../external/micro-ecc/libuECC_nrf52840_xxAA.a(uECC.c.obj)
 .text.XYcZ_addC
                0x0000000000042864      0xabc ../../../external/micro-ecc/libuECC_nrf52840_xxAA.a(uECC.c.obj)
 .text.uECC_vli_modInv.part.4
                0x0000000000043320      0x71c ../../../external/micro-ecc/libuECC_nrf52840_xxAA.a(uECC.c.obj)
 .text.EccPoint_mult
                0x0000000000043a3c      0x4a4 ../../../external/micro-ecc/libuECC_nrf52840_xxAA.a(uECC.c.obj)
 .text.double_jacobian_default
                0x0000000000043ee0      0x814 ../../../external/micro-ecc/libuECC_nrf52840_xxAA.a(uECC.c.obj)
 .text.uECC_secp256r1
                0x00000000000446f4        0x8 ../../../external/micro-ecc/libuECC_nrf52840_xxAA.a(uECC.c.obj)
                0x00000000000446f4                uECC_secp256r1
 .text.uECC_make_key
                0x00000000000446fc      0x240 ../../../external/micro-ecc/libuECC_nrf52840_xxAA.a(uECC.c.obj)
                0x00000000000446fc                uECC_make_key
 .text.uECC_shared_secret
                0x000000000004493c      0x314 ../../../external/micro-ecc/libuECC_nrf52840_xxAA.a(uECC.c.obj)
                0x000000000004493c                uECC_shared_secret
 .text.uECC_valid_public_key
                0x0000000000044c50      0x230 ../../../external/micro-ecc/libuECC_nrf52840_xxAA.a(uECC.c.obj)
                0x0000000000044c50                uECC_valid_public_key
 .text          0x0000000000044e80       0x30 /usr/bin/../lib/gcc/arm-none-eabi/7.2.1/thumb/v7e-m/fpv4-sp/hard/libgcc.a(_aeabi_uldivmod.o)
                0x0000000000044e80                __aeabi_uldivmod
 .text          0x0000000000044eb0      0x2cc /usr/bin/../lib/gcc/arm-none-eabi/7.2.1/thumb/v7e-m/fpv4-sp/hard/libgcc.a(_udivmoddi4.o)
                0x0000000000044eb0                __udivmoddi4
 .text          0x000000000004517c        0x4 /usr/bin/../lib/gcc/arm-none-eabi/7.2.1/thumb/v7e-m/fpv4-sp/hard/libgcc.a(_dvmd_tls.o)
                0x000000000004517c                __aeabi_ldiv0
                0x000000000004517c                __aeabi_idiv0
 .text.exit     0x0000000000045180       0x28 /usr/bin/../lib/gcc/arm-none-eabi/7.2.1/../../../../arm-none-eabi/lib/thumb/v7e-m/fpv4-sp/hard/libg_nano.a(lib_a-exit.o)
                0x0000000000045180                exit
 .text.__libc_init_array
                0x00000000000451a8       0x48 /usr/bin/../lib/gcc/arm-none-eabi/7.2.1/../../../../arm-none-eabi/lib/thumb/v7e-m/fpv4-sp/hard/libg_nano.a(lib_a-init.o)
                0x00000000000451a8                __libc_init_array
 .text.malloc   0x00000000000451f0       0x10 /usr/bin/../lib/gcc/arm-none-eabi/7.2.1/../../../../arm-none-eabi/lib/thumb/v7e-m/fpv4-sp/hard/libg_nano.a(lib_a-malloc.o)
                0x00000000000451f0                malloc
 .text.free     0x0000000000045200       0x10 /usr/bin/../lib/gcc/arm-none-eabi/7.2.1/../../../../arm-none-eabi/lib/thumb/v7e-m/fpv4-sp/hard/libg_nano.a(lib_a-malloc.o)
                0x0000000000045200                free
 .text.memcmp   0x0000000000045210       0x1e /usr/bin/../lib/gcc/arm-none-eabi/7.2.1/../../../../arm-none-eabi/lib/thumb/v7e-m/fpv4-sp/hard/libg_nano.a(lib_a-memcmp.o)
                0x0000000000045210                memcmp
 .text.memcpy   0x000000000004522e       0x16 /usr/bin/../lib/gcc/arm-none-eabi/7.2.1/../../../../arm-none-eabi/lib/thumb/v7e-m/fpv4-sp/hard/libg_nano.a(lib_a-memcpy-stub.o)
                0x000000000004522e                memcpy
 .text.memset   0x0000000000045244       0x10 /usr/bin/../lib/gcc/arm-none-eabi/7.2.1/../../../../arm-none-eabi/lib/thumb/v7e-m/fpv4-sp/hard/libg_nano.a(lib_a-memset.o)
                0x0000000000045244                memset
 .text._free_r  0x0000000000045254       0x9c /usr/bin/../lib/gcc/arm-none-eabi/7.2.1/../../../../arm-none-eabi/lib/thumb/v7e-m/fpv4-sp/hard/libg_nano.a(lib_a-nano-freer.o)
                0x0000000000045254                _free_r
 .text._malloc_r
                0x00000000000452f0       0xb4 /usr/bin/../lib/gcc/arm-none-eabi/7.2.1/../../../../arm-none-eabi/lib/thumb/v7e-m/fpv4-sp/hard/libg_nano.a(lib_a-nano-mallocr.o)
                0x00000000000452f0                _malloc_r
 .text._sbrk_r  0x00000000000453a4       0x20 /usr/bin/../lib/gcc/arm-none-eabi/7.2.1/../../../../arm-none-eabi/lib/thumb/v7e-m/fpv4-sp/hard/libg_nano.a(lib_a-sbrkr.o)
                0x00000000000453a4                _sbrk_r
 .text.strcpy   0x00000000000453c4       0x10 /usr/bin/../lib/gcc/arm-none-eabi/7.2.1/../../../../arm-none-eabi/lib/thumb/v7e-m/fpv4-sp/hard/libg_nano.a(lib_a-strcpy.o)
                0x00000000000453c4                strcpy
 .text          0x00000000000453d4       0x10 /usr/bin/../lib/gcc/arm-none-eabi/7.2.1/../../../../arm-none-eabi/lib/thumb/v7e-m/fpv4-sp/hard/libg_nano.a(lib_a-strlen.o)
                0x00000000000453d4                strlen
 .text.strrchr  0x00000000000453e4       0x28 /usr/bin/../lib/gcc/arm-none-eabi/7.2.1/../../../../arm-none-eabi/lib/thumb/v7e-m/fpv4-sp/hard/libg_nano.a(lib_a-strrchr.o)
                0x00000000000453e4                strrchr
 .text.__malloc_lock
                0x000000000004540c        0x2 /usr/bin/../lib/gcc/arm-none-eabi/7.2.1/../../../../arm-none-eabi/lib/thumb/v7e-m/fpv4-sp/hard/libg_nano.a(lib_a-mlock.o)
                0x000000000004540c                __malloc_lock
 .text.__malloc_unlock
                0x000000000004540e        0x2 /usr/bin/../lib/gcc/arm-none-eabi/7.2.1/../../../../arm-none-eabi/lib/thumb/v7e-m/fpv4-sp/hard/libg_nano.a(lib_a-mlock.o)
                0x000000000004540e                __malloc_unlock
 .text.strchr   0x0000000000045410       0x1a /usr/bin/../lib/gcc/arm-none-eabi/7.2.1/../../../../arm-none-eabi/lib/thumb/v7e-m/fpv4-sp/hard/libg_nano.a(lib_a-strchr.o)
                0x0000000000045410                strchr
 *fill*         0x000000000004542a        0x2 
 .text._sbrk    0x000000000004542c       0x1c /usr/bin/../lib/gcc/arm-none-eabi/7.2.1/../../../../arm-none-eabi/lib/thumb/v7e-m/fpv4-sp/hard/libnosys.a(sbrk.o)
                0x000000000004542c                _sbrk
 .text._exit    0x0000000000045448        0x4 /usr/bin/../lib/gcc/arm-none-eabi/7.2.1/../../../../arm-none-eabi/lib/thumb/v7e-m/fpv4-sp/hard/libnosys.a(_exit.o)
                0x0000000000045448                _exit
 *(.init)
 .init          0x000000000004544c        0x4 /usr/bin/../lib/gcc/arm-none-eabi/7.2.1/thumb/v7e-m/fpv4-sp/hard/crti.o
                0x000000000004544c                _init
 .init          0x0000000000045450        0x8 /usr/bin/../lib/gcc/arm-none-eabi/7.2.1/thumb/v7e-m/fpv4-sp/hard/crtn.o
 *(.fini)
 .fini          0x0000000000045458        0x4 /usr/bin/../lib/gcc/arm-none-eabi/7.2.1/thumb/v7e-m/fpv4-sp/hard/crti.o
                0x0000000000045458                _fini
 .fini          0x000000000004545c        0x8 /usr/bin/../lib/gcc/arm-none-eabi/7.2.1/thumb/v7e-m/fpv4-sp/hard/crtn.o
 *crtbegin.o(.ctors)
 *crtbegin?.o(.ctors)
 *(EXCLUDE_FILE(*crtend.o *crtend?.o) .ctors)
 *(SORT_BY_NAME(.ctors.*))
 *(.ctors)
 *crtbegin.o(.dtors)
 *crtbegin?.o(.dtors)
 *(EXCLUDE_FILE(*crtend.o *crtend?.o) .dtors)
 *(SORT_BY_NAME(.dtors.*))
 *(.dtors)
 *(.rodata*)
 .rodata        0x0000000000045464       0x18 CMakeFiles/light_switch_provisioner_nrf52840_xxAA_s140_6.0.0.dir/src/main.c.obj
 .rodata.app_config_client_event_cb.str1.4
                0x000000000004547c       0x15 CMakeFiles/light_switch_provisioner_nrf52840_xxAA_s140_6.0.0.dir/src/main.c.obj
 *fill*         0x0000000000045491        0x3 
 .rodata.app_config_failed_cb.str1.4
                0x0000000000045494       0x3d CMakeFiles/light_switch_provisioner_nrf52840_xxAA_s140_6.0.0.dir/src/main.c.obj
 *fill*         0x00000000000454d1        0x3 
 .rodata.app_config_server_event_cb.str1.4
                0x00000000000454d4       0x19 CMakeFiles/light_switch_provisioner_nrf52840_xxAA_s140_6.0.0.dir/src/main.c.obj
 *fill*         0x00000000000454ed        0x3 
 .rodata.app_config_successful_cb.str1.4
                0x00000000000454f0       0x41 CMakeFiles/light_switch_provisioner_nrf52840_xxAA_s140_6.0.0.dir/src/main.c.obj
 *fill*         0x0000000000045531        0x3 
 .rodata.app_flash_manager_add.str1.4
                0x0000000000045534       0x2a CMakeFiles/light_switch_provisioner_nrf52840_xxAA_s140_6.0.0.dir/src/main.c.obj
 *fill*         0x000000000004555e        0x2 
 .rodata.app_health_event_cb.str1.4
                0x0000000000045560       0x35 CMakeFiles/light_switch_provisioner_nrf52840_xxAA_s140_6.0.0.dir/src/main.c.obj
 *fill*         0x0000000000045595        0x3 
 .rodata.app_mesh_core_event_cb.str1.4
                0x0000000000045598      0x107 CMakeFiles/light_switch_provisioner_nrf52840_xxAA_s140_6.0.0.dir/src/main.c.obj
 *fill*         0x000000000004569f        0x1 
 .rodata.app_prov_failed_cb.str1.4
                0x00000000000456a0       0x2f CMakeFiles/light_switch_provisioner_nrf52840_xxAA_s140_6.0.0.dir/src/main.c.obj
 *fill*         0x00000000000456cf        0x1 
 .rodata.app_prov_success_cb.str1.4
                0x00000000000456d0       0x19 CMakeFiles/light_switch_provisioner_nrf52840_xxAA_s140_6.0.0.dir/src/main.c.obj
 *fill*         0x00000000000456e9        0x3 
 .rodata.button_event_handler.str1.4
                0x00000000000456ec      0x12b CMakeFiles/light_switch_provisioner_nrf52840_xxAA_s140_6.0.0.dir/src/main.c.obj
 *fill*         0x0000000000045817        0x1 
 .rodata.flash_invalidate_complete.str1.4
                0x0000000000045818       0x67 CMakeFiles/light_switch_provisioner_nrf52840_xxAA_s140_6.0.0.dir/src/main.c.obj
 *fill*         0x000000000004587f        0x1 
 .rodata.flash_remove_complete.str1.4
                0x0000000000045880       0x17 CMakeFiles/light_switch_provisioner_nrf52840_xxAA_s140_6.0.0.dir/src/main.c.obj
 *fill*         0x0000000000045897        0x1 
 .rodata.flash_write_complete.str1.4
                0x0000000000045898       0x16 CMakeFiles/light_switch_provisioner_nrf52840_xxAA_s140_6.0.0.dir/src/main.c.obj
 *fill*         0x00000000000458ae        0x2 
 .rodata.m_client_node_uuid
                0x00000000000458b0       0x10 CMakeFiles/light_switch_provisioner_nrf52840_xxAA_s140_6.0.0.dir/src/main.c.obj
 .rodata.m_server_uuid_filter
                0x00000000000458c0        0x4 CMakeFiles/light_switch_provisioner_nrf52840_xxAA_s140_6.0.0.dir/src/main.c.obj
 .rodata.main.str1.4
                0x00000000000458c4       0x9e CMakeFiles/light_switch_provisioner_nrf52840_xxAA_s140_6.0.0.dir/src/main.c.obj
 *fill*         0x0000000000045962        0x2 
 .rodata.models_init_cb.str1.4
                0x0000000000045964       0x20 CMakeFiles/light_switch_provisioner_nrf52840_xxAA_s140_6.0.0.dir/src/main.c.obj
 .rodata        0x0000000000045984       0x20 CMakeFiles/light_switch_provisioner_nrf52840_xxAA_s140_6.0.0.dir/src/provisioner_helper.c.obj
 .rodata.prov_evt_handler.str1.4
                0x00000000000459a4      0x317 CMakeFiles/light_switch_provisioner_nrf52840_xxAA_s140_6.0.0.dir/src/provisioner_helper.c.obj
                                        0x31f (size before relaxing)
 *fill*         0x0000000000045cbb        0x1 
 .rodata.prov_helper_device_handles_load.str1.4
                0x0000000000045cbc       0x3f CMakeFiles/light_switch_provisioner_nrf52840_xxAA_s140_6.0.0.dir/src/provisioner_helper.c.obj
 *fill*         0x0000000000045cfb        0x1 
 .rodata.prov_helper_provision_self.str1.4
                0x0000000000045cfc       0x13 CMakeFiles/light_switch_provisioner_nrf52840_xxAA_s140_6.0.0.dir/src/provisioner_helper.c.obj
 *fill*         0x0000000000045d0f        0x1 
 .rodata.prov_helper_scan_start.str1.4
                0x0000000000045d10       0x24 CMakeFiles/light_switch_provisioner_nrf52840_xxAA_s140_6.0.0.dir/src/provisioner_helper.c.obj
 .rodata.client_config_steps
                0x0000000000045d34        0xd CMakeFiles/light_switch_provisioner_nrf52840_xxAA_s140_6.0.0.dir/src/node_setup.c.obj
 *fill*         0x0000000000045d41        0x3 
 .rodata.client_pub_state_set.str1.4
                0x0000000000045d44       0x9e CMakeFiles/light_switch_provisioner_nrf52840_xxAA_s140_6.0.0.dir/src/node_setup.c.obj
 *fill*         0x0000000000045de2        0x2 
 .rodata.config_step_execute.str1.4
                0x0000000000045de4      0x125 CMakeFiles/light_switch_provisioner_nrf52840_xxAA_s140_6.0.0.dir/src/node_setup.c.obj
 *fill*         0x0000000000045f09        0x3 
 .rodata.exp_status.11749
                0x0000000000045f0c        0x2 CMakeFiles/light_switch_provisioner_nrf52840_xxAA_s140_6.0.0.dir/src/node_setup.c.obj
 *fill*         0x0000000000045f0e        0x2 
 .rodata.exp_status.11753
                0x0000000000045f10        0x1 CMakeFiles/light_switch_provisioner_nrf52840_xxAA_s140_6.0.0.dir/src/node_setup.c.obj
 *fill*         0x0000000000045f11        0x3 
 .rodata.exp_status.11757
                0x0000000000045f14        0x1 CMakeFiles/light_switch_provisioner_nrf52840_xxAA_s140_6.0.0.dir/src/node_setup.c.obj
 *fill*         0x0000000000045f15        0x3 
 .rodata.exp_status.11761
                0x0000000000045f18        0x1 CMakeFiles/light_switch_provisioner_nrf52840_xxAA_s140_6.0.0.dir/src/node_setup.c.obj
 *fill*         0x0000000000045f19        0x3 
 .rodata.exp_status.11764
                0x0000000000045f1c        0x1 CMakeFiles/light_switch_provisioner_nrf52840_xxAA_s140_6.0.0.dir/src/node_setup.c.obj
 *fill*         0x0000000000045f1d        0x3 
 .rodata.exp_status.11767
                0x0000000000045f20        0x1 CMakeFiles/light_switch_provisioner_nrf52840_xxAA_s140_6.0.0.dir/src/node_setup.c.obj
 *fill*         0x0000000000045f21        0x3 
 .rodata.exp_status.11772
                0x0000000000045f24        0x1 CMakeFiles/light_switch_provisioner_nrf52840_xxAA_s140_6.0.0.dir/src/node_setup.c.obj
 *fill*         0x0000000000045f25        0x3 
 .rodata.exp_status.11775
                0x0000000000045f28        0x1 CMakeFiles/light_switch_provisioner_nrf52840_xxAA_s140_6.0.0.dir/src/node_setup.c.obj
 *fill*         0x0000000000045f29        0x3 
 .rodata.exp_status.11778
                0x0000000000045f2c        0x1 CMakeFiles/light_switch_provisioner_nrf52840_xxAA_s140_6.0.0.dir/src/node_setup.c.obj
 *fill*         0x0000000000045f2d        0x3 
 .rodata.exp_status.11781
                0x0000000000045f30        0x1 CMakeFiles/light_switch_provisioner_nrf52840_xxAA_s140_6.0.0.dir/src/node_setup.c.obj
 *fill*         0x0000000000045f31        0x3 
 .rodata.exp_status.11784
                0x0000000000045f34        0x1 CMakeFiles/light_switch_provisioner_nrf52840_xxAA_s140_6.0.0.dir/src/node_setup.c.obj
 .rodata.m_idle_step
                0x0000000000045f35        0x1 CMakeFiles/light_switch_provisioner_nrf52840_xxAA_s140_6.0.0.dir/src/node_setup.c.obj
 *fill*         0x0000000000045f36        0x2 
 .rodata.node_setup_config_client_event_process.str1.4
                0x0000000000045f38       0x9e CMakeFiles/light_switch_provisioner_nrf52840_xxAA_s140_6.0.0.dir/src/node_setup.c.obj
 *fill*         0x0000000000045fd6        0x2 
 .rodata.node_setup_start.str1.4
                0x0000000000045fd8       0x86 CMakeFiles/light_switch_provisioner_nrf52840_xxAA_s140_6.0.0.dir/src/node_setup.c.obj
 *fill*         0x000000000004605e        0x2 
 .rodata.retry_on_fail.str1.4
                0x0000000000046060       0x1b CMakeFiles/light_switch_provisioner_nrf52840_xxAA_s140_6.0.0.dir/src/node_setup.c.obj
 *fill*         0x000000000004607b        0x1 
 .rodata.server1_server2_config_steps
                0x000000000004607c        0x8 CMakeFiles/light_switch_provisioner_nrf52840_xxAA_s140_6.0.0.dir/src/node_setup.c.obj
 .rodata.server_config_steps
                0x0000000000046084        0x7 CMakeFiles/light_switch_provisioner_nrf52840_xxAA_s140_6.0.0.dir/src/node_setup.c.obj
 *fill*         0x000000000004608b        0x1 
 .rodata.mesh_softdevice_init.str1.4
                0x000000000004608c       0xe1 CMakeFiles/light_switch_provisioner_nrf52840_xxAA_s140_6.0.0.dir/__/__/common/src/mesh_softdevice_init.c.obj
 *fill*         0x000000000004616d        0x3 
 .rodata.delay_bytecode.8881
                0x0000000000046170        0x6 CMakeFiles/light_switch_provisioner_nrf52840_xxAA_s140_6.0.0.dir/__/__/common/src/simple_hal.c.obj
 *fill*         0x0000000000046176        0x2 
 .rodata.m_buttons_list
                0x0000000000046178        0x4 CMakeFiles/light_switch_provisioner_nrf52840_xxAA_s140_6.0.0.dir/__/__/common/src/simple_hal.c.obj
 .rodata.app_error_fault_handler.str1.4
                0x000000000004617c       0xfd CMakeFiles/light_switch_provisioner_nrf52840_xxAA_s140_6.0.0.dir/__/__/common/src/app_error_weak.c.obj
 .rodata.mesh_assertion_handler.str1.4
                0x0000000000046279       0xfd CMakeFiles/light_switch_provisioner_nrf52840_xxAA_s140_6.0.0.dir/__/__/common/src/assertion_handler_weak.c.obj
                                          0x1 (size before relaxing)
 *fill*         0x0000000000046279        0x3 
 .rodata.sar_ctx_cancel.str1.4
                0x000000000004627c       0x23 CMakeFiles/light_switch_provisioner_nrf52840_xxAA_s140_6.0.0.dir/__/__/__/mesh/core/src/transport.c.obj
 *fill*         0x000000000004629f        0x1 
 .rodata.transport_packet_in.str1.4
                0x00000000000462a0       0x24 CMakeFiles/light_switch_provisioner_nrf52840_xxAA_s140_6.0.0.dir/__/__/__/mesh/core/src/transport.c.obj
 .rodata.upper_transport_access_packet_in.str1.4
                0x00000000000462c4       0x91 CMakeFiles/light_switch_provisioner_nrf52840_xxAA_s140_6.0.0.dir/__/__/__/mesh/core/src/transport.c.obj
 *fill*         0x0000000000046355        0x3 
 .rodata.upper_transport_packet_in.str1.4
                0x0000000000046358       0x2e CMakeFiles/light_switch_provisioner_nrf52840_xxAA_s140_6.0.0.dir/__/__/__/mesh/core/src/transport.c.obj
 *fill*         0x0000000000046386        0x2 
 .rodata.upper_transport_tx.part.27.str1.4
                0x0000000000046388        0xe CMakeFiles/light_switch_provisioner_nrf52840_xxAA_s140_6.0.0.dir/__/__/__/mesh/core/src/transport.c.obj
                                         0x18 (size before relaxing)
 *fill*         0x0000000000046396        0x2 
 .rodata.m_procedure_steps
                0x0000000000046398       0x28 CMakeFiles/light_switch_provisioner_nrf52840_xxAA_s140_6.0.0.dir/__/__/__/mesh/core/src/flash_manager_defrag.c.obj
 .rodata.m_all_operations
                0x00000000000463c0       0x10 CMakeFiles/light_switch_provisioner_nrf52840_xxAA_s140_6.0.0.dir/__/__/__/mesh/core/src/mesh_flash.c.obj
 .rodata.types_lookup.9513
                0x00000000000463d0        0x4 CMakeFiles/light_switch_provisioner_nrf52840_xxAA_s140_6.0.0.dir/__/__/__/mesh/core/src/nrf_mesh_utils.c.obj
 .rodata.__func__.11985
                0x00000000000463d4       0x15 CMakeFiles/light_switch_provisioner_nrf52840_xxAA_s140_6.0.0.dir/__/__/__/mesh/core/src/nrf_mesh.c.obj
 *fill*         0x00000000000463e9        0x3 
 .rodata.nrf_mesh_listen.str1.4
                0x00000000000463ec       0xab CMakeFiles/light_switch_provisioner_nrf52840_xxAA_s140_6.0.0.dir/__/__/__/mesh/core/src/nrf_mesh.c.obj
 .rodata.nrf_mesh_packet_send.str1.4
                0x0000000000046497       0xab CMakeFiles/light_switch_provisioner_nrf52840_xxAA_s140_6.0.0.dir/__/__/__/mesh/core/src/nrf_mesh.c.obj
                                          0x4 (size before relaxing)
 *fill*         0x0000000000046497        0x1 
 .rodata.CSWTCH.7
                0x0000000000046498       0x20 CMakeFiles/light_switch_provisioner_nrf52840_xxAA_s140_6.0.0.dir/__/__/__/mesh/core/src/hal.c.obj
 .rodata        0x00000000000464b8       0x18 CMakeFiles/light_switch_provisioner_nrf52840_xxAA_s140_6.0.0.dir/__/__/__/mesh/core/src/enc.c.obj
 .rodata.network_packet_in.str1.4
                0x00000000000464d0       0x81 CMakeFiles/light_switch_provisioner_nrf52840_xxAA_s140_6.0.0.dir/__/__/__/mesh/core/src/network.c.obj
 *fill*         0x0000000000046551        0x3 
 .rodata.net_packet_decrypt.str1.4
                0x0000000000046554       0x6b CMakeFiles/light_switch_provisioner_nrf52840_xxAA_s140_6.0.0.dir/__/__/__/mesh/core/src/net_packet.c.obj
                                         0x74 (size before relaxing)
 *fill*         0x00000000000465bf        0x1 
 .rodata        0x00000000000465c0        0x7 CMakeFiles/light_switch_provisioner_nrf52840_xxAA_s140_6.0.0.dir/__/__/__/mesh/core/src/nrf_mesh_keygen.c.obj
 *fill*         0x00000000000465c7        0x1 
 .rodata.log_callback_rtt.str1.4
                0x00000000000465c8       0x15 CMakeFiles/light_switch_provisioner_nrf52840_xxAA_s140_6.0.0.dir/__/__/__/mesh/core/src/log.c.obj
 *fill*         0x00000000000465dd        0x3 
 .rodata.str1.4
                0x00000000000465e0       0x11 CMakeFiles/light_switch_provisioner_nrf52840_xxAA_s140_6.0.0.dir/__/__/__/mesh/core/src/log.c.obj
 *fill*         0x00000000000465f1        0x3 
 .rodata.INVALID_HEADER
                0x00000000000465f4        0x4 CMakeFiles/light_switch_provisioner_nrf52840_xxAA_s140_6.0.0.dir/__/__/__/mesh/core/src/flash_manager.c.obj
                0x00000000000465f4                INVALID_HEADER
 .rodata.PADDING_HEADER
                0x00000000000465f8        0x4 CMakeFiles/light_switch_provisioner_nrf52840_xxAA_s140_6.0.0.dir/__/__/__/mesh/core/src/flash_manager.c.obj
                0x00000000000465f8                PADDING_HEADER
 .rodata.SEAL_HEADER
                0x00000000000465fc        0x4 CMakeFiles/light_switch_provisioner_nrf52840_xxAA_s140_6.0.0.dir/__/__/__/mesh/core/src/flash_manager.c.obj
                0x00000000000465fc                SEAL_HEADER
 .rodata.beacon_packet_in.str1.4
                0x0000000000046600       0x8d CMakeFiles/light_switch_provisioner_nrf52840_xxAA_s140_6.0.0.dir/__/__/__/mesh/core/src/beacon.c.obj
                                         0x98 (size before relaxing)
 *fill*         0x000000000004668d        0x3 
 .rodata.cp_handler
                0x0000000000046690        0x8 CMakeFiles/light_switch_provisioner_nrf52840_xxAA_s140_6.0.0.dir/__/__/__/mesh/core/src/heartbeat.c.obj
 .rodata.beacon_tx.str1.4
                0x0000000000046698       0x6f CMakeFiles/light_switch_provisioner_nrf52840_xxAA_s140_6.0.0.dir/__/__/__/mesh/core/src/net_beacon.c.obj
 *fill*         0x0000000000046707        0x1 
 .rodata.net_beacon_init.str1.4
                0x0000000000046708        0x5 CMakeFiles/light_switch_provisioner_nrf52840_xxAA_s140_6.0.0.dir/__/__/__/mesh/core/src/net_beacon.c.obj
 *fill*         0x000000000004670d        0x3 
 .rodata.m_interface
                0x0000000000046710        0xc CMakeFiles/light_switch_provisioner_nrf52840_xxAA_s140_6.0.0.dir/__/__/__/mesh/core/src/core_tx_adv.c.obj
 .rodata.radio_mode_to_us_per_byte.9906
                0x000000000004671c        0x6 CMakeFiles/light_switch_provisioner_nrf52840_xxAA_s140_6.0.0.dir/__/__/__/mesh/bearer/src/broadcast.c.obj
 *fill*         0x0000000000046722        0x2 
 .rodata.channel_rf_offsets.9124
                0x0000000000046724       0x28 CMakeFiles/light_switch_provisioner_nrf52840_xxAA_s140_6.0.0.dir/__/__/__/mesh/bearer/src/radio_config.c.obj
 .rodata.m_config_message_lut
                0x000000000004674c       0x5a CMakeFiles/light_switch_provisioner_nrf52840_xxAA_s140_6.0.0.dir/__/__/__/models/config/src/config_client.c.obj
 *fill*         0x00000000000467a6        0x2 
 .rodata.m_opcode_handlers
                0x00000000000467a8       0x78 CMakeFiles/light_switch_provisioner_nrf52840_xxAA_s140_6.0.0.dir/__/__/__/models/config/src/config_client.c.obj
 .rodata        0x0000000000046820        0x8 CMakeFiles/light_switch_provisioner_nrf52840_xxAA_s140_6.0.0.dir/__/__/__/models/config/src/config_server.c.obj
 .rodata.CSWTCH.178
                0x0000000000046828       0x10 CMakeFiles/light_switch_provisioner_nrf52840_xxAA_s140_6.0.0.dir/__/__/__/models/config/src/config_server.c.obj
 .rodata.opcode_handlers
                0x0000000000046838      0x170 CMakeFiles/light_switch_provisioner_nrf52840_xxAA_s140_6.0.0.dir/__/__/__/models/config/src/config_server.c.obj
 .rodata.m_opcode_handlers
                0x00000000000469a8       0x58 CMakeFiles/light_switch_provisioner_nrf52840_xxAA_s140_6.0.0.dir/__/__/__/models/health/src/health_server.c.obj
 .rodata.multiply_de_bruijn_bit_position.9758
                0x0000000000046a00       0x20 CMakeFiles/light_switch_provisioner_nrf52840_xxAA_s140_6.0.0.dir/__/__/__/models/health/src/health_server.c.obj
 .rodata.m_opcode_handlers
                0x0000000000046a20       0x20 CMakeFiles/light_switch_provisioner_nrf52840_xxAA_s140_6.0.0.dir/__/__/__/models/health/src/health_client.c.obj
 .rodata.access_model_publish.str1.4
                0x0000000000046a40       0x1c CMakeFiles/light_switch_provisioner_nrf52840_xxAA_s140_6.0.0.dir/__/__/__/mesh/access/src/access.c.obj
                                         0x24 (size before relaxing)
 .rodata.mesh_evt_cb.str1.4
                0x0000000000046a5c       0x67 CMakeFiles/light_switch_provisioner_nrf52840_xxAA_s140_6.0.0.dir/__/__/__/mesh/access/src/access.c.obj
 *fill*         0x0000000000046ac3        0x1 
 .rodata.multiply_de_bruijn_bit_position.9714
                0x0000000000046ac4       0x20 CMakeFiles/light_switch_provisioner_nrf52840_xxAA_s140_6.0.0.dir/__/__/__/mesh/access/src/access.c.obj
 .rodata.m_flash_groups
                0x0000000000046ae4       0xa8 CMakeFiles/light_switch_provisioner_nrf52840_xxAA_s140_6.0.0.dir/__/__/__/mesh/access/src/device_state_manager.c.obj
 .rodata.multiply_de_bruijn_bit_position.9820
                0x0000000000046b8c       0x20 CMakeFiles/light_switch_provisioner_nrf52840_xxAA_s140_6.0.0.dir/__/__/__/mesh/access/src/device_state_manager.c.obj
 .rodata.m_prov_callbacks
                0x0000000000046bac       0x10 CMakeFiles/light_switch_provisioner_nrf52840_xxAA_s140_6.0.0.dir/__/__/__/mesh/prov/src/prov_provisioner.c.obj
 .rodata.pdu_sizes.11728
                0x0000000000046bbc        0xa CMakeFiles/light_switch_provisioner_nrf52840_xxAA_s140_6.0.0.dir/__/__/__/mesh/prov/src/provisioning.c.obj
 *fill*         0x0000000000046bc6        0x2 
 .rodata.alphanumeric.11833
                0x0000000000046bc8       0x25 CMakeFiles/light_switch_provisioner_nrf52840_xxAA_s140_6.0.0.dir/__/__/__/mesh/prov/src/prov_utils.c.obj
 *fill*         0x0000000000046bed        0x3 
 .rodata.numeric_max.11827
                0x0000000000046bf0       0x24 CMakeFiles/light_switch_provisioner_nrf52840_xxAA_s140_6.0.0.dir/__/__/__/mesh/prov/src/prov_utils.c.obj
 .rodata.prov_utils_authentication_values_derive.str1.4
                0x0000000000046c14        0x5 CMakeFiles/light_switch_provisioner_nrf52840_xxAA_s140_6.0.0.dir/__/__/__/mesh/prov/src/prov_utils.c.obj
 *fill*         0x0000000000046c19        0x3 
 .rodata.prov_utils_derive_keys.str1.4
                0x0000000000046c1c       0x15 CMakeFiles/light_switch_provisioner_nrf52840_xxAA_s140_6.0.0.dir/__/__/__/mesh/prov/src/prov_utils.c.obj
 *fill*         0x0000000000046c31        0x3 
 .rodata.crctable.11462
                0x0000000000046c34      0x100 CMakeFiles/light_switch_provisioner_nrf52840_xxAA_s140_6.0.0.dir/__/__/__/mesh/prov/src/prov_bearer_adv.c.obj
 .rodata.interface.11692
                0x0000000000046d34       0x14 CMakeFiles/light_switch_provisioner_nrf52840_xxAA_s140_6.0.0.dir/__/__/__/mesh/prov/src/prov_bearer_adv.c.obj
 .rodata.prov_bearer_adv_listen.str1.4
                0x0000000000046d48       0x88 CMakeFiles/light_switch_provisioner_nrf52840_xxAA_s140_6.0.0.dir/__/__/__/mesh/prov/src/prov_bearer_adv.c.obj
 .rodata.prov_bearer_adv_packet_in.str1.4
                0x0000000000046dd0      0x283 CMakeFiles/light_switch_provisioner_nrf52840_xxAA_s140_6.0.0.dir/__/__/__/mesh/prov/src/prov_bearer_adv.c.obj
 *fill*         0x0000000000047053        0x1 
 .rodata.tx_retry_cb.str1.4
                0x0000000000047054       0x14 CMakeFiles/light_switch_provisioner_nrf52840_xxAA_s140_6.0.0.dir/__/__/__/mesh/prov/src/prov_bearer_adv.c.obj
 .rodata.SEGGER_RTT_ReadNoLock.str1.4
                0x0000000000047068       0x18 ../../../external/rtt/librtt_nrf52840_xxAA.a(SEGGER_RTT.c.obj)
                                         0x17 (size before relaxing)
 .rodata._aV2C.5639
                0x0000000000047080       0x10 ../../../external/rtt/librtt_nrf52840_xxAA.a(SEGGER_RTT_printf.c.obj)
 .rodata.curve_secp256r1
                0x0000000000047090       0xb0 ../../../external/micro-ecc/libuECC_nrf52840_xxAA.a(uECC.c.obj)
 .rodata._global_impure_ptr
                0x0000000000047140        0x4 /usr/bin/../lib/gcc/arm-none-eabi/7.2.1/../../../../arm-none-eabi/lib/thumb/v7e-m/fpv4-sp/hard/libg_nano.a(lib_a-impure.o)
                0x0000000000047140                _global_impure_ptr
 *(.eh_frame*)
 .eh_frame      0x0000000000047144        0x0 /usr/bin/../lib/gcc/arm-none-eabi/7.2.1/thumb/v7e-m/fpv4-sp/hard/crtbegin.o
 .eh_frame      0x0000000000047144        0x4 /usr/bin/../lib/gcc/arm-none-eabi/7.2.1/thumb/v7e-m/fpv4-sp/hard/crtend.o

.glue_7         0x0000000000047148        0x0
 .glue_7        0x0000000000047148        0x0 linker stubs

.glue_7t        0x0000000000047148        0x0
 .glue_7t       0x0000000000047148        0x0 linker stubs

.vfp11_veneer   0x0000000000047148        0x0
 .vfp11_veneer  0x0000000000047148        0x0 linker stubs

.v4_bx          0x0000000000047148        0x0
 .v4_bx         0x0000000000047148        0x0 linker stubs

.iplt           0x0000000000047148        0x0
 .iplt          0x0000000000047148        0x0 /usr/bin/../lib/gcc/arm-none-eabi/7.2.1/thumb/v7e-m/fpv4-sp/hard/crtbegin.o

.pwr_mgmt_data  0x0000000000047148        0x0
                [!provide]                        PROVIDE (__start_pwr_mgmt_data, .)
 *(SORT_BY_NAME(.pwr_mgmt_data*))
                [!provide]                        PROVIDE (__stop_pwr_mgmt_data, .)

.log_const_data
                0x0000000000047148        0x0
                [!provide]                        PROVIDE (__start_log_const_data, .)
 *(.log_const_data)
                [!provide]                        PROVIDE (__stop_log_const_data, .)

.cli_command    0x0000000000047148        0x0
                [!provide]                        PROVIDE (__start_cli_command, .)
 *(.cli_command)
                [!provide]                        PROVIDE (__stop_cli_command, .)

.sdh_stack_observers
                0x0000000000047148        0x0
                [!provide]                        PROVIDE (__start_sdh_stack_observers, .)
 *(SORT_BY_NAME(.sdh_stack_observers*))
                [!provide]                        PROVIDE (__stop_sdh_stack_observers, .)

.sdh_req_observers
                0x0000000000047148        0x0
                [!provide]                        PROVIDE (__start_sdh_req_observers, .)
 *(SORT_BY_NAME(.sdh_req_observers*))
                [!provide]                        PROVIDE (__stop_sdh_req_observers, .)

.sdh_state_observers
                0x0000000000047148        0x0
                [!provide]                        PROVIDE (__start_sdh_state_observers, .)
 *(SORT_BY_NAME(.sdh_state_observers*))
                [!provide]                        PROVIDE (__stop_sdh_state_observers, .)

.sdh_ant_observers
                0x0000000000047148        0x0
                [!provide]                        PROVIDE (__start_sdh_ant_observers, .)
 *(SORT_BY_NAME(.sdh_ant_observers*))
                [!provide]                        PROVIDE (__stop_sdh_ant_observers, .)

.sdh_ble_observers
                0x0000000000047148        0x0
                [!provide]                        PROVIDE (__start_sdh_ble_observers, .)
 *(SORT_BY_NAME(.sdh_ble_observers*))
                [!provide]                        PROVIDE (__stop_sdh_ble_observers, .)

.sdh_soc_observers
                0x0000000000047148        0x0
                [!provide]                        PROVIDE (__start_sdh_soc_observers, .)
 *(SORT_BY_NAME(.sdh_soc_observers*))
                [!provide]                        PROVIDE (__stop_sdh_soc_observers, .)

.ARM.extab
 *(.ARM.extab* .gnu.linkonce.armextab.*)
                0x0000000000047148                __exidx_start = .

.ARM.exidx      0x0000000000047148        0x8
 *(.ARM.exidx* .gnu.linkonce.armexidx.*)
 .ARM.exidx     0x0000000000047148        0x8 /usr/bin/../lib/gcc/arm-none-eabi/7.2.1/../../../../arm-none-eabi/lib/thumb/v7e-m/fpv4-sp/hard/crt0.o
 .ARM.exidx     0x0000000000047150        0x0 /usr/bin/../lib/gcc/arm-none-eabi/7.2.1/thumb/v7e-m/fpv4-sp/hard/libgcc.a(_udivmoddi4.o)
                                          0x8 (size before relaxing)
                0x0000000000047150                __exidx_end = .
                0x0000000000047150                __etext = .

.rel.dyn        0x0000000000047150        0x0
 .rel.iplt      0x0000000000047150        0x0 /usr/bin/../lib/gcc/arm-none-eabi/7.2.1/thumb/v7e-m/fpv4-sp/hard/crtbegin.o

.data           0x00000000200032c8      0x174 load address 0x0000000000047150
                0x00000000200032c8                __data_start__ = .
 *(vtable)
 *(.data*)
 .data.flash_add_mem_available_struct.13646
                0x00000000200032c8       0x10 CMakeFiles/light_switch_provisioner_nrf52840_xxAA_s140_6.0.0.dir/src/main.c.obj
 .data.flash_add_mem_available_struct.13657
                0x00000000200032d8       0x10 CMakeFiles/light_switch_provisioner_nrf52840_xxAA_s140_6.0.0.dir/src/main.c.obj
 .data.m_mesh_core_event_handler
                0x00000000200032e8        0x8 CMakeFiles/light_switch_provisioner_nrf52840_xxAA_s140_6.0.0.dir/src/main.c.obj
 .data.mem_listener.13662
                0x00000000200032f0       0x10 CMakeFiles/light_switch_provisioner_nrf52840_xxAA_s140_6.0.0.dir/src/main.c.obj
 .data.mp_config_step
                0x0000000020003300        0x4 CMakeFiles/light_switch_provisioner_nrf52840_xxAA_s140_6.0.0.dir/src/node_setup.c.obj
 .data.wait.9426
                0x0000000020003304        0x1 CMakeFiles/light_switch_provisioner_nrf52840_xxAA_s140_6.0.0.dir/__/__/common/src/app_error_weak.c.obj
 *fill*         0x0000000020003305        0x3 
 .data.mem_listener.10264
                0x0000000020003308       0x10 CMakeFiles/light_switch_provisioner_nrf52840_xxAA_s140_6.0.0.dir/__/__/__/mesh/core/src/net_state.c.obj
 .data.mem_listener.10269
                0x0000000020003318       0x10 CMakeFiles/light_switch_provisioner_nrf52840_xxAA_s140_6.0.0.dir/__/__/__/mesh/core/src/net_state.c.obj
 .data.mem_listener.10283
                0x0000000020003328       0x10 CMakeFiles/light_switch_provisioner_nrf52840_xxAA_s140_6.0.0.dir/__/__/__/mesh/core/src/net_state.c.obj
 .data.mem_listener.10300
                0x0000000020003338       0x10 CMakeFiles/light_switch_provisioner_nrf52840_xxAA_s140_6.0.0.dir/__/__/__/mesh/core/src/net_state.c.obj
 .data.m_nrf_mesh_listener
                0x0000000020003348        0xc CMakeFiles/light_switch_provisioner_nrf52840_xxAA_s140_6.0.0.dir/__/__/__/mesh/core/src/nrf_mesh.c.obj
 .data.g_log_dbg_lvl
                0x0000000020003354        0x4 CMakeFiles/light_switch_provisioner_nrf52840_xxAA_s140_6.0.0.dir/__/__/__/mesh/core/src/log.c.obj
                0x0000000020003354                g_log_dbg_lvl
 .data.g_log_dbg_msk
                0x0000000020003358        0x4 CMakeFiles/light_switch_provisioner_nrf52840_xxAA_s140_6.0.0.dir/__/__/__/mesh/core/src/log.c.obj
                0x0000000020003358                g_log_dbg_msk
 .data.g_log_hex_digits
                0x000000002000335c        0x4 CMakeFiles/light_switch_provisioner_nrf52840_xxAA_s140_6.0.0.dir/__/__/__/mesh/core/src/log.c.obj
                0x000000002000335c                g_log_hex_digits
 .data.m_log_callback
                0x0000000020003360        0x4 CMakeFiles/light_switch_provisioner_nrf52840_xxAA_s140_6.0.0.dir/__/__/__/mesh/core/src/log.c.obj
                0x0000000020003360                m_log_callback
 .data.m_config_server_handle
                0x0000000020003364        0x2 CMakeFiles/light_switch_provisioner_nrf52840_xxAA_s140_6.0.0.dir/__/__/__/models/config/src/config_server.c.obj
 *fill*         0x0000000020003366        0x2 
 .data.m_mesh_evt_handler
                0x0000000020003368        0x8 CMakeFiles/light_switch_provisioner_nrf52840_xxAA_s140_6.0.0.dir/__/__/__/models/config/src/config_server.c.obj
 .data.flash_add_mem_available_struct.10838
                0x0000000020003370       0x10 CMakeFiles/light_switch_provisioner_nrf52840_xxAA_s140_6.0.0.dir/__/__/__/mesh/access/src/access.c.obj
 .data.flash_clear_mem_available_struct.10927
                0x0000000020003380       0x10 CMakeFiles/light_switch_provisioner_nrf52840_xxAA_s140_6.0.0.dir/__/__/__/mesh/access/src/access.c.obj
 .data.flash_store_mem_available_struct.10951
                0x0000000020003390       0x10 CMakeFiles/light_switch_provisioner_nrf52840_xxAA_s140_6.0.0.dir/__/__/__/mesh/access/src/access.c.obj
 .data.m_default_ttl
                0x00000000200033a0        0x1 CMakeFiles/light_switch_provisioner_nrf52840_xxAA_s140_6.0.0.dir/__/__/__/mesh/access/src/access.c.obj
 *fill*         0x00000000200033a1        0x3 
 .data.mem_listener.11127
                0x00000000200033a4       0x10 CMakeFiles/light_switch_provisioner_nrf52840_xxAA_s140_6.0.0.dir/__/__/__/mesh/access/src/device_state_manager.c.obj
 .data.mem_listener.11153
                0x00000000200033b4       0x10 CMakeFiles/light_switch_provisioner_nrf52840_xxAA_s140_6.0.0.dir/__/__/__/mesh/access/src/device_state_manager.c.obj
 .data.m_async_process_flag
                0x00000000200033c4        0x4 CMakeFiles/light_switch_provisioner_nrf52840_xxAA_s140_6.0.0.dir/__/__/__/mesh/prov/src/prov_bearer_adv.c.obj
 .data.SystemCoreClock
                0x00000000200033c8        0x4 CMakeFiles/light_switch_provisioner_nrf52840_xxAA_s140_6.0.0.dir/home/mazzer/work/nordic/sdk/nRF5_SDK_15.0.0/modules/nrfx/mdk/system_nrf52840.c.obj
                0x00000000200033c8                SystemCoreClock
 .data.g_rng_function
                0x00000000200033cc        0x4 ../../../external/micro-ecc/libuECC_nrf52840_xxAA.a(uECC.c.obj)
 .data._impure_ptr
                0x00000000200033d0        0x4 /usr/bin/../lib/gcc/arm-none-eabi/7.2.1/../../../../arm-none-eabi/lib/thumb/v7e-m/fpv4-sp/hard/libg_nano.a(lib_a-impure.o)
                0x00000000200033d0                _impure_ptr
 .data.impure_data
                0x00000000200033d4       0x60 /usr/bin/../lib/gcc/arm-none-eabi/7.2.1/../../../../arm-none-eabi/lib/thumb/v7e-m/fpv4-sp/hard/libg_nano.a(lib_a-impure.o)
                0x0000000020003434                . = ALIGN (0x4)
                0x0000000020003434                PROVIDE (__preinit_array_start, .)
 *(.preinit_array)
                0x0000000020003434                PROVIDE (__preinit_array_end, .)
                0x0000000020003434                . = ALIGN (0x4)
                0x0000000020003434                PROVIDE (__init_array_start, .)
 *(SORT_BY_NAME(.init_array.*))
 *(.init_array)
 .init_array    0x0000000020003434        0x4 /usr/bin/../lib/gcc/arm-none-eabi/7.2.1/thumb/v7e-m/fpv4-sp/hard/crtbegin.o
                0x0000000020003438                PROVIDE (__init_array_end, .)
                0x0000000020003438                . = ALIGN (0x4)
                [!provide]                        PROVIDE (__fini_array_start, .)
 *(SORT_BY_NAME(.fini_array.*))
 *(.fini_array)
 .fini_array    0x0000000020003438        0x4 /usr/bin/../lib/gcc/arm-none-eabi/7.2.1/thumb/v7e-m/fpv4-sp/hard/crtbegin.o
                [!provide]                        PROVIDE (__fini_array_end, .)
 *(.jcr*)
                0x000000002000343c                . = ALIGN (0x4)
                0x000000002000343c                __data_end__ = .
LOAD /usr/bin/../lib/gcc/arm-none-eabi/7.2.1/thumb/v7e-m/fpv4-sp/hard/crti.o
LOAD /usr/bin/../lib/gcc/arm-none-eabi/7.2.1/thumb/v7e-m/fpv4-sp/hard/crtbegin.o
LOAD /usr/bin/../lib/gcc/arm-none-eabi/7.2.1/../../../../arm-none-eabi/lib/thumb/v7e-m/fpv4-sp/hard/crt0.o
LOAD CMakeFiles/light_switch_provisioner_nrf52840_xxAA_s140_6.0.0.dir/src/main.c.obj
LOAD CMakeFiles/light_switch_provisioner_nrf52840_xxAA_s140_6.0.0.dir/__/__/__/mesh/stack/src/mesh_stack.c.obj
LOAD CMakeFiles/light_switch_provisioner_nrf52840_xxAA_s140_6.0.0.dir/src/provisioner_helper.c.obj
LOAD CMakeFiles/light_switch_provisioner_nrf52840_xxAA_s140_6.0.0.dir/src/node_setup.c.obj
LOAD CMakeFiles/light_switch_provisioner_nrf52840_xxAA_s140_6.0.0.dir/__/__/common/src/mesh_softdevice_init.c.obj
LOAD CMakeFiles/light_switch_provisioner_nrf52840_xxAA_s140_6.0.0.dir/__/__/common/src/rtt_input.c.obj
LOAD CMakeFiles/light_switch_provisioner_nrf52840_xxAA_s140_6.0.0.dir/__/__/common/src/simple_hal.c.obj
LOAD CMakeFiles/light_switch_provisioner_nrf52840_xxAA_s140_6.0.0.dir/__/__/nrf_mesh_weak.c.obj
LOAD CMakeFiles/light_switch_provisioner_nrf52840_xxAA_s140_6.0.0.dir/__/__/common/src/app_error_weak.c.obj
LOAD CMakeFiles/light_switch_provisioner_nrf52840_xxAA_s140_6.0.0.dir/__/__/common/src/assertion_handler_weak.c.obj
LOAD CMakeFiles/light_switch_provisioner_nrf52840_xxAA_s140_6.0.0.dir/__/__/__/mesh/core/src/internal_event.c.obj
LOAD CMakeFiles/light_switch_provisioner_nrf52840_xxAA_s140_6.0.0.dir/__/__/__/mesh/core/src/nrf_mesh_configure.c.obj
LOAD CMakeFiles/light_switch_provisioner_nrf52840_xxAA_s140_6.0.0.dir/__/__/__/mesh/core/src/aes.c.obj
LOAD CMakeFiles/light_switch_provisioner_nrf52840_xxAA_s140_6.0.0.dir/__/__/__/mesh/core/src/msg_cache.c.obj
LOAD CMakeFiles/light_switch_provisioner_nrf52840_xxAA_s140_6.0.0.dir/__/__/__/mesh/core/src/transport.c.obj
LOAD CMakeFiles/light_switch_provisioner_nrf52840_xxAA_s140_6.0.0.dir/__/__/__/mesh/core/src/event.c.obj
LOAD CMakeFiles/light_switch_provisioner_nrf52840_xxAA_s140_6.0.0.dir/__/__/__/mesh/core/src/packet_buffer.c.obj
LOAD CMakeFiles/light_switch_provisioner_nrf52840_xxAA_s140_6.0.0.dir/__/__/__/mesh/core/src/flash_manager_defrag.c.obj
LOAD CMakeFiles/light_switch_provisioner_nrf52840_xxAA_s140_6.0.0.dir/__/__/__/mesh/core/src/fifo.c.obj
LOAD CMakeFiles/light_switch_provisioner_nrf52840_xxAA_s140_6.0.0.dir/__/__/__/mesh/core/src/nrf_flash.c.obj
LOAD CMakeFiles/light_switch_provisioner_nrf52840_xxAA_s140_6.0.0.dir/__/__/__/mesh/core/src/packet_mgr.c.obj
LOAD CMakeFiles/light_switch_provisioner_nrf52840_xxAA_s140_6.0.0.dir/__/__/__/mesh/core/src/net_state.c.obj
LOAD CMakeFiles/light_switch_provisioner_nrf52840_xxAA_s140_6.0.0.dir/__/__/__/mesh/core/src/mesh_flash.c.obj
LOAD CMakeFiles/light_switch_provisioner_nrf52840_xxAA_s140_6.0.0.dir/__/__/__/mesh/core/src/nrf_mesh_utils.c.obj
LOAD CMakeFiles/light_switch_provisioner_nrf52840_xxAA_s140_6.0.0.dir/__/__/__/mesh/core/src/nrf_mesh.c.obj
LOAD CMakeFiles/light_switch_provisioner_nrf52840_xxAA_s140_6.0.0.dir/__/__/__/mesh/core/src/queue.c.obj
LOAD CMakeFiles/light_switch_provisioner_nrf52840_xxAA_s140_6.0.0.dir/__/__/__/mesh/core/src/hal.c.obj
LOAD CMakeFiles/light_switch_provisioner_nrf52840_xxAA_s140_6.0.0.dir/__/__/__/mesh/core/src/aes_cmac.c.obj
LOAD CMakeFiles/light_switch_provisioner_nrf52840_xxAA_s140_6.0.0.dir/__/__/__/mesh/core/src/timer_scheduler.c.obj
LOAD CMakeFiles/light_switch_provisioner_nrf52840_xxAA_s140_6.0.0.dir/__/__/__/mesh/core/src/timer.c.obj
LOAD CMakeFiles/light_switch_provisioner_nrf52840_xxAA_s140_6.0.0.dir/__/__/__/mesh/core/src/ticker.c.obj
LOAD CMakeFiles/light_switch_provisioner_nrf52840_xxAA_s140_6.0.0.dir/__/__/__/mesh/core/src/rand.c.obj
LOAD CMakeFiles/light_switch_provisioner_nrf52840_xxAA_s140_6.0.0.dir/__/__/__/mesh/core/src/nrf_mesh_opt.c.obj
LOAD CMakeFiles/light_switch_provisioner_nrf52840_xxAA_s140_6.0.0.dir/__/__/__/mesh/core/src/timeslot.c.obj
LOAD CMakeFiles/light_switch_provisioner_nrf52840_xxAA_s140_6.0.0.dir/__/__/__/mesh/core/src/bearer_event.c.obj
LOAD CMakeFiles/light_switch_provisioner_nrf52840_xxAA_s140_6.0.0.dir/__/__/__/mesh/core/src/enc.c.obj
LOAD CMakeFiles/light_switch_provisioner_nrf52840_xxAA_s140_6.0.0.dir/__/__/__/mesh/core/src/network.c.obj
LOAD CMakeFiles/light_switch_provisioner_nrf52840_xxAA_s140_6.0.0.dir/__/__/__/mesh/core/src/net_packet.c.obj
LOAD CMakeFiles/light_switch_provisioner_nrf52840_xxAA_s140_6.0.0.dir/__/__/__/mesh/core/src/msqueue.c.obj
LOAD CMakeFiles/light_switch_provisioner_nrf52840_xxAA_s140_6.0.0.dir/__/__/__/mesh/core/src/nrf_mesh_keygen.c.obj
LOAD CMakeFiles/light_switch_provisioner_nrf52840_xxAA_s140_6.0.0.dir/__/__/__/mesh/core/src/cache.c.obj
LOAD CMakeFiles/light_switch_provisioner_nrf52840_xxAA_s140_6.0.0.dir/__/__/__/mesh/core/src/uri.c.obj
LOAD CMakeFiles/light_switch_provisioner_nrf52840_xxAA_s140_6.0.0.dir/__/__/__/mesh/core/src/list.c.obj
LOAD CMakeFiles/light_switch_provisioner_nrf52840_xxAA_s140_6.0.0.dir/__/__/__/mesh/core/src/log.c.obj
LOAD CMakeFiles/light_switch_provisioner_nrf52840_xxAA_s140_6.0.0.dir/__/__/__/mesh/core/src/flash_manager.c.obj
LOAD CMakeFiles/light_switch_provisioner_nrf52840_xxAA_s140_6.0.0.dir/__/__/__/mesh/core/src/ccm_soft.c.obj
LOAD CMakeFiles/light_switch_provisioner_nrf52840_xxAA_s140_6.0.0.dir/__/__/__/mesh/core/src/toolchain.c.obj
LOAD CMakeFiles/light_switch_provisioner_nrf52840_xxAA_s140_6.0.0.dir/__/__/__/mesh/core/src/replay_cache.c.obj
LOAD CMakeFiles/light_switch_provisioner_nrf52840_xxAA_s140_6.0.0.dir/__/__/__/mesh/core/src/beacon.c.obj
LOAD CMakeFiles/light_switch_provisioner_nrf52840_xxAA_s140_6.0.0.dir/__/__/__/mesh/core/src/flash_manager_internal.c.obj
LOAD CMakeFiles/light_switch_provisioner_nrf52840_xxAA_s140_6.0.0.dir/__/__/__/mesh/core/src/core_tx.c.obj
LOAD CMakeFiles/light_switch_provisioner_nrf52840_xxAA_s140_6.0.0.dir/__/__/__/mesh/core/src/heartbeat.c.obj
LOAD CMakeFiles/light_switch_provisioner_nrf52840_xxAA_s140_6.0.0.dir/__/__/__/mesh/core/src/net_beacon.c.obj
LOAD CMakeFiles/light_switch_provisioner_nrf52840_xxAA_s140_6.0.0.dir/__/__/__/mesh/core/src/fsm.c.obj
LOAD CMakeFiles/light_switch_provisioner_nrf52840_xxAA_s140_6.0.0.dir/__/__/__/mesh/core/src/core_tx_adv.c.obj
LOAD CMakeFiles/light_switch_provisioner_nrf52840_xxAA_s140_6.0.0.dir/__/__/__/mesh/bearer/src/ad_listener.c.obj
LOAD CMakeFiles/light_switch_provisioner_nrf52840_xxAA_s140_6.0.0.dir/__/__/__/mesh/bearer/src/ad_type_filter.c.obj
LOAD CMakeFiles/light_switch_provisioner_nrf52840_xxAA_s140_6.0.0.dir/__/__/__/mesh/bearer/src/adv_packet_filter.c.obj
LOAD CMakeFiles/light_switch_provisioner_nrf52840_xxAA_s140_6.0.0.dir/__/__/__/mesh/bearer/src/advertiser.c.obj
LOAD CMakeFiles/light_switch_provisioner_nrf52840_xxAA_s140_6.0.0.dir/__/__/__/mesh/bearer/src/bearer_handler.c.obj
LOAD CMakeFiles/light_switch_provisioner_nrf52840_xxAA_s140_6.0.0.dir/__/__/__/mesh/bearer/src/broadcast.c.obj
LOAD CMakeFiles/light_switch_provisioner_nrf52840_xxAA_s140_6.0.0.dir/__/__/__/mesh/bearer/src/filter_engine.c.obj
LOAD CMakeFiles/light_switch_provisioner_nrf52840_xxAA_s140_6.0.0.dir/__/__/__/mesh/bearer/src/gap_address_filter.c.obj
LOAD CMakeFiles/light_switch_provisioner_nrf52840_xxAA_s140_6.0.0.dir/__/__/__/mesh/bearer/src/radio_config.c.obj
LOAD CMakeFiles/light_switch_provisioner_nrf52840_xxAA_s140_6.0.0.dir/__/__/__/mesh/bearer/src/rssi_filter.c.obj
LOAD CMakeFiles/light_switch_provisioner_nrf52840_xxAA_s140_6.0.0.dir/__/__/__/mesh/bearer/src/scanner.c.obj
LOAD CMakeFiles/light_switch_provisioner_nrf52840_xxAA_s140_6.0.0.dir/__/__/__/models/simple_on_off/src/simple_on_off_client.c.obj
LOAD CMakeFiles/light_switch_provisioner_nrf52840_xxAA_s140_6.0.0.dir/__/__/__/models/config/src/config_client.c.obj
LOAD CMakeFiles/light_switch_provisioner_nrf52840_xxAA_s140_6.0.0.dir/__/__/__/models/config/src/composition_data.c.obj
LOAD CMakeFiles/light_switch_provisioner_nrf52840_xxAA_s140_6.0.0.dir/__/__/__/models/config/src/config_server.c.obj
LOAD CMakeFiles/light_switch_provisioner_nrf52840_xxAA_s140_6.0.0.dir/__/__/__/models/config/src/packed_index_list.c.obj
LOAD CMakeFiles/light_switch_provisioner_nrf52840_xxAA_s140_6.0.0.dir/__/__/__/models/health/src/health_server.c.obj
LOAD CMakeFiles/light_switch_provisioner_nrf52840_xxAA_s140_6.0.0.dir/__/__/__/models/health/src/health_client.c.obj
LOAD CMakeFiles/light_switch_provisioner_nrf52840_xxAA_s140_6.0.0.dir/__/__/__/mesh/access/src/access_publish.c.obj
LOAD CMakeFiles/light_switch_provisioner_nrf52840_xxAA_s140_6.0.0.dir/__/__/__/mesh/access/src/access.c.obj
LOAD CMakeFiles/light_switch_provisioner_nrf52840_xxAA_s140_6.0.0.dir/__/__/__/mesh/access/src/access_reliable.c.obj
LOAD CMakeFiles/light_switch_provisioner_nrf52840_xxAA_s140_6.0.0.dir/__/__/__/mesh/access/src/device_state_manager.c.obj
LOAD CMakeFiles/light_switch_provisioner_nrf52840_xxAA_s140_6.0.0.dir/__/__/__/mesh/prov/src/prov_provisioner.c.obj
LOAD CMakeFiles/light_switch_provisioner_nrf52840_xxAA_s140_6.0.0.dir/__/__/__/mesh/prov/src/nrf_mesh_prov.c.obj
LOAD CMakeFiles/light_switch_provisioner_nrf52840_xxAA_s140_6.0.0.dir/__/__/__/mesh/prov/src/provisioning.c.obj
LOAD CMakeFiles/light_switch_provisioner_nrf52840_xxAA_s140_6.0.0.dir/__/__/__/mesh/prov/src/prov_beacon.c.obj
LOAD CMakeFiles/light_switch_provisioner_nrf52840_xxAA_s140_6.0.0.dir/__/__/__/mesh/prov/src/prov_utils.c.obj
LOAD CMakeFiles/light_switch_provisioner_nrf52840_xxAA_s140_6.0.0.dir/__/__/__/mesh/prov/src/prov_bearer_adv.c.obj
LOAD CMakeFiles/light_switch_provisioner_nrf52840_xxAA_s140_6.0.0.dir/home/mazzer/work/nordic/sdk/nRF5_SDK_15.0.0/modules/nrfx/mdk/system_nrf52840.c.obj
LOAD CMakeFiles/light_switch_provisioner_nrf52840_xxAA_s140_6.0.0.dir/home/mazzer/work/nordic/sdk/nRF5_SDK_15.0.0/modules/nrfx/mdk/gcc_startup_nrf52840.S.obj
LOAD CMakeFiles/light_switch_provisioner_nrf52840_xxAA_s140_6.0.0.dir/home/mazzer/work/nordic/sdk/nRF5_SDK_15.0.0/components/libraries/util/app_error.c.obj
LOAD CMakeFiles/light_switch_provisioner_nrf52840_xxAA_s140_6.0.0.dir/home/mazzer/work/nordic/sdk/nRF5_SDK_15.0.0/components/libraries/util/app_error_handler_gcc.c.obj
LOAD ../../../external/rtt/librtt_nrf52840_xxAA.a
LOAD ../../../external/micro-ecc/libuECC_nrf52840_xxAA.a
START GROUP
LOAD /usr/bin/../lib/gcc/arm-none-eabi/7.2.1/thumb/v7e-m/fpv4-sp/hard/libgcc.a
LOAD /usr/bin/../lib/gcc/arm-none-eabi/7.2.1/../../../../arm-none-eabi/lib/thumb/v7e-m/fpv4-sp/hard/libg_nano.a
LOAD /usr/bin/../lib/gcc/arm-none-eabi/7.2.1/../../../../arm-none-eabi/lib/thumb/v7e-m/fpv4-sp/hard/libc_nano.a
END GROUP
START GROUP
LOAD /usr/bin/../lib/gcc/arm-none-eabi/7.2.1/thumb/v7e-m/fpv4-sp/hard/libgcc.a
LOAD /usr/bin/../lib/gcc/arm-none-eabi/7.2.1/../../../../arm-none-eabi/lib/thumb/v7e-m/fpv4-sp/hard/libc_nano.a
END GROUP
LOAD /usr/bin/../lib/gcc/arm-none-eabi/7.2.1/thumb/v7e-m/fpv4-sp/hard/crtend.o
LOAD /usr/bin/../lib/gcc/arm-none-eabi/7.2.1/thumb/v7e-m/fpv4-sp/hard/crtn.o
START GROUP
LOAD /usr/bin/../lib/gcc/arm-none-eabi/7.2.1/thumb/v7e-m/fpv4-sp/hard/libgcc.a
LOAD /usr/bin/../lib/gcc/arm-none-eabi/7.2.1/../../../../arm-none-eabi/lib/thumb/v7e-m/fpv4-sp/hard/libc.a
LOAD /usr/bin/../lib/gcc/arm-none-eabi/7.2.1/../../../../arm-none-eabi/lib/thumb/v7e-m/fpv4-sp/hard/libnosys.a
END GROUP

.igot.plt       0x000000002000343c        0x0 load address 0x00000000000472c4
 .igot.plt      0x000000002000343c        0x0 /usr/bin/../lib/gcc/arm-none-eabi/7.2.1/thumb/v7e-m/fpv4-sp/hard/crtbegin.o
                0x000000002000343c                . = ALIGN (0x4)

.svc_data       0x000000002000343c        0x0
                [!provide]                        PROVIDE (__start_svc_data, .)
 *(.svc_data)
                [!provide]                        PROVIDE (__stop_svc_data, .)

.fs_data        0x000000002000343c        0x0
                [!provide]                        PROVIDE (__start_fs_data, .)
 *(.fs_data)
                [!provide]                        PROVIDE (__stop_fs_data, .)

.log_dynamic_data
                0x000000002000343c        0x0
                [!provide]                        PROVIDE (__start_log_dynamic_data, .)
 *(.log_dynamic_data)
                [!provide]                        PROVIDE (__stop_log_dynamic_data, .)

.cli_sorted_cmd_ptrs
                0x000000002000343c        0x0
                [!provide]                        PROVIDE (__start_cli_sorted_cmd_ptrs, .)
 *(.cli_sorted_cmd_ptrs)
                [!provide]                        PROVIDE (__stop_cli_sorted_cmd_ptrs, .)

.bss            0x0000000020003440     0x3588 load address 0x00000000000472c8
                0x0000000020003440                . = ALIGN (0x4)
                0x0000000020003440                __bss_start__ = .
 *(.bss*)
 .bss           0x0000000020003440       0x1c /usr/bin/../lib/gcc/arm-none-eabi/7.2.1/thumb/v7e-m/fpv4-sp/hard/crtbegin.o
 .bss.m_dev_handles
                0x000000002000345c       0x1c CMakeFiles/light_switch_provisioner_nrf52840_xxAA_s140_6.0.0.dir/src/main.c.obj
 .bss.m_exp_uuid
                0x0000000020003478        0x8 CMakeFiles/light_switch_provisioner_nrf52840_xxAA_s140_6.0.0.dir/src/main.c.obj
 .bss.m_flash_manager
                0x0000000020003480       0x24 CMakeFiles/light_switch_provisioner_nrf52840_xxAA_s140_6.0.0.dir/src/main.c.obj
 .bss.m_node_prov_setup_started
                0x00000000200034a4        0x1 CMakeFiles/light_switch_provisioner_nrf52840_xxAA_s140_6.0.0.dir/src/main.c.obj
 *fill*         0x00000000200034a5        0x3 
 .bss.m_nw_state
                0x00000000200034a8       0x38 CMakeFiles/light_switch_provisioner_nrf52840_xxAA_s140_6.0.0.dir/src/main.c.obj
 .bss.s_app_started.13702
                0x00000000200034e0        0x1 CMakeFiles/light_switch_provisioner_nrf52840_xxAA_s140_6.0.0.dir/src/main.c.obj
 *fill*         0x00000000200034e1        0x3 
 .bss.m_health_server
                0x00000000200034e4       0x5c CMakeFiles/light_switch_provisioner_nrf52840_xxAA_s140_6.0.0.dir/__/__/__/mesh/stack/src/mesh_stack.c.obj
 .bss.m_init_params
                0x0000000020003540       0x24 CMakeFiles/light_switch_provisioner_nrf52840_xxAA_s140_6.0.0.dir/__/__/__/mesh/stack/src/mesh_stack.c.obj
 .bss.addr_handle.12536
                0x0000000020003564        0x2 CMakeFiles/light_switch_provisioner_nrf52840_xxAA_s140_6.0.0.dir/src/provisioner_helper.c.obj
 .bss.devkey_handle.12537
                0x0000000020003566        0x2 CMakeFiles/light_switch_provisioner_nrf52840_xxAA_s140_6.0.0.dir/src/provisioner_helper.c.obj
 .bss.m_private_key
                0x0000000020003568       0x20 CMakeFiles/light_switch_provisioner_nrf52840_xxAA_s140_6.0.0.dir/src/provisioner_helper.c.obj
 .bss.m_prov_bearer_adv
                0x0000000020003588      0x1c4 CMakeFiles/light_switch_provisioner_nrf52840_xxAA_s140_6.0.0.dir/src/provisioner_helper.c.obj
 .bss.m_prov_ctx
                0x000000002000374c      0x134 CMakeFiles/light_switch_provisioner_nrf52840_xxAA_s140_6.0.0.dir/src/provisioner_helper.c.obj
 .bss.m_prov_state
                0x0000000020003880        0x1 CMakeFiles/light_switch_provisioner_nrf52840_xxAA_s140_6.0.0.dir/src/provisioner_helper.c.obj
 *fill*         0x0000000020003881        0x3 
 .bss.m_provisioner
                0x0000000020003884       0x18 CMakeFiles/light_switch_provisioner_nrf52840_xxAA_s140_6.0.0.dir/src/provisioner_helper.c.obj
 .bss.m_provisioner_init_done
                0x000000002000389c        0x1 CMakeFiles/light_switch_provisioner_nrf52840_xxAA_s140_6.0.0.dir/src/provisioner_helper.c.obj
 *fill*         0x000000002000389d        0x3 
 .bss.m_public_key
                0x00000000200038a0       0x40 CMakeFiles/light_switch_provisioner_nrf52840_xxAA_s140_6.0.0.dir/src/provisioner_helper.c.obj
 .bss.m_retry_cnt
                0x00000000200038e0        0x1 CMakeFiles/light_switch_provisioner_nrf52840_xxAA_s140_6.0.0.dir/src/provisioner_helper.c.obj
 *fill*         0x00000000200038e1        0x1 
 .bss.m_target_address
                0x00000000200038e2        0x2 CMakeFiles/light_switch_provisioner_nrf52840_xxAA_s140_6.0.0.dir/src/provisioner_helper.c.obj
 .bss.m_target_elements
                0x00000000200038e4        0x2 CMakeFiles/light_switch_provisioner_nrf52840_xxAA_s140_6.0.0.dir/src/provisioner_helper.c.obj
 *fill*         0x00000000200038e6        0x2 
 .bss.mp_expected_uuid
                0x00000000200038e8        0x4 CMakeFiles/light_switch_provisioner_nrf52840_xxAA_s140_6.0.0.dir/src/provisioner_helper.c.obj
 .bss.m_appkey_idx
                0x00000000200038ec        0x2 CMakeFiles/light_switch_provisioner_nrf52840_xxAA_s140_6.0.0.dir/src/node_setup.c.obj
 .bss.m_current_node_addr
                0x00000000200038ee        0x2 CMakeFiles/light_switch_provisioner_nrf52840_xxAA_s140_6.0.0.dir/src/node_setup.c.obj
 .bss.m_expected_status_list
                0x00000000200038f0        0x8 CMakeFiles/light_switch_provisioner_nrf52840_xxAA_s140_6.0.0.dir/src/node_setup.c.obj
 .bss.m_node_composition
                0x00000000200038f8      0x180 CMakeFiles/light_switch_provisioner_nrf52840_xxAA_s140_6.0.0.dir/src/node_setup.c.obj
 .bss.m_node_setup_failed_cb
                0x0000000020003a78        0x4 CMakeFiles/light_switch_provisioner_nrf52840_xxAA_s140_6.0.0.dir/src/node_setup.c.obj
 .bss.m_node_setup_success_cb
                0x0000000020003a7c        0x4 CMakeFiles/light_switch_provisioner_nrf52840_xxAA_s140_6.0.0.dir/src/node_setup.c.obj
 .bss.m_retry_count
                0x0000000020003a80        0x2 CMakeFiles/light_switch_provisioner_nrf52840_xxAA_s140_6.0.0.dir/src/node_setup.c.obj
 *fill*         0x0000000020003a82        0x2 
 .bss.m_send_timer
                0x0000000020003a84       0x1c CMakeFiles/light_switch_provisioner_nrf52840_xxAA_s140_6.0.0.dir/src/node_setup.c.obj
 .bss.m_status_checked
                0x0000000020003aa0        0x1 CMakeFiles/light_switch_provisioner_nrf52840_xxAA_s140_6.0.0.dir/src/node_setup.c.obj
 *fill*         0x0000000020003aa1        0x1 
 .bss.model_element_addr.11745
                0x0000000020003aa2        0x2 CMakeFiles/light_switch_provisioner_nrf52840_xxAA_s140_6.0.0.dir/src/node_setup.c.obj
 .bss.mp_appkey
                0x0000000020003aa4        0x4 CMakeFiles/light_switch_provisioner_nrf52840_xxAA_s140_6.0.0.dir/src/node_setup.c.obj
 .bss.m_rtt_input_handler
                0x0000000020003aa8        0x4 CMakeFiles/light_switch_provisioner_nrf52840_xxAA_s140_6.0.0.dir/__/__/common/src/rtt_input.c.obj
 .bss.m_button_handler_cb
                0x0000000020003aac        0x4 CMakeFiles/light_switch_provisioner_nrf52840_xxAA_s140_6.0.0.dir/__/__/common/src/simple_hal.c.obj
 .bss.m_last_button_press
                0x0000000020003ab0        0x4 CMakeFiles/light_switch_provisioner_nrf52840_xxAA_s140_6.0.0.dir/__/__/common/src/simple_hal.c.obj
 .bss.m_uuid    0x0000000020003ab4       0x10 CMakeFiles/light_switch_provisioner_nrf52840_xxAA_s140_6.0.0.dir/__/__/__/mesh/core/src/nrf_mesh_configure.c.obj
 .bss.m_msg_cache
                0x0000000020003ac4      0x100 CMakeFiles/light_switch_provisioner_nrf52840_xxAA_s140_6.0.0.dir/__/__/__/mesh/core/src/msg_cache.c.obj
 .bss.m_msg_cache_head
                0x0000000020003bc4        0x4 CMakeFiles/light_switch_provisioner_nrf52840_xxAA_s140_6.0.0.dir/__/__/__/mesh/core/src/msg_cache.c.obj
 .bss.m_control_packet_consumer_count
                0x0000000020003bc8        0x4 CMakeFiles/light_switch_provisioner_nrf52840_xxAA_s140_6.0.0.dir/__/__/__/mesh/core/src/transport.c.obj
 .bss.m_control_packet_consumers
                0x0000000020003bcc        0x8 CMakeFiles/light_switch_provisioner_nrf52840_xxAA_s140_6.0.0.dir/__/__/__/mesh/core/src/transport.c.obj
 .bss.m_sar_alloc
                0x0000000020003bd4        0x4 CMakeFiles/light_switch_provisioner_nrf52840_xxAA_s140_6.0.0.dir/__/__/__/mesh/core/src/transport.c.obj
 .bss.m_sar_process_flag
                0x0000000020003bd8        0x4 CMakeFiles/light_switch_provisioner_nrf52840_xxAA_s140_6.0.0.dir/__/__/__/mesh/core/src/transport.c.obj
 .bss.m_sar_release
                0x0000000020003bdc        0x4 CMakeFiles/light_switch_provisioner_nrf52840_xxAA_s140_6.0.0.dir/__/__/__/mesh/core/src/transport.c.obj
 .bss.m_sar_session_cache
                0x0000000020003be0       0x40 CMakeFiles/light_switch_provisioner_nrf52840_xxAA_s140_6.0.0.dir/__/__/__/mesh/core/src/transport.c.obj
 .bss.m_sar_session_cache_head
                0x0000000020003c20        0x4 CMakeFiles/light_switch_provisioner_nrf52840_xxAA_s140_6.0.0.dir/__/__/__/mesh/core/src/transport.c.obj
 .bss.m_trs_config
                0x0000000020003c24       0x18 CMakeFiles/light_switch_provisioner_nrf52840_xxAA_s140_6.0.0.dir/__/__/__/mesh/core/src/transport.c.obj
 .bss.m_trs_sar_sessions
                0x0000000020003c3c      0x1b0 CMakeFiles/light_switch_provisioner_nrf52840_xxAA_s140_6.0.0.dir/__/__/__/mesh/core/src/transport.c.obj
 .bss.mp_evt_handlers_head
                0x0000000020003dec        0x4 CMakeFiles/light_switch_provisioner_nrf52840_xxAA_s140_6.0.0.dir/__/__/__/mesh/core/src/event.c.obj
 .bss.m_defrag  0x0000000020003df0       0x1c CMakeFiles/light_switch_provisioner_nrf52840_xxAA_s140_6.0.0.dir/__/__/__/mesh/core/src/flash_manager_defrag.c.obj
 .bss.m_token   0x0000000020003e0c        0x2 CMakeFiles/light_switch_provisioner_nrf52840_xxAA_s140_6.0.0.dir/__/__/__/mesh/core/src/flash_manager_defrag.c.obj
 *fill*         0x0000000020003e0e        0x2 
 .bss.mp_recovery_area
                0x0000000020003e10        0x4 CMakeFiles/light_switch_provisioner_nrf52840_xxAA_s140_6.0.0.dir/__/__/__/mesh/core/src/flash_manager_defrag.c.obj
 .bss.p_null_ptr.10695
                0x0000000020003e14        0x4 CMakeFiles/light_switch_provisioner_nrf52840_xxAA_s140_6.0.0.dir/__/__/__/mesh/core/src/flash_manager_defrag.c.obj
 .bss.m_pool    0x0000000020003e18     0x1000 CMakeFiles/light_switch_provisioner_nrf52840_xxAA_s140_6.0.0.dir/__/__/__/mesh/core/src/packet_mgr.c.obj
 .bss.mp_free_head
                0x0000000020004e18        0x4 CMakeFiles/light_switch_provisioner_nrf52840_xxAA_s140_6.0.0.dir/__/__/__/mesh/core/src/packet_mgr.c.obj
 .bss.lock_count.10326
                0x0000000020004e1c        0x4 CMakeFiles/light_switch_provisioner_nrf52840_xxAA_s140_6.0.0.dir/__/__/__/mesh/core/src/net_state.c.obj
 .bss.m_flash_manager
                0x0000000020004e20       0x24 CMakeFiles/light_switch_provisioner_nrf52840_xxAA_s140_6.0.0.dir/__/__/__/mesh/core/src/net_state.c.obj
 .bss.m_iv_update_timer
                0x0000000020004e44       0x18 CMakeFiles/light_switch_provisioner_nrf52840_xxAA_s140_6.0.0.dir/__/__/__/mesh/core/src/net_state.c.obj
 .bss.m_mesh_evt_handler
                0x0000000020004e5c        0x8 CMakeFiles/light_switch_provisioner_nrf52840_xxAA_s140_6.0.0.dir/__/__/__/mesh/core/src/net_state.c.obj
 .bss.m_net_state
                0x0000000020004e64       0x14 CMakeFiles/light_switch_provisioner_nrf52840_xxAA_s140_6.0.0.dir/__/__/__/mesh/core/src/net_state.c.obj
 .bss.m_seqnum_allocation_in_progress
                0x0000000020004e78        0x1 CMakeFiles/light_switch_provisioner_nrf52840_xxAA_s140_6.0.0.dir/__/__/__/mesh/core/src/net_state.c.obj
 .bss.m_test_mode
                0x0000000020004e79        0x1 CMakeFiles/light_switch_provisioner_nrf52840_xxAA_s140_6.0.0.dir/__/__/__/mesh/core/src/net_state.c.obj
 *fill*         0x0000000020004e7a        0x2 
 .bss.m_event_flag
                0x0000000020004e7c        0x4 CMakeFiles/light_switch_provisioner_nrf52840_xxAA_s140_6.0.0.dir/__/__/__/mesh/core/src/mesh_flash.c.obj
 .bss.m_suspended
                0x0000000020004e80        0x1 CMakeFiles/light_switch_provisioner_nrf52840_xxAA_s140_6.0.0.dir/__/__/__/mesh/core/src/mesh_flash.c.obj
 *fill*         0x0000000020004e81        0x3 
 .bss.m_users   0x0000000020004e84      0x228 CMakeFiles/light_switch_provisioner_nrf52840_xxAA_s140_6.0.0.dir/__/__/__/mesh/core/src/mesh_flash.c.obj
 .bss.m_is_enabled
                0x00000000200050ac        0x1 CMakeFiles/light_switch_provisioner_nrf52840_xxAA_s140_6.0.0.dir/__/__/__/mesh/core/src/nrf_mesh.c.obj
 .bss.m_is_initialized
                0x00000000200050ad        0x1 CMakeFiles/light_switch_provisioner_nrf52840_xxAA_s140_6.0.0.dir/__/__/__/mesh/core/src/nrf_mesh.c.obj
 *fill*         0x00000000200050ae        0x2 
 .bss.m_rx_cb   0x00000000200050b0        0x4 CMakeFiles/light_switch_provisioner_nrf52840_xxAA_s140_6.0.0.dir/__/__/__/mesh/core/src/nrf_mesh.c.obj
 .bss.m_128buf  0x00000000200050b4       0x10 CMakeFiles/light_switch_provisioner_nrf52840_xxAA_s140_6.0.0.dir/__/__/__/mesh/core/src/aes_cmac.c.obj
 .bss.m_subkey1
                0x00000000200050c4       0x10 CMakeFiles/light_switch_provisioner_nrf52840_xxAA_s140_6.0.0.dir/__/__/__/mesh/core/src/aes_cmac.c.obj
 .bss.m_subkey2
                0x00000000200050d4       0x10 CMakeFiles/light_switch_provisioner_nrf52840_xxAA_s140_6.0.0.dir/__/__/__/mesh/core/src/aes_cmac.c.obj
 .bss.m_event_flag
                0x00000000200050e4        0x4 CMakeFiles/light_switch_provisioner_nrf52840_xxAA_s140_6.0.0.dir/__/__/__/mesh/core/src/timer_scheduler.c.obj
 .bss.m_scheduler
                0x00000000200050e8       0x10 CMakeFiles/light_switch_provisioner_nrf52840_xxAA_s140_6.0.0.dir/__/__/__/mesh/core/src/timer_scheduler.c.obj
 .bss.m_attributes
                0x00000000200050f8        0x3 CMakeFiles/light_switch_provisioner_nrf52840_xxAA_s140_6.0.0.dir/__/__/__/mesh/core/src/timer.c.obj
 *fill*         0x00000000200050fb        0x1 
 .bss.m_callbacks
                0x00000000200050fc        0xc CMakeFiles/light_switch_provisioner_nrf52840_xxAA_s140_6.0.0.dir/__/__/__/mesh/core/src/timer.c.obj
 .bss.m_is_in_ts
                0x0000000020005108        0x1 CMakeFiles/light_switch_provisioner_nrf52840_xxAA_s140_6.0.0.dir/__/__/__/mesh/core/src/timer.c.obj
 *fill*         0x0000000020005109        0x3 
 .bss.m_reference_time
                0x000000002000510c        0x4 CMakeFiles/light_switch_provisioner_nrf52840_xxAA_s140_6.0.0.dir/__/__/__/mesh/core/src/timer.c.obj
 .bss.m_timeouts
                0x0000000020005110        0xc CMakeFiles/light_switch_provisioner_nrf52840_xxAA_s140_6.0.0.dir/__/__/__/mesh/core/src/timer.c.obj
 .bss.m_timer_mut
                0x000000002000511c        0x4 CMakeFiles/light_switch_provisioner_nrf52840_xxAA_s140_6.0.0.dir/__/__/__/mesh/core/src/timer.c.obj
 .bss.m_ts_end_time
                0x0000000020005120        0x4 CMakeFiles/light_switch_provisioner_nrf52840_xxAA_s140_6.0.0.dir/__/__/__/mesh/core/src/timer.c.obj
 .bss.mp_ppi_tasks
                0x0000000020005124        0xc CMakeFiles/light_switch_provisioner_nrf52840_xxAA_s140_6.0.0.dir/__/__/__/mesh/core/src/timer.c.obj
 .bss.m_current_time
                0x0000000020005130        0x4 CMakeFiles/light_switch_provisioner_nrf52840_xxAA_s140_6.0.0.dir/__/__/__/mesh/core/src/ticker.c.obj
 .bss.m_timer   0x0000000020005134       0x18 CMakeFiles/light_switch_provisioner_nrf52840_xxAA_s140_6.0.0.dir/__/__/__/mesh/core/src/ticker.c.obj
 .bss.m_current_timeslot
                0x000000002000514c       0x1c CMakeFiles/light_switch_provisioner_nrf52840_xxAA_s140_6.0.0.dir/__/__/__/mesh/core/src/timeslot.c.obj
 .bss.m_lfclk_ppm
                0x0000000020005168        0x4 CMakeFiles/light_switch_provisioner_nrf52840_xxAA_s140_6.0.0.dir/__/__/__/mesh/core/src/timeslot.c.obj
 .bss.m_radio_request_earliest
                0x000000002000516c       0x10 CMakeFiles/light_switch_provisioner_nrf52840_xxAA_s140_6.0.0.dir/__/__/__/mesh/core/src/timeslot.c.obj
 .bss.m_state_lock
                0x000000002000517c        0x1 CMakeFiles/light_switch_provisioner_nrf52840_xxAA_s140_6.0.0.dir/__/__/__/mesh/core/src/timeslot.c.obj
 .bss.m_timeslot_forced_command
                0x000000002000517d        0x1 CMakeFiles/light_switch_provisioner_nrf52840_xxAA_s140_6.0.0.dir/__/__/__/mesh/core/src/timeslot.c.obj
 *fill*         0x000000002000517e        0x2 
 .bss.s_last_rtc_value.9753
                0x0000000020005180        0x8 CMakeFiles/light_switch_provisioner_nrf52840_xxAA_s140_6.0.0.dir/__/__/__/mesh/core/src/timeslot.c.obj
 .bss.m_bearer_event_fifo
                0x0000000020005188       0x14 CMakeFiles/light_switch_provisioner_nrf52840_xxAA_s140_6.0.0.dir/__/__/__/mesh/core/src/bearer_event.c.obj
 .bss.m_bearer_event_fifo_buffer
                0x000000002000519c      0x100 CMakeFiles/light_switch_provisioner_nrf52840_xxAA_s140_6.0.0.dir/__/__/__/mesh/core/src/bearer_event.c.obj
 .bss.m_critical
                0x000000002000529c        0x4 CMakeFiles/light_switch_provisioner_nrf52840_xxAA_s140_6.0.0.dir/__/__/__/mesh/core/src/bearer_event.c.obj
 .bss.m_flag_count
                0x00000000200052a0        0x4 CMakeFiles/light_switch_provisioner_nrf52840_xxAA_s140_6.0.0.dir/__/__/__/mesh/core/src/bearer_event.c.obj
 .bss.m_flag_event_callbacks
                0x00000000200052a4       0x20 CMakeFiles/light_switch_provisioner_nrf52840_xxAA_s140_6.0.0.dir/__/__/__/mesh/core/src/bearer_event.c.obj
 .bss.m_flags   0x00000000200052c4        0x4 CMakeFiles/light_switch_provisioner_nrf52840_xxAA_s140_6.0.0.dir/__/__/__/mesh/core/src/bearer_event.c.obj
 .bss.m_irq_priority
                0x00000000200052c8        0x1 CMakeFiles/light_switch_provisioner_nrf52840_xxAA_s140_6.0.0.dir/__/__/__/mesh/core/src/bearer_event.c.obj
 *fill*         0x00000000200052c9        0x3 
 .bss.m_sequential_event_queue
                0x00000000200052cc        0x8 CMakeFiles/light_switch_provisioner_nrf52840_xxAA_s140_6.0.0.dir/__/__/__/mesh/core/src/bearer_event.c.obj
 .bss.s_recursion_guard.9884
                0x00000000200052d4        0x1 CMakeFiles/light_switch_provisioner_nrf52840_xxAA_s140_6.0.0.dir/__/__/__/mesh/core/src/bearer_event.c.obj
 *fill*         0x00000000200052d5        0x3 
 .bss.m_relay_check_cb
                0x00000000200052d8        0x4 CMakeFiles/light_switch_provisioner_nrf52840_xxAA_s140_6.0.0.dir/__/__/__/mesh/core/src/network.c.obj
 .bss.m_relay_enable
                0x00000000200052dc        0x1 CMakeFiles/light_switch_provisioner_nrf52840_xxAA_s140_6.0.0.dir/__/__/__/mesh/core/src/network.c.obj
 *fill*         0x00000000200052dd        0x3 
 .bss.m_action_queue
                0x00000000200052e0        0xc CMakeFiles/light_switch_provisioner_nrf52840_xxAA_s140_6.0.0.dir/__/__/__/mesh/core/src/flash_manager.c.obj
 .bss.m_action_queue_buffer
                0x00000000200052ec      0x104 CMakeFiles/light_switch_provisioner_nrf52840_xxAA_s140_6.0.0.dir/__/__/__/mesh/core/src/flash_manager.c.obj
 .bss.m_action_state
                0x00000000200053f0        0x1 CMakeFiles/light_switch_provisioner_nrf52840_xxAA_s140_6.0.0.dir/__/__/__/mesh/core/src/flash_manager.c.obj
 *fill*         0x00000000200053f1        0x3 
 .bss.m_memory_listener_queue
                0x00000000200053f4        0x8 CMakeFiles/light_switch_provisioner_nrf52840_xxAA_s140_6.0.0.dir/__/__/__/mesh/core/src/flash_manager.c.obj
 .bss.m_processing_flag
                0x00000000200053fc        0x4 CMakeFiles/light_switch_provisioner_nrf52840_xxAA_s140_6.0.0.dir/__/__/__/mesh/core/src/flash_manager.c.obj
 .bss.m_queue_empty_cb
                0x0000000020005400        0x4 CMakeFiles/light_switch_provisioner_nrf52840_xxAA_s140_6.0.0.dir/__/__/__/mesh/core/src/flash_manager.c.obj
 .bss.m_state   0x0000000020005404        0x1 CMakeFiles/light_switch_provisioner_nrf52840_xxAA_s140_6.0.0.dir/__/__/__/mesh/core/src/flash_manager.c.obj
 *fill*         0x0000000020005405        0x1 
 .bss.m_token   0x0000000020005406        0x2 CMakeFiles/light_switch_provisioner_nrf52840_xxAA_s140_6.0.0.dir/__/__/__/mesh/core/src/flash_manager.c.obj
 .bss.p_current.11639
                0x0000000020005408        0x4 CMakeFiles/light_switch_provisioner_nrf52840_xxAA_s140_6.0.0.dir/__/__/__/mesh/core/src/flash_manager.c.obj
 .bss.result.11640
                0x000000002000540c        0x1 CMakeFiles/light_switch_provisioner_nrf52840_xxAA_s140_6.0.0.dir/__/__/__/mesh/core/src/flash_manager.c.obj
 .bss.m_cache_index
                0x000000002000540d        0x1 CMakeFiles/light_switch_provisioner_nrf52840_xxAA_s140_6.0.0.dir/__/__/__/mesh/core/src/replay_cache.c.obj
 *fill*         0x000000002000540e        0x2 
 .bss.m_replay_cache
                0x0000000020005410      0x220 CMakeFiles/light_switch_provisioner_nrf52840_xxAA_s140_6.0.0.dir/__/__/__/mesh/core/src/replay_cache.c.obj
 .bss.m_bearer_count
                0x0000000020005630        0x1 CMakeFiles/light_switch_provisioner_nrf52840_xxAA_s140_6.0.0.dir/__/__/__/mesh/core/src/core_tx.c.obj
 *fill*         0x0000000020005631        0x3 
 .bss.m_tx_complete_callback
                0x0000000020005634        0x4 CMakeFiles/light_switch_provisioner_nrf52840_xxAA_s140_6.0.0.dir/__/__/__/mesh/core/src/core_tx.c.obj
 .bss.mp_bearers
                0x0000000020005638        0x4 CMakeFiles/light_switch_provisioner_nrf52840_xxAA_s140_6.0.0.dir/__/__/__/mesh/core/src/core_tx.c.obj
 .bss.m_hb_core_evt_handler
                0x000000002000563c        0x8 CMakeFiles/light_switch_provisioner_nrf52840_xxAA_s140_6.0.0.dir/__/__/__/mesh/core/src/heartbeat.c.obj
 .bss.m_hb_pending_feat_msg
                0x0000000020005644        0x1 CMakeFiles/light_switch_provisioner_nrf52840_xxAA_s140_6.0.0.dir/__/__/__/mesh/core/src/heartbeat.c.obj
 .bss.m_hb_pending_pub_msg
                0x0000000020005645        0x1 CMakeFiles/light_switch_provisioner_nrf52840_xxAA_s140_6.0.0.dir/__/__/__/mesh/core/src/heartbeat.c.obj
 .bss.m_heartbeat_init_done
                0x0000000020005646        0x1 CMakeFiles/light_switch_provisioner_nrf52840_xxAA_s140_6.0.0.dir/__/__/__/mesh/core/src/heartbeat.c.obj
 *fill*         0x0000000020005647        0x1 
 .bss.m_heartbeat_subscription
                0x0000000020005648       0x10 CMakeFiles/light_switch_provisioner_nrf52840_xxAA_s140_6.0.0.dir/__/__/__/mesh/core/src/heartbeat.c.obj
 .bss.m_publication_count_decrement_cb
                0x0000000020005658        0x4 CMakeFiles/light_switch_provisioner_nrf52840_xxAA_s140_6.0.0.dir/__/__/__/mesh/core/src/heartbeat.c.obj
 .bss.m_publication_get_cb
                0x000000002000565c        0x4 CMakeFiles/light_switch_provisioner_nrf52840_xxAA_s140_6.0.0.dir/__/__/__/mesh/core/src/heartbeat.c.obj
 .bss.m_publication_timer
                0x0000000020005660       0x1c CMakeFiles/light_switch_provisioner_nrf52840_xxAA_s140_6.0.0.dir/__/__/__/mesh/core/src/heartbeat.c.obj
 .bss.m_subscription_timer
                0x000000002000567c       0x18 CMakeFiles/light_switch_provisioner_nrf52840_xxAA_s140_6.0.0.dir/__/__/__/mesh/core/src/heartbeat.c.obj
 .bss.m_adv     0x0000000020005694       0x98 CMakeFiles/light_switch_provisioner_nrf52840_xxAA_s140_6.0.0.dir/__/__/__/mesh/core/src/net_beacon.c.obj
 .bss.m_adv_buf
                0x000000002000572c       0x34 CMakeFiles/light_switch_provisioner_nrf52840_xxAA_s140_6.0.0.dir/__/__/__/mesh/core/src/net_beacon.c.obj
 .bss.m_beacon_salt
                0x0000000020005760       0x10 CMakeFiles/light_switch_provisioner_nrf52840_xxAA_s140_6.0.0.dir/__/__/__/mesh/core/src/net_beacon.c.obj
 .bss.m_enabled
                0x0000000020005770        0x1 CMakeFiles/light_switch_provisioner_nrf52840_xxAA_s140_6.0.0.dir/__/__/__/mesh/core/src/net_beacon.c.obj
 *fill*         0x0000000020005771        0x3 
 .bss.m_tx_timer
                0x0000000020005774       0x18 CMakeFiles/light_switch_provisioner_nrf52840_xxAA_s140_6.0.0.dir/__/__/__/mesh/core/src/net_beacon.c.obj
 .bss.mp_beacon_info
                0x000000002000578c        0x4 CMakeFiles/light_switch_provisioner_nrf52840_xxAA_s140_6.0.0.dir/__/__/__/mesh/core/src/net_beacon.c.obj
 .bss.m_bearer  0x0000000020005790        0xc CMakeFiles/light_switch_provisioner_nrf52840_xxAA_s140_6.0.0.dir/__/__/__/mesh/core/src/core_tx_adv.c.obj
 .bss.m_bearer_roles
                0x000000002000579c      0x138 CMakeFiles/light_switch_provisioner_nrf52840_xxAA_s140_6.0.0.dir/__/__/__/mesh/core/src/core_tx_adv.c.obj
 .bss.m_current_alloc
                0x00000000200058d4        0x8 CMakeFiles/light_switch_provisioner_nrf52840_xxAA_s140_6.0.0.dir/__/__/__/mesh/core/src/core_tx_adv.c.obj
 .bss.m_originator_adv_packet_buffer
                0x00000000200058dc      0x100 CMakeFiles/light_switch_provisioner_nrf52840_xxAA_s140_6.0.0.dir/__/__/__/mesh/core/src/core_tx_adv.c.obj
 .bss.m_relay_adv_packet_buffer
                0x00000000200059dc       0x80 CMakeFiles/light_switch_provisioner_nrf52840_xxAA_s140_6.0.0.dir/__/__/__/mesh/core/src/core_tx_adv.c.obj
 .bss.m_subscribers
                0x0000000020005a5c        0x4 CMakeFiles/light_switch_provisioner_nrf52840_xxAA_s140_6.0.0.dir/__/__/__/mesh/bearer/src/ad_listener.c.obj
 .bss.m_adtype_filter
                0x0000000020005a60       0x38 CMakeFiles/light_switch_provisioner_nrf52840_xxAA_s140_6.0.0.dir/__/__/__/mesh/bearer/src/ad_type_filter.c.obj
 .bss.m_adv_prng
                0x0000000020005a98       0x10 CMakeFiles/light_switch_provisioner_nrf52840_xxAA_s140_6.0.0.dir/__/__/__/mesh/bearer/src/advertiser.c.obj
 .bss.m_action_queue
                0x0000000020005aa8        0x8 CMakeFiles/light_switch_provisioner_nrf52840_xxAA_s140_6.0.0.dir/__/__/__/mesh/bearer/src/bearer_handler.c.obj
 .bss.m_end_time
                0x0000000020005ab0        0x4 CMakeFiles/light_switch_provisioner_nrf52840_xxAA_s140_6.0.0.dir/__/__/__/mesh/bearer/src/bearer_handler.c.obj
 .bss.m_scanner_is_active
                0x0000000020005ab4        0x1 CMakeFiles/light_switch_provisioner_nrf52840_xxAA_s140_6.0.0.dir/__/__/__/mesh/bearer/src/bearer_handler.c.obj
 .bss.m_stopped
                0x0000000020005ab5        0x1 CMakeFiles/light_switch_provisioner_nrf52840_xxAA_s140_6.0.0.dir/__/__/__/mesh/bearer/src/bearer_handler.c.obj
 *fill*         0x0000000020005ab6        0x2 
 .bss.mp_action
                0x0000000020005ab8        0x4 CMakeFiles/light_switch_provisioner_nrf52840_xxAA_s140_6.0.0.dir/__/__/__/mesh/bearer/src/bearer_handler.c.obj
 .bss.m_next_channel_index
                0x0000000020005abc        0x1 CMakeFiles/light_switch_provisioner_nrf52840_xxAA_s140_6.0.0.dir/__/__/__/mesh/bearer/src/broadcast.c.obj
 *fill*         0x0000000020005abd        0x3 
 .bss.m_accepted_amount
                0x0000000020005ac0        0x4 CMakeFiles/light_switch_provisioner_nrf52840_xxAA_s140_6.0.0.dir/__/__/__/mesh/bearer/src/filter_engine.c.obj
 .bss.m_filter_list_head
                0x0000000020005ac4        0x4 CMakeFiles/light_switch_provisioner_nrf52840_xxAA_s140_6.0.0.dir/__/__/__/mesh/bearer/src/filter_engine.c.obj
 .bss.m_scanner
                0x0000000020005ac8      0x290 CMakeFiles/light_switch_provisioner_nrf52840_xxAA_s140_6.0.0.dir/__/__/__/mesh/bearer/src/scanner.c.obj
 .bss.m_client  0x0000000020005d58        0x8 CMakeFiles/light_switch_provisioner_nrf52840_xxAA_s140_6.0.0.dir/__/__/__/models/config/src/config_client.c.obj
 .bss.mp_packet_buffer
                0x0000000020005d60        0x4 CMakeFiles/light_switch_provisioner_nrf52840_xxAA_s140_6.0.0.dir/__/__/__/models/config/src/config_client.c.obj
 .bss.m_evt_cb  0x0000000020005d64        0x4 CMakeFiles/light_switch_provisioner_nrf52840_xxAA_s140_6.0.0.dir/__/__/__/models/config/src/config_server.c.obj
 .bss.m_heartbeat_publication
                0x0000000020005d68       0x14 CMakeFiles/light_switch_provisioner_nrf52840_xxAA_s140_6.0.0.dir/__/__/__/models/config/src/config_server.c.obj
 .bss.m_node_reset_pending
                0x0000000020005d7c        0x1 CMakeFiles/light_switch_provisioner_nrf52840_xxAA_s140_6.0.0.dir/__/__/__/models/config/src/config_server.c.obj
 *fill*         0x0000000020005d7d        0x3 
 .bss.m_attention_timer
                0x0000000020005d80       0x18 CMakeFiles/light_switch_provisioner_nrf52840_xxAA_s140_6.0.0.dir/__/__/__/models/health/src/health_server.c.obj
 .bss.mp_attention_list
                0x0000000020005d98        0x4 CMakeFiles/light_switch_provisioner_nrf52840_xxAA_s140_6.0.0.dir/__/__/__/models/health/src/health_server.c.obj
 .bss.m_publish_timer
                0x0000000020005d9c       0x18 CMakeFiles/light_switch_provisioner_nrf52840_xxAA_s140_6.0.0.dir/__/__/__/mesh/access/src/access_publish.c.obj
 .bss.m_publish_timer_counter
                0x0000000020005db4        0x4 CMakeFiles/light_switch_provisioner_nrf52840_xxAA_s140_6.0.0.dir/__/__/__/mesh/access/src/access_publish.c.obj
 .bss.m_publish_timer_running
                0x0000000020005db8        0x1 CMakeFiles/light_switch_provisioner_nrf52840_xxAA_s140_6.0.0.dir/__/__/__/mesh/access/src/access_publish.c.obj
 .bss.m_timer_resolution
                0x0000000020005db9        0x1 CMakeFiles/light_switch_provisioner_nrf52840_xxAA_s140_6.0.0.dir/__/__/__/mesh/access/src/access_publish.c.obj
 *fill*         0x0000000020005dba        0x2 
 .bss.mp_publication_list
                0x0000000020005dbc        0x4 CMakeFiles/light_switch_provisioner_nrf52840_xxAA_s140_6.0.0.dir/__/__/__/mesh/access/src/access_publish.c.obj
 .bss.m_element_pool
                0x0000000020005dc0        0x6 CMakeFiles/light_switch_provisioner_nrf52840_xxAA_s140_6.0.0.dir/__/__/__/mesh/access/src/access.c.obj
 *fill*         0x0000000020005dc6        0x2 
 .bss.m_evt_handler
                0x0000000020005dc8        0x8 CMakeFiles/light_switch_provisioner_nrf52840_xxAA_s140_6.0.0.dir/__/__/__/mesh/access/src/access.c.obj
 .bss.m_flash_manager
                0x0000000020005dd0       0x24 CMakeFiles/light_switch_provisioner_nrf52840_xxAA_s140_6.0.0.dir/__/__/__/mesh/access/src/access.c.obj
 .bss.m_flash_not_ready
                0x0000000020005df4        0x1 CMakeFiles/light_switch_provisioner_nrf52840_xxAA_s140_6.0.0.dir/__/__/__/mesh/access/src/access.c.obj
 .bss.m_metadata_stored
                0x0000000020005df5        0x1 CMakeFiles/light_switch_provisioner_nrf52840_xxAA_s140_6.0.0.dir/__/__/__/mesh/access/src/access.c.obj
 *fill*         0x0000000020005df6        0x2 
 .bss.m_model_pool
                0x0000000020005df8       0xe0 CMakeFiles/light_switch_provisioner_nrf52840_xxAA_s140_6.0.0.dir/__/__/__/mesh/access/src/access.c.obj
 .bss.m_subscription_list_pool
                0x0000000020005ed8       0x30 CMakeFiles/light_switch_provisioner_nrf52840_xxAA_s140_6.0.0.dir/__/__/__/mesh/access/src/access.c.obj
 .bss.m_reliable
                0x0000000020005f08       0xcc CMakeFiles/light_switch_provisioner_nrf52840_xxAA_s140_6.0.0.dir/__/__/__/mesh/access/src/access_reliable.c.obj
 .bss.m_addr_nonvirtual_allocated
                0x0000000020005fd4        0x8 CMakeFiles/light_switch_provisioner_nrf52840_xxAA_s140_6.0.0.dir/__/__/__/mesh/access/src/device_state_manager.c.obj
 .bss.m_addr_nonvirtual_needs_flashing
                0x0000000020005fdc        0x8 CMakeFiles/light_switch_provisioner_nrf52840_xxAA_s140_6.0.0.dir/__/__/__/mesh/access/src/device_state_manager.c.obj
 .bss.m_addr_unicast_allocated
                0x0000000020005fe4        0x4 CMakeFiles/light_switch_provisioner_nrf52840_xxAA_s140_6.0.0.dir/__/__/__/mesh/access/src/device_state_manager.c.obj
 .bss.m_addr_unicast_needs_flashing
                0x0000000020005fe8        0x4 CMakeFiles/light_switch_provisioner_nrf52840_xxAA_s140_6.0.0.dir/__/__/__/mesh/access/src/device_state_manager.c.obj
 .bss.m_addr_virtual_allocated
                0x0000000020005fec        0x4 CMakeFiles/light_switch_provisioner_nrf52840_xxAA_s140_6.0.0.dir/__/__/__/mesh/access/src/device_state_manager.c.obj
 .bss.m_addr_virtual_needs_flashing
                0x0000000020005ff0        0x4 CMakeFiles/light_switch_provisioner_nrf52840_xxAA_s140_6.0.0.dir/__/__/__/mesh/access/src/device_state_manager.c.obj
 .bss.m_addresses
                0x0000000020005ff4       0x88 CMakeFiles/light_switch_provisioner_nrf52840_xxAA_s140_6.0.0.dir/__/__/__/mesh/access/src/device_state_manager.c.obj
 .bss.m_appkey_allocated
                0x000000002000607c        0x4 CMakeFiles/light_switch_provisioner_nrf52840_xxAA_s140_6.0.0.dir/__/__/__/mesh/access/src/device_state_manager.c.obj
 .bss.m_appkey_needs_flashing
                0x0000000020006080        0x4 CMakeFiles/light_switch_provisioner_nrf52840_xxAA_s140_6.0.0.dir/__/__/__/mesh/access/src/device_state_manager.c.obj
 .bss.m_appkeys
                0x0000000020006084       0x2a CMakeFiles/light_switch_provisioner_nrf52840_xxAA_s140_6.0.0.dir/__/__/__/mesh/access/src/device_state_manager.c.obj
 *fill*         0x00000000200060ae        0x2 
 .bss.m_devkey_allocated
                0x00000000200060b0        0x4 CMakeFiles/light_switch_provisioner_nrf52840_xxAA_s140_6.0.0.dir/__/__/__/mesh/access/src/device_state_manager.c.obj
 .bss.m_devkey_needs_flashing
                0x00000000200060b4        0x4 CMakeFiles/light_switch_provisioner_nrf52840_xxAA_s140_6.0.0.dir/__/__/__/mesh/access/src/device_state_manager.c.obj
 .bss.m_devkeys
                0x00000000200060b8      0x2c0 CMakeFiles/light_switch_provisioner_nrf52840_xxAA_s140_6.0.0.dir/__/__/__/mesh/access/src/device_state_manager.c.obj
 .bss.m_flash_is_available
                0x0000000020006378        0x1 CMakeFiles/light_switch_provisioner_nrf52840_xxAA_s140_6.0.0.dir/__/__/__/mesh/access/src/device_state_manager.c.obj
 *fill*         0x0000000020006379        0x3 
 .bss.m_flash_manager
                0x000000002000637c       0x24 CMakeFiles/light_switch_provisioner_nrf52840_xxAA_s140_6.0.0.dir/__/__/__/mesh/access/src/device_state_manager.c.obj
 .bss.m_flash_mem_listener_update_all
                0x00000000200063a0       0x10 CMakeFiles/light_switch_provisioner_nrf52840_xxAA_s140_6.0.0.dir/__/__/__/mesh/access/src/device_state_manager.c.obj
 .bss.m_has_primary_subnet
                0x00000000200063b0        0x1 CMakeFiles/light_switch_provisioner_nrf52840_xxAA_s140_6.0.0.dir/__/__/__/mesh/access/src/device_state_manager.c.obj
 *fill*         0x00000000200063b1        0x3 
 .bss.m_local_unicast_addr
                0x00000000200063b4        0x4 CMakeFiles/light_switch_provisioner_nrf52840_xxAA_s140_6.0.0.dir/__/__/__/mesh/access/src/device_state_manager.c.obj
 .bss.m_mesh_evt_handler
                0x00000000200063b8        0x8 CMakeFiles/light_switch_provisioner_nrf52840_xxAA_s140_6.0.0.dir/__/__/__/mesh/access/src/device_state_manager.c.obj
 .bss.m_subnet_allocated
                0x00000000200063c0        0x4 CMakeFiles/light_switch_provisioner_nrf52840_xxAA_s140_6.0.0.dir/__/__/__/mesh/access/src/device_state_manager.c.obj
 .bss.m_subnet_needs_flashing
                0x00000000200063c4        0x4 CMakeFiles/light_switch_provisioner_nrf52840_xxAA_s140_6.0.0.dir/__/__/__/mesh/access/src/device_state_manager.c.obj
 .bss.m_subnets
                0x00000000200063c8       0xa8 CMakeFiles/light_switch_provisioner_nrf52840_xxAA_s140_6.0.0.dir/__/__/__/mesh/access/src/device_state_manager.c.obj
 .bss.m_virtual_addresses
                0x0000000020006470       0x14 CMakeFiles/light_switch_provisioner_nrf52840_xxAA_s140_6.0.0.dir/__/__/__/mesh/access/src/device_state_manager.c.obj
 .bss.m_event_handler
                0x0000000020006484        0x4 CMakeFiles/light_switch_provisioner_nrf52840_xxAA_s140_6.0.0.dir/__/__/__/mesh/prov/src/prov_beacon.c.obj
 .bss.m_offload_ecdh
                0x0000000020006488        0x1 CMakeFiles/light_switch_provisioner_nrf52840_xxAA_s140_6.0.0.dir/__/__/__/mesh/prov/src/prov_utils.c.obj
 *fill*         0x0000000020006489        0x3 
 .bss.mp_bearer_head
                0x000000002000648c        0x4 CMakeFiles/light_switch_provisioner_nrf52840_xxAA_s140_6.0.0.dir/__/__/__/mesh/prov/src/prov_bearer_adv.c.obj
 .bss._acDownBuffer
                0x0000000020006490       0x80 ../../../external/rtt/librtt_nrf52840_xxAA.a(SEGGER_RTT.c.obj)
 .bss._acUpBuffer
                0x0000000020006510      0x400 ../../../external/rtt/librtt_nrf52840_xxAA.a(SEGGER_RTT.c.obj)
 .bss.__malloc_free_list
                0x0000000020006910        0x4 /usr/bin/../lib/gcc/arm-none-eabi/7.2.1/../../../../arm-none-eabi/lib/thumb/v7e-m/fpv4-sp/hard/libg_nano.a(lib_a-nano-mallocr.o)
                0x0000000020006910                __malloc_free_list
 .bss.__malloc_sbrk_start
                0x0000000020006914        0x4 /usr/bin/../lib/gcc/arm-none-eabi/7.2.1/../../../../arm-none-eabi/lib/thumb/v7e-m/fpv4-sp/hard/libg_nano.a(lib_a-nano-mallocr.o)
                0x0000000020006914                __malloc_sbrk_start
 .bss.heap_end.5377
                0x0000000020006918        0x4 /usr/bin/../lib/gcc/arm-none-eabi/7.2.1/../../../../arm-none-eabi/lib/thumb/v7e-m/fpv4-sp/hard/libnosys.a(sbrk.o)
 *(COMMON)
 COMMON         0x000000002000691c        0xc CMakeFiles/light_switch_provisioner_nrf52840_xxAA_s140_6.0.0.dir/__/__/common/src/mesh_softdevice_init.c.obj
                0x000000002000691c                nrf_nvic_state
 COMMON         0x0000000020006928       0x24 CMakeFiles/light_switch_provisioner_nrf52840_xxAA_s140_6.0.0.dir/__/__/__/mesh/core/src/core_tx.c.obj
                0x0000000020006928                m_packet
 COMMON         0x000000002000694c       0x78 ../../../external/rtt/librtt_nrf52840_xxAA.a(SEGGER_RTT.c.obj)
                0x000000002000694c                _SEGGER_RTT
 COMMON         0x00000000200069c4        0x4 /usr/bin/../lib/gcc/arm-none-eabi/7.2.1/../../../../arm-none-eabi/lib/thumb/v7e-m/fpv4-sp/hard/libg_nano.a(lib_a-reent.o)
                0x00000000200069c4                errno
                0x00000000200069c8                . = ALIGN (0x4)
                0x00000000200069c8                __bss_end__ = .

.heap           0x00000000200069c8     0x2000
                0x00000000200069c8                __HeapBase = .
                0x00000000200069c8                __end__ = .
                0x00000000200069c8                PROVIDE (end, .)
 *(.heap*)
 .heap          0x00000000200069c8     0x2000 CMakeFiles/light_switch_provisioner_nrf52840_xxAA_s140_6.0.0.dir/home/mazzer/work/nordic/sdk/nRF5_SDK_15.0.0/modules/nrfx/mdk/gcc_startup_nrf52840.S.obj
                0x00000000200089c8                __HeapLimit = .

.stack_dummy    0x00000000200069c8     0x2000
 *(.stack*)
 .stack         0x00000000200069c8     0x2000 CMakeFiles/light_switch_provisioner_nrf52840_xxAA_s140_6.0.0.dir/home/mazzer/work/nordic/sdk/nRF5_SDK_15.0.0/modules/nrfx/mdk/gcc_startup_nrf52840.S.obj
                0x000000002003fd00                __StackTop = (ORIGIN (RAM) + LENGTH (RAM))
                0x000000002003dd00                __StackLimit = (__StackTop - SIZEOF (.stack_dummy))
                0x000000002003fd00                PROVIDE (__stack, __StackTop)
                0x0000000000000001                ASSERT ((__StackLimit >= __HeapLimit), region RAM overflowed with stack)
                0x0000000000000178                DataInitFlashUsed = (__bss_start__ - __data_start__)
                0x0000000000021150                CodeFlashUsed = (__etext - ORIGIN (FLASH))
                0x00000000000212c8                TotalFlashUsed = (CodeFlashUsed + DataInitFlashUsed)
                0x0000000000000001                ASSERT ((TotalFlashUsed <= LENGTH (FLASH)), region FLASH overflowed with .data and user data)
OUTPUT(light_switch_provisioner_nrf52840_xxAA_s140_6.0.0.elf elf32-littlearm)

.ARM.attributes
                0x0000000000000000       0x30
 .ARM.attributes
                0x0000000000000000       0x22 /usr/bin/../lib/gcc/arm-none-eabi/7.2.1/thumb/v7e-m/fpv4-sp/hard/crti.o
 .ARM.attributes
                0x0000000000000022       0x34 /usr/bin/../lib/gcc/arm-none-eabi/7.2.1/thumb/v7e-m/fpv4-sp/hard/crtbegin.o
 .ARM.attributes
                0x0000000000000056       0x20 /usr/bin/../lib/gcc/arm-none-eabi/7.2.1/../../../../arm-none-eabi/lib/thumb/v7e-m/fpv4-sp/hard/crt0.o
 .ARM.attributes
                0x0000000000000076       0x39 CMakeFiles/light_switch_provisioner_nrf52840_xxAA_s140_6.0.0.dir/src/main.c.obj
 .ARM.attributes
                0x00000000000000af       0x39 CMakeFiles/light_switch_provisioner_nrf52840_xxAA_s140_6.0.0.dir/__/__/__/mesh/stack/src/mesh_stack.c.obj
 .ARM.attributes
                0x00000000000000e8       0x39 CMakeFiles/light_switch_provisioner_nrf52840_xxAA_s140_6.0.0.dir/src/provisioner_helper.c.obj
 .ARM.attributes
                0x0000000000000121       0x39 CMakeFiles/light_switch_provisioner_nrf52840_xxAA_s140_6.0.0.dir/src/node_setup.c.obj
 .ARM.attributes
                0x000000000000015a       0x39 CMakeFiles/light_switch_provisioner_nrf52840_xxAA_s140_6.0.0.dir/__/__/common/src/mesh_softdevice_init.c.obj
 .ARM.attributes
                0x0000000000000193       0x39 CMakeFiles/light_switch_provisioner_nrf52840_xxAA_s140_6.0.0.dir/__/__/common/src/rtt_input.c.obj
 .ARM.attributes
                0x00000000000001cc       0x39 CMakeFiles/light_switch_provisioner_nrf52840_xxAA_s140_6.0.0.dir/__/__/common/src/simple_hal.c.obj
 .ARM.attributes
                0x0000000000000205       0x39 CMakeFiles/light_switch_provisioner_nrf52840_xxAA_s140_6.0.0.dir/__/__/nrf_mesh_weak.c.obj
 .ARM.attributes
                0x000000000000023e       0x39 CMakeFiles/light_switch_provisioner_nrf52840_xxAA_s140_6.0.0.dir/__/__/common/src/app_error_weak.c.obj
 .ARM.attributes
                0x0000000000000277       0x39 CMakeFiles/light_switch_provisioner_nrf52840_xxAA_s140_6.0.0.dir/__/__/common/src/assertion_handler_weak.c.obj
 .ARM.attributes
                0x00000000000002b0       0x39 CMakeFiles/light_switch_provisioner_nrf52840_xxAA_s140_6.0.0.dir/__/__/__/mesh/core/src/nrf_mesh_configure.c.obj
 .ARM.attributes
                0x00000000000002e9       0x39 CMakeFiles/light_switch_provisioner_nrf52840_xxAA_s140_6.0.0.dir/__/__/__/mesh/core/src/aes.c.obj
 .ARM.attributes
                0x0000000000000322       0x39 CMakeFiles/light_switch_provisioner_nrf52840_xxAA_s140_6.0.0.dir/__/__/__/mesh/core/src/msg_cache.c.obj
 .ARM.attributes
                0x000000000000035b       0x39 CMakeFiles/light_switch_provisioner_nrf52840_xxAA_s140_6.0.0.dir/__/__/__/mesh/core/src/transport.c.obj
 .ARM.attributes
                0x0000000000000394       0x39 CMakeFiles/light_switch_provisioner_nrf52840_xxAA_s140_6.0.0.dir/__/__/__/mesh/core/src/event.c.obj
 .ARM.attributes
                0x00000000000003cd       0x39 CMakeFiles/light_switch_provisioner_nrf52840_xxAA_s140_6.0.0.dir/__/__/__/mesh/core/src/packet_buffer.c.obj
 .ARM.attributes
                0x0000000000000406       0x39 CMakeFiles/light_switch_provisioner_nrf52840_xxAA_s140_6.0.0.dir/__/__/__/mesh/core/src/flash_manager_defrag.c.obj
 .ARM.attributes
                0x000000000000043f       0x39 CMakeFiles/light_switch_provisioner_nrf52840_xxAA_s140_6.0.0.dir/__/__/__/mesh/core/src/fifo.c.obj
 .ARM.attributes
                0x0000000000000478       0x39 CMakeFiles/light_switch_provisioner_nrf52840_xxAA_s140_6.0.0.dir/__/__/__/mesh/core/src/nrf_flash.c.obj
 .ARM.attributes
                0x00000000000004b1       0x39 CMakeFiles/light_switch_provisioner_nrf52840_xxAA_s140_6.0.0.dir/__/__/__/mesh/core/src/packet_mgr.c.obj
 .ARM.attributes
                0x00000000000004ea       0x39 CMakeFiles/light_switch_provisioner_nrf52840_xxAA_s140_6.0.0.dir/__/__/__/mesh/core/src/net_state.c.obj
 .ARM.attributes
                0x0000000000000523       0x39 CMakeFiles/light_switch_provisioner_nrf52840_xxAA_s140_6.0.0.dir/__/__/__/mesh/core/src/mesh_flash.c.obj
 .ARM.attributes
                0x000000000000055c       0x39 CMakeFiles/light_switch_provisioner_nrf52840_xxAA_s140_6.0.0.dir/__/__/__/mesh/core/src/nrf_mesh_utils.c.obj
 .ARM.attributes
                0x0000000000000595       0x39 CMakeFiles/light_switch_provisioner_nrf52840_xxAA_s140_6.0.0.dir/__/__/__/mesh/core/src/nrf_mesh.c.obj
 .ARM.attributes
                0x00000000000005ce       0x39 CMakeFiles/light_switch_provisioner_nrf52840_xxAA_s140_6.0.0.dir/__/__/__/mesh/core/src/queue.c.obj
 .ARM.attributes
                0x0000000000000607       0x39 CMakeFiles/light_switch_provisioner_nrf52840_xxAA_s140_6.0.0.dir/__/__/__/mesh/core/src/hal.c.obj
 .ARM.attributes
                0x0000000000000640       0x39 CMakeFiles/light_switch_provisioner_nrf52840_xxAA_s140_6.0.0.dir/__/__/__/mesh/core/src/aes_cmac.c.obj
 .ARM.attributes
                0x0000000000000679       0x39 CMakeFiles/light_switch_provisioner_nrf52840_xxAA_s140_6.0.0.dir/__/__/__/mesh/core/src/timer_scheduler.c.obj
 .ARM.attributes
                0x00000000000006b2       0x39 CMakeFiles/light_switch_provisioner_nrf52840_xxAA_s140_6.0.0.dir/__/__/__/mesh/core/src/timer.c.obj
 .ARM.attributes
                0x00000000000006eb       0x39 CMakeFiles/light_switch_provisioner_nrf52840_xxAA_s140_6.0.0.dir/__/__/__/mesh/core/src/ticker.c.obj
 .ARM.attributes
                0x0000000000000724       0x39 CMakeFiles/light_switch_provisioner_nrf52840_xxAA_s140_6.0.0.dir/__/__/__/mesh/core/src/rand.c.obj
 .ARM.attributes
                0x000000000000075d       0x39 CMakeFiles/light_switch_provisioner_nrf52840_xxAA_s140_6.0.0.dir/__/__/__/mesh/core/src/nrf_mesh_opt.c.obj
 .ARM.attributes
                0x0000000000000796       0x39 CMakeFiles/light_switch_provisioner_nrf52840_xxAA_s140_6.0.0.dir/__/__/__/mesh/core/src/timeslot.c.obj
 .ARM.attributes
                0x00000000000007cf       0x39 CMakeFiles/light_switch_provisioner_nrf52840_xxAA_s140_6.0.0.dir/__/__/__/mesh/core/src/bearer_event.c.obj
 .ARM.attributes
                0x0000000000000808       0x39 CMakeFiles/light_switch_provisioner_nrf52840_xxAA_s140_6.0.0.dir/__/__/__/mesh/core/src/enc.c.obj
 .ARM.attributes
                0x0000000000000841       0x39 CMakeFiles/light_switch_provisioner_nrf52840_xxAA_s140_6.0.0.dir/__/__/__/mesh/core/src/network.c.obj
 .ARM.attributes
                0x000000000000087a       0x39 CMakeFiles/light_switch_provisioner_nrf52840_xxAA_s140_6.0.0.dir/__/__/__/mesh/core/src/net_packet.c.obj
 .ARM.attributes
                0x00000000000008b3       0x39 CMakeFiles/light_switch_provisioner_nrf52840_xxAA_s140_6.0.0.dir/__/__/__/mesh/core/src/msqueue.c.obj
 .ARM.attributes
                0x00000000000008ec       0x39 CMakeFiles/light_switch_provisioner_nrf52840_xxAA_s140_6.0.0.dir/__/__/__/mesh/core/src/nrf_mesh_keygen.c.obj
 .ARM.attributes
                0x0000000000000925       0x39 CMakeFiles/light_switch_provisioner_nrf52840_xxAA_s140_6.0.0.dir/__/__/__/mesh/core/src/list.c.obj
 .ARM.attributes
                0x000000000000095e       0x39 CMakeFiles/light_switch_provisioner_nrf52840_xxAA_s140_6.0.0.dir/__/__/__/mesh/core/src/log.c.obj
 .ARM.attributes
                0x0000000000000997       0x39 CMakeFiles/light_switch_provisioner_nrf52840_xxAA_s140_6.0.0.dir/__/__/__/mesh/core/src/flash_manager.c.obj
 .ARM.attributes
                0x00000000000009d0       0x39 CMakeFiles/light_switch_provisioner_nrf52840_xxAA_s140_6.0.0.dir/__/__/__/mesh/core/src/ccm_soft.c.obj
 .ARM.attributes
                0x0000000000000a09       0x39 CMakeFiles/light_switch_provisioner_nrf52840_xxAA_s140_6.0.0.dir/__/__/__/mesh/core/src/replay_cache.c.obj
 .ARM.attributes
                0x0000000000000a42       0x39 CMakeFiles/light_switch_provisioner_nrf52840_xxAA_s140_6.0.0.dir/__/__/__/mesh/core/src/beacon.c.obj
 .ARM.attributes
                0x0000000000000a7b       0x39 CMakeFiles/light_switch_provisioner_nrf52840_xxAA_s140_6.0.0.dir/__/__/__/mesh/core/src/flash_manager_internal.c.obj
 .ARM.attributes
                0x0000000000000ab4       0x39 CMakeFiles/light_switch_provisioner_nrf52840_xxAA_s140_6.0.0.dir/__/__/__/mesh/core/src/core_tx.c.obj
 .ARM.attributes
                0x0000000000000aed       0x39 CMakeFiles/light_switch_provisioner_nrf52840_xxAA_s140_6.0.0.dir/__/__/__/mesh/core/src/heartbeat.c.obj
 .ARM.attributes
                0x0000000000000b26       0x39 CMakeFiles/light_switch_provisioner_nrf52840_xxAA_s140_6.0.0.dir/__/__/__/mesh/core/src/net_beacon.c.obj
 .ARM.attributes
                0x0000000000000b5f       0x39 CMakeFiles/light_switch_provisioner_nrf52840_xxAA_s140_6.0.0.dir/__/__/__/mesh/core/src/core_tx_adv.c.obj
 .ARM.attributes
                0x0000000000000b98       0x39 CMakeFiles/light_switch_provisioner_nrf52840_xxAA_s140_6.0.0.dir/__/__/__/mesh/bearer/src/ad_listener.c.obj
 .ARM.attributes
                0x0000000000000bd1       0x39 CMakeFiles/light_switch_provisioner_nrf52840_xxAA_s140_6.0.0.dir/__/__/__/mesh/bearer/src/ad_type_filter.c.obj
 .ARM.attributes
                0x0000000000000c0a       0x39 CMakeFiles/light_switch_provisioner_nrf52840_xxAA_s140_6.0.0.dir/__/__/__/mesh/bearer/src/advertiser.c.obj
 .ARM.attributes
                0x0000000000000c43       0x39 CMakeFiles/light_switch_provisioner_nrf52840_xxAA_s140_6.0.0.dir/__/__/__/mesh/bearer/src/bearer_handler.c.obj
 .ARM.attributes
                0x0000000000000c7c       0x39 CMakeFiles/light_switch_provisioner_nrf52840_xxAA_s140_6.0.0.dir/__/__/__/mesh/bearer/src/broadcast.c.obj
 .ARM.attributes
                0x0000000000000cb5       0x39 CMakeFiles/light_switch_provisioner_nrf52840_xxAA_s140_6.0.0.dir/__/__/__/mesh/bearer/src/filter_engine.c.obj
 .ARM.attributes
                0x0000000000000cee       0x39 CMakeFiles/light_switch_provisioner_nrf52840_xxAA_s140_6.0.0.dir/__/__/__/mesh/bearer/src/radio_config.c.obj
 .ARM.attributes
                0x0000000000000d27       0x39 CMakeFiles/light_switch_provisioner_nrf52840_xxAA_s140_6.0.0.dir/__/__/__/mesh/bearer/src/scanner.c.obj
 .ARM.attributes
                0x0000000000000d60       0x39 CMakeFiles/light_switch_provisioner_nrf52840_xxAA_s140_6.0.0.dir/__/__/__/models/config/src/config_client.c.obj
 .ARM.attributes
                0x0000000000000d99       0x39 CMakeFiles/light_switch_provisioner_nrf52840_xxAA_s140_6.0.0.dir/__/__/__/models/config/src/composition_data.c.obj
 .ARM.attributes
                0x0000000000000dd2       0x39 CMakeFiles/light_switch_provisioner_nrf52840_xxAA_s140_6.0.0.dir/__/__/__/models/config/src/config_server.c.obj
 .ARM.attributes
                0x0000000000000e0b       0x39 CMakeFiles/light_switch_provisioner_nrf52840_xxAA_s140_6.0.0.dir/__/__/__/models/config/src/packed_index_list.c.obj
 .ARM.attributes
                0x0000000000000e44       0x39 CMakeFiles/light_switch_provisioner_nrf52840_xxAA_s140_6.0.0.dir/__/__/__/models/health/src/health_server.c.obj
 .ARM.attributes
                0x0000000000000e7d       0x39 CMakeFiles/light_switch_provisioner_nrf52840_xxAA_s140_6.0.0.dir/__/__/__/models/health/src/health_client.c.obj
 .ARM.attributes
                0x0000000000000eb6       0x39 CMakeFiles/light_switch_provisioner_nrf52840_xxAA_s140_6.0.0.dir/__/__/__/mesh/access/src/access_publish.c.obj
 .ARM.attributes
                0x0000000000000eef       0x39 CMakeFiles/light_switch_provisioner_nrf52840_xxAA_s140_6.0.0.dir/__/__/__/mesh/access/src/access.c.obj
 .ARM.attributes
                0x0000000000000f28       0x39 CMakeFiles/light_switch_provisioner_nrf52840_xxAA_s140_6.0.0.dir/__/__/__/mesh/access/src/access_reliable.c.obj
 .ARM.attributes
                0x0000000000000f61       0x39 CMakeFiles/light_switch_provisioner_nrf52840_xxAA_s140_6.0.0.dir/__/__/__/mesh/access/src/device_state_manager.c.obj
 .ARM.attributes
                0x0000000000000f9a       0x39 CMakeFiles/light_switch_provisioner_nrf52840_xxAA_s140_6.0.0.dir/__/__/__/mesh/prov/src/prov_provisioner.c.obj
 .ARM.attributes
                0x0000000000000fd3       0x39 CMakeFiles/light_switch_provisioner_nrf52840_xxAA_s140_6.0.0.dir/__/__/__/mesh/prov/src/nrf_mesh_prov.c.obj
 .ARM.attributes
                0x000000000000100c       0x39 CMakeFiles/light_switch_provisioner_nrf52840_xxAA_s140_6.0.0.dir/__/__/__/mesh/prov/src/provisioning.c.obj
 .ARM.attributes
                0x0000000000001045       0x39 CMakeFiles/light_switch_provisioner_nrf52840_xxAA_s140_6.0.0.dir/__/__/__/mesh/prov/src/prov_beacon.c.obj
 .ARM.attributes
                0x000000000000107e       0x39 CMakeFiles/light_switch_provisioner_nrf52840_xxAA_s140_6.0.0.dir/__/__/__/mesh/prov/src/prov_utils.c.obj
 .ARM.attributes
                0x00000000000010b7       0x39 CMakeFiles/light_switch_provisioner_nrf52840_xxAA_s140_6.0.0.dir/__/__/__/mesh/prov/src/prov_bearer_adv.c.obj
 .ARM.attributes
                0x00000000000010f0       0x39 CMakeFiles/light_switch_provisioner_nrf52840_xxAA_s140_6.0.0.dir/home/mazzer/work/nordic/sdk/nRF5_SDK_15.0.0/modules/nrfx/mdk/system_nrf52840.c.obj
 .ARM.attributes
                0x0000000000001129       0x20 CMakeFiles/light_switch_provisioner_nrf52840_xxAA_s140_6.0.0.dir/home/mazzer/work/nordic/sdk/nRF5_SDK_15.0.0/modules/nrfx/mdk/gcc_startup_nrf52840.S.obj
 .ARM.attributes
                0x0000000000001149       0x39 CMakeFiles/light_switch_provisioner_nrf52840_xxAA_s140_6.0.0.dir/home/mazzer/work/nordic/sdk/nRF5_SDK_15.0.0/components/libraries/util/app_error_handler_gcc.c.obj
 .ARM.attributes
                0x0000000000001182       0x39 ../../../external/rtt/librtt_nrf52840_xxAA.a(SEGGER_RTT.c.obj)
 .ARM.attributes
                0x00000000000011bb       0x39 ../../../external/rtt/librtt_nrf52840_xxAA.a(SEGGER_RTT_printf.c.obj)
 .ARM.attributes
                0x00000000000011f4       0x39 ../../../external/micro-ecc/libuECC_nrf52840_xxAA.a(uECC.c.obj)
 .ARM.attributes
                0x000000000000122d       0x22 /usr/bin/../lib/gcc/arm-none-eabi/7.2.1/thumb/v7e-m/fpv4-sp/hard/libgcc.a(_aeabi_uldivmod.o)
 .ARM.attributes
                0x000000000000124f       0x34 /usr/bin/../lib/gcc/arm-none-eabi/7.2.1/thumb/v7e-m/fpv4-sp/hard/libgcc.a(_udivmoddi4.o)
 .ARM.attributes
                0x0000000000001283       0x22 /usr/bin/../lib/gcc/arm-none-eabi/7.2.1/thumb/v7e-m/fpv4-sp/hard/libgcc.a(_dvmd_tls.o)
 .ARM.attributes
                0x00000000000012a5       0x34 /usr/bin/../lib/gcc/arm-none-eabi/7.2.1/../../../../arm-none-eabi/lib/thumb/v7e-m/fpv4-sp/hard/libg_nano.a(lib_a-exit.o)
 .ARM.attributes
                0x00000000000012d9       0x34 /usr/bin/../lib/gcc/arm-none-eabi/7.2.1/../../../../arm-none-eabi/lib/thumb/v7e-m/fpv4-sp/hard/libg_nano.a(lib_a-impure.o)
 .ARM.attributes
                0x000000000000130d       0x34 /usr/bin/../lib/gcc/arm-none-eabi/7.2.1/../../../../arm-none-eabi/lib/thumb/v7e-m/fpv4-sp/hard/libg_nano.a(lib_a-init.o)
 .ARM.attributes
                0x0000000000001341       0x34 /usr/bin/../lib/gcc/arm-none-eabi/7.2.1/../../../../arm-none-eabi/lib/thumb/v7e-m/fpv4-sp/hard/libg_nano.a(lib_a-malloc.o)
 .ARM.attributes
                0x0000000000001375       0x34 /usr/bin/../lib/gcc/arm-none-eabi/7.2.1/../../../../arm-none-eabi/lib/thumb/v7e-m/fpv4-sp/hard/libg_nano.a(lib_a-memcmp.o)
 .ARM.attributes
                0x00000000000013a9       0x34 /usr/bin/../lib/gcc/arm-none-eabi/7.2.1/../../../../arm-none-eabi/lib/thumb/v7e-m/fpv4-sp/hard/libg_nano.a(lib_a-memcpy-stub.o)
 .ARM.attributes
                0x00000000000013dd       0x34 /usr/bin/../lib/gcc/arm-none-eabi/7.2.1/../../../../arm-none-eabi/lib/thumb/v7e-m/fpv4-sp/hard/libg_nano.a(lib_a-memset.o)
 .ARM.attributes
                0x0000000000001411       0x34 /usr/bin/../lib/gcc/arm-none-eabi/7.2.1/../../../../arm-none-eabi/lib/thumb/v7e-m/fpv4-sp/hard/libg_nano.a(lib_a-nano-freer.o)
 .ARM.attributes
                0x0000000000001445       0x34 /usr/bin/../lib/gcc/arm-none-eabi/7.2.1/../../../../arm-none-eabi/lib/thumb/v7e-m/fpv4-sp/hard/libg_nano.a(lib_a-nano-mallocr.o)
 .ARM.attributes
                0x0000000000001479       0x34 /usr/bin/../lib/gcc/arm-none-eabi/7.2.1/../../../../arm-none-eabi/lib/thumb/v7e-m/fpv4-sp/hard/libg_nano.a(lib_a-sbrkr.o)
 .ARM.attributes
                0x00000000000014ad       0x34 /usr/bin/../lib/gcc/arm-none-eabi/7.2.1/../../../../arm-none-eabi/lib/thumb/v7e-m/fpv4-sp/hard/libg_nano.a(lib_a-strcpy.o)
 .ARM.attributes
                0x00000000000014e1       0x1b /usr/bin/../lib/gcc/arm-none-eabi/7.2.1/../../../../arm-none-eabi/lib/thumb/v7e-m/fpv4-sp/hard/libg_nano.a(lib_a-strlen.o)
 .ARM.attributes
                0x00000000000014fc       0x34 /usr/bin/../lib/gcc/arm-none-eabi/7.2.1/../../../../arm-none-eabi/lib/thumb/v7e-m/fpv4-sp/hard/libg_nano.a(lib_a-strrchr.o)
 .ARM.attributes
                0x0000000000001530       0x34 /usr/bin/../lib/gcc/arm-none-eabi/7.2.1/../../../../arm-none-eabi/lib/thumb/v7e-m/fpv4-sp/hard/libg_nano.a(lib_a-mlock.o)
 .ARM.attributes
                0x0000000000001564       0x34 /usr/bin/../lib/gcc/arm-none-eabi/7.2.1/../../../../arm-none-eabi/lib/thumb/v7e-m/fpv4-sp/hard/libg_nano.a(lib_a-reent.o)
 .ARM.attributes
                0x0000000000001598       0x34 /usr/bin/../lib/gcc/arm-none-eabi/7.2.1/../../../../arm-none-eabi/lib/thumb/v7e-m/fpv4-sp/hard/libg_nano.a(lib_a-strchr.o)
 .ARM.attributes
                0x00000000000015cc       0x34 /usr/bin/../lib/gcc/arm-none-eabi/7.2.1/thumb/v7e-m/fpv4-sp/hard/crtend.o
 .ARM.attributes
                0x0000000000001600       0x22 /usr/bin/../lib/gcc/arm-none-eabi/7.2.1/thumb/v7e-m/fpv4-sp/hard/crtn.o
 .ARM.attributes
                0x0000000000001622       0x34 /usr/bin/../lib/gcc/arm-none-eabi/7.2.1/../../../../arm-none-eabi/lib/thumb/v7e-m/fpv4-sp/hard/libnosys.a(sbrk.o)
 .ARM.attributes
                0x0000000000001656       0x34 /usr/bin/../lib/gcc/arm-none-eabi/7.2.1/../../../../arm-none-eabi/lib/thumb/v7e-m/fpv4-sp/hard/libnosys.a(_exit.o)

.comment        0x0000000000000000       0x7e
 .comment       0x0000000000000000       0x7e CMakeFiles/light_switch_provisioner_nrf52840_xxAA_s140_6.0.0.dir/src/main.c.obj
                                         0x7f (size before relaxing)
 .comment       0x000000000000007e       0x7f CMakeFiles/light_switch_provisioner_nrf52840_xxAA_s140_6.0.0.dir/__/__/__/mesh/stack/src/mesh_stack.c.obj
 .comment       0x000000000000007e       0x7f CMakeFiles/light_switch_provisioner_nrf52840_xxAA_s140_6.0.0.dir/src/provisioner_helper.c.obj
 .comment       0x000000000000007e       0x7f CMakeFiles/light_switch_provisioner_nrf52840_xxAA_s140_6.0.0.dir/src/node_setup.c.obj
 .comment       0x000000000000007e       0x7f CMakeFiles/light_switch_provisioner_nrf52840_xxAA_s140_6.0.0.dir/__/__/common/src/mesh_softdevice_init.c.obj
 .comment       0x000000000000007e       0x7f CMakeFiles/light_switch_provisioner_nrf52840_xxAA_s140_6.0.0.dir/__/__/common/src/rtt_input.c.obj
 .comment       0x000000000000007e       0x7f CMakeFiles/light_switch_provisioner_nrf52840_xxAA_s140_6.0.0.dir/__/__/common/src/simple_hal.c.obj
 .comment       0x000000000000007e       0x7f CMakeFiles/light_switch_provisioner_nrf52840_xxAA_s140_6.0.0.dir/__/__/nrf_mesh_weak.c.obj
 .comment       0x000000000000007e       0x7f CMakeFiles/light_switch_provisioner_nrf52840_xxAA_s140_6.0.0.dir/__/__/common/src/app_error_weak.c.obj
 .comment       0x000000000000007e       0x7f CMakeFiles/light_switch_provisioner_nrf52840_xxAA_s140_6.0.0.dir/__/__/common/src/assertion_handler_weak.c.obj
 .comment       0x000000000000007e       0x7f CMakeFiles/light_switch_provisioner_nrf52840_xxAA_s140_6.0.0.dir/__/__/__/mesh/core/src/nrf_mesh_configure.c.obj
 .comment       0x000000000000007e       0x7f CMakeFiles/light_switch_provisioner_nrf52840_xxAA_s140_6.0.0.dir/__/__/__/mesh/core/src/aes.c.obj
 .comment       0x000000000000007e       0x7f CMakeFiles/light_switch_provisioner_nrf52840_xxAA_s140_6.0.0.dir/__/__/__/mesh/core/src/msg_cache.c.obj
 .comment       0x000000000000007e       0x7f CMakeFiles/light_switch_provisioner_nrf52840_xxAA_s140_6.0.0.dir/__/__/__/mesh/core/src/transport.c.obj
 .comment       0x000000000000007e       0x7f CMakeFiles/light_switch_provisioner_nrf52840_xxAA_s140_6.0.0.dir/__/__/__/mesh/core/src/event.c.obj
 .comment       0x000000000000007e       0x7f CMakeFiles/light_switch_provisioner_nrf52840_xxAA_s140_6.0.0.dir/__/__/__/mesh/core/src/packet_buffer.c.obj
 .comment       0x000000000000007e       0x7f CMakeFiles/light_switch_provisioner_nrf52840_xxAA_s140_6.0.0.dir/__/__/__/mesh/core/src/flash_manager_defrag.c.obj
 .comment       0x000000000000007e       0x7f CMakeFiles/light_switch_provisioner_nrf52840_xxAA_s140_6.0.0.dir/__/__/__/mesh/core/src/fifo.c.obj
 .comment       0x000000000000007e       0x7f CMakeFiles/light_switch_provisioner_nrf52840_xxAA_s140_6.0.0.dir/__/__/__/mesh/core/src/nrf_flash.c.obj
 .comment       0x000000000000007e       0x7f CMakeFiles/light_switch_provisioner_nrf52840_xxAA_s140_6.0.0.dir/__/__/__/mesh/core/src/packet_mgr.c.obj
 .comment       0x000000000000007e       0x7f CMakeFiles/light_switch_provisioner_nrf52840_xxAA_s140_6.0.0.dir/__/__/__/mesh/core/src/net_state.c.obj
 .comment       0x000000000000007e       0x7f CMakeFiles/light_switch_provisioner_nrf52840_xxAA_s140_6.0.0.dir/__/__/__/mesh/core/src/mesh_flash.c.obj
 .comment       0x000000000000007e       0x7f CMakeFiles/light_switch_provisioner_nrf52840_xxAA_s140_6.0.0.dir/__/__/__/mesh/core/src/nrf_mesh_utils.c.obj
 .comment       0x000000000000007e       0x7f CMakeFiles/light_switch_provisioner_nrf52840_xxAA_s140_6.0.0.dir/__/__/__/mesh/core/src/nrf_mesh.c.obj
 .comment       0x000000000000007e       0x7f CMakeFiles/light_switch_provisioner_nrf52840_xxAA_s140_6.0.0.dir/__/__/__/mesh/core/src/queue.c.obj
 .comment       0x000000000000007e       0x7f CMakeFiles/light_switch_provisioner_nrf52840_xxAA_s140_6.0.0.dir/__/__/__/mesh/core/src/hal.c.obj
 .comment       0x000000000000007e       0x7f CMakeFiles/light_switch_provisioner_nrf52840_xxAA_s140_6.0.0.dir/__/__/__/mesh/core/src/aes_cmac.c.obj
 .comment       0x000000000000007e       0x7f CMakeFiles/light_switch_provisioner_nrf52840_xxAA_s140_6.0.0.dir/__/__/__/mesh/core/src/timer_scheduler.c.obj
 .comment       0x000000000000007e       0x7f CMakeFiles/light_switch_provisioner_nrf52840_xxAA_s140_6.0.0.dir/__/__/__/mesh/core/src/timer.c.obj
 .comment       0x000000000000007e       0x7f CMakeFiles/light_switch_provisioner_nrf52840_xxAA_s140_6.0.0.dir/__/__/__/mesh/core/src/ticker.c.obj
 .comment       0x000000000000007e       0x7f CMakeFiles/light_switch_provisioner_nrf52840_xxAA_s140_6.0.0.dir/__/__/__/mesh/core/src/rand.c.obj
 .comment       0x000000000000007e       0x7f CMakeFiles/light_switch_provisioner_nrf52840_xxAA_s140_6.0.0.dir/__/__/__/mesh/core/src/nrf_mesh_opt.c.obj
 .comment       0x000000000000007e       0x7f CMakeFiles/light_switch_provisioner_nrf52840_xxAA_s140_6.0.0.dir/__/__/__/mesh/core/src/timeslot.c.obj
 .comment       0x000000000000007e       0x7f CMakeFiles/light_switch_provisioner_nrf52840_xxAA_s140_6.0.0.dir/__/__/__/mesh/core/src/bearer_event.c.obj
 .comment       0x000000000000007e       0x7f CMakeFiles/light_switch_provisioner_nrf52840_xxAA_s140_6.0.0.dir/__/__/__/mesh/core/src/enc.c.obj
 .comment       0x000000000000007e       0x7f CMakeFiles/light_switch_provisioner_nrf52840_xxAA_s140_6.0.0.dir/__/__/__/mesh/core/src/network.c.obj
 .comment       0x000000000000007e       0x7f CMakeFiles/light_switch_provisioner_nrf52840_xxAA_s140_6.0.0.dir/__/__/__/mesh/core/src/net_packet.c.obj
 .comment       0x000000000000007e       0x7f CMakeFiles/light_switch_provisioner_nrf52840_xxAA_s140_6.0.0.dir/__/__/__/mesh/core/src/msqueue.c.obj
 .comment       0x000000000000007e       0x7f CMakeFiles/light_switch_provisioner_nrf52840_xxAA_s140_6.0.0.dir/__/__/__/mesh/core/src/nrf_mesh_keygen.c.obj
 .comment       0x000000000000007e       0x7f CMakeFiles/light_switch_provisioner_nrf52840_xxAA_s140_6.0.0.dir/__/__/__/mesh/core/src/list.c.obj
 .comment       0x000000000000007e       0x7f CMakeFiles/light_switch_provisioner_nrf52840_xxAA_s140_6.0.0.dir/__/__/__/mesh/core/src/log.c.obj
 .comment       0x000000000000007e       0x7f CMakeFiles/light_switch_provisioner_nrf52840_xxAA_s140_6.0.0.dir/__/__/__/mesh/core/src/flash_manager.c.obj
 .comment       0x000000000000007e       0x7f CMakeFiles/light_switch_provisioner_nrf52840_xxAA_s140_6.0.0.dir/__/__/__/mesh/core/src/ccm_soft.c.obj
 .comment       0x000000000000007e       0x7f CMakeFiles/light_switch_provisioner_nrf52840_xxAA_s140_6.0.0.dir/__/__/__/mesh/core/src/replay_cache.c.obj
 .comment       0x000000000000007e       0x7f CMakeFiles/light_switch_provisioner_nrf52840_xxAA_s140_6.0.0.dir/__/__/__/mesh/core/src/beacon.c.obj
 .comment       0x000000000000007e       0x7f CMakeFiles/light_switch_provisioner_nrf52840_xxAA_s140_6.0.0.dir/__/__/__/mesh/core/src/flash_manager_internal.c.obj
 .comment       0x000000000000007e       0x7f CMakeFiles/light_switch_provisioner_nrf52840_xxAA_s140_6.0.0.dir/__/__/__/mesh/core/src/core_tx.c.obj
 .comment       0x000000000000007e       0x7f CMakeFiles/light_switch_provisioner_nrf52840_xxAA_s140_6.0.0.dir/__/__/__/mesh/core/src/heartbeat.c.obj
 .comment       0x000000000000007e       0x7f CMakeFiles/light_switch_provisioner_nrf52840_xxAA_s140_6.0.0.dir/__/__/__/mesh/core/src/net_beacon.c.obj
 .comment       0x000000000000007e       0x7f CMakeFiles/light_switch_provisioner_nrf52840_xxAA_s140_6.0.0.dir/__/__/__/mesh/core/src/core_tx_adv.c.obj
 .comment       0x000000000000007e       0x7f CMakeFiles/light_switch_provisioner_nrf52840_xxAA_s140_6.0.0.dir/__/__/__/mesh/bearer/src/ad_listener.c.obj
 .comment       0x000000000000007e       0x7f CMakeFiles/light_switch_provisioner_nrf52840_xxAA_s140_6.0.0.dir/__/__/__/mesh/bearer/src/ad_type_filter.c.obj
 .comment       0x000000000000007e       0x7f CMakeFiles/light_switch_provisioner_nrf52840_xxAA_s140_6.0.0.dir/__/__/__/mesh/bearer/src/advertiser.c.obj
 .comment       0x000000000000007e       0x7f CMakeFiles/light_switch_provisioner_nrf52840_xxAA_s140_6.0.0.dir/__/__/__/mesh/bearer/src/bearer_handler.c.obj
 .comment       0x000000000000007e       0x7f CMakeFiles/light_switch_provisioner_nrf52840_xxAA_s140_6.0.0.dir/__/__/__/mesh/bearer/src/broadcast.c.obj
 .comment       0x000000000000007e       0x7f CMakeFiles/light_switch_provisioner_nrf52840_xxAA_s140_6.0.0.dir/__/__/__/mesh/bearer/src/filter_engine.c.obj
 .comment       0x000000000000007e       0x7f CMakeFiles/light_switch_provisioner_nrf52840_xxAA_s140_6.0.0.dir/__/__/__/mesh/bearer/src/radio_config.c.obj
 .comment       0x000000000000007e       0x7f CMakeFiles/light_switch_provisioner_nrf52840_xxAA_s140_6.0.0.dir/__/__/__/mesh/bearer/src/scanner.c.obj
 .comment       0x000000000000007e       0x7f CMakeFiles/light_switch_provisioner_nrf52840_xxAA_s140_6.0.0.dir/__/__/__/models/config/src/config_client.c.obj
 .comment       0x000000000000007e       0x7f CMakeFiles/light_switch_provisioner_nrf52840_xxAA_s140_6.0.0.dir/__/__/__/models/config/src/composition_data.c.obj
 .comment       0x000000000000007e       0x7f CMakeFiles/light_switch_provisioner_nrf52840_xxAA_s140_6.0.0.dir/__/__/__/models/config/src/config_server.c.obj
 .comment       0x000000000000007e       0x7f CMakeFiles/light_switch_provisioner_nrf52840_xxAA_s140_6.0.0.dir/__/__/__/models/config/src/packed_index_list.c.obj
 .comment       0x000000000000007e       0x7f CMakeFiles/light_switch_provisioner_nrf52840_xxAA_s140_6.0.0.dir/__/__/__/models/health/src/health_server.c.obj
 .comment       0x000000000000007e       0x7f CMakeFiles/light_switch_provisioner_nrf52840_xxAA_s140_6.0.0.dir/__/__/__/models/health/src/health_client.c.obj
 .comment       0x000000000000007e       0x7f CMakeFiles/light_switch_provisioner_nrf52840_xxAA_s140_6.0.0.dir/__/__/__/mesh/access/src/access_publish.c.obj
 .comment       0x000000000000007e       0x7f CMakeFiles/light_switch_provisioner_nrf52840_xxAA_s140_6.0.0.dir/__/__/__/mesh/access/src/access.c.obj
 .comment       0x000000000000007e       0x7f CMakeFiles/light_switch_provisioner_nrf52840_xxAA_s140_6.0.0.dir/__/__/__/mesh/access/src/access_reliable.c.obj
 .comment       0x000000000000007e       0x7f CMakeFiles/light_switch_provisioner_nrf52840_xxAA_s140_6.0.0.dir/__/__/__/mesh/access/src/device_state_manager.c.obj
 .comment       0x000000000000007e       0x7f CMakeFiles/light_switch_provisioner_nrf52840_xxAA_s140_6.0.0.dir/__/__/__/mesh/prov/src/prov_provisioner.c.obj
 .comment       0x000000000000007e       0x7f CMakeFiles/light_switch_provisioner_nrf52840_xxAA_s140_6.0.0.dir/__/__/__/mesh/prov/src/nrf_mesh_prov.c.obj
 .comment       0x000000000000007e       0x7f CMakeFiles/light_switch_provisioner_nrf52840_xxAA_s140_6.0.0.dir/__/__/__/mesh/prov/src/provisioning.c.obj
 .comment       0x000000000000007e       0x7f CMakeFiles/light_switch_provisioner_nrf52840_xxAA_s140_6.0.0.dir/__/__/__/mesh/prov/src/prov_beacon.c.obj
 .comment       0x000000000000007e       0x7f CMakeFiles/light_switch_provisioner_nrf52840_xxAA_s140_6.0.0.dir/__/__/__/mesh/prov/src/prov_utils.c.obj
 .comment       0x000000000000007e       0x7f CMakeFiles/light_switch_provisioner_nrf52840_xxAA_s140_6.0.0.dir/__/__/__/mesh/prov/src/prov_bearer_adv.c.obj
 .comment       0x000000000000007e       0x7f CMakeFiles/light_switch_provisioner_nrf52840_xxAA_s140_6.0.0.dir/home/mazzer/work/nordic/sdk/nRF5_SDK_15.0.0/modules/nrfx/mdk/system_nrf52840.c.obj
 .comment       0x000000000000007e       0x7f CMakeFiles/light_switch_provisioner_nrf52840_xxAA_s140_6.0.0.dir/home/mazzer/work/nordic/sdk/nRF5_SDK_15.0.0/components/libraries/util/app_error_handler_gcc.c.obj
 .comment       0x000000000000007e       0x7f ../../../external/rtt/librtt_nrf52840_xxAA.a(SEGGER_RTT.c.obj)
 .comment       0x000000000000007e       0x7f ../../../external/rtt/librtt_nrf52840_xxAA.a(SEGGER_RTT_printf.c.obj)
 .comment       0x000000000000007e       0x7f ../../../external/micro-ecc/libuECC_nrf52840_xxAA.a(uECC.c.obj)

.debug_info     0x0000000000000000    0xa15b0
 .debug_info    0x0000000000000000     0x66b9 CMakeFiles/light_switch_provisioner_nrf52840_xxAA_s140_6.0.0.dir/src/main.c.obj
 .debug_info    0x00000000000066b9     0x2346 CMakeFiles/light_switch_provisioner_nrf52840_xxAA_s140_6.0.0.dir/__/__/__/mesh/stack/src/mesh_stack.c.obj
 .debug_info    0x00000000000089ff     0x3c10 CMakeFiles/light_switch_provisioner_nrf52840_xxAA_s140_6.0.0.dir/src/provisioner_helper.c.obj
 .debug_info    0x000000000000c60f     0x3470 CMakeFiles/light_switch_provisioner_nrf52840_xxAA_s140_6.0.0.dir/src/node_setup.c.obj
 .debug_info    0x000000000000fa7f     0x17ec CMakeFiles/light_switch_provisioner_nrf52840_xxAA_s140_6.0.0.dir/__/__/common/src/mesh_softdevice_init.c.obj
 .debug_info    0x000000000001126b     0x118d CMakeFiles/light_switch_provisioner_nrf52840_xxAA_s140_6.0.0.dir/__/__/common/src/rtt_input.c.obj
 .debug_info    0x00000000000123f8     0x1596 CMakeFiles/light_switch_provisioner_nrf52840_xxAA_s140_6.0.0.dir/__/__/common/src/simple_hal.c.obj
 .debug_info    0x000000000001398e      0x91d CMakeFiles/light_switch_provisioner_nrf52840_xxAA_s140_6.0.0.dir/__/__/nrf_mesh_weak.c.obj
 .debug_info    0x00000000000142ab     0x1170 CMakeFiles/light_switch_provisioner_nrf52840_xxAA_s140_6.0.0.dir/__/__/common/src/app_error_weak.c.obj
 .debug_info    0x000000000001541b      0x994 CMakeFiles/light_switch_provisioner_nrf52840_xxAA_s140_6.0.0.dir/__/__/common/src/assertion_handler_weak.c.obj
 .debug_info    0x0000000000015daf      0xdf8 CMakeFiles/light_switch_provisioner_nrf52840_xxAA_s140_6.0.0.dir/__/__/__/mesh/core/src/nrf_mesh_configure.c.obj
 .debug_info    0x0000000000016ba7      0xbea CMakeFiles/light_switch_provisioner_nrf52840_xxAA_s140_6.0.0.dir/__/__/__/mesh/core/src/aes.c.obj
 .debug_info    0x0000000000017791      0xa51 CMakeFiles/light_switch_provisioner_nrf52840_xxAA_s140_6.0.0.dir/__/__/__/mesh/core/src/msg_cache.c.obj
 .debug_info    0x00000000000181e2     0x6184 CMakeFiles/light_switch_provisioner_nrf52840_xxAA_s140_6.0.0.dir/__/__/__/mesh/core/src/transport.c.obj
 .debug_info    0x000000000001e366     0x1763 CMakeFiles/light_switch_provisioner_nrf52840_xxAA_s140_6.0.0.dir/__/__/__/mesh/core/src/event.c.obj
 .debug_info    0x000000000001fac9     0x1aa3 CMakeFiles/light_switch_provisioner_nrf52840_xxAA_s140_6.0.0.dir/__/__/__/mesh/core/src/packet_buffer.c.obj
 .debug_info    0x000000000002156c     0x24b1 CMakeFiles/light_switch_provisioner_nrf52840_xxAA_s140_6.0.0.dir/__/__/__/mesh/core/src/flash_manager_defrag.c.obj
 .debug_info    0x0000000000023a1d      0xd9a CMakeFiles/light_switch_provisioner_nrf52840_xxAA_s140_6.0.0.dir/__/__/__/mesh/core/src/fifo.c.obj
 .debug_info    0x00000000000247b7      0xb70 CMakeFiles/light_switch_provisioner_nrf52840_xxAA_s140_6.0.0.dir/__/__/__/mesh/core/src/nrf_flash.c.obj
 .debug_info    0x0000000000025327     0x118f CMakeFiles/light_switch_provisioner_nrf52840_xxAA_s140_6.0.0.dir/__/__/__/mesh/core/src/packet_mgr.c.obj
 .debug_info    0x00000000000264b6     0x3735 CMakeFiles/light_switch_provisioner_nrf52840_xxAA_s140_6.0.0.dir/__/__/__/mesh/core/src/net_state.c.obj
 .debug_info    0x0000000000029beb     0x1be8 CMakeFiles/light_switch_provisioner_nrf52840_xxAA_s140_6.0.0.dir/__/__/__/mesh/core/src/mesh_flash.c.obj
 .debug_info    0x000000000002b7d3      0xa72 CMakeFiles/light_switch_provisioner_nrf52840_xxAA_s140_6.0.0.dir/__/__/__/mesh/core/src/nrf_mesh_utils.c.obj
 .debug_info    0x000000000002c245     0x2678 CMakeFiles/light_switch_provisioner_nrf52840_xxAA_s140_6.0.0.dir/__/__/__/mesh/core/src/nrf_mesh.c.obj
 .debug_info    0x000000000002e8bd      0xb10 CMakeFiles/light_switch_provisioner_nrf52840_xxAA_s140_6.0.0.dir/__/__/__/mesh/core/src/queue.c.obj
 .debug_info    0x000000000002f3cd      0x514 CMakeFiles/light_switch_provisioner_nrf52840_xxAA_s140_6.0.0.dir/__/__/__/mesh/core/src/hal.c.obj
 .debug_info    0x000000000002f8e1      0xe8f CMakeFiles/light_switch_provisioner_nrf52840_xxAA_s140_6.0.0.dir/__/__/__/mesh/core/src/aes_cmac.c.obj
 .debug_info    0x0000000000030770     0x13bd CMakeFiles/light_switch_provisioner_nrf52840_xxAA_s140_6.0.0.dir/__/__/__/mesh/core/src/timer_scheduler.c.obj
 .debug_info    0x0000000000031b2d      0xe1e CMakeFiles/light_switch_provisioner_nrf52840_xxAA_s140_6.0.0.dir/__/__/__/mesh/core/src/timer.c.obj
 .debug_info    0x000000000003294b      0x20c CMakeFiles/light_switch_provisioner_nrf52840_xxAA_s140_6.0.0.dir/__/__/__/mesh/core/src/ticker.c.obj
 .debug_info    0x0000000000032b57      0x4d4 CMakeFiles/light_switch_provisioner_nrf52840_xxAA_s140_6.0.0.dir/__/__/__/mesh/core/src/rand.c.obj
 .debug_info    0x000000000003302b      0xaef CMakeFiles/light_switch_provisioner_nrf52840_xxAA_s140_6.0.0.dir/__/__/__/mesh/core/src/nrf_mesh_opt.c.obj
 .debug_info    0x0000000000033b1a     0x1c1b CMakeFiles/light_switch_provisioner_nrf52840_xxAA_s140_6.0.0.dir/__/__/__/mesh/core/src/timeslot.c.obj
 .debug_info    0x0000000000035735     0x1c9f CMakeFiles/light_switch_provisioner_nrf52840_xxAA_s140_6.0.0.dir/__/__/__/mesh/core/src/bearer_event.c.obj
 .debug_info    0x00000000000373d4     0x181f CMakeFiles/light_switch_provisioner_nrf52840_xxAA_s140_6.0.0.dir/__/__/__/mesh/core/src/enc.c.obj
 .debug_info    0x0000000000038bf3     0x1cc0 CMakeFiles/light_switch_provisioner_nrf52840_xxAA_s140_6.0.0.dir/__/__/__/mesh/core/src/network.c.obj
 .debug_info    0x000000000003a8b3     0x1de3 CMakeFiles/light_switch_provisioner_nrf52840_xxAA_s140_6.0.0.dir/__/__/__/mesh/core/src/net_packet.c.obj
 .debug_info    0x000000000003c696      0xe51 CMakeFiles/light_switch_provisioner_nrf52840_xxAA_s140_6.0.0.dir/__/__/__/mesh/core/src/msqueue.c.obj
 .debug_info    0x000000000003d4e7      0x4c0 CMakeFiles/light_switch_provisioner_nrf52840_xxAA_s140_6.0.0.dir/__/__/__/mesh/core/src/nrf_mesh_keygen.c.obj
 .debug_info    0x000000000003d9a7      0x573 CMakeFiles/light_switch_provisioner_nrf52840_xxAA_s140_6.0.0.dir/__/__/__/mesh/core/src/list.c.obj
 .debug_info    0x000000000003df1a      0xe8b CMakeFiles/light_switch_provisioner_nrf52840_xxAA_s140_6.0.0.dir/__/__/__/mesh/core/src/log.c.obj
 .debug_info    0x000000000003eda5     0x3cc6 CMakeFiles/light_switch_provisioner_nrf52840_xxAA_s140_6.0.0.dir/__/__/__/mesh/core/src/flash_manager.c.obj
 .debug_info    0x0000000000042a6b     0x120f CMakeFiles/light_switch_provisioner_nrf52840_xxAA_s140_6.0.0.dir/__/__/__/mesh/core/src/ccm_soft.c.obj
 .debug_info    0x0000000000043c7a      0xa87 CMakeFiles/light_switch_provisioner_nrf52840_xxAA_s140_6.0.0.dir/__/__/__/mesh/core/src/replay_cache.c.obj
 .debug_info    0x0000000000044701     0x17c2 CMakeFiles/light_switch_provisioner_nrf52840_xxAA_s140_6.0.0.dir/__/__/__/mesh/core/src/beacon.c.obj
 .debug_info    0x0000000000045ec3      0xb98 CMakeFiles/light_switch_provisioner_nrf52840_xxAA_s140_6.0.0.dir/__/__/__/mesh/core/src/flash_manager_internal.c.obj
 .debug_info    0x0000000000046a5b     0x1264 CMakeFiles/light_switch_provisioner_nrf52840_xxAA_s140_6.0.0.dir/__/__/__/mesh/core/src/core_tx.c.obj
 .debug_info    0x0000000000047cbf     0x24e7 CMakeFiles/light_switch_provisioner_nrf52840_xxAA_s140_6.0.0.dir/__/__/__/mesh/core/src/heartbeat.c.obj
 .debug_info    0x000000000004a1a6     0x2a3c CMakeFiles/light_switch_provisioner_nrf52840_xxAA_s140_6.0.0.dir/__/__/__/mesh/core/src/net_beacon.c.obj
 .debug_info    0x000000000004cbe2     0x197e CMakeFiles/light_switch_provisioner_nrf52840_xxAA_s140_6.0.0.dir/__/__/__/mesh/core/src/core_tx_adv.c.obj
 .debug_info    0x000000000004e560     0x116a CMakeFiles/light_switch_provisioner_nrf52840_xxAA_s140_6.0.0.dir/__/__/__/mesh/bearer/src/ad_listener.c.obj
 .debug_info    0x000000000004f6ca      0xfc4 CMakeFiles/light_switch_provisioner_nrf52840_xxAA_s140_6.0.0.dir/__/__/__/mesh/bearer/src/ad_type_filter.c.obj
 .debug_info    0x000000000005068e     0x2af6 CMakeFiles/light_switch_provisioner_nrf52840_xxAA_s140_6.0.0.dir/__/__/__/mesh/bearer/src/advertiser.c.obj
 .debug_info    0x0000000000053184     0x1bad CMakeFiles/light_switch_provisioner_nrf52840_xxAA_s140_6.0.0.dir/__/__/__/mesh/bearer/src/bearer_handler.c.obj
 .debug_info    0x0000000000054d31     0x1af7 CMakeFiles/light_switch_provisioner_nrf52840_xxAA_s140_6.0.0.dir/__/__/__/mesh/bearer/src/broadcast.c.obj
 .debug_info    0x0000000000056828      0xd3e CMakeFiles/light_switch_provisioner_nrf52840_xxAA_s140_6.0.0.dir/__/__/__/mesh/bearer/src/filter_engine.c.obj
 .debug_info    0x0000000000057566      0xa28 CMakeFiles/light_switch_provisioner_nrf52840_xxAA_s140_6.0.0.dir/__/__/__/mesh/bearer/src/radio_config.c.obj
 .debug_info    0x0000000000057f8e     0x2df8 CMakeFiles/light_switch_provisioner_nrf52840_xxAA_s140_6.0.0.dir/__/__/__/mesh/bearer/src/scanner.c.obj
 .debug_info    0x000000000005ad86     0x5af8 CMakeFiles/light_switch_provisioner_nrf52840_xxAA_s140_6.0.0.dir/__/__/__/models/config/src/config_client.c.obj
 .debug_info    0x000000000006087e      0xee0 CMakeFiles/light_switch_provisioner_nrf52840_xxAA_s140_6.0.0.dir/__/__/__/models/config/src/composition_data.c.obj
 .debug_info    0x000000000006175e     0xc320 CMakeFiles/light_switch_provisioner_nrf52840_xxAA_s140_6.0.0.dir/__/__/__/models/config/src/config_server.c.obj
 .debug_info    0x000000000006da7e      0x126 CMakeFiles/light_switch_provisioner_nrf52840_xxAA_s140_6.0.0.dir/__/__/__/models/config/src/packed_index_list.c.obj
 .debug_info    0x000000000006dba4     0x2e65 CMakeFiles/light_switch_provisioner_nrf52840_xxAA_s140_6.0.0.dir/__/__/__/models/health/src/health_server.c.obj
 .debug_info    0x0000000000070a09     0x2123 CMakeFiles/light_switch_provisioner_nrf52840_xxAA_s140_6.0.0.dir/__/__/__/models/health/src/health_client.c.obj
 .debug_info    0x0000000000072b2c     0x12cf CMakeFiles/light_switch_provisioner_nrf52840_xxAA_s140_6.0.0.dir/__/__/__/mesh/access/src/access_publish.c.obj
 .debug_info    0x0000000000073dfb     0x56ab CMakeFiles/light_switch_provisioner_nrf52840_xxAA_s140_6.0.0.dir/__/__/__/mesh/access/src/access.c.obj
 .debug_info    0x00000000000794a6     0x1bbb CMakeFiles/light_switch_provisioner_nrf52840_xxAA_s140_6.0.0.dir/__/__/__/mesh/access/src/access_reliable.c.obj
 .debug_info    0x000000000007b061     0x8baa CMakeFiles/light_switch_provisioner_nrf52840_xxAA_s140_6.0.0.dir/__/__/__/mesh/access/src/device_state_manager.c.obj
 .debug_info    0x0000000000083c0b     0x26b6 CMakeFiles/light_switch_provisioner_nrf52840_xxAA_s140_6.0.0.dir/__/__/__/mesh/prov/src/prov_provisioner.c.obj
 .debug_info    0x00000000000862c1     0x1fa2 CMakeFiles/light_switch_provisioner_nrf52840_xxAA_s140_6.0.0.dir/__/__/__/mesh/prov/src/nrf_mesh_prov.c.obj
 .debug_info    0x0000000000088263     0x18dc CMakeFiles/light_switch_provisioner_nrf52840_xxAA_s140_6.0.0.dir/__/__/__/mesh/prov/src/provisioning.c.obj
 .debug_info    0x0000000000089b3f     0x1a93 CMakeFiles/light_switch_provisioner_nrf52840_xxAA_s140_6.0.0.dir/__/__/__/mesh/prov/src/prov_beacon.c.obj
 .debug_info    0x000000000008b5d2     0x2108 CMakeFiles/light_switch_provisioner_nrf52840_xxAA_s140_6.0.0.dir/__/__/__/mesh/prov/src/prov_utils.c.obj
 .debug_info    0x000000000008d6da     0x4a03 CMakeFiles/light_switch_provisioner_nrf52840_xxAA_s140_6.0.0.dir/__/__/__/mesh/prov/src/prov_bearer_adv.c.obj
 .debug_info    0x00000000000920dd     0x137d CMakeFiles/light_switch_provisioner_nrf52840_xxAA_s140_6.0.0.dir/home/mazzer/work/nordic/sdk/nRF5_SDK_15.0.0/modules/nrfx/mdk/system_nrf52840.c.obj
 .debug_info    0x000000000009345a       0x26 CMakeFiles/light_switch_provisioner_nrf52840_xxAA_s140_6.0.0.dir/home/mazzer/work/nordic/sdk/nRF5_SDK_15.0.0/modules/nrfx/mdk/gcc_startup_nrf52840.S.obj
 .debug_info    0x0000000000093480      0x96d CMakeFiles/light_switch_provisioner_nrf52840_xxAA_s140_6.0.0.dir/home/mazzer/work/nordic/sdk/nRF5_SDK_15.0.0/components/libraries/util/app_error_handler_gcc.c.obj
 .debug_info    0x0000000000093ded     0x2b01 ../../../external/rtt/librtt_nrf52840_xxAA.a(SEGGER_RTT.c.obj)
 .debug_info    0x00000000000968ee     0x11e1 ../../../external/rtt/librtt_nrf52840_xxAA.a(SEGGER_RTT_printf.c.obj)
 .debug_info    0x0000000000097acf     0x9ae1 ../../../external/micro-ecc/libuECC_nrf52840_xxAA.a(uECC.c.obj)

.debug_abbrev   0x0000000000000000    0x11d7a
 .debug_abbrev  0x0000000000000000      0x659 CMakeFiles/light_switch_provisioner_nrf52840_xxAA_s140_6.0.0.dir/src/main.c.obj
 .debug_abbrev  0x0000000000000659      0x3b3 CMakeFiles/light_switch_provisioner_nrf52840_xxAA_s140_6.0.0.dir/__/__/__/mesh/stack/src/mesh_stack.c.obj
 .debug_abbrev  0x0000000000000a0c      0x4b6 CMakeFiles/light_switch_provisioner_nrf52840_xxAA_s140_6.0.0.dir/src/provisioner_helper.c.obj
 .debug_abbrev  0x0000000000000ec2      0x4fc CMakeFiles/light_switch_provisioner_nrf52840_xxAA_s140_6.0.0.dir/src/node_setup.c.obj
 .debug_abbrev  0x00000000000013be      0x408 CMakeFiles/light_switch_provisioner_nrf52840_xxAA_s140_6.0.0.dir/__/__/common/src/mesh_softdevice_init.c.obj
 .debug_abbrev  0x00000000000017c6      0x2ba CMakeFiles/light_switch_provisioner_nrf52840_xxAA_s140_6.0.0.dir/__/__/common/src/rtt_input.c.obj
 .debug_abbrev  0x0000000000001a80      0x372 CMakeFiles/light_switch_provisioner_nrf52840_xxAA_s140_6.0.0.dir/__/__/common/src/simple_hal.c.obj
 .debug_abbrev  0x0000000000001df2      0x1ae CMakeFiles/light_switch_provisioner_nrf52840_xxAA_s140_6.0.0.dir/__/__/nrf_mesh_weak.c.obj
 .debug_abbrev  0x0000000000001fa0      0x2d5 CMakeFiles/light_switch_provisioner_nrf52840_xxAA_s140_6.0.0.dir/__/__/common/src/app_error_weak.c.obj
 .debug_abbrev  0x0000000000002275      0x1f6 CMakeFiles/light_switch_provisioner_nrf52840_xxAA_s140_6.0.0.dir/__/__/common/src/assertion_handler_weak.c.obj
 .debug_abbrev  0x000000000000246b      0x254 CMakeFiles/light_switch_provisioner_nrf52840_xxAA_s140_6.0.0.dir/__/__/__/mesh/core/src/nrf_mesh_configure.c.obj
 .debug_abbrev  0x00000000000026bf      0x266 CMakeFiles/light_switch_provisioner_nrf52840_xxAA_s140_6.0.0.dir/__/__/__/mesh/core/src/aes.c.obj
 .debug_abbrev  0x0000000000002925      0x24e CMakeFiles/light_switch_provisioner_nrf52840_xxAA_s140_6.0.0.dir/__/__/__/mesh/core/src/msg_cache.c.obj
 .debug_abbrev  0x0000000000002b73      0x5f7 CMakeFiles/light_switch_provisioner_nrf52840_xxAA_s140_6.0.0.dir/__/__/__/mesh/core/src/transport.c.obj
 .debug_abbrev  0x000000000000316a      0x2d2 CMakeFiles/light_switch_provisioner_nrf52840_xxAA_s140_6.0.0.dir/__/__/__/mesh/core/src/event.c.obj
 .debug_abbrev  0x000000000000343c      0x455 CMakeFiles/light_switch_provisioner_nrf52840_xxAA_s140_6.0.0.dir/__/__/__/mesh/core/src/packet_buffer.c.obj
 .debug_abbrev  0x0000000000003891      0x526 CMakeFiles/light_switch_provisioner_nrf52840_xxAA_s140_6.0.0.dir/__/__/__/mesh/core/src/flash_manager_defrag.c.obj
 .debug_abbrev  0x0000000000003db7      0x2fc CMakeFiles/light_switch_provisioner_nrf52840_xxAA_s140_6.0.0.dir/__/__/__/mesh/core/src/fifo.c.obj
 .debug_abbrev  0x00000000000040b3      0x22d CMakeFiles/light_switch_provisioner_nrf52840_xxAA_s140_6.0.0.dir/__/__/__/mesh/core/src/nrf_flash.c.obj
 .debug_abbrev  0x00000000000042e0      0x3bf CMakeFiles/light_switch_provisioner_nrf52840_xxAA_s140_6.0.0.dir/__/__/__/mesh/core/src/packet_mgr.c.obj
 .debug_abbrev  0x000000000000469f      0x5a6 CMakeFiles/light_switch_provisioner_nrf52840_xxAA_s140_6.0.0.dir/__/__/__/mesh/core/src/net_state.c.obj
 .debug_abbrev  0x0000000000004c45      0x467 CMakeFiles/light_switch_provisioner_nrf52840_xxAA_s140_6.0.0.dir/__/__/__/mesh/core/src/mesh_flash.c.obj
 .debug_abbrev  0x00000000000050ac      0x244 CMakeFiles/light_switch_provisioner_nrf52840_xxAA_s140_6.0.0.dir/__/__/__/mesh/core/src/nrf_mesh_utils.c.obj
 .debug_abbrev  0x00000000000052f0      0x47a CMakeFiles/light_switch_provisioner_nrf52840_xxAA_s140_6.0.0.dir/__/__/__/mesh/core/src/nrf_mesh.c.obj
 .debug_abbrev  0x000000000000576a      0x247 CMakeFiles/light_switch_provisioner_nrf52840_xxAA_s140_6.0.0.dir/__/__/__/mesh/core/src/queue.c.obj
 .debug_abbrev  0x00000000000059b1      0x1d1 CMakeFiles/light_switch_provisioner_nrf52840_xxAA_s140_6.0.0.dir/__/__/__/mesh/core/src/hal.c.obj
 .debug_abbrev  0x0000000000005b82      0x2e3 CMakeFiles/light_switch_provisioner_nrf52840_xxAA_s140_6.0.0.dir/__/__/__/mesh/core/src/aes_cmac.c.obj
 .debug_abbrev  0x0000000000005e65      0x3f7 CMakeFiles/light_switch_provisioner_nrf52840_xxAA_s140_6.0.0.dir/__/__/__/mesh/core/src/timer_scheduler.c.obj
 .debug_abbrev  0x000000000000625c      0x378 CMakeFiles/light_switch_provisioner_nrf52840_xxAA_s140_6.0.0.dir/__/__/__/mesh/core/src/timer.c.obj
 .debug_abbrev  0x00000000000065d4      0x154 CMakeFiles/light_switch_provisioner_nrf52840_xxAA_s140_6.0.0.dir/__/__/__/mesh/core/src/ticker.c.obj
 .debug_abbrev  0x0000000000006728      0x22e CMakeFiles/light_switch_provisioner_nrf52840_xxAA_s140_6.0.0.dir/__/__/__/mesh/core/src/rand.c.obj
 .debug_abbrev  0x0000000000006956      0x24c CMakeFiles/light_switch_provisioner_nrf52840_xxAA_s140_6.0.0.dir/__/__/__/mesh/core/src/nrf_mesh_opt.c.obj
 .debug_abbrev  0x0000000000006ba2      0x4e5 CMakeFiles/light_switch_provisioner_nrf52840_xxAA_s140_6.0.0.dir/__/__/__/mesh/core/src/timeslot.c.obj
 .debug_abbrev  0x0000000000007087      0x4f9 CMakeFiles/light_switch_provisioner_nrf52840_xxAA_s140_6.0.0.dir/__/__/__/mesh/core/src/bearer_event.c.obj
 .debug_abbrev  0x0000000000007580      0x39b CMakeFiles/light_switch_provisioner_nrf52840_xxAA_s140_6.0.0.dir/__/__/__/mesh/core/src/enc.c.obj
 .debug_abbrev  0x000000000000791b      0x4e2 CMakeFiles/light_switch_provisioner_nrf52840_xxAA_s140_6.0.0.dir/__/__/__/mesh/core/src/network.c.obj
 .debug_abbrev  0x0000000000007dfd      0x4a1 CMakeFiles/light_switch_provisioner_nrf52840_xxAA_s140_6.0.0.dir/__/__/__/mesh/core/src/net_packet.c.obj
 .debug_abbrev  0x000000000000829e      0x2e9 CMakeFiles/light_switch_provisioner_nrf52840_xxAA_s140_6.0.0.dir/__/__/__/mesh/core/src/msqueue.c.obj
 .debug_abbrev  0x0000000000008587      0x156 CMakeFiles/light_switch_provisioner_nrf52840_xxAA_s140_6.0.0.dir/__/__/__/mesh/core/src/nrf_mesh_keygen.c.obj
 .debug_abbrev  0x00000000000086dd      0x1ec CMakeFiles/light_switch_provisioner_nrf52840_xxAA_s140_6.0.0.dir/__/__/__/mesh/core/src/list.c.obj
 .debug_abbrev  0x00000000000088c9      0x2b4 CMakeFiles/light_switch_provisioner_nrf52840_xxAA_s140_6.0.0.dir/__/__/__/mesh/core/src/log.c.obj
 .debug_abbrev  0x0000000000008b7d      0x538 CMakeFiles/light_switch_provisioner_nrf52840_xxAA_s140_6.0.0.dir/__/__/__/mesh/core/src/flash_manager.c.obj
 .debug_abbrev  0x00000000000090b5      0x2f5 CMakeFiles/light_switch_provisioner_nrf52840_xxAA_s140_6.0.0.dir/__/__/__/mesh/core/src/ccm_soft.c.obj
 .debug_abbrev  0x00000000000093aa      0x29b CMakeFiles/light_switch_provisioner_nrf52840_xxAA_s140_6.0.0.dir/__/__/__/mesh/core/src/replay_cache.c.obj
 .debug_abbrev  0x0000000000009645      0x310 CMakeFiles/light_switch_provisioner_nrf52840_xxAA_s140_6.0.0.dir/__/__/__/mesh/core/src/beacon.c.obj
 .debug_abbrev  0x0000000000009955      0x2a4 CMakeFiles/light_switch_provisioner_nrf52840_xxAA_s140_6.0.0.dir/__/__/__/mesh/core/src/flash_manager_internal.c.obj
 .debug_abbrev  0x0000000000009bf9      0x2fc CMakeFiles/light_switch_provisioner_nrf52840_xxAA_s140_6.0.0.dir/__/__/__/mesh/core/src/core_tx.c.obj
 .debug_abbrev  0x0000000000009ef5      0x4e3 CMakeFiles/light_switch_provisioner_nrf52840_xxAA_s140_6.0.0.dir/__/__/__/mesh/core/src/heartbeat.c.obj
 .debug_abbrev  0x000000000000a3d8      0x512 CMakeFiles/light_switch_provisioner_nrf52840_xxAA_s140_6.0.0.dir/__/__/__/mesh/core/src/net_beacon.c.obj
 .debug_abbrev  0x000000000000a8ea      0x330 CMakeFiles/light_switch_provisioner_nrf52840_xxAA_s140_6.0.0.dir/__/__/__/mesh/core/src/core_tx_adv.c.obj
 .debug_abbrev  0x000000000000ac1a      0x340 CMakeFiles/light_switch_provisioner_nrf52840_xxAA_s140_6.0.0.dir/__/__/__/mesh/bearer/src/ad_listener.c.obj
 .debug_abbrev  0x000000000000af5a      0x375 CMakeFiles/light_switch_provisioner_nrf52840_xxAA_s140_6.0.0.dir/__/__/__/mesh/bearer/src/ad_type_filter.c.obj
 .debug_abbrev  0x000000000000b2cf      0x56a CMakeFiles/light_switch_provisioner_nrf52840_xxAA_s140_6.0.0.dir/__/__/__/mesh/bearer/src/advertiser.c.obj
 .debug_abbrev  0x000000000000b839      0x3fa CMakeFiles/light_switch_provisioner_nrf52840_xxAA_s140_6.0.0.dir/__/__/__/mesh/bearer/src/bearer_handler.c.obj
 .debug_abbrev  0x000000000000bc33      0x3eb CMakeFiles/light_switch_provisioner_nrf52840_xxAA_s140_6.0.0.dir/__/__/__/mesh/bearer/src/broadcast.c.obj
 .debug_abbrev  0x000000000000c01e      0x2af CMakeFiles/light_switch_provisioner_nrf52840_xxAA_s140_6.0.0.dir/__/__/__/mesh/bearer/src/filter_engine.c.obj
 .debug_abbrev  0x000000000000c2cd      0x1e4 CMakeFiles/light_switch_provisioner_nrf52840_xxAA_s140_6.0.0.dir/__/__/__/mesh/bearer/src/radio_config.c.obj
 .debug_abbrev  0x000000000000c4b1      0x59f CMakeFiles/light_switch_provisioner_nrf52840_xxAA_s140_6.0.0.dir/__/__/__/mesh/bearer/src/scanner.c.obj
 .debug_abbrev  0x000000000000ca50      0x561 CMakeFiles/light_switch_provisioner_nrf52840_xxAA_s140_6.0.0.dir/__/__/__/models/config/src/config_client.c.obj
 .debug_abbrev  0x000000000000cfb1      0x2e4 CMakeFiles/light_switch_provisioner_nrf52840_xxAA_s140_6.0.0.dir/__/__/__/models/config/src/composition_data.c.obj
 .debug_abbrev  0x000000000000d295      0x56c CMakeFiles/light_switch_provisioner_nrf52840_xxAA_s140_6.0.0.dir/__/__/__/models/config/src/config_server.c.obj
 .debug_abbrev  0x000000000000d801       0x95 CMakeFiles/light_switch_provisioner_nrf52840_xxAA_s140_6.0.0.dir/__/__/__/models/config/src/packed_index_list.c.obj
 .debug_abbrev  0x000000000000d896      0x505 CMakeFiles/light_switch_provisioner_nrf52840_xxAA_s140_6.0.0.dir/__/__/__/models/health/src/health_server.c.obj
 .debug_abbrev  0x000000000000dd9b      0x419 CMakeFiles/light_switch_provisioner_nrf52840_xxAA_s140_6.0.0.dir/__/__/__/models/health/src/health_client.c.obj
 .debug_abbrev  0x000000000000e1b4      0x423 CMakeFiles/light_switch_provisioner_nrf52840_xxAA_s140_6.0.0.dir/__/__/__/mesh/access/src/access_publish.c.obj
 .debug_abbrev  0x000000000000e5d7      0x66d CMakeFiles/light_switch_provisioner_nrf52840_xxAA_s140_6.0.0.dir/__/__/__/mesh/access/src/access.c.obj
 .debug_abbrev  0x000000000000ec44      0x448 CMakeFiles/light_switch_provisioner_nrf52840_xxAA_s140_6.0.0.dir/__/__/__/mesh/access/src/access_reliable.c.obj
 .debug_abbrev  0x000000000000f08c      0x5a8 CMakeFiles/light_switch_provisioner_nrf52840_xxAA_s140_6.0.0.dir/__/__/__/mesh/access/src/device_state_manager.c.obj
 .debug_abbrev  0x000000000000f634      0x404 CMakeFiles/light_switch_provisioner_nrf52840_xxAA_s140_6.0.0.dir/__/__/__/mesh/prov/src/prov_provisioner.c.obj
 .debug_abbrev  0x000000000000fa38      0x450 CMakeFiles/light_switch_provisioner_nrf52840_xxAA_s140_6.0.0.dir/__/__/__/mesh/prov/src/nrf_mesh_prov.c.obj
 .debug_abbrev  0x000000000000fe88      0x2e6 CMakeFiles/light_switch_provisioner_nrf52840_xxAA_s140_6.0.0.dir/__/__/__/mesh/prov/src/provisioning.c.obj
 .debug_abbrev  0x000000000001016e      0x2fc CMakeFiles/light_switch_provisioner_nrf52840_xxAA_s140_6.0.0.dir/__/__/__/mesh/prov/src/prov_beacon.c.obj
 .debug_abbrev  0x000000000001046a      0x3f3 CMakeFiles/light_switch_provisioner_nrf52840_xxAA_s140_6.0.0.dir/__/__/__/mesh/prov/src/prov_utils.c.obj
 .debug_abbrev  0x000000000001085d      0x55d CMakeFiles/light_switch_provisioner_nrf52840_xxAA_s140_6.0.0.dir/__/__/__/mesh/prov/src/prov_bearer_adv.c.obj
 .debug_abbrev  0x0000000000010dba      0x1e8 CMakeFiles/light_switch_provisioner_nrf52840_xxAA_s140_6.0.0.dir/home/mazzer/work/nordic/sdk/nRF5_SDK_15.0.0/modules/nrfx/mdk/system_nrf52840.c.obj
 .debug_abbrev  0x0000000000010fa2       0x14 CMakeFiles/light_switch_provisioner_nrf52840_xxAA_s140_6.0.0.dir/home/mazzer/work/nordic/sdk/nRF5_SDK_15.0.0/modules/nrfx/mdk/gcc_startup_nrf52840.S.obj
 .debug_abbrev  0x0000000000010fb6      0x1bd CMakeFiles/light_switch_provisioner_nrf52840_xxAA_s140_6.0.0.dir/home/mazzer/work/nordic/sdk/nRF5_SDK_15.0.0/components/libraries/util/app_error_handler_gcc.c.obj
 .debug_abbrev  0x0000000000011173      0x3d2 ../../../external/rtt/librtt_nrf52840_xxAA.a(SEGGER_RTT.c.obj)
 .debug_abbrev  0x0000000000011545      0x353 ../../../external/rtt/librtt_nrf52840_xxAA.a(SEGGER_RTT_printf.c.obj)
 .debug_abbrev  0x0000000000011898      0x4e2 ../../../external/micro-ecc/libuECC_nrf52840_xxAA.a(uECC.c.obj)

.debug_loc      0x0000000000000000    0x4da28
 .debug_loc     0x0000000000000000     0x11c8 CMakeFiles/light_switch_provisioner_nrf52840_xxAA_s140_6.0.0.dir/src/main.c.obj
 .debug_loc     0x00000000000011c8      0x1a3 CMakeFiles/light_switch_provisioner_nrf52840_xxAA_s140_6.0.0.dir/__/__/__/mesh/stack/src/mesh_stack.c.obj
 .debug_loc     0x000000000000136b      0x922 CMakeFiles/light_switch_provisioner_nrf52840_xxAA_s140_6.0.0.dir/src/provisioner_helper.c.obj
 .debug_loc     0x0000000000001c8d      0xb93 CMakeFiles/light_switch_provisioner_nrf52840_xxAA_s140_6.0.0.dir/src/node_setup.c.obj
 .debug_loc     0x0000000000002820      0x1bb CMakeFiles/light_switch_provisioner_nrf52840_xxAA_s140_6.0.0.dir/__/__/common/src/mesh_softdevice_init.c.obj
 .debug_loc     0x00000000000029db       0xbf CMakeFiles/light_switch_provisioner_nrf52840_xxAA_s140_6.0.0.dir/__/__/common/src/rtt_input.c.obj
 .debug_loc     0x0000000000002a9a      0x29c CMakeFiles/light_switch_provisioner_nrf52840_xxAA_s140_6.0.0.dir/__/__/common/src/simple_hal.c.obj
 .debug_loc     0x0000000000002d36      0x1c6 CMakeFiles/light_switch_provisioner_nrf52840_xxAA_s140_6.0.0.dir/__/__/common/src/app_error_weak.c.obj
 .debug_loc     0x0000000000002efc       0x2c CMakeFiles/light_switch_provisioner_nrf52840_xxAA_s140_6.0.0.dir/__/__/common/src/assertion_handler_weak.c.obj
 .debug_loc     0x0000000000002f28       0x2c CMakeFiles/light_switch_provisioner_nrf52840_xxAA_s140_6.0.0.dir/__/__/__/mesh/core/src/nrf_mesh_configure.c.obj
 .debug_loc     0x0000000000002f54       0x89 CMakeFiles/light_switch_provisioner_nrf52840_xxAA_s140_6.0.0.dir/__/__/__/mesh/core/src/aes.c.obj
 .debug_loc     0x0000000000002fdd       0xab CMakeFiles/light_switch_provisioner_nrf52840_xxAA_s140_6.0.0.dir/__/__/__/mesh/core/src/msg_cache.c.obj
 .debug_loc     0x0000000000003088     0x41e3 CMakeFiles/light_switch_provisioner_nrf52840_xxAA_s140_6.0.0.dir/__/__/__/mesh/core/src/transport.c.obj
 .debug_loc     0x000000000000726b      0x169 CMakeFiles/light_switch_provisioner_nrf52840_xxAA_s140_6.0.0.dir/__/__/__/mesh/core/src/event.c.obj
 .debug_loc     0x00000000000073d4      0xcfb CMakeFiles/light_switch_provisioner_nrf52840_xxAA_s140_6.0.0.dir/__/__/__/mesh/core/src/packet_buffer.c.obj
 .debug_loc     0x00000000000080cf      0xbd0 CMakeFiles/light_switch_provisioner_nrf52840_xxAA_s140_6.0.0.dir/__/__/__/mesh/core/src/flash_manager_defrag.c.obj
 .debug_loc     0x0000000000008c9f      0x86b CMakeFiles/light_switch_provisioner_nrf52840_xxAA_s140_6.0.0.dir/__/__/__/mesh/core/src/fifo.c.obj
 .debug_loc     0x000000000000950a      0x194 CMakeFiles/light_switch_provisioner_nrf52840_xxAA_s140_6.0.0.dir/__/__/__/mesh/core/src/nrf_flash.c.obj
 .debug_loc     0x000000000000969e      0x788 CMakeFiles/light_switch_provisioner_nrf52840_xxAA_s140_6.0.0.dir/__/__/__/mesh/core/src/packet_mgr.c.obj
 .debug_loc     0x0000000000009e26      0xfdf CMakeFiles/light_switch_provisioner_nrf52840_xxAA_s140_6.0.0.dir/__/__/__/mesh/core/src/net_state.c.obj
 .debug_loc     0x000000000000ae05      0xfd3 CMakeFiles/light_switch_provisioner_nrf52840_xxAA_s140_6.0.0.dir/__/__/__/mesh/core/src/mesh_flash.c.obj
 .debug_loc     0x000000000000bdd8      0x185 CMakeFiles/light_switch_provisioner_nrf52840_xxAA_s140_6.0.0.dir/__/__/__/mesh/core/src/nrf_mesh_utils.c.obj
 .debug_loc     0x000000000000bf5d      0x6be CMakeFiles/light_switch_provisioner_nrf52840_xxAA_s140_6.0.0.dir/__/__/__/mesh/core/src/nrf_mesh.c.obj
 .debug_loc     0x000000000000c61b      0x186 CMakeFiles/light_switch_provisioner_nrf52840_xxAA_s140_6.0.0.dir/__/__/__/mesh/core/src/queue.c.obj
 .debug_loc     0x000000000000c7a1       0x63 CMakeFiles/light_switch_provisioner_nrf52840_xxAA_s140_6.0.0.dir/__/__/__/mesh/core/src/hal.c.obj
 .debug_loc     0x000000000000c804      0xb75 CMakeFiles/light_switch_provisioner_nrf52840_xxAA_s140_6.0.0.dir/__/__/__/mesh/core/src/aes_cmac.c.obj
 .debug_loc     0x000000000000d379      0x5b7 CMakeFiles/light_switch_provisioner_nrf52840_xxAA_s140_6.0.0.dir/__/__/__/mesh/core/src/timer_scheduler.c.obj
 .debug_loc     0x000000000000d930      0x608 CMakeFiles/light_switch_provisioner_nrf52840_xxAA_s140_6.0.0.dir/__/__/__/mesh/core/src/timer.c.obj
 .debug_loc     0x000000000000df38      0x1c5 CMakeFiles/light_switch_provisioner_nrf52840_xxAA_s140_6.0.0.dir/__/__/__/mesh/core/src/rand.c.obj
 .debug_loc     0x000000000000e0fd      0x194 CMakeFiles/light_switch_provisioner_nrf52840_xxAA_s140_6.0.0.dir/__/__/__/mesh/core/src/nrf_mesh_opt.c.obj
 .debug_loc     0x000000000000e291      0x4f1 CMakeFiles/light_switch_provisioner_nrf52840_xxAA_s140_6.0.0.dir/__/__/__/mesh/core/src/timeslot.c.obj
 .debug_loc     0x000000000000e782      0x86e CMakeFiles/light_switch_provisioner_nrf52840_xxAA_s140_6.0.0.dir/__/__/__/mesh/core/src/bearer_event.c.obj
 .debug_loc     0x000000000000eff0      0xb0d CMakeFiles/light_switch_provisioner_nrf52840_xxAA_s140_6.0.0.dir/__/__/__/mesh/core/src/enc.c.obj
 .debug_loc     0x000000000000fafd      0x864 CMakeFiles/light_switch_provisioner_nrf52840_xxAA_s140_6.0.0.dir/__/__/__/mesh/core/src/network.c.obj
 .debug_loc     0x0000000000010361      0x978 CMakeFiles/light_switch_provisioner_nrf52840_xxAA_s140_6.0.0.dir/__/__/__/mesh/core/src/net_packet.c.obj
 .debug_loc     0x0000000000010cd9      0x438 CMakeFiles/light_switch_provisioner_nrf52840_xxAA_s140_6.0.0.dir/__/__/__/mesh/core/src/msqueue.c.obj
 .debug_loc     0x0000000000011111      0x210 CMakeFiles/light_switch_provisioner_nrf52840_xxAA_s140_6.0.0.dir/__/__/__/mesh/core/src/nrf_mesh_keygen.c.obj
 .debug_loc     0x0000000000011321      0x565 CMakeFiles/light_switch_provisioner_nrf52840_xxAA_s140_6.0.0.dir/__/__/__/mesh/core/src/list.c.obj
 .debug_loc     0x0000000000011886      0x3dd CMakeFiles/light_switch_provisioner_nrf52840_xxAA_s140_6.0.0.dir/__/__/__/mesh/core/src/log.c.obj
 .debug_loc     0x0000000000011c63     0x21f7 CMakeFiles/light_switch_provisioner_nrf52840_xxAA_s140_6.0.0.dir/__/__/__/mesh/core/src/flash_manager.c.obj
 .debug_loc     0x0000000000013e5a      0xb6e CMakeFiles/light_switch_provisioner_nrf52840_xxAA_s140_6.0.0.dir/__/__/__/mesh/core/src/ccm_soft.c.obj
 .debug_loc     0x00000000000149c8      0x13f CMakeFiles/light_switch_provisioner_nrf52840_xxAA_s140_6.0.0.dir/__/__/__/mesh/core/src/replay_cache.c.obj
 .debug_loc     0x0000000000014b07      0x416 CMakeFiles/light_switch_provisioner_nrf52840_xxAA_s140_6.0.0.dir/__/__/__/mesh/core/src/beacon.c.obj
 .debug_loc     0x0000000000014f1d      0x12d CMakeFiles/light_switch_provisioner_nrf52840_xxAA_s140_6.0.0.dir/__/__/__/mesh/core/src/flash_manager_internal.c.obj
 .debug_loc     0x000000000001504a      0x4d1 CMakeFiles/light_switch_provisioner_nrf52840_xxAA_s140_6.0.0.dir/__/__/__/mesh/core/src/core_tx.c.obj
 .debug_loc     0x000000000001551b      0x6c5 CMakeFiles/light_switch_provisioner_nrf52840_xxAA_s140_6.0.0.dir/__/__/__/mesh/core/src/heartbeat.c.obj
 .debug_loc     0x0000000000015be0      0x6e9 CMakeFiles/light_switch_provisioner_nrf52840_xxAA_s140_6.0.0.dir/__/__/__/mesh/core/src/net_beacon.c.obj
 .debug_loc     0x00000000000162c9      0x3d3 CMakeFiles/light_switch_provisioner_nrf52840_xxAA_s140_6.0.0.dir/__/__/__/mesh/core/src/core_tx_adv.c.obj
 .debug_loc     0x000000000001669c      0x45f CMakeFiles/light_switch_provisioner_nrf52840_xxAA_s140_6.0.0.dir/__/__/__/mesh/bearer/src/ad_listener.c.obj
 .debug_loc     0x0000000000016afb      0x321 CMakeFiles/light_switch_provisioner_nrf52840_xxAA_s140_6.0.0.dir/__/__/__/mesh/bearer/src/ad_type_filter.c.obj
 .debug_loc     0x0000000000016e1c     0x12af CMakeFiles/light_switch_provisioner_nrf52840_xxAA_s140_6.0.0.dir/__/__/__/mesh/bearer/src/advertiser.c.obj
 .debug_loc     0x00000000000180cb      0x394 CMakeFiles/light_switch_provisioner_nrf52840_xxAA_s140_6.0.0.dir/__/__/__/mesh/bearer/src/bearer_handler.c.obj
 .debug_loc     0x000000000001845f      0x30e CMakeFiles/light_switch_provisioner_nrf52840_xxAA_s140_6.0.0.dir/__/__/__/mesh/bearer/src/broadcast.c.obj
 .debug_loc     0x000000000001876d      0x179 CMakeFiles/light_switch_provisioner_nrf52840_xxAA_s140_6.0.0.dir/__/__/__/mesh/bearer/src/filter_engine.c.obj
 .debug_loc     0x00000000000188e6      0x239 CMakeFiles/light_switch_provisioner_nrf52840_xxAA_s140_6.0.0.dir/__/__/__/mesh/bearer/src/radio_config.c.obj
 .debug_loc     0x0000000000018b1f      0x899 CMakeFiles/light_switch_provisioner_nrf52840_xxAA_s140_6.0.0.dir/__/__/__/mesh/bearer/src/scanner.c.obj
 .debug_loc     0x00000000000193b8     0x4d49 CMakeFiles/light_switch_provisioner_nrf52840_xxAA_s140_6.0.0.dir/__/__/__/models/config/src/config_client.c.obj
 .debug_loc     0x000000000001e101      0x33c CMakeFiles/light_switch_provisioner_nrf52840_xxAA_s140_6.0.0.dir/__/__/__/models/config/src/composition_data.c.obj
 .debug_loc     0x000000000001e43d     0xa43a CMakeFiles/light_switch_provisioner_nrf52840_xxAA_s140_6.0.0.dir/__/__/__/models/config/src/config_server.c.obj
 .debug_loc     0x0000000000028877       0xa8 CMakeFiles/light_switch_provisioner_nrf52840_xxAA_s140_6.0.0.dir/__/__/__/models/config/src/packed_index_list.c.obj
 .debug_loc     0x000000000002891f     0x3724 CMakeFiles/light_switch_provisioner_nrf52840_xxAA_s140_6.0.0.dir/__/__/__/models/health/src/health_server.c.obj
 .debug_loc     0x000000000002c043     0x15e9 CMakeFiles/light_switch_provisioner_nrf52840_xxAA_s140_6.0.0.dir/__/__/__/models/health/src/health_client.c.obj
 .debug_loc     0x000000000002d62c      0x939 CMakeFiles/light_switch_provisioner_nrf52840_xxAA_s140_6.0.0.dir/__/__/__/mesh/access/src/access_publish.c.obj
 .debug_loc     0x000000000002df65     0x3bd5 CMakeFiles/light_switch_provisioner_nrf52840_xxAA_s140_6.0.0.dir/__/__/__/mesh/access/src/access.c.obj
 .debug_loc     0x0000000000031b3a      0xeac CMakeFiles/light_switch_provisioner_nrf52840_xxAA_s140_6.0.0.dir/__/__/__/mesh/access/src/access_reliable.c.obj
 .debug_loc     0x00000000000329e6     0x6361 CMakeFiles/light_switch_provisioner_nrf52840_xxAA_s140_6.0.0.dir/__/__/__/mesh/access/src/device_state_manager.c.obj
 .debug_loc     0x0000000000038d47      0x919 CMakeFiles/light_switch_provisioner_nrf52840_xxAA_s140_6.0.0.dir/__/__/__/mesh/prov/src/prov_provisioner.c.obj
 .debug_loc     0x0000000000039660      0xaf3 CMakeFiles/light_switch_provisioner_nrf52840_xxAA_s140_6.0.0.dir/__/__/__/mesh/prov/src/nrf_mesh_prov.c.obj
 .debug_loc     0x000000000003a153      0xc0a CMakeFiles/light_switch_provisioner_nrf52840_xxAA_s140_6.0.0.dir/__/__/__/mesh/prov/src/provisioning.c.obj
 .debug_loc     0x000000000003ad5d      0x255 CMakeFiles/light_switch_provisioner_nrf52840_xxAA_s140_6.0.0.dir/__/__/__/mesh/prov/src/prov_beacon.c.obj
 .debug_loc     0x000000000003afb2      0x492 CMakeFiles/light_switch_provisioner_nrf52840_xxAA_s140_6.0.0.dir/__/__/__/mesh/prov/src/prov_utils.c.obj
 .debug_loc     0x000000000003b444     0x2722 CMakeFiles/light_switch_provisioner_nrf52840_xxAA_s140_6.0.0.dir/__/__/__/mesh/prov/src/prov_bearer_adv.c.obj
 .debug_loc     0x000000000003db66       0x63 CMakeFiles/light_switch_provisioner_nrf52840_xxAA_s140_6.0.0.dir/home/mazzer/work/nordic/sdk/nRF5_SDK_15.0.0/components/libraries/util/app_error_handler_gcc.c.obj
 .debug_loc     0x000000000003dbc9     0x3e95 ../../../external/rtt/librtt_nrf52840_xxAA.a(SEGGER_RTT.c.obj)
 .debug_loc     0x0000000000041a5e      0xec5 ../../../external/rtt/librtt_nrf52840_xxAA.a(SEGGER_RTT_printf.c.obj)
 .debug_loc     0x0000000000042923     0xb105 ../../../external/micro-ecc/libuECC_nrf52840_xxAA.a(uECC.c.obj)

.debug_aranges  0x0000000000000000     0x20c8
 .debug_aranges
                0x0000000000000000       0xc8 CMakeFiles/light_switch_provisioner_nrf52840_xxAA_s140_6.0.0.dir/src/main.c.obj
 .debug_aranges
                0x00000000000000c8       0x50 CMakeFiles/light_switch_provisioner_nrf52840_xxAA_s140_6.0.0.dir/__/__/__/mesh/stack/src/mesh_stack.c.obj
 .debug_aranges
                0x0000000000000118       0x50 CMakeFiles/light_switch_provisioner_nrf52840_xxAA_s140_6.0.0.dir/src/provisioner_helper.c.obj
 .debug_aranges
                0x0000000000000168       0x50 CMakeFiles/light_switch_provisioner_nrf52840_xxAA_s140_6.0.0.dir/src/node_setup.c.obj
 .debug_aranges
                0x00000000000001b8       0x40 CMakeFiles/light_switch_provisioner_nrf52840_xxAA_s140_6.0.0.dir/__/__/common/src/mesh_softdevice_init.c.obj
 .debug_aranges
                0x00000000000001f8       0x30 CMakeFiles/light_switch_provisioner_nrf52840_xxAA_s140_6.0.0.dir/__/__/common/src/rtt_input.c.obj
 .debug_aranges
                0x0000000000000228       0x50 CMakeFiles/light_switch_provisioner_nrf52840_xxAA_s140_6.0.0.dir/__/__/common/src/simple_hal.c.obj
 .debug_aranges
                0x0000000000000278       0x28 CMakeFiles/light_switch_provisioner_nrf52840_xxAA_s140_6.0.0.dir/__/__/nrf_mesh_weak.c.obj
 .debug_aranges
                0x00000000000002a0       0x20 CMakeFiles/light_switch_provisioner_nrf52840_xxAA_s140_6.0.0.dir/__/__/common/src/app_error_weak.c.obj
 .debug_aranges
                0x00000000000002c0       0x20 CMakeFiles/light_switch_provisioner_nrf52840_xxAA_s140_6.0.0.dir/__/__/common/src/assertion_handler_weak.c.obj
 .debug_aranges
                0x00000000000002e0       0x30 CMakeFiles/light_switch_provisioner_nrf52840_xxAA_s140_6.0.0.dir/__/__/__/mesh/core/src/nrf_mesh_configure.c.obj
 .debug_aranges
                0x0000000000000310       0x28 CMakeFiles/light_switch_provisioner_nrf52840_xxAA_s140_6.0.0.dir/__/__/__/mesh/core/src/aes.c.obj
 .debug_aranges
                0x0000000000000338       0x38 CMakeFiles/light_switch_provisioner_nrf52840_xxAA_s140_6.0.0.dir/__/__/__/mesh/core/src/msg_cache.c.obj
 .debug_aranges
                0x0000000000000370       0xc0 CMakeFiles/light_switch_provisioner_nrf52840_xxAA_s140_6.0.0.dir/__/__/__/mesh/core/src/transport.c.obj
 .debug_aranges
                0x0000000000000430       0x30 CMakeFiles/light_switch_provisioner_nrf52840_xxAA_s140_6.0.0.dir/__/__/__/mesh/core/src/event.c.obj
 .debug_aranges
                0x0000000000000460       0x60 CMakeFiles/light_switch_provisioner_nrf52840_xxAA_s140_6.0.0.dir/__/__/__/mesh/core/src/packet_buffer.c.obj
 .debug_aranges
                0x00000000000004c0       0xa0 CMakeFiles/light_switch_provisioner_nrf52840_xxAA_s140_6.0.0.dir/__/__/__/mesh/core/src/flash_manager_defrag.c.obj
 .debug_aranges
                0x0000000000000560       0x60 CMakeFiles/light_switch_provisioner_nrf52840_xxAA_s140_6.0.0.dir/__/__/__/mesh/core/src/fifo.c.obj
 .debug_aranges
                0x00000000000005c0       0x28 CMakeFiles/light_switch_provisioner_nrf52840_xxAA_s140_6.0.0.dir/__/__/__/mesh/core/src/nrf_flash.c.obj
 .debug_aranges
                0x00000000000005e8       0x48 CMakeFiles/light_switch_provisioner_nrf52840_xxAA_s140_6.0.0.dir/__/__/__/mesh/core/src/packet_mgr.c.obj
 .debug_aranges
                0x0000000000000630       0xd0 CMakeFiles/light_switch_provisioner_nrf52840_xxAA_s140_6.0.0.dir/__/__/__/mesh/core/src/net_state.c.obj
 .debug_aranges
                0x0000000000000700       0x58 CMakeFiles/light_switch_provisioner_nrf52840_xxAA_s140_6.0.0.dir/__/__/__/mesh/core/src/mesh_flash.c.obj
 .debug_aranges
                0x0000000000000758       0x30 CMakeFiles/light_switch_provisioner_nrf52840_xxAA_s140_6.0.0.dir/__/__/__/mesh/core/src/nrf_mesh_utils.c.obj
 .debug_aranges
                0x0000000000000788       0x90 CMakeFiles/light_switch_provisioner_nrf52840_xxAA_s140_6.0.0.dir/__/__/__/mesh/core/src/nrf_mesh.c.obj
 .debug_aranges
                0x0000000000000818       0x38 CMakeFiles/light_switch_provisioner_nrf52840_xxAA_s140_6.0.0.dir/__/__/__/mesh/core/src/queue.c.obj
 .debug_aranges
                0x0000000000000850       0x30 CMakeFiles/light_switch_provisioner_nrf52840_xxAA_s140_6.0.0.dir/__/__/__/mesh/core/src/hal.c.obj
 .debug_aranges
                0x0000000000000880       0x28 CMakeFiles/light_switch_provisioner_nrf52840_xxAA_s140_6.0.0.dir/__/__/__/mesh/core/src/aes_cmac.c.obj
 .debug_aranges
                0x00000000000008a8       0x50 CMakeFiles/light_switch_provisioner_nrf52840_xxAA_s140_6.0.0.dir/__/__/__/mesh/core/src/timer_scheduler.c.obj
 .debug_aranges
                0x00000000000008f8       0x58 CMakeFiles/light_switch_provisioner_nrf52840_xxAA_s140_6.0.0.dir/__/__/__/mesh/core/src/timer.c.obj
 .debug_aranges
                0x0000000000000950       0x30 CMakeFiles/light_switch_provisioner_nrf52840_xxAA_s140_6.0.0.dir/__/__/__/mesh/core/src/ticker.c.obj
 .debug_aranges
                0x0000000000000980       0x40 CMakeFiles/light_switch_provisioner_nrf52840_xxAA_s140_6.0.0.dir/__/__/__/mesh/core/src/rand.c.obj
 .debug_aranges
                0x00000000000009c0       0x28 CMakeFiles/light_switch_provisioner_nrf52840_xxAA_s140_6.0.0.dir/__/__/__/mesh/core/src/nrf_mesh_opt.c.obj
 .debug_aranges
                0x00000000000009e8       0xa8 CMakeFiles/light_switch_provisioner_nrf52840_xxAA_s140_6.0.0.dir/__/__/__/mesh/core/src/timeslot.c.obj
 .debug_aranges
                0x0000000000000a90       0x88 CMakeFiles/light_switch_provisioner_nrf52840_xxAA_s140_6.0.0.dir/__/__/__/mesh/core/src/bearer_event.c.obj
 .debug_aranges
                0x0000000000000b18       0x70 CMakeFiles/light_switch_provisioner_nrf52840_xxAA_s140_6.0.0.dir/__/__/__/mesh/core/src/enc.c.obj
 .debug_aranges
                0x0000000000000b88       0x50 CMakeFiles/light_switch_provisioner_nrf52840_xxAA_s140_6.0.0.dir/__/__/__/mesh/core/src/network.c.obj
 .debug_aranges
                0x0000000000000bd8       0x58 CMakeFiles/light_switch_provisioner_nrf52840_xxAA_s140_6.0.0.dir/__/__/__/mesh/core/src/net_packet.c.obj
 .debug_aranges
                0x0000000000000c30       0x40 CMakeFiles/light_switch_provisioner_nrf52840_xxAA_s140_6.0.0.dir/__/__/__/mesh/core/src/msqueue.c.obj
 .debug_aranges
                0x0000000000000c70       0x40 CMakeFiles/light_switch_provisioner_nrf52840_xxAA_s140_6.0.0.dir/__/__/__/mesh/core/src/nrf_mesh_keygen.c.obj
 .debug_aranges
                0x0000000000000cb0       0x40 CMakeFiles/light_switch_provisioner_nrf52840_xxAA_s140_6.0.0.dir/__/__/__/mesh/core/src/list.c.obj
 .debug_aranges
                0x0000000000000cf0       0x48 CMakeFiles/light_switch_provisioner_nrf52840_xxAA_s140_6.0.0.dir/__/__/__/mesh/core/src/log.c.obj
 .debug_aranges
                0x0000000000000d38       0xa0 CMakeFiles/light_switch_provisioner_nrf52840_xxAA_s140_6.0.0.dir/__/__/__/mesh/core/src/flash_manager.c.obj
 .debug_aranges
                0x0000000000000dd8       0x38 CMakeFiles/light_switch_provisioner_nrf52840_xxAA_s140_6.0.0.dir/__/__/__/mesh/core/src/ccm_soft.c.obj
 .debug_aranges
                0x0000000000000e10       0x38 CMakeFiles/light_switch_provisioner_nrf52840_xxAA_s140_6.0.0.dir/__/__/__/mesh/core/src/replay_cache.c.obj
 .debug_aranges
                0x0000000000000e48       0x28 CMakeFiles/light_switch_provisioner_nrf52840_xxAA_s140_6.0.0.dir/__/__/__/mesh/core/src/beacon.c.obj
 .debug_aranges
                0x0000000000000e70       0x20 CMakeFiles/light_switch_provisioner_nrf52840_xxAA_s140_6.0.0.dir/__/__/__/mesh/core/src/flash_manager_internal.c.obj
 .debug_aranges
                0x0000000000000e90       0x58 CMakeFiles/light_switch_provisioner_nrf52840_xxAA_s140_6.0.0.dir/__/__/__/mesh/core/src/core_tx.c.obj
 .debug_aranges
                0x0000000000000ee8       0x70 CMakeFiles/light_switch_provisioner_nrf52840_xxAA_s140_6.0.0.dir/__/__/__/mesh/core/src/heartbeat.c.obj
 .debug_aranges
                0x0000000000000f58       0x58 CMakeFiles/light_switch_provisioner_nrf52840_xxAA_s140_6.0.0.dir/__/__/__/mesh/core/src/net_beacon.c.obj
 .debug_aranges
                0x0000000000000fb0       0x68 CMakeFiles/light_switch_provisioner_nrf52840_xxAA_s140_6.0.0.dir/__/__/__/mesh/core/src/core_tx_adv.c.obj
 .debug_aranges
                0x0000000000001018       0x30 CMakeFiles/light_switch_provisioner_nrf52840_xxAA_s140_6.0.0.dir/__/__/__/mesh/bearer/src/ad_listener.c.obj
 .debug_aranges
                0x0000000000001048       0x58 CMakeFiles/light_switch_provisioner_nrf52840_xxAA_s140_6.0.0.dir/__/__/__/mesh/bearer/src/ad_type_filter.c.obj
 .debug_aranges
                0x00000000000010a0       0xa0 CMakeFiles/light_switch_provisioner_nrf52840_xxAA_s140_6.0.0.dir/__/__/__/mesh/bearer/src/advertiser.c.obj
 .debug_aranges
                0x0000000000001140       0x70 CMakeFiles/light_switch_provisioner_nrf52840_xxAA_s140_6.0.0.dir/__/__/__/mesh/bearer/src/bearer_handler.c.obj
 .debug_aranges
                0x00000000000011b0       0x30 CMakeFiles/light_switch_provisioner_nrf52840_xxAA_s140_6.0.0.dir/__/__/__/mesh/bearer/src/broadcast.c.obj
 .debug_aranges
                0x00000000000011e0       0x38 CMakeFiles/light_switch_provisioner_nrf52840_xxAA_s140_6.0.0.dir/__/__/__/mesh/bearer/src/filter_engine.c.obj
 .debug_aranges
                0x0000000000001218       0x40 CMakeFiles/light_switch_provisioner_nrf52840_xxAA_s140_6.0.0.dir/__/__/__/mesh/bearer/src/radio_config.c.obj
 .debug_aranges
                0x0000000000001258       0xb8 CMakeFiles/light_switch_provisioner_nrf52840_xxAA_s140_6.0.0.dir/__/__/__/mesh/bearer/src/scanner.c.obj
 .debug_aranges
                0x0000000000001310      0x168 CMakeFiles/light_switch_provisioner_nrf52840_xxAA_s140_6.0.0.dir/__/__/__/models/config/src/config_client.c.obj
 .debug_aranges
                0x0000000000001478       0x20 CMakeFiles/light_switch_provisioner_nrf52840_xxAA_s140_6.0.0.dir/__/__/__/models/config/src/composition_data.c.obj
 .debug_aranges
                0x0000000000001498      0x1b0 CMakeFiles/light_switch_provisioner_nrf52840_xxAA_s140_6.0.0.dir/__/__/__/models/config/src/config_server.c.obj
 .debug_aranges
                0x0000000000001648       0x20 CMakeFiles/light_switch_provisioner_nrf52840_xxAA_s140_6.0.0.dir/__/__/__/models/config/src/packed_index_list.c.obj
 .debug_aranges
                0x0000000000001668       0xa0 CMakeFiles/light_switch_provisioner_nrf52840_xxAA_s140_6.0.0.dir/__/__/__/models/health/src/health_server.c.obj
 .debug_aranges
                0x0000000000001708       0x80 CMakeFiles/light_switch_provisioner_nrf52840_xxAA_s140_6.0.0.dir/__/__/__/models/health/src/health_client.c.obj
 .debug_aranges
                0x0000000000001788       0x40 CMakeFiles/light_switch_provisioner_nrf52840_xxAA_s140_6.0.0.dir/__/__/__/mesh/access/src/access_publish.c.obj
 .debug_aranges
                0x00000000000017c8      0x180 CMakeFiles/light_switch_provisioner_nrf52840_xxAA_s140_6.0.0.dir/__/__/__/mesh/access/src/access.c.obj
 .debug_aranges
                0x0000000000001948       0x50 CMakeFiles/light_switch_provisioner_nrf52840_xxAA_s140_6.0.0.dir/__/__/__/mesh/access/src/access_reliable.c.obj
 .debug_aranges
                0x0000000000001998      0x250 CMakeFiles/light_switch_provisioner_nrf52840_xxAA_s140_6.0.0.dir/__/__/__/mesh/access/src/device_state_manager.c.obj
 .debug_aranges
                0x0000000000001be8       0x68 CMakeFiles/light_switch_provisioner_nrf52840_xxAA_s140_6.0.0.dir/__/__/__/mesh/prov/src/prov_provisioner.c.obj
 .debug_aranges
                0x0000000000001c50       0x80 CMakeFiles/light_switch_provisioner_nrf52840_xxAA_s140_6.0.0.dir/__/__/__/mesh/prov/src/nrf_mesh_prov.c.obj
 .debug_aranges
                0x0000000000001cd0       0x78 CMakeFiles/light_switch_provisioner_nrf52840_xxAA_s140_6.0.0.dir/__/__/__/mesh/prov/src/provisioning.c.obj
 .debug_aranges
                0x0000000000001d48       0x38 CMakeFiles/light_switch_provisioner_nrf52840_xxAA_s140_6.0.0.dir/__/__/__/mesh/prov/src/prov_beacon.c.obj
 .debug_aranges
                0x0000000000001d80       0x60 CMakeFiles/light_switch_provisioner_nrf52840_xxAA_s140_6.0.0.dir/__/__/__/mesh/prov/src/prov_utils.c.obj
 .debug_aranges
                0x0000000000001de0       0xa0 CMakeFiles/light_switch_provisioner_nrf52840_xxAA_s140_6.0.0.dir/__/__/__/mesh/prov/src/prov_bearer_adv.c.obj
 .debug_aranges
                0x0000000000001e80       0x28 CMakeFiles/light_switch_provisioner_nrf52840_xxAA_s140_6.0.0.dir/home/mazzer/work/nordic/sdk/nRF5_SDK_15.0.0/modules/nrfx/mdk/system_nrf52840.c.obj
 .debug_aranges
                0x0000000000001ea8       0x20 CMakeFiles/light_switch_provisioner_nrf52840_xxAA_s140_6.0.0.dir/home/mazzer/work/nordic/sdk/nRF5_SDK_15.0.0/modules/nrfx/mdk/gcc_startup_nrf52840.S.obj
 .debug_aranges
                0x0000000000001ec8       0x20 CMakeFiles/light_switch_provisioner_nrf52840_xxAA_s140_6.0.0.dir/home/mazzer/work/nordic/sdk/nRF5_SDK_15.0.0/components/libraries/util/app_error_handler_gcc.c.obj
 .debug_aranges
                0x0000000000001ee8       0xb0 ../../../external/rtt/librtt_nrf52840_xxAA.a(SEGGER_RTT.c.obj)
 .debug_aranges
                0x0000000000001f98       0x30 ../../../external/rtt/librtt_nrf52840_xxAA.a(SEGGER_RTT_printf.c.obj)
 .debug_aranges
                0x0000000000001fc8      0x100 ../../../external/micro-ecc/libuECC_nrf52840_xxAA.a(uECC.c.obj)

.debug_ranges   0x0000000000000000     0xe9f8
 .debug_ranges  0x0000000000000000      0x958 CMakeFiles/light_switch_provisioner_nrf52840_xxAA_s140_6.0.0.dir/src/main.c.obj
 .debug_ranges  0x0000000000000958       0x88 CMakeFiles/light_switch_provisioner_nrf52840_xxAA_s140_6.0.0.dir/__/__/__/mesh/stack/src/mesh_stack.c.obj
 .debug_ranges  0x00000000000009e0      0x4c8 CMakeFiles/light_switch_provisioner_nrf52840_xxAA_s140_6.0.0.dir/src/provisioner_helper.c.obj
 .debug_ranges  0x0000000000000ea8      0x458 CMakeFiles/light_switch_provisioner_nrf52840_xxAA_s140_6.0.0.dir/src/node_setup.c.obj
 .debug_ranges  0x0000000000001300       0xe8 CMakeFiles/light_switch_provisioner_nrf52840_xxAA_s140_6.0.0.dir/__/__/common/src/mesh_softdevice_init.c.obj
 .debug_ranges  0x00000000000013e8       0x78 CMakeFiles/light_switch_provisioner_nrf52840_xxAA_s140_6.0.0.dir/__/__/common/src/rtt_input.c.obj
 .debug_ranges  0x0000000000001460       0xc0 CMakeFiles/light_switch_provisioner_nrf52840_xxAA_s140_6.0.0.dir/__/__/common/src/simple_hal.c.obj
 .debug_ranges  0x0000000000001520       0x18 CMakeFiles/light_switch_provisioner_nrf52840_xxAA_s140_6.0.0.dir/__/__/nrf_mesh_weak.c.obj
 .debug_ranges  0x0000000000001538       0xc8 CMakeFiles/light_switch_provisioner_nrf52840_xxAA_s140_6.0.0.dir/__/__/common/src/app_error_weak.c.obj
 .debug_ranges  0x0000000000001600       0x10 CMakeFiles/light_switch_provisioner_nrf52840_xxAA_s140_6.0.0.dir/__/__/common/src/assertion_handler_weak.c.obj
 .debug_ranges  0x0000000000001610       0x20 CMakeFiles/light_switch_provisioner_nrf52840_xxAA_s140_6.0.0.dir/__/__/__/mesh/core/src/nrf_mesh_configure.c.obj
 .debug_ranges  0x0000000000001630       0x18 CMakeFiles/light_switch_provisioner_nrf52840_xxAA_s140_6.0.0.dir/__/__/__/mesh/core/src/aes.c.obj
 .debug_ranges  0x0000000000001648       0x40 CMakeFiles/light_switch_provisioner_nrf52840_xxAA_s140_6.0.0.dir/__/__/__/mesh/core/src/msg_cache.c.obj
 .debug_ranges  0x0000000000001688      0xf08 CMakeFiles/light_switch_provisioner_nrf52840_xxAA_s140_6.0.0.dir/__/__/__/mesh/core/src/transport.c.obj
 .debug_ranges  0x0000000000002590       0x20 CMakeFiles/light_switch_provisioner_nrf52840_xxAA_s140_6.0.0.dir/__/__/__/mesh/core/src/event.c.obj
 .debug_ranges  0x00000000000025b0      0x118 CMakeFiles/light_switch_provisioner_nrf52840_xxAA_s140_6.0.0.dir/__/__/__/mesh/core/src/packet_buffer.c.obj
 .debug_ranges  0x00000000000026c8      0x4c8 CMakeFiles/light_switch_provisioner_nrf52840_xxAA_s140_6.0.0.dir/__/__/__/mesh/core/src/flash_manager_defrag.c.obj
 .debug_ranges  0x0000000000002b90       0xc0 CMakeFiles/light_switch_provisioner_nrf52840_xxAA_s140_6.0.0.dir/__/__/__/mesh/core/src/fifo.c.obj
 .debug_ranges  0x0000000000002c50       0x30 CMakeFiles/light_switch_provisioner_nrf52840_xxAA_s140_6.0.0.dir/__/__/__/mesh/core/src/nrf_flash.c.obj
 .debug_ranges  0x0000000000002c80       0xe8 CMakeFiles/light_switch_provisioner_nrf52840_xxAA_s140_6.0.0.dir/__/__/__/mesh/core/src/packet_mgr.c.obj
 .debug_ranges  0x0000000000002d68      0x868 CMakeFiles/light_switch_provisioner_nrf52840_xxAA_s140_6.0.0.dir/__/__/__/mesh/core/src/net_state.c.obj
 .debug_ranges  0x00000000000035d0      0x300 CMakeFiles/light_switch_provisioner_nrf52840_xxAA_s140_6.0.0.dir/__/__/__/mesh/core/src/mesh_flash.c.obj
 .debug_ranges  0x00000000000038d0       0x20 CMakeFiles/light_switch_provisioner_nrf52840_xxAA_s140_6.0.0.dir/__/__/__/mesh/core/src/nrf_mesh_utils.c.obj
 .debug_ranges  0x00000000000038f0      0x150 CMakeFiles/light_switch_provisioner_nrf52840_xxAA_s140_6.0.0.dir/__/__/__/mesh/core/src/nrf_mesh.c.obj
 .debug_ranges  0x0000000000003a40       0x28 CMakeFiles/light_switch_provisioner_nrf52840_xxAA_s140_6.0.0.dir/__/__/__/mesh/core/src/queue.c.obj
 .debug_ranges  0x0000000000003a68       0x20 CMakeFiles/light_switch_provisioner_nrf52840_xxAA_s140_6.0.0.dir/__/__/__/mesh/core/src/hal.c.obj
 .debug_ranges  0x0000000000003a88      0x150 CMakeFiles/light_switch_provisioner_nrf52840_xxAA_s140_6.0.0.dir/__/__/__/mesh/core/src/aes_cmac.c.obj
 .debug_ranges  0x0000000000003bd8      0x288 CMakeFiles/light_switch_provisioner_nrf52840_xxAA_s140_6.0.0.dir/__/__/__/mesh/core/src/timer_scheduler.c.obj
 .debug_ranges  0x0000000000003e60      0x178 CMakeFiles/light_switch_provisioner_nrf52840_xxAA_s140_6.0.0.dir/__/__/__/mesh/core/src/timer.c.obj
 .debug_ranges  0x0000000000003fd8       0x20 CMakeFiles/light_switch_provisioner_nrf52840_xxAA_s140_6.0.0.dir/__/__/__/mesh/core/src/ticker.c.obj
 .debug_ranges  0x0000000000003ff8       0x48 CMakeFiles/light_switch_provisioner_nrf52840_xxAA_s140_6.0.0.dir/__/__/__/mesh/core/src/rand.c.obj
 .debug_ranges  0x0000000000004040       0x18 CMakeFiles/light_switch_provisioner_nrf52840_xxAA_s140_6.0.0.dir/__/__/__/mesh/core/src/nrf_mesh_opt.c.obj
 .debug_ranges  0x0000000000004058      0x250 CMakeFiles/light_switch_provisioner_nrf52840_xxAA_s140_6.0.0.dir/__/__/__/mesh/core/src/timeslot.c.obj
 .debug_ranges  0x00000000000042a8      0x288 CMakeFiles/light_switch_provisioner_nrf52840_xxAA_s140_6.0.0.dir/__/__/__/mesh/core/src/bearer_event.c.obj
 .debug_ranges  0x0000000000004530      0x1b8 CMakeFiles/light_switch_provisioner_nrf52840_xxAA_s140_6.0.0.dir/__/__/__/mesh/core/src/enc.c.obj
 .debug_ranges  0x00000000000046e8      0x1b8 CMakeFiles/light_switch_provisioner_nrf52840_xxAA_s140_6.0.0.dir/__/__/__/mesh/core/src/network.c.obj
 .debug_ranges  0x00000000000048a0      0x208 CMakeFiles/light_switch_provisioner_nrf52840_xxAA_s140_6.0.0.dir/__/__/__/mesh/core/src/net_packet.c.obj
 .debug_ranges  0x0000000000004aa8       0x78 CMakeFiles/light_switch_provisioner_nrf52840_xxAA_s140_6.0.0.dir/__/__/__/mesh/core/src/msqueue.c.obj
 .debug_ranges  0x0000000000004b20       0x30 CMakeFiles/light_switch_provisioner_nrf52840_xxAA_s140_6.0.0.dir/__/__/__/mesh/core/src/nrf_mesh_keygen.c.obj
 .debug_ranges  0x0000000000004b50       0xf0 CMakeFiles/light_switch_provisioner_nrf52840_xxAA_s140_6.0.0.dir/__/__/__/mesh/core/src/list.c.obj
 .debug_ranges  0x0000000000004c40       0x58 CMakeFiles/light_switch_provisioner_nrf52840_xxAA_s140_6.0.0.dir/__/__/__/mesh/core/src/log.c.obj
 .debug_ranges  0x0000000000004c98      0xc18 CMakeFiles/light_switch_provisioner_nrf52840_xxAA_s140_6.0.0.dir/__/__/__/mesh/core/src/flash_manager.c.obj
 .debug_ranges  0x00000000000058b0       0xf8 CMakeFiles/light_switch_provisioner_nrf52840_xxAA_s140_6.0.0.dir/__/__/__/mesh/core/src/ccm_soft.c.obj
 .debug_ranges  0x00000000000059a8       0x40 CMakeFiles/light_switch_provisioner_nrf52840_xxAA_s140_6.0.0.dir/__/__/__/mesh/core/src/replay_cache.c.obj
 .debug_ranges  0x00000000000059e8       0x90 CMakeFiles/light_switch_provisioner_nrf52840_xxAA_s140_6.0.0.dir/__/__/__/mesh/core/src/beacon.c.obj
 .debug_ranges  0x0000000000005a78       0x30 CMakeFiles/light_switch_provisioner_nrf52840_xxAA_s140_6.0.0.dir/__/__/__/mesh/core/src/flash_manager_internal.c.obj
 .debug_ranges  0x0000000000005aa8       0xc0 CMakeFiles/light_switch_provisioner_nrf52840_xxAA_s140_6.0.0.dir/__/__/__/mesh/core/src/core_tx.c.obj
 .debug_ranges  0x0000000000005b68      0x120 CMakeFiles/light_switch_provisioner_nrf52840_xxAA_s140_6.0.0.dir/__/__/__/mesh/core/src/heartbeat.c.obj
 .debug_ranges  0x0000000000005c88      0x1b8 CMakeFiles/light_switch_provisioner_nrf52840_xxAA_s140_6.0.0.dir/__/__/__/mesh/core/src/net_beacon.c.obj
 .debug_ranges  0x0000000000005e40       0x58 CMakeFiles/light_switch_provisioner_nrf52840_xxAA_s140_6.0.0.dir/__/__/__/mesh/core/src/core_tx_adv.c.obj
 .debug_ranges  0x0000000000005e98      0x118 CMakeFiles/light_switch_provisioner_nrf52840_xxAA_s140_6.0.0.dir/__/__/__/mesh/bearer/src/ad_listener.c.obj
 .debug_ranges  0x0000000000005fb0       0xc8 CMakeFiles/light_switch_provisioner_nrf52840_xxAA_s140_6.0.0.dir/__/__/__/mesh/bearer/src/ad_type_filter.c.obj
 .debug_ranges  0x0000000000006078      0x478 CMakeFiles/light_switch_provisioner_nrf52840_xxAA_s140_6.0.0.dir/__/__/__/mesh/bearer/src/advertiser.c.obj
 .debug_ranges  0x00000000000064f0      0x188 CMakeFiles/light_switch_provisioner_nrf52840_xxAA_s140_6.0.0.dir/__/__/__/mesh/bearer/src/bearer_handler.c.obj
 .debug_ranges  0x0000000000006678       0xa0 CMakeFiles/light_switch_provisioner_nrf52840_xxAA_s140_6.0.0.dir/__/__/__/mesh/bearer/src/broadcast.c.obj
 .debug_ranges  0x0000000000006718       0x28 CMakeFiles/light_switch_provisioner_nrf52840_xxAA_s140_6.0.0.dir/__/__/__/mesh/bearer/src/filter_engine.c.obj
 .debug_ranges  0x0000000000006740       0x48 CMakeFiles/light_switch_provisioner_nrf52840_xxAA_s140_6.0.0.dir/__/__/__/mesh/bearer/src/radio_config.c.obj
 .debug_ranges  0x0000000000006788      0x400 CMakeFiles/light_switch_provisioner_nrf52840_xxAA_s140_6.0.0.dir/__/__/__/mesh/bearer/src/scanner.c.obj
 .debug_ranges  0x0000000000006b88      0xd30 CMakeFiles/light_switch_provisioner_nrf52840_xxAA_s140_6.0.0.dir/__/__/__/models/config/src/config_client.c.obj
 .debug_ranges  0x00000000000078b8       0xa8 CMakeFiles/light_switch_provisioner_nrf52840_xxAA_s140_6.0.0.dir/__/__/__/models/config/src/composition_data.c.obj
 .debug_ranges  0x0000000000007960     0x15c0 CMakeFiles/light_switch_provisioner_nrf52840_xxAA_s140_6.0.0.dir/__/__/__/models/config/src/config_server.c.obj
 .debug_ranges  0x0000000000008f20       0x10 CMakeFiles/light_switch_provisioner_nrf52840_xxAA_s140_6.0.0.dir/__/__/__/models/config/src/packed_index_list.c.obj
 .debug_ranges  0x0000000000008f30      0x6c8 CMakeFiles/light_switch_provisioner_nrf52840_xxAA_s140_6.0.0.dir/__/__/__/models/health/src/health_server.c.obj
 .debug_ranges  0x00000000000095f8      0x1e0 CMakeFiles/light_switch_provisioner_nrf52840_xxAA_s140_6.0.0.dir/__/__/__/models/health/src/health_client.c.obj
 .debug_ranges  0x00000000000097d8      0x318 CMakeFiles/light_switch_provisioner_nrf52840_xxAA_s140_6.0.0.dir/__/__/__/mesh/access/src/access_publish.c.obj
 .debug_ranges  0x0000000000009af0      0xc68 CMakeFiles/light_switch_provisioner_nrf52840_xxAA_s140_6.0.0.dir/__/__/__/mesh/access/src/access.c.obj
 .debug_ranges  0x000000000000a758      0x280 CMakeFiles/light_switch_provisioner_nrf52840_xxAA_s140_6.0.0.dir/__/__/__/mesh/access/src/access_reliable.c.obj
 .debug_ranges  0x000000000000a9d8     0x1760 CMakeFiles/light_switch_provisioner_nrf52840_xxAA_s140_6.0.0.dir/__/__/__/mesh/access/src/device_state_manager.c.obj
 .debug_ranges  0x000000000000c138      0x108 CMakeFiles/light_switch_provisioner_nrf52840_xxAA_s140_6.0.0.dir/__/__/__/mesh/prov/src/prov_provisioner.c.obj
 .debug_ranges  0x000000000000c240      0x140 CMakeFiles/light_switch_provisioner_nrf52840_xxAA_s140_6.0.0.dir/__/__/__/mesh/prov/src/nrf_mesh_prov.c.obj
 .debug_ranges  0x000000000000c380      0x170 CMakeFiles/light_switch_provisioner_nrf52840_xxAA_s140_6.0.0.dir/__/__/__/mesh/prov/src/provisioning.c.obj
 .debug_ranges  0x000000000000c4f0       0x40 CMakeFiles/light_switch_provisioner_nrf52840_xxAA_s140_6.0.0.dir/__/__/__/mesh/prov/src/prov_beacon.c.obj
 .debug_ranges  0x000000000000c530       0x88 CMakeFiles/light_switch_provisioner_nrf52840_xxAA_s140_6.0.0.dir/__/__/__/mesh/prov/src/prov_utils.c.obj
 .debug_ranges  0x000000000000c5b8      0x9c8 CMakeFiles/light_switch_provisioner_nrf52840_xxAA_s140_6.0.0.dir/__/__/__/mesh/prov/src/prov_bearer_adv.c.obj
 .debug_ranges  0x000000000000cf80       0x40 CMakeFiles/light_switch_provisioner_nrf52840_xxAA_s140_6.0.0.dir/home/mazzer/work/nordic/sdk/nRF5_SDK_15.0.0/modules/nrfx/mdk/system_nrf52840.c.obj
 .debug_ranges  0x000000000000cfc0       0x10 CMakeFiles/light_switch_provisioner_nrf52840_xxAA_s140_6.0.0.dir/home/mazzer/work/nordic/sdk/nRF5_SDK_15.0.0/components/libraries/util/app_error_handler_gcc.c.obj
 .debug_ranges  0x000000000000cfd0      0x5d8 ../../../external/rtt/librtt_nrf52840_xxAA.a(SEGGER_RTT.c.obj)
 .debug_ranges  0x000000000000d5a8      0x1b8 ../../../external/rtt/librtt_nrf52840_xxAA.a(SEGGER_RTT_printf.c.obj)
 .debug_ranges  0x000000000000d760     0x1298 ../../../external/micro-ecc/libuECC_nrf52840_xxAA.a(uECC.c.obj)

.debug_line     0x0000000000000000    0x2328b
 .debug_line    0x0000000000000000     0x1313 CMakeFiles/light_switch_provisioner_nrf52840_xxAA_s140_6.0.0.dir/src/main.c.obj
 .debug_line    0x0000000000001313      0x6ac CMakeFiles/light_switch_provisioner_nrf52840_xxAA_s140_6.0.0.dir/__/__/__/mesh/stack/src/mesh_stack.c.obj
 .debug_line    0x00000000000019bf      0xede CMakeFiles/light_switch_provisioner_nrf52840_xxAA_s140_6.0.0.dir/src/provisioner_helper.c.obj
 .debug_line    0x000000000000289d      0xc9d CMakeFiles/light_switch_provisioner_nrf52840_xxAA_s140_6.0.0.dir/src/node_setup.c.obj
 .debug_line    0x000000000000353a      0x4a2 CMakeFiles/light_switch_provisioner_nrf52840_xxAA_s140_6.0.0.dir/__/__/common/src/mesh_softdevice_init.c.obj
 .debug_line    0x00000000000039dc      0x37f CMakeFiles/light_switch_provisioner_nrf52840_xxAA_s140_6.0.0.dir/__/__/common/src/rtt_input.c.obj
 .debug_line    0x0000000000003d5b      0x578 CMakeFiles/light_switch_provisioner_nrf52840_xxAA_s140_6.0.0.dir/__/__/common/src/simple_hal.c.obj
 .debug_line    0x00000000000042d3      0x252 CMakeFiles/light_switch_provisioner_nrf52840_xxAA_s140_6.0.0.dir/__/__/nrf_mesh_weak.c.obj
 .debug_line    0x0000000000004525      0x4ec CMakeFiles/light_switch_provisioner_nrf52840_xxAA_s140_6.0.0.dir/__/__/common/src/app_error_weak.c.obj
 .debug_line    0x0000000000004a11      0x275 CMakeFiles/light_switch_provisioner_nrf52840_xxAA_s140_6.0.0.dir/__/__/common/src/assertion_handler_weak.c.obj
 .debug_line    0x0000000000004c86      0x250 CMakeFiles/light_switch_provisioner_nrf52840_xxAA_s140_6.0.0.dir/__/__/__/mesh/core/src/nrf_mesh_configure.c.obj
 .debug_line    0x0000000000004ed6      0x285 CMakeFiles/light_switch_provisioner_nrf52840_xxAA_s140_6.0.0.dir/__/__/__/mesh/core/src/aes.c.obj
 .debug_line    0x000000000000515b      0x2c2 CMakeFiles/light_switch_provisioner_nrf52840_xxAA_s140_6.0.0.dir/__/__/__/mesh/core/src/msg_cache.c.obj
 .debug_line    0x000000000000541d     0x125e CMakeFiles/light_switch_provisioner_nrf52840_xxAA_s140_6.0.0.dir/__/__/__/mesh/core/src/transport.c.obj
 .debug_line    0x000000000000667b      0x3e2 CMakeFiles/light_switch_provisioner_nrf52840_xxAA_s140_6.0.0.dir/__/__/__/mesh/core/src/event.c.obj
 .debug_line    0x0000000000006a5d      0x560 CMakeFiles/light_switch_provisioner_nrf52840_xxAA_s140_6.0.0.dir/__/__/__/mesh/core/src/packet_buffer.c.obj
 .debug_line    0x0000000000006fbd      0x8c0 CMakeFiles/light_switch_provisioner_nrf52840_xxAA_s140_6.0.0.dir/__/__/__/mesh/core/src/flash_manager_defrag.c.obj
 .debug_line    0x000000000000787d      0x46b CMakeFiles/light_switch_provisioner_nrf52840_xxAA_s140_6.0.0.dir/__/__/__/mesh/core/src/fifo.c.obj
 .debug_line    0x0000000000007ce8      0x280 CMakeFiles/light_switch_provisioner_nrf52840_xxAA_s140_6.0.0.dir/__/__/__/mesh/core/src/nrf_flash.c.obj
 .debug_line    0x0000000000007f68      0x4cf CMakeFiles/light_switch_provisioner_nrf52840_xxAA_s140_6.0.0.dir/__/__/__/mesh/core/src/packet_mgr.c.obj
 .debug_line    0x0000000000008437      0xae3 CMakeFiles/light_switch_provisioner_nrf52840_xxAA_s140_6.0.0.dir/__/__/__/mesh/core/src/net_state.c.obj
 .debug_line    0x0000000000008f1a      0x67d CMakeFiles/light_switch_provisioner_nrf52840_xxAA_s140_6.0.0.dir/__/__/__/mesh/core/src/mesh_flash.c.obj
 .debug_line    0x0000000000009597      0x2fb CMakeFiles/light_switch_provisioner_nrf52840_xxAA_s140_6.0.0.dir/__/__/__/mesh/core/src/nrf_mesh_utils.c.obj
 .debug_line    0x0000000000009892      0x935 CMakeFiles/light_switch_provisioner_nrf52840_xxAA_s140_6.0.0.dir/__/__/__/mesh/core/src/nrf_mesh.c.obj
 .debug_line    0x000000000000a1c7      0x33a CMakeFiles/light_switch_provisioner_nrf52840_xxAA_s140_6.0.0.dir/__/__/__/mesh/core/src/queue.c.obj
 .debug_line    0x000000000000a501      0x24e CMakeFiles/light_switch_provisioner_nrf52840_xxAA_s140_6.0.0.dir/__/__/__/mesh/core/src/hal.c.obj
 .debug_line    0x000000000000a74f      0x468 CMakeFiles/light_switch_provisioner_nrf52840_xxAA_s140_6.0.0.dir/__/__/__/mesh/core/src/aes_cmac.c.obj
 .debug_line    0x000000000000abb7      0x506 CMakeFiles/light_switch_provisioner_nrf52840_xxAA_s140_6.0.0.dir/__/__/__/mesh/core/src/timer_scheduler.c.obj
 .debug_line    0x000000000000b0bd      0x55d CMakeFiles/light_switch_provisioner_nrf52840_xxAA_s140_6.0.0.dir/__/__/__/mesh/core/src/timer.c.obj
 .debug_line    0x000000000000b61a      0x17f CMakeFiles/light_switch_provisioner_nrf52840_xxAA_s140_6.0.0.dir/__/__/__/mesh/core/src/ticker.c.obj
 .debug_line    0x000000000000b799      0x344 CMakeFiles/light_switch_provisioner_nrf52840_xxAA_s140_6.0.0.dir/__/__/__/mesh/core/src/rand.c.obj
 .debug_line    0x000000000000badd      0x339 CMakeFiles/light_switch_provisioner_nrf52840_xxAA_s140_6.0.0.dir/__/__/__/mesh/core/src/nrf_mesh_opt.c.obj
 .debug_line    0x000000000000be16      0x714 CMakeFiles/light_switch_provisioner_nrf52840_xxAA_s140_6.0.0.dir/__/__/__/mesh/core/src/timeslot.c.obj
 .debug_line    0x000000000000c52a      0x6a1 CMakeFiles/light_switch_provisioner_nrf52840_xxAA_s140_6.0.0.dir/__/__/__/mesh/core/src/bearer_event.c.obj
 .debug_line    0x000000000000cbcb      0x524 CMakeFiles/light_switch_provisioner_nrf52840_xxAA_s140_6.0.0.dir/__/__/__/mesh/core/src/enc.c.obj
 .debug_line    0x000000000000d0ef      0x633 CMakeFiles/light_switch_provisioner_nrf52840_xxAA_s140_6.0.0.dir/__/__/__/mesh/core/src/network.c.obj
 .debug_line    0x000000000000d722      0x625 CMakeFiles/light_switch_provisioner_nrf52840_xxAA_s140_6.0.0.dir/__/__/__/mesh/core/src/net_packet.c.obj
 .debug_line    0x000000000000dd47      0x38d CMakeFiles/light_switch_provisioner_nrf52840_xxAA_s140_6.0.0.dir/__/__/__/mesh/core/src/msqueue.c.obj
 .debug_line    0x000000000000e0d4      0x2f5 CMakeFiles/light_switch_provisioner_nrf52840_xxAA_s140_6.0.0.dir/__/__/__/mesh/core/src/nrf_mesh_keygen.c.obj
 .debug_line    0x000000000000e3c9      0x3e9 CMakeFiles/light_switch_provisioner_nrf52840_xxAA_s140_6.0.0.dir/__/__/__/mesh/core/src/list.c.obj
 .debug_line    0x000000000000e7b2      0x334 CMakeFiles/light_switch_provisioner_nrf52840_xxAA_s140_6.0.0.dir/__/__/__/mesh/core/src/log.c.obj
 .debug_line    0x000000000000eae6      0xc3d CMakeFiles/light_switch_provisioner_nrf52840_xxAA_s140_6.0.0.dir/__/__/__/mesh/core/src/flash_manager.c.obj
 .debug_line    0x000000000000f723      0x4ac CMakeFiles/light_switch_provisioner_nrf52840_xxAA_s140_6.0.0.dir/__/__/__/mesh/core/src/ccm_soft.c.obj
 .debug_line    0x000000000000fbcf      0x1da CMakeFiles/light_switch_provisioner_nrf52840_xxAA_s140_6.0.0.dir/__/__/__/mesh/core/src/replay_cache.c.obj
 .debug_line    0x000000000000fda9      0x5cb CMakeFiles/light_switch_provisioner_nrf52840_xxAA_s140_6.0.0.dir/__/__/__/mesh/core/src/beacon.c.obj
 .debug_line    0x0000000000010374      0x31e CMakeFiles/light_switch_provisioner_nrf52840_xxAA_s140_6.0.0.dir/__/__/__/mesh/core/src/flash_manager_internal.c.obj
 .debug_line    0x0000000000010692      0x431 CMakeFiles/light_switch_provisioner_nrf52840_xxAA_s140_6.0.0.dir/__/__/__/mesh/core/src/core_tx.c.obj
 .debug_line    0x0000000000010ac3      0x6bb CMakeFiles/light_switch_provisioner_nrf52840_xxAA_s140_6.0.0.dir/__/__/__/mesh/core/src/heartbeat.c.obj
 .debug_line    0x000000000001117e      0x75c CMakeFiles/light_switch_provisioner_nrf52840_xxAA_s140_6.0.0.dir/__/__/__/mesh/core/src/net_beacon.c.obj
 .debug_line    0x00000000000118da      0x5cf CMakeFiles/light_switch_provisioner_nrf52840_xxAA_s140_6.0.0.dir/__/__/__/mesh/core/src/core_tx_adv.c.obj
 .debug_line    0x0000000000011ea9      0x43e CMakeFiles/light_switch_provisioner_nrf52840_xxAA_s140_6.0.0.dir/__/__/__/mesh/bearer/src/ad_listener.c.obj
 .debug_line    0x00000000000122e7      0x512 CMakeFiles/light_switch_provisioner_nrf52840_xxAA_s140_6.0.0.dir/__/__/__/mesh/bearer/src/ad_type_filter.c.obj
 .debug_line    0x00000000000127f9      0x8d3 CMakeFiles/light_switch_provisioner_nrf52840_xxAA_s140_6.0.0.dir/__/__/__/mesh/bearer/src/advertiser.c.obj
 .debug_line    0x00000000000130cc      0x61d CMakeFiles/light_switch_provisioner_nrf52840_xxAA_s140_6.0.0.dir/__/__/__/mesh/bearer/src/bearer_handler.c.obj
 .debug_line    0x00000000000136e9      0x435 CMakeFiles/light_switch_provisioner_nrf52840_xxAA_s140_6.0.0.dir/__/__/__/mesh/bearer/src/broadcast.c.obj
 .debug_line    0x0000000000013b1e      0x453 CMakeFiles/light_switch_provisioner_nrf52840_xxAA_s140_6.0.0.dir/__/__/__/mesh/bearer/src/filter_engine.c.obj
 .debug_line    0x0000000000013f71      0x34c CMakeFiles/light_switch_provisioner_nrf52840_xxAA_s140_6.0.0.dir/__/__/__/mesh/bearer/src/radio_config.c.obj
 .debug_line    0x00000000000142bd      0x8f5 CMakeFiles/light_switch_provisioner_nrf52840_xxAA_s140_6.0.0.dir/__/__/__/mesh/bearer/src/scanner.c.obj
 .debug_line    0x0000000000014bb2     0x1606 CMakeFiles/light_switch_provisioner_nrf52840_xxAA_s140_6.0.0.dir/__/__/__/models/config/src/config_client.c.obj
 .debug_line    0x00000000000161b8      0x3d5 CMakeFiles/light_switch_provisioner_nrf52840_xxAA_s140_6.0.0.dir/__/__/__/models/config/src/composition_data.c.obj
 .debug_line    0x000000000001658d     0x2172 CMakeFiles/light_switch_provisioner_nrf52840_xxAA_s140_6.0.0.dir/__/__/__/models/config/src/config_server.c.obj
 .debug_line    0x00000000000186ff      0x10a CMakeFiles/light_switch_provisioner_nrf52840_xxAA_s140_6.0.0.dir/__/__/__/models/config/src/packed_index_list.c.obj
 .debug_line    0x0000000000018809      0xb59 CMakeFiles/light_switch_provisioner_nrf52840_xxAA_s140_6.0.0.dir/__/__/__/models/health/src/health_server.c.obj
 .debug_line    0x0000000000019362      0x754 CMakeFiles/light_switch_provisioner_nrf52840_xxAA_s140_6.0.0.dir/__/__/__/models/health/src/health_client.c.obj
 .debug_line    0x0000000000019ab6      0x5cb CMakeFiles/light_switch_provisioner_nrf52840_xxAA_s140_6.0.0.dir/__/__/__/mesh/access/src/access_publish.c.obj
 .debug_line    0x000000000001a081     0x13ac CMakeFiles/light_switch_provisioner_nrf52840_xxAA_s140_6.0.0.dir/__/__/__/mesh/access/src/access.c.obj
 .debug_line    0x000000000001b42d      0x6f1 CMakeFiles/light_switch_provisioner_nrf52840_xxAA_s140_6.0.0.dir/__/__/__/mesh/access/src/access_reliable.c.obj
 .debug_line    0x000000000001bb1e     0x1f10 CMakeFiles/light_switch_provisioner_nrf52840_xxAA_s140_6.0.0.dir/__/__/__/mesh/access/src/device_state_manager.c.obj
 .debug_line    0x000000000001da2e      0x74c CMakeFiles/light_switch_provisioner_nrf52840_xxAA_s140_6.0.0.dir/__/__/__/mesh/prov/src/prov_provisioner.c.obj
 .debug_line    0x000000000001e17a      0x68a CMakeFiles/light_switch_provisioner_nrf52840_xxAA_s140_6.0.0.dir/__/__/__/mesh/prov/src/nrf_mesh_prov.c.obj
 .debug_line    0x000000000001e804      0x517 CMakeFiles/light_switch_provisioner_nrf52840_xxAA_s140_6.0.0.dir/__/__/__/mesh/prov/src/provisioning.c.obj
 .debug_line    0x000000000001ed1b      0x5c7 CMakeFiles/light_switch_provisioner_nrf52840_xxAA_s140_6.0.0.dir/__/__/__/mesh/prov/src/prov_beacon.c.obj
 .debug_line    0x000000000001f2e2      0x597 CMakeFiles/light_switch_provisioner_nrf52840_xxAA_s140_6.0.0.dir/__/__/__/mesh/prov/src/prov_utils.c.obj
 .debug_line    0x000000000001f879      0xf1f CMakeFiles/light_switch_provisioner_nrf52840_xxAA_s140_6.0.0.dir/__/__/__/mesh/prov/src/prov_bearer_adv.c.obj
 .debug_line    0x0000000000020798      0x22d CMakeFiles/light_switch_provisioner_nrf52840_xxAA_s140_6.0.0.dir/home/mazzer/work/nordic/sdk/nRF5_SDK_15.0.0/modules/nrfx/mdk/system_nrf52840.c.obj
 .debug_line    0x00000000000209c5       0xa4 CMakeFiles/light_switch_provisioner_nrf52840_xxAA_s140_6.0.0.dir/home/mazzer/work/nordic/sdk/nRF5_SDK_15.0.0/modules/nrfx/mdk/gcc_startup_nrf52840.S.obj
 .debug_line    0x0000000000020a69      0x217 CMakeFiles/light_switch_provisioner_nrf52840_xxAA_s140_6.0.0.dir/home/mazzer/work/nordic/sdk/nRF5_SDK_15.0.0/components/libraries/util/app_error_handler_gcc.c.obj
 .debug_line    0x0000000000020c80      0xaaf ../../../external/rtt/librtt_nrf52840_xxAA.a(SEGGER_RTT.c.obj)
 .debug_line    0x000000000002172f      0x401 ../../../external/rtt/librtt_nrf52840_xxAA.a(SEGGER_RTT_printf.c.obj)
 .debug_line    0x0000000000021b30     0x175b ../../../external/micro-ecc/libuECC_nrf52840_xxAA.a(uECC.c.obj)

.debug_str      0x0000000000000000    0x1575f
 .debug_str     0x0000000000000000     0x4739 CMakeFiles/light_switch_provisioner_nrf52840_xxAA_s140_6.0.0.dir/src/main.c.obj
                                       0x4db3 (size before relaxing)
 .debug_str     0x0000000000004739      0x2a4 CMakeFiles/light_switch_provisioner_nrf52840_xxAA_s140_6.0.0.dir/__/__/__/mesh/stack/src/mesh_stack.c.obj
                                       0x27a3 (size before relaxing)
 .debug_str     0x00000000000049dd     0x1a20 CMakeFiles/light_switch_provisioner_nrf52840_xxAA_s140_6.0.0.dir/src/provisioner_helper.c.obj
                                       0x2e3d (size before relaxing)
 .debug_str     0x00000000000063fd      0x97a CMakeFiles/light_switch_provisioner_nrf52840_xxAA_s140_6.0.0.dir/src/node_setup.c.obj
                                       0x25a9 (size before relaxing)
 .debug_str     0x0000000000006d77      0x34e CMakeFiles/light_switch_provisioner_nrf52840_xxAA_s140_6.0.0.dir/__/__/common/src/mesh_softdevice_init.c.obj
                                       0x12c7 (size before relaxing)
 .debug_str     0x00000000000070c5      0x1c4 CMakeFiles/light_switch_provisioner_nrf52840_xxAA_s140_6.0.0.dir/__/__/common/src/rtt_input.c.obj
                                        0xc23 (size before relaxing)
 .debug_str     0x0000000000007289      0x21c CMakeFiles/light_switch_provisioner_nrf52840_xxAA_s140_6.0.0.dir/__/__/common/src/simple_hal.c.obj
                                        0xda5 (size before relaxing)
 .debug_str     0x00000000000074a5       0x73 CMakeFiles/light_switch_provisioner_nrf52840_xxAA_s140_6.0.0.dir/__/__/nrf_mesh_weak.c.obj
                                        0x691 (size before relaxing)
 .debug_str     0x0000000000007518       0xd7 CMakeFiles/light_switch_provisioner_nrf52840_xxAA_s140_6.0.0.dir/__/__/common/src/app_error_weak.c.obj
                                        0x8d2 (size before relaxing)
 .debug_str     0x00000000000075ef       0x73 CMakeFiles/light_switch_provisioner_nrf52840_xxAA_s140_6.0.0.dir/__/__/common/src/assertion_handler_weak.c.obj
                                        0x6e7 (size before relaxing)
 .debug_str     0x0000000000007662      0x1f5 CMakeFiles/light_switch_provisioner_nrf52840_xxAA_s140_6.0.0.dir/__/__/__/mesh/core/src/nrf_mesh_configure.c.obj
                                        0x862 (size before relaxing)
 .debug_str     0x0000000000007857       0xf8 CMakeFiles/light_switch_provisioner_nrf52840_xxAA_s140_6.0.0.dir/__/__/__/mesh/core/src/aes.c.obj
                                        0xb8f (size before relaxing)
 .debug_str     0x000000000000794f       0xf2 CMakeFiles/light_switch_provisioner_nrf52840_xxAA_s140_6.0.0.dir/__/__/__/mesh/core/src/msg_cache.c.obj
                                        0x72e (size before relaxing)
 .debug_str     0x0000000000007a41     0x1673 CMakeFiles/light_switch_provisioner_nrf52840_xxAA_s140_6.0.0.dir/__/__/__/mesh/core/src/transport.c.obj
                                       0x318c (size before relaxing)
 .debug_str     0x00000000000090b4       0xb9 CMakeFiles/light_switch_provisioner_nrf52840_xxAA_s140_6.0.0.dir/__/__/__/mesh/core/src/event.c.obj
                                       0x1728 (size before relaxing)
 .debug_str     0x000000000000916d      0x344 CMakeFiles/light_switch_provisioner_nrf52840_xxAA_s140_6.0.0.dir/__/__/__/mesh/core/src/packet_buffer.c.obj
                                        0xb90 (size before relaxing)
 .debug_str     0x00000000000094b1      0x695 CMakeFiles/light_switch_provisioner_nrf52840_xxAA_s140_6.0.0.dir/__/__/__/mesh/core/src/flash_manager_defrag.c.obj
                                       0x1202 (size before relaxing)
 .debug_str     0x0000000000009b46       0xdc CMakeFiles/light_switch_provisioner_nrf52840_xxAA_s140_6.0.0.dir/__/__/__/mesh/core/src/fifo.c.obj
                                        0x750 (size before relaxing)
 .debug_str     0x0000000000009c22      0x110 CMakeFiles/light_switch_provisioner_nrf52840_xxAA_s140_6.0.0.dir/__/__/__/mesh/core/src/nrf_flash.c.obj
                                        0x769 (size before relaxing)
 .debug_str     0x0000000000009d32      0x2be CMakeFiles/light_switch_provisioner_nrf52840_xxAA_s140_6.0.0.dir/__/__/__/mesh/core/src/packet_mgr.c.obj
                                        0xa1a (size before relaxing)
 .debug_str     0x0000000000009ff0      0x49c CMakeFiles/light_switch_provisioner_nrf52840_xxAA_s140_6.0.0.dir/__/__/__/mesh/core/src/net_state.c.obj
                                       0x21ce (size before relaxing)
 .debug_str     0x000000000000a48c      0x3be CMakeFiles/light_switch_provisioner_nrf52840_xxAA_s140_6.0.0.dir/__/__/__/mesh/core/src/mesh_flash.c.obj
                                        0xd51 (size before relaxing)
 .debug_str     0x000000000000a84a       0xc2 CMakeFiles/light_switch_provisioner_nrf52840_xxAA_s140_6.0.0.dir/__/__/__/mesh/core/src/nrf_mesh_utils.c.obj
                                        0x7c6 (size before relaxing)
 .debug_str     0x000000000000a90c      0x633 CMakeFiles/light_switch_provisioner_nrf52840_xxAA_s140_6.0.0.dir/__/__/__/mesh/core/src/nrf_mesh.c.obj
                                       0x21ac (size before relaxing)
 .debug_str     0x000000000000af3f       0x92 CMakeFiles/light_switch_provisioner_nrf52840_xxAA_s140_6.0.0.dir/__/__/__/mesh/core/src/queue.c.obj
                                        0x6f8 (size before relaxing)
 .debug_str     0x000000000000afd1       0xbd CMakeFiles/light_switch_provisioner_nrf52840_xxAA_s140_6.0.0.dir/__/__/__/mesh/core/src/hal.c.obj
                                        0x820 (size before relaxing)
 .debug_str     0x000000000000b08e      0x101 CMakeFiles/light_switch_provisioner_nrf52840_xxAA_s140_6.0.0.dir/__/__/__/mesh/core/src/aes_cmac.c.obj
                                        0x78a (size before relaxing)
 .debug_str     0x000000000000b18f      0x17d CMakeFiles/light_switch_provisioner_nrf52840_xxAA_s140_6.0.0.dir/__/__/__/mesh/core/src/timer_scheduler.c.obj
                                        0x9a9 (size before relaxing)
 .debug_str     0x000000000000b30c      0x212 CMakeFiles/light_switch_provisioner_nrf52840_xxAA_s140_6.0.0.dir/__/__/__/mesh/core/src/timer.c.obj
                                        0x923 (size before relaxing)
 .debug_str     0x000000000000b51e       0x79 CMakeFiles/light_switch_provisioner_nrf52840_xxAA_s140_6.0.0.dir/__/__/__/mesh/core/src/ticker.c.obj
                                        0x3ca (size before relaxing)
 .debug_str     0x000000000000b597       0xe3 CMakeFiles/light_switch_provisioner_nrf52840_xxAA_s140_6.0.0.dir/__/__/__/mesh/core/src/rand.c.obj
                                        0x7e3 (size before relaxing)
 .debug_str     0x000000000000b67a       0xbf CMakeFiles/light_switch_provisioner_nrf52840_xxAA_s140_6.0.0.dir/__/__/__/mesh/core/src/nrf_mesh_opt.c.obj
                                        0x965 (size before relaxing)
 .debug_str     0x000000000000b739      0x939 CMakeFiles/light_switch_provisioner_nrf52840_xxAA_s140_6.0.0.dir/__/__/__/mesh/core/src/timeslot.c.obj
                                       0x1994 (size before relaxing)
 .debug_str     0x000000000000c072      0x2fd CMakeFiles/light_switch_provisioner_nrf52840_xxAA_s140_6.0.0.dir/__/__/__/mesh/core/src/bearer_event.c.obj
                                        0xf73 (size before relaxing)
 .debug_str     0x000000000000c36f      0x1a5 CMakeFiles/light_switch_provisioner_nrf52840_xxAA_s140_6.0.0.dir/__/__/__/mesh/core/src/enc.c.obj
                                        0xa5d (size before relaxing)
 .debug_str     0x000000000000c514      0x330 CMakeFiles/light_switch_provisioner_nrf52840_xxAA_s140_6.0.0.dir/__/__/__/mesh/core/src/network.c.obj
                                       0x135d (size before relaxing)
 .debug_str     0x000000000000c844      0x346 CMakeFiles/light_switch_provisioner_nrf52840_xxAA_s140_6.0.0.dir/__/__/__/mesh/core/src/net_packet.c.obj
                                        0xefb (size before relaxing)
 .debug_str     0x000000000000cb8a       0x8a CMakeFiles/light_switch_provisioner_nrf52840_xxAA_s140_6.0.0.dir/__/__/__/mesh/core/src/msqueue.c.obj
                                        0x734 (size before relaxing)
 .debug_str     0x000000000000cc14       0xf6 CMakeFiles/light_switch_provisioner_nrf52840_xxAA_s140_6.0.0.dir/__/__/__/mesh/core/src/nrf_mesh_keygen.c.obj
                                        0x40c (size before relaxing)
 .debug_str     0x000000000000cd0a       0xb4 CMakeFiles/light_switch_provisioner_nrf52840_xxAA_s140_6.0.0.dir/__/__/__/mesh/core/src/list.c.obj
                                        0x333 (size before relaxing)
 .debug_str     0x000000000000cdbe      0x12e CMakeFiles/light_switch_provisioner_nrf52840_xxAA_s140_6.0.0.dir/__/__/__/mesh/core/src/log.c.obj
                                        0x845 (size before relaxing)
 .debug_str     0x000000000000ceec      0x51e CMakeFiles/light_switch_provisioner_nrf52840_xxAA_s140_6.0.0.dir/__/__/__/mesh/core/src/flash_manager.c.obj
                                       0x15ed (size before relaxing)
 .debug_str     0x000000000000d40a       0xbc CMakeFiles/light_switch_provisioner_nrf52840_xxAA_s140_6.0.0.dir/__/__/__/mesh/core/src/ccm_soft.c.obj
                                        0x7d2 (size before relaxing)
 .debug_str     0x000000000000d4c6       0xc9 CMakeFiles/light_switch_provisioner_nrf52840_xxAA_s140_6.0.0.dir/__/__/__/mesh/core/src/replay_cache.c.obj
                                        0x702 (size before relaxing)
 .debug_str     0x000000000000d58f      0x10b CMakeFiles/light_switch_provisioner_nrf52840_xxAA_s140_6.0.0.dir/__/__/__/mesh/core/src/beacon.c.obj
                                       0x1178 (size before relaxing)
 .debug_str     0x000000000000d69a       0x6f CMakeFiles/light_switch_provisioner_nrf52840_xxAA_s140_6.0.0.dir/__/__/__/mesh/core/src/flash_manager_internal.c.obj
                                        0x819 (size before relaxing)
 .debug_str     0x000000000000d709      0x2fe CMakeFiles/light_switch_provisioner_nrf52840_xxAA_s140_6.0.0.dir/__/__/__/mesh/core/src/core_tx.c.obj
                                        0xc64 (size before relaxing)
 .debug_str     0x000000000000da07      0x44f CMakeFiles/light_switch_provisioner_nrf52840_xxAA_s140_6.0.0.dir/__/__/__/mesh/core/src/heartbeat.c.obj
                                       0x22b5 (size before relaxing)
 .debug_str     0x000000000000de56      0x293 CMakeFiles/light_switch_provisioner_nrf52840_xxAA_s140_6.0.0.dir/__/__/__/mesh/core/src/net_beacon.c.obj
                                       0x2115 (size before relaxing)
 .debug_str     0x000000000000e0e9      0x13e CMakeFiles/light_switch_provisioner_nrf52840_xxAA_s140_6.0.0.dir/__/__/__/mesh/core/src/core_tx_adv.c.obj
                                       0x134e (size before relaxing)
 .debug_str     0x000000000000e227      0x1bd CMakeFiles/light_switch_provisioner_nrf52840_xxAA_s140_6.0.0.dir/__/__/__/mesh/bearer/src/ad_listener.c.obj
                                        0xc57 (size before relaxing)
 .debug_str     0x000000000000e3e4      0x199 CMakeFiles/light_switch_provisioner_nrf52840_xxAA_s140_6.0.0.dir/__/__/__/mesh/bearer/src/ad_type_filter.c.obj
                                        0xa14 (size before relaxing)
 .debug_str     0x000000000000e57d      0x358 CMakeFiles/light_switch_provisioner_nrf52840_xxAA_s140_6.0.0.dir/__/__/__/mesh/bearer/src/advertiser.c.obj
                                       0x15d6 (size before relaxing)
 .debug_str     0x000000000000e8d5      0x493 CMakeFiles/light_switch_provisioner_nrf52840_xxAA_s140_6.0.0.dir/__/__/__/mesh/bearer/src/bearer_handler.c.obj
                                       0x1165 (size before relaxing)
 .debug_str     0x000000000000ed68      0x1e3 CMakeFiles/light_switch_provisioner_nrf52840_xxAA_s140_6.0.0.dir/__/__/__/mesh/bearer/src/broadcast.c.obj
                                       0x10d7 (size before relaxing)
 .debug_str     0x000000000000ef4b       0xa9 CMakeFiles/light_switch_provisioner_nrf52840_xxAA_s140_6.0.0.dir/__/__/__/mesh/bearer/src/filter_engine.c.obj
                                        0x881 (size before relaxing)
 .debug_str     0x000000000000eff4       0xb0 CMakeFiles/light_switch_provisioner_nrf52840_xxAA_s140_6.0.0.dir/__/__/__/mesh/bearer/src/radio_config.c.obj
                                        0x925 (size before relaxing)
 .debug_str     0x000000000000f0a4      0x494 CMakeFiles/light_switch_provisioner_nrf52840_xxAA_s140_6.0.0.dir/__/__/__/mesh/bearer/src/scanner.c.obj
                                       0x1aae (size before relaxing)
 .debug_str     0x000000000000f538      0xd4a CMakeFiles/light_switch_provisioner_nrf52840_xxAA_s140_6.0.0.dir/__/__/__/models/config/src/config_client.c.obj
                                       0x2c63 (size before relaxing)
 .debug_str     0x0000000000010282      0x262 CMakeFiles/light_switch_provisioner_nrf52840_xxAA_s140_6.0.0.dir/__/__/__/models/config/src/composition_data.c.obj
                                        0x952 (size before relaxing)
 .debug_str     0x00000000000104e4     0x1157 CMakeFiles/light_switch_provisioner_nrf52840_xxAA_s140_6.0.0.dir/__/__/__/models/config/src/config_server.c.obj
                                       0x507a (size before relaxing)
 .debug_str     0x000000000001163b       0xa0 CMakeFiles/light_switch_provisioner_nrf52840_xxAA_s140_6.0.0.dir/__/__/__/models/config/src/packed_index_list.c.obj
                                        0x2cb (size before relaxing)
 .debug_str     0x00000000000116db      0x63e CMakeFiles/light_switch_provisioner_nrf52840_xxAA_s140_6.0.0.dir/__/__/__/models/health/src/health_server.c.obj
                                       0x1714 (size before relaxing)
 .debug_str     0x0000000000011d19      0x1ca CMakeFiles/light_switch_provisioner_nrf52840_xxAA_s140_6.0.0.dir/__/__/__/models/health/src/health_client.c.obj
                                       0x14ae (size before relaxing)
 .debug_str     0x0000000000011ee3      0x29b CMakeFiles/light_switch_provisioner_nrf52840_xxAA_s140_6.0.0.dir/__/__/__/mesh/access/src/access_publish.c.obj
                                        0xc41 (size before relaxing)
 .debug_str     0x000000000001217e      0x7bc CMakeFiles/light_switch_provisioner_nrf52840_xxAA_s140_6.0.0.dir/__/__/__/mesh/access/src/access.c.obj
                                       0x2feb (size before relaxing)
 .debug_str     0x000000000001293a      0x166 CMakeFiles/light_switch_provisioner_nrf52840_xxAA_s140_6.0.0.dir/__/__/__/mesh/access/src/access_reliable.c.obj
                                       0x107b (size before relaxing)
 .debug_str     0x0000000000012aa0      0xcfc CMakeFiles/light_switch_provisioner_nrf52840_xxAA_s140_6.0.0.dir/__/__/__/mesh/access/src/device_state_manager.c.obj
                                       0x30ee (size before relaxing)
 .debug_str     0x000000000001379c      0x538 CMakeFiles/light_switch_provisioner_nrf52840_xxAA_s140_6.0.0.dir/__/__/__/mesh/prov/src/prov_provisioner.c.obj
                                       0x1fe9 (size before relaxing)
 .debug_str     0x0000000000013cd4      0x238 CMakeFiles/light_switch_provisioner_nrf52840_xxAA_s140_6.0.0.dir/__/__/__/mesh/prov/src/nrf_mesh_prov.c.obj
                                       0x1e4f (size before relaxing)
 .debug_str     0x0000000000013f0c      0x13c CMakeFiles/light_switch_provisioner_nrf52840_xxAA_s140_6.0.0.dir/__/__/__/mesh/prov/src/provisioning.c.obj
                                        0xfa0 (size before relaxing)
 .debug_str     0x0000000000014048       0xe8 CMakeFiles/light_switch_provisioner_nrf52840_xxAA_s140_6.0.0.dir/__/__/__/mesh/prov/src/prov_beacon.c.obj
                                       0x19d1 (size before relaxing)
 .debug_str     0x0000000000014130      0x1dc CMakeFiles/light_switch_provisioner_nrf52840_xxAA_s140_6.0.0.dir/__/__/__/mesh/prov/src/prov_utils.c.obj
                                       0x1f9e (size before relaxing)
 .debug_str     0x000000000001430c      0x44e CMakeFiles/light_switch_provisioner_nrf52840_xxAA_s140_6.0.0.dir/__/__/__/mesh/prov/src/prov_bearer_adv.c.obj
                                       0x1c35 (size before relaxing)
 .debug_str     0x000000000001475a      0x3cb CMakeFiles/light_switch_provisioner_nrf52840_xxAA_s140_6.0.0.dir/home/mazzer/work/nordic/sdk/nRF5_SDK_15.0.0/modules/nrfx/mdk/system_nrf52840.c.obj
                                        0x976 (size before relaxing)
 .debug_str     0x0000000000014b25       0x64 CMakeFiles/light_switch_provisioner_nrf52840_xxAA_s140_6.0.0.dir/home/mazzer/work/nordic/sdk/nRF5_SDK_15.0.0/modules/nrfx/mdk/gcc_startup_nrf52840.S.obj
                                         0xc2 (size before relaxing)
 .debug_str     0x0000000000014b89       0x6a CMakeFiles/light_switch_provisioner_nrf52840_xxAA_s140_6.0.0.dir/home/mazzer/work/nordic/sdk/nRF5_SDK_15.0.0/components/libraries/util/app_error_handler_gcc.c.obj
                                        0x6d7 (size before relaxing)
 .debug_str     0x0000000000014bf3      0x33f ../../../external/rtt/librtt_nrf52840_xxAA.a(SEGGER_RTT.c.obj)
                                        0x982 (size before relaxing)
 .debug_str     0x0000000000014f32      0x116 ../../../external/rtt/librtt_nrf52840_xxAA.a(SEGGER_RTT_printf.c.obj)
                                        0x7f2 (size before relaxing)
 .debug_str     0x0000000000015048      0x717 ../../../external/micro-ecc/libuECC_nrf52840_xxAA.a(uECC.c.obj)
                                        0x8df (size before relaxing)

.debug_frame    0x0000000000000000     0x78f8
 .debug_frame   0x0000000000000000      0x330 CMakeFiles/light_switch_provisioner_nrf52840_xxAA_s140_6.0.0.dir/src/main.c.obj
 .debug_frame   0x0000000000000330       0xdc CMakeFiles/light_switch_provisioner_nrf52840_xxAA_s140_6.0.0.dir/__/__/__/mesh/stack/src/mesh_stack.c.obj
 .debug_frame   0x000000000000040c      0x110 CMakeFiles/light_switch_provisioner_nrf52840_xxAA_s140_6.0.0.dir/src/provisioner_helper.c.obj
 .debug_frame   0x000000000000051c      0x150 CMakeFiles/light_switch_provisioner_nrf52840_xxAA_s140_6.0.0.dir/src/node_setup.c.obj
 .debug_frame   0x000000000000066c       0x88 CMakeFiles/light_switch_provisioner_nrf52840_xxAA_s140_6.0.0.dir/__/__/common/src/mesh_softdevice_init.c.obj
 .debug_frame   0x00000000000006f4       0x60 CMakeFiles/light_switch_provisioner_nrf52840_xxAA_s140_6.0.0.dir/__/__/common/src/rtt_input.c.obj
 .debug_frame   0x0000000000000754       0xbc CMakeFiles/light_switch_provisioner_nrf52840_xxAA_s140_6.0.0.dir/__/__/common/src/simple_hal.c.obj
 .debug_frame   0x0000000000000810       0x30 CMakeFiles/light_switch_provisioner_nrf52840_xxAA_s140_6.0.0.dir/__/__/nrf_mesh_weak.c.obj
 .debug_frame   0x0000000000000840       0x34 CMakeFiles/light_switch_provisioner_nrf52840_xxAA_s140_6.0.0.dir/__/__/common/src/app_error_weak.c.obj
 .debug_frame   0x0000000000000874       0x2c CMakeFiles/light_switch_provisioner_nrf52840_xxAA_s140_6.0.0.dir/__/__/common/src/assertion_handler_weak.c.obj
 .debug_frame   0x00000000000008a0       0x4c CMakeFiles/light_switch_provisioner_nrf52840_xxAA_s140_6.0.0.dir/__/__/__/mesh/core/src/nrf_mesh_configure.c.obj
 .debug_frame   0x00000000000008ec       0x40 CMakeFiles/light_switch_provisioner_nrf52840_xxAA_s140_6.0.0.dir/__/__/__/mesh/core/src/aes.c.obj
 .debug_frame   0x000000000000092c       0x7c CMakeFiles/light_switch_provisioner_nrf52840_xxAA_s140_6.0.0.dir/__/__/__/mesh/core/src/msg_cache.c.obj
 .debug_frame   0x00000000000009a8      0x3fc CMakeFiles/light_switch_provisioner_nrf52840_xxAA_s140_6.0.0.dir/__/__/__/mesh/core/src/transport.c.obj
 .debug_frame   0x0000000000000da4       0x74 CMakeFiles/light_switch_provisioner_nrf52840_xxAA_s140_6.0.0.dir/__/__/__/mesh/core/src/event.c.obj
 .debug_frame   0x0000000000000e18      0x10c CMakeFiles/light_switch_provisioner_nrf52840_xxAA_s140_6.0.0.dir/__/__/__/mesh/core/src/packet_buffer.c.obj
 .debug_frame   0x0000000000000f24      0x268 CMakeFiles/light_switch_provisioner_nrf52840_xxAA_s140_6.0.0.dir/__/__/__/mesh/core/src/flash_manager_defrag.c.obj
 .debug_frame   0x000000000000118c       0xd8 CMakeFiles/light_switch_provisioner_nrf52840_xxAA_s140_6.0.0.dir/__/__/__/mesh/core/src/fifo.c.obj
 .debug_frame   0x0000000000001264       0x3c CMakeFiles/light_switch_provisioner_nrf52840_xxAA_s140_6.0.0.dir/__/__/__/mesh/core/src/nrf_flash.c.obj
 .debug_frame   0x00000000000012a0       0xac CMakeFiles/light_switch_provisioner_nrf52840_xxAA_s140_6.0.0.dir/__/__/__/mesh/core/src/packet_mgr.c.obj
 .debug_frame   0x000000000000134c      0x31c CMakeFiles/light_switch_provisioner_nrf52840_xxAA_s140_6.0.0.dir/__/__/__/mesh/core/src/net_state.c.obj
 .debug_frame   0x0000000000001668      0x130 CMakeFiles/light_switch_provisioner_nrf52840_xxAA_s140_6.0.0.dir/__/__/__/mesh/core/src/mesh_flash.c.obj
 .debug_frame   0x0000000000001798       0x60 CMakeFiles/light_switch_provisioner_nrf52840_xxAA_s140_6.0.0.dir/__/__/__/mesh/core/src/nrf_mesh_utils.c.obj
 .debug_frame   0x00000000000017f8      0x200 CMakeFiles/light_switch_provisioner_nrf52840_xxAA_s140_6.0.0.dir/__/__/__/mesh/core/src/nrf_mesh.c.obj
 .debug_frame   0x00000000000019f8       0x74 CMakeFiles/light_switch_provisioner_nrf52840_xxAA_s140_6.0.0.dir/__/__/__/mesh/core/src/queue.c.obj
 .debug_frame   0x0000000000001a6c       0x48 CMakeFiles/light_switch_provisioner_nrf52840_xxAA_s140_6.0.0.dir/__/__/__/mesh/core/src/hal.c.obj
 .debug_frame   0x0000000000001ab4       0x60 CMakeFiles/light_switch_provisioner_nrf52840_xxAA_s140_6.0.0.dir/__/__/__/mesh/core/src/aes_cmac.c.obj
 .debug_frame   0x0000000000001b14       0xe4 CMakeFiles/light_switch_provisioner_nrf52840_xxAA_s140_6.0.0.dir/__/__/__/mesh/core/src/timer_scheduler.c.obj
 .debug_frame   0x0000000000001bf8      0x158 CMakeFiles/light_switch_provisioner_nrf52840_xxAA_s140_6.0.0.dir/__/__/__/mesh/core/src/timer.c.obj
 .debug_frame   0x0000000000001d50       0x4c CMakeFiles/light_switch_provisioner_nrf52840_xxAA_s140_6.0.0.dir/__/__/__/mesh/core/src/ticker.c.obj
 .debug_frame   0x0000000000001d9c       0x9c CMakeFiles/light_switch_provisioner_nrf52840_xxAA_s140_6.0.0.dir/__/__/__/mesh/core/src/rand.c.obj
 .debug_frame   0x0000000000001e38       0x30 CMakeFiles/light_switch_provisioner_nrf52840_xxAA_s140_6.0.0.dir/__/__/__/mesh/core/src/nrf_mesh_opt.c.obj
 .debug_frame   0x0000000000001e68      0x190 CMakeFiles/light_switch_provisioner_nrf52840_xxAA_s140_6.0.0.dir/__/__/__/mesh/core/src/timeslot.c.obj
 .debug_frame   0x0000000000001ff8      0x1ac CMakeFiles/light_switch_provisioner_nrf52840_xxAA_s140_6.0.0.dir/__/__/__/mesh/core/src/bearer_event.c.obj
 .debug_frame   0x00000000000021a4      0x158 CMakeFiles/light_switch_provisioner_nrf52840_xxAA_s140_6.0.0.dir/__/__/__/mesh/core/src/enc.c.obj
 .debug_frame   0x00000000000022fc      0x10c CMakeFiles/light_switch_provisioner_nrf52840_xxAA_s140_6.0.0.dir/__/__/__/mesh/core/src/network.c.obj
 .debug_frame   0x0000000000002408       0xec CMakeFiles/light_switch_provisioner_nrf52840_xxAA_s140_6.0.0.dir/__/__/__/mesh/core/src/net_packet.c.obj
 .debug_frame   0x00000000000024f4       0x94 CMakeFiles/light_switch_provisioner_nrf52840_xxAA_s140_6.0.0.dir/__/__/__/mesh/core/src/msqueue.c.obj
 .debug_frame   0x0000000000002588       0xc8 CMakeFiles/light_switch_provisioner_nrf52840_xxAA_s140_6.0.0.dir/__/__/__/mesh/core/src/nrf_mesh_keygen.c.obj
 .debug_frame   0x0000000000002650       0x98 CMakeFiles/light_switch_provisioner_nrf52840_xxAA_s140_6.0.0.dir/__/__/__/mesh/core/src/list.c.obj
 .debug_frame   0x00000000000026e8       0xc0 CMakeFiles/light_switch_provisioner_nrf52840_xxAA_s140_6.0.0.dir/__/__/__/mesh/core/src/log.c.obj
 .debug_frame   0x00000000000027a8      0x258 CMakeFiles/light_switch_provisioner_nrf52840_xxAA_s140_6.0.0.dir/__/__/__/mesh/core/src/flash_manager.c.obj
 .debug_frame   0x0000000000002a00       0xcc CMakeFiles/light_switch_provisioner_nrf52840_xxAA_s140_6.0.0.dir/__/__/__/mesh/core/src/ccm_soft.c.obj
 .debug_frame   0x0000000000002acc       0xc0 CMakeFiles/light_switch_provisioner_nrf52840_xxAA_s140_6.0.0.dir/__/__/__/mesh/core/src/replay_cache.c.obj
 .debug_frame   0x0000000000002b8c       0x7c CMakeFiles/light_switch_provisioner_nrf52840_xxAA_s140_6.0.0.dir/__/__/__/mesh/core/src/beacon.c.obj
 .debug_frame   0x0000000000002c08       0x34 CMakeFiles/light_switch_provisioner_nrf52840_xxAA_s140_6.0.0.dir/__/__/__/mesh/core/src/flash_manager_internal.c.obj
 .debug_frame   0x0000000000002c3c       0xf8 CMakeFiles/light_switch_provisioner_nrf52840_xxAA_s140_6.0.0.dir/__/__/__/mesh/core/src/core_tx.c.obj
 .debug_frame   0x0000000000002d34      0x184 CMakeFiles/light_switch_provisioner_nrf52840_xxAA_s140_6.0.0.dir/__/__/__/mesh/core/src/heartbeat.c.obj
 .debug_frame   0x0000000000002eb8      0x114 CMakeFiles/light_switch_provisioner_nrf52840_xxAA_s140_6.0.0.dir/__/__/__/mesh/core/src/net_beacon.c.obj
 .debug_frame   0x0000000000002fcc      0x138 CMakeFiles/light_switch_provisioner_nrf52840_xxAA_s140_6.0.0.dir/__/__/__/mesh/core/src/core_tx_adv.c.obj
 .debug_frame   0x0000000000003104       0x94 CMakeFiles/light_switch_provisioner_nrf52840_xxAA_s140_6.0.0.dir/__/__/__/mesh/bearer/src/ad_listener.c.obj
 .debug_frame   0x0000000000003198       0xc0 CMakeFiles/light_switch_provisioner_nrf52840_xxAA_s140_6.0.0.dir/__/__/__/mesh/bearer/src/ad_type_filter.c.obj
 .debug_frame   0x0000000000003258      0x278 CMakeFiles/light_switch_provisioner_nrf52840_xxAA_s140_6.0.0.dir/__/__/__/mesh/bearer/src/advertiser.c.obj
 .debug_frame   0x00000000000034d0      0x170 CMakeFiles/light_switch_provisioner_nrf52840_xxAA_s140_6.0.0.dir/__/__/__/mesh/bearer/src/bearer_handler.c.obj
 .debug_frame   0x0000000000003640       0x74 CMakeFiles/light_switch_provisioner_nrf52840_xxAA_s140_6.0.0.dir/__/__/__/mesh/bearer/src/broadcast.c.obj
 .debug_frame   0x00000000000036b4       0x88 CMakeFiles/light_switch_provisioner_nrf52840_xxAA_s140_6.0.0.dir/__/__/__/mesh/bearer/src/filter_engine.c.obj
 .debug_frame   0x000000000000373c       0x98 CMakeFiles/light_switch_provisioner_nrf52840_xxAA_s140_6.0.0.dir/__/__/__/mesh/bearer/src/radio_config.c.obj
 .debug_frame   0x00000000000037d4      0x244 CMakeFiles/light_switch_provisioner_nrf52840_xxAA_s140_6.0.0.dir/__/__/__/mesh/bearer/src/scanner.c.obj
 .debug_frame   0x0000000000003a18      0x870 CMakeFiles/light_switch_provisioner_nrf52840_xxAA_s140_6.0.0.dir/__/__/__/models/config/src/config_client.c.obj
 .debug_frame   0x0000000000004288       0x48 CMakeFiles/light_switch_provisioner_nrf52840_xxAA_s140_6.0.0.dir/__/__/__/models/config/src/composition_data.c.obj
 .debug_frame   0x00000000000042d0      0x85c CMakeFiles/light_switch_provisioner_nrf52840_xxAA_s140_6.0.0.dir/__/__/__/models/config/src/config_server.c.obj
 .debug_frame   0x0000000000004b2c       0x30 CMakeFiles/light_switch_provisioner_nrf52840_xxAA_s140_6.0.0.dir/__/__/__/models/config/src/packed_index_list.c.obj
 .debug_frame   0x0000000000004b5c      0x27c CMakeFiles/light_switch_provisioner_nrf52840_xxAA_s140_6.0.0.dir/__/__/__/models/health/src/health_server.c.obj
 .debug_frame   0x0000000000004dd8      0x240 CMakeFiles/light_switch_provisioner_nrf52840_xxAA_s140_6.0.0.dir/__/__/__/models/health/src/health_client.c.obj
 .debug_frame   0x0000000000005018       0xf4 CMakeFiles/light_switch_provisioner_nrf52840_xxAA_s140_6.0.0.dir/__/__/__/mesh/access/src/access_publish.c.obj
 .debug_frame   0x000000000000510c      0x670 CMakeFiles/light_switch_provisioner_nrf52840_xxAA_s140_6.0.0.dir/__/__/__/mesh/access/src/access.c.obj
 .debug_frame   0x000000000000577c      0x144 CMakeFiles/light_switch_provisioner_nrf52840_xxAA_s140_6.0.0.dir/__/__/__/mesh/access/src/access_reliable.c.obj
 .debug_frame   0x00000000000058c0      0xad4 CMakeFiles/light_switch_provisioner_nrf52840_xxAA_s140_6.0.0.dir/__/__/__/mesh/access/src/device_state_manager.c.obj
 .debug_frame   0x0000000000006394      0x1a8 CMakeFiles/light_switch_provisioner_nrf52840_xxAA_s140_6.0.0.dir/__/__/__/mesh/prov/src/prov_provisioner.c.obj
 .debug_frame   0x000000000000653c      0x1c8 CMakeFiles/light_switch_provisioner_nrf52840_xxAA_s140_6.0.0.dir/__/__/__/mesh/prov/src/nrf_mesh_prov.c.obj
 .debug_frame   0x0000000000006704      0x1a0 CMakeFiles/light_switch_provisioner_nrf52840_xxAA_s140_6.0.0.dir/__/__/__/mesh/prov/src/provisioning.c.obj
 .debug_frame   0x00000000000068a4       0x88 CMakeFiles/light_switch_provisioner_nrf52840_xxAA_s140_6.0.0.dir/__/__/__/mesh/prov/src/prov_beacon.c.obj
 .debug_frame   0x000000000000692c      0x11c CMakeFiles/light_switch_provisioner_nrf52840_xxAA_s140_6.0.0.dir/__/__/__/mesh/prov/src/prov_utils.c.obj
 .debug_frame   0x0000000000006a48      0x2d8 CMakeFiles/light_switch_provisioner_nrf52840_xxAA_s140_6.0.0.dir/__/__/__/mesh/prov/src/prov_bearer_adv.c.obj
 .debug_frame   0x0000000000006d20       0x40 CMakeFiles/light_switch_provisioner_nrf52840_xxAA_s140_6.0.0.dir/home/mazzer/work/nordic/sdk/nRF5_SDK_15.0.0/modules/nrfx/mdk/system_nrf52840.c.obj
 .debug_frame   0x0000000000006d60       0x20 CMakeFiles/light_switch_provisioner_nrf52840_xxAA_s140_6.0.0.dir/home/mazzer/work/nordic/sdk/nRF5_SDK_15.0.0/components/libraries/util/app_error_handler_gcc.c.obj
 .debug_frame   0x0000000000006d80      0x2e4 ../../../external/rtt/librtt_nrf52840_xxAA.a(SEGGER_RTT.c.obj)
 .debug_frame   0x0000000000007064       0xa0 ../../../external/rtt/librtt_nrf52840_xxAA.a(SEGGER_RTT_printf.c.obj)
 .debug_frame   0x0000000000007104      0x4c8 ../../../external/micro-ecc/libuECC_nrf52840_xxAA.a(uECC.c.obj)
 .debug_frame   0x00000000000075cc       0x2c /usr/bin/../lib/gcc/arm-none-eabi/7.2.1/thumb/v7e-m/fpv4-sp/hard/libgcc.a(_aeabi_uldivmod.o)
 .debug_frame   0x00000000000075f8       0x34 /usr/bin/../lib/gcc/arm-none-eabi/7.2.1/thumb/v7e-m/fpv4-sp/hard/libgcc.a(_udivmoddi4.o)
 .debug_frame   0x000000000000762c       0x28 /usr/bin/../lib/gcc/arm-none-eabi/7.2.1/../../../../arm-none-eabi/lib/thumb/v7e-m/fpv4-sp/hard/libg_nano.a(lib_a-exit.o)
 .debug_frame   0x0000000000007654       0x2c /usr/bin/../lib/gcc/arm-none-eabi/7.2.1/../../../../arm-none-eabi/lib/thumb/v7e-m/fpv4-sp/hard/libg_nano.a(lib_a-init.o)
 .debug_frame   0x0000000000007680       0x30 /usr/bin/../lib/gcc/arm-none-eabi/7.2.1/../../../../arm-none-eabi/lib/thumb/v7e-m/fpv4-sp/hard/libg_nano.a(lib_a-malloc.o)
 .debug_frame   0x00000000000076b0       0x2c /usr/bin/../lib/gcc/arm-none-eabi/7.2.1/../../../../arm-none-eabi/lib/thumb/v7e-m/fpv4-sp/hard/libg_nano.a(lib_a-memcmp.o)
 .debug_frame   0x00000000000076dc       0x28 /usr/bin/../lib/gcc/arm-none-eabi/7.2.1/../../../../arm-none-eabi/lib/thumb/v7e-m/fpv4-sp/hard/libg_nano.a(lib_a-memcpy-stub.o)
 .debug_frame   0x0000000000007704       0x20 /usr/bin/../lib/gcc/arm-none-eabi/7.2.1/../../../../arm-none-eabi/lib/thumb/v7e-m/fpv4-sp/hard/libg_nano.a(lib_a-memset.o)
 .debug_frame   0x0000000000007724       0x38 /usr/bin/../lib/gcc/arm-none-eabi/7.2.1/../../../../arm-none-eabi/lib/thumb/v7e-m/fpv4-sp/hard/libg_nano.a(lib_a-nano-freer.o)
 .debug_frame   0x000000000000775c       0x2c /usr/bin/../lib/gcc/arm-none-eabi/7.2.1/../../../../arm-none-eabi/lib/thumb/v7e-m/fpv4-sp/hard/libg_nano.a(lib_a-nano-mallocr.o)
 .debug_frame   0x0000000000007788       0x2c /usr/bin/../lib/gcc/arm-none-eabi/7.2.1/../../../../arm-none-eabi/lib/thumb/v7e-m/fpv4-sp/hard/libg_nano.a(lib_a-sbrkr.o)
 .debug_frame   0x00000000000077b4       0x20 /usr/bin/../lib/gcc/arm-none-eabi/7.2.1/../../../../arm-none-eabi/lib/thumb/v7e-m/fpv4-sp/hard/libg_nano.a(lib_a-strcpy.o)
 .debug_frame   0x00000000000077d4       0x38 /usr/bin/../lib/gcc/arm-none-eabi/7.2.1/../../../../arm-none-eabi/lib/thumb/v7e-m/fpv4-sp/hard/libg_nano.a(lib_a-strrchr.o)
 .debug_frame   0x000000000000780c       0x30 /usr/bin/../lib/gcc/arm-none-eabi/7.2.1/../../../../arm-none-eabi/lib/thumb/v7e-m/fpv4-sp/hard/libg_nano.a(lib_a-mlock.o)
 .debug_frame   0x000000000000783c       0x5c /usr/bin/../lib/gcc/arm-none-eabi/7.2.1/../../../../arm-none-eabi/lib/thumb/v7e-m/fpv4-sp/hard/libg_nano.a(lib_a-reent.o)
 .debug_frame   0x0000000000007898       0x20 /usr/bin/../lib/gcc/arm-none-eabi/7.2.1/../../../../arm-none-eabi/lib/thumb/v7e-m/fpv4-sp/hard/libg_nano.a(lib_a-strchr.o)
 .debug_frame   0x00000000000078b8       0x20 /usr/bin/../lib/gcc/arm-none-eabi/7.2.1/../../../../arm-none-eabi/lib/thumb/v7e-m/fpv4-sp/hard/libnosys.a(sbrk.o)
 .debug_frame   0x00000000000078d8       0x20 /usr/bin/../lib/gcc/arm-none-eabi/7.2.1/../../../../arm-none-eabi/lib/thumb/v7e-m/fpv4-sp/hard/libnosys.a(_exit.o)
