Archive member included to satisfy reference by file (symbol)

../../../external/rtt/librtt_nrf52832_xxAA.a(SEGGER_RTT.c.obj)
                              CMakeFiles/light_switch_provisioner_nrf52832_xxAA_s132_6.0.0.dir/__/__/__/mesh/core/src/log.c.obj (SEGGER_RTT_Write)
../../../external/rtt/librtt_nrf52832_xxAA.a(SEGGER_RTT_printf.c.obj)
                              CMakeFiles/light_switch_provisioner_nrf52832_xxAA_s132_6.0.0.dir/__/__/__/mesh/core/src/log.c.obj (SEGGER_RTT_vprintf)
../../../external/micro-ecc/libuECC_nrf52832_xxAA.a(uECC.c.obj)
                              CMakeFiles/light_switch_provisioner_nrf52832_xxAA_s132_6.0.0.dir/__/__/__/mesh/prov/src/prov_utils.c.obj (uECC_secp256r1)
/usr/bin/../lib/gcc/arm-none-eabi/7.2.1/thumb/v7e-m/fpv4-sp/hard/libgcc.a(_aeabi_ldivmod.o)
                              CMakeFiles/light_switch_provisioner_nrf52832_xxAA_s132_6.0.0.dir/__/__/common/src/rtt_input.c.obj (__aeabi_ldivmod)
/usr/bin/../lib/gcc/arm-none-eabi/7.2.1/thumb/v7e-m/fpv4-sp/hard/libgcc.a(_aeabi_uldivmod.o)
                              CMakeFiles/light_switch_provisioner_nrf52832_xxAA_s132_6.0.0.dir/__/__/common/src/rtt_input.c.obj (__aeabi_uldivmod)
/usr/bin/../lib/gcc/arm-none-eabi/7.2.1/thumb/v7e-m/fpv4-sp/hard/libgcc.a(_udivmoddi4.o)
                              /usr/bin/../lib/gcc/arm-none-eabi/7.2.1/thumb/v7e-m/fpv4-sp/hard/libgcc.a(_aeabi_ldivmod.o) (__udivmoddi4)
/usr/bin/../lib/gcc/arm-none-eabi/7.2.1/thumb/v7e-m/fpv4-sp/hard/libgcc.a(_dvmd_tls.o)
                              /usr/bin/../lib/gcc/arm-none-eabi/7.2.1/thumb/v7e-m/fpv4-sp/hard/libgcc.a(_aeabi_ldivmod.o) (__aeabi_ldiv0)
/usr/bin/../lib/gcc/arm-none-eabi/7.2.1/../../../../arm-none-eabi/lib/thumb/v7e-m/fpv4-sp/hard/libg_nano.a(lib_a-exit.o)
                              /usr/bin/../lib/gcc/arm-none-eabi/7.2.1/../../../../arm-none-eabi/lib/thumb/v7e-m/fpv4-sp/hard/crt0.o (exit)
/usr/bin/../lib/gcc/arm-none-eabi/7.2.1/../../../../arm-none-eabi/lib/thumb/v7e-m/fpv4-sp/hard/libg_nano.a(lib_a-impure.o)
                              /usr/bin/../lib/gcc/arm-none-eabi/7.2.1/../../../../arm-none-eabi/lib/thumb/v7e-m/fpv4-sp/hard/libg_nano.a(lib_a-exit.o) (_global_impure_ptr)
/usr/bin/../lib/gcc/arm-none-eabi/7.2.1/../../../../arm-none-eabi/lib/thumb/v7e-m/fpv4-sp/hard/libg_nano.a(lib_a-init.o)
                              /usr/bin/../lib/gcc/arm-none-eabi/7.2.1/../../../../arm-none-eabi/lib/thumb/v7e-m/fpv4-sp/hard/crt0.o (__libc_init_array)
/usr/bin/../lib/gcc/arm-none-eabi/7.2.1/../../../../arm-none-eabi/lib/thumb/v7e-m/fpv4-sp/hard/libg_nano.a(lib_a-malloc.o)
                              CMakeFiles/light_switch_provisioner_nrf52832_xxAA_s132_6.0.0.dir/__/__/__/mesh/core/src/transport.c.obj (malloc)
/usr/bin/../lib/gcc/arm-none-eabi/7.2.1/../../../../arm-none-eabi/lib/thumb/v7e-m/fpv4-sp/hard/libg_nano.a(lib_a-memcmp.o)
                              CMakeFiles/light_switch_provisioner_nrf52832_xxAA_s132_6.0.0.dir/src/provisioner_helper.c.obj (memcmp)
/usr/bin/../lib/gcc/arm-none-eabi/7.2.1/../../../../arm-none-eabi/lib/thumb/v7e-m/fpv4-sp/hard/libg_nano.a(lib_a-memcpy-stub.o)
                              CMakeFiles/light_switch_provisioner_nrf52832_xxAA_s132_6.0.0.dir/src/main.c.obj (memcpy)
/usr/bin/../lib/gcc/arm-none-eabi/7.2.1/../../../../arm-none-eabi/lib/thumb/v7e-m/fpv4-sp/hard/libg_nano.a(lib_a-memset.o)
                              /usr/bin/../lib/gcc/arm-none-eabi/7.2.1/../../../../arm-none-eabi/lib/thumb/v7e-m/fpv4-sp/hard/crt0.o (memset)
/usr/bin/../lib/gcc/arm-none-eabi/7.2.1/../../../../arm-none-eabi/lib/thumb/v7e-m/fpv4-sp/hard/libg_nano.a(lib_a-nano-freer.o)
                              /usr/bin/../lib/gcc/arm-none-eabi/7.2.1/../../../../arm-none-eabi/lib/thumb/v7e-m/fpv4-sp/hard/libg_nano.a(lib_a-malloc.o) (_free_r)
/usr/bin/../lib/gcc/arm-none-eabi/7.2.1/../../../../arm-none-eabi/lib/thumb/v7e-m/fpv4-sp/hard/libg_nano.a(lib_a-nano-mallocr.o)
                              /usr/bin/../lib/gcc/arm-none-eabi/7.2.1/../../../../arm-none-eabi/lib/thumb/v7e-m/fpv4-sp/hard/libg_nano.a(lib_a-malloc.o) (_malloc_r)
/usr/bin/../lib/gcc/arm-none-eabi/7.2.1/../../../../arm-none-eabi/lib/thumb/v7e-m/fpv4-sp/hard/libg_nano.a(lib_a-sbrkr.o)
                              /usr/bin/../lib/gcc/arm-none-eabi/7.2.1/../../../../arm-none-eabi/lib/thumb/v7e-m/fpv4-sp/hard/libg_nano.a(lib_a-nano-mallocr.o) (_sbrk_r)
/usr/bin/../lib/gcc/arm-none-eabi/7.2.1/../../../../arm-none-eabi/lib/thumb/v7e-m/fpv4-sp/hard/libg_nano.a(lib_a-strcpy.o)
                              ../../../external/rtt/librtt_nrf52832_xxAA.a(SEGGER_RTT.c.obj) (strcpy)
/usr/bin/../lib/gcc/arm-none-eabi/7.2.1/../../../../arm-none-eabi/lib/thumb/v7e-m/fpv4-sp/hard/libg_nano.a(lib_a-strlen.o)
                              CMakeFiles/light_switch_provisioner_nrf52832_xxAA_s132_6.0.0.dir/__/__/__/mesh/core/src/uri.c.obj (strlen)
/usr/bin/../lib/gcc/arm-none-eabi/7.2.1/../../../../arm-none-eabi/lib/thumb/v7e-m/fpv4-sp/hard/libg_nano.a(lib_a-strrchr.o)
                              CMakeFiles/light_switch_provisioner_nrf52832_xxAA_s132_6.0.0.dir/src/main.c.obj (strrchr)
/usr/bin/../lib/gcc/arm-none-eabi/7.2.1/../../../../arm-none-eabi/lib/thumb/v7e-m/fpv4-sp/hard/libg_nano.a(lib_a-mlock.o)
                              /usr/bin/../lib/gcc/arm-none-eabi/7.2.1/../../../../arm-none-eabi/lib/thumb/v7e-m/fpv4-sp/hard/libg_nano.a(lib_a-nano-freer.o) (__malloc_lock)
/usr/bin/../lib/gcc/arm-none-eabi/7.2.1/../../../../arm-none-eabi/lib/thumb/v7e-m/fpv4-sp/hard/libg_nano.a(lib_a-reent.o)
                              /usr/bin/../lib/gcc/arm-none-eabi/7.2.1/../../../../arm-none-eabi/lib/thumb/v7e-m/fpv4-sp/hard/libg_nano.a(lib_a-sbrkr.o) (errno)
/usr/bin/../lib/gcc/arm-none-eabi/7.2.1/../../../../arm-none-eabi/lib/thumb/v7e-m/fpv4-sp/hard/libg_nano.a(lib_a-strchr.o)
                              /usr/bin/../lib/gcc/arm-none-eabi/7.2.1/../../../../arm-none-eabi/lib/thumb/v7e-m/fpv4-sp/hard/libg_nano.a(lib_a-strrchr.o) (strchr)
/usr/bin/../lib/gcc/arm-none-eabi/7.2.1/../../../../arm-none-eabi/lib/thumb/v7e-m/fpv4-sp/hard/libnosys.a(sbrk.o)
                              /usr/bin/../lib/gcc/arm-none-eabi/7.2.1/../../../../arm-none-eabi/lib/thumb/v7e-m/fpv4-sp/hard/libg_nano.a(lib_a-sbrkr.o) (_sbrk)
/usr/bin/../lib/gcc/arm-none-eabi/7.2.1/../../../../arm-none-eabi/lib/thumb/v7e-m/fpv4-sp/hard/libnosys.a(_exit.o)
                              /usr/bin/../lib/gcc/arm-none-eabi/7.2.1/../../../../arm-none-eabi/lib/thumb/v7e-m/fpv4-sp/hard/libg_nano.a(lib_a-exit.o) (_exit)

Allocating common symbols
Common symbol       size              file

nrf_nvic_state      0xc               CMakeFiles/light_switch_provisioner_nrf52832_xxAA_s132_6.0.0.dir/__/__/common/src/mesh_softdevice_init.c.obj
m_packet            0x24              CMakeFiles/light_switch_provisioner_nrf52832_xxAA_s132_6.0.0.dir/__/__/__/mesh/core/src/core_tx.c.obj
errno               0x4               /usr/bin/../lib/gcc/arm-none-eabi/7.2.1/../../../../arm-none-eabi/lib/thumb/v7e-m/fpv4-sp/hard/libg_nano.a(lib_a-reent.o)
_SEGGER_RTT         0x78              ../../../external/rtt/librtt_nrf52832_xxAA.a(SEGGER_RTT.c.obj)

Discarded input sections

 .text          0x0000000000000000        0x0 /usr/bin/../lib/gcc/arm-none-eabi/7.2.1/thumb/v7e-m/fpv4-sp/hard/crti.o
 .data          0x0000000000000000        0x0 /usr/bin/../lib/gcc/arm-none-eabi/7.2.1/thumb/v7e-m/fpv4-sp/hard/crti.o
 .bss           0x0000000000000000        0x0 /usr/bin/../lib/gcc/arm-none-eabi/7.2.1/thumb/v7e-m/fpv4-sp/hard/crti.o
 .data          0x0000000000000000        0x4 /usr/bin/../lib/gcc/arm-none-eabi/7.2.1/thumb/v7e-m/fpv4-sp/hard/crtbegin.o
 .data          0x0000000000000000        0x0 /usr/bin/../lib/gcc/arm-none-eabi/7.2.1/../../../../arm-none-eabi/lib/thumb/v7e-m/fpv4-sp/hard/crt0.o
 .bss           0x0000000000000000        0x0 /usr/bin/../lib/gcc/arm-none-eabi/7.2.1/../../../../arm-none-eabi/lib/thumb/v7e-m/fpv4-sp/hard/crt0.o
 .ARM.extab     0x0000000000000000        0x0 /usr/bin/../lib/gcc/arm-none-eabi/7.2.1/../../../../arm-none-eabi/lib/thumb/v7e-m/fpv4-sp/hard/crt0.o
 .text          0x0000000000000000        0x0 CMakeFiles/light_switch_provisioner_nrf52832_xxAA_s132_6.0.0.dir/src/main.c.obj
 .data          0x0000000000000000        0x0 CMakeFiles/light_switch_provisioner_nrf52832_xxAA_s132_6.0.0.dir/src/main.c.obj
 .bss           0x0000000000000000        0x0 CMakeFiles/light_switch_provisioner_nrf52832_xxAA_s132_6.0.0.dir/src/main.c.obj
 .text          0x0000000000000000        0x0 CMakeFiles/light_switch_provisioner_nrf52832_xxAA_s132_6.0.0.dir/__/__/__/mesh/stack/src/mesh_stack.c.obj
 .data          0x0000000000000000        0x0 CMakeFiles/light_switch_provisioner_nrf52832_xxAA_s132_6.0.0.dir/__/__/__/mesh/stack/src/mesh_stack.c.obj
 .bss           0x0000000000000000        0x0 CMakeFiles/light_switch_provisioner_nrf52832_xxAA_s132_6.0.0.dir/__/__/__/mesh/stack/src/mesh_stack.c.obj
 .text.mesh_evt_handler
                0x0000000000000000       0x10 CMakeFiles/light_switch_provisioner_nrf52832_xxAA_s132_6.0.0.dir/__/__/__/mesh/stack/src/mesh_stack.c.obj
 .text.mesh_stack_start
                0x0000000000000000        0x4 CMakeFiles/light_switch_provisioner_nrf52832_xxAA_s132_6.0.0.dir/__/__/__/mesh/stack/src/mesh_stack.c.obj
 .text.mesh_stack_provisioning_data_store
                0x0000000000000000       0x78 CMakeFiles/light_switch_provisioner_nrf52832_xxAA_s132_6.0.0.dir/__/__/__/mesh/stack/src/mesh_stack.c.obj
 .text.mesh_stack_is_device_provisioned
                0x0000000000000000       0x1c CMakeFiles/light_switch_provisioner_nrf52832_xxAA_s132_6.0.0.dir/__/__/__/mesh/stack/src/mesh_stack.c.obj
 .text.mesh_stack_device_reset
                0x0000000000000000       0x20 CMakeFiles/light_switch_provisioner_nrf52832_xxAA_s132_6.0.0.dir/__/__/__/mesh/stack/src/mesh_stack.c.obj
 .data.s_evt_handler.11216
                0x0000000000000000        0x8 CMakeFiles/light_switch_provisioner_nrf52832_xxAA_s132_6.0.0.dir/__/__/__/mesh/stack/src/mesh_stack.c.obj
 .text          0x0000000000000000        0x0 CMakeFiles/light_switch_provisioner_nrf52832_xxAA_s132_6.0.0.dir/src/provisioner_helper.c.obj
 .data          0x0000000000000000        0x0 CMakeFiles/light_switch_provisioner_nrf52832_xxAA_s132_6.0.0.dir/src/provisioner_helper.c.obj
 .bss           0x0000000000000000        0x0 CMakeFiles/light_switch_provisioner_nrf52832_xxAA_s132_6.0.0.dir/src/provisioner_helper.c.obj
 .text.prov_helper_element_count_get
                0x0000000000000000        0xc CMakeFiles/light_switch_provisioner_nrf52832_xxAA_s132_6.0.0.dir/src/provisioner_helper.c.obj
 .text          0x0000000000000000        0x0 CMakeFiles/light_switch_provisioner_nrf52832_xxAA_s132_6.0.0.dir/src/node_setup.c.obj
 .data          0x0000000000000000        0x0 CMakeFiles/light_switch_provisioner_nrf52832_xxAA_s132_6.0.0.dir/src/node_setup.c.obj
 .bss           0x0000000000000000        0x0 CMakeFiles/light_switch_provisioner_nrf52832_xxAA_s132_6.0.0.dir/src/node_setup.c.obj
 .text          0x0000000000000000        0x0 CMakeFiles/light_switch_provisioner_nrf52832_xxAA_s132_6.0.0.dir/__/__/common/src/mesh_softdevice_init.c.obj
 .data          0x0000000000000000        0x0 CMakeFiles/light_switch_provisioner_nrf52832_xxAA_s132_6.0.0.dir/__/__/common/src/mesh_softdevice_init.c.obj
 .bss           0x0000000000000000        0x0 CMakeFiles/light_switch_provisioner_nrf52832_xxAA_s132_6.0.0.dir/__/__/common/src/mesh_softdevice_init.c.obj
 .text          0x0000000000000000        0x0 CMakeFiles/light_switch_provisioner_nrf52832_xxAA_s132_6.0.0.dir/__/__/common/src/rtt_input.c.obj
 .data          0x0000000000000000        0x0 CMakeFiles/light_switch_provisioner_nrf52832_xxAA_s132_6.0.0.dir/__/__/common/src/rtt_input.c.obj
 .bss           0x0000000000000000        0x0 CMakeFiles/light_switch_provisioner_nrf52832_xxAA_s132_6.0.0.dir/__/__/common/src/rtt_input.c.obj
 .text.rtt_input_disable
                0x0000000000000000       0x28 CMakeFiles/light_switch_provisioner_nrf52832_xxAA_s132_6.0.0.dir/__/__/common/src/rtt_input.c.obj
 .text          0x0000000000000000        0x0 CMakeFiles/light_switch_provisioner_nrf52832_xxAA_s132_6.0.0.dir/__/__/common/src/simple_hal.c.obj
 .data          0x0000000000000000        0x0 CMakeFiles/light_switch_provisioner_nrf52832_xxAA_s132_6.0.0.dir/__/__/common/src/simple_hal.c.obj
 .bss           0x0000000000000000        0x0 CMakeFiles/light_switch_provisioner_nrf52832_xxAA_s132_6.0.0.dir/__/__/common/src/simple_hal.c.obj
 .text.hal_led_pin_get
                0x0000000000000000       0x18 CMakeFiles/light_switch_provisioner_nrf52832_xxAA_s132_6.0.0.dir/__/__/common/src/simple_hal.c.obj
 .text          0x0000000000000000        0x0 CMakeFiles/light_switch_provisioner_nrf52832_xxAA_s132_6.0.0.dir/__/__/nrf_mesh_weak.c.obj
 .data          0x0000000000000000        0x0 CMakeFiles/light_switch_provisioner_nrf52832_xxAA_s132_6.0.0.dir/__/__/nrf_mesh_weak.c.obj
 .bss           0x0000000000000000        0x0 CMakeFiles/light_switch_provisioner_nrf52832_xxAA_s132_6.0.0.dir/__/__/nrf_mesh_weak.c.obj
 .text._weak_handler_ptr
                0x0000000000000000        0x4 CMakeFiles/light_switch_provisioner_nrf52832_xxAA_s132_6.0.0.dir/__/__/nrf_mesh_weak.c.obj
 .text          0x0000000000000000        0x0 CMakeFiles/light_switch_provisioner_nrf52832_xxAA_s132_6.0.0.dir/__/__/common/src/app_error_weak.c.obj
 .data          0x0000000000000000        0x0 CMakeFiles/light_switch_provisioner_nrf52832_xxAA_s132_6.0.0.dir/__/__/common/src/app_error_weak.c.obj
 .bss           0x0000000000000000        0x0 CMakeFiles/light_switch_provisioner_nrf52832_xxAA_s132_6.0.0.dir/__/__/common/src/app_error_weak.c.obj
 .text          0x0000000000000000        0x0 CMakeFiles/light_switch_provisioner_nrf52832_xxAA_s132_6.0.0.dir/__/__/common/src/assertion_handler_weak.c.obj
 .data          0x0000000000000000        0x0 CMakeFiles/light_switch_provisioner_nrf52832_xxAA_s132_6.0.0.dir/__/__/common/src/assertion_handler_weak.c.obj
 .bss           0x0000000000000000        0x0 CMakeFiles/light_switch_provisioner_nrf52832_xxAA_s132_6.0.0.dir/__/__/common/src/assertion_handler_weak.c.obj
 .text          0x0000000000000000        0x0 CMakeFiles/light_switch_provisioner_nrf52832_xxAA_s132_6.0.0.dir/__/__/__/mesh/core/src/internal_event.c.obj
 .data          0x0000000000000000        0x0 CMakeFiles/light_switch_provisioner_nrf52832_xxAA_s132_6.0.0.dir/__/__/__/mesh/core/src/internal_event.c.obj
 .bss           0x0000000000000000        0x0 CMakeFiles/light_switch_provisioner_nrf52832_xxAA_s132_6.0.0.dir/__/__/__/mesh/core/src/internal_event.c.obj
 .debug_info    0x0000000000000000      0x8eb CMakeFiles/light_switch_provisioner_nrf52832_xxAA_s132_6.0.0.dir/__/__/__/mesh/core/src/internal_event.c.obj
 .debug_abbrev  0x0000000000000000      0x192 CMakeFiles/light_switch_provisioner_nrf52832_xxAA_s132_6.0.0.dir/__/__/__/mesh/core/src/internal_event.c.obj
 .debug_aranges
                0x0000000000000000       0x18 CMakeFiles/light_switch_provisioner_nrf52832_xxAA_s132_6.0.0.dir/__/__/__/mesh/core/src/internal_event.c.obj
 .debug_line    0x0000000000000000      0x1d9 CMakeFiles/light_switch_provisioner_nrf52832_xxAA_s132_6.0.0.dir/__/__/__/mesh/core/src/internal_event.c.obj
 .debug_str     0x0000000000000000      0x677 CMakeFiles/light_switch_provisioner_nrf52832_xxAA_s132_6.0.0.dir/__/__/__/mesh/core/src/internal_event.c.obj
 .comment       0x0000000000000000       0x7f CMakeFiles/light_switch_provisioner_nrf52832_xxAA_s132_6.0.0.dir/__/__/__/mesh/core/src/internal_event.c.obj
 .ARM.attributes
                0x0000000000000000       0x39 CMakeFiles/light_switch_provisioner_nrf52832_xxAA_s132_6.0.0.dir/__/__/__/mesh/core/src/internal_event.c.obj
 .text          0x0000000000000000        0x0 CMakeFiles/light_switch_provisioner_nrf52832_xxAA_s132_6.0.0.dir/__/__/__/mesh/core/src/nrf_mesh_configure.c.obj
 .data          0x0000000000000000        0x0 CMakeFiles/light_switch_provisioner_nrf52832_xxAA_s132_6.0.0.dir/__/__/__/mesh/core/src/nrf_mesh_configure.c.obj
 .bss           0x0000000000000000        0x0 CMakeFiles/light_switch_provisioner_nrf52832_xxAA_s132_6.0.0.dir/__/__/__/mesh/core/src/nrf_mesh_configure.c.obj
 .text          0x0000000000000000        0x0 CMakeFiles/light_switch_provisioner_nrf52832_xxAA_s132_6.0.0.dir/__/__/__/mesh/core/src/aes.c.obj
 .data          0x0000000000000000        0x0 CMakeFiles/light_switch_provisioner_nrf52832_xxAA_s132_6.0.0.dir/__/__/__/mesh/core/src/aes.c.obj
 .bss           0x0000000000000000        0x0 CMakeFiles/light_switch_provisioner_nrf52832_xxAA_s132_6.0.0.dir/__/__/__/mesh/core/src/aes.c.obj
 .text          0x0000000000000000        0x0 CMakeFiles/light_switch_provisioner_nrf52832_xxAA_s132_6.0.0.dir/__/__/__/mesh/core/src/msg_cache.c.obj
 .data          0x0000000000000000        0x0 CMakeFiles/light_switch_provisioner_nrf52832_xxAA_s132_6.0.0.dir/__/__/__/mesh/core/src/msg_cache.c.obj
 .bss           0x0000000000000000        0x0 CMakeFiles/light_switch_provisioner_nrf52832_xxAA_s132_6.0.0.dir/__/__/__/mesh/core/src/msg_cache.c.obj
 .text.msg_cache_clear
                0x0000000000000000       0x18 CMakeFiles/light_switch_provisioner_nrf52832_xxAA_s132_6.0.0.dir/__/__/__/mesh/core/src/msg_cache.c.obj
 .text          0x0000000000000000        0x0 CMakeFiles/light_switch_provisioner_nrf52832_xxAA_s132_6.0.0.dir/__/__/__/mesh/core/src/transport.c.obj
 .data          0x0000000000000000        0x0 CMakeFiles/light_switch_provisioner_nrf52832_xxAA_s132_6.0.0.dir/__/__/__/mesh/core/src/transport.c.obj
 .bss           0x0000000000000000        0x0 CMakeFiles/light_switch_provisioner_nrf52832_xxAA_s132_6.0.0.dir/__/__/__/mesh/core/src/transport.c.obj
 .text.transport_sar_mem_funcs_set
                0x0000000000000000       0x64 CMakeFiles/light_switch_provisioner_nrf52832_xxAA_s132_6.0.0.dir/__/__/__/mesh/core/src/transport.c.obj
 .text.transport_sar_mem_funcs_reset
                0x0000000000000000       0x30 CMakeFiles/light_switch_provisioner_nrf52832_xxAA_s132_6.0.0.dir/__/__/__/mesh/core/src/transport.c.obj
 .text          0x0000000000000000        0x0 CMakeFiles/light_switch_provisioner_nrf52832_xxAA_s132_6.0.0.dir/__/__/__/mesh/core/src/event.c.obj
 .data          0x0000000000000000        0x0 CMakeFiles/light_switch_provisioner_nrf52832_xxAA_s132_6.0.0.dir/__/__/__/mesh/core/src/event.c.obj
 .bss           0x0000000000000000        0x0 CMakeFiles/light_switch_provisioner_nrf52832_xxAA_s132_6.0.0.dir/__/__/__/mesh/core/src/event.c.obj
 .text          0x0000000000000000        0x0 CMakeFiles/light_switch_provisioner_nrf52832_xxAA_s132_6.0.0.dir/__/__/__/mesh/core/src/packet_buffer.c.obj
 .data          0x0000000000000000        0x0 CMakeFiles/light_switch_provisioner_nrf52832_xxAA_s132_6.0.0.dir/__/__/__/mesh/core/src/packet_buffer.c.obj
 .bss           0x0000000000000000        0x0 CMakeFiles/light_switch_provisioner_nrf52832_xxAA_s132_6.0.0.dir/__/__/__/mesh/core/src/packet_buffer.c.obj
 .text.packet_buffer_max_packet_len_get
                0x0000000000000000       0x24 CMakeFiles/light_switch_provisioner_nrf52832_xxAA_s132_6.0.0.dir/__/__/__/mesh/core/src/packet_buffer.c.obj
 .text          0x0000000000000000        0x0 CMakeFiles/light_switch_provisioner_nrf52832_xxAA_s132_6.0.0.dir/__/__/__/mesh/core/src/flash_manager_defrag.c.obj
 .data          0x0000000000000000        0x0 CMakeFiles/light_switch_provisioner_nrf52832_xxAA_s132_6.0.0.dir/__/__/__/mesh/core/src/flash_manager_defrag.c.obj
 .bss           0x0000000000000000        0x0 CMakeFiles/light_switch_provisioner_nrf52832_xxAA_s132_6.0.0.dir/__/__/__/mesh/core/src/flash_manager_defrag.c.obj
 .text.flash_manager_defragging
                0x0000000000000000       0x44 CMakeFiles/light_switch_provisioner_nrf52832_xxAA_s132_6.0.0.dir/__/__/__/mesh/core/src/flash_manager_defrag.c.obj
 .text          0x0000000000000000        0x0 CMakeFiles/light_switch_provisioner_nrf52832_xxAA_s132_6.0.0.dir/__/__/__/mesh/core/src/fifo.c.obj
 .data          0x0000000000000000        0x0 CMakeFiles/light_switch_provisioner_nrf52832_xxAA_s132_6.0.0.dir/__/__/__/mesh/core/src/fifo.c.obj
 .bss           0x0000000000000000        0x0 CMakeFiles/light_switch_provisioner_nrf52832_xxAA_s132_6.0.0.dir/__/__/__/mesh/core/src/fifo.c.obj
 .text.fifo_peek_at
                0x0000000000000000       0x58 CMakeFiles/light_switch_provisioner_nrf52832_xxAA_s132_6.0.0.dir/__/__/__/mesh/core/src/fifo.c.obj
 .text.fifo_peek
                0x0000000000000000       0x54 CMakeFiles/light_switch_provisioner_nrf52832_xxAA_s132_6.0.0.dir/__/__/__/mesh/core/src/fifo.c.obj
 .text.fifo_flush
                0x0000000000000000        0x8 CMakeFiles/light_switch_provisioner_nrf52832_xxAA_s132_6.0.0.dir/__/__/__/mesh/core/src/fifo.c.obj
 .text.fifo_get_len
                0x0000000000000000        0x8 CMakeFiles/light_switch_provisioner_nrf52832_xxAA_s132_6.0.0.dir/__/__/__/mesh/core/src/fifo.c.obj
 .text.fifo_is_full
                0x0000000000000000       0x14 CMakeFiles/light_switch_provisioner_nrf52832_xxAA_s132_6.0.0.dir/__/__/__/mesh/core/src/fifo.c.obj
 .text.fifo_is_empty
                0x0000000000000000       0x10 CMakeFiles/light_switch_provisioner_nrf52832_xxAA_s132_6.0.0.dir/__/__/__/mesh/core/src/fifo.c.obj
 .text          0x0000000000000000        0x0 CMakeFiles/light_switch_provisioner_nrf52832_xxAA_s132_6.0.0.dir/__/__/__/mesh/core/src/nrf_flash.c.obj
 .data          0x0000000000000000        0x0 CMakeFiles/light_switch_provisioner_nrf52832_xxAA_s132_6.0.0.dir/__/__/__/mesh/core/src/nrf_flash.c.obj
 .bss           0x0000000000000000        0x0 CMakeFiles/light_switch_provisioner_nrf52832_xxAA_s132_6.0.0.dir/__/__/__/mesh/core/src/nrf_flash.c.obj
 .text          0x0000000000000000        0x0 CMakeFiles/light_switch_provisioner_nrf52832_xxAA_s132_6.0.0.dir/__/__/__/mesh/core/src/packet_mgr.c.obj
 .data          0x0000000000000000        0x0 CMakeFiles/light_switch_provisioner_nrf52832_xxAA_s132_6.0.0.dir/__/__/__/mesh/core/src/packet_mgr.c.obj
 .bss           0x0000000000000000        0x0 CMakeFiles/light_switch_provisioner_nrf52832_xxAA_s132_6.0.0.dir/__/__/__/mesh/core/src/packet_mgr.c.obj
 .text.packet_mgr_get_free_space
                0x0000000000000000       0x1c CMakeFiles/light_switch_provisioner_nrf52832_xxAA_s132_6.0.0.dir/__/__/__/mesh/core/src/packet_mgr.c.obj
 .text.packet_mgr_refcount_get
                0x0000000000000000        0x8 CMakeFiles/light_switch_provisioner_nrf52832_xxAA_s132_6.0.0.dir/__/__/__/mesh/core/src/packet_mgr.c.obj
 .text.packet_mgr_size_get
                0x0000000000000000        0x8 CMakeFiles/light_switch_provisioner_nrf52832_xxAA_s132_6.0.0.dir/__/__/__/mesh/core/src/packet_mgr.c.obj
 .text          0x0000000000000000        0x0 CMakeFiles/light_switch_provisioner_nrf52832_xxAA_s132_6.0.0.dir/__/__/__/mesh/core/src/net_state.c.obj
 .data          0x0000000000000000        0x0 CMakeFiles/light_switch_provisioner_nrf52832_xxAA_s132_6.0.0.dir/__/__/__/mesh/core/src/net_state.c.obj
 .bss           0x0000000000000000        0x0 CMakeFiles/light_switch_provisioner_nrf52832_xxAA_s132_6.0.0.dir/__/__/__/mesh/core/src/net_state.c.obj
 .text.net_state_iv_update_start
                0x0000000000000000       0x94 CMakeFiles/light_switch_provisioner_nrf52832_xxAA_s132_6.0.0.dir/__/__/__/mesh/core/src/net_state.c.obj
 .text.net_state_iv_update_test_mode_set
                0x0000000000000000        0xc CMakeFiles/light_switch_provisioner_nrf52832_xxAA_s132_6.0.0.dir/__/__/__/mesh/core/src/net_state.c.obj
 .text.net_state_test_mode_transition_run
                0x0000000000000000      0x170 CMakeFiles/light_switch_provisioner_nrf52832_xxAA_s132_6.0.0.dir/__/__/__/mesh/core/src/net_state.c.obj
 .text.net_state_iv_index_set
                0x0000000000000000       0x88 CMakeFiles/light_switch_provisioner_nrf52832_xxAA_s132_6.0.0.dir/__/__/__/mesh/core/src/net_state.c.obj
 .bss.iv_state_set.10057
                0x0000000000000000        0x1 CMakeFiles/light_switch_provisioner_nrf52832_xxAA_s132_6.0.0.dir/__/__/__/mesh/core/src/net_state.c.obj
 .text          0x0000000000000000        0x0 CMakeFiles/light_switch_provisioner_nrf52832_xxAA_s132_6.0.0.dir/__/__/__/mesh/core/src/mesh_flash.c.obj
 .data          0x0000000000000000        0x0 CMakeFiles/light_switch_provisioner_nrf52832_xxAA_s132_6.0.0.dir/__/__/__/mesh/core/src/mesh_flash.c.obj
 .bss           0x0000000000000000        0x0 CMakeFiles/light_switch_provisioner_nrf52832_xxAA_s132_6.0.0.dir/__/__/__/mesh/core/src/mesh_flash.c.obj
 .text.mesh_flash_op_available_slots
                0x0000000000000000       0x2c CMakeFiles/light_switch_provisioner_nrf52832_xxAA_s132_6.0.0.dir/__/__/__/mesh/core/src/mesh_flash.c.obj
 .text.mesh_flash_in_progress
                0x0000000000000000       0x34 CMakeFiles/light_switch_provisioner_nrf52832_xxAA_s132_6.0.0.dir/__/__/__/mesh/core/src/mesh_flash.c.obj
 .text.mesh_flash_set_suspended
                0x0000000000000000      0x21c CMakeFiles/light_switch_provisioner_nrf52832_xxAA_s132_6.0.0.dir/__/__/__/mesh/core/src/mesh_flash.c.obj
 .bss.suspend_count.10284
                0x0000000000000000        0x4 CMakeFiles/light_switch_provisioner_nrf52832_xxAA_s132_6.0.0.dir/__/__/__/mesh/core/src/mesh_flash.c.obj
 .text          0x0000000000000000        0x0 CMakeFiles/light_switch_provisioner_nrf52832_xxAA_s132_6.0.0.dir/__/__/__/mesh/core/src/nrf_mesh_utils.c.obj
 .data          0x0000000000000000        0x0 CMakeFiles/light_switch_provisioner_nrf52832_xxAA_s132_6.0.0.dir/__/__/__/mesh/core/src/nrf_mesh_utils.c.obj
 .bss           0x0000000000000000        0x0 CMakeFiles/light_switch_provisioner_nrf52832_xxAA_s132_6.0.0.dir/__/__/__/mesh/core/src/nrf_mesh_utils.c.obj
 .text.nrf_mesh_rand_get
                0x0000000000000000       0x10 CMakeFiles/light_switch_provisioner_nrf52832_xxAA_s132_6.0.0.dir/__/__/__/mesh/core/src/nrf_mesh_utils.c.obj
 .text.nrf_mesh_gap_address_type_get
                0x0000000000000000       0x34 CMakeFiles/light_switch_provisioner_nrf52832_xxAA_s132_6.0.0.dir/__/__/__/mesh/core/src/nrf_mesh_utils.c.obj
 .text          0x0000000000000000        0x0 CMakeFiles/light_switch_provisioner_nrf52832_xxAA_s132_6.0.0.dir/__/__/__/mesh/core/src/nrf_mesh.c.obj
 .data          0x0000000000000000        0x0 CMakeFiles/light_switch_provisioner_nrf52832_xxAA_s132_6.0.0.dir/__/__/__/mesh/core/src/nrf_mesh.c.obj
 .bss           0x0000000000000000        0x0 CMakeFiles/light_switch_provisioner_nrf52832_xxAA_s132_6.0.0.dir/__/__/__/mesh/core/src/nrf_mesh.c.obj
 .text.nrf_mesh_disable
                0x0000000000000000       0x30 CMakeFiles/light_switch_provisioner_nrf52832_xxAA_s132_6.0.0.dir/__/__/__/mesh/core/src/nrf_mesh.c.obj
 .text.nrf_mesh_process
                0x0000000000000000        0x4 CMakeFiles/light_switch_provisioner_nrf52832_xxAA_s132_6.0.0.dir/__/__/__/mesh/core/src/nrf_mesh.c.obj
 .text.nrf_mesh_evt_handler_remove
                0x0000000000000000        0x4 CMakeFiles/light_switch_provisioner_nrf52832_xxAA_s132_6.0.0.dir/__/__/__/mesh/core/src/nrf_mesh.c.obj
 .text.nrf_mesh_rx_cb_set
                0x0000000000000000        0xc CMakeFiles/light_switch_provisioner_nrf52832_xxAA_s132_6.0.0.dir/__/__/__/mesh/core/src/nrf_mesh.c.obj
 .text.nrf_mesh_rx_cb_clear
                0x0000000000000000        0xc CMakeFiles/light_switch_provisioner_nrf52832_xxAA_s132_6.0.0.dir/__/__/__/mesh/core/src/nrf_mesh.c.obj
 .text          0x0000000000000000        0x0 CMakeFiles/light_switch_provisioner_nrf52832_xxAA_s132_6.0.0.dir/__/__/__/mesh/core/src/queue.c.obj
 .data          0x0000000000000000        0x0 CMakeFiles/light_switch_provisioner_nrf52832_xxAA_s132_6.0.0.dir/__/__/__/mesh/core/src/queue.c.obj
 .bss           0x0000000000000000        0x0 CMakeFiles/light_switch_provisioner_nrf52832_xxAA_s132_6.0.0.dir/__/__/__/mesh/core/src/queue.c.obj
 .text          0x0000000000000000        0x0 CMakeFiles/light_switch_provisioner_nrf52832_xxAA_s132_6.0.0.dir/__/__/__/mesh/core/src/hal.c.obj
 .data          0x0000000000000000        0x0 CMakeFiles/light_switch_provisioner_nrf52832_xxAA_s132_6.0.0.dir/__/__/__/mesh/core/src/hal.c.obj
 .bss           0x0000000000000000        0x0 CMakeFiles/light_switch_provisioner_nrf52832_xxAA_s132_6.0.0.dir/__/__/__/mesh/core/src/hal.c.obj
 .text          0x0000000000000000        0x0 CMakeFiles/light_switch_provisioner_nrf52832_xxAA_s132_6.0.0.dir/__/__/__/mesh/core/src/aes_cmac.c.obj
 .data          0x0000000000000000        0x0 CMakeFiles/light_switch_provisioner_nrf52832_xxAA_s132_6.0.0.dir/__/__/__/mesh/core/src/aes_cmac.c.obj
 .bss           0x0000000000000000        0x0 CMakeFiles/light_switch_provisioner_nrf52832_xxAA_s132_6.0.0.dir/__/__/__/mesh/core/src/aes_cmac.c.obj
 .text          0x0000000000000000        0x0 CMakeFiles/light_switch_provisioner_nrf52832_xxAA_s132_6.0.0.dir/__/__/__/mesh/core/src/timer_scheduler.c.obj
 .data          0x0000000000000000        0x0 CMakeFiles/light_switch_provisioner_nrf52832_xxAA_s132_6.0.0.dir/__/__/__/mesh/core/src/timer_scheduler.c.obj
 .bss           0x0000000000000000        0x0 CMakeFiles/light_switch_provisioner_nrf52832_xxAA_s132_6.0.0.dir/__/__/__/mesh/core/src/timer_scheduler.c.obj
 .text          0x0000000000000000        0x0 CMakeFiles/light_switch_provisioner_nrf52832_xxAA_s132_6.0.0.dir/__/__/__/mesh/core/src/timer.c.obj
 .data          0x0000000000000000        0x0 CMakeFiles/light_switch_provisioner_nrf52832_xxAA_s132_6.0.0.dir/__/__/__/mesh/core/src/timer.c.obj
 .bss           0x0000000000000000        0x0 CMakeFiles/light_switch_provisioner_nrf52832_xxAA_s132_6.0.0.dir/__/__/__/mesh/core/src/timer.c.obj
 .text.timer_order_cb_ppi
                0x0000000000000000       0xd8 CMakeFiles/light_switch_provisioner_nrf52832_xxAA_s132_6.0.0.dir/__/__/__/mesh/core/src/timer.c.obj
 .text.timer_order_ppi
                0x0000000000000000       0xcc CMakeFiles/light_switch_provisioner_nrf52832_xxAA_s132_6.0.0.dir/__/__/__/mesh/core/src/timer.c.obj
 .text.timer_abort
                0x0000000000000000       0x84 CMakeFiles/light_switch_provisioner_nrf52832_xxAA_s132_6.0.0.dir/__/__/__/mesh/core/src/timer.c.obj
 .text          0x0000000000000000        0x0 CMakeFiles/light_switch_provisioner_nrf52832_xxAA_s132_6.0.0.dir/__/__/__/mesh/core/src/ticker.c.obj
 .data          0x0000000000000000        0x0 CMakeFiles/light_switch_provisioner_nrf52832_xxAA_s132_6.0.0.dir/__/__/__/mesh/core/src/ticker.c.obj
 .bss           0x0000000000000000        0x0 CMakeFiles/light_switch_provisioner_nrf52832_xxAA_s132_6.0.0.dir/__/__/__/mesh/core/src/ticker.c.obj
 .text.ticker_get
                0x0000000000000000        0xc CMakeFiles/light_switch_provisioner_nrf52832_xxAA_s132_6.0.0.dir/__/__/__/mesh/core/src/ticker.c.obj
 .text          0x0000000000000000        0x0 CMakeFiles/light_switch_provisioner_nrf52832_xxAA_s132_6.0.0.dir/__/__/__/mesh/core/src/rand.c.obj
 .data          0x0000000000000000        0x0 CMakeFiles/light_switch_provisioner_nrf52832_xxAA_s132_6.0.0.dir/__/__/__/mesh/core/src/rand.c.obj
 .bss           0x0000000000000000        0x0 CMakeFiles/light_switch_provisioner_nrf52832_xxAA_s132_6.0.0.dir/__/__/__/mesh/core/src/rand.c.obj
 .text          0x0000000000000000        0x0 CMakeFiles/light_switch_provisioner_nrf52832_xxAA_s132_6.0.0.dir/__/__/__/mesh/core/src/nrf_mesh_opt.c.obj
 .data          0x0000000000000000        0x0 CMakeFiles/light_switch_provisioner_nrf52832_xxAA_s132_6.0.0.dir/__/__/__/mesh/core/src/nrf_mesh_opt.c.obj
 .bss           0x0000000000000000        0x0 CMakeFiles/light_switch_provisioner_nrf52832_xxAA_s132_6.0.0.dir/__/__/__/mesh/core/src/nrf_mesh_opt.c.obj
 .text          0x0000000000000000        0x0 CMakeFiles/light_switch_provisioner_nrf52832_xxAA_s132_6.0.0.dir/__/__/__/mesh/core/src/timeslot.c.obj
 .data          0x0000000000000000        0x0 CMakeFiles/light_switch_provisioner_nrf52832_xxAA_s132_6.0.0.dir/__/__/__/mesh/core/src/timeslot.c.obj
 .bss           0x0000000000000000        0x0 CMakeFiles/light_switch_provisioner_nrf52832_xxAA_s132_6.0.0.dir/__/__/__/mesh/core/src/timeslot.c.obj
 .text.timeslot_restart
                0x0000000000000000       0x30 CMakeFiles/light_switch_provisioner_nrf52832_xxAA_s132_6.0.0.dir/__/__/__/mesh/core/src/timeslot.c.obj
 .text.timeslot_end_time_get
                0x0000000000000000       0x30 CMakeFiles/light_switch_provisioner_nrf52832_xxAA_s132_6.0.0.dir/__/__/__/mesh/core/src/timeslot.c.obj
 .text.timeslot_is_in_ts
                0x0000000000000000        0xc CMakeFiles/light_switch_provisioner_nrf52832_xxAA_s132_6.0.0.dir/__/__/__/mesh/core/src/timeslot.c.obj
 .text          0x0000000000000000        0x0 CMakeFiles/light_switch_provisioner_nrf52832_xxAA_s132_6.0.0.dir/__/__/__/mesh/core/src/bearer_event.c.obj
 .data          0x0000000000000000        0x0 CMakeFiles/light_switch_provisioner_nrf52832_xxAA_s132_6.0.0.dir/__/__/__/mesh/core/src/bearer_event.c.obj
 .bss           0x0000000000000000        0x0 CMakeFiles/light_switch_provisioner_nrf52832_xxAA_s132_6.0.0.dir/__/__/__/mesh/core/src/bearer_event.c.obj
 .text.bearer_event_generic_post
                0x0000000000000000       0x50 CMakeFiles/light_switch_provisioner_nrf52832_xxAA_s132_6.0.0.dir/__/__/__/mesh/core/src/bearer_event.c.obj
 .text.bearer_event_timer_sch_post
                0x0000000000000000       0x54 CMakeFiles/light_switch_provisioner_nrf52832_xxAA_s132_6.0.0.dir/__/__/__/mesh/core/src/bearer_event.c.obj
 .text.bearer_event_in_correct_irq_priority
                0x0000000000000000       0x58 CMakeFiles/light_switch_provisioner_nrf52832_xxAA_s132_6.0.0.dir/__/__/__/mesh/core/src/bearer_event.c.obj
 .text          0x0000000000000000        0x0 CMakeFiles/light_switch_provisioner_nrf52832_xxAA_s132_6.0.0.dir/__/__/__/mesh/core/src/enc.c.obj
 .data          0x0000000000000000        0x0 CMakeFiles/light_switch_provisioner_nrf52832_xxAA_s132_6.0.0.dir/__/__/__/mesh/core/src/enc.c.obj
 .bss           0x0000000000000000        0x0 CMakeFiles/light_switch_provisioner_nrf52832_xxAA_s132_6.0.0.dir/__/__/__/mesh/core/src/enc.c.obj
 .text.enc_key_generate
                0x0000000000000000        0x8 CMakeFiles/light_switch_provisioner_nrf52832_xxAA_s132_6.0.0.dir/__/__/__/mesh/core/src/enc.c.obj
 .text          0x0000000000000000        0x0 CMakeFiles/light_switch_provisioner_nrf52832_xxAA_s132_6.0.0.dir/__/__/__/mesh/core/src/network.c.obj
 .data          0x0000000000000000        0x0 CMakeFiles/light_switch_provisioner_nrf52832_xxAA_s132_6.0.0.dir/__/__/__/mesh/core/src/network.c.obj
 .bss           0x0000000000000000        0x0 CMakeFiles/light_switch_provisioner_nrf52832_xxAA_s132_6.0.0.dir/__/__/__/mesh/core/src/network.c.obj
 .text.network_packet_discard
                0x0000000000000000       0x28 CMakeFiles/light_switch_provisioner_nrf52832_xxAA_s132_6.0.0.dir/__/__/__/mesh/core/src/network.c.obj
 .text          0x0000000000000000        0x0 CMakeFiles/light_switch_provisioner_nrf52832_xxAA_s132_6.0.0.dir/__/__/__/mesh/core/src/net_packet.c.obj
 .data          0x0000000000000000        0x0 CMakeFiles/light_switch_provisioner_nrf52832_xxAA_s132_6.0.0.dir/__/__/__/mesh/core/src/net_packet.c.obj
 .bss           0x0000000000000000        0x0 CMakeFiles/light_switch_provisioner_nrf52832_xxAA_s132_6.0.0.dir/__/__/__/mesh/core/src/net_packet.c.obj
 .text.net_packet_enc_start_get
                0x0000000000000000        0x4 CMakeFiles/light_switch_provisioner_nrf52832_xxAA_s132_6.0.0.dir/__/__/__/mesh/core/src/net_packet.c.obj
 .text.net_packet_payload_get
                0x0000000000000000        0x4 CMakeFiles/light_switch_provisioner_nrf52832_xxAA_s132_6.0.0.dir/__/__/__/mesh/core/src/net_packet.c.obj
 .text          0x0000000000000000        0x0 CMakeFiles/light_switch_provisioner_nrf52832_xxAA_s132_6.0.0.dir/__/__/__/mesh/core/src/msqueue.c.obj
 .data          0x0000000000000000        0x0 CMakeFiles/light_switch_provisioner_nrf52832_xxAA_s132_6.0.0.dir/__/__/__/mesh/core/src/msqueue.c.obj
 .bss           0x0000000000000000        0x0 CMakeFiles/light_switch_provisioner_nrf52832_xxAA_s132_6.0.0.dir/__/__/__/mesh/core/src/msqueue.c.obj
 .text.msq_reset
                0x0000000000000000       0x24 CMakeFiles/light_switch_provisioner_nrf52832_xxAA_s132_6.0.0.dir/__/__/__/mesh/core/src/msqueue.c.obj
 .text          0x0000000000000000        0x0 CMakeFiles/light_switch_provisioner_nrf52832_xxAA_s132_6.0.0.dir/__/__/__/mesh/core/src/nrf_mesh_keygen.c.obj
 .data          0x0000000000000000        0x0 CMakeFiles/light_switch_provisioner_nrf52832_xxAA_s132_6.0.0.dir/__/__/__/mesh/core/src/nrf_mesh_keygen.c.obj
 .bss           0x0000000000000000        0x0 CMakeFiles/light_switch_provisioner_nrf52832_xxAA_s132_6.0.0.dir/__/__/__/mesh/core/src/nrf_mesh_keygen.c.obj
 .text.nrf_mesh_keygen_identitykey
                0x0000000000000000       0x4c CMakeFiles/light_switch_provisioner_nrf52832_xxAA_s132_6.0.0.dir/__/__/__/mesh/core/src/nrf_mesh_keygen.c.obj
 .text          0x0000000000000000        0x0 CMakeFiles/light_switch_provisioner_nrf52832_xxAA_s132_6.0.0.dir/__/__/__/mesh/core/src/cache.c.obj
 .data          0x0000000000000000        0x0 CMakeFiles/light_switch_provisioner_nrf52832_xxAA_s132_6.0.0.dir/__/__/__/mesh/core/src/cache.c.obj
 .bss           0x0000000000000000        0x0 CMakeFiles/light_switch_provisioner_nrf52832_xxAA_s132_6.0.0.dir/__/__/__/mesh/core/src/cache.c.obj
 .text.cache_init
                0x0000000000000000       0x40 CMakeFiles/light_switch_provisioner_nrf52832_xxAA_s132_6.0.0.dir/__/__/__/mesh/core/src/cache.c.obj
 .text.cache_has_elem
                0x0000000000000000       0x54 CMakeFiles/light_switch_provisioner_nrf52832_xxAA_s132_6.0.0.dir/__/__/__/mesh/core/src/cache.c.obj
 .text.cache_put
                0x0000000000000000       0x2c CMakeFiles/light_switch_provisioner_nrf52832_xxAA_s132_6.0.0.dir/__/__/__/mesh/core/src/cache.c.obj
 .text.cache_erase_elem
                0x0000000000000000       0x6c CMakeFiles/light_switch_provisioner_nrf52832_xxAA_s132_6.0.0.dir/__/__/__/mesh/core/src/cache.c.obj
 .debug_info    0x0000000000000000      0xbf9 CMakeFiles/light_switch_provisioner_nrf52832_xxAA_s132_6.0.0.dir/__/__/__/mesh/core/src/cache.c.obj
 .debug_abbrev  0x0000000000000000      0x2e2 CMakeFiles/light_switch_provisioner_nrf52832_xxAA_s132_6.0.0.dir/__/__/__/mesh/core/src/cache.c.obj
 .debug_loc     0x0000000000000000      0x3dc CMakeFiles/light_switch_provisioner_nrf52832_xxAA_s132_6.0.0.dir/__/__/__/mesh/core/src/cache.c.obj
 .debug_aranges
                0x0000000000000000       0x38 CMakeFiles/light_switch_provisioner_nrf52832_xxAA_s132_6.0.0.dir/__/__/__/mesh/core/src/cache.c.obj
 .debug_ranges  0x0000000000000000       0xb0 CMakeFiles/light_switch_provisioner_nrf52832_xxAA_s132_6.0.0.dir/__/__/__/mesh/core/src/cache.c.obj
 .debug_line    0x0000000000000000      0x255 CMakeFiles/light_switch_provisioner_nrf52832_xxAA_s132_6.0.0.dir/__/__/__/mesh/core/src/cache.c.obj
 .debug_str     0x0000000000000000      0x724 CMakeFiles/light_switch_provisioner_nrf52832_xxAA_s132_6.0.0.dir/__/__/__/mesh/core/src/cache.c.obj
 .comment       0x0000000000000000       0x7f CMakeFiles/light_switch_provisioner_nrf52832_xxAA_s132_6.0.0.dir/__/__/__/mesh/core/src/cache.c.obj
 .debug_frame   0x0000000000000000       0x90 CMakeFiles/light_switch_provisioner_nrf52832_xxAA_s132_6.0.0.dir/__/__/__/mesh/core/src/cache.c.obj
 .ARM.attributes
                0x0000000000000000       0x39 CMakeFiles/light_switch_provisioner_nrf52832_xxAA_s132_6.0.0.dir/__/__/__/mesh/core/src/cache.c.obj
 .text          0x0000000000000000        0x0 CMakeFiles/light_switch_provisioner_nrf52832_xxAA_s132_6.0.0.dir/__/__/__/mesh/core/src/uri.c.obj
 .data          0x0000000000000000        0x0 CMakeFiles/light_switch_provisioner_nrf52832_xxAA_s132_6.0.0.dir/__/__/__/mesh/core/src/uri.c.obj
 .bss           0x0000000000000000        0x0 CMakeFiles/light_switch_provisioner_nrf52832_xxAA_s132_6.0.0.dir/__/__/__/mesh/core/src/uri.c.obj
 .text.uri_data_generate
                0x0000000000000000       0x88 CMakeFiles/light_switch_provisioner_nrf52832_xxAA_s132_6.0.0.dir/__/__/__/mesh/core/src/uri.c.obj
 .text.uri_data_parse
                0x0000000000000000       0x84 CMakeFiles/light_switch_provisioner_nrf52832_xxAA_s132_6.0.0.dir/__/__/__/mesh/core/src/uri.c.obj
 .text.uri_scheme_name_code_point
                0x0000000000000000       0x5c CMakeFiles/light_switch_provisioner_nrf52832_xxAA_s132_6.0.0.dir/__/__/__/mesh/core/src/uri.c.obj
 .text.uri_scheme_name_string
                0x0000000000000000       0x14 CMakeFiles/light_switch_provisioner_nrf52832_xxAA_s132_6.0.0.dir/__/__/__/mesh/core/src/uri.c.obj
 .rodata.m_code_point_strings
                0x0000000000000000      0x2ec CMakeFiles/light_switch_provisioner_nrf52832_xxAA_s132_6.0.0.dir/__/__/__/mesh/core/src/uri.c.obj
 .rodata.str1.4
                0x0000000000000000      0x6ba CMakeFiles/light_switch_provisioner_nrf52832_xxAA_s132_6.0.0.dir/__/__/__/mesh/core/src/uri.c.obj
 .debug_info    0x0000000000000000      0xd55 CMakeFiles/light_switch_provisioner_nrf52832_xxAA_s132_6.0.0.dir/__/__/__/mesh/core/src/uri.c.obj
 .debug_abbrev  0x0000000000000000      0x331 CMakeFiles/light_switch_provisioner_nrf52832_xxAA_s132_6.0.0.dir/__/__/__/mesh/core/src/uri.c.obj
 .debug_loc     0x0000000000000000      0x38d CMakeFiles/light_switch_provisioner_nrf52832_xxAA_s132_6.0.0.dir/__/__/__/mesh/core/src/uri.c.obj
 .debug_aranges
                0x0000000000000000       0x38 CMakeFiles/light_switch_provisioner_nrf52832_xxAA_s132_6.0.0.dir/__/__/__/mesh/core/src/uri.c.obj
 .debug_ranges  0x0000000000000000       0x58 CMakeFiles/light_switch_provisioner_nrf52832_xxAA_s132_6.0.0.dir/__/__/__/mesh/core/src/uri.c.obj
 .debug_line    0x0000000000000000      0x31f CMakeFiles/light_switch_provisioner_nrf52832_xxAA_s132_6.0.0.dir/__/__/__/mesh/core/src/uri.c.obj
 .debug_str     0x0000000000000000      0x752 CMakeFiles/light_switch_provisioner_nrf52832_xxAA_s132_6.0.0.dir/__/__/__/mesh/core/src/uri.c.obj
 .comment       0x0000000000000000       0x7f CMakeFiles/light_switch_provisioner_nrf52832_xxAA_s132_6.0.0.dir/__/__/__/mesh/core/src/uri.c.obj
 .debug_frame   0x0000000000000000       0x8c CMakeFiles/light_switch_provisioner_nrf52832_xxAA_s132_6.0.0.dir/__/__/__/mesh/core/src/uri.c.obj
 .ARM.attributes
                0x0000000000000000       0x39 CMakeFiles/light_switch_provisioner_nrf52832_xxAA_s132_6.0.0.dir/__/__/__/mesh/core/src/uri.c.obj
 .text          0x0000000000000000        0x0 CMakeFiles/light_switch_provisioner_nrf52832_xxAA_s132_6.0.0.dir/__/__/__/mesh/core/src/list.c.obj
 .data          0x0000000000000000        0x0 CMakeFiles/light_switch_provisioner_nrf52832_xxAA_s132_6.0.0.dir/__/__/__/mesh/core/src/list.c.obj
 .bss           0x0000000000000000        0x0 CMakeFiles/light_switch_provisioner_nrf52832_xxAA_s132_6.0.0.dir/__/__/__/mesh/core/src/list.c.obj
 .text.list_size_get
                0x0000000000000000       0x14 CMakeFiles/light_switch_provisioner_nrf52832_xxAA_s132_6.0.0.dir/__/__/__/mesh/core/src/list.c.obj
 .text.list_sorted_add
                0x0000000000000000       0x88 CMakeFiles/light_switch_provisioner_nrf52832_xxAA_s132_6.0.0.dir/__/__/__/mesh/core/src/list.c.obj
 .text          0x0000000000000000        0x0 CMakeFiles/light_switch_provisioner_nrf52832_xxAA_s132_6.0.0.dir/__/__/__/mesh/core/src/log.c.obj
 .data          0x0000000000000000        0x0 CMakeFiles/light_switch_provisioner_nrf52832_xxAA_s132_6.0.0.dir/__/__/__/mesh/core/src/log.c.obj
 .bss           0x0000000000000000        0x0 CMakeFiles/light_switch_provisioner_nrf52832_xxAA_s132_6.0.0.dir/__/__/__/mesh/core/src/log.c.obj
 .text.log_callback_logview
                0x0000000000000000       0x38 CMakeFiles/light_switch_provisioner_nrf52832_xxAA_s132_6.0.0.dir/__/__/__/mesh/core/src/log.c.obj
 .text.log_set_callback
                0x0000000000000000        0xc CMakeFiles/light_switch_provisioner_nrf52832_xxAA_s132_6.0.0.dir/__/__/__/mesh/core/src/log.c.obj
 .text.log_vprintf
                0x0000000000000000       0x1c CMakeFiles/light_switch_provisioner_nrf52832_xxAA_s132_6.0.0.dir/__/__/__/mesh/core/src/log.c.obj
 .rodata.log_callback_logview.str1.4
                0x0000000000000000       0x12 CMakeFiles/light_switch_provisioner_nrf52832_xxAA_s132_6.0.0.dir/__/__/__/mesh/core/src/log.c.obj
 .text          0x0000000000000000        0x0 CMakeFiles/light_switch_provisioner_nrf52832_xxAA_s132_6.0.0.dir/__/__/__/mesh/core/src/flash_manager.c.obj
 .data          0x0000000000000000        0x0 CMakeFiles/light_switch_provisioner_nrf52832_xxAA_s132_6.0.0.dir/__/__/__/mesh/core/src/flash_manager.c.obj
 .bss           0x0000000000000000        0x0 CMakeFiles/light_switch_provisioner_nrf52832_xxAA_s132_6.0.0.dir/__/__/__/mesh/core/src/flash_manager.c.obj
 .text.flash_manager_entry_count_get
                0x0000000000000000       0xfc CMakeFiles/light_switch_provisioner_nrf52832_xxAA_s132_6.0.0.dir/__/__/__/mesh/core/src/flash_manager.c.obj
 .text.flash_manager_entry_release
                0x0000000000000000       0x74 CMakeFiles/light_switch_provisioner_nrf52832_xxAA_s132_6.0.0.dir/__/__/__/mesh/core/src/flash_manager.c.obj
 .text          0x0000000000000000        0x0 CMakeFiles/light_switch_provisioner_nrf52832_xxAA_s132_6.0.0.dir/__/__/__/mesh/core/src/ccm_soft.c.obj
 .data          0x0000000000000000        0x0 CMakeFiles/light_switch_provisioner_nrf52832_xxAA_s132_6.0.0.dir/__/__/__/mesh/core/src/ccm_soft.c.obj
 .bss           0x0000000000000000        0x0 CMakeFiles/light_switch_provisioner_nrf52832_xxAA_s132_6.0.0.dir/__/__/__/mesh/core/src/ccm_soft.c.obj
 .text          0x0000000000000000        0x0 CMakeFiles/light_switch_provisioner_nrf52832_xxAA_s132_6.0.0.dir/__/__/__/mesh/core/src/toolchain.c.obj
 .data          0x0000000000000000        0x0 CMakeFiles/light_switch_provisioner_nrf52832_xxAA_s132_6.0.0.dir/__/__/__/mesh/core/src/toolchain.c.obj
 .bss           0x0000000000000000        0x0 CMakeFiles/light_switch_provisioner_nrf52832_xxAA_s132_6.0.0.dir/__/__/__/mesh/core/src/toolchain.c.obj
 .debug_info    0x0000000000000000       0xac CMakeFiles/light_switch_provisioner_nrf52832_xxAA_s132_6.0.0.dir/__/__/__/mesh/core/src/toolchain.c.obj
 .debug_abbrev  0x0000000000000000       0x5c CMakeFiles/light_switch_provisioner_nrf52832_xxAA_s132_6.0.0.dir/__/__/__/mesh/core/src/toolchain.c.obj
 .debug_aranges
                0x0000000000000000       0x18 CMakeFiles/light_switch_provisioner_nrf52832_xxAA_s132_6.0.0.dir/__/__/__/mesh/core/src/toolchain.c.obj
 .debug_line    0x0000000000000000      0x12e CMakeFiles/light_switch_provisioner_nrf52832_xxAA_s132_6.0.0.dir/__/__/__/mesh/core/src/toolchain.c.obj
 .debug_str     0x0000000000000000      0x26f CMakeFiles/light_switch_provisioner_nrf52832_xxAA_s132_6.0.0.dir/__/__/__/mesh/core/src/toolchain.c.obj
 .comment       0x0000000000000000       0x7f CMakeFiles/light_switch_provisioner_nrf52832_xxAA_s132_6.0.0.dir/__/__/__/mesh/core/src/toolchain.c.obj
 .ARM.attributes
                0x0000000000000000       0x39 CMakeFiles/light_switch_provisioner_nrf52832_xxAA_s132_6.0.0.dir/__/__/__/mesh/core/src/toolchain.c.obj
 .text          0x0000000000000000        0x0 CMakeFiles/light_switch_provisioner_nrf52832_xxAA_s132_6.0.0.dir/__/__/__/mesh/core/src/replay_cache.c.obj
 .data          0x0000000000000000        0x0 CMakeFiles/light_switch_provisioner_nrf52832_xxAA_s132_6.0.0.dir/__/__/__/mesh/core/src/replay_cache.c.obj
 .bss           0x0000000000000000        0x0 CMakeFiles/light_switch_provisioner_nrf52832_xxAA_s132_6.0.0.dir/__/__/__/mesh/core/src/replay_cache.c.obj
 .text.replay_cache_on_iv_update
                0x0000000000000000       0x30 CMakeFiles/light_switch_provisioner_nrf52832_xxAA_s132_6.0.0.dir/__/__/__/mesh/core/src/replay_cache.c.obj
 .text.replay_cache_clear
                0x0000000000000000       0x20 CMakeFiles/light_switch_provisioner_nrf52832_xxAA_s132_6.0.0.dir/__/__/__/mesh/core/src/replay_cache.c.obj
 .text          0x0000000000000000        0x0 CMakeFiles/light_switch_provisioner_nrf52832_xxAA_s132_6.0.0.dir/__/__/__/mesh/core/src/beacon.c.obj
 .data          0x0000000000000000        0x0 CMakeFiles/light_switch_provisioner_nrf52832_xxAA_s132_6.0.0.dir/__/__/__/mesh/core/src/beacon.c.obj
 .bss           0x0000000000000000        0x0 CMakeFiles/light_switch_provisioner_nrf52832_xxAA_s132_6.0.0.dir/__/__/__/mesh/core/src/beacon.c.obj
 .text          0x0000000000000000        0x0 CMakeFiles/light_switch_provisioner_nrf52832_xxAA_s132_6.0.0.dir/__/__/__/mesh/core/src/flash_manager_internal.c.obj
 .data          0x0000000000000000        0x0 CMakeFiles/light_switch_provisioner_nrf52832_xxAA_s132_6.0.0.dir/__/__/__/mesh/core/src/flash_manager_internal.c.obj
 .bss           0x0000000000000000        0x0 CMakeFiles/light_switch_provisioner_nrf52832_xxAA_s132_6.0.0.dir/__/__/__/mesh/core/src/flash_manager_internal.c.obj
 .text          0x0000000000000000        0x0 CMakeFiles/light_switch_provisioner_nrf52832_xxAA_s132_6.0.0.dir/__/__/__/mesh/core/src/core_tx.c.obj
 .data          0x0000000000000000        0x0 CMakeFiles/light_switch_provisioner_nrf52832_xxAA_s132_6.0.0.dir/__/__/__/mesh/core/src/core_tx.c.obj
 .bss           0x0000000000000000        0x0 CMakeFiles/light_switch_provisioner_nrf52832_xxAA_s132_6.0.0.dir/__/__/__/mesh/core/src/core_tx.c.obj
 .text.core_tx_bearer_type_get
                0x0000000000000000       0x2c CMakeFiles/light_switch_provisioner_nrf52832_xxAA_s132_6.0.0.dir/__/__/__/mesh/core/src/core_tx.c.obj
 .text.core_tx_bearer_count_get
                0x0000000000000000        0xc CMakeFiles/light_switch_provisioner_nrf52832_xxAA_s132_6.0.0.dir/__/__/__/mesh/core/src/core_tx.c.obj
 .text          0x0000000000000000        0x0 CMakeFiles/light_switch_provisioner_nrf52832_xxAA_s132_6.0.0.dir/__/__/__/mesh/core/src/heartbeat.c.obj
 .data          0x0000000000000000        0x0 CMakeFiles/light_switch_provisioner_nrf52832_xxAA_s132_6.0.0.dir/__/__/__/mesh/core/src/heartbeat.c.obj
 .bss           0x0000000000000000        0x0 CMakeFiles/light_switch_provisioner_nrf52832_xxAA_s132_6.0.0.dir/__/__/__/mesh/core/src/heartbeat.c.obj
 .text          0x0000000000000000        0x0 CMakeFiles/light_switch_provisioner_nrf52832_xxAA_s132_6.0.0.dir/__/__/__/mesh/core/src/net_beacon.c.obj
 .data          0x0000000000000000        0x0 CMakeFiles/light_switch_provisioner_nrf52832_xxAA_s132_6.0.0.dir/__/__/__/mesh/core/src/net_beacon.c.obj
 .bss           0x0000000000000000        0x0 CMakeFiles/light_switch_provisioner_nrf52832_xxAA_s132_6.0.0.dir/__/__/__/mesh/core/src/net_beacon.c.obj
 .text.net_beacon_build
                0x0000000000000000       0x68 CMakeFiles/light_switch_provisioner_nrf52832_xxAA_s132_6.0.0.dir/__/__/__/mesh/core/src/net_beacon.c.obj
 .text          0x0000000000000000        0x0 CMakeFiles/light_switch_provisioner_nrf52832_xxAA_s132_6.0.0.dir/__/__/__/mesh/core/src/fsm.c.obj
 .data          0x0000000000000000        0x0 CMakeFiles/light_switch_provisioner_nrf52832_xxAA_s132_6.0.0.dir/__/__/__/mesh/core/src/fsm.c.obj
 .bss           0x0000000000000000        0x0 CMakeFiles/light_switch_provisioner_nrf52832_xxAA_s132_6.0.0.dir/__/__/__/mesh/core/src/fsm.c.obj
 .text.fsm_event_post_try
                0x0000000000000000      0x24c CMakeFiles/light_switch_provisioner_nrf52832_xxAA_s132_6.0.0.dir/__/__/__/mesh/core/src/fsm.c.obj
 .text.fsm_init
                0x0000000000000000      0x100 CMakeFiles/light_switch_provisioner_nrf52832_xxAA_s132_6.0.0.dir/__/__/__/mesh/core/src/fsm.c.obj
 .text.fsm_event_post
                0x0000000000000000       0xbc CMakeFiles/light_switch_provisioner_nrf52832_xxAA_s132_6.0.0.dir/__/__/__/mesh/core/src/fsm.c.obj
 .text.fsm_is_processing
                0x0000000000000000        0xc CMakeFiles/light_switch_provisioner_nrf52832_xxAA_s132_6.0.0.dir/__/__/__/mesh/core/src/fsm.c.obj
 .rodata.fsm_event_post.str1.4
                0x0000000000000000        0xb CMakeFiles/light_switch_provisioner_nrf52832_xxAA_s132_6.0.0.dir/__/__/__/mesh/core/src/fsm.c.obj
 .rodata.fsm_event_post_try.str1.4
                0x0000000000000000       0x7c CMakeFiles/light_switch_provisioner_nrf52832_xxAA_s132_6.0.0.dir/__/__/__/mesh/core/src/fsm.c.obj
 .rodata.fsm_init.str1.4
                0x0000000000000000        0xa CMakeFiles/light_switch_provisioner_nrf52832_xxAA_s132_6.0.0.dir/__/__/__/mesh/core/src/fsm.c.obj
 .debug_info    0x0000000000000000     0x13e3 CMakeFiles/light_switch_provisioner_nrf52832_xxAA_s132_6.0.0.dir/__/__/__/mesh/core/src/fsm.c.obj
 .debug_abbrev  0x0000000000000000      0x35d CMakeFiles/light_switch_provisioner_nrf52832_xxAA_s132_6.0.0.dir/__/__/__/mesh/core/src/fsm.c.obj
 .debug_loc     0x0000000000000000      0x4f3 CMakeFiles/light_switch_provisioner_nrf52832_xxAA_s132_6.0.0.dir/__/__/__/mesh/core/src/fsm.c.obj
 .debug_aranges
                0x0000000000000000       0x38 CMakeFiles/light_switch_provisioner_nrf52832_xxAA_s132_6.0.0.dir/__/__/__/mesh/core/src/fsm.c.obj
 .debug_ranges  0x0000000000000000       0xd8 CMakeFiles/light_switch_provisioner_nrf52832_xxAA_s132_6.0.0.dir/__/__/__/mesh/core/src/fsm.c.obj
 .debug_line    0x0000000000000000      0x487 CMakeFiles/light_switch_provisioner_nrf52832_xxAA_s132_6.0.0.dir/__/__/__/mesh/core/src/fsm.c.obj
 .debug_str     0x0000000000000000      0x9f9 CMakeFiles/light_switch_provisioner_nrf52832_xxAA_s132_6.0.0.dir/__/__/__/mesh/core/src/fsm.c.obj
 .comment       0x0000000000000000       0x7f CMakeFiles/light_switch_provisioner_nrf52832_xxAA_s132_6.0.0.dir/__/__/__/mesh/core/src/fsm.c.obj
 .debug_frame   0x0000000000000000       0xb0 CMakeFiles/light_switch_provisioner_nrf52832_xxAA_s132_6.0.0.dir/__/__/__/mesh/core/src/fsm.c.obj
 .ARM.attributes
                0x0000000000000000       0x39 CMakeFiles/light_switch_provisioner_nrf52832_xxAA_s132_6.0.0.dir/__/__/__/mesh/core/src/fsm.c.obj
 .text          0x0000000000000000        0x0 CMakeFiles/light_switch_provisioner_nrf52832_xxAA_s132_6.0.0.dir/__/__/__/mesh/core/src/core_tx_adv.c.obj
 .data          0x0000000000000000        0x0 CMakeFiles/light_switch_provisioner_nrf52832_xxAA_s132_6.0.0.dir/__/__/__/mesh/core/src/core_tx_adv.c.obj
 .bss           0x0000000000000000        0x0 CMakeFiles/light_switch_provisioner_nrf52832_xxAA_s132_6.0.0.dir/__/__/__/mesh/core/src/core_tx_adv.c.obj
 .text.core_tx_adv_address_set
                0x0000000000000000       0x28 CMakeFiles/light_switch_provisioner_nrf52832_xxAA_s132_6.0.0.dir/__/__/__/mesh/core/src/core_tx_adv.c.obj
 .text          0x0000000000000000        0x0 CMakeFiles/light_switch_provisioner_nrf52832_xxAA_s132_6.0.0.dir/__/__/__/mesh/bearer/src/ad_listener.c.obj
 .data          0x0000000000000000        0x0 CMakeFiles/light_switch_provisioner_nrf52832_xxAA_s132_6.0.0.dir/__/__/__/mesh/bearer/src/ad_listener.c.obj
 .bss           0x0000000000000000        0x0 CMakeFiles/light_switch_provisioner_nrf52832_xxAA_s132_6.0.0.dir/__/__/__/mesh/bearer/src/ad_listener.c.obj
 .text.ad_listener_unsubscribe
                0x0000000000000000       0x78 CMakeFiles/light_switch_provisioner_nrf52832_xxAA_s132_6.0.0.dir/__/__/__/mesh/bearer/src/ad_listener.c.obj
 .text          0x0000000000000000        0x0 CMakeFiles/light_switch_provisioner_nrf52832_xxAA_s132_6.0.0.dir/__/__/__/mesh/bearer/src/ad_type_filter.c.obj
 .data          0x0000000000000000        0x0 CMakeFiles/light_switch_provisioner_nrf52832_xxAA_s132_6.0.0.dir/__/__/__/mesh/bearer/src/ad_type_filter.c.obj
 .bss           0x0000000000000000        0x0 CMakeFiles/light_switch_provisioner_nrf52832_xxAA_s132_6.0.0.dir/__/__/__/mesh/bearer/src/ad_type_filter.c.obj
 .text.bearer_adtype_remove
                0x0000000000000000       0x28 CMakeFiles/light_switch_provisioner_nrf52832_xxAA_s132_6.0.0.dir/__/__/__/mesh/bearer/src/ad_type_filter.c.obj
 .text.bearer_adtype_clear
                0x0000000000000000       0x10 CMakeFiles/light_switch_provisioner_nrf52832_xxAA_s132_6.0.0.dir/__/__/__/mesh/bearer/src/ad_type_filter.c.obj
 .text.bearer_invalid_length_amount_get
                0x0000000000000000        0xc CMakeFiles/light_switch_provisioner_nrf52832_xxAA_s132_6.0.0.dir/__/__/__/mesh/bearer/src/ad_type_filter.c.obj
 .text.bearer_adtype_filtered_amount_get
                0x0000000000000000        0xc CMakeFiles/light_switch_provisioner_nrf52832_xxAA_s132_6.0.0.dir/__/__/__/mesh/bearer/src/ad_type_filter.c.obj
 .text          0x0000000000000000        0x0 CMakeFiles/light_switch_provisioner_nrf52832_xxAA_s132_6.0.0.dir/__/__/__/mesh/bearer/src/adv_packet_filter.c.obj
 .data          0x0000000000000000        0x0 CMakeFiles/light_switch_provisioner_nrf52832_xxAA_s132_6.0.0.dir/__/__/__/mesh/bearer/src/adv_packet_filter.c.obj
 .bss           0x0000000000000000        0x0 CMakeFiles/light_switch_provisioner_nrf52832_xxAA_s132_6.0.0.dir/__/__/__/mesh/bearer/src/adv_packet_filter.c.obj
 .text.adv_filter_handle
                0x0000000000000000       0x40 CMakeFiles/light_switch_provisioner_nrf52832_xxAA_s132_6.0.0.dir/__/__/__/mesh/bearer/src/adv_packet_filter.c.obj
 .text.bearer_adv_packet_filtering_set
                0x0000000000000000       0x1c CMakeFiles/light_switch_provisioner_nrf52832_xxAA_s132_6.0.0.dir/__/__/__/mesh/bearer/src/adv_packet_filter.c.obj
 .text.bearer_adv_packet_remove
                0x0000000000000000       0x18 CMakeFiles/light_switch_provisioner_nrf52832_xxAA_s132_6.0.0.dir/__/__/__/mesh/bearer/src/adv_packet_filter.c.obj
 .text.bearer_adv_packet_add
                0x0000000000000000       0x14 CMakeFiles/light_switch_provisioner_nrf52832_xxAA_s132_6.0.0.dir/__/__/__/mesh/bearer/src/adv_packet_filter.c.obj
 .text.bearer_adv_packet_clear
                0x0000000000000000        0xc CMakeFiles/light_switch_provisioner_nrf52832_xxAA_s132_6.0.0.dir/__/__/__/mesh/bearer/src/adv_packet_filter.c.obj
 .text.bearer_adv_packet_filter_mode_set
                0x0000000000000000       0x18 CMakeFiles/light_switch_provisioner_nrf52832_xxAA_s132_6.0.0.dir/__/__/__/mesh/bearer/src/adv_packet_filter.c.obj
 .text.bearer_adv_packet_filtered_amount_get
                0x0000000000000000        0xc CMakeFiles/light_switch_provisioner_nrf52832_xxAA_s132_6.0.0.dir/__/__/__/mesh/bearer/src/adv_packet_filter.c.obj
 .bss.m_adv_packet_filter
                0x0000000000000000       0x14 CMakeFiles/light_switch_provisioner_nrf52832_xxAA_s132_6.0.0.dir/__/__/__/mesh/bearer/src/adv_packet_filter.c.obj
 .debug_info    0x0000000000000000      0xd92 CMakeFiles/light_switch_provisioner_nrf52832_xxAA_s132_6.0.0.dir/__/__/__/mesh/bearer/src/adv_packet_filter.c.obj
 .debug_abbrev  0x0000000000000000      0x2cb CMakeFiles/light_switch_provisioner_nrf52832_xxAA_s132_6.0.0.dir/__/__/__/mesh/bearer/src/adv_packet_filter.c.obj
 .debug_loc     0x0000000000000000      0x1b2 CMakeFiles/light_switch_provisioner_nrf52832_xxAA_s132_6.0.0.dir/__/__/__/mesh/bearer/src/adv_packet_filter.c.obj
 .debug_aranges
                0x0000000000000000       0x50 CMakeFiles/light_switch_provisioner_nrf52832_xxAA_s132_6.0.0.dir/__/__/__/mesh/bearer/src/adv_packet_filter.c.obj
 .debug_ranges  0x0000000000000000       0x40 CMakeFiles/light_switch_provisioner_nrf52832_xxAA_s132_6.0.0.dir/__/__/__/mesh/bearer/src/adv_packet_filter.c.obj
 .debug_line    0x0000000000000000      0x486 CMakeFiles/light_switch_provisioner_nrf52832_xxAA_s132_6.0.0.dir/__/__/__/mesh/bearer/src/adv_packet_filter.c.obj
 .debug_str     0x0000000000000000      0xa9d CMakeFiles/light_switch_provisioner_nrf52832_xxAA_s132_6.0.0.dir/__/__/__/mesh/bearer/src/adv_packet_filter.c.obj
 .comment       0x0000000000000000       0x7f CMakeFiles/light_switch_provisioner_nrf52832_xxAA_s132_6.0.0.dir/__/__/__/mesh/bearer/src/adv_packet_filter.c.obj
 .debug_frame   0x0000000000000000       0x88 CMakeFiles/light_switch_provisioner_nrf52832_xxAA_s132_6.0.0.dir/__/__/__/mesh/bearer/src/adv_packet_filter.c.obj
 .ARM.attributes
                0x0000000000000000       0x39 CMakeFiles/light_switch_provisioner_nrf52832_xxAA_s132_6.0.0.dir/__/__/__/mesh/bearer/src/adv_packet_filter.c.obj
 .text          0x0000000000000000        0x0 CMakeFiles/light_switch_provisioner_nrf52832_xxAA_s132_6.0.0.dir/__/__/__/mesh/bearer/src/advertiser.c.obj
 .data          0x0000000000000000        0x0 CMakeFiles/light_switch_provisioner_nrf52832_xxAA_s132_6.0.0.dir/__/__/__/mesh/bearer/src/advertiser.c.obj
 .bss           0x0000000000000000        0x0 CMakeFiles/light_switch_provisioner_nrf52832_xxAA_s132_6.0.0.dir/__/__/__/mesh/bearer/src/advertiser.c.obj
 .text.advertiser_disable
                0x0000000000000000        0xc CMakeFiles/light_switch_provisioner_nrf52832_xxAA_s132_6.0.0.dir/__/__/__/mesh/bearer/src/advertiser.c.obj
 .text.advertiser_config_set
                0x0000000000000000      0x184 CMakeFiles/light_switch_provisioner_nrf52832_xxAA_s132_6.0.0.dir/__/__/__/mesh/bearer/src/advertiser.c.obj
 .text.advertiser_channels_set
                0x0000000000000000       0x98 CMakeFiles/light_switch_provisioner_nrf52832_xxAA_s132_6.0.0.dir/__/__/__/mesh/bearer/src/advertiser.c.obj
 .text.advertiser_address_set
                0x0000000000000000       0x74 CMakeFiles/light_switch_provisioner_nrf52832_xxAA_s132_6.0.0.dir/__/__/__/mesh/bearer/src/advertiser.c.obj
 .text.advertiser_config_get
                0x0000000000000000       0x24 CMakeFiles/light_switch_provisioner_nrf52832_xxAA_s132_6.0.0.dir/__/__/__/mesh/bearer/src/advertiser.c.obj
 .text.advertiser_address_default_get
                0x0000000000000000       0x5c CMakeFiles/light_switch_provisioner_nrf52832_xxAA_s132_6.0.0.dir/__/__/__/mesh/bearer/src/advertiser.c.obj
 .text          0x0000000000000000        0x0 CMakeFiles/light_switch_provisioner_nrf52832_xxAA_s132_6.0.0.dir/__/__/__/mesh/bearer/src/bearer_handler.c.obj
 .data          0x0000000000000000        0x0 CMakeFiles/light_switch_provisioner_nrf52832_xxAA_s132_6.0.0.dir/__/__/__/mesh/bearer/src/bearer_handler.c.obj
 .bss           0x0000000000000000        0x0 CMakeFiles/light_switch_provisioner_nrf52832_xxAA_s132_6.0.0.dir/__/__/__/mesh/bearer/src/bearer_handler.c.obj
 .text.bearer_handler_stop
                0x0000000000000000       0x20 CMakeFiles/light_switch_provisioner_nrf52832_xxAA_s132_6.0.0.dir/__/__/__/mesh/bearer/src/bearer_handler.c.obj
 .text.bearer_handler_action_fire
                0x0000000000000000       0xa0 CMakeFiles/light_switch_provisioner_nrf52832_xxAA_s132_6.0.0.dir/__/__/__/mesh/bearer/src/bearer_handler.c.obj
 .text          0x0000000000000000        0x0 CMakeFiles/light_switch_provisioner_nrf52832_xxAA_s132_6.0.0.dir/__/__/__/mesh/bearer/src/broadcast.c.obj
 .data          0x0000000000000000        0x0 CMakeFiles/light_switch_provisioner_nrf52832_xxAA_s132_6.0.0.dir/__/__/__/mesh/bearer/src/broadcast.c.obj
 .bss           0x0000000000000000        0x0 CMakeFiles/light_switch_provisioner_nrf52832_xxAA_s132_6.0.0.dir/__/__/__/mesh/bearer/src/broadcast.c.obj
 .text          0x0000000000000000        0x0 CMakeFiles/light_switch_provisioner_nrf52832_xxAA_s132_6.0.0.dir/__/__/__/mesh/bearer/src/filter_engine.c.obj
 .data          0x0000000000000000        0x0 CMakeFiles/light_switch_provisioner_nrf52832_xxAA_s132_6.0.0.dir/__/__/__/mesh/bearer/src/filter_engine.c.obj
 .bss           0x0000000000000000        0x0 CMakeFiles/light_switch_provisioner_nrf52832_xxAA_s132_6.0.0.dir/__/__/__/mesh/bearer/src/filter_engine.c.obj
 .text.fen_accepted_amount_get
                0x0000000000000000        0xc CMakeFiles/light_switch_provisioner_nrf52832_xxAA_s132_6.0.0.dir/__/__/__/mesh/bearer/src/filter_engine.c.obj
 .text          0x0000000000000000        0x0 CMakeFiles/light_switch_provisioner_nrf52832_xxAA_s132_6.0.0.dir/__/__/__/mesh/bearer/src/gap_address_filter.c.obj
 .data          0x0000000000000000        0x0 CMakeFiles/light_switch_provisioner_nrf52832_xxAA_s132_6.0.0.dir/__/__/__/mesh/bearer/src/gap_address_filter.c.obj
 .bss           0x0000000000000000        0x0 CMakeFiles/light_switch_provisioner_nrf52832_xxAA_s132_6.0.0.dir/__/__/__/mesh/bearer/src/gap_address_filter.c.obj
 .text.gap_address_filter_handle
                0x0000000000000000       0xb8 CMakeFiles/light_switch_provisioner_nrf52832_xxAA_s132_6.0.0.dir/__/__/__/mesh/bearer/src/gap_address_filter.c.obj
 .text.bearer_filter_gap_addr_whitelist_set
                0x0000000000000000       0x48 CMakeFiles/light_switch_provisioner_nrf52832_xxAA_s132_6.0.0.dir/__/__/__/mesh/bearer/src/gap_address_filter.c.obj
 .text.bearer_filter_gap_addr_blacklist_set
                0x0000000000000000       0x4c CMakeFiles/light_switch_provisioner_nrf52832_xxAA_s132_6.0.0.dir/__/__/__/mesh/bearer/src/gap_address_filter.c.obj
 .text.bearer_filter_gap_addr_range_set
                0x0000000000000000       0x64 CMakeFiles/light_switch_provisioner_nrf52832_xxAA_s132_6.0.0.dir/__/__/__/mesh/bearer/src/gap_address_filter.c.obj
 .text.bearer_filter_gap_addr_clear
                0x0000000000000000       0x24 CMakeFiles/light_switch_provisioner_nrf52832_xxAA_s132_6.0.0.dir/__/__/__/mesh/bearer/src/gap_address_filter.c.obj
 .text.bearer_gap_addr_filtered_amount_get
                0x0000000000000000        0xc CMakeFiles/light_switch_provisioner_nrf52832_xxAA_s132_6.0.0.dir/__/__/__/mesh/bearer/src/gap_address_filter.c.obj
 .bss.m_addr_filter
                0x0000000000000000       0x18 CMakeFiles/light_switch_provisioner_nrf52832_xxAA_s132_6.0.0.dir/__/__/__/mesh/bearer/src/gap_address_filter.c.obj
 .debug_info    0x0000000000000000      0xf34 CMakeFiles/light_switch_provisioner_nrf52832_xxAA_s132_6.0.0.dir/__/__/__/mesh/bearer/src/gap_address_filter.c.obj
 .debug_abbrev  0x0000000000000000      0x2f8 CMakeFiles/light_switch_provisioner_nrf52832_xxAA_s132_6.0.0.dir/__/__/__/mesh/bearer/src/gap_address_filter.c.obj
 .debug_loc     0x0000000000000000      0x823 CMakeFiles/light_switch_provisioner_nrf52832_xxAA_s132_6.0.0.dir/__/__/__/mesh/bearer/src/gap_address_filter.c.obj
 .debug_aranges
                0x0000000000000000       0x48 CMakeFiles/light_switch_provisioner_nrf52832_xxAA_s132_6.0.0.dir/__/__/__/mesh/bearer/src/gap_address_filter.c.obj
 .debug_ranges  0x0000000000000000      0x100 CMakeFiles/light_switch_provisioner_nrf52832_xxAA_s132_6.0.0.dir/__/__/__/mesh/bearer/src/gap_address_filter.c.obj
 .debug_line    0x0000000000000000      0x516 CMakeFiles/light_switch_provisioner_nrf52832_xxAA_s132_6.0.0.dir/__/__/__/mesh/bearer/src/gap_address_filter.c.obj
 .debug_str     0x0000000000000000      0x9f7 CMakeFiles/light_switch_provisioner_nrf52832_xxAA_s132_6.0.0.dir/__/__/__/mesh/bearer/src/gap_address_filter.c.obj
 .comment       0x0000000000000000       0x7f CMakeFiles/light_switch_provisioner_nrf52832_xxAA_s132_6.0.0.dir/__/__/__/mesh/bearer/src/gap_address_filter.c.obj
 .debug_frame   0x0000000000000000       0xd4 CMakeFiles/light_switch_provisioner_nrf52832_xxAA_s132_6.0.0.dir/__/__/__/mesh/bearer/src/gap_address_filter.c.obj
 .ARM.attributes
                0x0000000000000000       0x39 CMakeFiles/light_switch_provisioner_nrf52832_xxAA_s132_6.0.0.dir/__/__/__/mesh/bearer/src/gap_address_filter.c.obj
 .text          0x0000000000000000        0x0 CMakeFiles/light_switch_provisioner_nrf52832_xxAA_s132_6.0.0.dir/__/__/__/mesh/bearer/src/radio_config.c.obj
 .data          0x0000000000000000        0x0 CMakeFiles/light_switch_provisioner_nrf52832_xxAA_s132_6.0.0.dir/__/__/__/mesh/bearer/src/radio_config.c.obj
 .bss           0x0000000000000000        0x0 CMakeFiles/light_switch_provisioner_nrf52832_xxAA_s132_6.0.0.dir/__/__/__/mesh/bearer/src/radio_config.c.obj
 .text.radio_config_access_addr_get
                0x0000000000000000       0x58 CMakeFiles/light_switch_provisioner_nrf52832_xxAA_s132_6.0.0.dir/__/__/__/mesh/bearer/src/radio_config.c.obj
 .text          0x0000000000000000        0x0 CMakeFiles/light_switch_provisioner_nrf52832_xxAA_s132_6.0.0.dir/__/__/__/mesh/bearer/src/rssi_filter.c.obj
 .data          0x0000000000000000        0x0 CMakeFiles/light_switch_provisioner_nrf52832_xxAA_s132_6.0.0.dir/__/__/__/mesh/bearer/src/rssi_filter.c.obj
 .bss           0x0000000000000000        0x0 CMakeFiles/light_switch_provisioner_nrf52832_xxAA_s132_6.0.0.dir/__/__/__/mesh/bearer/src/rssi_filter.c.obj
 .text.rssi_filter_handle
                0x0000000000000000       0x20 CMakeFiles/light_switch_provisioner_nrf52832_xxAA_s132_6.0.0.dir/__/__/__/mesh/bearer/src/rssi_filter.c.obj
 .text.bearer_rssi_filtering_set
                0x0000000000000000       0x38 CMakeFiles/light_switch_provisioner_nrf52832_xxAA_s132_6.0.0.dir/__/__/__/mesh/bearer/src/rssi_filter.c.obj
 .text.bearer_rssi_filtered_amount_get
                0x0000000000000000        0xc CMakeFiles/light_switch_provisioner_nrf52832_xxAA_s132_6.0.0.dir/__/__/__/mesh/bearer/src/rssi_filter.c.obj
 .bss.m_rssi_filter
                0x0000000000000000       0x18 CMakeFiles/light_switch_provisioner_nrf52832_xxAA_s132_6.0.0.dir/__/__/__/mesh/bearer/src/rssi_filter.c.obj
 .debug_info    0x0000000000000000      0xc70 CMakeFiles/light_switch_provisioner_nrf52832_xxAA_s132_6.0.0.dir/__/__/__/mesh/bearer/src/rssi_filter.c.obj
 .debug_abbrev  0x0000000000000000      0x290 CMakeFiles/light_switch_provisioner_nrf52832_xxAA_s132_6.0.0.dir/__/__/__/mesh/bearer/src/rssi_filter.c.obj
 .debug_loc     0x0000000000000000       0xbe CMakeFiles/light_switch_provisioner_nrf52832_xxAA_s132_6.0.0.dir/__/__/__/mesh/bearer/src/rssi_filter.c.obj
 .debug_aranges
                0x0000000000000000       0x30 CMakeFiles/light_switch_provisioner_nrf52832_xxAA_s132_6.0.0.dir/__/__/__/mesh/bearer/src/rssi_filter.c.obj
 .debug_ranges  0x0000000000000000       0x20 CMakeFiles/light_switch_provisioner_nrf52832_xxAA_s132_6.0.0.dir/__/__/__/mesh/bearer/src/rssi_filter.c.obj
 .debug_line    0x0000000000000000      0x3f8 CMakeFiles/light_switch_provisioner_nrf52832_xxAA_s132_6.0.0.dir/__/__/__/mesh/bearer/src/rssi_filter.c.obj
 .debug_str     0x0000000000000000      0x8b2 CMakeFiles/light_switch_provisioner_nrf52832_xxAA_s132_6.0.0.dir/__/__/__/mesh/bearer/src/rssi_filter.c.obj
 .comment       0x0000000000000000       0x7f CMakeFiles/light_switch_provisioner_nrf52832_xxAA_s132_6.0.0.dir/__/__/__/mesh/bearer/src/rssi_filter.c.obj
 .debug_frame   0x0000000000000000       0x58 CMakeFiles/light_switch_provisioner_nrf52832_xxAA_s132_6.0.0.dir/__/__/__/mesh/bearer/src/rssi_filter.c.obj
 .ARM.attributes
                0x0000000000000000       0x39 CMakeFiles/light_switch_provisioner_nrf52832_xxAA_s132_6.0.0.dir/__/__/__/mesh/bearer/src/rssi_filter.c.obj
 .text          0x0000000000000000        0x0 CMakeFiles/light_switch_provisioner_nrf52832_xxAA_s132_6.0.0.dir/__/__/__/mesh/bearer/src/scanner.c.obj
 .data          0x0000000000000000        0x0 CMakeFiles/light_switch_provisioner_nrf52832_xxAA_s132_6.0.0.dir/__/__/__/mesh/bearer/src/scanner.c.obj
 .bss           0x0000000000000000        0x0 CMakeFiles/light_switch_provisioner_nrf52832_xxAA_s132_6.0.0.dir/__/__/__/mesh/bearer/src/scanner.c.obj
 .text.scanner_rx_callback_set
                0x0000000000000000       0x20 CMakeFiles/light_switch_provisioner_nrf52832_xxAA_s132_6.0.0.dir/__/__/__/mesh/bearer/src/scanner.c.obj
 .text.scanner_disable
                0x0000000000000000       0x50 CMakeFiles/light_switch_provisioner_nrf52832_xxAA_s132_6.0.0.dir/__/__/__/mesh/bearer/src/scanner.c.obj
 .text.scanner_is_enabled
                0x0000000000000000       0x14 CMakeFiles/light_switch_provisioner_nrf52832_xxAA_s132_6.0.0.dir/__/__/__/mesh/bearer/src/scanner.c.obj
 .text.scanner_stats_get
                0x0000000000000000        0x8 CMakeFiles/light_switch_provisioner_nrf52832_xxAA_s132_6.0.0.dir/__/__/__/mesh/bearer/src/scanner.c.obj
 .text.scanner_config_radio_mode_set
                0x0000000000000000       0x10 CMakeFiles/light_switch_provisioner_nrf52832_xxAA_s132_6.0.0.dir/__/__/__/mesh/bearer/src/scanner.c.obj
 .text.scanner_config_scan_time_set
                0x0000000000000000       0x88 CMakeFiles/light_switch_provisioner_nrf52832_xxAA_s132_6.0.0.dir/__/__/__/mesh/bearer/src/scanner.c.obj
 .text.scanner_config_channels_set
                0x0000000000000000       0x50 CMakeFiles/light_switch_provisioner_nrf52832_xxAA_s132_6.0.0.dir/__/__/__/mesh/bearer/src/scanner.c.obj
 .text.scanner_config_access_addresses_set
                0x0000000000000000       0x38 CMakeFiles/light_switch_provisioner_nrf52832_xxAA_s132_6.0.0.dir/__/__/__/mesh/bearer/src/scanner.c.obj
 .text          0x0000000000000000        0x0 CMakeFiles/light_switch_provisioner_nrf52832_xxAA_s132_6.0.0.dir/__/__/__/models/simple_on_off/src/simple_on_off_client.c.obj
 .data          0x0000000000000000        0x0 CMakeFiles/light_switch_provisioner_nrf52832_xxAA_s132_6.0.0.dir/__/__/__/models/simple_on_off/src/simple_on_off_client.c.obj
 .bss           0x0000000000000000        0x0 CMakeFiles/light_switch_provisioner_nrf52832_xxAA_s132_6.0.0.dir/__/__/__/models/simple_on_off/src/simple_on_off_client.c.obj
 .text.handle_publish_timeout
                0x0000000000000000        0x8 CMakeFiles/light_switch_provisioner_nrf52832_xxAA_s132_6.0.0.dir/__/__/__/models/simple_on_off/src/simple_on_off_client.c.obj
 .text.reliable_status_cb
                0x0000000000000000       0x7c CMakeFiles/light_switch_provisioner_nrf52832_xxAA_s132_6.0.0.dir/__/__/__/models/simple_on_off/src/simple_on_off_client.c.obj
 .text.handle_status_cb
                0x0000000000000000       0x58 CMakeFiles/light_switch_provisioner_nrf52832_xxAA_s132_6.0.0.dir/__/__/__/models/simple_on_off/src/simple_on_off_client.c.obj
 .text.simple_on_off_client_init
                0x0000000000000000       0x40 CMakeFiles/light_switch_provisioner_nrf52832_xxAA_s132_6.0.0.dir/__/__/__/models/simple_on_off/src/simple_on_off_client.c.obj
 .text.simple_on_off_client_set
                0x0000000000000000       0x74 CMakeFiles/light_switch_provisioner_nrf52832_xxAA_s132_6.0.0.dir/__/__/__/models/simple_on_off/src/simple_on_off_client.c.obj
 .text.simple_on_off_client_set_unreliable
                0x0000000000000000       0x5c CMakeFiles/light_switch_provisioner_nrf52832_xxAA_s132_6.0.0.dir/__/__/__/models/simple_on_off/src/simple_on_off_client.c.obj
 .text.simple_on_off_client_get
                0x0000000000000000       0x60 CMakeFiles/light_switch_provisioner_nrf52832_xxAA_s132_6.0.0.dir/__/__/__/models/simple_on_off/src/simple_on_off_client.c.obj
 .text.simple_on_off_client_pending_msg_cancel
                0x0000000000000000        0x8 CMakeFiles/light_switch_provisioner_nrf52832_xxAA_s132_6.0.0.dir/__/__/__/models/simple_on_off/src/simple_on_off_client.c.obj
 .bss.m_tid     0x0000000000000000        0x1 CMakeFiles/light_switch_provisioner_nrf52832_xxAA_s132_6.0.0.dir/__/__/__/models/simple_on_off/src/simple_on_off_client.c.obj
 .rodata.m_opcode_handlers
                0x0000000000000000        0x8 CMakeFiles/light_switch_provisioner_nrf52832_xxAA_s132_6.0.0.dir/__/__/__/models/simple_on_off/src/simple_on_off_client.c.obj
 .debug_info    0x0000000000000000     0x168b CMakeFiles/light_switch_provisioner_nrf52832_xxAA_s132_6.0.0.dir/__/__/__/models/simple_on_off/src/simple_on_off_client.c.obj
 .debug_abbrev  0x0000000000000000      0x3c9 CMakeFiles/light_switch_provisioner_nrf52832_xxAA_s132_6.0.0.dir/__/__/__/models/simple_on_off/src/simple_on_off_client.c.obj
 .debug_loc     0x0000000000000000      0x805 CMakeFiles/light_switch_provisioner_nrf52832_xxAA_s132_6.0.0.dir/__/__/__/models/simple_on_off/src/simple_on_off_client.c.obj
 .debug_aranges
                0x0000000000000000       0x58 CMakeFiles/light_switch_provisioner_nrf52832_xxAA_s132_6.0.0.dir/__/__/__/models/simple_on_off/src/simple_on_off_client.c.obj
 .debug_ranges  0x0000000000000000       0xc0 CMakeFiles/light_switch_provisioner_nrf52832_xxAA_s132_6.0.0.dir/__/__/__/models/simple_on_off/src/simple_on_off_client.c.obj
 .debug_line    0x0000000000000000      0x5db CMakeFiles/light_switch_provisioner_nrf52832_xxAA_s132_6.0.0.dir/__/__/__/models/simple_on_off/src/simple_on_off_client.c.obj
 .debug_str     0x0000000000000000     0x115f CMakeFiles/light_switch_provisioner_nrf52832_xxAA_s132_6.0.0.dir/__/__/__/models/simple_on_off/src/simple_on_off_client.c.obj
 .comment       0x0000000000000000       0x7f CMakeFiles/light_switch_provisioner_nrf52832_xxAA_s132_6.0.0.dir/__/__/__/models/simple_on_off/src/simple_on_off_client.c.obj
 .debug_frame   0x0000000000000000      0x130 CMakeFiles/light_switch_provisioner_nrf52832_xxAA_s132_6.0.0.dir/__/__/__/models/simple_on_off/src/simple_on_off_client.c.obj
 .ARM.attributes
                0x0000000000000000       0x39 CMakeFiles/light_switch_provisioner_nrf52832_xxAA_s132_6.0.0.dir/__/__/__/models/simple_on_off/src/simple_on_off_client.c.obj
 .text          0x0000000000000000        0x0 CMakeFiles/light_switch_provisioner_nrf52832_xxAA_s132_6.0.0.dir/__/__/__/models/config/src/config_client.c.obj
 .data          0x0000000000000000        0x0 CMakeFiles/light_switch_provisioner_nrf52832_xxAA_s132_6.0.0.dir/__/__/__/models/config/src/config_client.c.obj
 .bss           0x0000000000000000        0x0 CMakeFiles/light_switch_provisioner_nrf52832_xxAA_s132_6.0.0.dir/__/__/__/models/config/src/config_client.c.obj
 .text.config_client_appkey_delete
                0x0000000000000000       0xdc CMakeFiles/light_switch_provisioner_nrf52832_xxAA_s132_6.0.0.dir/__/__/__/models/config/src/config_client.c.obj
 .text.config_client_appkey_get
                0x0000000000000000       0xb4 CMakeFiles/light_switch_provisioner_nrf52832_xxAA_s132_6.0.0.dir/__/__/__/models/config/src/config_client.c.obj
 .text.config_client_appkey_update
                0x0000000000000000       0xe0 CMakeFiles/light_switch_provisioner_nrf52832_xxAA_s132_6.0.0.dir/__/__/__/models/config/src/config_client.c.obj
 .text.config_client_model_publication_get
                0x0000000000000000       0xe0 CMakeFiles/light_switch_provisioner_nrf52832_xxAA_s132_6.0.0.dir/__/__/__/models/config/src/config_client.c.obj
 .text.config_client_net_beacon_get
                0x0000000000000000       0x94 CMakeFiles/light_switch_provisioner_nrf52832_xxAA_s132_6.0.0.dir/__/__/__/models/config/src/config_client.c.obj
 .text.config_client_net_beacon_set
                0x0000000000000000       0xb0 CMakeFiles/light_switch_provisioner_nrf52832_xxAA_s132_6.0.0.dir/__/__/__/models/config/src/config_client.c.obj
 .text.config_client_default_ttl_get
                0x0000000000000000       0x78 CMakeFiles/light_switch_provisioner_nrf52832_xxAA_s132_6.0.0.dir/__/__/__/models/config/src/config_client.c.obj
 .text.config_client_default_ttl_set
                0x0000000000000000       0xbc CMakeFiles/light_switch_provisioner_nrf52832_xxAA_s132_6.0.0.dir/__/__/__/models/config/src/config_client.c.obj
 .text.config_client_model_subscription_delete
                0x0000000000000000      0x188 CMakeFiles/light_switch_provisioner_nrf52832_xxAA_s132_6.0.0.dir/__/__/__/models/config/src/config_client.c.obj
 .text.config_client_model_subscription_delete_all
                0x0000000000000000       0xe0 CMakeFiles/light_switch_provisioner_nrf52832_xxAA_s132_6.0.0.dir/__/__/__/models/config/src/config_client.c.obj
 .text.config_client_model_subscription_get
                0x0000000000000000       0xec CMakeFiles/light_switch_provisioner_nrf52832_xxAA_s132_6.0.0.dir/__/__/__/models/config/src/config_client.c.obj
 .text.config_client_model_subscription_overwrite
                0x0000000000000000      0x188 CMakeFiles/light_switch_provisioner_nrf52832_xxAA_s132_6.0.0.dir/__/__/__/models/config/src/config_client.c.obj
 .text.config_client_relay_get
                0x0000000000000000       0x78 CMakeFiles/light_switch_provisioner_nrf52832_xxAA_s132_6.0.0.dir/__/__/__/models/config/src/config_client.c.obj
 .text.config_client_relay_set
                0x0000000000000000       0xdc CMakeFiles/light_switch_provisioner_nrf52832_xxAA_s132_6.0.0.dir/__/__/__/models/config/src/config_client.c.obj
 .text.config_client_model_app_get
                0x0000000000000000       0xec CMakeFiles/light_switch_provisioner_nrf52832_xxAA_s132_6.0.0.dir/__/__/__/models/config/src/config_client.c.obj
 .text.config_client_model_app_unbind
                0x0000000000000000       0xf0 CMakeFiles/light_switch_provisioner_nrf52832_xxAA_s132_6.0.0.dir/__/__/__/models/config/src/config_client.c.obj
 .text.config_client_netkey_add
                0x0000000000000000       0xc0 CMakeFiles/light_switch_provisioner_nrf52832_xxAA_s132_6.0.0.dir/__/__/__/models/config/src/config_client.c.obj
 .text.config_client_netkey_delete
                0x0000000000000000       0xb4 CMakeFiles/light_switch_provisioner_nrf52832_xxAA_s132_6.0.0.dir/__/__/__/models/config/src/config_client.c.obj
 .text.config_client_netkey_get
                0x0000000000000000       0x94 CMakeFiles/light_switch_provisioner_nrf52832_xxAA_s132_6.0.0.dir/__/__/__/models/config/src/config_client.c.obj
 .text.config_client_netkey_update
                0x0000000000000000       0xc0 CMakeFiles/light_switch_provisioner_nrf52832_xxAA_s132_6.0.0.dir/__/__/__/models/config/src/config_client.c.obj
 .text.config_client_node_reset
                0x0000000000000000       0x94 CMakeFiles/light_switch_provisioner_nrf52832_xxAA_s132_6.0.0.dir/__/__/__/models/config/src/config_client.c.obj
 .text.config_client_key_refresh_phase_get
                0x0000000000000000       0xb4 CMakeFiles/light_switch_provisioner_nrf52832_xxAA_s132_6.0.0.dir/__/__/__/models/config/src/config_client.c.obj
 .text.config_client_key_refresh_phase_set
                0x0000000000000000       0xc8 CMakeFiles/light_switch_provisioner_nrf52832_xxAA_s132_6.0.0.dir/__/__/__/models/config/src/config_client.c.obj
 .text.config_client_friend_get
                0x0000000000000000        0x4 CMakeFiles/light_switch_provisioner_nrf52832_xxAA_s132_6.0.0.dir/__/__/__/models/config/src/config_client.c.obj
 .text.config_client_friend_set
                0x0000000000000000        0x4 CMakeFiles/light_switch_provisioner_nrf52832_xxAA_s132_6.0.0.dir/__/__/__/models/config/src/config_client.c.obj
 .text.config_client_gatt_proxy_get
                0x0000000000000000        0x4 CMakeFiles/light_switch_provisioner_nrf52832_xxAA_s132_6.0.0.dir/__/__/__/models/config/src/config_client.c.obj
 .text.config_client_gatt_proxy_set
                0x0000000000000000        0x4 CMakeFiles/light_switch_provisioner_nrf52832_xxAA_s132_6.0.0.dir/__/__/__/models/config/src/config_client.c.obj
 .text.config_client_node_identity_get
                0x0000000000000000        0x4 CMakeFiles/light_switch_provisioner_nrf52832_xxAA_s132_6.0.0.dir/__/__/__/models/config/src/config_client.c.obj
 .text.config_client_node_identity_set
                0x0000000000000000        0x4 CMakeFiles/light_switch_provisioner_nrf52832_xxAA_s132_6.0.0.dir/__/__/__/models/config/src/config_client.c.obj
 .text.config_client_heartbeat_publication_get
                0x0000000000000000       0x94 CMakeFiles/light_switch_provisioner_nrf52832_xxAA_s132_6.0.0.dir/__/__/__/models/config/src/config_client.c.obj
 .text.config_client_heartbeat_publication_set
                0x0000000000000000       0xc4 CMakeFiles/light_switch_provisioner_nrf52832_xxAA_s132_6.0.0.dir/__/__/__/models/config/src/config_client.c.obj
 .text.config_client_heartbeat_subscription_get
                0x0000000000000000       0x94 CMakeFiles/light_switch_provisioner_nrf52832_xxAA_s132_6.0.0.dir/__/__/__/models/config/src/config_client.c.obj
 .text.config_client_heartbeat_subscription_set
                0x0000000000000000       0xc4 CMakeFiles/light_switch_provisioner_nrf52832_xxAA_s132_6.0.0.dir/__/__/__/models/config/src/config_client.c.obj
 .text          0x0000000000000000        0x0 CMakeFiles/light_switch_provisioner_nrf52832_xxAA_s132_6.0.0.dir/__/__/__/models/config/src/composition_data.c.obj
 .data          0x0000000000000000        0x0 CMakeFiles/light_switch_provisioner_nrf52832_xxAA_s132_6.0.0.dir/__/__/__/models/config/src/composition_data.c.obj
 .bss           0x0000000000000000        0x0 CMakeFiles/light_switch_provisioner_nrf52832_xxAA_s132_6.0.0.dir/__/__/__/models/config/src/composition_data.c.obj
 .text          0x0000000000000000        0x0 CMakeFiles/light_switch_provisioner_nrf52832_xxAA_s132_6.0.0.dir/__/__/__/models/config/src/config_server.c.obj
 .data          0x0000000000000000        0x0 CMakeFiles/light_switch_provisioner_nrf52832_xxAA_s132_6.0.0.dir/__/__/__/models/config/src/config_server.c.obj
 .bss           0x0000000000000000        0x0 CMakeFiles/light_switch_provisioner_nrf52832_xxAA_s132_6.0.0.dir/__/__/__/models/config/src/config_server.c.obj
 .text          0x0000000000000000        0x0 CMakeFiles/light_switch_provisioner_nrf52832_xxAA_s132_6.0.0.dir/__/__/__/models/config/src/packed_index_list.c.obj
 .data          0x0000000000000000        0x0 CMakeFiles/light_switch_provisioner_nrf52832_xxAA_s132_6.0.0.dir/__/__/__/models/config/src/packed_index_list.c.obj
 .bss           0x0000000000000000        0x0 CMakeFiles/light_switch_provisioner_nrf52832_xxAA_s132_6.0.0.dir/__/__/__/models/config/src/packed_index_list.c.obj
 .text          0x0000000000000000        0x0 CMakeFiles/light_switch_provisioner_nrf52832_xxAA_s132_6.0.0.dir/__/__/__/models/health/src/health_server.c.obj
 .data          0x0000000000000000        0x0 CMakeFiles/light_switch_provisioner_nrf52832_xxAA_s132_6.0.0.dir/__/__/__/models/health/src/health_server.c.obj
 .bss           0x0000000000000000        0x0 CMakeFiles/light_switch_provisioner_nrf52832_xxAA_s132_6.0.0.dir/__/__/__/models/health/src/health_server.c.obj
 .text.health_server_fault_register
                0x0000000000000000      0x23c CMakeFiles/light_switch_provisioner_nrf52832_xxAA_s132_6.0.0.dir/__/__/__/models/health/src/health_server.c.obj
 .text.health_server_fault_clear
                0x0000000000000000      0x2d8 CMakeFiles/light_switch_provisioner_nrf52832_xxAA_s132_6.0.0.dir/__/__/__/models/health/src/health_server.c.obj
 .text.health_server_fault_is_set
                0x0000000000000000       0x1c CMakeFiles/light_switch_provisioner_nrf52832_xxAA_s132_6.0.0.dir/__/__/__/models/health/src/health_server.c.obj
 .text.health_server_fault_count_get
                0x0000000000000000      0x14c CMakeFiles/light_switch_provisioner_nrf52832_xxAA_s132_6.0.0.dir/__/__/__/models/health/src/health_server.c.obj
 .text.health_server_attention_get
                0x0000000000000000        0x8 CMakeFiles/light_switch_provisioner_nrf52832_xxAA_s132_6.0.0.dir/__/__/__/models/health/src/health_server.c.obj
 .text.health_server_attention_set
                0x0000000000000000       0x90 CMakeFiles/light_switch_provisioner_nrf52832_xxAA_s132_6.0.0.dir/__/__/__/models/health/src/health_server.c.obj
 .text          0x0000000000000000        0x0 CMakeFiles/light_switch_provisioner_nrf52832_xxAA_s132_6.0.0.dir/__/__/__/models/health/src/health_client.c.obj
 .data          0x0000000000000000        0x0 CMakeFiles/light_switch_provisioner_nrf52832_xxAA_s132_6.0.0.dir/__/__/__/models/health/src/health_client.c.obj
 .bss           0x0000000000000000        0x0 CMakeFiles/light_switch_provisioner_nrf52832_xxAA_s132_6.0.0.dir/__/__/__/models/health/src/health_client.c.obj
 .text.reliable_status_cb
                0x0000000000000000       0x50 CMakeFiles/light_switch_provisioner_nrf52832_xxAA_s132_6.0.0.dir/__/__/__/models/health/src/health_client.c.obj
 .text.health_client_fault_get
                0x0000000000000000       0xa4 CMakeFiles/light_switch_provisioner_nrf52832_xxAA_s132_6.0.0.dir/__/__/__/models/health/src/health_client.c.obj
 .text.health_client_fault_clear
                0x0000000000000000       0xd0 CMakeFiles/light_switch_provisioner_nrf52832_xxAA_s132_6.0.0.dir/__/__/__/models/health/src/health_client.c.obj
 .text.health_client_fault_test
                0x0000000000000000       0xd8 CMakeFiles/light_switch_provisioner_nrf52832_xxAA_s132_6.0.0.dir/__/__/__/models/health/src/health_client.c.obj
 .text.health_client_period_get
                0x0000000000000000       0x88 CMakeFiles/light_switch_provisioner_nrf52832_xxAA_s132_6.0.0.dir/__/__/__/models/health/src/health_client.c.obj
 .text.health_client_period_set
                0x0000000000000000       0xcc CMakeFiles/light_switch_provisioner_nrf52832_xxAA_s132_6.0.0.dir/__/__/__/models/health/src/health_client.c.obj
 .text.health_client_attention_get
                0x0000000000000000       0x88 CMakeFiles/light_switch_provisioner_nrf52832_xxAA_s132_6.0.0.dir/__/__/__/models/health/src/health_client.c.obj
 .text.health_client_attention_set
                0x0000000000000000       0xcc CMakeFiles/light_switch_provisioner_nrf52832_xxAA_s132_6.0.0.dir/__/__/__/models/health/src/health_client.c.obj
 .text.health_client_pending_msg_cancel
                0x0000000000000000        0x8 CMakeFiles/light_switch_provisioner_nrf52832_xxAA_s132_6.0.0.dir/__/__/__/models/health/src/health_client.c.obj
 .text          0x0000000000000000        0x0 CMakeFiles/light_switch_provisioner_nrf52832_xxAA_s132_6.0.0.dir/__/__/__/mesh/access/src/access_publish.c.obj
 .data          0x0000000000000000        0x0 CMakeFiles/light_switch_provisioner_nrf52832_xxAA_s132_6.0.0.dir/__/__/__/mesh/access/src/access_publish.c.obj
 .bss           0x0000000000000000        0x0 CMakeFiles/light_switch_provisioner_nrf52832_xxAA_s132_6.0.0.dir/__/__/__/mesh/access/src/access_publish.c.obj
 .text          0x0000000000000000        0x0 CMakeFiles/light_switch_provisioner_nrf52832_xxAA_s132_6.0.0.dir/__/__/__/mesh/access/src/access.c.obj
 .data          0x0000000000000000        0x0 CMakeFiles/light_switch_provisioner_nrf52832_xxAA_s132_6.0.0.dir/__/__/__/mesh/access/src/access.c.obj
 .bss           0x0000000000000000        0x0 CMakeFiles/light_switch_provisioner_nrf52832_xxAA_s132_6.0.0.dir/__/__/__/mesh/access/src/access.c.obj
 .text.access_model_subscription_lists_share
                0x0000000000000000       0x58 CMakeFiles/light_switch_provisioner_nrf52832_xxAA_s132_6.0.0.dir/__/__/__/mesh/access/src/access.c.obj
 .text.access_element_location_set
                0x0000000000000000       0x20 CMakeFiles/light_switch_provisioner_nrf52832_xxAA_s132_6.0.0.dir/__/__/__/mesh/access/src/access.c.obj
 .text          0x0000000000000000        0x0 CMakeFiles/light_switch_provisioner_nrf52832_xxAA_s132_6.0.0.dir/__/__/__/mesh/access/src/access_reliable.c.obj
 .data          0x0000000000000000        0x0 CMakeFiles/light_switch_provisioner_nrf52832_xxAA_s132_6.0.0.dir/__/__/__/mesh/access/src/access_reliable.c.obj
 .bss           0x0000000000000000        0x0 CMakeFiles/light_switch_provisioner_nrf52832_xxAA_s132_6.0.0.dir/__/__/__/mesh/access/src/access_reliable.c.obj
 .text          0x0000000000000000        0x0 CMakeFiles/light_switch_provisioner_nrf52832_xxAA_s132_6.0.0.dir/__/__/__/mesh/access/src/device_state_manager.c.obj
 .data          0x0000000000000000        0x0 CMakeFiles/light_switch_provisioner_nrf52832_xxAA_s132_6.0.0.dir/__/__/__/mesh/access/src/device_state_manager.c.obj
 .bss           0x0000000000000000        0x0 CMakeFiles/light_switch_provisioner_nrf52832_xxAA_s132_6.0.0.dir/__/__/__/mesh/access/src/device_state_manager.c.obj
 .text.dsm_has_unflashed_data
                0x0000000000000000       0x58 CMakeFiles/light_switch_provisioner_nrf52832_xxAA_s132_6.0.0.dir/__/__/__/mesh/access/src/device_state_manager.c.obj
 .text.dsm_address_subscription_count_get
                0x0000000000000000       0x7c CMakeFiles/light_switch_provisioner_nrf52832_xxAA_s132_6.0.0.dir/__/__/__/mesh/access/src/device_state_manager.c.obj
 .text.dsm_address_get_all
                0x0000000000000000       0x64 CMakeFiles/light_switch_provisioner_nrf52832_xxAA_s132_6.0.0.dir/__/__/__/mesh/access/src/device_state_manager.c.obj
 .text.dsm_subnet_handle_to_netkey_index
                0x0000000000000000       0x24 CMakeFiles/light_switch_provisioner_nrf52832_xxAA_s132_6.0.0.dir/__/__/__/mesh/access/src/device_state_manager.c.obj
 .text.dsm_devkey_delete
                0x0000000000000000       0x7c CMakeFiles/light_switch_provisioner_nrf52832_xxAA_s132_6.0.0.dir/__/__/__/mesh/access/src/device_state_manager.c.obj
 .text.dsm_beacon_info_get
                0x0000000000000000       0x24 CMakeFiles/light_switch_provisioner_nrf52832_xxAA_s132_6.0.0.dir/__/__/__/mesh/access/src/device_state_manager.c.obj
 .text          0x0000000000000000        0x0 CMakeFiles/light_switch_provisioner_nrf52832_xxAA_s132_6.0.0.dir/__/__/__/mesh/prov/src/prov_provisioner.c.obj
 .data          0x0000000000000000        0x0 CMakeFiles/light_switch_provisioner_nrf52832_xxAA_s132_6.0.0.dir/__/__/__/mesh/prov/src/prov_provisioner.c.obj
 .bss           0x0000000000000000        0x0 CMakeFiles/light_switch_provisioner_nrf52832_xxAA_s132_6.0.0.dir/__/__/__/mesh/prov/src/prov_provisioner.c.obj
 .text.prov_provisioner_shared_secret
                0x0000000000000000       0xb8 CMakeFiles/light_switch_provisioner_nrf52832_xxAA_s132_6.0.0.dir/__/__/__/mesh/prov/src/prov_provisioner.c.obj
 .text.prov_provisioner_oob_pubkey
                0x0000000000000000       0x30 CMakeFiles/light_switch_provisioner_nrf52832_xxAA_s132_6.0.0.dir/__/__/__/mesh/prov/src/prov_provisioner.c.obj
 .text          0x0000000000000000        0x0 CMakeFiles/light_switch_provisioner_nrf52832_xxAA_s132_6.0.0.dir/__/__/__/mesh/prov/src/nrf_mesh_prov.c.obj
 .data          0x0000000000000000        0x0 CMakeFiles/light_switch_provisioner_nrf52832_xxAA_s132_6.0.0.dir/__/__/__/mesh/prov/src/nrf_mesh_prov.c.obj
 .bss           0x0000000000000000        0x0 CMakeFiles/light_switch_provisioner_nrf52832_xxAA_s132_6.0.0.dir/__/__/__/mesh/prov/src/nrf_mesh_prov.c.obj
 .text.nrf_mesh_prov_listen
                0x0000000000000000       0xf0 CMakeFiles/light_switch_provisioner_nrf52832_xxAA_s132_6.0.0.dir/__/__/__/mesh/prov/src/nrf_mesh_prov.c.obj
 .text.nrf_mesh_prov_listen_stop
                0x0000000000000000       0x30 CMakeFiles/light_switch_provisioner_nrf52832_xxAA_s132_6.0.0.dir/__/__/__/mesh/prov/src/nrf_mesh_prov.c.obj
 .text.nrf_mesh_prov_shared_secret_provide
                0x0000000000000000       0x10 CMakeFiles/light_switch_provisioner_nrf52832_xxAA_s132_6.0.0.dir/__/__/__/mesh/prov/src/nrf_mesh_prov.c.obj
 .text.nrf_mesh_prov_pubkey_provide
                0x0000000000000000       0x10 CMakeFiles/light_switch_provisioner_nrf52832_xxAA_s132_6.0.0.dir/__/__/__/mesh/prov/src/nrf_mesh_prov.c.obj
 .text.nrf_mesh_prov_scan_stop
                0x0000000000000000        0x4 CMakeFiles/light_switch_provisioner_nrf52832_xxAA_s132_6.0.0.dir/__/__/__/mesh/prov/src/nrf_mesh_prov.c.obj
 .rodata.multiply_de_bruijn_bit_position.9474
                0x0000000000000000       0x20 CMakeFiles/light_switch_provisioner_nrf52832_xxAA_s132_6.0.0.dir/__/__/__/mesh/prov/src/nrf_mesh_prov.c.obj
 .text          0x0000000000000000        0x0 CMakeFiles/light_switch_provisioner_nrf52832_xxAA_s132_6.0.0.dir/__/__/__/mesh/prov/src/provisioning.c.obj
 .data          0x0000000000000000        0x0 CMakeFiles/light_switch_provisioner_nrf52832_xxAA_s132_6.0.0.dir/__/__/__/mesh/prov/src/provisioning.c.obj
 .bss           0x0000000000000000        0x0 CMakeFiles/light_switch_provisioner_nrf52832_xxAA_s132_6.0.0.dir/__/__/__/mesh/prov/src/provisioning.c.obj
 .text.prov_tx_capabilities
                0x0000000000000000       0x38 CMakeFiles/light_switch_provisioner_nrf52832_xxAA_s132_6.0.0.dir/__/__/__/mesh/prov/src/provisioning.c.obj
 .text.prov_tx_input_complete
                0x0000000000000000       0x28 CMakeFiles/light_switch_provisioner_nrf52832_xxAA_s132_6.0.0.dir/__/__/__/mesh/prov/src/provisioning.c.obj
 .text.prov_tx_complete
                0x0000000000000000       0x28 CMakeFiles/light_switch_provisioner_nrf52832_xxAA_s132_6.0.0.dir/__/__/__/mesh/prov/src/provisioning.c.obj
 .text.prov_tx_failed
                0x0000000000000000       0x2c CMakeFiles/light_switch_provisioner_nrf52832_xxAA_s132_6.0.0.dir/__/__/__/mesh/prov/src/provisioning.c.obj
 .text.prov_tx  0x0000000000000000       0x3c CMakeFiles/light_switch_provisioner_nrf52832_xxAA_s132_6.0.0.dir/__/__/__/mesh/prov/src/provisioning.c.obj
 .text          0x0000000000000000        0x0 CMakeFiles/light_switch_provisioner_nrf52832_xxAA_s132_6.0.0.dir/__/__/__/mesh/prov/src/prov_beacon.c.obj
 .data          0x0000000000000000        0x0 CMakeFiles/light_switch_provisioner_nrf52832_xxAA_s132_6.0.0.dir/__/__/__/mesh/prov/src/prov_beacon.c.obj
 .bss           0x0000000000000000        0x0 CMakeFiles/light_switch_provisioner_nrf52832_xxAA_s132_6.0.0.dir/__/__/__/mesh/prov/src/prov_beacon.c.obj
 .text.prov_beacon_scan_stop
                0x0000000000000000        0xc CMakeFiles/light_switch_provisioner_nrf52832_xxAA_s132_6.0.0.dir/__/__/__/mesh/prov/src/prov_beacon.c.obj
 .text          0x0000000000000000        0x0 CMakeFiles/light_switch_provisioner_nrf52832_xxAA_s132_6.0.0.dir/__/__/__/mesh/prov/src/prov_utils.c.obj
 .data          0x0000000000000000        0x0 CMakeFiles/light_switch_provisioner_nrf52832_xxAA_s132_6.0.0.dir/__/__/__/mesh/prov/src/prov_utils.c.obj
 .bss           0x0000000000000000        0x0 CMakeFiles/light_switch_provisioner_nrf52832_xxAA_s132_6.0.0.dir/__/__/__/mesh/prov/src/prov_utils.c.obj
 .text          0x0000000000000000        0x0 CMakeFiles/light_switch_provisioner_nrf52832_xxAA_s132_6.0.0.dir/__/__/__/mesh/prov/src/prov_bearer_adv.c.obj
 .data          0x0000000000000000        0x0 CMakeFiles/light_switch_provisioner_nrf52832_xxAA_s132_6.0.0.dir/__/__/__/mesh/prov/src/prov_bearer_adv.c.obj
 .bss           0x0000000000000000        0x0 CMakeFiles/light_switch_provisioner_nrf52832_xxAA_s132_6.0.0.dir/__/__/__/mesh/prov/src/prov_bearer_adv.c.obj
 .text.calculate_3GPP_CRC
                0x0000000000000000       0x28 CMakeFiles/light_switch_provisioner_nrf52832_xxAA_s132_6.0.0.dir/__/__/__/mesh/prov/src/prov_bearer_adv.c.obj
 .text          0x0000000000000000        0x0 CMakeFiles/light_switch_provisioner_nrf52832_xxAA_s132_6.0.0.dir/home/mazzer/work/nordic/sdk/nRF5_SDK_15.0.0/modules/nrfx/mdk/system_nrf52.c.obj
 .data          0x0000000000000000        0x0 CMakeFiles/light_switch_provisioner_nrf52832_xxAA_s132_6.0.0.dir/home/mazzer/work/nordic/sdk/nRF5_SDK_15.0.0/modules/nrfx/mdk/system_nrf52.c.obj
 .bss           0x0000000000000000        0x0 CMakeFiles/light_switch_provisioner_nrf52832_xxAA_s132_6.0.0.dir/home/mazzer/work/nordic/sdk/nRF5_SDK_15.0.0/modules/nrfx/mdk/system_nrf52.c.obj
 .text.SystemCoreClockUpdate
                0x0000000000000000       0x10 CMakeFiles/light_switch_provisioner_nrf52832_xxAA_s132_6.0.0.dir/home/mazzer/work/nordic/sdk/nRF5_SDK_15.0.0/modules/nrfx/mdk/system_nrf52.c.obj
 .data          0x0000000000000000        0x0 CMakeFiles/light_switch_provisioner_nrf52832_xxAA_s132_6.0.0.dir/home/mazzer/work/nordic/sdk/nRF5_SDK_15.0.0/modules/nrfx/mdk/gcc_startup_nrf52.S.obj
 .bss           0x0000000000000000        0x0 CMakeFiles/light_switch_provisioner_nrf52832_xxAA_s132_6.0.0.dir/home/mazzer/work/nordic/sdk/nRF5_SDK_15.0.0/modules/nrfx/mdk/gcc_startup_nrf52.S.obj
 .text          0x0000000000000000        0x0 CMakeFiles/light_switch_provisioner_nrf52832_xxAA_s132_6.0.0.dir/home/mazzer/work/nordic/sdk/nRF5_SDK_15.0.0/components/libraries/util/app_error.c.obj
 .data          0x0000000000000000        0x0 CMakeFiles/light_switch_provisioner_nrf52832_xxAA_s132_6.0.0.dir/home/mazzer/work/nordic/sdk/nRF5_SDK_15.0.0/components/libraries/util/app_error.c.obj
 .bss           0x0000000000000000        0x0 CMakeFiles/light_switch_provisioner_nrf52832_xxAA_s132_6.0.0.dir/home/mazzer/work/nordic/sdk/nRF5_SDK_15.0.0/components/libraries/util/app_error.c.obj
 .text.app_error_handler_bare
                0x0000000000000000       0x20 CMakeFiles/light_switch_provisioner_nrf52832_xxAA_s132_6.0.0.dir/home/mazzer/work/nordic/sdk/nRF5_SDK_15.0.0/components/libraries/util/app_error.c.obj
 .text.app_error_save_and_stop
                0x0000000000000000       0x64 CMakeFiles/light_switch_provisioner_nrf52832_xxAA_s132_6.0.0.dir/home/mazzer/work/nordic/sdk/nRF5_SDK_15.0.0/components/libraries/util/app_error.c.obj
 .bss.m_error_data.8037
                0x0000000000000000       0x20 CMakeFiles/light_switch_provisioner_nrf52832_xxAA_s132_6.0.0.dir/home/mazzer/work/nordic/sdk/nRF5_SDK_15.0.0/components/libraries/util/app_error.c.obj
 .debug_info    0x0000000000000000      0xae7 CMakeFiles/light_switch_provisioner_nrf52832_xxAA_s132_6.0.0.dir/home/mazzer/work/nordic/sdk/nRF5_SDK_15.0.0/components/libraries/util/app_error.c.obj
 .debug_abbrev  0x0000000000000000      0x232 CMakeFiles/light_switch_provisioner_nrf52832_xxAA_s132_6.0.0.dir/home/mazzer/work/nordic/sdk/nRF5_SDK_15.0.0/components/libraries/util/app_error.c.obj
 .debug_loc     0x0000000000000000       0xca CMakeFiles/light_switch_provisioner_nrf52832_xxAA_s132_6.0.0.dir/home/mazzer/work/nordic/sdk/nRF5_SDK_15.0.0/components/libraries/util/app_error.c.obj
 .debug_aranges
                0x0000000000000000       0x28 CMakeFiles/light_switch_provisioner_nrf52832_xxAA_s132_6.0.0.dir/home/mazzer/work/nordic/sdk/nRF5_SDK_15.0.0/components/libraries/util/app_error.c.obj
 .debug_ranges  0x0000000000000000       0x18 CMakeFiles/light_switch_provisioner_nrf52832_xxAA_s132_6.0.0.dir/home/mazzer/work/nordic/sdk/nRF5_SDK_15.0.0/components/libraries/util/app_error.c.obj
 .debug_line    0x0000000000000000      0x271 CMakeFiles/light_switch_provisioner_nrf52832_xxAA_s132_6.0.0.dir/home/mazzer/work/nordic/sdk/nRF5_SDK_15.0.0/components/libraries/util/app_error.c.obj
 .debug_str     0x0000000000000000      0x772 CMakeFiles/light_switch_provisioner_nrf52832_xxAA_s132_6.0.0.dir/home/mazzer/work/nordic/sdk/nRF5_SDK_15.0.0/components/libraries/util/app_error.c.obj
 .comment       0x0000000000000000       0x7f CMakeFiles/light_switch_provisioner_nrf52832_xxAA_s132_6.0.0.dir/home/mazzer/work/nordic/sdk/nRF5_SDK_15.0.0/components/libraries/util/app_error.c.obj
 .debug_frame   0x0000000000000000       0x54 CMakeFiles/light_switch_provisioner_nrf52832_xxAA_s132_6.0.0.dir/home/mazzer/work/nordic/sdk/nRF5_SDK_15.0.0/components/libraries/util/app_error.c.obj
 .ARM.attributes
                0x0000000000000000       0x39 CMakeFiles/light_switch_provisioner_nrf52832_xxAA_s132_6.0.0.dir/home/mazzer/work/nordic/sdk/nRF5_SDK_15.0.0/components/libraries/util/app_error.c.obj
 .text          0x0000000000000000        0x0 CMakeFiles/light_switch_provisioner_nrf52832_xxAA_s132_6.0.0.dir/home/mazzer/work/nordic/sdk/nRF5_SDK_15.0.0/components/libraries/util/app_error_handler_gcc.c.obj
 .data          0x0000000000000000        0x0 CMakeFiles/light_switch_provisioner_nrf52832_xxAA_s132_6.0.0.dir/home/mazzer/work/nordic/sdk/nRF5_SDK_15.0.0/components/libraries/util/app_error_handler_gcc.c.obj
 .bss           0x0000000000000000        0x0 CMakeFiles/light_switch_provisioner_nrf52832_xxAA_s132_6.0.0.dir/home/mazzer/work/nordic/sdk/nRF5_SDK_15.0.0/components/libraries/util/app_error_handler_gcc.c.obj
 .text          0x0000000000000000        0x0 ../../../external/rtt/librtt_nrf52832_xxAA.a(SEGGER_RTT.c.obj)
 .data          0x0000000000000000        0x0 ../../../external/rtt/librtt_nrf52832_xxAA.a(SEGGER_RTT.c.obj)
 .bss           0x0000000000000000        0x0 ../../../external/rtt/librtt_nrf52832_xxAA.a(SEGGER_RTT.c.obj)
 .text.SEGGER_RTT_ReadNoLock
                0x0000000000000000       0xfc ../../../external/rtt/librtt_nrf52832_xxAA.a(SEGGER_RTT.c.obj)
 .text.SEGGER_RTT_Read
                0x0000000000000000      0x118 ../../../external/rtt/librtt_nrf52832_xxAA.a(SEGGER_RTT.c.obj)
 .text.SEGGER_RTT_WriteSkipNoLock
                0x0000000000000000      0x1a8 ../../../external/rtt/librtt_nrf52832_xxAA.a(SEGGER_RTT.c.obj)
 .text.SEGGER_RTT_WriteNoLock
                0x0000000000000000      0x168 ../../../external/rtt/librtt_nrf52832_xxAA.a(SEGGER_RTT.c.obj)
 .text.SEGGER_RTT_WriteString
                0x0000000000000000      0x1f8 ../../../external/rtt/librtt_nrf52832_xxAA.a(SEGGER_RTT.c.obj)
 .text.SEGGER_RTT_WaitKey
                0x0000000000000000       0xfc ../../../external/rtt/librtt_nrf52832_xxAA.a(SEGGER_RTT.c.obj)
 .text.SEGGER_RTT_HasKey
                0x0000000000000000       0x6c ../../../external/rtt/librtt_nrf52832_xxAA.a(SEGGER_RTT.c.obj)
 .text.SEGGER_RTT_HasData
                0x0000000000000000       0x18 ../../../external/rtt/librtt_nrf52832_xxAA.a(SEGGER_RTT.c.obj)
 .text.SEGGER_RTT_AllocDownBuffer
                0x0000000000000000       0xb8 ../../../external/rtt/librtt_nrf52832_xxAA.a(SEGGER_RTT.c.obj)
 .text.SEGGER_RTT_AllocUpBuffer
                0x0000000000000000       0xd4 ../../../external/rtt/librtt_nrf52832_xxAA.a(SEGGER_RTT.c.obj)
 .text.SEGGER_RTT_ConfigUpBuffer
                0x0000000000000000       0xd0 ../../../external/rtt/librtt_nrf52832_xxAA.a(SEGGER_RTT.c.obj)
 .text.SEGGER_RTT_ConfigDownBuffer
                0x0000000000000000       0xb4 ../../../external/rtt/librtt_nrf52832_xxAA.a(SEGGER_RTT.c.obj)
 .text.SEGGER_RTT_SetNameUpBuffer
                0x0000000000000000       0x90 ../../../external/rtt/librtt_nrf52832_xxAA.a(SEGGER_RTT.c.obj)
 .text.SEGGER_RTT_SetNameDownBuffer
                0x0000000000000000       0x90 ../../../external/rtt/librtt_nrf52832_xxAA.a(SEGGER_RTT.c.obj)
 .text.SEGGER_RTT_Init
                0x0000000000000000       0x64 ../../../external/rtt/librtt_nrf52832_xxAA.a(SEGGER_RTT.c.obj)
 .text.SEGGER_RTT_SetTerminal
                0x0000000000000000      0x16c ../../../external/rtt/librtt_nrf52832_xxAA.a(SEGGER_RTT.c.obj)
 .text.SEGGER_RTT_TerminalOut
                0x0000000000000000      0x4d8 ../../../external/rtt/librtt_nrf52832_xxAA.a(SEGGER_RTT.c.obj)
 .bss._ActiveTerminal
                0x0000000000000000        0x1 ../../../external/rtt/librtt_nrf52832_xxAA.a(SEGGER_RTT.c.obj)
 .rodata._aTerminalId
                0x0000000000000000       0x10 ../../../external/rtt/librtt_nrf52832_xxAA.a(SEGGER_RTT.c.obj)
 .text          0x0000000000000000        0x0 ../../../external/rtt/librtt_nrf52832_xxAA.a(SEGGER_RTT_printf.c.obj)
 .data          0x0000000000000000        0x0 ../../../external/rtt/librtt_nrf52832_xxAA.a(SEGGER_RTT_printf.c.obj)
 .bss           0x0000000000000000        0x0 ../../../external/rtt/librtt_nrf52832_xxAA.a(SEGGER_RTT_printf.c.obj)
 .text          0x0000000000000000        0x0 ../../../external/micro-ecc/libuECC_nrf52832_xxAA.a(uECC.c.obj)
 .data          0x0000000000000000        0x0 ../../../external/micro-ecc/libuECC_nrf52832_xxAA.a(uECC.c.obj)
 .bss           0x0000000000000000        0x0 ../../../external/micro-ecc/libuECC_nrf52832_xxAA.a(uECC.c.obj)
 .text.HMAC_finish
                0x0000000000000000       0x70 ../../../external/micro-ecc/libuECC_nrf52832_xxAA.a(uECC.c.obj)
 .text.uECC_vli_mmod
                0x0000000000000000      0x418 ../../../external/micro-ecc/libuECC_nrf52832_xxAA.a(uECC.c.obj)
 .text.uECC_vli_modSub.isra.2
                0x0000000000000000       0x98 ../../../external/micro-ecc/libuECC_nrf52832_xxAA.a(uECC.c.obj)
 .text.bits2int
                0x0000000000000000      0x160 ../../../external/micro-ecc/libuECC_nrf52832_xxAA.a(uECC.c.obj)
 .text.uECC_sign_with_k
                0x0000000000000000      0x630 ../../../external/micro-ecc/libuECC_nrf52832_xxAA.a(uECC.c.obj)
 .text.uECC_set_rng
                0x0000000000000000        0xc ../../../external/micro-ecc/libuECC_nrf52832_xxAA.a(uECC.c.obj)
 .text.uECC_get_rng
                0x0000000000000000        0xc ../../../external/micro-ecc/libuECC_nrf52832_xxAA.a(uECC.c.obj)
 .text.uECC_curve_private_key_size
                0x0000000000000000       0x10 ../../../external/micro-ecc/libuECC_nrf52832_xxAA.a(uECC.c.obj)
 .text.uECC_curve_public_key_size
                0x0000000000000000        0x8 ../../../external/micro-ecc/libuECC_nrf52832_xxAA.a(uECC.c.obj)
 .text.uECC_valid_point
                0x0000000000000000      0x154 ../../../external/micro-ecc/libuECC_nrf52832_xxAA.a(uECC.c.obj)
 .text.uECC_compute_public_key
                0x0000000000000000      0x2e8 ../../../external/micro-ecc/libuECC_nrf52832_xxAA.a(uECC.c.obj)
 .text.uECC_sign
                0x0000000000000000       0x5c ../../../external/micro-ecc/libuECC_nrf52832_xxAA.a(uECC.c.obj)
 .text.uECC_sign_deterministic
                0x0000000000000000      0x414 ../../../external/micro-ecc/libuECC_nrf52832_xxAA.a(uECC.c.obj)
 .text.uECC_verify
                0x0000000000000000      0x960 ../../../external/micro-ecc/libuECC_nrf52832_xxAA.a(uECC.c.obj)
 .text          0x0000000000000000       0xa0 /usr/bin/../lib/gcc/arm-none-eabi/7.2.1/thumb/v7e-m/fpv4-sp/hard/libgcc.a(_aeabi_ldivmod.o)
 .data          0x0000000000000000        0x0 /usr/bin/../lib/gcc/arm-none-eabi/7.2.1/thumb/v7e-m/fpv4-sp/hard/libgcc.a(_aeabi_ldivmod.o)
 .bss           0x0000000000000000        0x0 /usr/bin/../lib/gcc/arm-none-eabi/7.2.1/thumb/v7e-m/fpv4-sp/hard/libgcc.a(_aeabi_ldivmod.o)
 .debug_frame   0x0000000000000000       0x44 /usr/bin/../lib/gcc/arm-none-eabi/7.2.1/thumb/v7e-m/fpv4-sp/hard/libgcc.a(_aeabi_ldivmod.o)
 .ARM.attributes
                0x0000000000000000       0x22 /usr/bin/../lib/gcc/arm-none-eabi/7.2.1/thumb/v7e-m/fpv4-sp/hard/libgcc.a(_aeabi_ldivmod.o)
 .data          0x0000000000000000        0x0 /usr/bin/../lib/gcc/arm-none-eabi/7.2.1/thumb/v7e-m/fpv4-sp/hard/libgcc.a(_aeabi_uldivmod.o)
 .bss           0x0000000000000000        0x0 /usr/bin/../lib/gcc/arm-none-eabi/7.2.1/thumb/v7e-m/fpv4-sp/hard/libgcc.a(_aeabi_uldivmod.o)
 .data          0x0000000000000000        0x0 /usr/bin/../lib/gcc/arm-none-eabi/7.2.1/thumb/v7e-m/fpv4-sp/hard/libgcc.a(_udivmoddi4.o)
 .bss           0x0000000000000000        0x0 /usr/bin/../lib/gcc/arm-none-eabi/7.2.1/thumb/v7e-m/fpv4-sp/hard/libgcc.a(_udivmoddi4.o)
 .ARM.extab     0x0000000000000000        0x0 /usr/bin/../lib/gcc/arm-none-eabi/7.2.1/thumb/v7e-m/fpv4-sp/hard/libgcc.a(_udivmoddi4.o)
 .data          0x0000000000000000        0x0 /usr/bin/../lib/gcc/arm-none-eabi/7.2.1/thumb/v7e-m/fpv4-sp/hard/libgcc.a(_dvmd_tls.o)
 .bss           0x0000000000000000        0x0 /usr/bin/../lib/gcc/arm-none-eabi/7.2.1/thumb/v7e-m/fpv4-sp/hard/libgcc.a(_dvmd_tls.o)
 .text          0x0000000000000000        0x0 /usr/bin/../lib/gcc/arm-none-eabi/7.2.1/../../../../arm-none-eabi/lib/thumb/v7e-m/fpv4-sp/hard/libg_nano.a(lib_a-exit.o)
 .data          0x0000000000000000        0x0 /usr/bin/../lib/gcc/arm-none-eabi/7.2.1/../../../../arm-none-eabi/lib/thumb/v7e-m/fpv4-sp/hard/libg_nano.a(lib_a-exit.o)
 .bss           0x0000000000000000        0x0 /usr/bin/../lib/gcc/arm-none-eabi/7.2.1/../../../../arm-none-eabi/lib/thumb/v7e-m/fpv4-sp/hard/libg_nano.a(lib_a-exit.o)
 .text          0x0000000000000000        0x0 /usr/bin/../lib/gcc/arm-none-eabi/7.2.1/../../../../arm-none-eabi/lib/thumb/v7e-m/fpv4-sp/hard/libg_nano.a(lib_a-impure.o)
 .data          0x0000000000000000        0x0 /usr/bin/../lib/gcc/arm-none-eabi/7.2.1/../../../../arm-none-eabi/lib/thumb/v7e-m/fpv4-sp/hard/libg_nano.a(lib_a-impure.o)
 .bss           0x0000000000000000        0x0 /usr/bin/../lib/gcc/arm-none-eabi/7.2.1/../../../../arm-none-eabi/lib/thumb/v7e-m/fpv4-sp/hard/libg_nano.a(lib_a-impure.o)
 .text          0x0000000000000000        0x0 /usr/bin/../lib/gcc/arm-none-eabi/7.2.1/../../../../arm-none-eabi/lib/thumb/v7e-m/fpv4-sp/hard/libg_nano.a(lib_a-init.o)
 .data          0x0000000000000000        0x0 /usr/bin/../lib/gcc/arm-none-eabi/7.2.1/../../../../arm-none-eabi/lib/thumb/v7e-m/fpv4-sp/hard/libg_nano.a(lib_a-init.o)
 .bss           0x0000000000000000        0x0 /usr/bin/../lib/gcc/arm-none-eabi/7.2.1/../../../../arm-none-eabi/lib/thumb/v7e-m/fpv4-sp/hard/libg_nano.a(lib_a-init.o)
 .text          0x0000000000000000        0x0 /usr/bin/../lib/gcc/arm-none-eabi/7.2.1/../../../../arm-none-eabi/lib/thumb/v7e-m/fpv4-sp/hard/libg_nano.a(lib_a-malloc.o)
 .data          0x0000000000000000        0x0 /usr/bin/../lib/gcc/arm-none-eabi/7.2.1/../../../../arm-none-eabi/lib/thumb/v7e-m/fpv4-sp/hard/libg_nano.a(lib_a-malloc.o)
 .bss           0x0000000000000000        0x0 /usr/bin/../lib/gcc/arm-none-eabi/7.2.1/../../../../arm-none-eabi/lib/thumb/v7e-m/fpv4-sp/hard/libg_nano.a(lib_a-malloc.o)
 .text          0x0000000000000000        0x0 /usr/bin/../lib/gcc/arm-none-eabi/7.2.1/../../../../arm-none-eabi/lib/thumb/v7e-m/fpv4-sp/hard/libg_nano.a(lib_a-memcmp.o)
 .data          0x0000000000000000        0x0 /usr/bin/../lib/gcc/arm-none-eabi/7.2.1/../../../../arm-none-eabi/lib/thumb/v7e-m/fpv4-sp/hard/libg_nano.a(lib_a-memcmp.o)
 .bss           0x0000000000000000        0x0 /usr/bin/../lib/gcc/arm-none-eabi/7.2.1/../../../../arm-none-eabi/lib/thumb/v7e-m/fpv4-sp/hard/libg_nano.a(lib_a-memcmp.o)
 .text          0x0000000000000000        0x0 /usr/bin/../lib/gcc/arm-none-eabi/7.2.1/../../../../arm-none-eabi/lib/thumb/v7e-m/fpv4-sp/hard/libg_nano.a(lib_a-memcpy-stub.o)
 .data          0x0000000000000000        0x0 /usr/bin/../lib/gcc/arm-none-eabi/7.2.1/../../../../arm-none-eabi/lib/thumb/v7e-m/fpv4-sp/hard/libg_nano.a(lib_a-memcpy-stub.o)
 .bss           0x0000000000000000        0x0 /usr/bin/../lib/gcc/arm-none-eabi/7.2.1/../../../../arm-none-eabi/lib/thumb/v7e-m/fpv4-sp/hard/libg_nano.a(lib_a-memcpy-stub.o)
 .text          0x0000000000000000        0x0 /usr/bin/../lib/gcc/arm-none-eabi/7.2.1/../../../../arm-none-eabi/lib/thumb/v7e-m/fpv4-sp/hard/libg_nano.a(lib_a-memset.o)
 .data          0x0000000000000000        0x0 /usr/bin/../lib/gcc/arm-none-eabi/7.2.1/../../../../arm-none-eabi/lib/thumb/v7e-m/fpv4-sp/hard/libg_nano.a(lib_a-memset.o)
 .bss           0x0000000000000000        0x0 /usr/bin/../lib/gcc/arm-none-eabi/7.2.1/../../../../arm-none-eabi/lib/thumb/v7e-m/fpv4-sp/hard/libg_nano.a(lib_a-memset.o)
 .text          0x0000000000000000        0x0 /usr/bin/../lib/gcc/arm-none-eabi/7.2.1/../../../../arm-none-eabi/lib/thumb/v7e-m/fpv4-sp/hard/libg_nano.a(lib_a-nano-freer.o)
 .data          0x0000000000000000        0x0 /usr/bin/../lib/gcc/arm-none-eabi/7.2.1/../../../../arm-none-eabi/lib/thumb/v7e-m/fpv4-sp/hard/libg_nano.a(lib_a-nano-freer.o)
 .bss           0x0000000000000000        0x0 /usr/bin/../lib/gcc/arm-none-eabi/7.2.1/../../../../arm-none-eabi/lib/thumb/v7e-m/fpv4-sp/hard/libg_nano.a(lib_a-nano-freer.o)
 .text          0x0000000000000000        0x0 /usr/bin/../lib/gcc/arm-none-eabi/7.2.1/../../../../arm-none-eabi/lib/thumb/v7e-m/fpv4-sp/hard/libg_nano.a(lib_a-nano-mallocr.o)
 .data          0x0000000000000000        0x0 /usr/bin/../lib/gcc/arm-none-eabi/7.2.1/../../../../arm-none-eabi/lib/thumb/v7e-m/fpv4-sp/hard/libg_nano.a(lib_a-nano-mallocr.o)
 .bss           0x0000000000000000        0x0 /usr/bin/../lib/gcc/arm-none-eabi/7.2.1/../../../../arm-none-eabi/lib/thumb/v7e-m/fpv4-sp/hard/libg_nano.a(lib_a-nano-mallocr.o)
 .text          0x0000000000000000        0x0 /usr/bin/../lib/gcc/arm-none-eabi/7.2.1/../../../../arm-none-eabi/lib/thumb/v7e-m/fpv4-sp/hard/libg_nano.a(lib_a-sbrkr.o)
 .data          0x0000000000000000        0x0 /usr/bin/../lib/gcc/arm-none-eabi/7.2.1/../../../../arm-none-eabi/lib/thumb/v7e-m/fpv4-sp/hard/libg_nano.a(lib_a-sbrkr.o)
 .bss           0x0000000000000000        0x0 /usr/bin/../lib/gcc/arm-none-eabi/7.2.1/../../../../arm-none-eabi/lib/thumb/v7e-m/fpv4-sp/hard/libg_nano.a(lib_a-sbrkr.o)
 .text          0x0000000000000000        0x0 /usr/bin/../lib/gcc/arm-none-eabi/7.2.1/../../../../arm-none-eabi/lib/thumb/v7e-m/fpv4-sp/hard/libg_nano.a(lib_a-strcpy.o)
 .data          0x0000000000000000        0x0 /usr/bin/../lib/gcc/arm-none-eabi/7.2.1/../../../../arm-none-eabi/lib/thumb/v7e-m/fpv4-sp/hard/libg_nano.a(lib_a-strcpy.o)
 .bss           0x0000000000000000        0x0 /usr/bin/../lib/gcc/arm-none-eabi/7.2.1/../../../../arm-none-eabi/lib/thumb/v7e-m/fpv4-sp/hard/libg_nano.a(lib_a-strcpy.o)
 .data          0x0000000000000000        0x0 /usr/bin/../lib/gcc/arm-none-eabi/7.2.1/../../../../arm-none-eabi/lib/thumb/v7e-m/fpv4-sp/hard/libg_nano.a(lib_a-strlen.o)
 .bss           0x0000000000000000        0x0 /usr/bin/../lib/gcc/arm-none-eabi/7.2.1/../../../../arm-none-eabi/lib/thumb/v7e-m/fpv4-sp/hard/libg_nano.a(lib_a-strlen.o)
 .text          0x0000000000000000        0x0 /usr/bin/../lib/gcc/arm-none-eabi/7.2.1/../../../../arm-none-eabi/lib/thumb/v7e-m/fpv4-sp/hard/libg_nano.a(lib_a-strrchr.o)
 .data          0x0000000000000000        0x0 /usr/bin/../lib/gcc/arm-none-eabi/7.2.1/../../../../arm-none-eabi/lib/thumb/v7e-m/fpv4-sp/hard/libg_nano.a(lib_a-strrchr.o)
 .bss           0x0000000000000000        0x0 /usr/bin/../lib/gcc/arm-none-eabi/7.2.1/../../../../arm-none-eabi/lib/thumb/v7e-m/fpv4-sp/hard/libg_nano.a(lib_a-strrchr.o)
 .text          0x0000000000000000        0x0 /usr/bin/../lib/gcc/arm-none-eabi/7.2.1/../../../../arm-none-eabi/lib/thumb/v7e-m/fpv4-sp/hard/libg_nano.a(lib_a-mlock.o)
 .data          0x0000000000000000        0x0 /usr/bin/../lib/gcc/arm-none-eabi/7.2.1/../../../../arm-none-eabi/lib/thumb/v7e-m/fpv4-sp/hard/libg_nano.a(lib_a-mlock.o)
 .bss           0x0000000000000000        0x0 /usr/bin/../lib/gcc/arm-none-eabi/7.2.1/../../../../arm-none-eabi/lib/thumb/v7e-m/fpv4-sp/hard/libg_nano.a(lib_a-mlock.o)
 .text          0x0000000000000000        0x0 /usr/bin/../lib/gcc/arm-none-eabi/7.2.1/../../../../arm-none-eabi/lib/thumb/v7e-m/fpv4-sp/hard/libg_nano.a(lib_a-reent.o)
 .data          0x0000000000000000        0x0 /usr/bin/../lib/gcc/arm-none-eabi/7.2.1/../../../../arm-none-eabi/lib/thumb/v7e-m/fpv4-sp/hard/libg_nano.a(lib_a-reent.o)
 .bss           0x0000000000000000        0x0 /usr/bin/../lib/gcc/arm-none-eabi/7.2.1/../../../../arm-none-eabi/lib/thumb/v7e-m/fpv4-sp/hard/libg_nano.a(lib_a-reent.o)
 .text.cleanup_glue
                0x0000000000000000       0x1a /usr/bin/../lib/gcc/arm-none-eabi/7.2.1/../../../../arm-none-eabi/lib/thumb/v7e-m/fpv4-sp/hard/libg_nano.a(lib_a-reent.o)
 .text._reclaim_reent
                0x0000000000000000       0xb8 /usr/bin/../lib/gcc/arm-none-eabi/7.2.1/../../../../arm-none-eabi/lib/thumb/v7e-m/fpv4-sp/hard/libg_nano.a(lib_a-reent.o)
 .text          0x0000000000000000        0x0 /usr/bin/../lib/gcc/arm-none-eabi/7.2.1/../../../../arm-none-eabi/lib/thumb/v7e-m/fpv4-sp/hard/libg_nano.a(lib_a-strchr.o)
 .data          0x0000000000000000        0x0 /usr/bin/../lib/gcc/arm-none-eabi/7.2.1/../../../../arm-none-eabi/lib/thumb/v7e-m/fpv4-sp/hard/libg_nano.a(lib_a-strchr.o)
 .bss           0x0000000000000000        0x0 /usr/bin/../lib/gcc/arm-none-eabi/7.2.1/../../../../arm-none-eabi/lib/thumb/v7e-m/fpv4-sp/hard/libg_nano.a(lib_a-strchr.o)
 .text          0x0000000000000000        0x0 /usr/bin/../lib/gcc/arm-none-eabi/7.2.1/thumb/v7e-m/fpv4-sp/hard/crtend.o
 .data          0x0000000000000000        0x0 /usr/bin/../lib/gcc/arm-none-eabi/7.2.1/thumb/v7e-m/fpv4-sp/hard/crtend.o
 .bss           0x0000000000000000        0x0 /usr/bin/../lib/gcc/arm-none-eabi/7.2.1/thumb/v7e-m/fpv4-sp/hard/crtend.o
 .text          0x0000000000000000        0x0 /usr/bin/../lib/gcc/arm-none-eabi/7.2.1/thumb/v7e-m/fpv4-sp/hard/crtn.o
 .data          0x0000000000000000        0x0 /usr/bin/../lib/gcc/arm-none-eabi/7.2.1/thumb/v7e-m/fpv4-sp/hard/crtn.o
 .bss           0x0000000000000000        0x0 /usr/bin/../lib/gcc/arm-none-eabi/7.2.1/thumb/v7e-m/fpv4-sp/hard/crtn.o
 .text          0x0000000000000000        0x0 /usr/bin/../lib/gcc/arm-none-eabi/7.2.1/../../../../arm-none-eabi/lib/thumb/v7e-m/fpv4-sp/hard/libnosys.a(sbrk.o)
 .data          0x0000000000000000        0x0 /usr/bin/../lib/gcc/arm-none-eabi/7.2.1/../../../../arm-none-eabi/lib/thumb/v7e-m/fpv4-sp/hard/libnosys.a(sbrk.o)
 .bss           0x0000000000000000        0x0 /usr/bin/../lib/gcc/arm-none-eabi/7.2.1/../../../../arm-none-eabi/lib/thumb/v7e-m/fpv4-sp/hard/libnosys.a(sbrk.o)
 .text          0x0000000000000000        0x0 /usr/bin/../lib/gcc/arm-none-eabi/7.2.1/../../../../arm-none-eabi/lib/thumb/v7e-m/fpv4-sp/hard/libnosys.a(_exit.o)
 .data          0x0000000000000000        0x0 /usr/bin/../lib/gcc/arm-none-eabi/7.2.1/../../../../arm-none-eabi/lib/thumb/v7e-m/fpv4-sp/hard/libnosys.a(_exit.o)
 .bss           0x0000000000000000        0x0 /usr/bin/../lib/gcc/arm-none-eabi/7.2.1/../../../../arm-none-eabi/lib/thumb/v7e-m/fpv4-sp/hard/libnosys.a(_exit.o)

Memory Configuration

Name             Origin             Length             Attributes
FLASH            0x0000000000026000 0x0000000000051000 xr
RAM              0x00000000200032c8 0x000000000000ca38 xrw
*default*        0x0000000000000000 0xffffffffffffffff

Linker script and memory map


.text           0x0000000000026000    0x21358
 *(.isr_vector)
 .isr_vector    0x0000000000026000      0x200 CMakeFiles/light_switch_provisioner_nrf52832_xxAA_s132_6.0.0.dir/home/mazzer/work/nordic/sdk/nRF5_SDK_15.0.0/modules/nrfx/mdk/gcc_startup_nrf52.S.obj
                0x0000000000026000                __isr_vector
 *(.text*)
 .text          0x0000000000026200       0x40 /usr/bin/../lib/gcc/arm-none-eabi/7.2.1/thumb/v7e-m/fpv4-sp/hard/crtbegin.o
 .text          0x0000000000026240       0x74 /usr/bin/../lib/gcc/arm-none-eabi/7.2.1/../../../../arm-none-eabi/lib/thumb/v7e-m/fpv4-sp/hard/crt0.o
                0x0000000000026240                _mainCRTStartup
                0x0000000000026240                _start
 .text.sd_app_evt_wait
                0x00000000000262b4        0x4 CMakeFiles/light_switch_provisioner_nrf52832_xxAA_s132_6.0.0.dir/src/main.c.obj
 .text.flash_manager_mem_available
                0x00000000000262b8        0x4 CMakeFiles/light_switch_provisioner_nrf52832_xxAA_s132_6.0.0.dir/src/main.c.obj
 .text.flash_invalidate_complete
                0x00000000000262bc       0x10 CMakeFiles/light_switch_provisioner_nrf52832_xxAA_s132_6.0.0.dir/src/main.c.obj
 .text.models_init_cb
                0x00000000000262cc       0xc0 CMakeFiles/light_switch_provisioner_nrf52832_xxAA_s132_6.0.0.dir/src/main.c.obj
                0x00000000000262cc                models_init_cb
 .text.app_config_client_event_cb
                0x000000000002638c       0x84 CMakeFiles/light_switch_provisioner_nrf52832_xxAA_s132_6.0.0.dir/src/main.c.obj
 .text.app_config_failed_cb
                0x0000000000026410       0x90 CMakeFiles/light_switch_provisioner_nrf52832_xxAA_s132_6.0.0.dir/src/main.c.obj
 .text.app_prov_failed_cb
                0x00000000000264a0       0x84 CMakeFiles/light_switch_provisioner_nrf52832_xxAA_s132_6.0.0.dir/src/main.c.obj
 .text.app_prov_success_cb
                0x0000000000026524       0x84 CMakeFiles/light_switch_provisioner_nrf52832_xxAA_s132_6.0.0.dir/src/main.c.obj
 .text.clear_app_data
                0x00000000000265a8       0x2c CMakeFiles/light_switch_provisioner_nrf52832_xxAA_s132_6.0.0.dir/src/main.c.obj
 .text.store_app_data
                0x00000000000265d4       0x3c CMakeFiles/light_switch_provisioner_nrf52832_xxAA_s132_6.0.0.dir/src/main.c.obj
 .text.app_mesh_core_event_cb
                0x0000000000026610      0x7d8 CMakeFiles/light_switch_provisioner_nrf52832_xxAA_s132_6.0.0.dir/src/main.c.obj
 .text.app_config_server_event_cb
                0x0000000000026de8       0x88 CMakeFiles/light_switch_provisioner_nrf52832_xxAA_s132_6.0.0.dir/src/main.c.obj
 .text.flash_write_complete
                0x0000000000026e70       0x98 CMakeFiles/light_switch_provisioner_nrf52832_xxAA_s132_6.0.0.dir/src/main.c.obj
 .text.app_health_event_cb
                0x0000000000026f08       0x90 CMakeFiles/light_switch_provisioner_nrf52832_xxAA_s132_6.0.0.dir/src/main.c.obj
 .text.flash_remove_complete
                0x0000000000026f98       0x70 CMakeFiles/light_switch_provisioner_nrf52832_xxAA_s132_6.0.0.dir/src/main.c.obj
 .text.app_flash_manager_add
                0x0000000000027008       0xb8 CMakeFiles/light_switch_provisioner_nrf52832_xxAA_s132_6.0.0.dir/src/main.c.obj
 .text.button_event_handler
                0x00000000000270c0      0x368 CMakeFiles/light_switch_provisioner_nrf52832_xxAA_s132_6.0.0.dir/src/main.c.obj
 .text.app_data_store_cb
                0x0000000000027428       0x3c CMakeFiles/light_switch_provisioner_nrf52832_xxAA_s132_6.0.0.dir/src/main.c.obj
 .text.app_config_successful_cb
                0x0000000000027464      0x154 CMakeFiles/light_switch_provisioner_nrf52832_xxAA_s132_6.0.0.dir/src/main.c.obj
 .text.app_rtt_input_handler
                0x00000000000275b8      0x368 CMakeFiles/light_switch_provisioner_nrf52832_xxAA_s132_6.0.0.dir/src/main.c.obj
 .text.app_default_models_bind_setup
                0x0000000000027920       0x50 CMakeFiles/light_switch_provisioner_nrf52832_xxAA_s132_6.0.0.dir/src/main.c.obj
                0x0000000000027920                app_default_models_bind_setup
 .text.startup.main
                0x0000000000027970      0x3d8 CMakeFiles/light_switch_provisioner_nrf52832_xxAA_s132_6.0.0.dir/src/main.c.obj
                0x0000000000027970                main
 .text.mesh_stack_init
                0x0000000000027d48       0x90 CMakeFiles/light_switch_provisioner_nrf52832_xxAA_s132_6.0.0.dir/__/__/__/mesh/stack/src/mesh_stack.c.obj
                0x0000000000027d48                mesh_stack_init
 .text.mesh_stack_config_clear
                0x0000000000027dd8       0x14 CMakeFiles/light_switch_provisioner_nrf52832_xxAA_s132_6.0.0.dir/__/__/__/mesh/stack/src/mesh_stack.c.obj
                0x0000000000027dd8                mesh_stack_config_clear
 .text.prov_evt_handler
                0x0000000000027dec      0xa2c CMakeFiles/light_switch_provisioner_nrf52832_xxAA_s132_6.0.0.dir/src/provisioner_helper.c.obj
 .text.prov_helper_provision_next_device
                0x0000000000028818       0xc8 CMakeFiles/light_switch_provisioner_nrf52832_xxAA_s132_6.0.0.dir/src/provisioner_helper.c.obj
                0x0000000000028818                prov_helper_provision_next_device
 .text.prov_helper_scan_start
                0x00000000000288e0       0x90 CMakeFiles/light_switch_provisioner_nrf52832_xxAA_s132_6.0.0.dir/src/provisioner_helper.c.obj
                0x00000000000288e0                prov_helper_scan_start
 .text.prov_helper_device_handles_load
                0x0000000000028970       0xec CMakeFiles/light_switch_provisioner_nrf52832_xxAA_s132_6.0.0.dir/src/provisioner_helper.c.obj
                0x0000000000028970                prov_helper_device_handles_load
 .text.prov_helper_init
                0x0000000000028a5c       0x54 CMakeFiles/light_switch_provisioner_nrf52832_xxAA_s132_6.0.0.dir/src/provisioner_helper.c.obj
                0x0000000000028a5c                prov_helper_init
 .text.prov_helper_provision_self
                0x0000000000028ab0      0x110 CMakeFiles/light_switch_provisioner_nrf52832_xxAA_s132_6.0.0.dir/src/provisioner_helper.c.obj
                0x0000000000028ab0                prov_helper_provision_self
 .text.client_pub_state_set
                0x0000000000028bc0       0xb8 CMakeFiles/light_switch_provisioner_nrf52832_xxAA_s132_6.0.0.dir/src/node_setup.c.obj
 .text.retry_on_fail
                0x0000000000028c78       0xb8 CMakeFiles/light_switch_provisioner_nrf52832_xxAA_s132_6.0.0.dir/src/node_setup.c.obj
 .text.config_step_execute
                0x0000000000028d30      0x674 CMakeFiles/light_switch_provisioner_nrf52832_xxAA_s132_6.0.0.dir/src/node_setup.c.obj
 .text.client_send_timer_cb
                0x00000000000293a4       0x14 CMakeFiles/light_switch_provisioner_nrf52832_xxAA_s132_6.0.0.dir/src/node_setup.c.obj
 .text.node_setup_config_client_event_process
                0x00000000000293b8      0x33c CMakeFiles/light_switch_provisioner_nrf52832_xxAA_s132_6.0.0.dir/src/node_setup.c.obj
                0x00000000000293b8                node_setup_config_client_event_process
 .text.node_setup_start
                0x00000000000296f4      0x254 CMakeFiles/light_switch_provisioner_nrf52832_xxAA_s132_6.0.0.dir/src/node_setup.c.obj
                0x00000000000296f4                node_setup_start
 .text.node_setup_cb_set
                0x0000000000029948       0x30 CMakeFiles/light_switch_provisioner_nrf52832_xxAA_s132_6.0.0.dir/src/node_setup.c.obj
                0x0000000000029948                node_setup_cb_set
 .text.sd_evt_get
                0x0000000000029978        0x4 CMakeFiles/light_switch_provisioner_nrf52832_xxAA_s132_6.0.0.dir/__/__/common/src/mesh_softdevice_init.c.obj
 .text.sd_softdevice_enable
                0x000000000002997c        0x4 CMakeFiles/light_switch_provisioner_nrf52832_xxAA_s132_6.0.0.dir/__/__/common/src/mesh_softdevice_init.c.obj
 .text.sd_ble_enable
                0x0000000000029980        0x4 CMakeFiles/light_switch_provisioner_nrf52832_xxAA_s132_6.0.0.dir/__/__/common/src/mesh_softdevice_init.c.obj
 .text.SWI2_EGU2_IRQHandler
                0x0000000000029984       0x1c CMakeFiles/light_switch_provisioner_nrf52832_xxAA_s132_6.0.0.dir/__/__/common/src/mesh_softdevice_init.c.obj
                0x0000000000029984                SWI2_EGU2_IRQHandler
 .text.mesh_softdevice_init
                0x00000000000299a0      0x1f8 CMakeFiles/light_switch_provisioner_nrf52832_xxAA_s132_6.0.0.dir/__/__/common/src/mesh_softdevice_init.c.obj
                0x00000000000299a0                mesh_softdevice_init
 .text.TIMER2_IRQHandler
                0x0000000000029b98       0x3c CMakeFiles/light_switch_provisioner_nrf52832_xxAA_s132_6.0.0.dir/__/__/common/src/rtt_input.c.obj
                0x0000000000029b98                TIMER2_IRQHandler
 .text.rtt_input_enable
                0x0000000000029bd4       0x5c CMakeFiles/light_switch_provisioner_nrf52832_xxAA_s132_6.0.0.dir/__/__/common/src/rtt_input.c.obj
                0x0000000000029bd4                rtt_input_enable
 .text.hal_led_pin_set
                0x0000000000029c30       0x18 CMakeFiles/light_switch_provisioner_nrf52832_xxAA_s132_6.0.0.dir/__/__/common/src/simple_hal.c.obj
                0x0000000000029c30                hal_led_pin_set
 .text.hal_led_mask_set
                0x0000000000029c48       0x14 CMakeFiles/light_switch_provisioner_nrf52832_xxAA_s132_6.0.0.dir/__/__/common/src/simple_hal.c.obj
                0x0000000000029c48                hal_led_mask_set
 .text.hal_led_blink_ms
                0x0000000000029c5c       0x50 CMakeFiles/light_switch_provisioner_nrf52832_xxAA_s132_6.0.0.dir/__/__/common/src/simple_hal.c.obj
                0x0000000000029c5c                hal_led_blink_ms
 .text.hal_leds_init
                0x0000000000029cac       0x3c CMakeFiles/light_switch_provisioner_nrf52832_xxAA_s132_6.0.0.dir/__/__/common/src/simple_hal.c.obj
                0x0000000000029cac                hal_leds_init
 .text.hal_buttons_init
                0x0000000000029ce8       0x54 CMakeFiles/light_switch_provisioner_nrf52832_xxAA_s132_6.0.0.dir/__/__/common/src/simple_hal.c.obj
                0x0000000000029ce8                hal_buttons_init
 .text.GPIOTE_IRQHandler
                0x0000000000029d3c       0x70 CMakeFiles/light_switch_provisioner_nrf52832_xxAA_s132_6.0.0.dir/__/__/common/src/simple_hal.c.obj
                0x0000000000029d3c                GPIOTE_IRQHandler
 .text._weak_handler
                0x0000000000029dac        0x4 CMakeFiles/light_switch_provisioner_nrf52832_xxAA_s132_6.0.0.dir/__/__/nrf_mesh_weak.c.obj
                0x0000000000029dac                nrf_mesh_dfu_init
                0x0000000000029dac                nrf_mesh_dfu_jump_to_bootloader
                0x0000000000029dac                nrf_mesh_dfu_rx
                0x0000000000029dac                nrf_mesh_dfu_bank_info_get
                0x0000000000029dac                nrf_mesh_dfu_request
                0x0000000000029dac                nrf_mesh_dfu_bank_flash
                0x0000000000029dac                _weak_handler
                0x0000000000029dac                prov_provisionee_auth_data
                0x0000000000029dac                nrf_mesh_dfu_relay
                0x0000000000029dac                prov_provisionee_shared_secret
                0x0000000000029dac                nrf_mesh_dfu_abort
                0x0000000000029dac                mesh_flash_op_execute
                0x0000000000029dac                prov_provisionee_init
                0x0000000000029dac                nrf_mesh_dfu_state_get
                0x0000000000029dac                prov_provisionee_listen
 .text.app_error_fault_handler
                0x0000000000029db0      0x238 CMakeFiles/light_switch_provisioner_nrf52832_xxAA_s132_6.0.0.dir/__/__/common/src/app_error_weak.c.obj
                0x0000000000029db0                app_error_fault_handler
 .text.mesh_assertion_handler
                0x0000000000029fe8       0x24 CMakeFiles/light_switch_provisioner_nrf52832_xxAA_s132_6.0.0.dir/__/__/common/src/assertion_handler_weak.c.obj
                0x0000000000029fe8                mesh_assertion_handler
 .text.nrf_mesh_configure_device_uuid_set
                0x000000000002a00c       0x10 CMakeFiles/light_switch_provisioner_nrf52832_xxAA_s132_6.0.0.dir/__/__/__/mesh/core/src/nrf_mesh_configure.c.obj
                0x000000000002a00c                nrf_mesh_configure_device_uuid_set
 .text.nrf_mesh_configure_device_uuid_reset
                0x000000000002a01c       0x2c CMakeFiles/light_switch_provisioner_nrf52832_xxAA_s132_6.0.0.dir/__/__/__/mesh/core/src/nrf_mesh_configure.c.obj
                0x000000000002a01c                nrf_mesh_configure_device_uuid_reset
 .text.nrf_mesh_configure_device_uuid_get
                0x000000000002a048        0x8 CMakeFiles/light_switch_provisioner_nrf52832_xxAA_s132_6.0.0.dir/__/__/__/mesh/core/src/nrf_mesh_configure.c.obj
                0x000000000002a048                nrf_mesh_configure_device_uuid_get
 .text.sd_ecb_block_encrypt
                0x000000000002a050        0x4 CMakeFiles/light_switch_provisioner_nrf52832_xxAA_s132_6.0.0.dir/__/__/__/mesh/core/src/aes.c.obj
 .text.aes_encrypt
                0x000000000002a054       0x34 CMakeFiles/light_switch_provisioner_nrf52832_xxAA_s132_6.0.0.dir/__/__/__/mesh/core/src/aes.c.obj
                0x000000000002a054                aes_encrypt
 .text.msg_cache_init
                0x000000000002a088       0x24 CMakeFiles/light_switch_provisioner_nrf52832_xxAA_s132_6.0.0.dir/__/__/__/mesh/core/src/msg_cache.c.obj
                0x000000000002a088                msg_cache_init
 .text.msg_cache_entry_exists
                0x000000000002a0ac       0x40 CMakeFiles/light_switch_provisioner_nrf52832_xxAA_s132_6.0.0.dir/__/__/__/mesh/core/src/msg_cache.c.obj
                0x000000000002a0ac                msg_cache_entry_exists
 .text.msg_cache_entry_add
                0x000000000002a0ec       0x2c CMakeFiles/light_switch_provisioner_nrf52832_xxAA_s132_6.0.0.dir/__/__/__/mesh/core/src/msg_cache.c.obj
                0x000000000002a0ec                msg_cache_entry_add
 .text.tx_complete
                0x000000000002a118       0x30 CMakeFiles/light_switch_provisioner_nrf52832_xxAA_s132_6.0.0.dir/__/__/__/mesh/core/src/transport.c.obj
 .text.upper_trs_packet_encrypt
                0x000000000002a148       0xa8 CMakeFiles/light_switch_provisioner_nrf52832_xxAA_s132_6.0.0.dir/__/__/__/mesh/core/src/transport.c.obj
 .text.trs_sar_packet_out
                0x000000000002a1f0      0x19c CMakeFiles/light_switch_provisioner_nrf52832_xxAA_s132_6.0.0.dir/__/__/__/mesh/core/src/transport.c.obj
 .text.upper_transport_access_packet_in
                0x000000000002a38c      0x33c CMakeFiles/light_switch_provisioner_nrf52832_xxAA_s132_6.0.0.dir/__/__/__/mesh/core/src/transport.c.obj
 .text.sar_ctx_cancel
                0x000000000002a6c8      0x148 CMakeFiles/light_switch_provisioner_nrf52832_xxAA_s132_6.0.0.dir/__/__/__/mesh/core/src/transport.c.obj
 .text.retry_timeout
                0x000000000002a810       0x98 CMakeFiles/light_switch_provisioner_nrf52832_xxAA_s132_6.0.0.dir/__/__/__/mesh/core/src/transport.c.obj
 .text.upper_transport_packet_in
                0x000000000002a8a8      0x2a4 CMakeFiles/light_switch_provisioner_nrf52832_xxAA_s132_6.0.0.dir/__/__/__/mesh/core/src/transport.c.obj
 .text.upper_transport_tx.part.27
                0x000000000002ab4c      0x370 CMakeFiles/light_switch_provisioner_nrf52832_xxAA_s132_6.0.0.dir/__/__/__/mesh/core/src/transport.c.obj
 .text.sar_ack_send.part.31
                0x000000000002aebc       0xd4 CMakeFiles/light_switch_provisioner_nrf52832_xxAA_s132_6.0.0.dir/__/__/__/mesh/core/src/transport.c.obj
 .text.transport_sar_process
                0x000000000002af90      0x274 CMakeFiles/light_switch_provisioner_nrf52832_xxAA_s132_6.0.0.dir/__/__/__/mesh/core/src/transport.c.obj
 .text.abort_timeout
                0x000000000002b204      0x138 CMakeFiles/light_switch_provisioner_nrf52832_xxAA_s132_6.0.0.dir/__/__/__/mesh/core/src/transport.c.obj
 .text.ack_timeout
                0x000000000002b33c       0xf8 CMakeFiles/light_switch_provisioner_nrf52832_xxAA_s132_6.0.0.dir/__/__/__/mesh/core/src/transport.c.obj
 .text.transport_init
                0x000000000002b434       0xac CMakeFiles/light_switch_provisioner_nrf52832_xxAA_s132_6.0.0.dir/__/__/__/mesh/core/src/transport.c.obj
                0x000000000002b434                transport_init
 .text.transport_packet_in
                0x000000000002b4e0      0x778 CMakeFiles/light_switch_provisioner_nrf52832_xxAA_s132_6.0.0.dir/__/__/__/mesh/core/src/transport.c.obj
                0x000000000002b4e0                transport_packet_in
 .text.transport_tx
                0x000000000002bc58       0xec CMakeFiles/light_switch_provisioner_nrf52832_xxAA_s132_6.0.0.dir/__/__/__/mesh/core/src/transport.c.obj
                0x000000000002bc58                transport_tx
 .text.transport_control_tx
                0x000000000002bd44       0xc4 CMakeFiles/light_switch_provisioner_nrf52832_xxAA_s132_6.0.0.dir/__/__/__/mesh/core/src/transport.c.obj
                0x000000000002bd44                transport_control_tx
 .text.transport_opt_set
                0x000000000002be08       0xdc CMakeFiles/light_switch_provisioner_nrf52832_xxAA_s132_6.0.0.dir/__/__/__/mesh/core/src/transport.c.obj
                0x000000000002be08                transport_opt_set
 .text.transport_opt_get
                0x000000000002bee4       0x84 CMakeFiles/light_switch_provisioner_nrf52832_xxAA_s132_6.0.0.dir/__/__/__/mesh/core/src/transport.c.obj
                0x000000000002bee4                transport_opt_get
 .text.transport_control_packet_consumer_add
                0x000000000002bf68       0x68 CMakeFiles/light_switch_provisioner_nrf52832_xxAA_s132_6.0.0.dir/__/__/__/mesh/core/src/transport.c.obj
                0x000000000002bf68                transport_control_packet_consumer_add
 .text.event_handle
                0x000000000002bfd0       0x28 CMakeFiles/light_switch_provisioner_nrf52832_xxAA_s132_6.0.0.dir/__/__/__/mesh/core/src/event.c.obj
                0x000000000002bfd0                event_handle
 .text.event_handler_add
                0x000000000002bff8       0x28 CMakeFiles/light_switch_provisioner_nrf52832_xxAA_s132_6.0.0.dir/__/__/__/mesh/core/src/event.c.obj
                0x000000000002bff8                event_handler_add
 .text.event_handler_remove
                0x000000000002c020       0x28 CMakeFiles/light_switch_provisioner_nrf52832_xxAA_s132_6.0.0.dir/__/__/__/mesh/core/src/event.c.obj
                0x000000000002c020                event_handler_remove
 .text.packet_buffer_init
                0x000000000002c048       0xb4 CMakeFiles/light_switch_provisioner_nrf52832_xxAA_s132_6.0.0.dir/__/__/__/mesh/core/src/packet_buffer.c.obj
                0x000000000002c048                packet_buffer_init
 .text.packet_buffer_flush
                0x000000000002c0fc       0x6c CMakeFiles/light_switch_provisioner_nrf52832_xxAA_s132_6.0.0.dir/__/__/__/mesh/core/src/packet_buffer.c.obj
                0x000000000002c0fc                packet_buffer_flush
 .text.packet_buffer_reserve
                0x000000000002c168       0xa4 CMakeFiles/light_switch_provisioner_nrf52832_xxAA_s132_6.0.0.dir/__/__/__/mesh/core/src/packet_buffer.c.obj
                0x000000000002c168                packet_buffer_reserve
 .text.packet_buffer_commit
                0x000000000002c20c       0x7c CMakeFiles/light_switch_provisioner_nrf52832_xxAA_s132_6.0.0.dir/__/__/__/mesh/core/src/packet_buffer.c.obj
                0x000000000002c20c                packet_buffer_commit
 .text.packet_buffer_pop
                0x000000000002c288       0x44 CMakeFiles/light_switch_provisioner_nrf52832_xxAA_s132_6.0.0.dir/__/__/__/mesh/core/src/packet_buffer.c.obj
                0x000000000002c288                packet_buffer_pop
 .text.packet_buffer_can_pop
                0x000000000002c2cc       0x24 CMakeFiles/light_switch_provisioner_nrf52832_xxAA_s132_6.0.0.dir/__/__/__/mesh/core/src/packet_buffer.c.obj
                0x000000000002c2cc                packet_buffer_can_pop
 .text.packet_buffer_packets_ready_to_pop
                0x000000000002c2f0       0x5c CMakeFiles/light_switch_provisioner_nrf52832_xxAA_s132_6.0.0.dir/__/__/__/mesh/core/src/packet_buffer.c.obj
                0x000000000002c2f0                packet_buffer_packets_ready_to_pop
 .text.packet_buffer_free
                0x000000000002c34c       0x8c CMakeFiles/light_switch_provisioner_nrf52832_xxAA_s132_6.0.0.dir/__/__/__/mesh/core/src/packet_buffer.c.obj
                0x000000000002c34c                packet_buffer_free
 .text.erase_source
                0x000000000002c3d8       0x34 CMakeFiles/light_switch_provisioner_nrf52832_xxAA_s132_6.0.0.dir/__/__/__/mesh/core/src/flash_manager_defrag.c.obj
 .text.erase_recovery_area
                0x000000000002c40c       0x34 CMakeFiles/light_switch_provisioner_nrf52832_xxAA_s132_6.0.0.dir/__/__/__/mesh/core/src/flash_manager_defrag.c.obj
 .text.write_back
                0x000000000002c440       0x44 CMakeFiles/light_switch_provisioner_nrf52832_xxAA_s132_6.0.0.dir/__/__/__/mesh/core/src/flash_manager_defrag.c.obj
 .text.write_defrag_start_pointer
                0x000000000002c484       0x38 CMakeFiles/light_switch_provisioner_nrf52832_xxAA_s132_6.0.0.dir/__/__/__/mesh/core/src/flash_manager_defrag.c.obj
 .text.copy_metadata
                0x000000000002c4bc       0x58 CMakeFiles/light_switch_provisioner_nrf52832_xxAA_s132_6.0.0.dir/__/__/__/mesh/core/src/flash_manager_defrag.c.obj
 .text.seal_storage_page
                0x000000000002c514       0x70 CMakeFiles/light_switch_provisioner_nrf52832_xxAA_s132_6.0.0.dir/__/__/__/mesh/core/src/flash_manager_defrag.c.obj
 .text.post_process
                0x000000000002c584       0x64 CMakeFiles/light_switch_provisioner_nrf52832_xxAA_s132_6.0.0.dir/__/__/__/mesh/core/src/flash_manager_defrag.c.obj
 .text.check_for_invalid_entries
                0x000000000002c5e8       0x40 CMakeFiles/light_switch_provisioner_nrf52832_xxAA_s132_6.0.0.dir/__/__/__/mesh/core/src/flash_manager_defrag.c.obj
 .text.execute_procedure_step
                0x000000000002c628       0x98 CMakeFiles/light_switch_provisioner_nrf52832_xxAA_s132_6.0.0.dir/__/__/__/mesh/core/src/flash_manager_defrag.c.obj
 .text.on_flash_op_end
                0x000000000002c6c0       0x48 CMakeFiles/light_switch_provisioner_nrf52832_xxAA_s132_6.0.0.dir/__/__/__/mesh/core/src/flash_manager_defrag.c.obj
 .text.invalidate_duplicate_entries
                0x000000000002c708      0x150 CMakeFiles/light_switch_provisioner_nrf52832_xxAA_s132_6.0.0.dir/__/__/__/mesh/core/src/flash_manager_defrag.c.obj
 .text.backup_entries
                0x000000000002c858      0x1c8 CMakeFiles/light_switch_provisioner_nrf52832_xxAA_s132_6.0.0.dir/__/__/__/mesh/core/src/flash_manager_defrag.c.obj
 .text.flash_manager_defrag_init
                0x000000000002ca20       0x6c CMakeFiles/light_switch_provisioner_nrf52832_xxAA_s132_6.0.0.dir/__/__/__/mesh/core/src/flash_manager_defrag.c.obj
                0x000000000002ca20                flash_manager_defrag_init
 .text.flash_manager_defrag_is_running
                0x000000000002ca8c       0x10 CMakeFiles/light_switch_provisioner_nrf52832_xxAA_s132_6.0.0.dir/__/__/__/mesh/core/src/flash_manager_defrag.c.obj
                0x000000000002ca8c                flash_manager_defrag_is_running
 .text.flash_manager_defrag
                0x000000000002ca9c       0x48 CMakeFiles/light_switch_provisioner_nrf52832_xxAA_s132_6.0.0.dir/__/__/__/mesh/core/src/flash_manager_defrag.c.obj
                0x000000000002ca9c                flash_manager_defrag
 .text.flash_manager_defrag_recovery_page_get
                0x000000000002cae4        0xc CMakeFiles/light_switch_provisioner_nrf52832_xxAA_s132_6.0.0.dir/__/__/__/mesh/core/src/flash_manager_defrag.c.obj
                0x000000000002cae4                flash_manager_defrag_recovery_page_get
 .text.fifo_init
                0x000000000002caf0       0x38 CMakeFiles/light_switch_provisioner_nrf52832_xxAA_s132_6.0.0.dir/__/__/__/mesh/core/src/fifo.c.obj
                0x000000000002caf0                fifo_init
 .text.fifo_push
                0x000000000002cb28       0x60 CMakeFiles/light_switch_provisioner_nrf52832_xxAA_s132_6.0.0.dir/__/__/__/mesh/core/src/fifo.c.obj
                0x000000000002cb28                fifo_push
 .text.fifo_pop
                0x000000000002cb88       0x5c CMakeFiles/light_switch_provisioner_nrf52832_xxAA_s132_6.0.0.dir/__/__/__/mesh/core/src/fifo.c.obj
                0x000000000002cb88                fifo_pop
 .text.nrf_flash_erase
                0x000000000002cbe4       0x5c CMakeFiles/light_switch_provisioner_nrf52832_xxAA_s132_6.0.0.dir/__/__/__/mesh/core/src/nrf_flash.c.obj
                0x000000000002cbe4                nrf_flash_erase
 .text.nrf_flash_write
                0x000000000002cc40       0x70 CMakeFiles/light_switch_provisioner_nrf52832_xxAA_s132_6.0.0.dir/__/__/__/mesh/core/src/nrf_flash.c.obj
                0x000000000002cc40                nrf_flash_write
 .text.packet_mgr_init
                0x000000000002ccb0       0x48 CMakeFiles/light_switch_provisioner_nrf52832_xxAA_s132_6.0.0.dir/__/__/__/mesh/core/src/packet_mgr.c.obj
                0x000000000002ccb0                packet_mgr_init
 .text.packet_mgr_alloc
                0x000000000002ccf8      0x1a4 CMakeFiles/light_switch_provisioner_nrf52832_xxAA_s132_6.0.0.dir/__/__/__/mesh/core/src/packet_mgr.c.obj
                0x000000000002ccf8                packet_mgr_alloc
 .text.packet_mgr_free
                0x000000000002ce9c       0x5c CMakeFiles/light_switch_provisioner_nrf52832_xxAA_s132_6.0.0.dir/__/__/__/mesh/core/src/packet_mgr.c.obj
                0x000000000002ce9c                packet_mgr_free
 .text.flash_store_iv_index
                0x000000000002cef8       0x38 CMakeFiles/light_switch_provisioner_nrf52832_xxAA_s132_6.0.0.dir/__/__/__/mesh/core/src/net_state.c.obj
 .text.flash_mem_available
                0x000000000002cf30       0x1c CMakeFiles/light_switch_provisioner_nrf52832_xxAA_s132_6.0.0.dir/__/__/__/mesh/core/src/net_state.c.obj
 .text.init_flash_storage
                0x000000000002cf4c       0x44 CMakeFiles/light_switch_provisioner_nrf52832_xxAA_s132_6.0.0.dir/__/__/__/mesh/core/src/net_state.c.obj
 .text.flash_write_complete
                0x000000000002cf90       0x6c CMakeFiles/light_switch_provisioner_nrf52832_xxAA_s132_6.0.0.dir/__/__/__/mesh/core/src/net_state.c.obj
 .text.seqnum_block_allocate
                0x000000000002cffc       0x4c CMakeFiles/light_switch_provisioner_nrf52832_xxAA_s132_6.0.0.dir/__/__/__/mesh/core/src/net_state.c.obj
 .text.net_state_reset
                0x000000000002d048       0x78 CMakeFiles/light_switch_provisioner_nrf52832_xxAA_s132_6.0.0.dir/__/__/__/mesh/core/src/net_state.c.obj
                0x000000000002d048                net_state_reset
 .text.iv_update_trigger_if_pending
                0x000000000002d0c0      0x174 CMakeFiles/light_switch_provisioner_nrf52832_xxAA_s132_6.0.0.dir/__/__/__/mesh/core/src/net_state.c.obj
 .text.iv_update_timer_handler
                0x000000000002d234       0x70 CMakeFiles/light_switch_provisioner_nrf52832_xxAA_s132_6.0.0.dir/__/__/__/mesh/core/src/net_state.c.obj
 .text.mesh_evt_handler
                0x000000000002d2a4      0x104 CMakeFiles/light_switch_provisioner_nrf52832_xxAA_s132_6.0.0.dir/__/__/__/mesh/core/src/net_state.c.obj
 .text.net_state_recover_from_flash
                0x000000000002d3a8      0x118 CMakeFiles/light_switch_provisioner_nrf52832_xxAA_s132_6.0.0.dir/__/__/__/mesh/core/src/net_state.c.obj
                0x000000000002d3a8                net_state_recover_from_flash
 .text.net_state_flash_area_get
                0x000000000002d4c0        0xc CMakeFiles/light_switch_provisioner_nrf52832_xxAA_s132_6.0.0.dir/__/__/__/mesh/core/src/net_state.c.obj
                0x000000000002d4c0                net_state_flash_area_get
 .text.net_state_init
                0x000000000002d4cc       0x94 CMakeFiles/light_switch_provisioner_nrf52832_xxAA_s132_6.0.0.dir/__/__/__/mesh/core/src/net_state.c.obj
                0x000000000002d4cc                net_state_init
 .text.net_state_seqnum_alloc
                0x000000000002d560       0xd0 CMakeFiles/light_switch_provisioner_nrf52832_xxAA_s132_6.0.0.dir/__/__/__/mesh/core/src/net_state.c.obj
                0x000000000002d560                net_state_seqnum_alloc
 .text.net_state_iv_index_lock
                0x000000000002d630      0x188 CMakeFiles/light_switch_provisioner_nrf52832_xxAA_s132_6.0.0.dir/__/__/__/mesh/core/src/net_state.c.obj
                0x000000000002d630                net_state_iv_index_lock
 .text.net_state_key_refresh_phase_changed
                0x000000000002d7b8       0x20 CMakeFiles/light_switch_provisioner_nrf52832_xxAA_s132_6.0.0.dir/__/__/__/mesh/core/src/net_state.c.obj
                0x000000000002d7b8                net_state_key_refresh_phase_changed
 .text.net_state_beacon_iv_index_get
                0x000000000002d7d8        0xc CMakeFiles/light_switch_provisioner_nrf52832_xxAA_s132_6.0.0.dir/__/__/__/mesh/core/src/net_state.c.obj
                0x000000000002d7d8                net_state_beacon_iv_index_get
 .text.net_state_tx_iv_index_get
                0x000000000002d7e4       0x14 CMakeFiles/light_switch_provisioner_nrf52832_xxAA_s132_6.0.0.dir/__/__/__/mesh/core/src/net_state.c.obj
                0x000000000002d7e4                net_state_tx_iv_index_get
 .text.net_state_rx_iv_index_get
                0x000000000002d7f8       0x18 CMakeFiles/light_switch_provisioner_nrf52832_xxAA_s132_6.0.0.dir/__/__/__/mesh/core/src/net_state.c.obj
                0x000000000002d7f8                net_state_rx_iv_index_get
 .text.net_state_iv_update_get
                0x000000000002d810        0xc CMakeFiles/light_switch_provisioner_nrf52832_xxAA_s132_6.0.0.dir/__/__/__/mesh/core/src/net_state.c.obj
                0x000000000002d810                net_state_iv_update_get
 .text.send_end_events
                0x000000000002d81c       0x98 CMakeFiles/light_switch_provisioner_nrf52832_xxAA_s132_6.0.0.dir/__/__/__/mesh/core/src/mesh_flash.c.obj
 .text.flash_op_start
                0x000000000002d8b4      0x214 CMakeFiles/light_switch_provisioner_nrf52832_xxAA_s132_6.0.0.dir/__/__/__/mesh/core/src/mesh_flash.c.obj
 .text.mesh_flash_init
                0x000000000002dac8       0x78 CMakeFiles/light_switch_provisioner_nrf52832_xxAA_s132_6.0.0.dir/__/__/__/mesh/core/src/mesh_flash.c.obj
                0x000000000002dac8                mesh_flash_init
 .text.mesh_flash_user_callback_set
                0x000000000002db40       0x20 CMakeFiles/light_switch_provisioner_nrf52832_xxAA_s132_6.0.0.dir/__/__/__/mesh/core/src/mesh_flash.c.obj
                0x000000000002db40                mesh_flash_user_callback_set
 .text.mesh_flash_op_push
                0x000000000002db60      0x198 CMakeFiles/light_switch_provisioner_nrf52832_xxAA_s132_6.0.0.dir/__/__/__/mesh/core/src/mesh_flash.c.obj
                0x000000000002db60                mesh_flash_op_push
 .text.nrf_mesh_address_type_get
                0x000000000002dcf8       0x10 CMakeFiles/light_switch_provisioner_nrf52832_xxAA_s132_6.0.0.dir/__/__/__/mesh/core/src/nrf_mesh_utils.c.obj
                0x000000000002dcf8                nrf_mesh_address_type_get
 .text.sd_softdevice_is_enabled
                0x000000000002dd08        0x4 CMakeFiles/light_switch_provisioner_nrf52832_xxAA_s132_6.0.0.dir/__/__/__/mesh/core/src/nrf_mesh.c.obj
 .text.nrf_mesh_listen
                0x000000000002dd0c      0x184 CMakeFiles/light_switch_provisioner_nrf52832_xxAA_s132_6.0.0.dir/__/__/__/mesh/core/src/nrf_mesh.c.obj
 .text.flash_stable_cb
                0x000000000002de90       0x20 CMakeFiles/light_switch_provisioner_nrf52832_xxAA_s132_6.0.0.dir/__/__/__/mesh/core/src/nrf_mesh.c.obj
 .text.scanner_packet_process_cb
                0x000000000002deb0       0x88 CMakeFiles/light_switch_provisioner_nrf52832_xxAA_s132_6.0.0.dir/__/__/__/mesh/core/src/nrf_mesh.c.obj
 .text.nrf_mesh_init
                0x000000000002df38       0xe4 CMakeFiles/light_switch_provisioner_nrf52832_xxAA_s132_6.0.0.dir/__/__/__/mesh/core/src/nrf_mesh.c.obj
                0x000000000002df38                nrf_mesh_init
 .text.nrf_mesh_enable
                0x000000000002e01c       0x48 CMakeFiles/light_switch_provisioner_nrf52832_xxAA_s132_6.0.0.dir/__/__/__/mesh/core/src/nrf_mesh.c.obj
                0x000000000002e01c                nrf_mesh_enable
 .text.nrf_mesh_packet_send
                0x000000000002e064       0x94 CMakeFiles/light_switch_provisioner_nrf52832_xxAA_s132_6.0.0.dir/__/__/__/mesh/core/src/nrf_mesh.c.obj
                0x000000000002e064                nrf_mesh_packet_send
 .text.nrf_mesh_evt_handler_add
                0x000000000002e0f8        0x4 CMakeFiles/light_switch_provisioner_nrf52832_xxAA_s132_6.0.0.dir/__/__/__/mesh/core/src/nrf_mesh.c.obj
                0x000000000002e0f8                nrf_mesh_evt_handler_add
 .text.nrf_mesh_on_sd_evt
                0x000000000002e0fc        0xc CMakeFiles/light_switch_provisioner_nrf52832_xxAA_s132_6.0.0.dir/__/__/__/mesh/core/src/nrf_mesh.c.obj
                0x000000000002e0fc                nrf_mesh_on_sd_evt
 .text.nrf_mesh_subnet_added
                0x000000000002e108        0x4 CMakeFiles/light_switch_provisioner_nrf52832_xxAA_s132_6.0.0.dir/__/__/__/mesh/core/src/nrf_mesh.c.obj
                0x000000000002e108                nrf_mesh_subnet_added
 .text.queue_init
                0x000000000002e10c       0x1c CMakeFiles/light_switch_provisioner_nrf52832_xxAA_s132_6.0.0.dir/__/__/__/mesh/core/src/queue.c.obj
                0x000000000002e10c                queue_init
 .text.queue_push
                0x000000000002e128       0x3c CMakeFiles/light_switch_provisioner_nrf52832_xxAA_s132_6.0.0.dir/__/__/__/mesh/core/src/queue.c.obj
                0x000000000002e128                queue_push
 .text.queue_pop
                0x000000000002e164       0x2c CMakeFiles/light_switch_provisioner_nrf52832_xxAA_s132_6.0.0.dir/__/__/__/mesh/core/src/queue.c.obj
                0x000000000002e164                queue_pop
 .text.queue_peek
                0x000000000002e190       0x14 CMakeFiles/light_switch_provisioner_nrf52832_xxAA_s132_6.0.0.dir/__/__/__/mesh/core/src/queue.c.obj
                0x000000000002e190                queue_peek
 .text.sd_power_reset_reason_clr
                0x000000000002e1a4        0x4 CMakeFiles/light_switch_provisioner_nrf52832_xxAA_s132_6.0.0.dir/__/__/__/mesh/core/src/hal.c.obj
 .text.sd_power_gpregret_set
                0x000000000002e1a8        0x4 CMakeFiles/light_switch_provisioner_nrf52832_xxAA_s132_6.0.0.dir/__/__/__/mesh/core/src/hal.c.obj
 .text.hal_device_reset
                0x000000000002e1ac       0x38 CMakeFiles/light_switch_provisioner_nrf52832_xxAA_s132_6.0.0.dir/__/__/__/mesh/core/src/hal.c.obj
                0x000000000002e1ac                hal_device_reset
 .text.hal_lfclk_ppm_get
                0x000000000002e1e4       0x14 CMakeFiles/light_switch_provisioner_nrf52832_xxAA_s132_6.0.0.dir/__/__/__/mesh/core/src/hal.c.obj
                0x000000000002e1e4                hal_lfclk_ppm_get
 .text.aes_cmac_subkey_generate
                0x000000000002e1f8      0x294 CMakeFiles/light_switch_provisioner_nrf52832_xxAA_s132_6.0.0.dir/__/__/__/mesh/core/src/aes_cmac.c.obj
                0x000000000002e1f8                aes_cmac_subkey_generate
 .text.aes_cmac
                0x000000000002e48c      0x4b8 CMakeFiles/light_switch_provisioner_nrf52832_xxAA_s132_6.0.0.dir/__/__/__/mesh/core/src/aes_cmac.c.obj
                0x000000000002e48c                aes_cmac
 .text.timer_cb
                0x000000000002e944        0xc CMakeFiles/light_switch_provisioner_nrf52832_xxAA_s132_6.0.0.dir/__/__/__/mesh/core/src/timer_scheduler.c.obj
 .text.add_evt.constprop.1
                0x000000000002e950       0x60 CMakeFiles/light_switch_provisioner_nrf52832_xxAA_s132_6.0.0.dir/__/__/__/mesh/core/src/timer_scheduler.c.obj
 .text.flag_event_cb
                0x000000000002e9b0      0x2f0 CMakeFiles/light_switch_provisioner_nrf52832_xxAA_s132_6.0.0.dir/__/__/__/mesh/core/src/timer_scheduler.c.obj
 .text.timer_sch_init
                0x000000000002eca0       0x24 CMakeFiles/light_switch_provisioner_nrf52832_xxAA_s132_6.0.0.dir/__/__/__/mesh/core/src/timer_scheduler.c.obj
                0x000000000002eca0                timer_sch_init
 .text.timer_sch_schedule
                0x000000000002ecc4       0x68 CMakeFiles/light_switch_provisioner_nrf52832_xxAA_s132_6.0.0.dir/__/__/__/mesh/core/src/timer_scheduler.c.obj
                0x000000000002ecc4                timer_sch_schedule
 .text.timer_sch_abort
                0x000000000002ed2c       0x5c CMakeFiles/light_switch_provisioner_nrf52832_xxAA_s132_6.0.0.dir/__/__/__/mesh/core/src/timer_scheduler.c.obj
                0x000000000002ed2c                timer_sch_abort
 .text.timer_sch_reschedule
                0x000000000002ed88       0x90 CMakeFiles/light_switch_provisioner_nrf52832_xxAA_s132_6.0.0.dir/__/__/__/mesh/core/src/timer_scheduler.c.obj
                0x000000000002ed88                timer_sch_reschedule
 .text.timer_event_handler
                0x000000000002ee18       0xd0 CMakeFiles/light_switch_provisioner_nrf52832_xxAA_s132_6.0.0.dir/__/__/__/mesh/core/src/timer.c.obj
                0x000000000002ee18                timer_event_handler
 .text.timer_order_cb
                0x000000000002eee8       0x9c CMakeFiles/light_switch_provisioner_nrf52832_xxAA_s132_6.0.0.dir/__/__/__/mesh/core/src/timer.c.obj
                0x000000000002eee8                timer_order_cb
 .text.timer_now
                0x000000000002ef84       0x58 CMakeFiles/light_switch_provisioner_nrf52832_xxAA_s132_6.0.0.dir/__/__/__/mesh/core/src/timer.c.obj
                0x000000000002ef84                timer_now
 .text.timer_on_ts_begin
                0x000000000002efdc      0x100 CMakeFiles/light_switch_provisioner_nrf52832_xxAA_s132_6.0.0.dir/__/__/__/mesh/core/src/timer.c.obj
                0x000000000002efdc                timer_on_ts_begin
 .text.timer_on_ts_end
                0x000000000002f0dc       0x78 CMakeFiles/light_switch_provisioner_nrf52832_xxAA_s132_6.0.0.dir/__/__/__/mesh/core/src/timer.c.obj
                0x000000000002f0dc                timer_on_ts_end
 .text.timer_cb
                0x000000000002f154       0x10 CMakeFiles/light_switch_provisioner_nrf52832_xxAA_s132_6.0.0.dir/__/__/__/mesh/core/src/ticker.c.obj
 .text.ticker_init
                0x000000000002f164       0x3c CMakeFiles/light_switch_provisioner_nrf52832_xxAA_s132_6.0.0.dir/__/__/__/mesh/core/src/ticker.c.obj
                0x000000000002f164                ticker_init
 .text.sd_rand_application_bytes_available_get
                0x000000000002f1a0        0x4 CMakeFiles/light_switch_provisioner_nrf52832_xxAA_s132_6.0.0.dir/__/__/__/mesh/core/src/rand.c.obj
 .text.sd_rand_application_vector_get
                0x000000000002f1a4        0x4 CMakeFiles/light_switch_provisioner_nrf52832_xxAA_s132_6.0.0.dir/__/__/__/mesh/core/src/rand.c.obj
 .text.rand_prng_seed
                0x000000000002f1a8       0x78 CMakeFiles/light_switch_provisioner_nrf52832_xxAA_s132_6.0.0.dir/__/__/__/mesh/core/src/rand.c.obj
                0x000000000002f1a8                rand_prng_seed
 .text.rand_prng_get
                0x000000000002f220       0x28 CMakeFiles/light_switch_provisioner_nrf52832_xxAA_s132_6.0.0.dir/__/__/__/mesh/core/src/rand.c.obj
                0x000000000002f220                rand_prng_get
 .text.rand_hw_rng_get
                0x000000000002f248       0x60 CMakeFiles/light_switch_provisioner_nrf52832_xxAA_s132_6.0.0.dir/__/__/__/mesh/core/src/rand.c.obj
                0x000000000002f248                rand_hw_rng_get
 .text.nrf_mesh_opt_set
                0x000000000002f2a8       0x28 CMakeFiles/light_switch_provisioner_nrf52832_xxAA_s132_6.0.0.dir/__/__/__/mesh/core/src/nrf_mesh_opt.c.obj
                0x000000000002f2a8                nrf_mesh_opt_set
 .text.nrf_mesh_opt_get
                0x000000000002f2d0       0x28 CMakeFiles/light_switch_provisioner_nrf52832_xxAA_s132_6.0.0.dir/__/__/__/mesh/core/src/nrf_mesh_opt.c.obj
                0x000000000002f2d0                nrf_mesh_opt_get
 .text.sd_radio_session_open
                0x000000000002f2f8        0x4 CMakeFiles/light_switch_provisioner_nrf52832_xxAA_s132_6.0.0.dir/__/__/__/mesh/core/src/timeslot.c.obj
 .text.sd_radio_session_close
                0x000000000002f2fc        0x4 CMakeFiles/light_switch_provisioner_nrf52832_xxAA_s132_6.0.0.dir/__/__/__/mesh/core/src/timeslot.c.obj
 .text.sd_radio_request
                0x000000000002f300        0x4 CMakeFiles/light_switch_provisioner_nrf52832_xxAA_s132_6.0.0.dir/__/__/__/mesh/core/src/timeslot.c.obj
 .text.end_timer_handler
                0x000000000002f304       0x2c CMakeFiles/light_switch_provisioner_nrf52832_xxAA_s132_6.0.0.dir/__/__/__/mesh/core/src/timeslot.c.obj
 .text.radio_signal_callback
                0x000000000002f330      0x2b4 CMakeFiles/light_switch_provisioner_nrf52832_xxAA_s132_6.0.0.dir/__/__/__/mesh/core/src/timeslot.c.obj
 .text.timeslot_sd_event_handler
                0x000000000002f5e4       0x44 CMakeFiles/light_switch_provisioner_nrf52832_xxAA_s132_6.0.0.dir/__/__/__/mesh/core/src/timeslot.c.obj
                0x000000000002f5e4                timeslot_sd_event_handler
 .text.timeslot_init
                0x000000000002f628       0x4c CMakeFiles/light_switch_provisioner_nrf52832_xxAA_s132_6.0.0.dir/__/__/__/mesh/core/src/timeslot.c.obj
                0x000000000002f628                timeslot_init
 .text.timeslot_start
                0x000000000002f674       0x20 CMakeFiles/light_switch_provisioner_nrf52832_xxAA_s132_6.0.0.dir/__/__/__/mesh/core/src/timeslot.c.obj
                0x000000000002f674                timeslot_start
 .text.timeslot_stop
                0x000000000002f694       0x30 CMakeFiles/light_switch_provisioner_nrf52832_xxAA_s132_6.0.0.dir/__/__/__/mesh/core/src/timeslot.c.obj
                0x000000000002f694                timeslot_stop
 .text.timeslot_state_lock
                0x000000000002f6c4       0x44 CMakeFiles/light_switch_provisioner_nrf52832_xxAA_s132_6.0.0.dir/__/__/__/mesh/core/src/timeslot.c.obj
                0x000000000002f6c4                timeslot_state_lock
 .text.timeslot_end_is_pending
                0x000000000002f708       0x24 CMakeFiles/light_switch_provisioner_nrf52832_xxAA_s132_6.0.0.dir/__/__/__/mesh/core/src/timeslot.c.obj
                0x000000000002f708                timeslot_end_is_pending
 .text.timeslot_start_time_get
                0x000000000002f72c        0xc CMakeFiles/light_switch_provisioner_nrf52832_xxAA_s132_6.0.0.dir/__/__/__/mesh/core/src/timeslot.c.obj
                0x000000000002f72c                timeslot_start_time_get
 .text.timeslot_remaining_time_get
                0x000000000002f738       0x40 CMakeFiles/light_switch_provisioner_nrf52832_xxAA_s132_6.0.0.dir/__/__/__/mesh/core/src/timeslot.c.obj
                0x000000000002f738                timeslot_remaining_time_get
 .text.timeslot_is_in_cb
                0x000000000002f778        0xc CMakeFiles/light_switch_provisioner_nrf52832_xxAA_s132_6.0.0.dir/__/__/__/mesh/core/src/timeslot.c.obj
                0x000000000002f778                timeslot_is_in_cb
 .text.timeslot_trigger
                0x000000000002f784       0x24 CMakeFiles/light_switch_provisioner_nrf52832_xxAA_s132_6.0.0.dir/__/__/__/mesh/core/src/timeslot.c.obj
                0x000000000002f784                timeslot_trigger
 .text.bearer_event_init
                0x000000000002f7a8       0x4c CMakeFiles/light_switch_provisioner_nrf52832_xxAA_s132_6.0.0.dir/__/__/__/mesh/core/src/bearer_event.c.obj
                0x000000000002f7a8                bearer_event_init
 .text.bearer_event_timer_post
                0x000000000002f7f4       0x50 CMakeFiles/light_switch_provisioner_nrf52832_xxAA_s132_6.0.0.dir/__/__/__/mesh/core/src/bearer_event.c.obj
                0x000000000002f7f4                bearer_event_timer_post
 .text.bearer_event_critical_section_begin
                0x000000000002f844       0x44 CMakeFiles/light_switch_provisioner_nrf52832_xxAA_s132_6.0.0.dir/__/__/__/mesh/core/src/bearer_event.c.obj
                0x000000000002f844                bearer_event_critical_section_begin
 .text.bearer_event_critical_section_end
                0x000000000002f888       0x40 CMakeFiles/light_switch_provisioner_nrf52832_xxAA_s132_6.0.0.dir/__/__/__/mesh/core/src/bearer_event.c.obj
                0x000000000002f888                bearer_event_critical_section_end
 .text.bearer_event_flag_add
                0x000000000002f8c8       0x40 CMakeFiles/light_switch_provisioner_nrf52832_xxAA_s132_6.0.0.dir/__/__/__/mesh/core/src/bearer_event.c.obj
                0x000000000002f8c8                bearer_event_flag_add
 .text.bearer_event_flag_set
                0x000000000002f908       0x5c CMakeFiles/light_switch_provisioner_nrf52832_xxAA_s132_6.0.0.dir/__/__/__/mesh/core/src/bearer_event.c.obj
                0x000000000002f908                bearer_event_flag_set
 .text.bearer_event_sequential_add
                0x000000000002f964       0x34 CMakeFiles/light_switch_provisioner_nrf52832_xxAA_s132_6.0.0.dir/__/__/__/mesh/core/src/bearer_event.c.obj
                0x000000000002f964                bearer_event_sequential_add
 .text.bearer_event_sequential_post
                0x000000000002f998       0x64 CMakeFiles/light_switch_provisioner_nrf52832_xxAA_s132_6.0.0.dir/__/__/__/mesh/core/src/bearer_event.c.obj
                0x000000000002f998                bearer_event_sequential_post
 .text.bearer_event_sequential_pending
                0x000000000002f9fc       0x14 CMakeFiles/light_switch_provisioner_nrf52832_xxAA_s132_6.0.0.dir/__/__/__/mesh/core/src/bearer_event.c.obj
                0x000000000002f9fc                bearer_event_sequential_pending
 .text.bearer_event_handler
                0x000000000002fa10      0x16c CMakeFiles/light_switch_provisioner_nrf52832_xxAA_s132_6.0.0.dir/__/__/__/mesh/core/src/bearer_event.c.obj
                0x000000000002fa10                bearer_event_handler
 .text.QDEC_IRQHandler
                0x000000000002fb7c        0x4 CMakeFiles/light_switch_provisioner_nrf52832_xxAA_s132_6.0.0.dir/__/__/__/mesh/core/src/bearer_event.c.obj
                0x000000000002fb7c                QDEC_IRQHandler
 .text.enc_aes_encrypt
                0x000000000002fb80        0x4 CMakeFiles/light_switch_provisioner_nrf52832_xxAA_s132_6.0.0.dir/__/__/__/mesh/core/src/enc.c.obj
                0x000000000002fb80                enc_aes_encrypt
 .text.enc_aes_cmac
                0x000000000002fb84        0x4 CMakeFiles/light_switch_provisioner_nrf52832_xxAA_s132_6.0.0.dir/__/__/__/mesh/core/src/enc.c.obj
                0x000000000002fb84                enc_aes_cmac
 .text.enc_aes_ccm_encrypt
                0x000000000002fb88        0x4 CMakeFiles/light_switch_provisioner_nrf52832_xxAA_s132_6.0.0.dir/__/__/__/mesh/core/src/enc.c.obj
                0x000000000002fb88                enc_aes_ccm_encrypt
 .text.enc_aes_ccm_decrypt
                0x000000000002fb8c        0x4 CMakeFiles/light_switch_provisioner_nrf52832_xxAA_s132_6.0.0.dir/__/__/__/mesh/core/src/enc.c.obj
                0x000000000002fb8c                enc_aes_ccm_decrypt
 .text.enc_nonce_generate
                0x000000000002fb90       0xc8 CMakeFiles/light_switch_provisioner_nrf52832_xxAA_s132_6.0.0.dir/__/__/__/mesh/core/src/enc.c.obj
                0x000000000002fb90                enc_nonce_generate
 .text.enc_s1   0x000000000002fc58       0x30 CMakeFiles/light_switch_provisioner_nrf52832_xxAA_s132_6.0.0.dir/__/__/__/mesh/core/src/enc.c.obj
                0x000000000002fc58                enc_s1
 .text.enc_k1   0x000000000002fc88       0x40 CMakeFiles/light_switch_provisioner_nrf52832_xxAA_s132_6.0.0.dir/__/__/__/mesh/core/src/enc.c.obj
                0x000000000002fc88                enc_k1
 .text.enc_k2   0x000000000002fcc8       0xe0 CMakeFiles/light_switch_provisioner_nrf52832_xxAA_s132_6.0.0.dir/__/__/__/mesh/core/src/enc.c.obj
                0x000000000002fcc8                enc_k2
 .text.enc_k3   0x000000000002fda8       0x68 CMakeFiles/light_switch_provisioner_nrf52832_xxAA_s132_6.0.0.dir/__/__/__/mesh/core/src/enc.c.obj
                0x000000000002fda8                enc_k3
 .text.enc_k4   0x000000000002fe10       0x60 CMakeFiles/light_switch_provisioner_nrf52832_xxAA_s132_6.0.0.dir/__/__/__/mesh/core/src/enc.c.obj
                0x000000000002fe10                enc_k4
 .text.network_init
                0x000000000002fe70       0x28 CMakeFiles/light_switch_provisioner_nrf52832_xxAA_s132_6.0.0.dir/__/__/__/mesh/core/src/network.c.obj
                0x000000000002fe70                network_init
 .text.network_opt_set
                0x000000000002fe98       0x84 CMakeFiles/light_switch_provisioner_nrf52832_xxAA_s132_6.0.0.dir/__/__/__/mesh/core/src/network.c.obj
                0x000000000002fe98                network_opt_set
 .text.network_opt_get
                0x000000000002ff1c       0x5c CMakeFiles/light_switch_provisioner_nrf52832_xxAA_s132_6.0.0.dir/__/__/__/mesh/core/src/network.c.obj
                0x000000000002ff1c                network_opt_get
 .text.network_packet_alloc
                0x000000000002ff78       0xa0 CMakeFiles/light_switch_provisioner_nrf52832_xxAA_s132_6.0.0.dir/__/__/__/mesh/core/src/network.c.obj
                0x000000000002ff78                network_packet_alloc
 .text.network_packet_send
                0x0000000000030018       0x58 CMakeFiles/light_switch_provisioner_nrf52832_xxAA_s132_6.0.0.dir/__/__/__/mesh/core/src/network.c.obj
                0x0000000000030018                network_packet_send
 .text.network_packet_in
                0x0000000000030070      0x1c8 CMakeFiles/light_switch_provisioner_nrf52832_xxAA_s132_6.0.0.dir/__/__/__/mesh/core/src/network.c.obj
                0x0000000000030070                network_packet_in
 .text.net_packet_decrypt
                0x0000000000030238      0x2bc CMakeFiles/light_switch_provisioner_nrf52832_xxAA_s132_6.0.0.dir/__/__/__/mesh/core/src/net_packet.c.obj
                0x0000000000030238                net_packet_decrypt
 .text.net_packet_encrypt
                0x00000000000304f4      0x100 CMakeFiles/light_switch_provisioner_nrf52832_xxAA_s132_6.0.0.dir/__/__/__/mesh/core/src/net_packet.c.obj
                0x00000000000304f4                net_packet_encrypt
 .text.net_packet_header_set
                0x00000000000305f4       0xc0 CMakeFiles/light_switch_provisioner_nrf52832_xxAA_s132_6.0.0.dir/__/__/__/mesh/core/src/net_packet.c.obj
                0x00000000000305f4                net_packet_header_set
 .text.net_packet_payload_len_get
                0x00000000000306b4       0x14 CMakeFiles/light_switch_provisioner_nrf52832_xxAA_s132_6.0.0.dir/__/__/__/mesh/core/src/net_packet.c.obj
                0x00000000000306b4                net_packet_payload_len_get
 .text.net_packet_from_payload
                0x00000000000306c8        0x4 CMakeFiles/light_switch_provisioner_nrf52832_xxAA_s132_6.0.0.dir/__/__/__/mesh/core/src/net_packet.c.obj
                0x00000000000306c8                net_packet_from_payload
 .text.net_packet_obfuscation_start_get
                0x00000000000306cc        0x4 CMakeFiles/light_switch_provisioner_nrf52832_xxAA_s132_6.0.0.dir/__/__/__/mesh/core/src/net_packet.c.obj
                0x00000000000306cc                net_packet_obfuscation_start_get
 .text.msq_init
                0x00000000000306d0       0x6c CMakeFiles/light_switch_provisioner_nrf52832_xxAA_s132_6.0.0.dir/__/__/__/mesh/core/src/msqueue.c.obj
                0x00000000000306d0                msq_init
 .text.msq_get  0x000000000003073c       0x54 CMakeFiles/light_switch_provisioner_nrf52832_xxAA_s132_6.0.0.dir/__/__/__/mesh/core/src/msqueue.c.obj
                0x000000000003073c                msq_get
 .text.msq_move
                0x0000000000030790       0x4c CMakeFiles/light_switch_provisioner_nrf52832_xxAA_s132_6.0.0.dir/__/__/__/mesh/core/src/msqueue.c.obj
                0x0000000000030790                msq_move
 .text.msq_available
                0x00000000000307dc       0x44 CMakeFiles/light_switch_provisioner_nrf52832_xxAA_s132_6.0.0.dir/__/__/__/mesh/core/src/msqueue.c.obj
                0x00000000000307dc                msq_available
 .text.nrf_mesh_keygen_aid
                0x0000000000030820       0x18 CMakeFiles/light_switch_provisioner_nrf52832_xxAA_s132_6.0.0.dir/__/__/__/mesh/core/src/nrf_mesh_keygen.c.obj
                0x0000000000030820                nrf_mesh_keygen_aid
 .text.nrf_mesh_keygen_network_secmat
                0x0000000000030838       0x24 CMakeFiles/light_switch_provisioner_nrf52832_xxAA_s132_6.0.0.dir/__/__/__/mesh/core/src/nrf_mesh_keygen.c.obj
                0x0000000000030838                nrf_mesh_keygen_network_secmat
 .text.nrf_mesh_keygen_beacon_secmat
                0x000000000003085c       0x50 CMakeFiles/light_switch_provisioner_nrf52832_xxAA_s132_6.0.0.dir/__/__/__/mesh/core/src/nrf_mesh_keygen.c.obj
                0x000000000003085c                nrf_mesh_keygen_beacon_secmat
 .text.nrf_mesh_keygen_virtual_address
                0x00000000000308ac       0x50 CMakeFiles/light_switch_provisioner_nrf52832_xxAA_s132_6.0.0.dir/__/__/__/mesh/core/src/nrf_mesh_keygen.c.obj
                0x00000000000308ac                nrf_mesh_keygen_virtual_address
 .text.list_add
                0x00000000000308fc       0x64 CMakeFiles/light_switch_provisioner_nrf52832_xxAA_s132_6.0.0.dir/__/__/__/mesh/core/src/list.c.obj
                0x00000000000308fc                list_add
 .text.list_remove
                0x0000000000030960       0x44 CMakeFiles/light_switch_provisioner_nrf52832_xxAA_s132_6.0.0.dir/__/__/__/mesh/core/src/list.c.obj
                0x0000000000030960                list_remove
 .text.list_compare_add
                0x00000000000309a4       0x80 CMakeFiles/light_switch_provisioner_nrf52832_xxAA_s132_6.0.0.dir/__/__/__/mesh/core/src/list.c.obj
                0x00000000000309a4                list_compare_add
 .text.log_callback_rtt
                0x0000000000030a24       0x2c CMakeFiles/light_switch_provisioner_nrf52832_xxAA_s132_6.0.0.dir/__/__/__/mesh/core/src/log.c.obj
                0x0000000000030a24                log_callback_rtt
 .text.log_init
                0x0000000000030a50       0x20 CMakeFiles/light_switch_provisioner_nrf52832_xxAA_s132_6.0.0.dir/__/__/__/mesh/core/src/log.c.obj
                0x0000000000030a50                log_init
 .text.log_printf
                0x0000000000030a70       0x20 CMakeFiles/light_switch_provisioner_nrf52832_xxAA_s132_6.0.0.dir/__/__/__/mesh/core/src/log.c.obj
                0x0000000000030a70                log_printf
 .text.process_action_queue
                0x0000000000030a90      0x794 CMakeFiles/light_switch_provisioner_nrf52832_xxAA_s132_6.0.0.dir/__/__/__/mesh/core/src/flash_manager.c.obj
 .text.flash_op_ended_callback
                0x0000000000031224       0x24 CMakeFiles/light_switch_provisioner_nrf52832_xxAA_s132_6.0.0.dir/__/__/__/mesh/core/src/flash_manager.c.obj
 .text.flash_manager_init
                0x0000000000031248       0x68 CMakeFiles/light_switch_provisioner_nrf52832_xxAA_s132_6.0.0.dir/__/__/__/mesh/core/src/flash_manager.c.obj
                0x0000000000031248                flash_manager_init
 .text.flash_manager_remove
                0x00000000000312b0       0x6c CMakeFiles/light_switch_provisioner_nrf52832_xxAA_s132_6.0.0.dir/__/__/__/mesh/core/src/flash_manager.c.obj
                0x00000000000312b0                flash_manager_remove
 .text.flash_manager_entry_get
                0x000000000003131c       0x48 CMakeFiles/light_switch_provisioner_nrf52832_xxAA_s132_6.0.0.dir/__/__/__/mesh/core/src/flash_manager.c.obj
                0x000000000003131c                flash_manager_entry_get
 .text.flash_manager_entry_next_get
                0x0000000000031364      0x144 CMakeFiles/light_switch_provisioner_nrf52832_xxAA_s132_6.0.0.dir/__/__/__/mesh/core/src/flash_manager.c.obj
                0x0000000000031364                flash_manager_entry_next_get
 .text.flash_manager_entry_alloc
                0x00000000000314a8       0x80 CMakeFiles/light_switch_provisioner_nrf52832_xxAA_s132_6.0.0.dir/__/__/__/mesh/core/src/flash_manager.c.obj
                0x00000000000314a8                flash_manager_entry_alloc
 .text.flash_manager_entry_commit
                0x0000000000031528       0x58 CMakeFiles/light_switch_provisioner_nrf52832_xxAA_s132_6.0.0.dir/__/__/__/mesh/core/src/flash_manager.c.obj
                0x0000000000031528                flash_manager_entry_commit
 .text.flash_manager_entry_invalidate
                0x0000000000031580       0x98 CMakeFiles/light_switch_provisioner_nrf52832_xxAA_s132_6.0.0.dir/__/__/__/mesh/core/src/flash_manager.c.obj
                0x0000000000031580                flash_manager_entry_invalidate
 .text.flash_manager_add
                0x0000000000031618      0x3f4 CMakeFiles/light_switch_provisioner_nrf52832_xxAA_s132_6.0.0.dir/__/__/__/mesh/core/src/flash_manager.c.obj
                0x0000000000031618                flash_manager_add
 .text.flash_manager_mem_listener_register
                0x0000000000031a0c       0x38 CMakeFiles/light_switch_provisioner_nrf52832_xxAA_s132_6.0.0.dir/__/__/__/mesh/core/src/flash_manager.c.obj
                0x0000000000031a0c                flash_manager_mem_listener_register
 .text.flash_manager_is_stable
                0x0000000000031a44       0x20 CMakeFiles/light_switch_provisioner_nrf52832_xxAA_s132_6.0.0.dir/__/__/__/mesh/core/src/flash_manager.c.obj
                0x0000000000031a44                flash_manager_is_stable
 .text.flash_manager_on_defrag_end
                0x0000000000031a64       0x58 CMakeFiles/light_switch_provisioner_nrf52832_xxAA_s132_6.0.0.dir/__/__/__/mesh/core/src/flash_manager.c.obj
                0x0000000000031a64                flash_manager_on_defrag_end
 .text.flash_manager_recovery_page_get
                0x0000000000031abc        0x4 CMakeFiles/light_switch_provisioner_nrf52832_xxAA_s132_6.0.0.dir/__/__/__/mesh/core/src/flash_manager.c.obj
                0x0000000000031abc                flash_manager_recovery_page_get
 .text.flash_manager_action_queue_empty_cb_set
                0x0000000000031ac0       0x20 CMakeFiles/light_switch_provisioner_nrf52832_xxAA_s132_6.0.0.dir/__/__/__/mesh/core/src/flash_manager.c.obj
                0x0000000000031ac0                flash_manager_action_queue_empty_cb_set
 .text.ccm_soft_crypt.constprop.0
                0x0000000000031ae0      0x274 CMakeFiles/light_switch_provisioner_nrf52832_xxAA_s132_6.0.0.dir/__/__/__/mesh/core/src/ccm_soft.c.obj
 .text.ccm_soft_authenticate
                0x0000000000031d54      0x308 CMakeFiles/light_switch_provisioner_nrf52832_xxAA_s132_6.0.0.dir/__/__/__/mesh/core/src/ccm_soft.c.obj
 .text.ccm_soft_encrypt
                0x000000000003205c       0x7c CMakeFiles/light_switch_provisioner_nrf52832_xxAA_s132_6.0.0.dir/__/__/__/mesh/core/src/ccm_soft.c.obj
                0x000000000003205c                ccm_soft_encrypt
 .text.ccm_soft_decrypt
                0x00000000000320d8      0x114 CMakeFiles/light_switch_provisioner_nrf52832_xxAA_s132_6.0.0.dir/__/__/__/mesh/core/src/ccm_soft.c.obj
                0x00000000000320d8                ccm_soft_decrypt
 .text.replay_cache_init
                0x00000000000321ec       0x20 CMakeFiles/light_switch_provisioner_nrf52832_xxAA_s132_6.0.0.dir/__/__/__/mesh/core/src/replay_cache.c.obj
                0x00000000000321ec                replay_cache_init
 .text.replay_cache_add
                0x000000000003220c       0x68 CMakeFiles/light_switch_provisioner_nrf52832_xxAA_s132_6.0.0.dir/__/__/__/mesh/core/src/replay_cache.c.obj
                0x000000000003220c                replay_cache_add
 .text.replay_cache_has_elem
                0x0000000000032274       0x44 CMakeFiles/light_switch_provisioner_nrf52832_xxAA_s132_6.0.0.dir/__/__/__/mesh/core/src/replay_cache.c.obj
                0x0000000000032274                replay_cache_has_elem
 .text.beacon_create
                0x00000000000322b8       0x50 CMakeFiles/light_switch_provisioner_nrf52832_xxAA_s132_6.0.0.dir/__/__/__/mesh/core/src/beacon.c.obj
                0x00000000000322b8                beacon_create
 .text.beacon_packet_in
                0x0000000000032308      0x178 CMakeFiles/light_switch_provisioner_nrf52832_xxAA_s132_6.0.0.dir/__/__/__/mesh/core/src/beacon.c.obj
                0x0000000000032308                beacon_packet_in
 .text.entry_get
                0x0000000000032480       0x7c CMakeFiles/light_switch_provisioner_nrf52832_xxAA_s132_6.0.0.dir/__/__/__/mesh/core/src/flash_manager_internal.c.obj
                0x0000000000032480                entry_get
 .text.core_tx_complete_cb_set
                0x00000000000324fc        0xc CMakeFiles/light_switch_provisioner_nrf52832_xxAA_s132_6.0.0.dir/__/__/__/mesh/core/src/core_tx.c.obj
                0x00000000000324fc                core_tx_complete_cb_set
 .text.core_tx_packet_alloc
                0x0000000000032508       0xc0 CMakeFiles/light_switch_provisioner_nrf52832_xxAA_s132_6.0.0.dir/__/__/__/mesh/core/src/core_tx.c.obj
                0x0000000000032508                core_tx_packet_alloc
 .text.core_tx_packet_send
                0x00000000000325c8       0x5c CMakeFiles/light_switch_provisioner_nrf52832_xxAA_s132_6.0.0.dir/__/__/__/mesh/core/src/core_tx.c.obj
                0x00000000000325c8                core_tx_packet_send
 .text.core_tx_packet_discard
                0x0000000000032624       0x54 CMakeFiles/light_switch_provisioner_nrf52832_xxAA_s132_6.0.0.dir/__/__/__/mesh/core/src/core_tx.c.obj
                0x0000000000032624                core_tx_packet_discard
 .text.core_tx_complete
                0x0000000000032678       0x38 CMakeFiles/light_switch_provisioner_nrf52832_xxAA_s132_6.0.0.dir/__/__/__/mesh/core/src/core_tx.c.obj
                0x0000000000032678                core_tx_complete
 .text.core_tx_bearer_add
                0x00000000000326b0       0x90 CMakeFiles/light_switch_provisioner_nrf52832_xxAA_s132_6.0.0.dir/__/__/__/mesh/core/src/core_tx.c.obj
                0x00000000000326b0                core_tx_bearer_add
 .text.heartbeat_subscription_timer_cb
                0x0000000000032740       0x1c CMakeFiles/light_switch_provisioner_nrf52832_xxAA_s132_6.0.0.dir/__/__/__/mesh/core/src/heartbeat.c.obj
 .text.heartbeat_opcode_handle
                0x000000000003275c       0x8c CMakeFiles/light_switch_provisioner_nrf52832_xxAA_s132_6.0.0.dir/__/__/__/mesh/core/src/heartbeat.c.obj
 .text.heartbeat_send
                0x00000000000327e8       0xbc CMakeFiles/light_switch_provisioner_nrf52832_xxAA_s132_6.0.0.dir/__/__/__/mesh/core/src/heartbeat.c.obj
 .text.heartbeat_core_evt_cb
                0x00000000000328a4       0x94 CMakeFiles/light_switch_provisioner_nrf52832_xxAA_s132_6.0.0.dir/__/__/__/mesh/core/src/heartbeat.c.obj
 .text.heartbeat_publication_timer_cb
                0x0000000000032938       0xb0 CMakeFiles/light_switch_provisioner_nrf52832_xxAA_s132_6.0.0.dir/__/__/__/mesh/core/src/heartbeat.c.obj
 .text.heartbeat_on_feature_change_trigger
                0x00000000000329e8       0x48 CMakeFiles/light_switch_provisioner_nrf52832_xxAA_s132_6.0.0.dir/__/__/__/mesh/core/src/heartbeat.c.obj
                0x00000000000329e8                heartbeat_on_feature_change_trigger
 .text.heartbeat_init
                0x0000000000032a30       0x7c CMakeFiles/light_switch_provisioner_nrf52832_xxAA_s132_6.0.0.dir/__/__/__/mesh/core/src/heartbeat.c.obj
                0x0000000000032a30                heartbeat_init
 .text.heartbeat_subscription_set
                0x0000000000032aac       0xa4 CMakeFiles/light_switch_provisioner_nrf52832_xxAA_s132_6.0.0.dir/__/__/__/mesh/core/src/heartbeat.c.obj
                0x0000000000032aac                heartbeat_subscription_set
 .text.heartbeat_subscription_get
                0x0000000000032b50        0x8 CMakeFiles/light_switch_provisioner_nrf52832_xxAA_s132_6.0.0.dir/__/__/__/mesh/core/src/heartbeat.c.obj
                0x0000000000032b50                heartbeat_subscription_get
 .text.heartbeat_config_server_cb_set
                0x0000000000032b58       0x30 CMakeFiles/light_switch_provisioner_nrf52832_xxAA_s132_6.0.0.dir/__/__/__/mesh/core/src/heartbeat.c.obj
                0x0000000000032b58                heartbeat_config_server_cb_set
 .text.heartbeat_publication_state_updated
                0x0000000000032b88       0x78 CMakeFiles/light_switch_provisioner_nrf52832_xxAA_s132_6.0.0.dir/__/__/__/mesh/core/src/heartbeat.c.obj
                0x0000000000032b88                heartbeat_publication_state_updated
 .text.beacon_tx
                0x0000000000032c00      0x194 CMakeFiles/light_switch_provisioner_nrf52832_xxAA_s132_6.0.0.dir/__/__/__/mesh/core/src/net_beacon.c.obj
 .text.tx_complete_cb
                0x0000000000032d94       0x10 CMakeFiles/light_switch_provisioner_nrf52832_xxAA_s132_6.0.0.dir/__/__/__/mesh/core/src/net_beacon.c.obj
 .text.beacon_tx_timeout
                0x0000000000032da4        0x4 CMakeFiles/light_switch_provisioner_nrf52832_xxAA_s132_6.0.0.dir/__/__/__/mesh/core/src/net_beacon.c.obj
 .text.net_beacon_init
                0x0000000000032da8       0x94 CMakeFiles/light_switch_provisioner_nrf52832_xxAA_s132_6.0.0.dir/__/__/__/mesh/core/src/net_beacon.c.obj
                0x0000000000032da8                net_beacon_init
 .text.net_beacon_state_set
                0x0000000000032e3c       0x3c CMakeFiles/light_switch_provisioner_nrf52832_xxAA_s132_6.0.0.dir/__/__/__/mesh/core/src/net_beacon.c.obj
                0x0000000000032e3c                net_beacon_state_set
 .text.net_beacon_state_get
                0x0000000000032e78        0xc CMakeFiles/light_switch_provisioner_nrf52832_xxAA_s132_6.0.0.dir/__/__/__/mesh/core/src/net_beacon.c.obj
                0x0000000000032e78                net_beacon_state_get
 .text.net_beacon_packet_in
                0x0000000000032e84      0x134 CMakeFiles/light_switch_provisioner_nrf52832_xxAA_s132_6.0.0.dir/__/__/__/mesh/core/src/net_beacon.c.obj
                0x0000000000032e84                net_beacon_packet_in
 .text.packet_discard
                0x0000000000032fb8       0x40 CMakeFiles/light_switch_provisioner_nrf52832_xxAA_s132_6.0.0.dir/__/__/__/mesh/core/src/core_tx_adv.c.obj
 .text.packet_send
                0x0000000000032ff8       0x58 CMakeFiles/light_switch_provisioner_nrf52832_xxAA_s132_6.0.0.dir/__/__/__/mesh/core/src/core_tx_adv.c.obj
 .text.packet_alloc
                0x0000000000033050       0x5c CMakeFiles/light_switch_provisioner_nrf52832_xxAA_s132_6.0.0.dir/__/__/__/mesh/core/src/core_tx_adv.c.obj
 .text.adv_tx_complete_callback
                0x00000000000330ac       0x28 CMakeFiles/light_switch_provisioner_nrf52832_xxAA_s132_6.0.0.dir/__/__/__/mesh/core/src/core_tx_adv.c.obj
 .text.core_tx_adv_init
                0x00000000000330d4       0x60 CMakeFiles/light_switch_provisioner_nrf52832_xxAA_s132_6.0.0.dir/__/__/__/mesh/core/src/core_tx_adv.c.obj
                0x00000000000330d4                core_tx_adv_init
 .text.core_tx_adv_count_set
                0x0000000000033134       0x2c CMakeFiles/light_switch_provisioner_nrf52832_xxAA_s132_6.0.0.dir/__/__/__/mesh/core/src/core_tx_adv.c.obj
                0x0000000000033134                core_tx_adv_count_set
 .text.core_tx_adv_count_get
                0x0000000000033160       0x20 CMakeFiles/light_switch_provisioner_nrf52832_xxAA_s132_6.0.0.dir/__/__/__/mesh/core/src/core_tx_adv.c.obj
                0x0000000000033160                core_tx_adv_count_get
 .text.core_tx_adv_interval_set
                0x0000000000033180       0x28 CMakeFiles/light_switch_provisioner_nrf52832_xxAA_s132_6.0.0.dir/__/__/__/mesh/core/src/core_tx_adv.c.obj
                0x0000000000033180                core_tx_adv_interval_set
 .text.core_tx_adv_interval_get
                0x00000000000331a8       0x2c CMakeFiles/light_switch_provisioner_nrf52832_xxAA_s132_6.0.0.dir/__/__/__/mesh/core/src/core_tx_adv.c.obj
                0x00000000000331a8                core_tx_adv_interval_get
 .text.ad_listener_subscribe
                0x00000000000331d4       0x60 CMakeFiles/light_switch_provisioner_nrf52832_xxAA_s132_6.0.0.dir/__/__/__/mesh/bearer/src/ad_listener.c.obj
                0x00000000000331d4                ad_listener_subscribe
 .text.ad_listener_process
                0x0000000000033234       0x84 CMakeFiles/light_switch_provisioner_nrf52832_xxAA_s132_6.0.0.dir/__/__/__/mesh/bearer/src/ad_listener.c.obj
                0x0000000000033234                ad_listener_process
 .text.adtype_filter_handle
                0x00000000000332b8       0x94 CMakeFiles/light_switch_provisioner_nrf52832_xxAA_s132_6.0.0.dir/__/__/__/mesh/bearer/src/ad_type_filter.c.obj
 .text.bearer_adtype_filtering_set
                0x000000000003334c       0x1c CMakeFiles/light_switch_provisioner_nrf52832_xxAA_s132_6.0.0.dir/__/__/__/mesh/bearer/src/ad_type_filter.c.obj
                0x000000000003334c                bearer_adtype_filtering_set
 .text.bearer_adtype_add
                0x0000000000033368       0x24 CMakeFiles/light_switch_provisioner_nrf52832_xxAA_s132_6.0.0.dir/__/__/__/mesh/bearer/src/ad_type_filter.c.obj
                0x0000000000033368                bearer_adtype_add
 .text.bearer_adtype_mode_set
                0x000000000003338c       0x18 CMakeFiles/light_switch_provisioner_nrf52832_xxAA_s132_6.0.0.dir/__/__/__/mesh/bearer/src/ad_type_filter.c.obj
                0x000000000003338c                bearer_adtype_mode_set
 .text.tx_complete_event_callback
                0x00000000000333a4       0x34 CMakeFiles/light_switch_provisioner_nrf52832_xxAA_s132_6.0.0.dir/__/__/__/mesh/bearer/src/advertiser.c.obj
 .text.broadcast_complete_cb
                0x00000000000333d8       0x48 CMakeFiles/light_switch_provisioner_nrf52832_xxAA_s132_6.0.0.dir/__/__/__/mesh/bearer/src/advertiser.c.obj
 .text.timeout_event
                0x0000000000033420      0x12c CMakeFiles/light_switch_provisioner_nrf52832_xxAA_s132_6.0.0.dir/__/__/__/mesh/bearer/src/advertiser.c.obj
 .text.advertiser_init
                0x000000000003354c        0xc CMakeFiles/light_switch_provisioner_nrf52832_xxAA_s132_6.0.0.dir/__/__/__/mesh/bearer/src/advertiser.c.obj
                0x000000000003354c                advertiser_init
 .text.advertiser_instance_init
                0x0000000000033558      0x100 CMakeFiles/light_switch_provisioner_nrf52832_xxAA_s132_6.0.0.dir/__/__/__/mesh/bearer/src/advertiser.c.obj
                0x0000000000033558                advertiser_instance_init
 .text.advertiser_enable
                0x0000000000033658       0x44 CMakeFiles/light_switch_provisioner_nrf52832_xxAA_s132_6.0.0.dir/__/__/__/mesh/bearer/src/advertiser.c.obj
                0x0000000000033658                advertiser_enable
 .text.advertiser_packet_alloc
                0x000000000003369c       0x80 CMakeFiles/light_switch_provisioner_nrf52832_xxAA_s132_6.0.0.dir/__/__/__/mesh/bearer/src/advertiser.c.obj
                0x000000000003369c                advertiser_packet_alloc
 .text.advertiser_packet_send
                0x000000000003371c       0x84 CMakeFiles/light_switch_provisioner_nrf52832_xxAA_s132_6.0.0.dir/__/__/__/mesh/bearer/src/advertiser.c.obj
                0x000000000003371c                advertiser_packet_send
 .text.advertiser_packet_discard
                0x00000000000337a0       0x2c CMakeFiles/light_switch_provisioner_nrf52832_xxAA_s132_6.0.0.dir/__/__/__/mesh/bearer/src/advertiser.c.obj
                0x00000000000337a0                advertiser_packet_discard
 .text.advertiser_interval_set
                0x00000000000337cc       0x6c CMakeFiles/light_switch_provisioner_nrf52832_xxAA_s132_6.0.0.dir/__/__/__/mesh/bearer/src/advertiser.c.obj
                0x00000000000337cc                advertiser_interval_set
 .text.advertiser_flush
                0x0000000000033838       0x20 CMakeFiles/light_switch_provisioner_nrf52832_xxAA_s132_6.0.0.dir/__/__/__/mesh/bearer/src/advertiser.c.obj
                0x0000000000033838                advertiser_flush
 .text.action_switch.part.2
                0x0000000000033858       0xb4 CMakeFiles/light_switch_provisioner_nrf52832_xxAA_s132_6.0.0.dir/__/__/__/mesh/bearer/src/bearer_handler.c.obj
 .text.bearer_handler_init
                0x000000000003390c       0x2c CMakeFiles/light_switch_provisioner_nrf52832_xxAA_s132_6.0.0.dir/__/__/__/mesh/bearer/src/bearer_handler.c.obj
                0x000000000003390c                bearer_handler_init
 .text.bearer_handler_start
                0x0000000000033938       0x1c CMakeFiles/light_switch_provisioner_nrf52832_xxAA_s132_6.0.0.dir/__/__/__/mesh/bearer/src/bearer_handler.c.obj
                0x0000000000033938                bearer_handler_start
 .text.bearer_handler_action_enqueue
                0x0000000000033954       0x88 CMakeFiles/light_switch_provisioner_nrf52832_xxAA_s132_6.0.0.dir/__/__/__/mesh/bearer/src/bearer_handler.c.obj
                0x0000000000033954                bearer_handler_action_enqueue
 .text.bearer_handler_action_end
                0x00000000000339dc       0x68 CMakeFiles/light_switch_provisioner_nrf52832_xxAA_s132_6.0.0.dir/__/__/__/mesh/bearer/src/bearer_handler.c.obj
                0x00000000000339dc                bearer_handler_action_end
 .text.bearer_handler_radio_irq_handler
                0x0000000000033a44       0x58 CMakeFiles/light_switch_provisioner_nrf52832_xxAA_s132_6.0.0.dir/__/__/__/mesh/bearer/src/bearer_handler.c.obj
                0x0000000000033a44                bearer_handler_radio_irq_handler
 .text.bearer_handler_timer_irq_handler
                0x0000000000033a9c       0x34 CMakeFiles/light_switch_provisioner_nrf52832_xxAA_s132_6.0.0.dir/__/__/__/mesh/bearer/src/bearer_handler.c.obj
                0x0000000000033a9c                bearer_handler_timer_irq_handler
 .text.bearer_handler_on_ts_begin
                0x0000000000033ad0       0x3c CMakeFiles/light_switch_provisioner_nrf52832_xxAA_s132_6.0.0.dir/__/__/__/mesh/bearer/src/bearer_handler.c.obj
                0x0000000000033ad0                bearer_handler_on_ts_begin
 .text.bearer_handler_on_ts_end
                0x0000000000033b0c       0x38 CMakeFiles/light_switch_provisioner_nrf52832_xxAA_s132_6.0.0.dir/__/__/__/mesh/bearer/src/bearer_handler.c.obj
                0x0000000000033b0c                bearer_handler_on_ts_end
 .text.radio_irq_handler
                0x0000000000033b44       0x98 CMakeFiles/light_switch_provisioner_nrf52832_xxAA_s132_6.0.0.dir/__/__/__/mesh/bearer/src/broadcast.c.obj
 .text.broadcast_start
                0x0000000000033bdc       0x8c CMakeFiles/light_switch_provisioner_nrf52832_xxAA_s132_6.0.0.dir/__/__/__/mesh/bearer/src/broadcast.c.obj
 .text.broadcast_send
                0x0000000000033c68       0x74 CMakeFiles/light_switch_provisioner_nrf52832_xxAA_s132_6.0.0.dir/__/__/__/mesh/bearer/src/broadcast.c.obj
                0x0000000000033c68                broadcast_send
 .text.fen_filter_start
                0x0000000000033cdc       0x38 CMakeFiles/light_switch_provisioner_nrf52832_xxAA_s132_6.0.0.dir/__/__/__/mesh/bearer/src/filter_engine.c.obj
                0x0000000000033cdc                fen_filter_start
 .text.fen_filter_stop
                0x0000000000033d14       0x2c CMakeFiles/light_switch_provisioner_nrf52832_xxAA_s132_6.0.0.dir/__/__/__/mesh/bearer/src/filter_engine.c.obj
                0x0000000000033d14                fen_filter_stop
 .text.fen_filters_apply
                0x0000000000033d40       0x34 CMakeFiles/light_switch_provisioner_nrf52832_xxAA_s132_6.0.0.dir/__/__/__/mesh/bearer/src/filter_engine.c.obj
                0x0000000000033d40                fen_filters_apply
 .text.radio_config_reset
                0x0000000000033d74       0x38 CMakeFiles/light_switch_provisioner_nrf52832_xxAA_s132_6.0.0.dir/__/__/__/mesh/bearer/src/radio_config.c.obj
                0x0000000000033d74                radio_config_reset
 .text.radio_config_channel_set
                0x0000000000033dac       0x28 CMakeFiles/light_switch_provisioner_nrf52832_xxAA_s132_6.0.0.dir/__/__/__/mesh/bearer/src/radio_config.c.obj
                0x0000000000033dac                radio_config_channel_set
 .text.radio_config_config
                0x0000000000033dd4       0x94 CMakeFiles/light_switch_provisioner_nrf52832_xxAA_s132_6.0.0.dir/__/__/__/mesh/bearer/src/radio_config.c.obj
                0x0000000000033dd4                radio_config_config
 .text.radio_config_access_addr_set
                0x0000000000033e68       0x58 CMakeFiles/light_switch_provisioner_nrf52832_xxAA_s132_6.0.0.dir/__/__/__/mesh/bearer/src/radio_config.c.obj
                0x0000000000033e68                radio_config_access_addr_set
 .text.scan_window_end
                0x0000000000033ec0       0x28 CMakeFiles/light_switch_provisioner_nrf52832_xxAA_s132_6.0.0.dir/__/__/__/mesh/bearer/src/scanner.c.obj
 .text.scan_window_start
                0x0000000000033ee8       0x38 CMakeFiles/light_switch_provisioner_nrf52832_xxAA_s132_6.0.0.dir/__/__/__/mesh/bearer/src/scanner.c.obj
 .text.radio_start
                0x0000000000033f20      0x1a8 CMakeFiles/light_switch_provisioner_nrf52832_xxAA_s132_6.0.0.dir/__/__/__/mesh/bearer/src/scanner.c.obj
 .text.scanner_radio_start
                0x00000000000340c8      0x14c CMakeFiles/light_switch_provisioner_nrf52832_xxAA_s132_6.0.0.dir/__/__/__/mesh/bearer/src/scanner.c.obj
                0x00000000000340c8                scanner_radio_start
 .text.scanner_radio_stop
                0x0000000000034214       0x34 CMakeFiles/light_switch_provisioner_nrf52832_xxAA_s132_6.0.0.dir/__/__/__/mesh/bearer/src/scanner.c.obj
                0x0000000000034214                scanner_radio_stop
 .text.scanner_radio_irq_handler
                0x0000000000034248      0x200 CMakeFiles/light_switch_provisioner_nrf52832_xxAA_s132_6.0.0.dir/__/__/__/mesh/bearer/src/scanner.c.obj
                0x0000000000034248                scanner_radio_irq_handler
 .text.scanner_enable
                0x0000000000034448       0x50 CMakeFiles/light_switch_provisioner_nrf52832_xxAA_s132_6.0.0.dir/__/__/__/mesh/bearer/src/scanner.c.obj
                0x0000000000034448                scanner_enable
 .text.scanner_rx
                0x0000000000034498       0x8c CMakeFiles/light_switch_provisioner_nrf52832_xxAA_s132_6.0.0.dir/__/__/__/mesh/bearer/src/scanner.c.obj
                0x0000000000034498                scanner_rx
 .text.scanner_packet_release
                0x0000000000034524       0x40 CMakeFiles/light_switch_provisioner_nrf52832_xxAA_s132_6.0.0.dir/__/__/__/mesh/bearer/src/scanner.c.obj
                0x0000000000034524                scanner_packet_release
 .text.scanner_rx_pending
                0x0000000000034564        0xc CMakeFiles/light_switch_provisioner_nrf52832_xxAA_s132_6.0.0.dir/__/__/__/mesh/bearer/src/scanner.c.obj
                0x0000000000034564                scanner_rx_pending
 .text.scanner_config_reset
                0x0000000000034570       0xa4 CMakeFiles/light_switch_provisioner_nrf52832_xxAA_s132_6.0.0.dir/__/__/__/mesh/bearer/src/scanner.c.obj
                0x0000000000034570                scanner_config_reset
 .text.scanner_init
                0x0000000000034614       0x54 CMakeFiles/light_switch_provisioner_nrf52832_xxAA_s132_6.0.0.dir/__/__/__/mesh/bearer/src/scanner.c.obj
                0x0000000000034614                scanner_init
 .text.config_opcode_handler
                0x0000000000034668      0x100 CMakeFiles/light_switch_provisioner_nrf52832_xxAA_s132_6.0.0.dir/__/__/__/models/config/src/config_client.c.obj
 .text.reliable_status_cb
                0x0000000000034768       0x50 CMakeFiles/light_switch_provisioner_nrf52832_xxAA_s132_6.0.0.dir/__/__/__/models/config/src/config_client.c.obj
 .text.config_client_init
                0x00000000000347b8       0x50 CMakeFiles/light_switch_provisioner_nrf52832_xxAA_s132_6.0.0.dir/__/__/__/models/config/src/config_client.c.obj
                0x00000000000347b8                config_client_init
 .text.config_client_server_set
                0x0000000000034808       0xa0 CMakeFiles/light_switch_provisioner_nrf52832_xxAA_s132_6.0.0.dir/__/__/__/models/config/src/config_client.c.obj
                0x0000000000034808                config_client_server_set
 .text.config_client_server_bind
                0x00000000000348a8       0x34 CMakeFiles/light_switch_provisioner_nrf52832_xxAA_s132_6.0.0.dir/__/__/__/models/config/src/config_client.c.obj
                0x00000000000348a8                config_client_server_bind
 .text.config_client_composition_data_get
                0x00000000000348dc       0xb0 CMakeFiles/light_switch_provisioner_nrf52832_xxAA_s132_6.0.0.dir/__/__/__/models/config/src/config_client.c.obj
                0x00000000000348dc                config_client_composition_data_get
 .text.config_client_appkey_add
                0x000000000003498c       0xec CMakeFiles/light_switch_provisioner_nrf52832_xxAA_s132_6.0.0.dir/__/__/__/models/config/src/config_client.c.obj
                0x000000000003498c                config_client_appkey_add
 .text.config_client_model_publication_set
                0x0000000000034a78      0x1e4 CMakeFiles/light_switch_provisioner_nrf52832_xxAA_s132_6.0.0.dir/__/__/__/models/config/src/config_client.c.obj
                0x0000000000034a78                config_client_model_publication_set
 .text.config_client_model_subscription_add
                0x0000000000034c5c      0x188 CMakeFiles/light_switch_provisioner_nrf52832_xxAA_s132_6.0.0.dir/__/__/__/models/config/src/config_client.c.obj
                0x0000000000034c5c                config_client_model_subscription_add
 .text.config_client_model_app_bind
                0x0000000000034de4       0xf0 CMakeFiles/light_switch_provisioner_nrf52832_xxAA_s132_6.0.0.dir/__/__/__/models/config/src/config_client.c.obj
                0x0000000000034de4                config_client_model_app_bind
 .text.config_client_pending_msg_cancel
                0x0000000000034ed4        0xc CMakeFiles/light_switch_provisioner_nrf52832_xxAA_s132_6.0.0.dir/__/__/__/models/config/src/config_client.c.obj
                0x0000000000034ed4                config_client_pending_msg_cancel
 .text.config_composition_data_get
                0x0000000000034ee0      0x1cc CMakeFiles/light_switch_provisioner_nrf52832_xxAA_s132_6.0.0.dir/__/__/__/models/config/src/composition_data.c.obj
                0x0000000000034ee0                config_composition_data_get
 .text.config_server_heartbeat_publication_count_decrement
                0x00000000000350ac       0x1c CMakeFiles/light_switch_provisioner_nrf52832_xxAA_s132_6.0.0.dir/__/__/__/models/config/src/config_server.c.obj
 .text.config_server_heartbeat_publication_params_get
                0x00000000000350c8       0x38 CMakeFiles/light_switch_provisioner_nrf52832_xxAA_s132_6.0.0.dir/__/__/__/models/config/src/config_server.c.obj
 .text.handle_config_network_transmit_set
                0x0000000000035100      0x118 CMakeFiles/light_switch_provisioner_nrf52832_xxAA_s132_6.0.0.dir/__/__/__/models/config/src/config_server.c.obj
 .text.handle_node_reset
                0x0000000000035218       0x30 CMakeFiles/light_switch_provisioner_nrf52832_xxAA_s132_6.0.0.dir/__/__/__/models/config/src/config_server.c.obj
 .text.handle_config_relay_set
                0x0000000000035248      0x1a8 CMakeFiles/light_switch_provisioner_nrf52832_xxAA_s132_6.0.0.dir/__/__/__/models/config/src/config_server.c.obj
 .text.send_subscription_status
                0x00000000000353f0       0x50 CMakeFiles/light_switch_provisioner_nrf52832_xxAA_s132_6.0.0.dir/__/__/__/models/config/src/config_server.c.obj
 .text.handle_netkey_get
                0x0000000000035440       0x70 CMakeFiles/light_switch_provisioner_nrf52832_xxAA_s132_6.0.0.dir/__/__/__/models/config/src/config_server.c.obj
 .text.handle_model_app_bind_unbind
                0x00000000000354b0      0x228 CMakeFiles/light_switch_provisioner_nrf52832_xxAA_s132_6.0.0.dir/__/__/__/models/config/src/config_server.c.obj
 .text.status_error_sub_send
                0x00000000000356d8      0x180 CMakeFiles/light_switch_provisioner_nrf52832_xxAA_s132_6.0.0.dir/__/__/__/models/config/src/config_server.c.obj
 .text.send_publication_status
                0x0000000000035858      0x1a8 CMakeFiles/light_switch_provisioner_nrf52832_xxAA_s132_6.0.0.dir/__/__/__/models/config/src/config_server.c.obj
 .text.handle_config_key_refresh_phase_set
                0x0000000000035a00       0xf0 CMakeFiles/light_switch_provisioner_nrf52832_xxAA_s132_6.0.0.dir/__/__/__/models/config/src/config_server.c.obj
 .text.handle_config_default_ttl_set
                0x0000000000035af0       0x70 CMakeFiles/light_switch_provisioner_nrf52832_xxAA_s132_6.0.0.dir/__/__/__/models/config/src/config_server.c.obj
 .text.handle_heartbeat_publication_set
                0x0000000000035b60      0x168 CMakeFiles/light_switch_provisioner_nrf52832_xxAA_s132_6.0.0.dir/__/__/__/models/config/src/config_server.c.obj
 .text.mesh_event_cb
                0x0000000000035cc8       0x70 CMakeFiles/light_switch_provisioner_nrf52832_xxAA_s132_6.0.0.dir/__/__/__/models/config/src/config_server.c.obj
 .text.handle_node_identity_set
                0x0000000000035d38       0x48 CMakeFiles/light_switch_provisioner_nrf52832_xxAA_s132_6.0.0.dir/__/__/__/models/config/src/config_server.c.obj
 .text.handle_node_identity_get
                0x0000000000035d80       0x44 CMakeFiles/light_switch_provisioner_nrf52832_xxAA_s132_6.0.0.dir/__/__/__/models/config/src/config_server.c.obj
 .text.handle_config_gatt_proxy_set
                0x0000000000035dc4       0x40 CMakeFiles/light_switch_provisioner_nrf52832_xxAA_s132_6.0.0.dir/__/__/__/models/config/src/config_server.c.obj
 .text.handle_config_friend_set
                0x0000000000035e04       0x40 CMakeFiles/light_switch_provisioner_nrf52832_xxAA_s132_6.0.0.dir/__/__/__/models/config/src/config_server.c.obj
 .text.status_error_pub_send
                0x0000000000035e44       0xc8 CMakeFiles/light_switch_provisioner_nrf52832_xxAA_s132_6.0.0.dir/__/__/__/models/config/src/config_server.c.obj
 .text.handle_config_key_refresh_phase_get
                0x0000000000035f0c       0x70 CMakeFiles/light_switch_provisioner_nrf52832_xxAA_s132_6.0.0.dir/__/__/__/models/config/src/config_server.c.obj
 .text.handle_config_default_ttl_get
                0x0000000000035f7c       0x48 CMakeFiles/light_switch_provisioner_nrf52832_xxAA_s132_6.0.0.dir/__/__/__/models/config/src/config_server.c.obj
 .text.handle_config_beacon_set
                0x0000000000035fc4       0x80 CMakeFiles/light_switch_provisioner_nrf52832_xxAA_s132_6.0.0.dir/__/__/__/models/config/src/config_server.c.obj
 .text.handle_composition_data_get
                0x0000000000036044       0x64 CMakeFiles/light_switch_provisioner_nrf52832_xxAA_s132_6.0.0.dir/__/__/__/models/config/src/config_server.c.obj
 .text.handle_appkey_update
                0x00000000000360a8      0x108 CMakeFiles/light_switch_provisioner_nrf52832_xxAA_s132_6.0.0.dir/__/__/__/models/config/src/config_server.c.obj
 .text.handle_model_app_get
                0x00000000000361b0      0x240 CMakeFiles/light_switch_provisioner_nrf52832_xxAA_s132_6.0.0.dir/__/__/__/models/config/src/config_server.c.obj
 .text.handle_appkey_get
                0x00000000000363f0      0x104 CMakeFiles/light_switch_provisioner_nrf52832_xxAA_s132_6.0.0.dir/__/__/__/models/config/src/config_server.c.obj
 .text.handle_heartbeat_subscription_get
                0x00000000000364f4       0xdc CMakeFiles/light_switch_provisioner_nrf52832_xxAA_s132_6.0.0.dir/__/__/__/models/config/src/config_server.c.obj
 .text.handle_config_gatt_proxy_get
                0x00000000000365d0       0x38 CMakeFiles/light_switch_provisioner_nrf52832_xxAA_s132_6.0.0.dir/__/__/__/models/config/src/config_server.c.obj
 .text.handle_config_friend_get
                0x0000000000036608       0x38 CMakeFiles/light_switch_provisioner_nrf52832_xxAA_s132_6.0.0.dir/__/__/__/models/config/src/config_server.c.obj
 .text.handle_heartbeat_subscription_set
                0x0000000000036640      0x114 CMakeFiles/light_switch_provisioner_nrf52832_xxAA_s132_6.0.0.dir/__/__/__/models/config/src/config_server.c.obj
 .text.handle_heartbeat_publication_get
                0x0000000000036754       0xcc CMakeFiles/light_switch_provisioner_nrf52832_xxAA_s132_6.0.0.dir/__/__/__/models/config/src/config_server.c.obj
 .text.handle_config_beacon_get
                0x0000000000036820       0x40 CMakeFiles/light_switch_provisioner_nrf52832_xxAA_s132_6.0.0.dir/__/__/__/models/config/src/config_server.c.obj
 .text.handle_appkey_delete
                0x0000000000036860      0x11c CMakeFiles/light_switch_provisioner_nrf52832_xxAA_s132_6.0.0.dir/__/__/__/models/config/src/config_server.c.obj
 .text.handle_appkey_add
                0x000000000003697c      0x124 CMakeFiles/light_switch_provisioner_nrf52832_xxAA_s132_6.0.0.dir/__/__/__/models/config/src/config_server.c.obj
 .text.handle_config_vendor_model_subscription_get
                0x0000000000036aa0      0x188 CMakeFiles/light_switch_provisioner_nrf52832_xxAA_s132_6.0.0.dir/__/__/__/models/config/src/config_server.c.obj
 .text.handle_netkey_add_update
                0x0000000000036c28       0xec CMakeFiles/light_switch_provisioner_nrf52832_xxAA_s132_6.0.0.dir/__/__/__/models/config/src/config_server.c.obj
 .text.handle_netkey_delete
                0x0000000000036d14      0x118 CMakeFiles/light_switch_provisioner_nrf52832_xxAA_s132_6.0.0.dir/__/__/__/models/config/src/config_server.c.obj
 .text.handle_config_network_transmit_get
                0x0000000000036e2c       0x94 CMakeFiles/light_switch_provisioner_nrf52832_xxAA_s132_6.0.0.dir/__/__/__/models/config/src/config_server.c.obj
 .text.handle_config_model_publication_get
                0x0000000000036ec0      0x144 CMakeFiles/light_switch_provisioner_nrf52832_xxAA_s132_6.0.0.dir/__/__/__/models/config/src/config_server.c.obj
 .text.handle_config_relay_get
                0x0000000000037004       0xcc CMakeFiles/light_switch_provisioner_nrf52832_xxAA_s132_6.0.0.dir/__/__/__/models/config/src/config_server.c.obj
 .text.handle_config_model_publication_set
                0x00000000000370d0      0x3d4 CMakeFiles/light_switch_provisioner_nrf52832_xxAA_s132_6.0.0.dir/__/__/__/models/config/src/config_server.c.obj
 .text.handle_config_model_subscription_delete_all
                0x00000000000374a4      0x2ec CMakeFiles/light_switch_provisioner_nrf52832_xxAA_s132_6.0.0.dir/__/__/__/models/config/src/config_server.c.obj
 .text.handle_config_model_subscription_virtual_address_delete
                0x0000000000037790      0x2e0 CMakeFiles/light_switch_provisioner_nrf52832_xxAA_s132_6.0.0.dir/__/__/__/models/config/src/config_server.c.obj
 .text.handle_config_model_subscription_virtual_address_add
                0x0000000000037a70      0x2cc CMakeFiles/light_switch_provisioner_nrf52832_xxAA_s132_6.0.0.dir/__/__/__/models/config/src/config_server.c.obj
 .text.handle_config_model_subscription_delete
                0x0000000000037d3c      0x2dc CMakeFiles/light_switch_provisioner_nrf52832_xxAA_s132_6.0.0.dir/__/__/__/models/config/src/config_server.c.obj
 .text.handle_config_model_subscription_add
                0x0000000000038018      0x2a8 CMakeFiles/light_switch_provisioner_nrf52832_xxAA_s132_6.0.0.dir/__/__/__/models/config/src/config_server.c.obj
 .text.handle_config_model_subscription_virtual_address_overwrite
                0x00000000000382c0      0x354 CMakeFiles/light_switch_provisioner_nrf52832_xxAA_s132_6.0.0.dir/__/__/__/models/config/src/config_server.c.obj
 .text.handle_config_model_subscription_overwrite
                0x0000000000038614      0x334 CMakeFiles/light_switch_provisioner_nrf52832_xxAA_s132_6.0.0.dir/__/__/__/models/config/src/config_server.c.obj
 .text.handle_config_sig_model_subscription_get
                0x0000000000038948      0x29c CMakeFiles/light_switch_provisioner_nrf52832_xxAA_s132_6.0.0.dir/__/__/__/models/config/src/config_server.c.obj
 .text.config_server_init
                0x0000000000038be4       0x70 CMakeFiles/light_switch_provisioner_nrf52832_xxAA_s132_6.0.0.dir/__/__/__/models/config/src/config_server.c.obj
                0x0000000000038be4                config_server_init
 .text.config_server_bind
                0x0000000000038c54       0x10 CMakeFiles/light_switch_provisioner_nrf52832_xxAA_s132_6.0.0.dir/__/__/__/models/config/src/config_server.c.obj
                0x0000000000038c54                config_server_bind
 .text.packed_index_list_create
                0x0000000000038c64       0x3c CMakeFiles/light_switch_provisioner_nrf52832_xxAA_s132_6.0.0.dir/__/__/__/models/config/src/packed_index_list.c.obj
                0x0000000000038c64                packed_index_list_create
 .text.attention_timer_handler
                0x0000000000038ca0       0x6c CMakeFiles/light_switch_provisioner_nrf52832_xxAA_s132_6.0.0.dir/__/__/__/models/health/src/health_server.c.obj
 .text.handle_attention_get
                0x0000000000038d0c       0x40 CMakeFiles/light_switch_provisioner_nrf52832_xxAA_s132_6.0.0.dir/__/__/__/models/health/src/health_server.c.obj
 .text.handle_period_get
                0x0000000000038d4c       0x3c CMakeFiles/light_switch_provisioner_nrf52832_xxAA_s132_6.0.0.dir/__/__/__/models/health/src/health_server.c.obj
 .text.handle_attention_set
                0x0000000000038d88       0xdc CMakeFiles/light_switch_provisioner_nrf52832_xxAA_s132_6.0.0.dir/__/__/__/models/health/src/health_server.c.obj
 .text.handle_period_set
                0x0000000000038e64       0x54 CMakeFiles/light_switch_provisioner_nrf52832_xxAA_s132_6.0.0.dir/__/__/__/models/health/src/health_server.c.obj
 .text.send_fault_status
                0x0000000000038eb8      0x3b4 CMakeFiles/light_switch_provisioner_nrf52832_xxAA_s132_6.0.0.dir/__/__/__/models/health/src/health_server.c.obj
 .text.health_publish_timeout_handler
                0x000000000003926c        0xc CMakeFiles/light_switch_provisioner_nrf52832_xxAA_s132_6.0.0.dir/__/__/__/models/health/src/health_server.c.obj
 .text.handle_fault_test
                0x0000000000039278       0x8c CMakeFiles/light_switch_provisioner_nrf52832_xxAA_s132_6.0.0.dir/__/__/__/models/health/src/health_server.c.obj
 .text.handle_fault_clear
                0x0000000000039304       0x54 CMakeFiles/light_switch_provisioner_nrf52832_xxAA_s132_6.0.0.dir/__/__/__/models/health/src/health_server.c.obj
 .text.handle_fault_get
                0x0000000000039358       0x40 CMakeFiles/light_switch_provisioner_nrf52832_xxAA_s132_6.0.0.dir/__/__/__/models/health/src/health_server.c.obj
 .text.health_server_init
                0x0000000000039398       0x68 CMakeFiles/light_switch_provisioner_nrf52832_xxAA_s132_6.0.0.dir/__/__/__/models/health/src/health_server.c.obj
                0x0000000000039398                health_server_init
 .text.handle_fault_status
                0x0000000000039400       0x4c CMakeFiles/light_switch_provisioner_nrf52832_xxAA_s132_6.0.0.dir/__/__/__/models/health/src/health_client.c.obj
 .text.handle_period_status
                0x000000000003944c       0x2c CMakeFiles/light_switch_provisioner_nrf52832_xxAA_s132_6.0.0.dir/__/__/__/models/health/src/health_client.c.obj
 .text.handle_attention_status
                0x0000000000039478       0x2c CMakeFiles/light_switch_provisioner_nrf52832_xxAA_s132_6.0.0.dir/__/__/__/models/health/src/health_client.c.obj
 .text.health_client_init
                0x00000000000394a4       0x54 CMakeFiles/light_switch_provisioner_nrf52832_xxAA_s132_6.0.0.dir/__/__/__/models/health/src/health_client.c.obj
                0x00000000000394a4                health_client_init
 .text.schedule_publication_timer
                0x00000000000394f8      0x2d0 CMakeFiles/light_switch_provisioner_nrf52832_xxAA_s132_6.0.0.dir/__/__/__/mesh/access/src/access_publish.c.obj
 .text.publish_timer_tick
                0x00000000000397c8      0x140 CMakeFiles/light_switch_provisioner_nrf52832_xxAA_s132_6.0.0.dir/__/__/__/mesh/access/src/access_publish.c.obj
 .text.access_publish_init
                0x0000000000039908       0x38 CMakeFiles/light_switch_provisioner_nrf52832_xxAA_s132_6.0.0.dir/__/__/__/mesh/access/src/access_publish.c.obj
                0x0000000000039908                access_publish_init
 .text.access_publish_period_set
                0x0000000000039940      0x118 CMakeFiles/light_switch_provisioner_nrf52832_xxAA_s132_6.0.0.dir/__/__/__/mesh/access/src/access_publish.c.obj
                0x0000000000039940                access_publish_period_set
 .text.access_publish_period_get
                0x0000000000039a58       0x2c CMakeFiles/light_switch_provisioner_nrf52832_xxAA_s132_6.0.0.dir/__/__/__/mesh/access/src/access_publish.c.obj
                0x0000000000039a58                access_publish_period_get
 .text.flash_manager_mem_available
                0x0000000000039a84        0x4 CMakeFiles/light_switch_provisioner_nrf52832_xxAA_s132_6.0.0.dir/__/__/__/mesh/access/src/access.c.obj
 .text.flash_invalidate_complete
                0x0000000000039a88        0x8 CMakeFiles/light_switch_provisioner_nrf52832_xxAA_s132_6.0.0.dir/__/__/__/mesh/access/src/access.c.obj
 .text.access_flash_config_clear
                0x0000000000039a90       0x28 CMakeFiles/light_switch_provisioner_nrf52832_xxAA_s132_6.0.0.dir/__/__/__/mesh/access/src/access.c.obj
 .text.handle_incoming
                0x0000000000039ab8      0x198 CMakeFiles/light_switch_provisioner_nrf52832_xxAA_s132_6.0.0.dir/__/__/__/mesh/access/src/access.c.obj
 .text.mesh_evt_cb
                0x0000000000039c50      0x158 CMakeFiles/light_switch_provisioner_nrf52832_xxAA_s132_6.0.0.dir/__/__/__/mesh/access/src/access.c.obj
 .text.add_flash_manager
                0x0000000000039da8       0x58 CMakeFiles/light_switch_provisioner_nrf52832_xxAA_s132_6.0.0.dir/__/__/__/mesh/access/src/access.c.obj
 .text.flash_write_complete
                0x0000000000039e00       0x4c CMakeFiles/light_switch_provisioner_nrf52832_xxAA_s132_6.0.0.dir/__/__/__/mesh/access/src/access.c.obj
 .text.access_flash_config_store
                0x0000000000039e4c      0x288 CMakeFiles/light_switch_provisioner_nrf52832_xxAA_s132_6.0.0.dir/__/__/__/mesh/access/src/access.c.obj
                0x0000000000039e4c                access_flash_config_store
 .text.flash_remove_complete
                0x000000000003a0d4       0xec CMakeFiles/light_switch_provisioner_nrf52832_xxAA_s132_6.0.0.dir/__/__/__/mesh/access/src/access.c.obj
 .text.access_flash_config_load
                0x000000000003a1c0      0x2e0 CMakeFiles/light_switch_provisioner_nrf52832_xxAA_s132_6.0.0.dir/__/__/__/mesh/access/src/access.c.obj
                0x000000000003a1c0                access_flash_config_load
 .text.access_clear
                0x000000000003a4a0       0x78 CMakeFiles/light_switch_provisioner_nrf52832_xxAA_s132_6.0.0.dir/__/__/__/mesh/access/src/access.c.obj
                0x000000000003a4a0                access_clear
 .text.access_init
                0x000000000003a518       0xc0 CMakeFiles/light_switch_provisioner_nrf52832_xxAA_s132_6.0.0.dir/__/__/__/mesh/access/src/access.c.obj
                0x000000000003a518                access_init
 .text.access_model_add
                0x000000000003a5d8      0x2a0 CMakeFiles/light_switch_provisioner_nrf52832_xxAA_s132_6.0.0.dir/__/__/__/mesh/access/src/access.c.obj
                0x000000000003a5d8                access_model_add
 .text.access_model_publish
                0x000000000003a878      0x3d0 CMakeFiles/light_switch_provisioner_nrf52832_xxAA_s132_6.0.0.dir/__/__/__/mesh/access/src/access.c.obj
                0x000000000003a878                access_model_publish
 .text.access_model_reply
                0x000000000003ac48      0x400 CMakeFiles/light_switch_provisioner_nrf52832_xxAA_s132_6.0.0.dir/__/__/__/mesh/access/src/access.c.obj
                0x000000000003ac48                access_model_reply
 .text.access_model_publish_address_set
                0x000000000003b048       0x40 CMakeFiles/light_switch_provisioner_nrf52832_xxAA_s132_6.0.0.dir/__/__/__/mesh/access/src/access.c.obj
                0x000000000003b048                access_model_publish_address_set
 .text.access_model_publish_address_get
                0x000000000003b088       0x2c CMakeFiles/light_switch_provisioner_nrf52832_xxAA_s132_6.0.0.dir/__/__/__/mesh/access/src/access.c.obj
                0x000000000003b088                access_model_publish_address_get
 .text.access_model_publish_retransmit_set
                0x000000000003b0b4       0x58 CMakeFiles/light_switch_provisioner_nrf52832_xxAA_s132_6.0.0.dir/__/__/__/mesh/access/src/access.c.obj
                0x000000000003b0b4                access_model_publish_retransmit_set
 .text.access_model_publish_retransmit_get
                0x000000000003b10c       0x2c CMakeFiles/light_switch_provisioner_nrf52832_xxAA_s132_6.0.0.dir/__/__/__/mesh/access/src/access.c.obj
                0x000000000003b10c                access_model_publish_retransmit_get
 .text.access_model_publish_period_set
                0x000000000003b138       0x78 CMakeFiles/light_switch_provisioner_nrf52832_xxAA_s132_6.0.0.dir/__/__/__/mesh/access/src/access.c.obj
                0x000000000003b138                access_model_publish_period_set
 .text.access_model_publish_period_get
                0x000000000003b1b0       0x40 CMakeFiles/light_switch_provisioner_nrf52832_xxAA_s132_6.0.0.dir/__/__/__/mesh/access/src/access.c.obj
                0x000000000003b1b0                access_model_publish_period_get
 .text.access_model_subscription_list_alloc
                0x000000000003b1f0       0x7c CMakeFiles/light_switch_provisioner_nrf52832_xxAA_s132_6.0.0.dir/__/__/__/mesh/access/src/access.c.obj
                0x000000000003b1f0                access_model_subscription_list_alloc
 .text.access_model_subscription_add
                0x000000000003b26c       0x70 CMakeFiles/light_switch_provisioner_nrf52832_xxAA_s132_6.0.0.dir/__/__/__/mesh/access/src/access.c.obj
                0x000000000003b26c                access_model_subscription_add
 .text.access_model_subscription_remove
                0x000000000003b2dc       0x6c CMakeFiles/light_switch_provisioner_nrf52832_xxAA_s132_6.0.0.dir/__/__/__/mesh/access/src/access.c.obj
                0x000000000003b2dc                access_model_subscription_remove
 .text.access_model_subscriptions_get
                0x000000000003b348       0x8c CMakeFiles/light_switch_provisioner_nrf52832_xxAA_s132_6.0.0.dir/__/__/__/mesh/access/src/access.c.obj
                0x000000000003b348                access_model_subscriptions_get
 .text.access_model_application_bind
                0x000000000003b3d4       0x64 CMakeFiles/light_switch_provisioner_nrf52832_xxAA_s132_6.0.0.dir/__/__/__/mesh/access/src/access.c.obj
                0x000000000003b3d4                access_model_application_bind
 .text.access_model_application_unbind
                0x000000000003b438       0x64 CMakeFiles/light_switch_provisioner_nrf52832_xxAA_s132_6.0.0.dir/__/__/__/mesh/access/src/access.c.obj
                0x000000000003b438                access_model_application_unbind
 .text.access_model_applications_get
                0x000000000003b49c       0x50 CMakeFiles/light_switch_provisioner_nrf52832_xxAA_s132_6.0.0.dir/__/__/__/mesh/access/src/access.c.obj
                0x000000000003b49c                access_model_applications_get
 .text.access_model_publish_application_set
                0x000000000003b4ec       0x40 CMakeFiles/light_switch_provisioner_nrf52832_xxAA_s132_6.0.0.dir/__/__/__/mesh/access/src/access.c.obj
                0x000000000003b4ec                access_model_publish_application_set
 .text.access_model_publish_application_get
                0x000000000003b52c       0x2c CMakeFiles/light_switch_provisioner_nrf52832_xxAA_s132_6.0.0.dir/__/__/__/mesh/access/src/access.c.obj
                0x000000000003b52c                access_model_publish_application_get
 .text.access_default_ttl_set
                0x000000000003b558       0x1c CMakeFiles/light_switch_provisioner_nrf52832_xxAA_s132_6.0.0.dir/__/__/__/mesh/access/src/access.c.obj
                0x000000000003b558                access_default_ttl_set
 .text.access_default_ttl_get
                0x000000000003b574        0xc CMakeFiles/light_switch_provisioner_nrf52832_xxAA_s132_6.0.0.dir/__/__/__/mesh/access/src/access.c.obj
                0x000000000003b574                access_default_ttl_get
 .text.access_model_publish_ttl_set
                0x000000000003b580       0x44 CMakeFiles/light_switch_provisioner_nrf52832_xxAA_s132_6.0.0.dir/__/__/__/mesh/access/src/access.c.obj
                0x000000000003b580                access_model_publish_ttl_set
 .text.access_model_publish_ttl_get
                0x000000000003b5c4       0x2c CMakeFiles/light_switch_provisioner_nrf52832_xxAA_s132_6.0.0.dir/__/__/__/mesh/access/src/access.c.obj
                0x000000000003b5c4                access_model_publish_ttl_get
 .text.access_element_location_get
                0x000000000003b5f0       0x18 CMakeFiles/light_switch_provisioner_nrf52832_xxAA_s132_6.0.0.dir/__/__/__/mesh/access/src/access.c.obj
                0x000000000003b5f0                access_element_location_get
 .text.access_element_sig_model_count_get
                0x000000000003b608       0x18 CMakeFiles/light_switch_provisioner_nrf52832_xxAA_s132_6.0.0.dir/__/__/__/mesh/access/src/access.c.obj
                0x000000000003b608                access_element_sig_model_count_get
 .text.access_element_vendor_model_count_get
                0x000000000003b620       0x18 CMakeFiles/light_switch_provisioner_nrf52832_xxAA_s132_6.0.0.dir/__/__/__/mesh/access/src/access.c.obj
                0x000000000003b620                access_element_vendor_model_count_get
 .text.access_model_id_get
                0x000000000003b638       0x40 CMakeFiles/light_switch_provisioner_nrf52832_xxAA_s132_6.0.0.dir/__/__/__/mesh/access/src/access.c.obj
                0x000000000003b638                access_model_id_get
 .text.access_handle_get
                0x000000000003b678       0x94 CMakeFiles/light_switch_provisioner_nrf52832_xxAA_s132_6.0.0.dir/__/__/__/mesh/access/src/access.c.obj
                0x000000000003b678                access_handle_get
 .text.access_element_models_get
                0x000000000003b70c       0xa8 CMakeFiles/light_switch_provisioner_nrf52832_xxAA_s132_6.0.0.dir/__/__/__/mesh/access/src/access.c.obj
                0x000000000003b70c                access_element_models_get
 .text.access_model_p_args_get
                0x000000000003b7b4       0x2c CMakeFiles/light_switch_provisioner_nrf52832_xxAA_s132_6.0.0.dir/__/__/__/mesh/access/src/access.c.obj
                0x000000000003b7b4                access_model_p_args_get
 .text.access_model_publication_stop
                0x000000000003b7e0       0x5c CMakeFiles/light_switch_provisioner_nrf52832_xxAA_s132_6.0.0.dir/__/__/__/mesh/access/src/access.c.obj
                0x000000000003b7e0                access_model_publication_stop
 .text.access_model_publication_by_appkey_stop
                0x000000000003b83c      0x124 CMakeFiles/light_switch_provisioner_nrf52832_xxAA_s132_6.0.0.dir/__/__/__/mesh/access/src/access.c.obj
                0x000000000003b83c                access_model_publication_by_appkey_stop
 .text.remove_and_reschedule
                0x000000000003b960      0x104 CMakeFiles/light_switch_provisioner_nrf52832_xxAA_s132_6.0.0.dir/__/__/__/mesh/access/src/access_reliable.c.obj
 .text.reliable_timer_cb
                0x000000000003ba64      0x334 CMakeFiles/light_switch_provisioner_nrf52832_xxAA_s132_6.0.0.dir/__/__/__/mesh/access/src/access_reliable.c.obj
 .text.access_reliable_message_rx_cb
                0x000000000003bd98       0x90 CMakeFiles/light_switch_provisioner_nrf52832_xxAA_s132_6.0.0.dir/__/__/__/mesh/access/src/access_reliable.c.obj
                0x000000000003bd98                access_reliable_message_rx_cb
 .text.access_reliable_init
                0x000000000003be28       0x1c CMakeFiles/light_switch_provisioner_nrf52832_xxAA_s132_6.0.0.dir/__/__/__/mesh/access/src/access_reliable.c.obj
                0x000000000003be28                access_reliable_init
 .text.access_reliable_cancel_all
                0x000000000003be44      0x12c CMakeFiles/light_switch_provisioner_nrf52832_xxAA_s132_6.0.0.dir/__/__/__/mesh/access/src/access_reliable.c.obj
                0x000000000003be44                access_reliable_cancel_all
 .text.access_model_reliable_cancel
                0x000000000003bf70       0x98 CMakeFiles/light_switch_provisioner_nrf52832_xxAA_s132_6.0.0.dir/__/__/__/mesh/access/src/access_reliable.c.obj
                0x000000000003bf70                access_model_reliable_cancel
 .text.access_model_reliable_publish
                0x000000000003c008      0x254 CMakeFiles/light_switch_provisioner_nrf52832_xxAA_s132_6.0.0.dir/__/__/__/mesh/access/src/access_reliable.c.obj
                0x000000000003c008                access_model_reliable_publish
 .text.addr_nonvirtual_to_dsm_entry
                0x000000000003c25c       0x48 CMakeFiles/light_switch_provisioner_nrf52832_xxAA_s132_6.0.0.dir/__/__/__/mesh/access/src/device_state_manager.c.obj
 .text.addr_nonvirtual_to_flash_entry
                0x000000000003c2a4       0x10 CMakeFiles/light_switch_provisioner_nrf52832_xxAA_s132_6.0.0.dir/__/__/__/mesh/access/src/device_state_manager.c.obj
 .text.devkey_to_flash_entry
                0x000000000003c2b4       0x28 CMakeFiles/light_switch_provisioner_nrf52832_xxAA_s132_6.0.0.dir/__/__/__/mesh/access/src/device_state_manager.c.obj
 .text.addr_virtual_to_flash_entry
                0x000000000003c2dc       0x18 CMakeFiles/light_switch_provisioner_nrf52832_xxAA_s132_6.0.0.dir/__/__/__/mesh/access/src/device_state_manager.c.obj
 .text.addr_unicast_to_dsm_entry
                0x000000000003c2f4        0xc CMakeFiles/light_switch_provisioner_nrf52832_xxAA_s132_6.0.0.dir/__/__/__/mesh/access/src/device_state_manager.c.obj
 .text.addr_unicast_to_flash_entry
                0x000000000003c300       0x10 CMakeFiles/light_switch_provisioner_nrf52832_xxAA_s132_6.0.0.dir/__/__/__/mesh/access/src/device_state_manager.c.obj
 .text.flash_mem_listener_callback
                0x000000000003c310       0x1c CMakeFiles/light_switch_provisioner_nrf52832_xxAA_s132_6.0.0.dir/__/__/__/mesh/access/src/device_state_manager.c.obj
 .text.appkey_to_flash_entry
                0x000000000003c32c       0x54 CMakeFiles/light_switch_provisioner_nrf52832_xxAA_s132_6.0.0.dir/__/__/__/mesh/access/src/device_state_manager.c.obj
 .text.subnet_to_flash_entry
                0x000000000003c380       0x60 CMakeFiles/light_switch_provisioner_nrf52832_xxAA_s132_6.0.0.dir/__/__/__/mesh/access/src/device_state_manager.c.obj
 .text.reset_flash_area
                0x000000000003c3e0       0x28 CMakeFiles/light_switch_provisioner_nrf52832_xxAA_s132_6.0.0.dir/__/__/__/mesh/access/src/device_state_manager.c.obj
 .text.build_flash_area
                0x000000000003c408       0x90 CMakeFiles/light_switch_provisioner_nrf52832_xxAA_s132_6.0.0.dir/__/__/__/mesh/access/src/device_state_manager.c.obj
 .text.flash_invalidate_complete
                0x000000000003c498       0x54 CMakeFiles/light_switch_provisioner_nrf52832_xxAA_s132_6.0.0.dir/__/__/__/mesh/access/src/device_state_manager.c.obj
 .text.flash_write_complete
                0x000000000003c4ec       0x50 CMakeFiles/light_switch_provisioner_nrf52832_xxAA_s132_6.0.0.dir/__/__/__/mesh/access/src/device_state_manager.c.obj
 .text.devkey_to_dsm_entry
                0x000000000003c53c       0x70 CMakeFiles/light_switch_provisioner_nrf52832_xxAA_s132_6.0.0.dir/__/__/__/mesh/access/src/device_state_manager.c.obj
 .text.addr_virtual_to_dsm_entry
                0x000000000003c5ac       0x60 CMakeFiles/light_switch_provisioner_nrf52832_xxAA_s132_6.0.0.dir/__/__/__/mesh/access/src/device_state_manager.c.obj
 .text.appkey_to_dsm_entry
                0x000000000003c60c       0xf4 CMakeFiles/light_switch_provisioner_nrf52832_xxAA_s132_6.0.0.dir/__/__/__/mesh/access/src/device_state_manager.c.obj
 .text.address_delete_if_unused
                0x000000000003c700       0xe4 CMakeFiles/light_switch_provisioner_nrf52832_xxAA_s132_6.0.0.dir/__/__/__/mesh/access/src/device_state_manager.c.obj
 .text.subnet_to_dsm_entry
                0x000000000003c7e4      0x11c CMakeFiles/light_switch_provisioner_nrf52832_xxAA_s132_6.0.0.dir/__/__/__/mesh/access/src/device_state_manager.c.obj
 .text.flash_remove_complete
                0x000000000003c900       0x90 CMakeFiles/light_switch_provisioner_nrf52832_xxAA_s132_6.0.0.dir/__/__/__/mesh/access/src/device_state_manager.c.obj
 .text.flash_update_all
                0x000000000003c990      0x184 CMakeFiles/light_switch_provisioner_nrf52832_xxAA_s132_6.0.0.dir/__/__/__/mesh/access/src/device_state_manager.c.obj
 .text.dsm_flash_config_load
                0x000000000003cb14      0x1f8 CMakeFiles/light_switch_provisioner_nrf52832_xxAA_s132_6.0.0.dir/__/__/__/mesh/access/src/device_state_manager.c.obj
                0x000000000003cb14                dsm_flash_config_load
 .text.dsm_flash_area_get
                0x000000000003cd0c        0xc CMakeFiles/light_switch_provisioner_nrf52832_xxAA_s132_6.0.0.dir/__/__/__/mesh/access/src/device_state_manager.c.obj
                0x000000000003cd0c                dsm_flash_area_get
 .text.dsm_clear
                0x000000000003cd18       0xd8 CMakeFiles/light_switch_provisioner_nrf52832_xxAA_s132_6.0.0.dir/__/__/__/mesh/access/src/device_state_manager.c.obj
                0x000000000003cd18                dsm_clear
 .text.dsm_init
                0x000000000003cdf0       0xb8 CMakeFiles/light_switch_provisioner_nrf52832_xxAA_s132_6.0.0.dir/__/__/__/mesh/access/src/device_state_manager.c.obj
                0x000000000003cdf0                dsm_init
 .text.dsm_local_unicast_addresses_set
                0x000000000003cea8       0xbc CMakeFiles/light_switch_provisioner_nrf52832_xxAA_s132_6.0.0.dir/__/__/__/mesh/access/src/device_state_manager.c.obj
                0x000000000003cea8                dsm_local_unicast_addresses_set
 .text.dsm_local_unicast_addresses_get
                0x000000000003cf64       0x20 CMakeFiles/light_switch_provisioner_nrf52832_xxAA_s132_6.0.0.dir/__/__/__/mesh/access/src/device_state_manager.c.obj
                0x000000000003cf64                dsm_local_unicast_addresses_get
 .text.dsm_address_publish_add
                0x000000000003cf84      0x120 CMakeFiles/light_switch_provisioner_nrf52832_xxAA_s132_6.0.0.dir/__/__/__/mesh/access/src/device_state_manager.c.obj
                0x000000000003cf84                dsm_address_publish_add
 .text.dsm_address_publish_add_handle
                0x000000000003d0a4       0x54 CMakeFiles/light_switch_provisioner_nrf52832_xxAA_s132_6.0.0.dir/__/__/__/mesh/access/src/device_state_manager.c.obj
                0x000000000003d0a4                dsm_address_publish_add_handle
 .text.dsm_address_publish_virtual_add
                0x000000000003d0f8       0xc4 CMakeFiles/light_switch_provisioner_nrf52832_xxAA_s132_6.0.0.dir/__/__/__/mesh/access/src/device_state_manager.c.obj
                0x000000000003d0f8                dsm_address_publish_virtual_add
 .text.dsm_address_publish_remove
                0x000000000003d1bc       0xf4 CMakeFiles/light_switch_provisioner_nrf52832_xxAA_s132_6.0.0.dir/__/__/__/mesh/access/src/device_state_manager.c.obj
                0x000000000003d1bc                dsm_address_publish_remove
 .text.dsm_address_subscription_add
                0x000000000003d2b0      0x128 CMakeFiles/light_switch_provisioner_nrf52832_xxAA_s132_6.0.0.dir/__/__/__/mesh/access/src/device_state_manager.c.obj
                0x000000000003d2b0                dsm_address_subscription_add
 .text.dsm_address_subscription_virtual_add
                0x000000000003d3d8       0xc4 CMakeFiles/light_switch_provisioner_nrf52832_xxAA_s132_6.0.0.dir/__/__/__/mesh/access/src/device_state_manager.c.obj
                0x000000000003d3d8                dsm_address_subscription_virtual_add
 .text.dsm_address_subscription_add_handle
                0x000000000003d49c       0x54 CMakeFiles/light_switch_provisioner_nrf52832_xxAA_s132_6.0.0.dir/__/__/__/mesh/access/src/device_state_manager.c.obj
                0x000000000003d49c                dsm_address_subscription_add_handle
 .text.dsm_address_subscription_get
                0x000000000003d4f0       0x58 CMakeFiles/light_switch_provisioner_nrf52832_xxAA_s132_6.0.0.dir/__/__/__/mesh/access/src/device_state_manager.c.obj
                0x000000000003d4f0                dsm_address_subscription_get
 .text.dsm_address_subscription_remove
                0x000000000003d548       0x8c CMakeFiles/light_switch_provisioner_nrf52832_xxAA_s132_6.0.0.dir/__/__/__/mesh/access/src/device_state_manager.c.obj
                0x000000000003d548                dsm_address_subscription_remove
 .text.dsm_address_get
                0x000000000003d5d4       0x74 CMakeFiles/light_switch_provisioner_nrf52832_xxAA_s132_6.0.0.dir/__/__/__/mesh/access/src/device_state_manager.c.obj
                0x000000000003d5d4                dsm_address_get
 .text.dsm_address_handle_get
                0x000000000003d648       0xa4 CMakeFiles/light_switch_provisioner_nrf52832_xxAA_s132_6.0.0.dir/__/__/__/mesh/access/src/device_state_manager.c.obj
                0x000000000003d648                dsm_address_handle_get
 .text.dsm_net_key_index_to_subnet_handle
                0x000000000003d6ec       0x28 CMakeFiles/light_switch_provisioner_nrf52832_xxAA_s132_6.0.0.dir/__/__/__/mesh/access/src/device_state_manager.c.obj
                0x000000000003d6ec                dsm_net_key_index_to_subnet_handle
 .text.dsm_subnet_handle_get
                0x000000000003d714       0x3c CMakeFiles/light_switch_provisioner_nrf52832_xxAA_s132_6.0.0.dir/__/__/__/mesh/access/src/device_state_manager.c.obj
                0x000000000003d714                dsm_subnet_handle_get
 .text.dsm_appkey_index_to_appkey_handle
                0x000000000003d750       0x28 CMakeFiles/light_switch_provisioner_nrf52832_xxAA_s132_6.0.0.dir/__/__/__/mesh/access/src/device_state_manager.c.obj
                0x000000000003d750                dsm_appkey_index_to_appkey_handle
 .text.dsm_appkey_handle_get
                0x000000000003d778       0x3c CMakeFiles/light_switch_provisioner_nrf52832_xxAA_s132_6.0.0.dir/__/__/__/mesh/access/src/device_state_manager.c.obj
                0x000000000003d778                dsm_appkey_handle_get
 .text.dsm_appkey_handle_to_appkey_index
                0x000000000003d7b4       0x24 CMakeFiles/light_switch_provisioner_nrf52832_xxAA_s132_6.0.0.dir/__/__/__/mesh/access/src/device_state_manager.c.obj
                0x000000000003d7b4                dsm_appkey_handle_to_appkey_index
 .text.dsm_appkey_handle_to_subnet_handle
                0x000000000003d7d8       0xb4 CMakeFiles/light_switch_provisioner_nrf52832_xxAA_s132_6.0.0.dir/__/__/__/mesh/access/src/device_state_manager.c.obj
                0x000000000003d7d8                dsm_appkey_handle_to_subnet_handle
 .text.dsm_subnet_add
                0x000000000003d88c      0x15c CMakeFiles/light_switch_provisioner_nrf52832_xxAA_s132_6.0.0.dir/__/__/__/mesh/access/src/device_state_manager.c.obj
                0x000000000003d88c                dsm_subnet_add
 .text.dsm_subnet_kr_phase_get
                0x000000000003d9e8       0x20 CMakeFiles/light_switch_provisioner_nrf52832_xxAA_s132_6.0.0.dir/__/__/__/mesh/access/src/device_state_manager.c.obj
                0x000000000003d9e8                dsm_subnet_kr_phase_get
 .text.dsm_subnet_update
                0x000000000003da08       0xe4 CMakeFiles/light_switch_provisioner_nrf52832_xxAA_s132_6.0.0.dir/__/__/__/mesh/access/src/device_state_manager.c.obj
                0x000000000003da08                dsm_subnet_update
 .text.dsm_subnet_update_swap_keys
                0x000000000003daec       0x94 CMakeFiles/light_switch_provisioner_nrf52832_xxAA_s132_6.0.0.dir/__/__/__/mesh/access/src/device_state_manager.c.obj
                0x000000000003daec                dsm_subnet_update_swap_keys
 .text.dsm_subnet_update_commit
                0x000000000003db80      0x138 CMakeFiles/light_switch_provisioner_nrf52832_xxAA_s132_6.0.0.dir/__/__/__/mesh/access/src/device_state_manager.c.obj
                0x000000000003db80                dsm_subnet_update_commit
 .text.mesh_evt_handler
                0x000000000003dcb8       0xc4 CMakeFiles/light_switch_provisioner_nrf52832_xxAA_s132_6.0.0.dir/__/__/__/mesh/access/src/device_state_manager.c.obj
 .text.dsm_subnet_delete
                0x000000000003dd7c       0xe8 CMakeFiles/light_switch_provisioner_nrf52832_xxAA_s132_6.0.0.dir/__/__/__/mesh/access/src/device_state_manager.c.obj
                0x000000000003dd7c                dsm_subnet_delete
 .text.dsm_subnet_get_all
                0x000000000003de64       0x40 CMakeFiles/light_switch_provisioner_nrf52832_xxAA_s132_6.0.0.dir/__/__/__/mesh/access/src/device_state_manager.c.obj
                0x000000000003de64                dsm_subnet_get_all
 .text.dsm_devkey_add
                0x000000000003dea4      0x140 CMakeFiles/light_switch_provisioner_nrf52832_xxAA_s132_6.0.0.dir/__/__/__/mesh/access/src/device_state_manager.c.obj
                0x000000000003dea4                dsm_devkey_add
 .text.dsm_devkey_handle_get
                0x000000000003dfe4       0x54 CMakeFiles/light_switch_provisioner_nrf52832_xxAA_s132_6.0.0.dir/__/__/__/mesh/access/src/device_state_manager.c.obj
                0x000000000003dfe4                dsm_devkey_handle_get
 .text.dsm_appkey_add
                0x000000000003e038      0x134 CMakeFiles/light_switch_provisioner_nrf52832_xxAA_s132_6.0.0.dir/__/__/__/mesh/access/src/device_state_manager.c.obj
                0x000000000003e038                dsm_appkey_add
 .text.dsm_appkey_update
                0x000000000003e16c       0xd8 CMakeFiles/light_switch_provisioner_nrf52832_xxAA_s132_6.0.0.dir/__/__/__/mesh/access/src/device_state_manager.c.obj
                0x000000000003e16c                dsm_appkey_update
 .text.dsm_appkey_delete
                0x000000000003e244       0x60 CMakeFiles/light_switch_provisioner_nrf52832_xxAA_s132_6.0.0.dir/__/__/__/mesh/access/src/device_state_manager.c.obj
                0x000000000003e244                dsm_appkey_delete
 .text.dsm_appkey_get_all
                0x000000000003e2a4       0x58 CMakeFiles/light_switch_provisioner_nrf52832_xxAA_s132_6.0.0.dir/__/__/__/mesh/access/src/device_state_manager.c.obj
                0x000000000003e2a4                dsm_appkey_get_all
 .text.dsm_tx_secmat_get
                0x000000000003e2fc       0xc8 CMakeFiles/light_switch_provisioner_nrf52832_xxAA_s132_6.0.0.dir/__/__/__/mesh/access/src/device_state_manager.c.obj
                0x000000000003e2fc                dsm_tx_secmat_get
 .text.dsm_net_secmat_from_keyindex_get
                0x000000000003e3c4       0x30 CMakeFiles/light_switch_provisioner_nrf52832_xxAA_s132_6.0.0.dir/__/__/__/mesh/access/src/device_state_manager.c.obj
                0x000000000003e3c4                dsm_net_secmat_from_keyindex_get
 .text.nrf_mesh_net_secmat_next_get
                0x000000000003e3f4       0x80 CMakeFiles/light_switch_provisioner_nrf52832_xxAA_s132_6.0.0.dir/__/__/__/mesh/access/src/device_state_manager.c.obj
                0x000000000003e3f4                nrf_mesh_net_secmat_next_get
 .text.nrf_mesh_app_secmat_next_get
                0x000000000003e474       0x80 CMakeFiles/light_switch_provisioner_nrf52832_xxAA_s132_6.0.0.dir/__/__/__/mesh/access/src/device_state_manager.c.obj
                0x000000000003e474                nrf_mesh_app_secmat_next_get
 .text.nrf_mesh_devkey_secmat_get
                0x000000000003e4f4       0x48 CMakeFiles/light_switch_provisioner_nrf52832_xxAA_s132_6.0.0.dir/__/__/__/mesh/access/src/device_state_manager.c.obj
                0x000000000003e4f4                nrf_mesh_devkey_secmat_get
 .text.nrf_mesh_beacon_info_next_get
                0x000000000003e53c       0xb0 CMakeFiles/light_switch_provisioner_nrf52832_xxAA_s132_6.0.0.dir/__/__/__/mesh/access/src/device_state_manager.c.obj
                0x000000000003e53c                nrf_mesh_beacon_info_next_get
 .text.nrf_mesh_rx_address_get
                0x000000000003e5ec       0xfc CMakeFiles/light_switch_provisioner_nrf52832_xxAA_s132_6.0.0.dir/__/__/__/mesh/access/src/device_state_manager.c.obj
                0x000000000003e5ec                nrf_mesh_rx_address_get
 .text.nrf_mesh_unicast_address_get
                0x000000000003e6e8       0x24 CMakeFiles/light_switch_provisioner_nrf52832_xxAA_s132_6.0.0.dir/__/__/__/mesh/access/src/device_state_manager.c.obj
                0x000000000003e6e8                nrf_mesh_unicast_address_get
 .text.prov_provisioner_cb_link_closed
                0x000000000003e70c       0x2c CMakeFiles/light_switch_provisioner_nrf52832_xxAA_s132_6.0.0.dir/__/__/__/mesh/prov/src/prov_provisioner.c.obj
 .text.prov_provisioner_cb_link_established
                0x000000000003e738       0x40 CMakeFiles/light_switch_provisioner_nrf52832_xxAA_s132_6.0.0.dir/__/__/__/mesh/prov/src/prov_provisioner.c.obj
 .text.request_authentication
                0x000000000003e778       0xa8 CMakeFiles/light_switch_provisioner_nrf52832_xxAA_s132_6.0.0.dir/__/__/__/mesh/prov/src/prov_provisioner.c.obj
 .text.prov_provisioner_pkt_in
                0x000000000003e820      0x298 CMakeFiles/light_switch_provisioner_nrf52832_xxAA_s132_6.0.0.dir/__/__/__/mesh/prov/src/prov_provisioner.c.obj
 .text.prov_provisioner_cb_ack_received
                0x000000000003eab8       0x90 CMakeFiles/light_switch_provisioner_nrf52832_xxAA_s132_6.0.0.dir/__/__/__/mesh/prov/src/prov_provisioner.c.obj
 .text.prov_provisioner_provision
                0x000000000003eb48       0x44 CMakeFiles/light_switch_provisioner_nrf52832_xxAA_s132_6.0.0.dir/__/__/__/mesh/prov/src/prov_provisioner.c.obj
                0x000000000003eb48                prov_provisioner_provision
 .text.prov_provisioner_oob_use
                0x000000000003eb8c       0xac CMakeFiles/light_switch_provisioner_nrf52832_xxAA_s132_6.0.0.dir/__/__/__/mesh/prov/src/prov_provisioner.c.obj
                0x000000000003eb8c                prov_provisioner_oob_use
 .text.prov_provisioner_auth_data
                0x000000000003ec38       0xe8 CMakeFiles/light_switch_provisioner_nrf52832_xxAA_s132_6.0.0.dir/__/__/__/mesh/prov/src/prov_provisioner.c.obj
                0x000000000003ec38                prov_provisioner_auth_data
 .text.bearer_compare_callback
                0x000000000003ed20       0x10 CMakeFiles/light_switch_provisioner_nrf52832_xxAA_s132_6.0.0.dir/__/__/__/mesh/prov/src/nrf_mesh_prov.c.obj
 .text.nrf_mesh_prov_init
                0x000000000003ed30       0x3c CMakeFiles/light_switch_provisioner_nrf52832_xxAA_s132_6.0.0.dir/__/__/__/mesh/prov/src/nrf_mesh_prov.c.obj
                0x000000000003ed30                nrf_mesh_prov_init
 .text.nrf_mesh_prov_bearer_add
                0x000000000003ed6c       0x2c CMakeFiles/light_switch_provisioner_nrf52832_xxAA_s132_6.0.0.dir/__/__/__/mesh/prov/src/nrf_mesh_prov.c.obj
                0x000000000003ed6c                nrf_mesh_prov_bearer_add
 .text.nrf_mesh_prov_generate_keys
                0x000000000003ed98        0x4 CMakeFiles/light_switch_provisioner_nrf52832_xxAA_s132_6.0.0.dir/__/__/__/mesh/prov/src/nrf_mesh_prov.c.obj
                0x000000000003ed98                nrf_mesh_prov_generate_keys
 .text.nrf_mesh_prov_provision
                0x000000000003ed9c       0x68 CMakeFiles/light_switch_provisioner_nrf52832_xxAA_s132_6.0.0.dir/__/__/__/mesh/prov/src/nrf_mesh_prov.c.obj
                0x000000000003ed9c                nrf_mesh_prov_provision
 .text.nrf_mesh_prov_oob_use
                0x000000000003ee04       0x18 CMakeFiles/light_switch_provisioner_nrf52832_xxAA_s132_6.0.0.dir/__/__/__/mesh/prov/src/nrf_mesh_prov.c.obj
                0x000000000003ee04                nrf_mesh_prov_oob_use
 .text.nrf_mesh_prov_auth_data_provide
                0x000000000003ee1c       0x10 CMakeFiles/light_switch_provisioner_nrf52832_xxAA_s132_6.0.0.dir/__/__/__/mesh/prov/src/nrf_mesh_prov.c.obj
                0x000000000003ee1c                nrf_mesh_prov_auth_data_provide
 .text.nrf_mesh_prov_scan_start
                0x000000000003ee2c       0x10 CMakeFiles/light_switch_provisioner_nrf52832_xxAA_s132_6.0.0.dir/__/__/__/mesh/prov/src/nrf_mesh_prov.c.obj
                0x000000000003ee2c                nrf_mesh_prov_scan_start
 .text.prov_packet_length_valid
                0x000000000003ee3c       0x20 CMakeFiles/light_switch_provisioner_nrf52832_xxAA_s132_6.0.0.dir/__/__/__/mesh/prov/src/provisioning.c.obj
                0x000000000003ee3c                prov_packet_length_valid
 .text.prov_tx_invite
                0x000000000003ee5c       0x38 CMakeFiles/light_switch_provisioner_nrf52832_xxAA_s132_6.0.0.dir/__/__/__/mesh/prov/src/provisioning.c.obj
                0x000000000003ee5c                prov_tx_invite
 .text.prov_tx_start
                0x000000000003ee94       0x38 CMakeFiles/light_switch_provisioner_nrf52832_xxAA_s132_6.0.0.dir/__/__/__/mesh/prov/src/provisioning.c.obj
                0x000000000003ee94                prov_tx_start
 .text.prov_tx_public_key
                0x000000000003eecc       0x30 CMakeFiles/light_switch_provisioner_nrf52832_xxAA_s132_6.0.0.dir/__/__/__/mesh/prov/src/provisioning.c.obj
                0x000000000003eecc                prov_tx_public_key
 .text.prov_tx_confirmation
                0x000000000003eefc       0x30 CMakeFiles/light_switch_provisioner_nrf52832_xxAA_s132_6.0.0.dir/__/__/__/mesh/prov/src/provisioning.c.obj
                0x000000000003eefc                prov_tx_confirmation
 .text.prov_tx_random
                0x000000000003ef2c       0x30 CMakeFiles/light_switch_provisioner_nrf52832_xxAA_s132_6.0.0.dir/__/__/__/mesh/prov/src/provisioning.c.obj
                0x000000000003ef2c                prov_tx_random
 .text.prov_tx_data
                0x000000000003ef5c       0x34 CMakeFiles/light_switch_provisioner_nrf52832_xxAA_s132_6.0.0.dir/__/__/__/mesh/prov/src/provisioning.c.obj
                0x000000000003ef5c                prov_tx_data
 .text.prov_beacon_unprov_build
                0x000000000003ef90       0x54 CMakeFiles/light_switch_provisioner_nrf52832_xxAA_s132_6.0.0.dir/__/__/__/mesh/prov/src/prov_beacon.c.obj
                0x000000000003ef90                prov_beacon_unprov_build
 .text.prov_beacon_unprov_packet_in
                0x000000000003efe4       0xd0 CMakeFiles/light_switch_provisioner_nrf52832_xxAA_s132_6.0.0.dir/__/__/__/mesh/prov/src/prov_beacon.c.obj
                0x000000000003efe4                prov_beacon_unprov_packet_in
 .text.prov_beacon_scan_start
                0x000000000003f0b4       0x1c CMakeFiles/light_switch_provisioner_nrf52832_xxAA_s132_6.0.0.dir/__/__/__/mesh/prov/src/prov_beacon.c.obj
                0x000000000003f0b4                prov_beacon_scan_start
 .text.prov_utils_opt_set
                0x000000000003f0d0       0x24 CMakeFiles/light_switch_provisioner_nrf52832_xxAA_s132_6.0.0.dir/__/__/__/mesh/prov/src/prov_utils.c.obj
                0x000000000003f0d0                prov_utils_opt_set
 .text.prov_utils_opt_get
                0x000000000003f0f4       0x1c CMakeFiles/light_switch_provisioner_nrf52832_xxAA_s132_6.0.0.dir/__/__/__/mesh/prov/src/prov_utils.c.obj
                0x000000000003f0f4                prov_utils_opt_get
 .text.prov_utils_use_ecdh_offloading
                0x000000000003f110        0xc CMakeFiles/light_switch_provisioner_nrf52832_xxAA_s132_6.0.0.dir/__/__/__/mesh/prov/src/prov_utils.c.obj
                0x000000000003f110                prov_utils_use_ecdh_offloading
 .text.prov_utils_authentication_values_derive
                0x000000000003f11c       0xac CMakeFiles/light_switch_provisioner_nrf52832_xxAA_s132_6.0.0.dir/__/__/__/mesh/prov/src/prov_utils.c.obj
                0x000000000003f11c                prov_utils_authentication_values_derive
 .text.prov_utils_keys_generate
                0x000000000003f1c8       0x20 CMakeFiles/light_switch_provisioner_nrf52832_xxAA_s132_6.0.0.dir/__/__/__/mesh/prov/src/prov_utils.c.obj
                0x000000000003f1c8                prov_utils_keys_generate
 .text.prov_utils_derive_keys
                0x000000000003f1e8       0xb4 CMakeFiles/light_switch_provisioner_nrf52832_xxAA_s132_6.0.0.dir/__/__/__/mesh/prov/src/prov_utils.c.obj
                0x000000000003f1e8                prov_utils_derive_keys
 .text.prov_utils_calculate_shared_secret
                0x000000000003f29c       0x34 CMakeFiles/light_switch_provisioner_nrf52832_xxAA_s132_6.0.0.dir/__/__/__/mesh/prov/src/prov_utils.c.obj
                0x000000000003f29c                prov_utils_calculate_shared_secret
 .text.prov_utils_generate_oob_data
                0x000000000003f2d0      0x1b8 CMakeFiles/light_switch_provisioner_nrf52832_xxAA_s132_6.0.0.dir/__/__/__/mesh/prov/src/prov_utils.c.obj
                0x000000000003f2d0                prov_utils_generate_oob_data
 .text.prov_utils_confirmation_check
                0x000000000003f488       0x5c CMakeFiles/light_switch_provisioner_nrf52832_xxAA_s132_6.0.0.dir/__/__/__/mesh/prov/src/prov_utils.c.obj
                0x000000000003f488                prov_utils_confirmation_check
 .text.link_timeout_cb
                0x000000000003f4e4       0x10 CMakeFiles/light_switch_provisioner_nrf52832_xxAA_s132_6.0.0.dir/__/__/__/mesh/prov/src/prov_bearer_adv.c.obj
 .text.prov_bearer_adv_listen_stop
                0x000000000003f4f4       0x98 CMakeFiles/light_switch_provisioner_nrf52832_xxAA_s132_6.0.0.dir/__/__/__/mesh/prov/src/prov_bearer_adv.c.obj
 .text.tx_complete_cb
                0x000000000003f58c       0x20 CMakeFiles/light_switch_provisioner_nrf52832_xxAA_s132_6.0.0.dir/__/__/__/mesh/prov/src/prov_bearer_adv.c.obj
 .text.prov_bearer_adv_listen
                0x000000000003f5ac      0x15c CMakeFiles/light_switch_provisioner_nrf52832_xxAA_s132_6.0.0.dir/__/__/__/mesh/prov/src/prov_bearer_adv.c.obj
 .text.close_link
                0x000000000003f708       0xd8 CMakeFiles/light_switch_provisioner_nrf52832_xxAA_s132_6.0.0.dir/__/__/__/mesh/prov/src/prov_bearer_adv.c.obj
 .text.send_link_ack
                0x000000000003f7e0       0x70 CMakeFiles/light_switch_provisioner_nrf52832_xxAA_s132_6.0.0.dir/__/__/__/mesh/prov/src/prov_bearer_adv.c.obj
 .text.send_transaction_ack
                0x000000000003f850       0x68 CMakeFiles/light_switch_provisioner_nrf52832_xxAA_s132_6.0.0.dir/__/__/__/mesh/prov/src/prov_bearer_adv.c.obj
 .text.prov_buffer_rx
                0x000000000003f8b8       0xa0 CMakeFiles/light_switch_provisioner_nrf52832_xxAA_s132_6.0.0.dir/__/__/__/mesh/prov/src/prov_bearer_adv.c.obj
 .text.prov_bearer_adv_link_open
                0x000000000003f958      0x1b8 CMakeFiles/light_switch_provisioner_nrf52832_xxAA_s132_6.0.0.dir/__/__/__/mesh/prov/src/prov_bearer_adv.c.obj
 .text.prov_bearer_adv_link_close
                0x000000000003fb10       0xcc CMakeFiles/light_switch_provisioner_nrf52832_xxAA_s132_6.0.0.dir/__/__/__/mesh/prov/src/prov_bearer_adv.c.obj
 .text.prov_buffer_tx
                0x000000000003fbdc      0x1e4 CMakeFiles/light_switch_provisioner_nrf52832_xxAA_s132_6.0.0.dir/__/__/__/mesh/prov/src/prov_bearer_adv.c.obj
 .text.tx_retry_cb
                0x000000000003fdc0      0x130 CMakeFiles/light_switch_provisioner_nrf52832_xxAA_s132_6.0.0.dir/__/__/__/mesh/prov/src/prov_bearer_adv.c.obj
 .text.prov_bearer_adv_tx
                0x000000000003fef0       0xe8 CMakeFiles/light_switch_provisioner_nrf52832_xxAA_s132_6.0.0.dir/__/__/__/mesh/prov/src/prov_bearer_adv.c.obj
 .text.async_process
                0x000000000003ffd8      0x118 CMakeFiles/light_switch_provisioner_nrf52832_xxAA_s132_6.0.0.dir/__/__/__/mesh/prov/src/prov_bearer_adv.c.obj
 .text.nrf_mesh_prov_bearer_adv_interface_get
                0x00000000000400f0       0x40 CMakeFiles/light_switch_provisioner_nrf52832_xxAA_s132_6.0.0.dir/__/__/__/mesh/prov/src/prov_bearer_adv.c.obj
                0x00000000000400f0                nrf_mesh_prov_bearer_adv_interface_get
 .text.prov_bearer_adv_packet_in
                0x0000000000040130      0x914 CMakeFiles/light_switch_provisioner_nrf52832_xxAA_s132_6.0.0.dir/__/__/__/mesh/prov/src/prov_bearer_adv.c.obj
                0x0000000000040130                prov_bearer_adv_packet_in
 .text.SystemInit
                0x0000000000040a44      0x3c0 CMakeFiles/light_switch_provisioner_nrf52832_xxAA_s132_6.0.0.dir/home/mazzer/work/nordic/sdk/nRF5_SDK_15.0.0/modules/nrfx/mdk/system_nrf52.c.obj
                0x0000000000040a44                SystemInit
 .text          0x0000000000040e04       0x3c CMakeFiles/light_switch_provisioner_nrf52832_xxAA_s132_6.0.0.dir/home/mazzer/work/nordic/sdk/nRF5_SDK_15.0.0/modules/nrfx/mdk/gcc_startup_nrf52.S.obj
                0x0000000000040e04                Reset_Handler
                0x0000000000040e2c                NMI_Handler
                0x0000000000040e2e                HardFault_Handler
                0x0000000000040e30                MemoryManagement_Handler
                0x0000000000040e32                BusFault_Handler
                0x0000000000040e34                UsageFault_Handler
                0x0000000000040e36                SVC_Handler
                0x0000000000040e38                DebugMon_Handler
                0x0000000000040e3a                PendSV_Handler
                0x0000000000040e3c                SysTick_Handler
                0x0000000000040e3e                RTC0_IRQHandler
                0x0000000000040e3e                SWI0_EGU0_IRQHandler
                0x0000000000040e3e                PWM1_IRQHandler
                0x0000000000040e3e                POWER_CLOCK_IRQHandler
                0x0000000000040e3e                RADIO_IRQHandler
                0x0000000000040e3e                PDM_IRQHandler
                0x0000000000040e3e                TEMP_IRQHandler
                0x0000000000040e3e                TIMER3_IRQHandler
                0x0000000000040e3e                FPU_IRQHandler
                0x0000000000040e3e                SPIM0_SPIS0_TWIM0_TWIS0_SPI0_TWI0_IRQHandler
                0x0000000000040e3e                UARTE0_UART0_IRQHandler
                0x0000000000040e3e                TIMER4_IRQHandler
                0x0000000000040e3e                I2S_IRQHandler
                0x0000000000040e3e                SWI4_EGU4_IRQHandler
                0x0000000000040e3e                TIMER0_IRQHandler
                0x0000000000040e3e                TIMER1_IRQHandler
                0x0000000000040e3e                PWM2_IRQHandler
                0x0000000000040e3e                ECB_IRQHandler
                0x0000000000040e3e                SPIM1_SPIS1_TWIM1_TWIS1_SPI1_TWI1_IRQHandler
                0x0000000000040e3e                Default_Handler
                0x0000000000040e3e                SAADC_IRQHandler
                0x0000000000040e3e                CCM_AAR_IRQHandler
                0x0000000000040e3e                WDT_IRQHandler
                0x0000000000040e3e                SWI5_EGU5_IRQHandler
                0x0000000000040e3e                RNG_IRQHandler
                0x0000000000040e3e                RTC2_IRQHandler
                0x0000000000040e3e                PWM0_IRQHandler
                0x0000000000040e3e                SWI3_EGU3_IRQHandler
                0x0000000000040e3e                RTC1_IRQHandler
                0x0000000000040e3e                SWI1_EGU1_IRQHandler
                0x0000000000040e3e                SPIM2_SPIS2_SPI2_IRQHandler
                0x0000000000040e3e                NFCT_IRQHandler
                0x0000000000040e3e                MWU_IRQHandler
                0x0000000000040e3e                COMP_LPCOMP_IRQHandler
 .text.app_error_handler
                0x0000000000040e40       0x1c CMakeFiles/light_switch_provisioner_nrf52832_xxAA_s132_6.0.0.dir/home/mazzer/work/nordic/sdk/nRF5_SDK_15.0.0/components/libraries/util/app_error_handler_gcc.c.obj
                0x0000000000040e40                app_error_handler
 .text.SEGGER_RTT_Write
                0x0000000000040e5c      0x1f4 ../../../external/rtt/librtt_nrf52832_xxAA.a(SEGGER_RTT.c.obj)
                0x0000000000040e5c                SEGGER_RTT_Write
 .text.SEGGER_RTT_GetKey
                0x0000000000041050       0xf8 ../../../external/rtt/librtt_nrf52832_xxAA.a(SEGGER_RTT.c.obj)
                0x0000000000041050                SEGGER_RTT_GetKey
 .text._PrintUnsigned
                0x0000000000041148      0x17c ../../../external/rtt/librtt_nrf52832_xxAA.a(SEGGER_RTT_printf.c.obj)
 .text.SEGGER_RTT_vprintf
                0x00000000000412c4      0x524 ../../../external/rtt/librtt_nrf52832_xxAA.a(SEGGER_RTT_printf.c.obj)
                0x00000000000412c4                SEGGER_RTT_vprintf
 .text.SEGGER_RTT_printf
                0x00000000000417e8       0x20 ../../../external/rtt/librtt_nrf52832_xxAA.a(SEGGER_RTT_printf.c.obj)
                0x00000000000417e8                SEGGER_RTT_printf
 .text.default_RNG
                0x0000000000041808        0xc ../../../external/micro-ecc/libuECC_nrf52832_xxAA.a(uECC.c.obj)
 .text.uECC_generate_random_int
                0x0000000000041814      0x17c ../../../external/micro-ecc/libuECC_nrf52832_xxAA.a(uECC.c.obj)
 .text.apply_z  0x0000000000041990      0x1a8 ../../../external/micro-ecc/libuECC_nrf52832_xxAA.a(uECC.c.obj)
 .text.uECC_vli_modAdd
                0x0000000000041b38       0xd8 ../../../external/micro-ecc/libuECC_nrf52832_xxAA.a(uECC.c.obj)
 .text.x_side_default
                0x0000000000041c10      0x26c ../../../external/micro-ecc/libuECC_nrf52832_xxAA.a(uECC.c.obj)
 .text.vli_mmod_fast_secp256r1
                0x0000000000041e7c      0x514 ../../../external/micro-ecc/libuECC_nrf52832_xxAA.a(uECC.c.obj)
 .text.XYcZ_add
                0x0000000000042390      0x6e0 ../../../external/micro-ecc/libuECC_nrf52832_xxAA.a(uECC.c.obj)
 .text.XYcZ_addC
                0x0000000000042a70      0xabc ../../../external/micro-ecc/libuECC_nrf52832_xxAA.a(uECC.c.obj)
 .text.uECC_vli_modInv.part.4
                0x000000000004352c      0x71c ../../../external/micro-ecc/libuECC_nrf52832_xxAA.a(uECC.c.obj)
 .text.EccPoint_mult
                0x0000000000043c48      0x4a4 ../../../external/micro-ecc/libuECC_nrf52832_xxAA.a(uECC.c.obj)
 .text.double_jacobian_default
                0x00000000000440ec      0x814 ../../../external/micro-ecc/libuECC_nrf52832_xxAA.a(uECC.c.obj)
 .text.uECC_secp256r1
                0x0000000000044900        0x8 ../../../external/micro-ecc/libuECC_nrf52832_xxAA.a(uECC.c.obj)
                0x0000000000044900                uECC_secp256r1
 .text.uECC_make_key
                0x0000000000044908      0x240 ../../../external/micro-ecc/libuECC_nrf52832_xxAA.a(uECC.c.obj)
                0x0000000000044908                uECC_make_key
 .text.uECC_shared_secret
                0x0000000000044b48      0x314 ../../../external/micro-ecc/libuECC_nrf52832_xxAA.a(uECC.c.obj)
                0x0000000000044b48                uECC_shared_secret
 .text.uECC_valid_public_key
                0x0000000000044e5c      0x230 ../../../external/micro-ecc/libuECC_nrf52832_xxAA.a(uECC.c.obj)
                0x0000000000044e5c                uECC_valid_public_key
 .text          0x000000000004508c       0x30 /usr/bin/../lib/gcc/arm-none-eabi/7.2.1/thumb/v7e-m/fpv4-sp/hard/libgcc.a(_aeabi_uldivmod.o)
                0x000000000004508c                __aeabi_uldivmod
 .text          0x00000000000450bc      0x2cc /usr/bin/../lib/gcc/arm-none-eabi/7.2.1/thumb/v7e-m/fpv4-sp/hard/libgcc.a(_udivmoddi4.o)
                0x00000000000450bc                __udivmoddi4
 .text          0x0000000000045388        0x4 /usr/bin/../lib/gcc/arm-none-eabi/7.2.1/thumb/v7e-m/fpv4-sp/hard/libgcc.a(_dvmd_tls.o)
                0x0000000000045388                __aeabi_ldiv0
                0x0000000000045388                __aeabi_idiv0
 .text.exit     0x000000000004538c       0x28 /usr/bin/../lib/gcc/arm-none-eabi/7.2.1/../../../../arm-none-eabi/lib/thumb/v7e-m/fpv4-sp/hard/libg_nano.a(lib_a-exit.o)
                0x000000000004538c                exit
 .text.__libc_init_array
                0x00000000000453b4       0x48 /usr/bin/../lib/gcc/arm-none-eabi/7.2.1/../../../../arm-none-eabi/lib/thumb/v7e-m/fpv4-sp/hard/libg_nano.a(lib_a-init.o)
                0x00000000000453b4                __libc_init_array
 .text.malloc   0x00000000000453fc       0x10 /usr/bin/../lib/gcc/arm-none-eabi/7.2.1/../../../../arm-none-eabi/lib/thumb/v7e-m/fpv4-sp/hard/libg_nano.a(lib_a-malloc.o)
                0x00000000000453fc                malloc
 .text.free     0x000000000004540c       0x10 /usr/bin/../lib/gcc/arm-none-eabi/7.2.1/../../../../arm-none-eabi/lib/thumb/v7e-m/fpv4-sp/hard/libg_nano.a(lib_a-malloc.o)
                0x000000000004540c                free
 .text.memcmp   0x000000000004541c       0x1e /usr/bin/../lib/gcc/arm-none-eabi/7.2.1/../../../../arm-none-eabi/lib/thumb/v7e-m/fpv4-sp/hard/libg_nano.a(lib_a-memcmp.o)
                0x000000000004541c                memcmp
 .text.memcpy   0x000000000004543a       0x16 /usr/bin/../lib/gcc/arm-none-eabi/7.2.1/../../../../arm-none-eabi/lib/thumb/v7e-m/fpv4-sp/hard/libg_nano.a(lib_a-memcpy-stub.o)
                0x000000000004543a                memcpy
 .text.memset   0x0000000000045450       0x10 /usr/bin/../lib/gcc/arm-none-eabi/7.2.1/../../../../arm-none-eabi/lib/thumb/v7e-m/fpv4-sp/hard/libg_nano.a(lib_a-memset.o)
                0x0000000000045450                memset
 .text._free_r  0x0000000000045460       0x9c /usr/bin/../lib/gcc/arm-none-eabi/7.2.1/../../../../arm-none-eabi/lib/thumb/v7e-m/fpv4-sp/hard/libg_nano.a(lib_a-nano-freer.o)
                0x0000000000045460                _free_r
 .text._malloc_r
                0x00000000000454fc       0xb4 /usr/bin/../lib/gcc/arm-none-eabi/7.2.1/../../../../arm-none-eabi/lib/thumb/v7e-m/fpv4-sp/hard/libg_nano.a(lib_a-nano-mallocr.o)
                0x00000000000454fc                _malloc_r
 .text._sbrk_r  0x00000000000455b0       0x20 /usr/bin/../lib/gcc/arm-none-eabi/7.2.1/../../../../arm-none-eabi/lib/thumb/v7e-m/fpv4-sp/hard/libg_nano.a(lib_a-sbrkr.o)
                0x00000000000455b0                _sbrk_r
 .text.strcpy   0x00000000000455d0       0x10 /usr/bin/../lib/gcc/arm-none-eabi/7.2.1/../../../../arm-none-eabi/lib/thumb/v7e-m/fpv4-sp/hard/libg_nano.a(lib_a-strcpy.o)
                0x00000000000455d0                strcpy
 .text          0x00000000000455e0       0x10 /usr/bin/../lib/gcc/arm-none-eabi/7.2.1/../../../../arm-none-eabi/lib/thumb/v7e-m/fpv4-sp/hard/libg_nano.a(lib_a-strlen.o)
                0x00000000000455e0                strlen
 .text.strrchr  0x00000000000455f0       0x28 /usr/bin/../lib/gcc/arm-none-eabi/7.2.1/../../../../arm-none-eabi/lib/thumb/v7e-m/fpv4-sp/hard/libg_nano.a(lib_a-strrchr.o)
                0x00000000000455f0                strrchr
 .text.__malloc_lock
                0x0000000000045618        0x2 /usr/bin/../lib/gcc/arm-none-eabi/7.2.1/../../../../arm-none-eabi/lib/thumb/v7e-m/fpv4-sp/hard/libg_nano.a(lib_a-mlock.o)
                0x0000000000045618                __malloc_lock
 .text.__malloc_unlock
                0x000000000004561a        0x2 /usr/bin/../lib/gcc/arm-none-eabi/7.2.1/../../../../arm-none-eabi/lib/thumb/v7e-m/fpv4-sp/hard/libg_nano.a(lib_a-mlock.o)
                0x000000000004561a                __malloc_unlock
 .text.strchr   0x000000000004561c       0x1a /usr/bin/../lib/gcc/arm-none-eabi/7.2.1/../../../../arm-none-eabi/lib/thumb/v7e-m/fpv4-sp/hard/libg_nano.a(lib_a-strchr.o)
                0x000000000004561c                strchr
 *fill*         0x0000000000045636        0x2 
 .text._sbrk    0x0000000000045638       0x1c /usr/bin/../lib/gcc/arm-none-eabi/7.2.1/../../../../arm-none-eabi/lib/thumb/v7e-m/fpv4-sp/hard/libnosys.a(sbrk.o)
                0x0000000000045638                _sbrk
 .text._exit    0x0000000000045654        0x4 /usr/bin/../lib/gcc/arm-none-eabi/7.2.1/../../../../arm-none-eabi/lib/thumb/v7e-m/fpv4-sp/hard/libnosys.a(_exit.o)
                0x0000000000045654                _exit
 *(.init)
 .init          0x0000000000045658        0x4 /usr/bin/../lib/gcc/arm-none-eabi/7.2.1/thumb/v7e-m/fpv4-sp/hard/crti.o
                0x0000000000045658                _init
 .init          0x000000000004565c        0x8 /usr/bin/../lib/gcc/arm-none-eabi/7.2.1/thumb/v7e-m/fpv4-sp/hard/crtn.o
 *(.fini)
 .fini          0x0000000000045664        0x4 /usr/bin/../lib/gcc/arm-none-eabi/7.2.1/thumb/v7e-m/fpv4-sp/hard/crti.o
                0x0000000000045664                _fini
 .fini          0x0000000000045668        0x8 /usr/bin/../lib/gcc/arm-none-eabi/7.2.1/thumb/v7e-m/fpv4-sp/hard/crtn.o
 *crtbegin.o(.ctors)
 *crtbegin?.o(.ctors)
 *(EXCLUDE_FILE(*crtend.o *crtend?.o) .ctors)
 *(SORT_BY_NAME(.ctors.*))
 *(.ctors)
 *crtbegin.o(.dtors)
 *crtbegin?.o(.dtors)
 *(EXCLUDE_FILE(*crtend.o *crtend?.o) .dtors)
 *(SORT_BY_NAME(.dtors.*))
 *(.dtors)
 *(.rodata*)
 .rodata        0x0000000000045670       0x18 CMakeFiles/light_switch_provisioner_nrf52832_xxAA_s132_6.0.0.dir/src/main.c.obj
 .rodata.app_config_client_event_cb.str1.4
                0x0000000000045688       0x15 CMakeFiles/light_switch_provisioner_nrf52832_xxAA_s132_6.0.0.dir/src/main.c.obj
 *fill*         0x000000000004569d        0x3 
 .rodata.app_config_failed_cb.str1.4
                0x00000000000456a0       0x3d CMakeFiles/light_switch_provisioner_nrf52832_xxAA_s132_6.0.0.dir/src/main.c.obj
 *fill*         0x00000000000456dd        0x3 
 .rodata.app_config_server_event_cb.str1.4
                0x00000000000456e0       0x19 CMakeFiles/light_switch_provisioner_nrf52832_xxAA_s132_6.0.0.dir/src/main.c.obj
 *fill*         0x00000000000456f9        0x3 
 .rodata.app_config_successful_cb.str1.4
                0x00000000000456fc       0x41 CMakeFiles/light_switch_provisioner_nrf52832_xxAA_s132_6.0.0.dir/src/main.c.obj
 *fill*         0x000000000004573d        0x3 
 .rodata.app_flash_manager_add.str1.4
                0x0000000000045740       0x2a CMakeFiles/light_switch_provisioner_nrf52832_xxAA_s132_6.0.0.dir/src/main.c.obj
 *fill*         0x000000000004576a        0x2 
 .rodata.app_health_event_cb.str1.4
                0x000000000004576c       0x35 CMakeFiles/light_switch_provisioner_nrf52832_xxAA_s132_6.0.0.dir/src/main.c.obj
 *fill*         0x00000000000457a1        0x3 
 .rodata.app_mesh_core_event_cb.str1.4
                0x00000000000457a4      0x107 CMakeFiles/light_switch_provisioner_nrf52832_xxAA_s132_6.0.0.dir/src/main.c.obj
 *fill*         0x00000000000458ab        0x1 
 .rodata.app_prov_failed_cb.str1.4
                0x00000000000458ac       0x2f CMakeFiles/light_switch_provisioner_nrf52832_xxAA_s132_6.0.0.dir/src/main.c.obj
 *fill*         0x00000000000458db        0x1 
 .rodata.app_prov_success_cb.str1.4
                0x00000000000458dc       0x19 CMakeFiles/light_switch_provisioner_nrf52832_xxAA_s132_6.0.0.dir/src/main.c.obj
 *fill*         0x00000000000458f5        0x3 
 .rodata.button_event_handler.str1.4
                0x00000000000458f8      0x12b CMakeFiles/light_switch_provisioner_nrf52832_xxAA_s132_6.0.0.dir/src/main.c.obj
 *fill*         0x0000000000045a23        0x1 
 .rodata.flash_invalidate_complete.str1.4
                0x0000000000045a24       0x67 CMakeFiles/light_switch_provisioner_nrf52832_xxAA_s132_6.0.0.dir/src/main.c.obj
 *fill*         0x0000000000045a8b        0x1 
 .rodata.flash_remove_complete.str1.4
                0x0000000000045a8c       0x17 CMakeFiles/light_switch_provisioner_nrf52832_xxAA_s132_6.0.0.dir/src/main.c.obj
 *fill*         0x0000000000045aa3        0x1 
 .rodata.flash_write_complete.str1.4
                0x0000000000045aa4       0x16 CMakeFiles/light_switch_provisioner_nrf52832_xxAA_s132_6.0.0.dir/src/main.c.obj
 *fill*         0x0000000000045aba        0x2 
 .rodata.m_client_node_uuid
                0x0000000000045abc       0x10 CMakeFiles/light_switch_provisioner_nrf52832_xxAA_s132_6.0.0.dir/src/main.c.obj
 .rodata.m_server_uuid_filter
                0x0000000000045acc        0x4 CMakeFiles/light_switch_provisioner_nrf52832_xxAA_s132_6.0.0.dir/src/main.c.obj
 .rodata.main.str1.4
                0x0000000000045ad0       0x9e CMakeFiles/light_switch_provisioner_nrf52832_xxAA_s132_6.0.0.dir/src/main.c.obj
 *fill*         0x0000000000045b6e        0x2 
 .rodata.models_init_cb.str1.4
                0x0000000000045b70       0x20 CMakeFiles/light_switch_provisioner_nrf52832_xxAA_s132_6.0.0.dir/src/main.c.obj
 .rodata        0x0000000000045b90       0x20 CMakeFiles/light_switch_provisioner_nrf52832_xxAA_s132_6.0.0.dir/src/provisioner_helper.c.obj
 .rodata.prov_evt_handler.str1.4
                0x0000000000045bb0      0x317 CMakeFiles/light_switch_provisioner_nrf52832_xxAA_s132_6.0.0.dir/src/provisioner_helper.c.obj
                                        0x31f (size before relaxing)
 *fill*         0x0000000000045ec7        0x1 
 .rodata.prov_helper_device_handles_load.str1.4
                0x0000000000045ec8       0x3f CMakeFiles/light_switch_provisioner_nrf52832_xxAA_s132_6.0.0.dir/src/provisioner_helper.c.obj
 *fill*         0x0000000000045f07        0x1 
 .rodata.prov_helper_provision_self.str1.4
                0x0000000000045f08       0x13 CMakeFiles/light_switch_provisioner_nrf52832_xxAA_s132_6.0.0.dir/src/provisioner_helper.c.obj
 *fill*         0x0000000000045f1b        0x1 
 .rodata.prov_helper_scan_start.str1.4
                0x0000000000045f1c       0x24 CMakeFiles/light_switch_provisioner_nrf52832_xxAA_s132_6.0.0.dir/src/provisioner_helper.c.obj
 .rodata.client_config_steps
                0x0000000000045f40        0xd CMakeFiles/light_switch_provisioner_nrf52832_xxAA_s132_6.0.0.dir/src/node_setup.c.obj
 *fill*         0x0000000000045f4d        0x3 
 .rodata.client_pub_state_set.str1.4
                0x0000000000045f50       0x9e CMakeFiles/light_switch_provisioner_nrf52832_xxAA_s132_6.0.0.dir/src/node_setup.c.obj
 *fill*         0x0000000000045fee        0x2 
 .rodata.config_step_execute.str1.4
                0x0000000000045ff0      0x125 CMakeFiles/light_switch_provisioner_nrf52832_xxAA_s132_6.0.0.dir/src/node_setup.c.obj
 *fill*         0x0000000000046115        0x3 
 .rodata.exp_status.11456
                0x0000000000046118        0x2 CMakeFiles/light_switch_provisioner_nrf52832_xxAA_s132_6.0.0.dir/src/node_setup.c.obj
 *fill*         0x000000000004611a        0x2 
 .rodata.exp_status.11460
                0x000000000004611c        0x1 CMakeFiles/light_switch_provisioner_nrf52832_xxAA_s132_6.0.0.dir/src/node_setup.c.obj
 *fill*         0x000000000004611d        0x3 
 .rodata.exp_status.11464
                0x0000000000046120        0x1 CMakeFiles/light_switch_provisioner_nrf52832_xxAA_s132_6.0.0.dir/src/node_setup.c.obj
 *fill*         0x0000000000046121        0x3 
 .rodata.exp_status.11468
                0x0000000000046124        0x1 CMakeFiles/light_switch_provisioner_nrf52832_xxAA_s132_6.0.0.dir/src/node_setup.c.obj
 *fill*         0x0000000000046125        0x3 
 .rodata.exp_status.11471
                0x0000000000046128        0x1 CMakeFiles/light_switch_provisioner_nrf52832_xxAA_s132_6.0.0.dir/src/node_setup.c.obj
 *fill*         0x0000000000046129        0x3 
 .rodata.exp_status.11474
                0x000000000004612c        0x1 CMakeFiles/light_switch_provisioner_nrf52832_xxAA_s132_6.0.0.dir/src/node_setup.c.obj
 *fill*         0x000000000004612d        0x3 
 .rodata.exp_status.11479
                0x0000000000046130        0x1 CMakeFiles/light_switch_provisioner_nrf52832_xxAA_s132_6.0.0.dir/src/node_setup.c.obj
 *fill*         0x0000000000046131        0x3 
 .rodata.exp_status.11482
                0x0000000000046134        0x1 CMakeFiles/light_switch_provisioner_nrf52832_xxAA_s132_6.0.0.dir/src/node_setup.c.obj
 *fill*         0x0000000000046135        0x3 
 .rodata.exp_status.11485
                0x0000000000046138        0x1 CMakeFiles/light_switch_provisioner_nrf52832_xxAA_s132_6.0.0.dir/src/node_setup.c.obj
 *fill*         0x0000000000046139        0x3 
 .rodata.exp_status.11488
                0x000000000004613c        0x1 CMakeFiles/light_switch_provisioner_nrf52832_xxAA_s132_6.0.0.dir/src/node_setup.c.obj
 *fill*         0x000000000004613d        0x3 
 .rodata.exp_status.11491
                0x0000000000046140        0x1 CMakeFiles/light_switch_provisioner_nrf52832_xxAA_s132_6.0.0.dir/src/node_setup.c.obj
 .rodata.m_idle_step
                0x0000000000046141        0x1 CMakeFiles/light_switch_provisioner_nrf52832_xxAA_s132_6.0.0.dir/src/node_setup.c.obj
 *fill*         0x0000000000046142        0x2 
 .rodata.node_setup_config_client_event_process.str1.4
                0x0000000000046144       0x9e CMakeFiles/light_switch_provisioner_nrf52832_xxAA_s132_6.0.0.dir/src/node_setup.c.obj
 *fill*         0x00000000000461e2        0x2 
 .rodata.node_setup_start.str1.4
                0x00000000000461e4       0x86 CMakeFiles/light_switch_provisioner_nrf52832_xxAA_s132_6.0.0.dir/src/node_setup.c.obj
 *fill*         0x000000000004626a        0x2 
 .rodata.retry_on_fail.str1.4
                0x000000000004626c       0x1b CMakeFiles/light_switch_provisioner_nrf52832_xxAA_s132_6.0.0.dir/src/node_setup.c.obj
 *fill*         0x0000000000046287        0x1 
 .rodata.server1_server2_config_steps
                0x0000000000046288        0x8 CMakeFiles/light_switch_provisioner_nrf52832_xxAA_s132_6.0.0.dir/src/node_setup.c.obj
 .rodata.server_config_steps
                0x0000000000046290        0x7 CMakeFiles/light_switch_provisioner_nrf52832_xxAA_s132_6.0.0.dir/src/node_setup.c.obj
 *fill*         0x0000000000046297        0x1 
 .rodata.mesh_softdevice_init.str1.4
                0x0000000000046298       0xe1 CMakeFiles/light_switch_provisioner_nrf52832_xxAA_s132_6.0.0.dir/__/__/common/src/mesh_softdevice_init.c.obj
 *fill*         0x0000000000046379        0x7 
 .rodata.delay_bytecode.8588
                0x0000000000046380        0x6 CMakeFiles/light_switch_provisioner_nrf52832_xxAA_s132_6.0.0.dir/__/__/common/src/simple_hal.c.obj
 *fill*         0x0000000000046386        0x2 
 .rodata.m_buttons_list
                0x0000000000046388        0x4 CMakeFiles/light_switch_provisioner_nrf52832_xxAA_s132_6.0.0.dir/__/__/common/src/simple_hal.c.obj
 .rodata.app_error_fault_handler.str1.4
                0x000000000004638c       0xfd CMakeFiles/light_switch_provisioner_nrf52832_xxAA_s132_6.0.0.dir/__/__/common/src/app_error_weak.c.obj
 .rodata.mesh_assertion_handler.str1.4
                0x0000000000046489       0xfd CMakeFiles/light_switch_provisioner_nrf52832_xxAA_s132_6.0.0.dir/__/__/common/src/assertion_handler_weak.c.obj
                                          0x1 (size before relaxing)
 *fill*         0x0000000000046489        0x3 
 .rodata.sar_ctx_cancel.str1.4
                0x000000000004648c       0x23 CMakeFiles/light_switch_provisioner_nrf52832_xxAA_s132_6.0.0.dir/__/__/__/mesh/core/src/transport.c.obj
 *fill*         0x00000000000464af        0x1 
 .rodata.transport_packet_in.str1.4
                0x00000000000464b0       0x24 CMakeFiles/light_switch_provisioner_nrf52832_xxAA_s132_6.0.0.dir/__/__/__/mesh/core/src/transport.c.obj
 .rodata.upper_transport_access_packet_in.str1.4
                0x00000000000464d4       0x91 CMakeFiles/light_switch_provisioner_nrf52832_xxAA_s132_6.0.0.dir/__/__/__/mesh/core/src/transport.c.obj
 *fill*         0x0000000000046565        0x3 
 .rodata.upper_transport_packet_in.str1.4
                0x0000000000046568       0x2e CMakeFiles/light_switch_provisioner_nrf52832_xxAA_s132_6.0.0.dir/__/__/__/mesh/core/src/transport.c.obj
 *fill*         0x0000000000046596        0x2 
 .rodata.upper_transport_tx.part.27.str1.4
                0x0000000000046598        0xe CMakeFiles/light_switch_provisioner_nrf52832_xxAA_s132_6.0.0.dir/__/__/__/mesh/core/src/transport.c.obj
                                         0x18 (size before relaxing)
 *fill*         0x00000000000465a6        0x2 
 .rodata.m_procedure_steps
                0x00000000000465a8       0x28 CMakeFiles/light_switch_provisioner_nrf52832_xxAA_s132_6.0.0.dir/__/__/__/mesh/core/src/flash_manager_defrag.c.obj
 .rodata.m_all_operations
                0x00000000000465d0       0x10 CMakeFiles/light_switch_provisioner_nrf52832_xxAA_s132_6.0.0.dir/__/__/__/mesh/core/src/mesh_flash.c.obj
 .rodata.types_lookup.9220
                0x00000000000465e0        0x4 CMakeFiles/light_switch_provisioner_nrf52832_xxAA_s132_6.0.0.dir/__/__/__/mesh/core/src/nrf_mesh_utils.c.obj
 .rodata.__func__.11692
                0x00000000000465e4       0x15 CMakeFiles/light_switch_provisioner_nrf52832_xxAA_s132_6.0.0.dir/__/__/__/mesh/core/src/nrf_mesh.c.obj
 *fill*         0x00000000000465f9        0x3 
 .rodata.nrf_mesh_listen.str1.4
                0x00000000000465fc       0xab CMakeFiles/light_switch_provisioner_nrf52832_xxAA_s132_6.0.0.dir/__/__/__/mesh/core/src/nrf_mesh.c.obj
 .rodata.nrf_mesh_packet_send.str1.4
                0x00000000000466a7       0xab CMakeFiles/light_switch_provisioner_nrf52832_xxAA_s132_6.0.0.dir/__/__/__/mesh/core/src/nrf_mesh.c.obj
                                          0x4 (size before relaxing)
 *fill*         0x00000000000466a7        0x1 
 .rodata.CSWTCH.8
                0x00000000000466a8       0x20 CMakeFiles/light_switch_provisioner_nrf52832_xxAA_s132_6.0.0.dir/__/__/__/mesh/core/src/hal.c.obj
 .rodata        0x00000000000466c8       0x18 CMakeFiles/light_switch_provisioner_nrf52832_xxAA_s132_6.0.0.dir/__/__/__/mesh/core/src/enc.c.obj
 .rodata.network_packet_in.str1.4
                0x00000000000466e0       0x81 CMakeFiles/light_switch_provisioner_nrf52832_xxAA_s132_6.0.0.dir/__/__/__/mesh/core/src/network.c.obj
 *fill*         0x0000000000046761        0x3 
 .rodata.net_packet_decrypt.str1.4
                0x0000000000046764       0x6b CMakeFiles/light_switch_provisioner_nrf52832_xxAA_s132_6.0.0.dir/__/__/__/mesh/core/src/net_packet.c.obj
                                         0x74 (size before relaxing)
 *fill*         0x00000000000467cf        0x1 
 .rodata        0x00000000000467d0        0x7 CMakeFiles/light_switch_provisioner_nrf52832_xxAA_s132_6.0.0.dir/__/__/__/mesh/core/src/nrf_mesh_keygen.c.obj
 *fill*         0x00000000000467d7        0x1 
 .rodata.log_callback_rtt.str1.4
                0x00000000000467d8       0x15 CMakeFiles/light_switch_provisioner_nrf52832_xxAA_s132_6.0.0.dir/__/__/__/mesh/core/src/log.c.obj
 *fill*         0x00000000000467ed        0x3 
 .rodata.str1.4
                0x00000000000467f0       0x11 CMakeFiles/light_switch_provisioner_nrf52832_xxAA_s132_6.0.0.dir/__/__/__/mesh/core/src/log.c.obj
 *fill*         0x0000000000046801        0x3 
 .rodata.INVALID_HEADER
                0x0000000000046804        0x4 CMakeFiles/light_switch_provisioner_nrf52832_xxAA_s132_6.0.0.dir/__/__/__/mesh/core/src/flash_manager.c.obj
                0x0000000000046804                INVALID_HEADER
 .rodata.PADDING_HEADER
                0x0000000000046808        0x4 CMakeFiles/light_switch_provisioner_nrf52832_xxAA_s132_6.0.0.dir/__/__/__/mesh/core/src/flash_manager.c.obj
                0x0000000000046808                PADDING_HEADER
 .rodata.SEAL_HEADER
                0x000000000004680c        0x4 CMakeFiles/light_switch_provisioner_nrf52832_xxAA_s132_6.0.0.dir/__/__/__/mesh/core/src/flash_manager.c.obj
                0x000000000004680c                SEAL_HEADER
 .rodata.beacon_packet_in.str1.4
                0x0000000000046810       0x8d CMakeFiles/light_switch_provisioner_nrf52832_xxAA_s132_6.0.0.dir/__/__/__/mesh/core/src/beacon.c.obj
                                         0x98 (size before relaxing)
 *fill*         0x000000000004689d        0x3 
 .rodata.cp_handler
                0x00000000000468a0        0x8 CMakeFiles/light_switch_provisioner_nrf52832_xxAA_s132_6.0.0.dir/__/__/__/mesh/core/src/heartbeat.c.obj
 .rodata.beacon_tx.str1.4
                0x00000000000468a8       0x6f CMakeFiles/light_switch_provisioner_nrf52832_xxAA_s132_6.0.0.dir/__/__/__/mesh/core/src/net_beacon.c.obj
 *fill*         0x0000000000046917        0x1 
 .rodata.net_beacon_init.str1.4
                0x0000000000046918        0x5 CMakeFiles/light_switch_provisioner_nrf52832_xxAA_s132_6.0.0.dir/__/__/__/mesh/core/src/net_beacon.c.obj
 *fill*         0x000000000004691d        0x3 
 .rodata.m_interface
                0x0000000000046920        0xc CMakeFiles/light_switch_provisioner_nrf52832_xxAA_s132_6.0.0.dir/__/__/__/mesh/core/src/core_tx_adv.c.obj
 .rodata.radio_mode_to_us_per_byte.9613
                0x000000000004692c        0x6 CMakeFiles/light_switch_provisioner_nrf52832_xxAA_s132_6.0.0.dir/__/__/__/mesh/bearer/src/broadcast.c.obj
 *fill*         0x0000000000046932        0x2 
 .rodata.channel_rf_offsets.8831
                0x0000000000046934       0x28 CMakeFiles/light_switch_provisioner_nrf52832_xxAA_s132_6.0.0.dir/__/__/__/mesh/bearer/src/radio_config.c.obj
 .rodata.m_config_message_lut
                0x000000000004695c       0x5a CMakeFiles/light_switch_provisioner_nrf52832_xxAA_s132_6.0.0.dir/__/__/__/models/config/src/config_client.c.obj
 *fill*         0x00000000000469b6        0x2 
 .rodata.m_opcode_handlers
                0x00000000000469b8       0x78 CMakeFiles/light_switch_provisioner_nrf52832_xxAA_s132_6.0.0.dir/__/__/__/models/config/src/config_client.c.obj
 .rodata        0x0000000000046a30        0x8 CMakeFiles/light_switch_provisioner_nrf52832_xxAA_s132_6.0.0.dir/__/__/__/models/config/src/config_server.c.obj
 .rodata.CSWTCH.178
                0x0000000000046a38       0x10 CMakeFiles/light_switch_provisioner_nrf52832_xxAA_s132_6.0.0.dir/__/__/__/models/config/src/config_server.c.obj
 .rodata.opcode_handlers
                0x0000000000046a48      0x170 CMakeFiles/light_switch_provisioner_nrf52832_xxAA_s132_6.0.0.dir/__/__/__/models/config/src/config_server.c.obj
 .rodata.m_opcode_handlers
                0x0000000000046bb8       0x58 CMakeFiles/light_switch_provisioner_nrf52832_xxAA_s132_6.0.0.dir/__/__/__/models/health/src/health_server.c.obj
 .rodata.multiply_de_bruijn_bit_position.9465
                0x0000000000046c10       0x20 CMakeFiles/light_switch_provisioner_nrf52832_xxAA_s132_6.0.0.dir/__/__/__/models/health/src/health_server.c.obj
 .rodata.m_opcode_handlers
                0x0000000000046c30       0x20 CMakeFiles/light_switch_provisioner_nrf52832_xxAA_s132_6.0.0.dir/__/__/__/models/health/src/health_client.c.obj
 .rodata.access_model_publish.str1.4
                0x0000000000046c50       0x1c CMakeFiles/light_switch_provisioner_nrf52832_xxAA_s132_6.0.0.dir/__/__/__/mesh/access/src/access.c.obj
                                         0x24 (size before relaxing)
 .rodata.mesh_evt_cb.str1.4
                0x0000000000046c6c       0x67 CMakeFiles/light_switch_provisioner_nrf52832_xxAA_s132_6.0.0.dir/__/__/__/mesh/access/src/access.c.obj
 *fill*         0x0000000000046cd3        0x1 
 .rodata.multiply_de_bruijn_bit_position.9421
                0x0000000000046cd4       0x20 CMakeFiles/light_switch_provisioner_nrf52832_xxAA_s132_6.0.0.dir/__/__/__/mesh/access/src/access.c.obj
 .rodata.m_flash_groups
                0x0000000000046cf4       0xa8 CMakeFiles/light_switch_provisioner_nrf52832_xxAA_s132_6.0.0.dir/__/__/__/mesh/access/src/device_state_manager.c.obj
 .rodata.multiply_de_bruijn_bit_position.9527
                0x0000000000046d9c       0x20 CMakeFiles/light_switch_provisioner_nrf52832_xxAA_s132_6.0.0.dir/__/__/__/mesh/access/src/device_state_manager.c.obj
 .rodata.m_prov_callbacks
                0x0000000000046dbc       0x10 CMakeFiles/light_switch_provisioner_nrf52832_xxAA_s132_6.0.0.dir/__/__/__/mesh/prov/src/prov_provisioner.c.obj
 .rodata.pdu_sizes.11435
                0x0000000000046dcc        0xa CMakeFiles/light_switch_provisioner_nrf52832_xxAA_s132_6.0.0.dir/__/__/__/mesh/prov/src/provisioning.c.obj
 *fill*         0x0000000000046dd6        0x2 
 .rodata.alphanumeric.11540
                0x0000000000046dd8       0x25 CMakeFiles/light_switch_provisioner_nrf52832_xxAA_s132_6.0.0.dir/__/__/__/mesh/prov/src/prov_utils.c.obj
 *fill*         0x0000000000046dfd        0x3 
 .rodata.numeric_max.11534
                0x0000000000046e00       0x24 CMakeFiles/light_switch_provisioner_nrf52832_xxAA_s132_6.0.0.dir/__/__/__/mesh/prov/src/prov_utils.c.obj
 .rodata.prov_utils_authentication_values_derive.str1.4
                0x0000000000046e24        0x5 CMakeFiles/light_switch_provisioner_nrf52832_xxAA_s132_6.0.0.dir/__/__/__/mesh/prov/src/prov_utils.c.obj
 *fill*         0x0000000000046e29        0x3 
 .rodata.prov_utils_derive_keys.str1.4
                0x0000000000046e2c       0x15 CMakeFiles/light_switch_provisioner_nrf52832_xxAA_s132_6.0.0.dir/__/__/__/mesh/prov/src/prov_utils.c.obj
 *fill*         0x0000000000046e41        0x3 
 .rodata.crctable.11169
                0x0000000000046e44      0x100 CMakeFiles/light_switch_provisioner_nrf52832_xxAA_s132_6.0.0.dir/__/__/__/mesh/prov/src/prov_bearer_adv.c.obj
 .rodata.interface.11399
                0x0000000000046f44       0x14 CMakeFiles/light_switch_provisioner_nrf52832_xxAA_s132_6.0.0.dir/__/__/__/mesh/prov/src/prov_bearer_adv.c.obj
 .rodata.prov_bearer_adv_listen.str1.4
                0x0000000000046f58       0x88 CMakeFiles/light_switch_provisioner_nrf52832_xxAA_s132_6.0.0.dir/__/__/__/mesh/prov/src/prov_bearer_adv.c.obj
 .rodata.prov_bearer_adv_packet_in.str1.4
                0x0000000000046fe0      0x283 CMakeFiles/light_switch_provisioner_nrf52832_xxAA_s132_6.0.0.dir/__/__/__/mesh/prov/src/prov_bearer_adv.c.obj
 *fill*         0x0000000000047263        0x1 
 .rodata.tx_retry_cb.str1.4
                0x0000000000047264       0x14 CMakeFiles/light_switch_provisioner_nrf52832_xxAA_s132_6.0.0.dir/__/__/__/mesh/prov/src/prov_bearer_adv.c.obj
 .rodata.SEGGER_RTT_ReadNoLock.str1.4
                0x0000000000047278       0x18 ../../../external/rtt/librtt_nrf52832_xxAA.a(SEGGER_RTT.c.obj)
                                         0x17 (size before relaxing)
 .rodata._aV2C.5639
                0x0000000000047290       0x10 ../../../external/rtt/librtt_nrf52832_xxAA.a(SEGGER_RTT_printf.c.obj)
 .rodata.curve_secp256r1
                0x00000000000472a0       0xb0 ../../../external/micro-ecc/libuECC_nrf52832_xxAA.a(uECC.c.obj)
 .rodata._global_impure_ptr
                0x0000000000047350        0x4 /usr/bin/../lib/gcc/arm-none-eabi/7.2.1/../../../../arm-none-eabi/lib/thumb/v7e-m/fpv4-sp/hard/libg_nano.a(lib_a-impure.o)
                0x0000000000047350                _global_impure_ptr
 *(.eh_frame*)
 .eh_frame      0x0000000000047354        0x0 /usr/bin/../lib/gcc/arm-none-eabi/7.2.1/thumb/v7e-m/fpv4-sp/hard/crtbegin.o
 .eh_frame      0x0000000000047354        0x4 /usr/bin/../lib/gcc/arm-none-eabi/7.2.1/thumb/v7e-m/fpv4-sp/hard/crtend.o

.glue_7         0x0000000000047358        0x0
 .glue_7        0x0000000000047358        0x0 linker stubs

.glue_7t        0x0000000000047358        0x0
 .glue_7t       0x0000000000047358        0x0 linker stubs

.vfp11_veneer   0x0000000000047358        0x0
 .vfp11_veneer  0x0000000000047358        0x0 linker stubs

.v4_bx          0x0000000000047358        0x0
 .v4_bx         0x0000000000047358        0x0 linker stubs

.iplt           0x0000000000047358        0x0
 .iplt          0x0000000000047358        0x0 /usr/bin/../lib/gcc/arm-none-eabi/7.2.1/thumb/v7e-m/fpv4-sp/hard/crtbegin.o

.pwr_mgmt_data  0x0000000000047358        0x0
                [!provide]                        PROVIDE (__start_pwr_mgmt_data, .)
 *(SORT_BY_NAME(.pwr_mgmt_data*))
                [!provide]                        PROVIDE (__stop_pwr_mgmt_data, .)

.log_const_data
                0x0000000000047358        0x0
                [!provide]                        PROVIDE (__start_log_const_data, .)
 *(.log_const_data)
                [!provide]                        PROVIDE (__stop_log_const_data, .)

.cli_command    0x0000000000047358        0x0
                [!provide]                        PROVIDE (__start_cli_command, .)
 *(.cli_command)
                [!provide]                        PROVIDE (__stop_cli_command, .)

.sdh_stack_observers
                0x0000000000047358        0x0
                [!provide]                        PROVIDE (__start_sdh_stack_observers, .)
 *(SORT_BY_NAME(.sdh_stack_observers*))
                [!provide]                        PROVIDE (__stop_sdh_stack_observers, .)

.sdh_req_observers
                0x0000000000047358        0x0
                [!provide]                        PROVIDE (__start_sdh_req_observers, .)
 *(SORT_BY_NAME(.sdh_req_observers*))
                [!provide]                        PROVIDE (__stop_sdh_req_observers, .)

.sdh_state_observers
                0x0000000000047358        0x0
                [!provide]                        PROVIDE (__start_sdh_state_observers, .)
 *(SORT_BY_NAME(.sdh_state_observers*))
                [!provide]                        PROVIDE (__stop_sdh_state_observers, .)

.sdh_ant_observers
                0x0000000000047358        0x0
                [!provide]                        PROVIDE (__start_sdh_ant_observers, .)
 *(SORT_BY_NAME(.sdh_ant_observers*))
                [!provide]                        PROVIDE (__stop_sdh_ant_observers, .)

.sdh_ble_observers
                0x0000000000047358        0x0
                [!provide]                        PROVIDE (__start_sdh_ble_observers, .)
 *(SORT_BY_NAME(.sdh_ble_observers*))
                [!provide]                        PROVIDE (__stop_sdh_ble_observers, .)

.sdh_soc_observers
                0x0000000000047358        0x0
                [!provide]                        PROVIDE (__start_sdh_soc_observers, .)
 *(SORT_BY_NAME(.sdh_soc_observers*))
                [!provide]                        PROVIDE (__stop_sdh_soc_observers, .)

.ARM.extab
 *(.ARM.extab* .gnu.linkonce.armextab.*)
                0x0000000000047358                __exidx_start = .

.ARM.exidx      0x0000000000047358        0x8
 *(.ARM.exidx* .gnu.linkonce.armexidx.*)
 .ARM.exidx     0x0000000000047358        0x8 /usr/bin/../lib/gcc/arm-none-eabi/7.2.1/../../../../arm-none-eabi/lib/thumb/v7e-m/fpv4-sp/hard/crt0.o
 .ARM.exidx     0x0000000000047360        0x0 /usr/bin/../lib/gcc/arm-none-eabi/7.2.1/thumb/v7e-m/fpv4-sp/hard/libgcc.a(_udivmoddi4.o)
                                          0x8 (size before relaxing)
                0x0000000000047360                __exidx_end = .
                0x0000000000047360                __etext = .

.rel.dyn        0x0000000000047360        0x0
 .rel.iplt      0x0000000000047360        0x0 /usr/bin/../lib/gcc/arm-none-eabi/7.2.1/thumb/v7e-m/fpv4-sp/hard/crtbegin.o

.data           0x00000000200032c8      0x174 load address 0x0000000000047360
                0x00000000200032c8                __data_start__ = .
 *(vtable)
 *(.data*)
 .data.flash_add_mem_available_struct.13353
                0x00000000200032c8       0x10 CMakeFiles/light_switch_provisioner_nrf52832_xxAA_s132_6.0.0.dir/src/main.c.obj
 .data.flash_add_mem_available_struct.13364
                0x00000000200032d8       0x10 CMakeFiles/light_switch_provisioner_nrf52832_xxAA_s132_6.0.0.dir/src/main.c.obj
 .data.m_mesh_core_event_handler
                0x00000000200032e8        0x8 CMakeFiles/light_switch_provisioner_nrf52832_xxAA_s132_6.0.0.dir/src/main.c.obj
 .data.mem_listener.13369
                0x00000000200032f0       0x10 CMakeFiles/light_switch_provisioner_nrf52832_xxAA_s132_6.0.0.dir/src/main.c.obj
 .data.mp_config_step
                0x0000000020003300        0x4 CMakeFiles/light_switch_provisioner_nrf52832_xxAA_s132_6.0.0.dir/src/node_setup.c.obj
 .data.wait.9133
                0x0000000020003304        0x1 CMakeFiles/light_switch_provisioner_nrf52832_xxAA_s132_6.0.0.dir/__/__/common/src/app_error_weak.c.obj
 *fill*         0x0000000020003305        0x3 
 .data.mem_listener.10007
                0x0000000020003308       0x10 CMakeFiles/light_switch_provisioner_nrf52832_xxAA_s132_6.0.0.dir/__/__/__/mesh/core/src/net_state.c.obj
 .data.mem_listener.9971
                0x0000000020003318       0x10 CMakeFiles/light_switch_provisioner_nrf52832_xxAA_s132_6.0.0.dir/__/__/__/mesh/core/src/net_state.c.obj
 .data.mem_listener.9976
                0x0000000020003328       0x10 CMakeFiles/light_switch_provisioner_nrf52832_xxAA_s132_6.0.0.dir/__/__/__/mesh/core/src/net_state.c.obj
 .data.mem_listener.9990
                0x0000000020003338       0x10 CMakeFiles/light_switch_provisioner_nrf52832_xxAA_s132_6.0.0.dir/__/__/__/mesh/core/src/net_state.c.obj
 .data.m_nrf_mesh_listener
                0x0000000020003348        0xc CMakeFiles/light_switch_provisioner_nrf52832_xxAA_s132_6.0.0.dir/__/__/__/mesh/core/src/nrf_mesh.c.obj
 .data.g_log_dbg_lvl
                0x0000000020003354        0x4 CMakeFiles/light_switch_provisioner_nrf52832_xxAA_s132_6.0.0.dir/__/__/__/mesh/core/src/log.c.obj
                0x0000000020003354                g_log_dbg_lvl
 .data.g_log_dbg_msk
                0x0000000020003358        0x4 CMakeFiles/light_switch_provisioner_nrf52832_xxAA_s132_6.0.0.dir/__/__/__/mesh/core/src/log.c.obj
                0x0000000020003358                g_log_dbg_msk
 .data.g_log_hex_digits
                0x000000002000335c        0x4 CMakeFiles/light_switch_provisioner_nrf52832_xxAA_s132_6.0.0.dir/__/__/__/mesh/core/src/log.c.obj
                0x000000002000335c                g_log_hex_digits
 .data.m_log_callback
                0x0000000020003360        0x4 CMakeFiles/light_switch_provisioner_nrf52832_xxAA_s132_6.0.0.dir/__/__/__/mesh/core/src/log.c.obj
                0x0000000020003360                m_log_callback
 .data.m_config_server_handle
                0x0000000020003364        0x2 CMakeFiles/light_switch_provisioner_nrf52832_xxAA_s132_6.0.0.dir/__/__/__/models/config/src/config_server.c.obj
 *fill*         0x0000000020003366        0x2 
 .data.m_mesh_evt_handler
                0x0000000020003368        0x8 CMakeFiles/light_switch_provisioner_nrf52832_xxAA_s132_6.0.0.dir/__/__/__/models/config/src/config_server.c.obj
 .data.flash_add_mem_available_struct.10545
                0x0000000020003370       0x10 CMakeFiles/light_switch_provisioner_nrf52832_xxAA_s132_6.0.0.dir/__/__/__/mesh/access/src/access.c.obj
 .data.flash_clear_mem_available_struct.10634
                0x0000000020003380       0x10 CMakeFiles/light_switch_provisioner_nrf52832_xxAA_s132_6.0.0.dir/__/__/__/mesh/access/src/access.c.obj
 .data.flash_store_mem_available_struct.10658
                0x0000000020003390       0x10 CMakeFiles/light_switch_provisioner_nrf52832_xxAA_s132_6.0.0.dir/__/__/__/mesh/access/src/access.c.obj
 .data.m_default_ttl
                0x00000000200033a0        0x1 CMakeFiles/light_switch_provisioner_nrf52832_xxAA_s132_6.0.0.dir/__/__/__/mesh/access/src/access.c.obj
 *fill*         0x00000000200033a1        0x3 
 .data.mem_listener.10834
                0x00000000200033a4       0x10 CMakeFiles/light_switch_provisioner_nrf52832_xxAA_s132_6.0.0.dir/__/__/__/mesh/access/src/device_state_manager.c.obj
 .data.mem_listener.10860
                0x00000000200033b4       0x10 CMakeFiles/light_switch_provisioner_nrf52832_xxAA_s132_6.0.0.dir/__/__/__/mesh/access/src/device_state_manager.c.obj
 .data.m_async_process_flag
                0x00000000200033c4        0x4 CMakeFiles/light_switch_provisioner_nrf52832_xxAA_s132_6.0.0.dir/__/__/__/mesh/prov/src/prov_bearer_adv.c.obj
 .data.SystemCoreClock
                0x00000000200033c8        0x4 CMakeFiles/light_switch_provisioner_nrf52832_xxAA_s132_6.0.0.dir/home/mazzer/work/nordic/sdk/nRF5_SDK_15.0.0/modules/nrfx/mdk/system_nrf52.c.obj
                0x00000000200033c8                SystemCoreClock
 .data.g_rng_function
                0x00000000200033cc        0x4 ../../../external/micro-ecc/libuECC_nrf52832_xxAA.a(uECC.c.obj)
 .data._impure_ptr
                0x00000000200033d0        0x4 /usr/bin/../lib/gcc/arm-none-eabi/7.2.1/../../../../arm-none-eabi/lib/thumb/v7e-m/fpv4-sp/hard/libg_nano.a(lib_a-impure.o)
                0x00000000200033d0                _impure_ptr
 .data.impure_data
                0x00000000200033d4       0x60 /usr/bin/../lib/gcc/arm-none-eabi/7.2.1/../../../../arm-none-eabi/lib/thumb/v7e-m/fpv4-sp/hard/libg_nano.a(lib_a-impure.o)
                0x0000000020003434                . = ALIGN (0x4)
                0x0000000020003434                PROVIDE (__preinit_array_start, .)
 *(.preinit_array)
                0x0000000020003434                PROVIDE (__preinit_array_end, .)
                0x0000000020003434                . = ALIGN (0x4)
                0x0000000020003434                PROVIDE (__init_array_start, .)
 *(SORT_BY_NAME(.init_array.*))
 *(.init_array)
 .init_array    0x0000000020003434        0x4 /usr/bin/../lib/gcc/arm-none-eabi/7.2.1/thumb/v7e-m/fpv4-sp/hard/crtbegin.o
                0x0000000020003438                PROVIDE (__init_array_end, .)
                0x0000000020003438                . = ALIGN (0x4)
                [!provide]                        PROVIDE (__fini_array_start, .)
 *(SORT_BY_NAME(.fini_array.*))
 *(.fini_array)
 .fini_array    0x0000000020003438        0x4 /usr/bin/../lib/gcc/arm-none-eabi/7.2.1/thumb/v7e-m/fpv4-sp/hard/crtbegin.o
                [!provide]                        PROVIDE (__fini_array_end, .)
 *(.jcr*)
                0x000000002000343c                . = ALIGN (0x4)
                0x000000002000343c                __data_end__ = .
LOAD /usr/bin/../lib/gcc/arm-none-eabi/7.2.1/thumb/v7e-m/fpv4-sp/hard/crti.o
LOAD /usr/bin/../lib/gcc/arm-none-eabi/7.2.1/thumb/v7e-m/fpv4-sp/hard/crtbegin.o
LOAD /usr/bin/../lib/gcc/arm-none-eabi/7.2.1/../../../../arm-none-eabi/lib/thumb/v7e-m/fpv4-sp/hard/crt0.o
LOAD CMakeFiles/light_switch_provisioner_nrf52832_xxAA_s132_6.0.0.dir/src/main.c.obj
LOAD CMakeFiles/light_switch_provisioner_nrf52832_xxAA_s132_6.0.0.dir/__/__/__/mesh/stack/src/mesh_stack.c.obj
LOAD CMakeFiles/light_switch_provisioner_nrf52832_xxAA_s132_6.0.0.dir/src/provisioner_helper.c.obj
LOAD CMakeFiles/light_switch_provisioner_nrf52832_xxAA_s132_6.0.0.dir/src/node_setup.c.obj
LOAD CMakeFiles/light_switch_provisioner_nrf52832_xxAA_s132_6.0.0.dir/__/__/common/src/mesh_softdevice_init.c.obj
LOAD CMakeFiles/light_switch_provisioner_nrf52832_xxAA_s132_6.0.0.dir/__/__/common/src/rtt_input.c.obj
LOAD CMakeFiles/light_switch_provisioner_nrf52832_xxAA_s132_6.0.0.dir/__/__/common/src/simple_hal.c.obj
LOAD CMakeFiles/light_switch_provisioner_nrf52832_xxAA_s132_6.0.0.dir/__/__/nrf_mesh_weak.c.obj
LOAD CMakeFiles/light_switch_provisioner_nrf52832_xxAA_s132_6.0.0.dir/__/__/common/src/app_error_weak.c.obj
LOAD CMakeFiles/light_switch_provisioner_nrf52832_xxAA_s132_6.0.0.dir/__/__/common/src/assertion_handler_weak.c.obj
LOAD CMakeFiles/light_switch_provisioner_nrf52832_xxAA_s132_6.0.0.dir/__/__/__/mesh/core/src/internal_event.c.obj
LOAD CMakeFiles/light_switch_provisioner_nrf52832_xxAA_s132_6.0.0.dir/__/__/__/mesh/core/src/nrf_mesh_configure.c.obj
LOAD CMakeFiles/light_switch_provisioner_nrf52832_xxAA_s132_6.0.0.dir/__/__/__/mesh/core/src/aes.c.obj
LOAD CMakeFiles/light_switch_provisioner_nrf52832_xxAA_s132_6.0.0.dir/__/__/__/mesh/core/src/msg_cache.c.obj
LOAD CMakeFiles/light_switch_provisioner_nrf52832_xxAA_s132_6.0.0.dir/__/__/__/mesh/core/src/transport.c.obj
LOAD CMakeFiles/light_switch_provisioner_nrf52832_xxAA_s132_6.0.0.dir/__/__/__/mesh/core/src/event.c.obj
LOAD CMakeFiles/light_switch_provisioner_nrf52832_xxAA_s132_6.0.0.dir/__/__/__/mesh/core/src/packet_buffer.c.obj
LOAD CMakeFiles/light_switch_provisioner_nrf52832_xxAA_s132_6.0.0.dir/__/__/__/mesh/core/src/flash_manager_defrag.c.obj
LOAD CMakeFiles/light_switch_provisioner_nrf52832_xxAA_s132_6.0.0.dir/__/__/__/mesh/core/src/fifo.c.obj
LOAD CMakeFiles/light_switch_provisioner_nrf52832_xxAA_s132_6.0.0.dir/__/__/__/mesh/core/src/nrf_flash.c.obj
LOAD CMakeFiles/light_switch_provisioner_nrf52832_xxAA_s132_6.0.0.dir/__/__/__/mesh/core/src/packet_mgr.c.obj
LOAD CMakeFiles/light_switch_provisioner_nrf52832_xxAA_s132_6.0.0.dir/__/__/__/mesh/core/src/net_state.c.obj
LOAD CMakeFiles/light_switch_provisioner_nrf52832_xxAA_s132_6.0.0.dir/__/__/__/mesh/core/src/mesh_flash.c.obj
LOAD CMakeFiles/light_switch_provisioner_nrf52832_xxAA_s132_6.0.0.dir/__/__/__/mesh/core/src/nrf_mesh_utils.c.obj
LOAD CMakeFiles/light_switch_provisioner_nrf52832_xxAA_s132_6.0.0.dir/__/__/__/mesh/core/src/nrf_mesh.c.obj
LOAD CMakeFiles/light_switch_provisioner_nrf52832_xxAA_s132_6.0.0.dir/__/__/__/mesh/core/src/queue.c.obj
LOAD CMakeFiles/light_switch_provisioner_nrf52832_xxAA_s132_6.0.0.dir/__/__/__/mesh/core/src/hal.c.obj
LOAD CMakeFiles/light_switch_provisioner_nrf52832_xxAA_s132_6.0.0.dir/__/__/__/mesh/core/src/aes_cmac.c.obj
LOAD CMakeFiles/light_switch_provisioner_nrf52832_xxAA_s132_6.0.0.dir/__/__/__/mesh/core/src/timer_scheduler.c.obj
LOAD CMakeFiles/light_switch_provisioner_nrf52832_xxAA_s132_6.0.0.dir/__/__/__/mesh/core/src/timer.c.obj
LOAD CMakeFiles/light_switch_provisioner_nrf52832_xxAA_s132_6.0.0.dir/__/__/__/mesh/core/src/ticker.c.obj
LOAD CMakeFiles/light_switch_provisioner_nrf52832_xxAA_s132_6.0.0.dir/__/__/__/mesh/core/src/rand.c.obj
LOAD CMakeFiles/light_switch_provisioner_nrf52832_xxAA_s132_6.0.0.dir/__/__/__/mesh/core/src/nrf_mesh_opt.c.obj
LOAD CMakeFiles/light_switch_provisioner_nrf52832_xxAA_s132_6.0.0.dir/__/__/__/mesh/core/src/timeslot.c.obj
LOAD CMakeFiles/light_switch_provisioner_nrf52832_xxAA_s132_6.0.0.dir/__/__/__/mesh/core/src/bearer_event.c.obj
LOAD CMakeFiles/light_switch_provisioner_nrf52832_xxAA_s132_6.0.0.dir/__/__/__/mesh/core/src/enc.c.obj
LOAD CMakeFiles/light_switch_provisioner_nrf52832_xxAA_s132_6.0.0.dir/__/__/__/mesh/core/src/network.c.obj
LOAD CMakeFiles/light_switch_provisioner_nrf52832_xxAA_s132_6.0.0.dir/__/__/__/mesh/core/src/net_packet.c.obj
LOAD CMakeFiles/light_switch_provisioner_nrf52832_xxAA_s132_6.0.0.dir/__/__/__/mesh/core/src/msqueue.c.obj
LOAD CMakeFiles/light_switch_provisioner_nrf52832_xxAA_s132_6.0.0.dir/__/__/__/mesh/core/src/nrf_mesh_keygen.c.obj
LOAD CMakeFiles/light_switch_provisioner_nrf52832_xxAA_s132_6.0.0.dir/__/__/__/mesh/core/src/cache.c.obj
LOAD CMakeFiles/light_switch_provisioner_nrf52832_xxAA_s132_6.0.0.dir/__/__/__/mesh/core/src/uri.c.obj
LOAD CMakeFiles/light_switch_provisioner_nrf52832_xxAA_s132_6.0.0.dir/__/__/__/mesh/core/src/list.c.obj
LOAD CMakeFiles/light_switch_provisioner_nrf52832_xxAA_s132_6.0.0.dir/__/__/__/mesh/core/src/log.c.obj
LOAD CMakeFiles/light_switch_provisioner_nrf52832_xxAA_s132_6.0.0.dir/__/__/__/mesh/core/src/flash_manager.c.obj
LOAD CMakeFiles/light_switch_provisioner_nrf52832_xxAA_s132_6.0.0.dir/__/__/__/mesh/core/src/ccm_soft.c.obj
LOAD CMakeFiles/light_switch_provisioner_nrf52832_xxAA_s132_6.0.0.dir/__/__/__/mesh/core/src/toolchain.c.obj
LOAD CMakeFiles/light_switch_provisioner_nrf52832_xxAA_s132_6.0.0.dir/__/__/__/mesh/core/src/replay_cache.c.obj
LOAD CMakeFiles/light_switch_provisioner_nrf52832_xxAA_s132_6.0.0.dir/__/__/__/mesh/core/src/beacon.c.obj
LOAD CMakeFiles/light_switch_provisioner_nrf52832_xxAA_s132_6.0.0.dir/__/__/__/mesh/core/src/flash_manager_internal.c.obj
LOAD CMakeFiles/light_switch_provisioner_nrf52832_xxAA_s132_6.0.0.dir/__/__/__/mesh/core/src/core_tx.c.obj
LOAD CMakeFiles/light_switch_provisioner_nrf52832_xxAA_s132_6.0.0.dir/__/__/__/mesh/core/src/heartbeat.c.obj
LOAD CMakeFiles/light_switch_provisioner_nrf52832_xxAA_s132_6.0.0.dir/__/__/__/mesh/core/src/net_beacon.c.obj
LOAD CMakeFiles/light_switch_provisioner_nrf52832_xxAA_s132_6.0.0.dir/__/__/__/mesh/core/src/fsm.c.obj
LOAD CMakeFiles/light_switch_provisioner_nrf52832_xxAA_s132_6.0.0.dir/__/__/__/mesh/core/src/core_tx_adv.c.obj
LOAD CMakeFiles/light_switch_provisioner_nrf52832_xxAA_s132_6.0.0.dir/__/__/__/mesh/bearer/src/ad_listener.c.obj
LOAD CMakeFiles/light_switch_provisioner_nrf52832_xxAA_s132_6.0.0.dir/__/__/__/mesh/bearer/src/ad_type_filter.c.obj
LOAD CMakeFiles/light_switch_provisioner_nrf52832_xxAA_s132_6.0.0.dir/__/__/__/mesh/bearer/src/adv_packet_filter.c.obj
LOAD CMakeFiles/light_switch_provisioner_nrf52832_xxAA_s132_6.0.0.dir/__/__/__/mesh/bearer/src/advertiser.c.obj
LOAD CMakeFiles/light_switch_provisioner_nrf52832_xxAA_s132_6.0.0.dir/__/__/__/mesh/bearer/src/bearer_handler.c.obj
LOAD CMakeFiles/light_switch_provisioner_nrf52832_xxAA_s132_6.0.0.dir/__/__/__/mesh/bearer/src/broadcast.c.obj
LOAD CMakeFiles/light_switch_provisioner_nrf52832_xxAA_s132_6.0.0.dir/__/__/__/mesh/bearer/src/filter_engine.c.obj
LOAD CMakeFiles/light_switch_provisioner_nrf52832_xxAA_s132_6.0.0.dir/__/__/__/mesh/bearer/src/gap_address_filter.c.obj
LOAD CMakeFiles/light_switch_provisioner_nrf52832_xxAA_s132_6.0.0.dir/__/__/__/mesh/bearer/src/radio_config.c.obj
LOAD CMakeFiles/light_switch_provisioner_nrf52832_xxAA_s132_6.0.0.dir/__/__/__/mesh/bearer/src/rssi_filter.c.obj
LOAD CMakeFiles/light_switch_provisioner_nrf52832_xxAA_s132_6.0.0.dir/__/__/__/mesh/bearer/src/scanner.c.obj
LOAD CMakeFiles/light_switch_provisioner_nrf52832_xxAA_s132_6.0.0.dir/__/__/__/models/simple_on_off/src/simple_on_off_client.c.obj
LOAD CMakeFiles/light_switch_provisioner_nrf52832_xxAA_s132_6.0.0.dir/__/__/__/models/config/src/config_client.c.obj
LOAD CMakeFiles/light_switch_provisioner_nrf52832_xxAA_s132_6.0.0.dir/__/__/__/models/config/src/composition_data.c.obj
LOAD CMakeFiles/light_switch_provisioner_nrf52832_xxAA_s132_6.0.0.dir/__/__/__/models/config/src/config_server.c.obj
LOAD CMakeFiles/light_switch_provisioner_nrf52832_xxAA_s132_6.0.0.dir/__/__/__/models/config/src/packed_index_list.c.obj
LOAD CMakeFiles/light_switch_provisioner_nrf52832_xxAA_s132_6.0.0.dir/__/__/__/models/health/src/health_server.c.obj
LOAD CMakeFiles/light_switch_provisioner_nrf52832_xxAA_s132_6.0.0.dir/__/__/__/models/health/src/health_client.c.obj
LOAD CMakeFiles/light_switch_provisioner_nrf52832_xxAA_s132_6.0.0.dir/__/__/__/mesh/access/src/access_publish.c.obj
LOAD CMakeFiles/light_switch_provisioner_nrf52832_xxAA_s132_6.0.0.dir/__/__/__/mesh/access/src/access.c.obj
LOAD CMakeFiles/light_switch_provisioner_nrf52832_xxAA_s132_6.0.0.dir/__/__/__/mesh/access/src/access_reliable.c.obj
LOAD CMakeFiles/light_switch_provisioner_nrf52832_xxAA_s132_6.0.0.dir/__/__/__/mesh/access/src/device_state_manager.c.obj
LOAD CMakeFiles/light_switch_provisioner_nrf52832_xxAA_s132_6.0.0.dir/__/__/__/mesh/prov/src/prov_provisioner.c.obj
LOAD CMakeFiles/light_switch_provisioner_nrf52832_xxAA_s132_6.0.0.dir/__/__/__/mesh/prov/src/nrf_mesh_prov.c.obj
LOAD CMakeFiles/light_switch_provisioner_nrf52832_xxAA_s132_6.0.0.dir/__/__/__/mesh/prov/src/provisioning.c.obj
LOAD CMakeFiles/light_switch_provisioner_nrf52832_xxAA_s132_6.0.0.dir/__/__/__/mesh/prov/src/prov_beacon.c.obj
LOAD CMakeFiles/light_switch_provisioner_nrf52832_xxAA_s132_6.0.0.dir/__/__/__/mesh/prov/src/prov_utils.c.obj
LOAD CMakeFiles/light_switch_provisioner_nrf52832_xxAA_s132_6.0.0.dir/__/__/__/mesh/prov/src/prov_bearer_adv.c.obj
LOAD CMakeFiles/light_switch_provisioner_nrf52832_xxAA_s132_6.0.0.dir/home/mazzer/work/nordic/sdk/nRF5_SDK_15.0.0/modules/nrfx/mdk/system_nrf52.c.obj
LOAD CMakeFiles/light_switch_provisioner_nrf52832_xxAA_s132_6.0.0.dir/home/mazzer/work/nordic/sdk/nRF5_SDK_15.0.0/modules/nrfx/mdk/gcc_startup_nrf52.S.obj
LOAD CMakeFiles/light_switch_provisioner_nrf52832_xxAA_s132_6.0.0.dir/home/mazzer/work/nordic/sdk/nRF5_SDK_15.0.0/components/libraries/util/app_error.c.obj
LOAD CMakeFiles/light_switch_provisioner_nrf52832_xxAA_s132_6.0.0.dir/home/mazzer/work/nordic/sdk/nRF5_SDK_15.0.0/components/libraries/util/app_error_handler_gcc.c.obj
LOAD ../../../external/rtt/librtt_nrf52832_xxAA.a
LOAD ../../../external/micro-ecc/libuECC_nrf52832_xxAA.a
START GROUP
LOAD /usr/bin/../lib/gcc/arm-none-eabi/7.2.1/thumb/v7e-m/fpv4-sp/hard/libgcc.a
LOAD /usr/bin/../lib/gcc/arm-none-eabi/7.2.1/../../../../arm-none-eabi/lib/thumb/v7e-m/fpv4-sp/hard/libg_nano.a
LOAD /usr/bin/../lib/gcc/arm-none-eabi/7.2.1/../../../../arm-none-eabi/lib/thumb/v7e-m/fpv4-sp/hard/libc_nano.a
END GROUP
START GROUP
LOAD /usr/bin/../lib/gcc/arm-none-eabi/7.2.1/thumb/v7e-m/fpv4-sp/hard/libgcc.a
LOAD /usr/bin/../lib/gcc/arm-none-eabi/7.2.1/../../../../arm-none-eabi/lib/thumb/v7e-m/fpv4-sp/hard/libc_nano.a
END GROUP
LOAD /usr/bin/../lib/gcc/arm-none-eabi/7.2.1/thumb/v7e-m/fpv4-sp/hard/crtend.o
LOAD /usr/bin/../lib/gcc/arm-none-eabi/7.2.1/thumb/v7e-m/fpv4-sp/hard/crtn.o
START GROUP
LOAD /usr/bin/../lib/gcc/arm-none-eabi/7.2.1/thumb/v7e-m/fpv4-sp/hard/libgcc.a
LOAD /usr/bin/../lib/gcc/arm-none-eabi/7.2.1/../../../../arm-none-eabi/lib/thumb/v7e-m/fpv4-sp/hard/libc.a
LOAD /usr/bin/../lib/gcc/arm-none-eabi/7.2.1/../../../../arm-none-eabi/lib/thumb/v7e-m/fpv4-sp/hard/libnosys.a
END GROUP

.igot.plt       0x000000002000343c        0x0 load address 0x00000000000474d4
 .igot.plt      0x000000002000343c        0x0 /usr/bin/../lib/gcc/arm-none-eabi/7.2.1/thumb/v7e-m/fpv4-sp/hard/crtbegin.o
                0x000000002000343c                . = ALIGN (0x4)

.svc_data       0x000000002000343c        0x0
                [!provide]                        PROVIDE (__start_svc_data, .)
 *(.svc_data)
                [!provide]                        PROVIDE (__stop_svc_data, .)

.fs_data        0x000000002000343c        0x0
                [!provide]                        PROVIDE (__start_fs_data, .)
 *(.fs_data)
                [!provide]                        PROVIDE (__stop_fs_data, .)

.log_dynamic_data
                0x000000002000343c        0x0
                [!provide]                        PROVIDE (__start_log_dynamic_data, .)
 *(.log_dynamic_data)
                [!provide]                        PROVIDE (__stop_log_dynamic_data, .)

.cli_sorted_cmd_ptrs
                0x000000002000343c        0x0
                [!provide]                        PROVIDE (__start_cli_sorted_cmd_ptrs, .)
 *(.cli_sorted_cmd_ptrs)
                [!provide]                        PROVIDE (__stop_cli_sorted_cmd_ptrs, .)

.bss            0x0000000020003440     0x3588 load address 0x00000000000474d8
                0x0000000020003440                . = ALIGN (0x4)
                0x0000000020003440                __bss_start__ = .
 *(.bss*)
 .bss           0x0000000020003440       0x1c /usr/bin/../lib/gcc/arm-none-eabi/7.2.1/thumb/v7e-m/fpv4-sp/hard/crtbegin.o
 .bss.m_dev_handles
                0x000000002000345c       0x1c CMakeFiles/light_switch_provisioner_nrf52832_xxAA_s132_6.0.0.dir/src/main.c.obj
 .bss.m_exp_uuid
                0x0000000020003478        0x8 CMakeFiles/light_switch_provisioner_nrf52832_xxAA_s132_6.0.0.dir/src/main.c.obj
 .bss.m_flash_manager
                0x0000000020003480       0x24 CMakeFiles/light_switch_provisioner_nrf52832_xxAA_s132_6.0.0.dir/src/main.c.obj
 .bss.m_node_prov_setup_started
                0x00000000200034a4        0x1 CMakeFiles/light_switch_provisioner_nrf52832_xxAA_s132_6.0.0.dir/src/main.c.obj
 *fill*         0x00000000200034a5        0x3 
 .bss.m_nw_state
                0x00000000200034a8       0x38 CMakeFiles/light_switch_provisioner_nrf52832_xxAA_s132_6.0.0.dir/src/main.c.obj
 .bss.s_app_started.13409
                0x00000000200034e0        0x1 CMakeFiles/light_switch_provisioner_nrf52832_xxAA_s132_6.0.0.dir/src/main.c.obj
 *fill*         0x00000000200034e1        0x3 
 .bss.m_health_server
                0x00000000200034e4       0x5c CMakeFiles/light_switch_provisioner_nrf52832_xxAA_s132_6.0.0.dir/__/__/__/mesh/stack/src/mesh_stack.c.obj
 .bss.m_init_params
                0x0000000020003540       0x24 CMakeFiles/light_switch_provisioner_nrf52832_xxAA_s132_6.0.0.dir/__/__/__/mesh/stack/src/mesh_stack.c.obj
 .bss.addr_handle.12243
                0x0000000020003564        0x2 CMakeFiles/light_switch_provisioner_nrf52832_xxAA_s132_6.0.0.dir/src/provisioner_helper.c.obj
 .bss.devkey_handle.12244
                0x0000000020003566        0x2 CMakeFiles/light_switch_provisioner_nrf52832_xxAA_s132_6.0.0.dir/src/provisioner_helper.c.obj
 .bss.m_private_key
                0x0000000020003568       0x20 CMakeFiles/light_switch_provisioner_nrf52832_xxAA_s132_6.0.0.dir/src/provisioner_helper.c.obj
 .bss.m_prov_bearer_adv
                0x0000000020003588      0x1c4 CMakeFiles/light_switch_provisioner_nrf52832_xxAA_s132_6.0.0.dir/src/provisioner_helper.c.obj
 .bss.m_prov_ctx
                0x000000002000374c      0x134 CMakeFiles/light_switch_provisioner_nrf52832_xxAA_s132_6.0.0.dir/src/provisioner_helper.c.obj
 .bss.m_prov_state
                0x0000000020003880        0x1 CMakeFiles/light_switch_provisioner_nrf52832_xxAA_s132_6.0.0.dir/src/provisioner_helper.c.obj
 *fill*         0x0000000020003881        0x3 
 .bss.m_provisioner
                0x0000000020003884       0x18 CMakeFiles/light_switch_provisioner_nrf52832_xxAA_s132_6.0.0.dir/src/provisioner_helper.c.obj
 .bss.m_provisioner_init_done
                0x000000002000389c        0x1 CMakeFiles/light_switch_provisioner_nrf52832_xxAA_s132_6.0.0.dir/src/provisioner_helper.c.obj
 *fill*         0x000000002000389d        0x3 
 .bss.m_public_key
                0x00000000200038a0       0x40 CMakeFiles/light_switch_provisioner_nrf52832_xxAA_s132_6.0.0.dir/src/provisioner_helper.c.obj
 .bss.m_retry_cnt
                0x00000000200038e0        0x1 CMakeFiles/light_switch_provisioner_nrf52832_xxAA_s132_6.0.0.dir/src/provisioner_helper.c.obj
 *fill*         0x00000000200038e1        0x1 
 .bss.m_target_address
                0x00000000200038e2        0x2 CMakeFiles/light_switch_provisioner_nrf52832_xxAA_s132_6.0.0.dir/src/provisioner_helper.c.obj
 .bss.m_target_elements
                0x00000000200038e4        0x2 CMakeFiles/light_switch_provisioner_nrf52832_xxAA_s132_6.0.0.dir/src/provisioner_helper.c.obj
 *fill*         0x00000000200038e6        0x2 
 .bss.mp_expected_uuid
                0x00000000200038e8        0x4 CMakeFiles/light_switch_provisioner_nrf52832_xxAA_s132_6.0.0.dir/src/provisioner_helper.c.obj
 .bss.m_appkey_idx
                0x00000000200038ec        0x2 CMakeFiles/light_switch_provisioner_nrf52832_xxAA_s132_6.0.0.dir/src/node_setup.c.obj
 .bss.m_current_node_addr
                0x00000000200038ee        0x2 CMakeFiles/light_switch_provisioner_nrf52832_xxAA_s132_6.0.0.dir/src/node_setup.c.obj
 .bss.m_expected_status_list
                0x00000000200038f0        0x8 CMakeFiles/light_switch_provisioner_nrf52832_xxAA_s132_6.0.0.dir/src/node_setup.c.obj
 .bss.m_node_composition
                0x00000000200038f8      0x180 CMakeFiles/light_switch_provisioner_nrf52832_xxAA_s132_6.0.0.dir/src/node_setup.c.obj
 .bss.m_node_setup_failed_cb
                0x0000000020003a78        0x4 CMakeFiles/light_switch_provisioner_nrf52832_xxAA_s132_6.0.0.dir/src/node_setup.c.obj
 .bss.m_node_setup_success_cb
                0x0000000020003a7c        0x4 CMakeFiles/light_switch_provisioner_nrf52832_xxAA_s132_6.0.0.dir/src/node_setup.c.obj
 .bss.m_retry_count
                0x0000000020003a80        0x2 CMakeFiles/light_switch_provisioner_nrf52832_xxAA_s132_6.0.0.dir/src/node_setup.c.obj
 *fill*         0x0000000020003a82        0x2 
 .bss.m_send_timer
                0x0000000020003a84       0x1c CMakeFiles/light_switch_provisioner_nrf52832_xxAA_s132_6.0.0.dir/src/node_setup.c.obj
 .bss.m_status_checked
                0x0000000020003aa0        0x1 CMakeFiles/light_switch_provisioner_nrf52832_xxAA_s132_6.0.0.dir/src/node_setup.c.obj
 *fill*         0x0000000020003aa1        0x1 
 .bss.model_element_addr.11452
                0x0000000020003aa2        0x2 CMakeFiles/light_switch_provisioner_nrf52832_xxAA_s132_6.0.0.dir/src/node_setup.c.obj
 .bss.mp_appkey
                0x0000000020003aa4        0x4 CMakeFiles/light_switch_provisioner_nrf52832_xxAA_s132_6.0.0.dir/src/node_setup.c.obj
 .bss.m_rtt_input_handler
                0x0000000020003aa8        0x4 CMakeFiles/light_switch_provisioner_nrf52832_xxAA_s132_6.0.0.dir/__/__/common/src/rtt_input.c.obj
 .bss.m_button_handler_cb
                0x0000000020003aac        0x4 CMakeFiles/light_switch_provisioner_nrf52832_xxAA_s132_6.0.0.dir/__/__/common/src/simple_hal.c.obj
 .bss.m_last_button_press
                0x0000000020003ab0        0x4 CMakeFiles/light_switch_provisioner_nrf52832_xxAA_s132_6.0.0.dir/__/__/common/src/simple_hal.c.obj
 .bss.m_uuid    0x0000000020003ab4       0x10 CMakeFiles/light_switch_provisioner_nrf52832_xxAA_s132_6.0.0.dir/__/__/__/mesh/core/src/nrf_mesh_configure.c.obj
 .bss.m_msg_cache
                0x0000000020003ac4      0x100 CMakeFiles/light_switch_provisioner_nrf52832_xxAA_s132_6.0.0.dir/__/__/__/mesh/core/src/msg_cache.c.obj
 .bss.m_msg_cache_head
                0x0000000020003bc4        0x4 CMakeFiles/light_switch_provisioner_nrf52832_xxAA_s132_6.0.0.dir/__/__/__/mesh/core/src/msg_cache.c.obj
 .bss.m_control_packet_consumer_count
                0x0000000020003bc8        0x4 CMakeFiles/light_switch_provisioner_nrf52832_xxAA_s132_6.0.0.dir/__/__/__/mesh/core/src/transport.c.obj
 .bss.m_control_packet_consumers
                0x0000000020003bcc        0x8 CMakeFiles/light_switch_provisioner_nrf52832_xxAA_s132_6.0.0.dir/__/__/__/mesh/core/src/transport.c.obj
 .bss.m_sar_alloc
                0x0000000020003bd4        0x4 CMakeFiles/light_switch_provisioner_nrf52832_xxAA_s132_6.0.0.dir/__/__/__/mesh/core/src/transport.c.obj
 .bss.m_sar_process_flag
                0x0000000020003bd8        0x4 CMakeFiles/light_switch_provisioner_nrf52832_xxAA_s132_6.0.0.dir/__/__/__/mesh/core/src/transport.c.obj
 .bss.m_sar_release
                0x0000000020003bdc        0x4 CMakeFiles/light_switch_provisioner_nrf52832_xxAA_s132_6.0.0.dir/__/__/__/mesh/core/src/transport.c.obj
 .bss.m_sar_session_cache
                0x0000000020003be0       0x40 CMakeFiles/light_switch_provisioner_nrf52832_xxAA_s132_6.0.0.dir/__/__/__/mesh/core/src/transport.c.obj
 .bss.m_sar_session_cache_head
                0x0000000020003c20        0x4 CMakeFiles/light_switch_provisioner_nrf52832_xxAA_s132_6.0.0.dir/__/__/__/mesh/core/src/transport.c.obj
 .bss.m_trs_config
                0x0000000020003c24       0x18 CMakeFiles/light_switch_provisioner_nrf52832_xxAA_s132_6.0.0.dir/__/__/__/mesh/core/src/transport.c.obj
 .bss.m_trs_sar_sessions
                0x0000000020003c3c      0x1b0 CMakeFiles/light_switch_provisioner_nrf52832_xxAA_s132_6.0.0.dir/__/__/__/mesh/core/src/transport.c.obj
 .bss.mp_evt_handlers_head
                0x0000000020003dec        0x4 CMakeFiles/light_switch_provisioner_nrf52832_xxAA_s132_6.0.0.dir/__/__/__/mesh/core/src/event.c.obj
 .bss.m_defrag  0x0000000020003df0       0x1c CMakeFiles/light_switch_provisioner_nrf52832_xxAA_s132_6.0.0.dir/__/__/__/mesh/core/src/flash_manager_defrag.c.obj
 .bss.m_token   0x0000000020003e0c        0x2 CMakeFiles/light_switch_provisioner_nrf52832_xxAA_s132_6.0.0.dir/__/__/__/mesh/core/src/flash_manager_defrag.c.obj
 *fill*         0x0000000020003e0e        0x2 
 .bss.mp_recovery_area
                0x0000000020003e10        0x4 CMakeFiles/light_switch_provisioner_nrf52832_xxAA_s132_6.0.0.dir/__/__/__/mesh/core/src/flash_manager_defrag.c.obj
 .bss.p_null_ptr.10402
                0x0000000020003e14        0x4 CMakeFiles/light_switch_provisioner_nrf52832_xxAA_s132_6.0.0.dir/__/__/__/mesh/core/src/flash_manager_defrag.c.obj
 .bss.m_pool    0x0000000020003e18     0x1000 CMakeFiles/light_switch_provisioner_nrf52832_xxAA_s132_6.0.0.dir/__/__/__/mesh/core/src/packet_mgr.c.obj
 .bss.mp_free_head
                0x0000000020004e18        0x4 CMakeFiles/light_switch_provisioner_nrf52832_xxAA_s132_6.0.0.dir/__/__/__/mesh/core/src/packet_mgr.c.obj
 .bss.lock_count.10033
                0x0000000020004e1c        0x4 CMakeFiles/light_switch_provisioner_nrf52832_xxAA_s132_6.0.0.dir/__/__/__/mesh/core/src/net_state.c.obj
 .bss.m_flash_manager
                0x0000000020004e20       0x24 CMakeFiles/light_switch_provisioner_nrf52832_xxAA_s132_6.0.0.dir/__/__/__/mesh/core/src/net_state.c.obj
 .bss.m_iv_update_timer
                0x0000000020004e44       0x18 CMakeFiles/light_switch_provisioner_nrf52832_xxAA_s132_6.0.0.dir/__/__/__/mesh/core/src/net_state.c.obj
 .bss.m_mesh_evt_handler
                0x0000000020004e5c        0x8 CMakeFiles/light_switch_provisioner_nrf52832_xxAA_s132_6.0.0.dir/__/__/__/mesh/core/src/net_state.c.obj
 .bss.m_net_state
                0x0000000020004e64       0x14 CMakeFiles/light_switch_provisioner_nrf52832_xxAA_s132_6.0.0.dir/__/__/__/mesh/core/src/net_state.c.obj
 .bss.m_seqnum_allocation_in_progress
                0x0000000020004e78        0x1 CMakeFiles/light_switch_provisioner_nrf52832_xxAA_s132_6.0.0.dir/__/__/__/mesh/core/src/net_state.c.obj
 .bss.m_test_mode
                0x0000000020004e79        0x1 CMakeFiles/light_switch_provisioner_nrf52832_xxAA_s132_6.0.0.dir/__/__/__/mesh/core/src/net_state.c.obj
 *fill*         0x0000000020004e7a        0x2 
 .bss.m_event_flag
                0x0000000020004e7c        0x4 CMakeFiles/light_switch_provisioner_nrf52832_xxAA_s132_6.0.0.dir/__/__/__/mesh/core/src/mesh_flash.c.obj
 .bss.m_suspended
                0x0000000020004e80        0x1 CMakeFiles/light_switch_provisioner_nrf52832_xxAA_s132_6.0.0.dir/__/__/__/mesh/core/src/mesh_flash.c.obj
 *fill*         0x0000000020004e81        0x3 
 .bss.m_users   0x0000000020004e84      0x228 CMakeFiles/light_switch_provisioner_nrf52832_xxAA_s132_6.0.0.dir/__/__/__/mesh/core/src/mesh_flash.c.obj
 .bss.m_is_enabled
                0x00000000200050ac        0x1 CMakeFiles/light_switch_provisioner_nrf52832_xxAA_s132_6.0.0.dir/__/__/__/mesh/core/src/nrf_mesh.c.obj
 .bss.m_is_initialized
                0x00000000200050ad        0x1 CMakeFiles/light_switch_provisioner_nrf52832_xxAA_s132_6.0.0.dir/__/__/__/mesh/core/src/nrf_mesh.c.obj
 *fill*         0x00000000200050ae        0x2 
 .bss.m_rx_cb   0x00000000200050b0        0x4 CMakeFiles/light_switch_provisioner_nrf52832_xxAA_s132_6.0.0.dir/__/__/__/mesh/core/src/nrf_mesh.c.obj
 .bss.m_128buf  0x00000000200050b4       0x10 CMakeFiles/light_switch_provisioner_nrf52832_xxAA_s132_6.0.0.dir/__/__/__/mesh/core/src/aes_cmac.c.obj
 .bss.m_subkey1
                0x00000000200050c4       0x10 CMakeFiles/light_switch_provisioner_nrf52832_xxAA_s132_6.0.0.dir/__/__/__/mesh/core/src/aes_cmac.c.obj
 .bss.m_subkey2
                0x00000000200050d4       0x10 CMakeFiles/light_switch_provisioner_nrf52832_xxAA_s132_6.0.0.dir/__/__/__/mesh/core/src/aes_cmac.c.obj
 .bss.m_event_flag
                0x00000000200050e4        0x4 CMakeFiles/light_switch_provisioner_nrf52832_xxAA_s132_6.0.0.dir/__/__/__/mesh/core/src/timer_scheduler.c.obj
 .bss.m_scheduler
                0x00000000200050e8       0x10 CMakeFiles/light_switch_provisioner_nrf52832_xxAA_s132_6.0.0.dir/__/__/__/mesh/core/src/timer_scheduler.c.obj
 .bss.m_attributes
                0x00000000200050f8        0x3 CMakeFiles/light_switch_provisioner_nrf52832_xxAA_s132_6.0.0.dir/__/__/__/mesh/core/src/timer.c.obj
 *fill*         0x00000000200050fb        0x1 
 .bss.m_callbacks
                0x00000000200050fc        0xc CMakeFiles/light_switch_provisioner_nrf52832_xxAA_s132_6.0.0.dir/__/__/__/mesh/core/src/timer.c.obj
 .bss.m_is_in_ts
                0x0000000020005108        0x1 CMakeFiles/light_switch_provisioner_nrf52832_xxAA_s132_6.0.0.dir/__/__/__/mesh/core/src/timer.c.obj
 *fill*         0x0000000020005109        0x3 
 .bss.m_reference_time
                0x000000002000510c        0x4 CMakeFiles/light_switch_provisioner_nrf52832_xxAA_s132_6.0.0.dir/__/__/__/mesh/core/src/timer.c.obj
 .bss.m_timeouts
                0x0000000020005110        0xc CMakeFiles/light_switch_provisioner_nrf52832_xxAA_s132_6.0.0.dir/__/__/__/mesh/core/src/timer.c.obj
 .bss.m_timer_mut
                0x000000002000511c        0x4 CMakeFiles/light_switch_provisioner_nrf52832_xxAA_s132_6.0.0.dir/__/__/__/mesh/core/src/timer.c.obj
 .bss.m_ts_end_time
                0x0000000020005120        0x4 CMakeFiles/light_switch_provisioner_nrf52832_xxAA_s132_6.0.0.dir/__/__/__/mesh/core/src/timer.c.obj
 .bss.mp_ppi_tasks
                0x0000000020005124        0xc CMakeFiles/light_switch_provisioner_nrf52832_xxAA_s132_6.0.0.dir/__/__/__/mesh/core/src/timer.c.obj
 .bss.m_current_time
                0x0000000020005130        0x4 CMakeFiles/light_switch_provisioner_nrf52832_xxAA_s132_6.0.0.dir/__/__/__/mesh/core/src/ticker.c.obj
 .bss.m_timer   0x0000000020005134       0x18 CMakeFiles/light_switch_provisioner_nrf52832_xxAA_s132_6.0.0.dir/__/__/__/mesh/core/src/ticker.c.obj
 .bss.m_current_timeslot
                0x000000002000514c       0x1c CMakeFiles/light_switch_provisioner_nrf52832_xxAA_s132_6.0.0.dir/__/__/__/mesh/core/src/timeslot.c.obj
 .bss.m_lfclk_ppm
                0x0000000020005168        0x4 CMakeFiles/light_switch_provisioner_nrf52832_xxAA_s132_6.0.0.dir/__/__/__/mesh/core/src/timeslot.c.obj
 .bss.m_radio_request_earliest
                0x000000002000516c       0x10 CMakeFiles/light_switch_provisioner_nrf52832_xxAA_s132_6.0.0.dir/__/__/__/mesh/core/src/timeslot.c.obj
 .bss.m_state_lock
                0x000000002000517c        0x1 CMakeFiles/light_switch_provisioner_nrf52832_xxAA_s132_6.0.0.dir/__/__/__/mesh/core/src/timeslot.c.obj
 .bss.m_timeslot_forced_command
                0x000000002000517d        0x1 CMakeFiles/light_switch_provisioner_nrf52832_xxAA_s132_6.0.0.dir/__/__/__/mesh/core/src/timeslot.c.obj
 *fill*         0x000000002000517e        0x2 
 .bss.s_last_rtc_value.9460
                0x0000000020005180        0x8 CMakeFiles/light_switch_provisioner_nrf52832_xxAA_s132_6.0.0.dir/__/__/__/mesh/core/src/timeslot.c.obj
 .bss.m_bearer_event_fifo
                0x0000000020005188       0x14 CMakeFiles/light_switch_provisioner_nrf52832_xxAA_s132_6.0.0.dir/__/__/__/mesh/core/src/bearer_event.c.obj
 .bss.m_bearer_event_fifo_buffer
                0x000000002000519c      0x100 CMakeFiles/light_switch_provisioner_nrf52832_xxAA_s132_6.0.0.dir/__/__/__/mesh/core/src/bearer_event.c.obj
 .bss.m_critical
                0x000000002000529c        0x4 CMakeFiles/light_switch_provisioner_nrf52832_xxAA_s132_6.0.0.dir/__/__/__/mesh/core/src/bearer_event.c.obj
 .bss.m_flag_count
                0x00000000200052a0        0x4 CMakeFiles/light_switch_provisioner_nrf52832_xxAA_s132_6.0.0.dir/__/__/__/mesh/core/src/bearer_event.c.obj
 .bss.m_flag_event_callbacks
                0x00000000200052a4       0x20 CMakeFiles/light_switch_provisioner_nrf52832_xxAA_s132_6.0.0.dir/__/__/__/mesh/core/src/bearer_event.c.obj
 .bss.m_flags   0x00000000200052c4        0x4 CMakeFiles/light_switch_provisioner_nrf52832_xxAA_s132_6.0.0.dir/__/__/__/mesh/core/src/bearer_event.c.obj
 .bss.m_irq_priority
                0x00000000200052c8        0x1 CMakeFiles/light_switch_provisioner_nrf52832_xxAA_s132_6.0.0.dir/__/__/__/mesh/core/src/bearer_event.c.obj
 *fill*         0x00000000200052c9        0x3 
 .bss.m_sequential_event_queue
                0x00000000200052cc        0x8 CMakeFiles/light_switch_provisioner_nrf52832_xxAA_s132_6.0.0.dir/__/__/__/mesh/core/src/bearer_event.c.obj
 .bss.s_recursion_guard.9591
                0x00000000200052d4        0x1 CMakeFiles/light_switch_provisioner_nrf52832_xxAA_s132_6.0.0.dir/__/__/__/mesh/core/src/bearer_event.c.obj
 *fill*         0x00000000200052d5        0x3 
 .bss.m_relay_check_cb
                0x00000000200052d8        0x4 CMakeFiles/light_switch_provisioner_nrf52832_xxAA_s132_6.0.0.dir/__/__/__/mesh/core/src/network.c.obj
 .bss.m_relay_enable
                0x00000000200052dc        0x1 CMakeFiles/light_switch_provisioner_nrf52832_xxAA_s132_6.0.0.dir/__/__/__/mesh/core/src/network.c.obj
 *fill*         0x00000000200052dd        0x3 
 .bss.m_action_queue
                0x00000000200052e0        0xc CMakeFiles/light_switch_provisioner_nrf52832_xxAA_s132_6.0.0.dir/__/__/__/mesh/core/src/flash_manager.c.obj
 .bss.m_action_queue_buffer
                0x00000000200052ec      0x104 CMakeFiles/light_switch_provisioner_nrf52832_xxAA_s132_6.0.0.dir/__/__/__/mesh/core/src/flash_manager.c.obj
 .bss.m_action_state
                0x00000000200053f0        0x1 CMakeFiles/light_switch_provisioner_nrf52832_xxAA_s132_6.0.0.dir/__/__/__/mesh/core/src/flash_manager.c.obj
 *fill*         0x00000000200053f1        0x3 
 .bss.m_memory_listener_queue
                0x00000000200053f4        0x8 CMakeFiles/light_switch_provisioner_nrf52832_xxAA_s132_6.0.0.dir/__/__/__/mesh/core/src/flash_manager.c.obj
 .bss.m_processing_flag
                0x00000000200053fc        0x4 CMakeFiles/light_switch_provisioner_nrf52832_xxAA_s132_6.0.0.dir/__/__/__/mesh/core/src/flash_manager.c.obj
 .bss.m_queue_empty_cb
                0x0000000020005400        0x4 CMakeFiles/light_switch_provisioner_nrf52832_xxAA_s132_6.0.0.dir/__/__/__/mesh/core/src/flash_manager.c.obj
 .bss.m_state   0x0000000020005404        0x1 CMakeFiles/light_switch_provisioner_nrf52832_xxAA_s132_6.0.0.dir/__/__/__/mesh/core/src/flash_manager.c.obj
 *fill*         0x0000000020005405        0x1 
 .bss.m_token   0x0000000020005406        0x2 CMakeFiles/light_switch_provisioner_nrf52832_xxAA_s132_6.0.0.dir/__/__/__/mesh/core/src/flash_manager.c.obj
 .bss.p_current.11346
                0x0000000020005408        0x4 CMakeFiles/light_switch_provisioner_nrf52832_xxAA_s132_6.0.0.dir/__/__/__/mesh/core/src/flash_manager.c.obj
 .bss.result.11347
                0x000000002000540c        0x1 CMakeFiles/light_switch_provisioner_nrf52832_xxAA_s132_6.0.0.dir/__/__/__/mesh/core/src/flash_manager.c.obj
 .bss.m_cache_index
                0x000000002000540d        0x1 CMakeFiles/light_switch_provisioner_nrf52832_xxAA_s132_6.0.0.dir/__/__/__/mesh/core/src/replay_cache.c.obj
 *fill*         0x000000002000540e        0x2 
 .bss.m_replay_cache
                0x0000000020005410      0x220 CMakeFiles/light_switch_provisioner_nrf52832_xxAA_s132_6.0.0.dir/__/__/__/mesh/core/src/replay_cache.c.obj
 .bss.m_bearer_count
                0x0000000020005630        0x1 CMakeFiles/light_switch_provisioner_nrf52832_xxAA_s132_6.0.0.dir/__/__/__/mesh/core/src/core_tx.c.obj
 *fill*         0x0000000020005631        0x3 
 .bss.m_tx_complete_callback
                0x0000000020005634        0x4 CMakeFiles/light_switch_provisioner_nrf52832_xxAA_s132_6.0.0.dir/__/__/__/mesh/core/src/core_tx.c.obj
 .bss.mp_bearers
                0x0000000020005638        0x4 CMakeFiles/light_switch_provisioner_nrf52832_xxAA_s132_6.0.0.dir/__/__/__/mesh/core/src/core_tx.c.obj
 .bss.m_hb_core_evt_handler
                0x000000002000563c        0x8 CMakeFiles/light_switch_provisioner_nrf52832_xxAA_s132_6.0.0.dir/__/__/__/mesh/core/src/heartbeat.c.obj
 .bss.m_hb_pending_feat_msg
                0x0000000020005644        0x1 CMakeFiles/light_switch_provisioner_nrf52832_xxAA_s132_6.0.0.dir/__/__/__/mesh/core/src/heartbeat.c.obj
 .bss.m_hb_pending_pub_msg
                0x0000000020005645        0x1 CMakeFiles/light_switch_provisioner_nrf52832_xxAA_s132_6.0.0.dir/__/__/__/mesh/core/src/heartbeat.c.obj
 .bss.m_heartbeat_init_done
                0x0000000020005646        0x1 CMakeFiles/light_switch_provisioner_nrf52832_xxAA_s132_6.0.0.dir/__/__/__/mesh/core/src/heartbeat.c.obj
 *fill*         0x0000000020005647        0x1 
 .bss.m_heartbeat_subscription
                0x0000000020005648       0x10 CMakeFiles/light_switch_provisioner_nrf52832_xxAA_s132_6.0.0.dir/__/__/__/mesh/core/src/heartbeat.c.obj
 .bss.m_publication_count_decrement_cb
                0x0000000020005658        0x4 CMakeFiles/light_switch_provisioner_nrf52832_xxAA_s132_6.0.0.dir/__/__/__/mesh/core/src/heartbeat.c.obj
 .bss.m_publication_get_cb
                0x000000002000565c        0x4 CMakeFiles/light_switch_provisioner_nrf52832_xxAA_s132_6.0.0.dir/__/__/__/mesh/core/src/heartbeat.c.obj
 .bss.m_publication_timer
                0x0000000020005660       0x1c CMakeFiles/light_switch_provisioner_nrf52832_xxAA_s132_6.0.0.dir/__/__/__/mesh/core/src/heartbeat.c.obj
 .bss.m_subscription_timer
                0x000000002000567c       0x18 CMakeFiles/light_switch_provisioner_nrf52832_xxAA_s132_6.0.0.dir/__/__/__/mesh/core/src/heartbeat.c.obj
 .bss.m_adv     0x0000000020005694       0x98 CMakeFiles/light_switch_provisioner_nrf52832_xxAA_s132_6.0.0.dir/__/__/__/mesh/core/src/net_beacon.c.obj
 .bss.m_adv_buf
                0x000000002000572c       0x34 CMakeFiles/light_switch_provisioner_nrf52832_xxAA_s132_6.0.0.dir/__/__/__/mesh/core/src/net_beacon.c.obj
 .bss.m_beacon_salt
                0x0000000020005760       0x10 CMakeFiles/light_switch_provisioner_nrf52832_xxAA_s132_6.0.0.dir/__/__/__/mesh/core/src/net_beacon.c.obj
 .bss.m_enabled
                0x0000000020005770        0x1 CMakeFiles/light_switch_provisioner_nrf52832_xxAA_s132_6.0.0.dir/__/__/__/mesh/core/src/net_beacon.c.obj
 *fill*         0x0000000020005771        0x3 
 .bss.m_tx_timer
                0x0000000020005774       0x18 CMakeFiles/light_switch_provisioner_nrf52832_xxAA_s132_6.0.0.dir/__/__/__/mesh/core/src/net_beacon.c.obj
 .bss.mp_beacon_info
                0x000000002000578c        0x4 CMakeFiles/light_switch_provisioner_nrf52832_xxAA_s132_6.0.0.dir/__/__/__/mesh/core/src/net_beacon.c.obj
 .bss.m_bearer  0x0000000020005790        0xc CMakeFiles/light_switch_provisioner_nrf52832_xxAA_s132_6.0.0.dir/__/__/__/mesh/core/src/core_tx_adv.c.obj
 .bss.m_bearer_roles
                0x000000002000579c      0x138 CMakeFiles/light_switch_provisioner_nrf52832_xxAA_s132_6.0.0.dir/__/__/__/mesh/core/src/core_tx_adv.c.obj
 .bss.m_current_alloc
                0x00000000200058d4        0x8 CMakeFiles/light_switch_provisioner_nrf52832_xxAA_s132_6.0.0.dir/__/__/__/mesh/core/src/core_tx_adv.c.obj
 .bss.m_originator_adv_packet_buffer
                0x00000000200058dc      0x100 CMakeFiles/light_switch_provisioner_nrf52832_xxAA_s132_6.0.0.dir/__/__/__/mesh/core/src/core_tx_adv.c.obj
 .bss.m_relay_adv_packet_buffer
                0x00000000200059dc       0x80 CMakeFiles/light_switch_provisioner_nrf52832_xxAA_s132_6.0.0.dir/__/__/__/mesh/core/src/core_tx_adv.c.obj
 .bss.m_subscribers
                0x0000000020005a5c        0x4 CMakeFiles/light_switch_provisioner_nrf52832_xxAA_s132_6.0.0.dir/__/__/__/mesh/bearer/src/ad_listener.c.obj
 .bss.m_adtype_filter
                0x0000000020005a60       0x38 CMakeFiles/light_switch_provisioner_nrf52832_xxAA_s132_6.0.0.dir/__/__/__/mesh/bearer/src/ad_type_filter.c.obj
 .bss.m_adv_prng
                0x0000000020005a98       0x10 CMakeFiles/light_switch_provisioner_nrf52832_xxAA_s132_6.0.0.dir/__/__/__/mesh/bearer/src/advertiser.c.obj
 .bss.m_action_queue
                0x0000000020005aa8        0x8 CMakeFiles/light_switch_provisioner_nrf52832_xxAA_s132_6.0.0.dir/__/__/__/mesh/bearer/src/bearer_handler.c.obj
 .bss.m_end_time
                0x0000000020005ab0        0x4 CMakeFiles/light_switch_provisioner_nrf52832_xxAA_s132_6.0.0.dir/__/__/__/mesh/bearer/src/bearer_handler.c.obj
 .bss.m_scanner_is_active
                0x0000000020005ab4        0x1 CMakeFiles/light_switch_provisioner_nrf52832_xxAA_s132_6.0.0.dir/__/__/__/mesh/bearer/src/bearer_handler.c.obj
 .bss.m_stopped
                0x0000000020005ab5        0x1 CMakeFiles/light_switch_provisioner_nrf52832_xxAA_s132_6.0.0.dir/__/__/__/mesh/bearer/src/bearer_handler.c.obj
 *fill*         0x0000000020005ab6        0x2 
 .bss.mp_action
                0x0000000020005ab8        0x4 CMakeFiles/light_switch_provisioner_nrf52832_xxAA_s132_6.0.0.dir/__/__/__/mesh/bearer/src/bearer_handler.c.obj
 .bss.m_next_channel_index
                0x0000000020005abc        0x1 CMakeFiles/light_switch_provisioner_nrf52832_xxAA_s132_6.0.0.dir/__/__/__/mesh/bearer/src/broadcast.c.obj
 *fill*         0x0000000020005abd        0x3 
 .bss.m_accepted_amount
                0x0000000020005ac0        0x4 CMakeFiles/light_switch_provisioner_nrf52832_xxAA_s132_6.0.0.dir/__/__/__/mesh/bearer/src/filter_engine.c.obj
 .bss.m_filter_list_head
                0x0000000020005ac4        0x4 CMakeFiles/light_switch_provisioner_nrf52832_xxAA_s132_6.0.0.dir/__/__/__/mesh/bearer/src/filter_engine.c.obj
 .bss.m_scanner
                0x0000000020005ac8      0x290 CMakeFiles/light_switch_provisioner_nrf52832_xxAA_s132_6.0.0.dir/__/__/__/mesh/bearer/src/scanner.c.obj
 .bss.m_client  0x0000000020005d58        0x8 CMakeFiles/light_switch_provisioner_nrf52832_xxAA_s132_6.0.0.dir/__/__/__/models/config/src/config_client.c.obj
 .bss.mp_packet_buffer
                0x0000000020005d60        0x4 CMakeFiles/light_switch_provisioner_nrf52832_xxAA_s132_6.0.0.dir/__/__/__/models/config/src/config_client.c.obj
 .bss.m_evt_cb  0x0000000020005d64        0x4 CMakeFiles/light_switch_provisioner_nrf52832_xxAA_s132_6.0.0.dir/__/__/__/models/config/src/config_server.c.obj
 .bss.m_heartbeat_publication
                0x0000000020005d68       0x14 CMakeFiles/light_switch_provisioner_nrf52832_xxAA_s132_6.0.0.dir/__/__/__/models/config/src/config_server.c.obj
 .bss.m_node_reset_pending
                0x0000000020005d7c        0x1 CMakeFiles/light_switch_provisioner_nrf52832_xxAA_s132_6.0.0.dir/__/__/__/models/config/src/config_server.c.obj
 *fill*         0x0000000020005d7d        0x3 
 .bss.m_attention_timer
                0x0000000020005d80       0x18 CMakeFiles/light_switch_provisioner_nrf52832_xxAA_s132_6.0.0.dir/__/__/__/models/health/src/health_server.c.obj
 .bss.mp_attention_list
                0x0000000020005d98        0x4 CMakeFiles/light_switch_provisioner_nrf52832_xxAA_s132_6.0.0.dir/__/__/__/models/health/src/health_server.c.obj
 .bss.m_publish_timer
                0x0000000020005d9c       0x18 CMakeFiles/light_switch_provisioner_nrf52832_xxAA_s132_6.0.0.dir/__/__/__/mesh/access/src/access_publish.c.obj
 .bss.m_publish_timer_counter
                0x0000000020005db4        0x4 CMakeFiles/light_switch_provisioner_nrf52832_xxAA_s132_6.0.0.dir/__/__/__/mesh/access/src/access_publish.c.obj
 .bss.m_publish_timer_running
                0x0000000020005db8        0x1 CMakeFiles/light_switch_provisioner_nrf52832_xxAA_s132_6.0.0.dir/__/__/__/mesh/access/src/access_publish.c.obj
 .bss.m_timer_resolution
                0x0000000020005db9        0x1 CMakeFiles/light_switch_provisioner_nrf52832_xxAA_s132_6.0.0.dir/__/__/__/mesh/access/src/access_publish.c.obj
 *fill*         0x0000000020005dba        0x2 
 .bss.mp_publication_list
                0x0000000020005dbc        0x4 CMakeFiles/light_switch_provisioner_nrf52832_xxAA_s132_6.0.0.dir/__/__/__/mesh/access/src/access_publish.c.obj
 .bss.m_element_pool
                0x0000000020005dc0        0x6 CMakeFiles/light_switch_provisioner_nrf52832_xxAA_s132_6.0.0.dir/__/__/__/mesh/access/src/access.c.obj
 *fill*         0x0000000020005dc6        0x2 
 .bss.m_evt_handler
                0x0000000020005dc8        0x8 CMakeFiles/light_switch_provisioner_nrf52832_xxAA_s132_6.0.0.dir/__/__/__/mesh/access/src/access.c.obj
 .bss.m_flash_manager
                0x0000000020005dd0       0x24 CMakeFiles/light_switch_provisioner_nrf52832_xxAA_s132_6.0.0.dir/__/__/__/mesh/access/src/access.c.obj
 .bss.m_flash_not_ready
                0x0000000020005df4        0x1 CMakeFiles/light_switch_provisioner_nrf52832_xxAA_s132_6.0.0.dir/__/__/__/mesh/access/src/access.c.obj
 .bss.m_metadata_stored
                0x0000000020005df5        0x1 CMakeFiles/light_switch_provisioner_nrf52832_xxAA_s132_6.0.0.dir/__/__/__/mesh/access/src/access.c.obj
 *fill*         0x0000000020005df6        0x2 
 .bss.m_model_pool
                0x0000000020005df8       0xe0 CMakeFiles/light_switch_provisioner_nrf52832_xxAA_s132_6.0.0.dir/__/__/__/mesh/access/src/access.c.obj
 .bss.m_subscription_list_pool
                0x0000000020005ed8       0x30 CMakeFiles/light_switch_provisioner_nrf52832_xxAA_s132_6.0.0.dir/__/__/__/mesh/access/src/access.c.obj
 .bss.m_reliable
                0x0000000020005f08       0xcc CMakeFiles/light_switch_provisioner_nrf52832_xxAA_s132_6.0.0.dir/__/__/__/mesh/access/src/access_reliable.c.obj
 .bss.m_addr_nonvirtual_allocated
                0x0000000020005fd4        0x8 CMakeFiles/light_switch_provisioner_nrf52832_xxAA_s132_6.0.0.dir/__/__/__/mesh/access/src/device_state_manager.c.obj
 .bss.m_addr_nonvirtual_needs_flashing
                0x0000000020005fdc        0x8 CMakeFiles/light_switch_provisioner_nrf52832_xxAA_s132_6.0.0.dir/__/__/__/mesh/access/src/device_state_manager.c.obj
 .bss.m_addr_unicast_allocated
                0x0000000020005fe4        0x4 CMakeFiles/light_switch_provisioner_nrf52832_xxAA_s132_6.0.0.dir/__/__/__/mesh/access/src/device_state_manager.c.obj
 .bss.m_addr_unicast_needs_flashing
                0x0000000020005fe8        0x4 CMakeFiles/light_switch_provisioner_nrf52832_xxAA_s132_6.0.0.dir/__/__/__/mesh/access/src/device_state_manager.c.obj
 .bss.m_addr_virtual_allocated
                0x0000000020005fec        0x4 CMakeFiles/light_switch_provisioner_nrf52832_xxAA_s132_6.0.0.dir/__/__/__/mesh/access/src/device_state_manager.c.obj
 .bss.m_addr_virtual_needs_flashing
                0x0000000020005ff0        0x4 CMakeFiles/light_switch_provisioner_nrf52832_xxAA_s132_6.0.0.dir/__/__/__/mesh/access/src/device_state_manager.c.obj
 .bss.m_addresses
                0x0000000020005ff4       0x88 CMakeFiles/light_switch_provisioner_nrf52832_xxAA_s132_6.0.0.dir/__/__/__/mesh/access/src/device_state_manager.c.obj
 .bss.m_appkey_allocated
                0x000000002000607c        0x4 CMakeFiles/light_switch_provisioner_nrf52832_xxAA_s132_6.0.0.dir/__/__/__/mesh/access/src/device_state_manager.c.obj
 .bss.m_appkey_needs_flashing
                0x0000000020006080        0x4 CMakeFiles/light_switch_provisioner_nrf52832_xxAA_s132_6.0.0.dir/__/__/__/mesh/access/src/device_state_manager.c.obj
 .bss.m_appkeys
                0x0000000020006084       0x2a CMakeFiles/light_switch_provisioner_nrf52832_xxAA_s132_6.0.0.dir/__/__/__/mesh/access/src/device_state_manager.c.obj
 *fill*         0x00000000200060ae        0x2 
 .bss.m_devkey_allocated
                0x00000000200060b0        0x4 CMakeFiles/light_switch_provisioner_nrf52832_xxAA_s132_6.0.0.dir/__/__/__/mesh/access/src/device_state_manager.c.obj
 .bss.m_devkey_needs_flashing
                0x00000000200060b4        0x4 CMakeFiles/light_switch_provisioner_nrf52832_xxAA_s132_6.0.0.dir/__/__/__/mesh/access/src/device_state_manager.c.obj
 .bss.m_devkeys
                0x00000000200060b8      0x2c0 CMakeFiles/light_switch_provisioner_nrf52832_xxAA_s132_6.0.0.dir/__/__/__/mesh/access/src/device_state_manager.c.obj
 .bss.m_flash_is_available
                0x0000000020006378        0x1 CMakeFiles/light_switch_provisioner_nrf52832_xxAA_s132_6.0.0.dir/__/__/__/mesh/access/src/device_state_manager.c.obj
 *fill*         0x0000000020006379        0x3 
 .bss.m_flash_manager
                0x000000002000637c       0x24 CMakeFiles/light_switch_provisioner_nrf52832_xxAA_s132_6.0.0.dir/__/__/__/mesh/access/src/device_state_manager.c.obj
 .bss.m_flash_mem_listener_update_all
                0x00000000200063a0       0x10 CMakeFiles/light_switch_provisioner_nrf52832_xxAA_s132_6.0.0.dir/__/__/__/mesh/access/src/device_state_manager.c.obj
 .bss.m_has_primary_subnet
                0x00000000200063b0        0x1 CMakeFiles/light_switch_provisioner_nrf52832_xxAA_s132_6.0.0.dir/__/__/__/mesh/access/src/device_state_manager.c.obj
 *fill*         0x00000000200063b1        0x3 
 .bss.m_local_unicast_addr
                0x00000000200063b4        0x4 CMakeFiles/light_switch_provisioner_nrf52832_xxAA_s132_6.0.0.dir/__/__/__/mesh/access/src/device_state_manager.c.obj
 .bss.m_mesh_evt_handler
                0x00000000200063b8        0x8 CMakeFiles/light_switch_provisioner_nrf52832_xxAA_s132_6.0.0.dir/__/__/__/mesh/access/src/device_state_manager.c.obj
 .bss.m_subnet_allocated
                0x00000000200063c0        0x4 CMakeFiles/light_switch_provisioner_nrf52832_xxAA_s132_6.0.0.dir/__/__/__/mesh/access/src/device_state_manager.c.obj
 .bss.m_subnet_needs_flashing
                0x00000000200063c4        0x4 CMakeFiles/light_switch_provisioner_nrf52832_xxAA_s132_6.0.0.dir/__/__/__/mesh/access/src/device_state_manager.c.obj
 .bss.m_subnets
                0x00000000200063c8       0xa8 CMakeFiles/light_switch_provisioner_nrf52832_xxAA_s132_6.0.0.dir/__/__/__/mesh/access/src/device_state_manager.c.obj
 .bss.m_virtual_addresses
                0x0000000020006470       0x14 CMakeFiles/light_switch_provisioner_nrf52832_xxAA_s132_6.0.0.dir/__/__/__/mesh/access/src/device_state_manager.c.obj
 .bss.m_event_handler
                0x0000000020006484        0x4 CMakeFiles/light_switch_provisioner_nrf52832_xxAA_s132_6.0.0.dir/__/__/__/mesh/prov/src/prov_beacon.c.obj
 .bss.m_offload_ecdh
                0x0000000020006488        0x1 CMakeFiles/light_switch_provisioner_nrf52832_xxAA_s132_6.0.0.dir/__/__/__/mesh/prov/src/prov_utils.c.obj
 *fill*         0x0000000020006489        0x3 
 .bss.mp_bearer_head
                0x000000002000648c        0x4 CMakeFiles/light_switch_provisioner_nrf52832_xxAA_s132_6.0.0.dir/__/__/__/mesh/prov/src/prov_bearer_adv.c.obj
 .bss._acDownBuffer
                0x0000000020006490       0x80 ../../../external/rtt/librtt_nrf52832_xxAA.a(SEGGER_RTT.c.obj)
 .bss._acUpBuffer
                0x0000000020006510      0x400 ../../../external/rtt/librtt_nrf52832_xxAA.a(SEGGER_RTT.c.obj)
 .bss.__malloc_free_list
                0x0000000020006910        0x4 /usr/bin/../lib/gcc/arm-none-eabi/7.2.1/../../../../arm-none-eabi/lib/thumb/v7e-m/fpv4-sp/hard/libg_nano.a(lib_a-nano-mallocr.o)
                0x0000000020006910                __malloc_free_list
 .bss.__malloc_sbrk_start
                0x0000000020006914        0x4 /usr/bin/../lib/gcc/arm-none-eabi/7.2.1/../../../../arm-none-eabi/lib/thumb/v7e-m/fpv4-sp/hard/libg_nano.a(lib_a-nano-mallocr.o)
                0x0000000020006914                __malloc_sbrk_start
 .bss.heap_end.5377
                0x0000000020006918        0x4 /usr/bin/../lib/gcc/arm-none-eabi/7.2.1/../../../../arm-none-eabi/lib/thumb/v7e-m/fpv4-sp/hard/libnosys.a(sbrk.o)
 *(COMMON)
 COMMON         0x000000002000691c        0xc CMakeFiles/light_switch_provisioner_nrf52832_xxAA_s132_6.0.0.dir/__/__/common/src/mesh_softdevice_init.c.obj
                0x000000002000691c                nrf_nvic_state
 COMMON         0x0000000020006928       0x24 CMakeFiles/light_switch_provisioner_nrf52832_xxAA_s132_6.0.0.dir/__/__/__/mesh/core/src/core_tx.c.obj
                0x0000000020006928                m_packet
 COMMON         0x000000002000694c       0x78 ../../../external/rtt/librtt_nrf52832_xxAA.a(SEGGER_RTT.c.obj)
                0x000000002000694c                _SEGGER_RTT
 COMMON         0x00000000200069c4        0x4 /usr/bin/../lib/gcc/arm-none-eabi/7.2.1/../../../../arm-none-eabi/lib/thumb/v7e-m/fpv4-sp/hard/libg_nano.a(lib_a-reent.o)
                0x00000000200069c4                errno
                0x00000000200069c8                . = ALIGN (0x4)
                0x00000000200069c8                __bss_end__ = .

.heap           0x00000000200069c8     0x2000
                0x00000000200069c8                __HeapBase = .
                0x00000000200069c8                __end__ = .
                0x00000000200069c8                PROVIDE (end, .)
 *(.heap*)
 .heap          0x00000000200069c8     0x2000 CMakeFiles/light_switch_provisioner_nrf52832_xxAA_s132_6.0.0.dir/home/mazzer/work/nordic/sdk/nRF5_SDK_15.0.0/modules/nrfx/mdk/gcc_startup_nrf52.S.obj
                0x00000000200089c8                __HeapLimit = .

.stack_dummy    0x00000000200069c8     0x2000
 *(.stack*)
 .stack         0x00000000200069c8     0x2000 CMakeFiles/light_switch_provisioner_nrf52832_xxAA_s132_6.0.0.dir/home/mazzer/work/nordic/sdk/nRF5_SDK_15.0.0/modules/nrfx/mdk/gcc_startup_nrf52.S.obj
                0x000000002000fd00                __StackTop = (ORIGIN (RAM) + LENGTH (RAM))
                0x000000002000dd00                __StackLimit = (__StackTop - SIZEOF (.stack_dummy))
                0x000000002000fd00                PROVIDE (__stack, __StackTop)
                0x0000000000000001                ASSERT ((__StackLimit >= __HeapLimit), region RAM overflowed with stack)
                0x0000000000000178                DataInitFlashUsed = (__bss_start__ - __data_start__)
                0x0000000000021360                CodeFlashUsed = (__etext - ORIGIN (FLASH))
                0x00000000000214d8                TotalFlashUsed = (CodeFlashUsed + DataInitFlashUsed)
                0x0000000000000001                ASSERT ((TotalFlashUsed <= LENGTH (FLASH)), region FLASH overflowed with .data and user data)
OUTPUT(light_switch_provisioner_nrf52832_xxAA_s132_6.0.0.elf elf32-littlearm)

.ARM.attributes
                0x0000000000000000       0x30
 .ARM.attributes
                0x0000000000000000       0x22 /usr/bin/../lib/gcc/arm-none-eabi/7.2.1/thumb/v7e-m/fpv4-sp/hard/crti.o
 .ARM.attributes
                0x0000000000000022       0x34 /usr/bin/../lib/gcc/arm-none-eabi/7.2.1/thumb/v7e-m/fpv4-sp/hard/crtbegin.o
 .ARM.attributes
                0x0000000000000056       0x20 /usr/bin/../lib/gcc/arm-none-eabi/7.2.1/../../../../arm-none-eabi/lib/thumb/v7e-m/fpv4-sp/hard/crt0.o
 .ARM.attributes
                0x0000000000000076       0x39 CMakeFiles/light_switch_provisioner_nrf52832_xxAA_s132_6.0.0.dir/src/main.c.obj
 .ARM.attributes
                0x00000000000000af       0x39 CMakeFiles/light_switch_provisioner_nrf52832_xxAA_s132_6.0.0.dir/__/__/__/mesh/stack/src/mesh_stack.c.obj
 .ARM.attributes
                0x00000000000000e8       0x39 CMakeFiles/light_switch_provisioner_nrf52832_xxAA_s132_6.0.0.dir/src/provisioner_helper.c.obj
 .ARM.attributes
                0x0000000000000121       0x39 CMakeFiles/light_switch_provisioner_nrf52832_xxAA_s132_6.0.0.dir/src/node_setup.c.obj
 .ARM.attributes
                0x000000000000015a       0x39 CMakeFiles/light_switch_provisioner_nrf52832_xxAA_s132_6.0.0.dir/__/__/common/src/mesh_softdevice_init.c.obj
 .ARM.attributes
                0x0000000000000193       0x39 CMakeFiles/light_switch_provisioner_nrf52832_xxAA_s132_6.0.0.dir/__/__/common/src/rtt_input.c.obj
 .ARM.attributes
                0x00000000000001cc       0x39 CMakeFiles/light_switch_provisioner_nrf52832_xxAA_s132_6.0.0.dir/__/__/common/src/simple_hal.c.obj
 .ARM.attributes
                0x0000000000000205       0x39 CMakeFiles/light_switch_provisioner_nrf52832_xxAA_s132_6.0.0.dir/__/__/nrf_mesh_weak.c.obj
 .ARM.attributes
                0x000000000000023e       0x39 CMakeFiles/light_switch_provisioner_nrf52832_xxAA_s132_6.0.0.dir/__/__/common/src/app_error_weak.c.obj
 .ARM.attributes
                0x0000000000000277       0x39 CMakeFiles/light_switch_provisioner_nrf52832_xxAA_s132_6.0.0.dir/__/__/common/src/assertion_handler_weak.c.obj
 .ARM.attributes
                0x00000000000002b0       0x39 CMakeFiles/light_switch_provisioner_nrf52832_xxAA_s132_6.0.0.dir/__/__/__/mesh/core/src/nrf_mesh_configure.c.obj
 .ARM.attributes
                0x00000000000002e9       0x39 CMakeFiles/light_switch_provisioner_nrf52832_xxAA_s132_6.0.0.dir/__/__/__/mesh/core/src/aes.c.obj
 .ARM.attributes
                0x0000000000000322       0x39 CMakeFiles/light_switch_provisioner_nrf52832_xxAA_s132_6.0.0.dir/__/__/__/mesh/core/src/msg_cache.c.obj
 .ARM.attributes
                0x000000000000035b       0x39 CMakeFiles/light_switch_provisioner_nrf52832_xxAA_s132_6.0.0.dir/__/__/__/mesh/core/src/transport.c.obj
 .ARM.attributes
                0x0000000000000394       0x39 CMakeFiles/light_switch_provisioner_nrf52832_xxAA_s132_6.0.0.dir/__/__/__/mesh/core/src/event.c.obj
 .ARM.attributes
                0x00000000000003cd       0x39 CMakeFiles/light_switch_provisioner_nrf52832_xxAA_s132_6.0.0.dir/__/__/__/mesh/core/src/packet_buffer.c.obj
 .ARM.attributes
                0x0000000000000406       0x39 CMakeFiles/light_switch_provisioner_nrf52832_xxAA_s132_6.0.0.dir/__/__/__/mesh/core/src/flash_manager_defrag.c.obj
 .ARM.attributes
                0x000000000000043f       0x39 CMakeFiles/light_switch_provisioner_nrf52832_xxAA_s132_6.0.0.dir/__/__/__/mesh/core/src/fifo.c.obj
 .ARM.attributes
                0x0000000000000478       0x39 CMakeFiles/light_switch_provisioner_nrf52832_xxAA_s132_6.0.0.dir/__/__/__/mesh/core/src/nrf_flash.c.obj
 .ARM.attributes
                0x00000000000004b1       0x39 CMakeFiles/light_switch_provisioner_nrf52832_xxAA_s132_6.0.0.dir/__/__/__/mesh/core/src/packet_mgr.c.obj
 .ARM.attributes
                0x00000000000004ea       0x39 CMakeFiles/light_switch_provisioner_nrf52832_xxAA_s132_6.0.0.dir/__/__/__/mesh/core/src/net_state.c.obj
 .ARM.attributes
                0x0000000000000523       0x39 CMakeFiles/light_switch_provisioner_nrf52832_xxAA_s132_6.0.0.dir/__/__/__/mesh/core/src/mesh_flash.c.obj
 .ARM.attributes
                0x000000000000055c       0x39 CMakeFiles/light_switch_provisioner_nrf52832_xxAA_s132_6.0.0.dir/__/__/__/mesh/core/src/nrf_mesh_utils.c.obj
 .ARM.attributes
                0x0000000000000595       0x39 CMakeFiles/light_switch_provisioner_nrf52832_xxAA_s132_6.0.0.dir/__/__/__/mesh/core/src/nrf_mesh.c.obj
 .ARM.attributes
                0x00000000000005ce       0x39 CMakeFiles/light_switch_provisioner_nrf52832_xxAA_s132_6.0.0.dir/__/__/__/mesh/core/src/queue.c.obj
 .ARM.attributes
                0x0000000000000607       0x39 CMakeFiles/light_switch_provisioner_nrf52832_xxAA_s132_6.0.0.dir/__/__/__/mesh/core/src/hal.c.obj
 .ARM.attributes
                0x0000000000000640       0x39 CMakeFiles/light_switch_provisioner_nrf52832_xxAA_s132_6.0.0.dir/__/__/__/mesh/core/src/aes_cmac.c.obj
 .ARM.attributes
                0x0000000000000679       0x39 CMakeFiles/light_switch_provisioner_nrf52832_xxAA_s132_6.0.0.dir/__/__/__/mesh/core/src/timer_scheduler.c.obj
 .ARM.attributes
                0x00000000000006b2       0x39 CMakeFiles/light_switch_provisioner_nrf52832_xxAA_s132_6.0.0.dir/__/__/__/mesh/core/src/timer.c.obj
 .ARM.attributes
                0x00000000000006eb       0x39 CMakeFiles/light_switch_provisioner_nrf52832_xxAA_s132_6.0.0.dir/__/__/__/mesh/core/src/ticker.c.obj
 .ARM.attributes
                0x0000000000000724       0x39 CMakeFiles/light_switch_provisioner_nrf52832_xxAA_s132_6.0.0.dir/__/__/__/mesh/core/src/rand.c.obj
 .ARM.attributes
                0x000000000000075d       0x39 CMakeFiles/light_switch_provisioner_nrf52832_xxAA_s132_6.0.0.dir/__/__/__/mesh/core/src/nrf_mesh_opt.c.obj
 .ARM.attributes
                0x0000000000000796       0x39 CMakeFiles/light_switch_provisioner_nrf52832_xxAA_s132_6.0.0.dir/__/__/__/mesh/core/src/timeslot.c.obj
 .ARM.attributes
                0x00000000000007cf       0x39 CMakeFiles/light_switch_provisioner_nrf52832_xxAA_s132_6.0.0.dir/__/__/__/mesh/core/src/bearer_event.c.obj
 .ARM.attributes
                0x0000000000000808       0x39 CMakeFiles/light_switch_provisioner_nrf52832_xxAA_s132_6.0.0.dir/__/__/__/mesh/core/src/enc.c.obj
 .ARM.attributes
                0x0000000000000841       0x39 CMakeFiles/light_switch_provisioner_nrf52832_xxAA_s132_6.0.0.dir/__/__/__/mesh/core/src/network.c.obj
 .ARM.attributes
                0x000000000000087a       0x39 CMakeFiles/light_switch_provisioner_nrf52832_xxAA_s132_6.0.0.dir/__/__/__/mesh/core/src/net_packet.c.obj
 .ARM.attributes
                0x00000000000008b3       0x39 CMakeFiles/light_switch_provisioner_nrf52832_xxAA_s132_6.0.0.dir/__/__/__/mesh/core/src/msqueue.c.obj
 .ARM.attributes
                0x00000000000008ec       0x39 CMakeFiles/light_switch_provisioner_nrf52832_xxAA_s132_6.0.0.dir/__/__/__/mesh/core/src/nrf_mesh_keygen.c.obj
 .ARM.attributes
                0x0000000000000925       0x39 CMakeFiles/light_switch_provisioner_nrf52832_xxAA_s132_6.0.0.dir/__/__/__/mesh/core/src/list.c.obj
 .ARM.attributes
                0x000000000000095e       0x39 CMakeFiles/light_switch_provisioner_nrf52832_xxAA_s132_6.0.0.dir/__/__/__/mesh/core/src/log.c.obj
 .ARM.attributes
                0x0000000000000997       0x39 CMakeFiles/light_switch_provisioner_nrf52832_xxAA_s132_6.0.0.dir/__/__/__/mesh/core/src/flash_manager.c.obj
 .ARM.attributes
                0x00000000000009d0       0x39 CMakeFiles/light_switch_provisioner_nrf52832_xxAA_s132_6.0.0.dir/__/__/__/mesh/core/src/ccm_soft.c.obj
 .ARM.attributes
                0x0000000000000a09       0x39 CMakeFiles/light_switch_provisioner_nrf52832_xxAA_s132_6.0.0.dir/__/__/__/mesh/core/src/replay_cache.c.obj
 .ARM.attributes
                0x0000000000000a42       0x39 CMakeFiles/light_switch_provisioner_nrf52832_xxAA_s132_6.0.0.dir/__/__/__/mesh/core/src/beacon.c.obj
 .ARM.attributes
                0x0000000000000a7b       0x39 CMakeFiles/light_switch_provisioner_nrf52832_xxAA_s132_6.0.0.dir/__/__/__/mesh/core/src/flash_manager_internal.c.obj
 .ARM.attributes
                0x0000000000000ab4       0x39 CMakeFiles/light_switch_provisioner_nrf52832_xxAA_s132_6.0.0.dir/__/__/__/mesh/core/src/core_tx.c.obj
 .ARM.attributes
                0x0000000000000aed       0x39 CMakeFiles/light_switch_provisioner_nrf52832_xxAA_s132_6.0.0.dir/__/__/__/mesh/core/src/heartbeat.c.obj
 .ARM.attributes
                0x0000000000000b26       0x39 CMakeFiles/light_switch_provisioner_nrf52832_xxAA_s132_6.0.0.dir/__/__/__/mesh/core/src/net_beacon.c.obj
 .ARM.attributes
                0x0000000000000b5f       0x39 CMakeFiles/light_switch_provisioner_nrf52832_xxAA_s132_6.0.0.dir/__/__/__/mesh/core/src/core_tx_adv.c.obj
 .ARM.attributes
                0x0000000000000b98       0x39 CMakeFiles/light_switch_provisioner_nrf52832_xxAA_s132_6.0.0.dir/__/__/__/mesh/bearer/src/ad_listener.c.obj
 .ARM.attributes
                0x0000000000000bd1       0x39 CMakeFiles/light_switch_provisioner_nrf52832_xxAA_s132_6.0.0.dir/__/__/__/mesh/bearer/src/ad_type_filter.c.obj
 .ARM.attributes
                0x0000000000000c0a       0x39 CMakeFiles/light_switch_provisioner_nrf52832_xxAA_s132_6.0.0.dir/__/__/__/mesh/bearer/src/advertiser.c.obj
 .ARM.attributes
                0x0000000000000c43       0x39 CMakeFiles/light_switch_provisioner_nrf52832_xxAA_s132_6.0.0.dir/__/__/__/mesh/bearer/src/bearer_handler.c.obj
 .ARM.attributes
                0x0000000000000c7c       0x39 CMakeFiles/light_switch_provisioner_nrf52832_xxAA_s132_6.0.0.dir/__/__/__/mesh/bearer/src/broadcast.c.obj
 .ARM.attributes
                0x0000000000000cb5       0x39 CMakeFiles/light_switch_provisioner_nrf52832_xxAA_s132_6.0.0.dir/__/__/__/mesh/bearer/src/filter_engine.c.obj
 .ARM.attributes
                0x0000000000000cee       0x39 CMakeFiles/light_switch_provisioner_nrf52832_xxAA_s132_6.0.0.dir/__/__/__/mesh/bearer/src/radio_config.c.obj
 .ARM.attributes
                0x0000000000000d27       0x39 CMakeFiles/light_switch_provisioner_nrf52832_xxAA_s132_6.0.0.dir/__/__/__/mesh/bearer/src/scanner.c.obj
 .ARM.attributes
                0x0000000000000d60       0x39 CMakeFiles/light_switch_provisioner_nrf52832_xxAA_s132_6.0.0.dir/__/__/__/models/config/src/config_client.c.obj
 .ARM.attributes
                0x0000000000000d99       0x39 CMakeFiles/light_switch_provisioner_nrf52832_xxAA_s132_6.0.0.dir/__/__/__/models/config/src/composition_data.c.obj
 .ARM.attributes
                0x0000000000000dd2       0x39 CMakeFiles/light_switch_provisioner_nrf52832_xxAA_s132_6.0.0.dir/__/__/__/models/config/src/config_server.c.obj
 .ARM.attributes
                0x0000000000000e0b       0x39 CMakeFiles/light_switch_provisioner_nrf52832_xxAA_s132_6.0.0.dir/__/__/__/models/config/src/packed_index_list.c.obj
 .ARM.attributes
                0x0000000000000e44       0x39 CMakeFiles/light_switch_provisioner_nrf52832_xxAA_s132_6.0.0.dir/__/__/__/models/health/src/health_server.c.obj
 .ARM.attributes
                0x0000000000000e7d       0x39 CMakeFiles/light_switch_provisioner_nrf52832_xxAA_s132_6.0.0.dir/__/__/__/models/health/src/health_client.c.obj
 .ARM.attributes
                0x0000000000000eb6       0x39 CMakeFiles/light_switch_provisioner_nrf52832_xxAA_s132_6.0.0.dir/__/__/__/mesh/access/src/access_publish.c.obj
 .ARM.attributes
                0x0000000000000eef       0x39 CMakeFiles/light_switch_provisioner_nrf52832_xxAA_s132_6.0.0.dir/__/__/__/mesh/access/src/access.c.obj
 .ARM.attributes
                0x0000000000000f28       0x39 CMakeFiles/light_switch_provisioner_nrf52832_xxAA_s132_6.0.0.dir/__/__/__/mesh/access/src/access_reliable.c.obj
 .ARM.attributes
                0x0000000000000f61       0x39 CMakeFiles/light_switch_provisioner_nrf52832_xxAA_s132_6.0.0.dir/__/__/__/mesh/access/src/device_state_manager.c.obj
 .ARM.attributes
                0x0000000000000f9a       0x39 CMakeFiles/light_switch_provisioner_nrf52832_xxAA_s132_6.0.0.dir/__/__/__/mesh/prov/src/prov_provisioner.c.obj
 .ARM.attributes
                0x0000000000000fd3       0x39 CMakeFiles/light_switch_provisioner_nrf52832_xxAA_s132_6.0.0.dir/__/__/__/mesh/prov/src/nrf_mesh_prov.c.obj
 .ARM.attributes
                0x000000000000100c       0x39 CMakeFiles/light_switch_provisioner_nrf52832_xxAA_s132_6.0.0.dir/__/__/__/mesh/prov/src/provisioning.c.obj
 .ARM.attributes
                0x0000000000001045       0x39 CMakeFiles/light_switch_provisioner_nrf52832_xxAA_s132_6.0.0.dir/__/__/__/mesh/prov/src/prov_beacon.c.obj
 .ARM.attributes
                0x000000000000107e       0x39 CMakeFiles/light_switch_provisioner_nrf52832_xxAA_s132_6.0.0.dir/__/__/__/mesh/prov/src/prov_utils.c.obj
 .ARM.attributes
                0x00000000000010b7       0x39 CMakeFiles/light_switch_provisioner_nrf52832_xxAA_s132_6.0.0.dir/__/__/__/mesh/prov/src/prov_bearer_adv.c.obj
 .ARM.attributes
                0x00000000000010f0       0x39 CMakeFiles/light_switch_provisioner_nrf52832_xxAA_s132_6.0.0.dir/home/mazzer/work/nordic/sdk/nRF5_SDK_15.0.0/modules/nrfx/mdk/system_nrf52.c.obj
 .ARM.attributes
                0x0000000000001129       0x20 CMakeFiles/light_switch_provisioner_nrf52832_xxAA_s132_6.0.0.dir/home/mazzer/work/nordic/sdk/nRF5_SDK_15.0.0/modules/nrfx/mdk/gcc_startup_nrf52.S.obj
 .ARM.attributes
                0x0000000000001149       0x39 CMakeFiles/light_switch_provisioner_nrf52832_xxAA_s132_6.0.0.dir/home/mazzer/work/nordic/sdk/nRF5_SDK_15.0.0/components/libraries/util/app_error_handler_gcc.c.obj
 .ARM.attributes
                0x0000000000001182       0x39 ../../../external/rtt/librtt_nrf52832_xxAA.a(SEGGER_RTT.c.obj)
 .ARM.attributes
                0x00000000000011bb       0x39 ../../../external/rtt/librtt_nrf52832_xxAA.a(SEGGER_RTT_printf.c.obj)
 .ARM.attributes
                0x00000000000011f4       0x39 ../../../external/micro-ecc/libuECC_nrf52832_xxAA.a(uECC.c.obj)
 .ARM.attributes
                0x000000000000122d       0x22 /usr/bin/../lib/gcc/arm-none-eabi/7.2.1/thumb/v7e-m/fpv4-sp/hard/libgcc.a(_aeabi_uldivmod.o)
 .ARM.attributes
                0x000000000000124f       0x34 /usr/bin/../lib/gcc/arm-none-eabi/7.2.1/thumb/v7e-m/fpv4-sp/hard/libgcc.a(_udivmoddi4.o)
 .ARM.attributes
                0x0000000000001283       0x22 /usr/bin/../lib/gcc/arm-none-eabi/7.2.1/thumb/v7e-m/fpv4-sp/hard/libgcc.a(_dvmd_tls.o)
 .ARM.attributes
                0x00000000000012a5       0x34 /usr/bin/../lib/gcc/arm-none-eabi/7.2.1/../../../../arm-none-eabi/lib/thumb/v7e-m/fpv4-sp/hard/libg_nano.a(lib_a-exit.o)
 .ARM.attributes
                0x00000000000012d9       0x34 /usr/bin/../lib/gcc/arm-none-eabi/7.2.1/../../../../arm-none-eabi/lib/thumb/v7e-m/fpv4-sp/hard/libg_nano.a(lib_a-impure.o)
 .ARM.attributes
                0x000000000000130d       0x34 /usr/bin/../lib/gcc/arm-none-eabi/7.2.1/../../../../arm-none-eabi/lib/thumb/v7e-m/fpv4-sp/hard/libg_nano.a(lib_a-init.o)
 .ARM.attributes
                0x0000000000001341       0x34 /usr/bin/../lib/gcc/arm-none-eabi/7.2.1/../../../../arm-none-eabi/lib/thumb/v7e-m/fpv4-sp/hard/libg_nano.a(lib_a-malloc.o)
 .ARM.attributes
                0x0000000000001375       0x34 /usr/bin/../lib/gcc/arm-none-eabi/7.2.1/../../../../arm-none-eabi/lib/thumb/v7e-m/fpv4-sp/hard/libg_nano.a(lib_a-memcmp.o)
 .ARM.attributes
                0x00000000000013a9       0x34 /usr/bin/../lib/gcc/arm-none-eabi/7.2.1/../../../../arm-none-eabi/lib/thumb/v7e-m/fpv4-sp/hard/libg_nano.a(lib_a-memcpy-stub.o)
 .ARM.attributes
                0x00000000000013dd       0x34 /usr/bin/../lib/gcc/arm-none-eabi/7.2.1/../../../../arm-none-eabi/lib/thumb/v7e-m/fpv4-sp/hard/libg_nano.a(lib_a-memset.o)
 .ARM.attributes
                0x0000000000001411       0x34 /usr/bin/../lib/gcc/arm-none-eabi/7.2.1/../../../../arm-none-eabi/lib/thumb/v7e-m/fpv4-sp/hard/libg_nano.a(lib_a-nano-freer.o)
 .ARM.attributes
                0x0000000000001445       0x34 /usr/bin/../lib/gcc/arm-none-eabi/7.2.1/../../../../arm-none-eabi/lib/thumb/v7e-m/fpv4-sp/hard/libg_nano.a(lib_a-nano-mallocr.o)
 .ARM.attributes
                0x0000000000001479       0x34 /usr/bin/../lib/gcc/arm-none-eabi/7.2.1/../../../../arm-none-eabi/lib/thumb/v7e-m/fpv4-sp/hard/libg_nano.a(lib_a-sbrkr.o)
 .ARM.attributes
                0x00000000000014ad       0x34 /usr/bin/../lib/gcc/arm-none-eabi/7.2.1/../../../../arm-none-eabi/lib/thumb/v7e-m/fpv4-sp/hard/libg_nano.a(lib_a-strcpy.o)
 .ARM.attributes
                0x00000000000014e1       0x1b /usr/bin/../lib/gcc/arm-none-eabi/7.2.1/../../../../arm-none-eabi/lib/thumb/v7e-m/fpv4-sp/hard/libg_nano.a(lib_a-strlen.o)
 .ARM.attributes
                0x00000000000014fc       0x34 /usr/bin/../lib/gcc/arm-none-eabi/7.2.1/../../../../arm-none-eabi/lib/thumb/v7e-m/fpv4-sp/hard/libg_nano.a(lib_a-strrchr.o)
 .ARM.attributes
                0x0000000000001530       0x34 /usr/bin/../lib/gcc/arm-none-eabi/7.2.1/../../../../arm-none-eabi/lib/thumb/v7e-m/fpv4-sp/hard/libg_nano.a(lib_a-mlock.o)
 .ARM.attributes
                0x0000000000001564       0x34 /usr/bin/../lib/gcc/arm-none-eabi/7.2.1/../../../../arm-none-eabi/lib/thumb/v7e-m/fpv4-sp/hard/libg_nano.a(lib_a-reent.o)
 .ARM.attributes
                0x0000000000001598       0x34 /usr/bin/../lib/gcc/arm-none-eabi/7.2.1/../../../../arm-none-eabi/lib/thumb/v7e-m/fpv4-sp/hard/libg_nano.a(lib_a-strchr.o)
 .ARM.attributes
                0x00000000000015cc       0x34 /usr/bin/../lib/gcc/arm-none-eabi/7.2.1/thumb/v7e-m/fpv4-sp/hard/crtend.o
 .ARM.attributes
                0x0000000000001600       0x22 /usr/bin/../lib/gcc/arm-none-eabi/7.2.1/thumb/v7e-m/fpv4-sp/hard/crtn.o
 .ARM.attributes
                0x0000000000001622       0x34 /usr/bin/../lib/gcc/arm-none-eabi/7.2.1/../../../../arm-none-eabi/lib/thumb/v7e-m/fpv4-sp/hard/libnosys.a(sbrk.o)
 .ARM.attributes
                0x0000000000001656       0x34 /usr/bin/../lib/gcc/arm-none-eabi/7.2.1/../../../../arm-none-eabi/lib/thumb/v7e-m/fpv4-sp/hard/libnosys.a(_exit.o)

.comment        0x0000000000000000       0x7e
 .comment       0x0000000000000000       0x7e CMakeFiles/light_switch_provisioner_nrf52832_xxAA_s132_6.0.0.dir/src/main.c.obj
                                         0x7f (size before relaxing)
 .comment       0x000000000000007e       0x7f CMakeFiles/light_switch_provisioner_nrf52832_xxAA_s132_6.0.0.dir/__/__/__/mesh/stack/src/mesh_stack.c.obj
 .comment       0x000000000000007e       0x7f CMakeFiles/light_switch_provisioner_nrf52832_xxAA_s132_6.0.0.dir/src/provisioner_helper.c.obj
 .comment       0x000000000000007e       0x7f CMakeFiles/light_switch_provisioner_nrf52832_xxAA_s132_6.0.0.dir/src/node_setup.c.obj
 .comment       0x000000000000007e       0x7f CMakeFiles/light_switch_provisioner_nrf52832_xxAA_s132_6.0.0.dir/__/__/common/src/mesh_softdevice_init.c.obj
 .comment       0x000000000000007e       0x7f CMakeFiles/light_switch_provisioner_nrf52832_xxAA_s132_6.0.0.dir/__/__/common/src/rtt_input.c.obj
 .comment       0x000000000000007e       0x7f CMakeFiles/light_switch_provisioner_nrf52832_xxAA_s132_6.0.0.dir/__/__/common/src/simple_hal.c.obj
 .comment       0x000000000000007e       0x7f CMakeFiles/light_switch_provisioner_nrf52832_xxAA_s132_6.0.0.dir/__/__/nrf_mesh_weak.c.obj
 .comment       0x000000000000007e       0x7f CMakeFiles/light_switch_provisioner_nrf52832_xxAA_s132_6.0.0.dir/__/__/common/src/app_error_weak.c.obj
 .comment       0x000000000000007e       0x7f CMakeFiles/light_switch_provisioner_nrf52832_xxAA_s132_6.0.0.dir/__/__/common/src/assertion_handler_weak.c.obj
 .comment       0x000000000000007e       0x7f CMakeFiles/light_switch_provisioner_nrf52832_xxAA_s132_6.0.0.dir/__/__/__/mesh/core/src/nrf_mesh_configure.c.obj
 .comment       0x000000000000007e       0x7f CMakeFiles/light_switch_provisioner_nrf52832_xxAA_s132_6.0.0.dir/__/__/__/mesh/core/src/aes.c.obj
 .comment       0x000000000000007e       0x7f CMakeFiles/light_switch_provisioner_nrf52832_xxAA_s132_6.0.0.dir/__/__/__/mesh/core/src/msg_cache.c.obj
 .comment       0x000000000000007e       0x7f CMakeFiles/light_switch_provisioner_nrf52832_xxAA_s132_6.0.0.dir/__/__/__/mesh/core/src/transport.c.obj
 .comment       0x000000000000007e       0x7f CMakeFiles/light_switch_provisioner_nrf52832_xxAA_s132_6.0.0.dir/__/__/__/mesh/core/src/event.c.obj
 .comment       0x000000000000007e       0x7f CMakeFiles/light_switch_provisioner_nrf52832_xxAA_s132_6.0.0.dir/__/__/__/mesh/core/src/packet_buffer.c.obj
 .comment       0x000000000000007e       0x7f CMakeFiles/light_switch_provisioner_nrf52832_xxAA_s132_6.0.0.dir/__/__/__/mesh/core/src/flash_manager_defrag.c.obj
 .comment       0x000000000000007e       0x7f CMakeFiles/light_switch_provisioner_nrf52832_xxAA_s132_6.0.0.dir/__/__/__/mesh/core/src/fifo.c.obj
 .comment       0x000000000000007e       0x7f CMakeFiles/light_switch_provisioner_nrf52832_xxAA_s132_6.0.0.dir/__/__/__/mesh/core/src/nrf_flash.c.obj
 .comment       0x000000000000007e       0x7f CMakeFiles/light_switch_provisioner_nrf52832_xxAA_s132_6.0.0.dir/__/__/__/mesh/core/src/packet_mgr.c.obj
 .comment       0x000000000000007e       0x7f CMakeFiles/light_switch_provisioner_nrf52832_xxAA_s132_6.0.0.dir/__/__/__/mesh/core/src/net_state.c.obj
 .comment       0x000000000000007e       0x7f CMakeFiles/light_switch_provisioner_nrf52832_xxAA_s132_6.0.0.dir/__/__/__/mesh/core/src/mesh_flash.c.obj
 .comment       0x000000000000007e       0x7f CMakeFiles/light_switch_provisioner_nrf52832_xxAA_s132_6.0.0.dir/__/__/__/mesh/core/src/nrf_mesh_utils.c.obj
 .comment       0x000000000000007e       0x7f CMakeFiles/light_switch_provisioner_nrf52832_xxAA_s132_6.0.0.dir/__/__/__/mesh/core/src/nrf_mesh.c.obj
 .comment       0x000000000000007e       0x7f CMakeFiles/light_switch_provisioner_nrf52832_xxAA_s132_6.0.0.dir/__/__/__/mesh/core/src/queue.c.obj
 .comment       0x000000000000007e       0x7f CMakeFiles/light_switch_provisioner_nrf52832_xxAA_s132_6.0.0.dir/__/__/__/mesh/core/src/hal.c.obj
 .comment       0x000000000000007e       0x7f CMakeFiles/light_switch_provisioner_nrf52832_xxAA_s132_6.0.0.dir/__/__/__/mesh/core/src/aes_cmac.c.obj
 .comment       0x000000000000007e       0x7f CMakeFiles/light_switch_provisioner_nrf52832_xxAA_s132_6.0.0.dir/__/__/__/mesh/core/src/timer_scheduler.c.obj
 .comment       0x000000000000007e       0x7f CMakeFiles/light_switch_provisioner_nrf52832_xxAA_s132_6.0.0.dir/__/__/__/mesh/core/src/timer.c.obj
 .comment       0x000000000000007e       0x7f CMakeFiles/light_switch_provisioner_nrf52832_xxAA_s132_6.0.0.dir/__/__/__/mesh/core/src/ticker.c.obj
 .comment       0x000000000000007e       0x7f CMakeFiles/light_switch_provisioner_nrf52832_xxAA_s132_6.0.0.dir/__/__/__/mesh/core/src/rand.c.obj
 .comment       0x000000000000007e       0x7f CMakeFiles/light_switch_provisioner_nrf52832_xxAA_s132_6.0.0.dir/__/__/__/mesh/core/src/nrf_mesh_opt.c.obj
 .comment       0x000000000000007e       0x7f CMakeFiles/light_switch_provisioner_nrf52832_xxAA_s132_6.0.0.dir/__/__/__/mesh/core/src/timeslot.c.obj
 .comment       0x000000000000007e       0x7f CMakeFiles/light_switch_provisioner_nrf52832_xxAA_s132_6.0.0.dir/__/__/__/mesh/core/src/bearer_event.c.obj
 .comment       0x000000000000007e       0x7f CMakeFiles/light_switch_provisioner_nrf52832_xxAA_s132_6.0.0.dir/__/__/__/mesh/core/src/enc.c.obj
 .comment       0x000000000000007e       0x7f CMakeFiles/light_switch_provisioner_nrf52832_xxAA_s132_6.0.0.dir/__/__/__/mesh/core/src/network.c.obj
 .comment       0x000000000000007e       0x7f CMakeFiles/light_switch_provisioner_nrf52832_xxAA_s132_6.0.0.dir/__/__/__/mesh/core/src/net_packet.c.obj
 .comment       0x000000000000007e       0x7f CMakeFiles/light_switch_provisioner_nrf52832_xxAA_s132_6.0.0.dir/__/__/__/mesh/core/src/msqueue.c.obj
 .comment       0x000000000000007e       0x7f CMakeFiles/light_switch_provisioner_nrf52832_xxAA_s132_6.0.0.dir/__/__/__/mesh/core/src/nrf_mesh_keygen.c.obj
 .comment       0x000000000000007e       0x7f CMakeFiles/light_switch_provisioner_nrf52832_xxAA_s132_6.0.0.dir/__/__/__/mesh/core/src/list.c.obj
 .comment       0x000000000000007e       0x7f CMakeFiles/light_switch_provisioner_nrf52832_xxAA_s132_6.0.0.dir/__/__/__/mesh/core/src/log.c.obj
 .comment       0x000000000000007e       0x7f CMakeFiles/light_switch_provisioner_nrf52832_xxAA_s132_6.0.0.dir/__/__/__/mesh/core/src/flash_manager.c.obj
 .comment       0x000000000000007e       0x7f CMakeFiles/light_switch_provisioner_nrf52832_xxAA_s132_6.0.0.dir/__/__/__/mesh/core/src/ccm_soft.c.obj
 .comment       0x000000000000007e       0x7f CMakeFiles/light_switch_provisioner_nrf52832_xxAA_s132_6.0.0.dir/__/__/__/mesh/core/src/replay_cache.c.obj
 .comment       0x000000000000007e       0x7f CMakeFiles/light_switch_provisioner_nrf52832_xxAA_s132_6.0.0.dir/__/__/__/mesh/core/src/beacon.c.obj
 .comment       0x000000000000007e       0x7f CMakeFiles/light_switch_provisioner_nrf52832_xxAA_s132_6.0.0.dir/__/__/__/mesh/core/src/flash_manager_internal.c.obj
 .comment       0x000000000000007e       0x7f CMakeFiles/light_switch_provisioner_nrf52832_xxAA_s132_6.0.0.dir/__/__/__/mesh/core/src/core_tx.c.obj
 .comment       0x000000000000007e       0x7f CMakeFiles/light_switch_provisioner_nrf52832_xxAA_s132_6.0.0.dir/__/__/__/mesh/core/src/heartbeat.c.obj
 .comment       0x000000000000007e       0x7f CMakeFiles/light_switch_provisioner_nrf52832_xxAA_s132_6.0.0.dir/__/__/__/mesh/core/src/net_beacon.c.obj
 .comment       0x000000000000007e       0x7f CMakeFiles/light_switch_provisioner_nrf52832_xxAA_s132_6.0.0.dir/__/__/__/mesh/core/src/core_tx_adv.c.obj
 .comment       0x000000000000007e       0x7f CMakeFiles/light_switch_provisioner_nrf52832_xxAA_s132_6.0.0.dir/__/__/__/mesh/bearer/src/ad_listener.c.obj
 .comment       0x000000000000007e       0x7f CMakeFiles/light_switch_provisioner_nrf52832_xxAA_s132_6.0.0.dir/__/__/__/mesh/bearer/src/ad_type_filter.c.obj
 .comment       0x000000000000007e       0x7f CMakeFiles/light_switch_provisioner_nrf52832_xxAA_s132_6.0.0.dir/__/__/__/mesh/bearer/src/advertiser.c.obj
 .comment       0x000000000000007e       0x7f CMakeFiles/light_switch_provisioner_nrf52832_xxAA_s132_6.0.0.dir/__/__/__/mesh/bearer/src/bearer_handler.c.obj
 .comment       0x000000000000007e       0x7f CMakeFiles/light_switch_provisioner_nrf52832_xxAA_s132_6.0.0.dir/__/__/__/mesh/bearer/src/broadcast.c.obj
 .comment       0x000000000000007e       0x7f CMakeFiles/light_switch_provisioner_nrf52832_xxAA_s132_6.0.0.dir/__/__/__/mesh/bearer/src/filter_engine.c.obj
 .comment       0x000000000000007e       0x7f CMakeFiles/light_switch_provisioner_nrf52832_xxAA_s132_6.0.0.dir/__/__/__/mesh/bearer/src/radio_config.c.obj
 .comment       0x000000000000007e       0x7f CMakeFiles/light_switch_provisioner_nrf52832_xxAA_s132_6.0.0.dir/__/__/__/mesh/bearer/src/scanner.c.obj
 .comment       0x000000000000007e       0x7f CMakeFiles/light_switch_provisioner_nrf52832_xxAA_s132_6.0.0.dir/__/__/__/models/config/src/config_client.c.obj
 .comment       0x000000000000007e       0x7f CMakeFiles/light_switch_provisioner_nrf52832_xxAA_s132_6.0.0.dir/__/__/__/models/config/src/composition_data.c.obj
 .comment       0x000000000000007e       0x7f CMakeFiles/light_switch_provisioner_nrf52832_xxAA_s132_6.0.0.dir/__/__/__/models/config/src/config_server.c.obj
 .comment       0x000000000000007e       0x7f CMakeFiles/light_switch_provisioner_nrf52832_xxAA_s132_6.0.0.dir/__/__/__/models/config/src/packed_index_list.c.obj
 .comment       0x000000000000007e       0x7f CMakeFiles/light_switch_provisioner_nrf52832_xxAA_s132_6.0.0.dir/__/__/__/models/health/src/health_server.c.obj
 .comment       0x000000000000007e       0x7f CMakeFiles/light_switch_provisioner_nrf52832_xxAA_s132_6.0.0.dir/__/__/__/models/health/src/health_client.c.obj
 .comment       0x000000000000007e       0x7f CMakeFiles/light_switch_provisioner_nrf52832_xxAA_s132_6.0.0.dir/__/__/__/mesh/access/src/access_publish.c.obj
 .comment       0x000000000000007e       0x7f CMakeFiles/light_switch_provisioner_nrf52832_xxAA_s132_6.0.0.dir/__/__/__/mesh/access/src/access.c.obj
 .comment       0x000000000000007e       0x7f CMakeFiles/light_switch_provisioner_nrf52832_xxAA_s132_6.0.0.dir/__/__/__/mesh/access/src/access_reliable.c.obj
 .comment       0x000000000000007e       0x7f CMakeFiles/light_switch_provisioner_nrf52832_xxAA_s132_6.0.0.dir/__/__/__/mesh/access/src/device_state_manager.c.obj
 .comment       0x000000000000007e       0x7f CMakeFiles/light_switch_provisioner_nrf52832_xxAA_s132_6.0.0.dir/__/__/__/mesh/prov/src/prov_provisioner.c.obj
 .comment       0x000000000000007e       0x7f CMakeFiles/light_switch_provisioner_nrf52832_xxAA_s132_6.0.0.dir/__/__/__/mesh/prov/src/nrf_mesh_prov.c.obj
 .comment       0x000000000000007e       0x7f CMakeFiles/light_switch_provisioner_nrf52832_xxAA_s132_6.0.0.dir/__/__/__/mesh/prov/src/provisioning.c.obj
 .comment       0x000000000000007e       0x7f CMakeFiles/light_switch_provisioner_nrf52832_xxAA_s132_6.0.0.dir/__/__/__/mesh/prov/src/prov_beacon.c.obj
 .comment       0x000000000000007e       0x7f CMakeFiles/light_switch_provisioner_nrf52832_xxAA_s132_6.0.0.dir/__/__/__/mesh/prov/src/prov_utils.c.obj
 .comment       0x000000000000007e       0x7f CMakeFiles/light_switch_provisioner_nrf52832_xxAA_s132_6.0.0.dir/__/__/__/mesh/prov/src/prov_bearer_adv.c.obj
 .comment       0x000000000000007e       0x7f CMakeFiles/light_switch_provisioner_nrf52832_xxAA_s132_6.0.0.dir/home/mazzer/work/nordic/sdk/nRF5_SDK_15.0.0/modules/nrfx/mdk/system_nrf52.c.obj
 .comment       0x000000000000007e       0x7f CMakeFiles/light_switch_provisioner_nrf52832_xxAA_s132_6.0.0.dir/home/mazzer/work/nordic/sdk/nRF5_SDK_15.0.0/components/libraries/util/app_error_handler_gcc.c.obj
 .comment       0x000000000000007e       0x7f ../../../external/rtt/librtt_nrf52832_xxAA.a(SEGGER_RTT.c.obj)
 .comment       0x000000000000007e       0x7f ../../../external/rtt/librtt_nrf52832_xxAA.a(SEGGER_RTT_printf.c.obj)
 .comment       0x000000000000007e       0x7f ../../../external/micro-ecc/libuECC_nrf52832_xxAA.a(uECC.c.obj)

.debug_info     0x0000000000000000    0xa07e5
 .debug_info    0x0000000000000000     0x6677 CMakeFiles/light_switch_provisioner_nrf52832_xxAA_s132_6.0.0.dir/src/main.c.obj
 .debug_info    0x0000000000006677     0x2346 CMakeFiles/light_switch_provisioner_nrf52832_xxAA_s132_6.0.0.dir/__/__/__/mesh/stack/src/mesh_stack.c.obj
 .debug_info    0x00000000000089bd     0x3c10 CMakeFiles/light_switch_provisioner_nrf52832_xxAA_s132_6.0.0.dir/src/provisioner_helper.c.obj
 .debug_info    0x000000000000c5cd     0x3470 CMakeFiles/light_switch_provisioner_nrf52832_xxAA_s132_6.0.0.dir/src/node_setup.c.obj
 .debug_info    0x000000000000fa3d     0x17aa CMakeFiles/light_switch_provisioner_nrf52832_xxAA_s132_6.0.0.dir/__/__/common/src/mesh_softdevice_init.c.obj
 .debug_info    0x00000000000111e7     0x1169 CMakeFiles/light_switch_provisioner_nrf52832_xxAA_s132_6.0.0.dir/__/__/common/src/rtt_input.c.obj
 .debug_info    0x0000000000012350     0x1572 CMakeFiles/light_switch_provisioner_nrf52832_xxAA_s132_6.0.0.dir/__/__/common/src/simple_hal.c.obj
 .debug_info    0x00000000000138c2      0x91d CMakeFiles/light_switch_provisioner_nrf52832_xxAA_s132_6.0.0.dir/__/__/nrf_mesh_weak.c.obj
 .debug_info    0x00000000000141df     0x1170 CMakeFiles/light_switch_provisioner_nrf52832_xxAA_s132_6.0.0.dir/__/__/common/src/app_error_weak.c.obj
 .debug_info    0x000000000001534f      0x994 CMakeFiles/light_switch_provisioner_nrf52832_xxAA_s132_6.0.0.dir/__/__/common/src/assertion_handler_weak.c.obj
 .debug_info    0x0000000000015ce3      0xcfd CMakeFiles/light_switch_provisioner_nrf52832_xxAA_s132_6.0.0.dir/__/__/__/mesh/core/src/nrf_mesh_configure.c.obj
 .debug_info    0x00000000000169e0      0xbcc CMakeFiles/light_switch_provisioner_nrf52832_xxAA_s132_6.0.0.dir/__/__/__/mesh/core/src/aes.c.obj
 .debug_info    0x00000000000175ac      0xa51 CMakeFiles/light_switch_provisioner_nrf52832_xxAA_s132_6.0.0.dir/__/__/__/mesh/core/src/msg_cache.c.obj
 .debug_info    0x0000000000017ffd     0x6184 CMakeFiles/light_switch_provisioner_nrf52832_xxAA_s132_6.0.0.dir/__/__/__/mesh/core/src/transport.c.obj
 .debug_info    0x000000000001e181     0x1763 CMakeFiles/light_switch_provisioner_nrf52832_xxAA_s132_6.0.0.dir/__/__/__/mesh/core/src/event.c.obj
 .debug_info    0x000000000001f8e4     0x19a8 CMakeFiles/light_switch_provisioner_nrf52832_xxAA_s132_6.0.0.dir/__/__/__/mesh/core/src/packet_buffer.c.obj
 .debug_info    0x000000000002128c     0x2372 CMakeFiles/light_switch_provisioner_nrf52832_xxAA_s132_6.0.0.dir/__/__/__/mesh/core/src/flash_manager_defrag.c.obj
 .debug_info    0x00000000000235fe      0xd9a CMakeFiles/light_switch_provisioner_nrf52832_xxAA_s132_6.0.0.dir/__/__/__/mesh/core/src/fifo.c.obj
 .debug_info    0x0000000000024398      0xb38 CMakeFiles/light_switch_provisioner_nrf52832_xxAA_s132_6.0.0.dir/__/__/__/mesh/core/src/nrf_flash.c.obj
 .debug_info    0x0000000000024ed0     0x118f CMakeFiles/light_switch_provisioner_nrf52832_xxAA_s132_6.0.0.dir/__/__/__/mesh/core/src/packet_mgr.c.obj
 .debug_info    0x000000000002605f     0x3735 CMakeFiles/light_switch_provisioner_nrf52832_xxAA_s132_6.0.0.dir/__/__/__/mesh/core/src/net_state.c.obj
 .debug_info    0x0000000000029794     0x1be8 CMakeFiles/light_switch_provisioner_nrf52832_xxAA_s132_6.0.0.dir/__/__/__/mesh/core/src/mesh_flash.c.obj
 .debug_info    0x000000000002b37c      0xa72 CMakeFiles/light_switch_provisioner_nrf52832_xxAA_s132_6.0.0.dir/__/__/__/mesh/core/src/nrf_mesh_utils.c.obj
 .debug_info    0x000000000002bdee     0x2678 CMakeFiles/light_switch_provisioner_nrf52832_xxAA_s132_6.0.0.dir/__/__/__/mesh/core/src/nrf_mesh.c.obj
 .debug_info    0x000000000002e466      0xb10 CMakeFiles/light_switch_provisioner_nrf52832_xxAA_s132_6.0.0.dir/__/__/__/mesh/core/src/queue.c.obj
 .debug_info    0x000000000002ef76      0x549 CMakeFiles/light_switch_provisioner_nrf52832_xxAA_s132_6.0.0.dir/__/__/__/mesh/core/src/hal.c.obj
 .debug_info    0x000000000002f4bf      0xe8f CMakeFiles/light_switch_provisioner_nrf52832_xxAA_s132_6.0.0.dir/__/__/__/mesh/core/src/aes_cmac.c.obj
 .debug_info    0x000000000003034e     0x13bd CMakeFiles/light_switch_provisioner_nrf52832_xxAA_s132_6.0.0.dir/__/__/__/mesh/core/src/timer_scheduler.c.obj
 .debug_info    0x000000000003170b      0xdfa CMakeFiles/light_switch_provisioner_nrf52832_xxAA_s132_6.0.0.dir/__/__/__/mesh/core/src/timer.c.obj
 .debug_info    0x0000000000032505      0x20c CMakeFiles/light_switch_provisioner_nrf52832_xxAA_s132_6.0.0.dir/__/__/__/mesh/core/src/ticker.c.obj
 .debug_info    0x0000000000032711      0x4b6 CMakeFiles/light_switch_provisioner_nrf52832_xxAA_s132_6.0.0.dir/__/__/__/mesh/core/src/rand.c.obj
 .debug_info    0x0000000000032bc7      0xaef CMakeFiles/light_switch_provisioner_nrf52832_xxAA_s132_6.0.0.dir/__/__/__/mesh/core/src/nrf_mesh_opt.c.obj
 .debug_info    0x00000000000336b6     0x1bc6 CMakeFiles/light_switch_provisioner_nrf52832_xxAA_s132_6.0.0.dir/__/__/__/mesh/core/src/timeslot.c.obj
 .debug_info    0x000000000003527c     0x1c7b CMakeFiles/light_switch_provisioner_nrf52832_xxAA_s132_6.0.0.dir/__/__/__/mesh/core/src/bearer_event.c.obj
 .debug_info    0x0000000000036ef7     0x181f CMakeFiles/light_switch_provisioner_nrf52832_xxAA_s132_6.0.0.dir/__/__/__/mesh/core/src/enc.c.obj
 .debug_info    0x0000000000038716     0x1cc0 CMakeFiles/light_switch_provisioner_nrf52832_xxAA_s132_6.0.0.dir/__/__/__/mesh/core/src/network.c.obj
 .debug_info    0x000000000003a3d6     0x1de3 CMakeFiles/light_switch_provisioner_nrf52832_xxAA_s132_6.0.0.dir/__/__/__/mesh/core/src/net_packet.c.obj
 .debug_info    0x000000000003c1b9      0xe51 CMakeFiles/light_switch_provisioner_nrf52832_xxAA_s132_6.0.0.dir/__/__/__/mesh/core/src/msqueue.c.obj
 .debug_info    0x000000000003d00a      0x4c0 CMakeFiles/light_switch_provisioner_nrf52832_xxAA_s132_6.0.0.dir/__/__/__/mesh/core/src/nrf_mesh_keygen.c.obj
 .debug_info    0x000000000003d4ca      0x573 CMakeFiles/light_switch_provisioner_nrf52832_xxAA_s132_6.0.0.dir/__/__/__/mesh/core/src/list.c.obj
 .debug_info    0x000000000003da3d      0xe8b CMakeFiles/light_switch_provisioner_nrf52832_xxAA_s132_6.0.0.dir/__/__/__/mesh/core/src/log.c.obj
 .debug_info    0x000000000003e8c8     0x3cc6 CMakeFiles/light_switch_provisioner_nrf52832_xxAA_s132_6.0.0.dir/__/__/__/mesh/core/src/flash_manager.c.obj
 .debug_info    0x000000000004258e     0x120f CMakeFiles/light_switch_provisioner_nrf52832_xxAA_s132_6.0.0.dir/__/__/__/mesh/core/src/ccm_soft.c.obj
 .debug_info    0x000000000004379d      0xa87 CMakeFiles/light_switch_provisioner_nrf52832_xxAA_s132_6.0.0.dir/__/__/__/mesh/core/src/replay_cache.c.obj
 .debug_info    0x0000000000044224     0x17c2 CMakeFiles/light_switch_provisioner_nrf52832_xxAA_s132_6.0.0.dir/__/__/__/mesh/core/src/beacon.c.obj
 .debug_info    0x00000000000459e6      0xb98 CMakeFiles/light_switch_provisioner_nrf52832_xxAA_s132_6.0.0.dir/__/__/__/mesh/core/src/flash_manager_internal.c.obj
 .debug_info    0x000000000004657e     0x1264 CMakeFiles/light_switch_provisioner_nrf52832_xxAA_s132_6.0.0.dir/__/__/__/mesh/core/src/core_tx.c.obj
 .debug_info    0x00000000000477e2     0x24e7 CMakeFiles/light_switch_provisioner_nrf52832_xxAA_s132_6.0.0.dir/__/__/__/mesh/core/src/heartbeat.c.obj
 .debug_info    0x0000000000049cc9     0x2a3c CMakeFiles/light_switch_provisioner_nrf52832_xxAA_s132_6.0.0.dir/__/__/__/mesh/core/src/net_beacon.c.obj
 .debug_info    0x000000000004c705     0x197e CMakeFiles/light_switch_provisioner_nrf52832_xxAA_s132_6.0.0.dir/__/__/__/mesh/core/src/core_tx_adv.c.obj
 .debug_info    0x000000000004e083     0x116a CMakeFiles/light_switch_provisioner_nrf52832_xxAA_s132_6.0.0.dir/__/__/__/mesh/bearer/src/ad_listener.c.obj
 .debug_info    0x000000000004f1ed      0xfc4 CMakeFiles/light_switch_provisioner_nrf52832_xxAA_s132_6.0.0.dir/__/__/__/mesh/bearer/src/ad_type_filter.c.obj
 .debug_info    0x00000000000501b1     0x29fb CMakeFiles/light_switch_provisioner_nrf52832_xxAA_s132_6.0.0.dir/__/__/__/mesh/bearer/src/advertiser.c.obj
 .debug_info    0x0000000000052bac     0x1a38 CMakeFiles/light_switch_provisioner_nrf52832_xxAA_s132_6.0.0.dir/__/__/__/mesh/bearer/src/bearer_handler.c.obj
 .debug_info    0x00000000000545e4     0x19a6 CMakeFiles/light_switch_provisioner_nrf52832_xxAA_s132_6.0.0.dir/__/__/__/mesh/bearer/src/broadcast.c.obj
 .debug_info    0x0000000000055f8a      0xd3e CMakeFiles/light_switch_provisioner_nrf52832_xxAA_s132_6.0.0.dir/__/__/__/mesh/bearer/src/filter_engine.c.obj
 .debug_info    0x0000000000056cc8      0x8d7 CMakeFiles/light_switch_provisioner_nrf52832_xxAA_s132_6.0.0.dir/__/__/__/mesh/bearer/src/radio_config.c.obj
 .debug_info    0x000000000005759f     0x2c83 CMakeFiles/light_switch_provisioner_nrf52832_xxAA_s132_6.0.0.dir/__/__/__/mesh/bearer/src/scanner.c.obj
 .debug_info    0x000000000005a222     0x5af8 CMakeFiles/light_switch_provisioner_nrf52832_xxAA_s132_6.0.0.dir/__/__/__/models/config/src/config_client.c.obj
 .debug_info    0x000000000005fd1a      0xee0 CMakeFiles/light_switch_provisioner_nrf52832_xxAA_s132_6.0.0.dir/__/__/__/models/config/src/composition_data.c.obj
 .debug_info    0x0000000000060bfa     0xc320 CMakeFiles/light_switch_provisioner_nrf52832_xxAA_s132_6.0.0.dir/__/__/__/models/config/src/config_server.c.obj
 .debug_info    0x000000000006cf1a      0x126 CMakeFiles/light_switch_provisioner_nrf52832_xxAA_s132_6.0.0.dir/__/__/__/models/config/src/packed_index_list.c.obj
 .debug_info    0x000000000006d040     0x2e65 CMakeFiles/light_switch_provisioner_nrf52832_xxAA_s132_6.0.0.dir/__/__/__/models/health/src/health_server.c.obj
 .debug_info    0x000000000006fea5     0x2123 CMakeFiles/light_switch_provisioner_nrf52832_xxAA_s132_6.0.0.dir/__/__/__/models/health/src/health_client.c.obj
 .debug_info    0x0000000000071fc8     0x12cf CMakeFiles/light_switch_provisioner_nrf52832_xxAA_s132_6.0.0.dir/__/__/__/mesh/access/src/access_publish.c.obj
 .debug_info    0x0000000000073297     0x56ab CMakeFiles/light_switch_provisioner_nrf52832_xxAA_s132_6.0.0.dir/__/__/__/mesh/access/src/access.c.obj
 .debug_info    0x0000000000078942     0x1bbb CMakeFiles/light_switch_provisioner_nrf52832_xxAA_s132_6.0.0.dir/__/__/__/mesh/access/src/access_reliable.c.obj
 .debug_info    0x000000000007a4fd     0x8baa CMakeFiles/light_switch_provisioner_nrf52832_xxAA_s132_6.0.0.dir/__/__/__/mesh/access/src/device_state_manager.c.obj
 .debug_info    0x00000000000830a7     0x26b6 CMakeFiles/light_switch_provisioner_nrf52832_xxAA_s132_6.0.0.dir/__/__/__/mesh/prov/src/prov_provisioner.c.obj
 .debug_info    0x000000000008575d     0x1fa2 CMakeFiles/light_switch_provisioner_nrf52832_xxAA_s132_6.0.0.dir/__/__/__/mesh/prov/src/nrf_mesh_prov.c.obj
 .debug_info    0x00000000000876ff     0x18dc CMakeFiles/light_switch_provisioner_nrf52832_xxAA_s132_6.0.0.dir/__/__/__/mesh/prov/src/provisioning.c.obj
 .debug_info    0x0000000000088fdb     0x1a93 CMakeFiles/light_switch_provisioner_nrf52832_xxAA_s132_6.0.0.dir/__/__/__/mesh/prov/src/prov_beacon.c.obj
 .debug_info    0x000000000008aa6e     0x2108 CMakeFiles/light_switch_provisioner_nrf52832_xxAA_s132_6.0.0.dir/__/__/__/mesh/prov/src/prov_utils.c.obj
 .debug_info    0x000000000008cb76     0x4a03 CMakeFiles/light_switch_provisioner_nrf52832_xxAA_s132_6.0.0.dir/__/__/__/mesh/prov/src/prov_bearer_adv.c.obj
 .debug_info    0x0000000000091579     0x1116 CMakeFiles/light_switch_provisioner_nrf52832_xxAA_s132_6.0.0.dir/home/mazzer/work/nordic/sdk/nRF5_SDK_15.0.0/modules/nrfx/mdk/system_nrf52.c.obj
 .debug_info    0x000000000009268f       0x26 CMakeFiles/light_switch_provisioner_nrf52832_xxAA_s132_6.0.0.dir/home/mazzer/work/nordic/sdk/nRF5_SDK_15.0.0/modules/nrfx/mdk/gcc_startup_nrf52.S.obj
 .debug_info    0x00000000000926b5      0x96d CMakeFiles/light_switch_provisioner_nrf52832_xxAA_s132_6.0.0.dir/home/mazzer/work/nordic/sdk/nRF5_SDK_15.0.0/components/libraries/util/app_error_handler_gcc.c.obj
 .debug_info    0x0000000000093022     0x2b01 ../../../external/rtt/librtt_nrf52832_xxAA.a(SEGGER_RTT.c.obj)
 .debug_info    0x0000000000095b23     0x11e1 ../../../external/rtt/librtt_nrf52832_xxAA.a(SEGGER_RTT_printf.c.obj)
 .debug_info    0x0000000000096d04     0x9ae1 ../../../external/micro-ecc/libuECC_nrf52832_xxAA.a(uECC.c.obj)

.debug_abbrev   0x0000000000000000    0x11d72
 .debug_abbrev  0x0000000000000000      0x659 CMakeFiles/light_switch_provisioner_nrf52832_xxAA_s132_6.0.0.dir/src/main.c.obj
 .debug_abbrev  0x0000000000000659      0x3b3 CMakeFiles/light_switch_provisioner_nrf52832_xxAA_s132_6.0.0.dir/__/__/__/mesh/stack/src/mesh_stack.c.obj
 .debug_abbrev  0x0000000000000a0c      0x4b6 CMakeFiles/light_switch_provisioner_nrf52832_xxAA_s132_6.0.0.dir/src/provisioner_helper.c.obj
 .debug_abbrev  0x0000000000000ec2      0x4fc CMakeFiles/light_switch_provisioner_nrf52832_xxAA_s132_6.0.0.dir/src/node_setup.c.obj
 .debug_abbrev  0x00000000000013be      0x408 CMakeFiles/light_switch_provisioner_nrf52832_xxAA_s132_6.0.0.dir/__/__/common/src/mesh_softdevice_init.c.obj
 .debug_abbrev  0x00000000000017c6      0x2ba CMakeFiles/light_switch_provisioner_nrf52832_xxAA_s132_6.0.0.dir/__/__/common/src/rtt_input.c.obj
 .debug_abbrev  0x0000000000001a80      0x372 CMakeFiles/light_switch_provisioner_nrf52832_xxAA_s132_6.0.0.dir/__/__/common/src/simple_hal.c.obj
 .debug_abbrev  0x0000000000001df2      0x1ae CMakeFiles/light_switch_provisioner_nrf52832_xxAA_s132_6.0.0.dir/__/__/nrf_mesh_weak.c.obj
 .debug_abbrev  0x0000000000001fa0      0x2d5 CMakeFiles/light_switch_provisioner_nrf52832_xxAA_s132_6.0.0.dir/__/__/common/src/app_error_weak.c.obj
 .debug_abbrev  0x0000000000002275      0x1f6 CMakeFiles/light_switch_provisioner_nrf52832_xxAA_s132_6.0.0.dir/__/__/common/src/assertion_handler_weak.c.obj
 .debug_abbrev  0x000000000000246b      0x24b CMakeFiles/light_switch_provisioner_nrf52832_xxAA_s132_6.0.0.dir/__/__/__/mesh/core/src/nrf_mesh_configure.c.obj
 .debug_abbrev  0x00000000000026b6      0x266 CMakeFiles/light_switch_provisioner_nrf52832_xxAA_s132_6.0.0.dir/__/__/__/mesh/core/src/aes.c.obj
 .debug_abbrev  0x000000000000291c      0x24e CMakeFiles/light_switch_provisioner_nrf52832_xxAA_s132_6.0.0.dir/__/__/__/mesh/core/src/msg_cache.c.obj
 .debug_abbrev  0x0000000000002b6a      0x5f7 CMakeFiles/light_switch_provisioner_nrf52832_xxAA_s132_6.0.0.dir/__/__/__/mesh/core/src/transport.c.obj
 .debug_abbrev  0x0000000000003161      0x2d2 CMakeFiles/light_switch_provisioner_nrf52832_xxAA_s132_6.0.0.dir/__/__/__/mesh/core/src/event.c.obj
 .debug_abbrev  0x0000000000003433      0x44c CMakeFiles/light_switch_provisioner_nrf52832_xxAA_s132_6.0.0.dir/__/__/__/mesh/core/src/packet_buffer.c.obj
 .debug_abbrev  0x000000000000387f      0x526 CMakeFiles/light_switch_provisioner_nrf52832_xxAA_s132_6.0.0.dir/__/__/__/mesh/core/src/flash_manager_defrag.c.obj
 .debug_abbrev  0x0000000000003da5      0x2fc CMakeFiles/light_switch_provisioner_nrf52832_xxAA_s132_6.0.0.dir/__/__/__/mesh/core/src/fifo.c.obj
 .debug_abbrev  0x00000000000040a1      0x22d CMakeFiles/light_switch_provisioner_nrf52832_xxAA_s132_6.0.0.dir/__/__/__/mesh/core/src/nrf_flash.c.obj
 .debug_abbrev  0x00000000000042ce      0x3bf CMakeFiles/light_switch_provisioner_nrf52832_xxAA_s132_6.0.0.dir/__/__/__/mesh/core/src/packet_mgr.c.obj
 .debug_abbrev  0x000000000000468d      0x5a6 CMakeFiles/light_switch_provisioner_nrf52832_xxAA_s132_6.0.0.dir/__/__/__/mesh/core/src/net_state.c.obj
 .debug_abbrev  0x0000000000004c33      0x467 CMakeFiles/light_switch_provisioner_nrf52832_xxAA_s132_6.0.0.dir/__/__/__/mesh/core/src/mesh_flash.c.obj
 .debug_abbrev  0x000000000000509a      0x244 CMakeFiles/light_switch_provisioner_nrf52832_xxAA_s132_6.0.0.dir/__/__/__/mesh/core/src/nrf_mesh_utils.c.obj
 .debug_abbrev  0x00000000000052de      0x47a CMakeFiles/light_switch_provisioner_nrf52832_xxAA_s132_6.0.0.dir/__/__/__/mesh/core/src/nrf_mesh.c.obj
 .debug_abbrev  0x0000000000005758      0x247 CMakeFiles/light_switch_provisioner_nrf52832_xxAA_s132_6.0.0.dir/__/__/__/mesh/core/src/queue.c.obj
 .debug_abbrev  0x000000000000599f      0x1ed CMakeFiles/light_switch_provisioner_nrf52832_xxAA_s132_6.0.0.dir/__/__/__/mesh/core/src/hal.c.obj
 .debug_abbrev  0x0000000000005b8c      0x2e3 CMakeFiles/light_switch_provisioner_nrf52832_xxAA_s132_6.0.0.dir/__/__/__/mesh/core/src/aes_cmac.c.obj
 .debug_abbrev  0x0000000000005e6f      0x3f7 CMakeFiles/light_switch_provisioner_nrf52832_xxAA_s132_6.0.0.dir/__/__/__/mesh/core/src/timer_scheduler.c.obj
 .debug_abbrev  0x0000000000006266      0x378 CMakeFiles/light_switch_provisioner_nrf52832_xxAA_s132_6.0.0.dir/__/__/__/mesh/core/src/timer.c.obj
 .debug_abbrev  0x00000000000065de      0x154 CMakeFiles/light_switch_provisioner_nrf52832_xxAA_s132_6.0.0.dir/__/__/__/mesh/core/src/ticker.c.obj
 .debug_abbrev  0x0000000000006732      0x22e CMakeFiles/light_switch_provisioner_nrf52832_xxAA_s132_6.0.0.dir/__/__/__/mesh/core/src/rand.c.obj
 .debug_abbrev  0x0000000000006960      0x24c CMakeFiles/light_switch_provisioner_nrf52832_xxAA_s132_6.0.0.dir/__/__/__/mesh/core/src/nrf_mesh_opt.c.obj
 .debug_abbrev  0x0000000000006bac      0x4e5 CMakeFiles/light_switch_provisioner_nrf52832_xxAA_s132_6.0.0.dir/__/__/__/mesh/core/src/timeslot.c.obj
 .debug_abbrev  0x0000000000007091      0x4f9 CMakeFiles/light_switch_provisioner_nrf52832_xxAA_s132_6.0.0.dir/__/__/__/mesh/core/src/bearer_event.c.obj
 .debug_abbrev  0x000000000000758a      0x39b CMakeFiles/light_switch_provisioner_nrf52832_xxAA_s132_6.0.0.dir/__/__/__/mesh/core/src/enc.c.obj
 .debug_abbrev  0x0000000000007925      0x4e2 CMakeFiles/light_switch_provisioner_nrf52832_xxAA_s132_6.0.0.dir/__/__/__/mesh/core/src/network.c.obj
 .debug_abbrev  0x0000000000007e07      0x4a1 CMakeFiles/light_switch_provisioner_nrf52832_xxAA_s132_6.0.0.dir/__/__/__/mesh/core/src/net_packet.c.obj
 .debug_abbrev  0x00000000000082a8      0x2e9 CMakeFiles/light_switch_provisioner_nrf52832_xxAA_s132_6.0.0.dir/__/__/__/mesh/core/src/msqueue.c.obj
 .debug_abbrev  0x0000000000008591      0x156 CMakeFiles/light_switch_provisioner_nrf52832_xxAA_s132_6.0.0.dir/__/__/__/mesh/core/src/nrf_mesh_keygen.c.obj
 .debug_abbrev  0x00000000000086e7      0x1ec CMakeFiles/light_switch_provisioner_nrf52832_xxAA_s132_6.0.0.dir/__/__/__/mesh/core/src/list.c.obj
 .debug_abbrev  0x00000000000088d3      0x2b4 CMakeFiles/light_switch_provisioner_nrf52832_xxAA_s132_6.0.0.dir/__/__/__/mesh/core/src/log.c.obj
 .debug_abbrev  0x0000000000008b87      0x538 CMakeFiles/light_switch_provisioner_nrf52832_xxAA_s132_6.0.0.dir/__/__/__/mesh/core/src/flash_manager.c.obj
 .debug_abbrev  0x00000000000090bf      0x2f5 CMakeFiles/light_switch_provisioner_nrf52832_xxAA_s132_6.0.0.dir/__/__/__/mesh/core/src/ccm_soft.c.obj
 .debug_abbrev  0x00000000000093b4      0x29b CMakeFiles/light_switch_provisioner_nrf52832_xxAA_s132_6.0.0.dir/__/__/__/mesh/core/src/replay_cache.c.obj
 .debug_abbrev  0x000000000000964f      0x310 CMakeFiles/light_switch_provisioner_nrf52832_xxAA_s132_6.0.0.dir/__/__/__/mesh/core/src/beacon.c.obj
 .debug_abbrev  0x000000000000995f      0x2a4 CMakeFiles/light_switch_provisioner_nrf52832_xxAA_s132_6.0.0.dir/__/__/__/mesh/core/src/flash_manager_internal.c.obj
 .debug_abbrev  0x0000000000009c03      0x2fc CMakeFiles/light_switch_provisioner_nrf52832_xxAA_s132_6.0.0.dir/__/__/__/mesh/core/src/core_tx.c.obj
 .debug_abbrev  0x0000000000009eff      0x4e3 CMakeFiles/light_switch_provisioner_nrf52832_xxAA_s132_6.0.0.dir/__/__/__/mesh/core/src/heartbeat.c.obj
 .debug_abbrev  0x000000000000a3e2      0x512 CMakeFiles/light_switch_provisioner_nrf52832_xxAA_s132_6.0.0.dir/__/__/__/mesh/core/src/net_beacon.c.obj
 .debug_abbrev  0x000000000000a8f4      0x330 CMakeFiles/light_switch_provisioner_nrf52832_xxAA_s132_6.0.0.dir/__/__/__/mesh/core/src/core_tx_adv.c.obj
 .debug_abbrev  0x000000000000ac24      0x340 CMakeFiles/light_switch_provisioner_nrf52832_xxAA_s132_6.0.0.dir/__/__/__/mesh/bearer/src/ad_listener.c.obj
 .debug_abbrev  0x000000000000af64      0x375 CMakeFiles/light_switch_provisioner_nrf52832_xxAA_s132_6.0.0.dir/__/__/__/mesh/bearer/src/ad_type_filter.c.obj
 .debug_abbrev  0x000000000000b2d9      0x561 CMakeFiles/light_switch_provisioner_nrf52832_xxAA_s132_6.0.0.dir/__/__/__/mesh/bearer/src/advertiser.c.obj
 .debug_abbrev  0x000000000000b83a      0x3fa CMakeFiles/light_switch_provisioner_nrf52832_xxAA_s132_6.0.0.dir/__/__/__/mesh/bearer/src/bearer_handler.c.obj
 .debug_abbrev  0x000000000000bc34      0x3eb CMakeFiles/light_switch_provisioner_nrf52832_xxAA_s132_6.0.0.dir/__/__/__/mesh/bearer/src/broadcast.c.obj
 .debug_abbrev  0x000000000000c01f      0x2af CMakeFiles/light_switch_provisioner_nrf52832_xxAA_s132_6.0.0.dir/__/__/__/mesh/bearer/src/filter_engine.c.obj
 .debug_abbrev  0x000000000000c2ce      0x1e4 CMakeFiles/light_switch_provisioner_nrf52832_xxAA_s132_6.0.0.dir/__/__/__/mesh/bearer/src/radio_config.c.obj
 .debug_abbrev  0x000000000000c4b2      0x59f CMakeFiles/light_switch_provisioner_nrf52832_xxAA_s132_6.0.0.dir/__/__/__/mesh/bearer/src/scanner.c.obj
 .debug_abbrev  0x000000000000ca51      0x561 CMakeFiles/light_switch_provisioner_nrf52832_xxAA_s132_6.0.0.dir/__/__/__/models/config/src/config_client.c.obj
 .debug_abbrev  0x000000000000cfb2      0x2e4 CMakeFiles/light_switch_provisioner_nrf52832_xxAA_s132_6.0.0.dir/__/__/__/models/config/src/composition_data.c.obj
 .debug_abbrev  0x000000000000d296      0x56c CMakeFiles/light_switch_provisioner_nrf52832_xxAA_s132_6.0.0.dir/__/__/__/models/config/src/config_server.c.obj
 .debug_abbrev  0x000000000000d802       0x95 CMakeFiles/light_switch_provisioner_nrf52832_xxAA_s132_6.0.0.dir/__/__/__/models/config/src/packed_index_list.c.obj
 .debug_abbrev  0x000000000000d897      0x505 CMakeFiles/light_switch_provisioner_nrf52832_xxAA_s132_6.0.0.dir/__/__/__/models/health/src/health_server.c.obj
 .debug_abbrev  0x000000000000dd9c      0x419 CMakeFiles/light_switch_provisioner_nrf52832_xxAA_s132_6.0.0.dir/__/__/__/models/health/src/health_client.c.obj
 .debug_abbrev  0x000000000000e1b5      0x423 CMakeFiles/light_switch_provisioner_nrf52832_xxAA_s132_6.0.0.dir/__/__/__/mesh/access/src/access_publish.c.obj
 .debug_abbrev  0x000000000000e5d8      0x66d CMakeFiles/light_switch_provisioner_nrf52832_xxAA_s132_6.0.0.dir/__/__/__/mesh/access/src/access.c.obj
 .debug_abbrev  0x000000000000ec45      0x448 CMakeFiles/light_switch_provisioner_nrf52832_xxAA_s132_6.0.0.dir/__/__/__/mesh/access/src/access_reliable.c.obj
 .debug_abbrev  0x000000000000f08d      0x5a8 CMakeFiles/light_switch_provisioner_nrf52832_xxAA_s132_6.0.0.dir/__/__/__/mesh/access/src/device_state_manager.c.obj
 .debug_abbrev  0x000000000000f635      0x404 CMakeFiles/light_switch_provisioner_nrf52832_xxAA_s132_6.0.0.dir/__/__/__/mesh/prov/src/prov_provisioner.c.obj
 .debug_abbrev  0x000000000000fa39      0x450 CMakeFiles/light_switch_provisioner_nrf52832_xxAA_s132_6.0.0.dir/__/__/__/mesh/prov/src/nrf_mesh_prov.c.obj
 .debug_abbrev  0x000000000000fe89      0x2e6 CMakeFiles/light_switch_provisioner_nrf52832_xxAA_s132_6.0.0.dir/__/__/__/mesh/prov/src/provisioning.c.obj
 .debug_abbrev  0x000000000001016f      0x2fc CMakeFiles/light_switch_provisioner_nrf52832_xxAA_s132_6.0.0.dir/__/__/__/mesh/prov/src/prov_beacon.c.obj
 .debug_abbrev  0x000000000001046b      0x3f3 CMakeFiles/light_switch_provisioner_nrf52832_xxAA_s132_6.0.0.dir/__/__/__/mesh/prov/src/prov_utils.c.obj
 .debug_abbrev  0x000000000001085e      0x55d CMakeFiles/light_switch_provisioner_nrf52832_xxAA_s132_6.0.0.dir/__/__/__/mesh/prov/src/prov_bearer_adv.c.obj
 .debug_abbrev  0x0000000000010dbb      0x1df CMakeFiles/light_switch_provisioner_nrf52832_xxAA_s132_6.0.0.dir/home/mazzer/work/nordic/sdk/nRF5_SDK_15.0.0/modules/nrfx/mdk/system_nrf52.c.obj
 .debug_abbrev  0x0000000000010f9a       0x14 CMakeFiles/light_switch_provisioner_nrf52832_xxAA_s132_6.0.0.dir/home/mazzer/work/nordic/sdk/nRF5_SDK_15.0.0/modules/nrfx/mdk/gcc_startup_nrf52.S.obj
 .debug_abbrev  0x0000000000010fae      0x1bd CMakeFiles/light_switch_provisioner_nrf52832_xxAA_s132_6.0.0.dir/home/mazzer/work/nordic/sdk/nRF5_SDK_15.0.0/components/libraries/util/app_error_handler_gcc.c.obj
 .debug_abbrev  0x000000000001116b      0x3d2 ../../../external/rtt/librtt_nrf52832_xxAA.a(SEGGER_RTT.c.obj)
 .debug_abbrev  0x000000000001153d      0x353 ../../../external/rtt/librtt_nrf52832_xxAA.a(SEGGER_RTT_printf.c.obj)
 .debug_abbrev  0x0000000000011890      0x4e2 ../../../external/micro-ecc/libuECC_nrf52832_xxAA.a(uECC.c.obj)

.debug_loc      0x0000000000000000    0x4da1e
 .debug_loc     0x0000000000000000     0x11c8 CMakeFiles/light_switch_provisioner_nrf52832_xxAA_s132_6.0.0.dir/src/main.c.obj
 .debug_loc     0x00000000000011c8      0x1a3 CMakeFiles/light_switch_provisioner_nrf52832_xxAA_s132_6.0.0.dir/__/__/__/mesh/stack/src/mesh_stack.c.obj
 .debug_loc     0x000000000000136b      0x922 CMakeFiles/light_switch_provisioner_nrf52832_xxAA_s132_6.0.0.dir/src/provisioner_helper.c.obj
 .debug_loc     0x0000000000001c8d      0xb93 CMakeFiles/light_switch_provisioner_nrf52832_xxAA_s132_6.0.0.dir/src/node_setup.c.obj
 .debug_loc     0x0000000000002820      0x1bb CMakeFiles/light_switch_provisioner_nrf52832_xxAA_s132_6.0.0.dir/__/__/common/src/mesh_softdevice_init.c.obj
 .debug_loc     0x00000000000029db       0xbf CMakeFiles/light_switch_provisioner_nrf52832_xxAA_s132_6.0.0.dir/__/__/common/src/rtt_input.c.obj
 .debug_loc     0x0000000000002a9a      0x29c CMakeFiles/light_switch_provisioner_nrf52832_xxAA_s132_6.0.0.dir/__/__/common/src/simple_hal.c.obj
 .debug_loc     0x0000000000002d36      0x1c6 CMakeFiles/light_switch_provisioner_nrf52832_xxAA_s132_6.0.0.dir/__/__/common/src/app_error_weak.c.obj
 .debug_loc     0x0000000000002efc       0x2c CMakeFiles/light_switch_provisioner_nrf52832_xxAA_s132_6.0.0.dir/__/__/common/src/assertion_handler_weak.c.obj
 .debug_loc     0x0000000000002f28       0x2c CMakeFiles/light_switch_provisioner_nrf52832_xxAA_s132_6.0.0.dir/__/__/__/mesh/core/src/nrf_mesh_configure.c.obj
 .debug_loc     0x0000000000002f54       0x89 CMakeFiles/light_switch_provisioner_nrf52832_xxAA_s132_6.0.0.dir/__/__/__/mesh/core/src/aes.c.obj
 .debug_loc     0x0000000000002fdd       0xab CMakeFiles/light_switch_provisioner_nrf52832_xxAA_s132_6.0.0.dir/__/__/__/mesh/core/src/msg_cache.c.obj
 .debug_loc     0x0000000000003088     0x41e3 CMakeFiles/light_switch_provisioner_nrf52832_xxAA_s132_6.0.0.dir/__/__/__/mesh/core/src/transport.c.obj
 .debug_loc     0x000000000000726b      0x169 CMakeFiles/light_switch_provisioner_nrf52832_xxAA_s132_6.0.0.dir/__/__/__/mesh/core/src/event.c.obj
 .debug_loc     0x00000000000073d4      0xcfb CMakeFiles/light_switch_provisioner_nrf52832_xxAA_s132_6.0.0.dir/__/__/__/mesh/core/src/packet_buffer.c.obj
 .debug_loc     0x00000000000080cf      0xbd0 CMakeFiles/light_switch_provisioner_nrf52832_xxAA_s132_6.0.0.dir/__/__/__/mesh/core/src/flash_manager_defrag.c.obj
 .debug_loc     0x0000000000008c9f      0x86b CMakeFiles/light_switch_provisioner_nrf52832_xxAA_s132_6.0.0.dir/__/__/__/mesh/core/src/fifo.c.obj
 .debug_loc     0x000000000000950a      0x194 CMakeFiles/light_switch_provisioner_nrf52832_xxAA_s132_6.0.0.dir/__/__/__/mesh/core/src/nrf_flash.c.obj
 .debug_loc     0x000000000000969e      0x788 CMakeFiles/light_switch_provisioner_nrf52832_xxAA_s132_6.0.0.dir/__/__/__/mesh/core/src/packet_mgr.c.obj
 .debug_loc     0x0000000000009e26      0xfdf CMakeFiles/light_switch_provisioner_nrf52832_xxAA_s132_6.0.0.dir/__/__/__/mesh/core/src/net_state.c.obj
 .debug_loc     0x000000000000ae05      0xfd3 CMakeFiles/light_switch_provisioner_nrf52832_xxAA_s132_6.0.0.dir/__/__/__/mesh/core/src/mesh_flash.c.obj
 .debug_loc     0x000000000000bdd8      0x185 CMakeFiles/light_switch_provisioner_nrf52832_xxAA_s132_6.0.0.dir/__/__/__/mesh/core/src/nrf_mesh_utils.c.obj
 .debug_loc     0x000000000000bf5d      0x6be CMakeFiles/light_switch_provisioner_nrf52832_xxAA_s132_6.0.0.dir/__/__/__/mesh/core/src/nrf_mesh.c.obj
 .debug_loc     0x000000000000c61b      0x186 CMakeFiles/light_switch_provisioner_nrf52832_xxAA_s132_6.0.0.dir/__/__/__/mesh/core/src/queue.c.obj
 .debug_loc     0x000000000000c7a1       0x84 CMakeFiles/light_switch_provisioner_nrf52832_xxAA_s132_6.0.0.dir/__/__/__/mesh/core/src/hal.c.obj
 .debug_loc     0x000000000000c825      0xb75 CMakeFiles/light_switch_provisioner_nrf52832_xxAA_s132_6.0.0.dir/__/__/__/mesh/core/src/aes_cmac.c.obj
 .debug_loc     0x000000000000d39a      0x5b7 CMakeFiles/light_switch_provisioner_nrf52832_xxAA_s132_6.0.0.dir/__/__/__/mesh/core/src/timer_scheduler.c.obj
 .debug_loc     0x000000000000d951      0x608 CMakeFiles/light_switch_provisioner_nrf52832_xxAA_s132_6.0.0.dir/__/__/__/mesh/core/src/timer.c.obj
 .debug_loc     0x000000000000df59      0x1c5 CMakeFiles/light_switch_provisioner_nrf52832_xxAA_s132_6.0.0.dir/__/__/__/mesh/core/src/rand.c.obj
 .debug_loc     0x000000000000e11e      0x194 CMakeFiles/light_switch_provisioner_nrf52832_xxAA_s132_6.0.0.dir/__/__/__/mesh/core/src/nrf_mesh_opt.c.obj
 .debug_loc     0x000000000000e2b2      0x4f1 CMakeFiles/light_switch_provisioner_nrf52832_xxAA_s132_6.0.0.dir/__/__/__/mesh/core/src/timeslot.c.obj
 .debug_loc     0x000000000000e7a3      0x86e CMakeFiles/light_switch_provisioner_nrf52832_xxAA_s132_6.0.0.dir/__/__/__/mesh/core/src/bearer_event.c.obj
 .debug_loc     0x000000000000f011      0xb0d CMakeFiles/light_switch_provisioner_nrf52832_xxAA_s132_6.0.0.dir/__/__/__/mesh/core/src/enc.c.obj
 .debug_loc     0x000000000000fb1e      0x864 CMakeFiles/light_switch_provisioner_nrf52832_xxAA_s132_6.0.0.dir/__/__/__/mesh/core/src/network.c.obj
 .debug_loc     0x0000000000010382      0x978 CMakeFiles/light_switch_provisioner_nrf52832_xxAA_s132_6.0.0.dir/__/__/__/mesh/core/src/net_packet.c.obj
 .debug_loc     0x0000000000010cfa      0x438 CMakeFiles/light_switch_provisioner_nrf52832_xxAA_s132_6.0.0.dir/__/__/__/mesh/core/src/msqueue.c.obj
 .debug_loc     0x0000000000011132      0x210 CMakeFiles/light_switch_provisioner_nrf52832_xxAA_s132_6.0.0.dir/__/__/__/mesh/core/src/nrf_mesh_keygen.c.obj
 .debug_loc     0x0000000000011342      0x565 CMakeFiles/light_switch_provisioner_nrf52832_xxAA_s132_6.0.0.dir/__/__/__/mesh/core/src/list.c.obj
 .debug_loc     0x00000000000118a7      0x3dd CMakeFiles/light_switch_provisioner_nrf52832_xxAA_s132_6.0.0.dir/__/__/__/mesh/core/src/log.c.obj
 .debug_loc     0x0000000000011c84     0x21f7 CMakeFiles/light_switch_provisioner_nrf52832_xxAA_s132_6.0.0.dir/__/__/__/mesh/core/src/flash_manager.c.obj
 .debug_loc     0x0000000000013e7b      0xb6e CMakeFiles/light_switch_provisioner_nrf52832_xxAA_s132_6.0.0.dir/__/__/__/mesh/core/src/ccm_soft.c.obj
 .debug_loc     0x00000000000149e9      0x13f CMakeFiles/light_switch_provisioner_nrf52832_xxAA_s132_6.0.0.dir/__/__/__/mesh/core/src/replay_cache.c.obj
 .debug_loc     0x0000000000014b28      0x416 CMakeFiles/light_switch_provisioner_nrf52832_xxAA_s132_6.0.0.dir/__/__/__/mesh/core/src/beacon.c.obj
 .debug_loc     0x0000000000014f3e      0x12d CMakeFiles/light_switch_provisioner_nrf52832_xxAA_s132_6.0.0.dir/__/__/__/mesh/core/src/flash_manager_internal.c.obj
 .debug_loc     0x000000000001506b      0x4c4 CMakeFiles/light_switch_provisioner_nrf52832_xxAA_s132_6.0.0.dir/__/__/__/mesh/core/src/core_tx.c.obj
 .debug_loc     0x000000000001552f      0x6c5 CMakeFiles/light_switch_provisioner_nrf52832_xxAA_s132_6.0.0.dir/__/__/__/mesh/core/src/heartbeat.c.obj
 .debug_loc     0x0000000000015bf4      0x6e9 CMakeFiles/light_switch_provisioner_nrf52832_xxAA_s132_6.0.0.dir/__/__/__/mesh/core/src/net_beacon.c.obj
 .debug_loc     0x00000000000162dd      0x3d3 CMakeFiles/light_switch_provisioner_nrf52832_xxAA_s132_6.0.0.dir/__/__/__/mesh/core/src/core_tx_adv.c.obj
 .debug_loc     0x00000000000166b0      0x45f CMakeFiles/light_switch_provisioner_nrf52832_xxAA_s132_6.0.0.dir/__/__/__/mesh/bearer/src/ad_listener.c.obj
 .debug_loc     0x0000000000016b0f      0x321 CMakeFiles/light_switch_provisioner_nrf52832_xxAA_s132_6.0.0.dir/__/__/__/mesh/bearer/src/ad_type_filter.c.obj
 .debug_loc     0x0000000000016e30     0x12af CMakeFiles/light_switch_provisioner_nrf52832_xxAA_s132_6.0.0.dir/__/__/__/mesh/bearer/src/advertiser.c.obj
 .debug_loc     0x00000000000180df      0x394 CMakeFiles/light_switch_provisioner_nrf52832_xxAA_s132_6.0.0.dir/__/__/__/mesh/bearer/src/bearer_handler.c.obj
 .debug_loc     0x0000000000018473      0x30e CMakeFiles/light_switch_provisioner_nrf52832_xxAA_s132_6.0.0.dir/__/__/__/mesh/bearer/src/broadcast.c.obj
 .debug_loc     0x0000000000018781      0x179 CMakeFiles/light_switch_provisioner_nrf52832_xxAA_s132_6.0.0.dir/__/__/__/mesh/bearer/src/filter_engine.c.obj
 .debug_loc     0x00000000000188fa      0x239 CMakeFiles/light_switch_provisioner_nrf52832_xxAA_s132_6.0.0.dir/__/__/__/mesh/bearer/src/radio_config.c.obj
 .debug_loc     0x0000000000018b33      0x899 CMakeFiles/light_switch_provisioner_nrf52832_xxAA_s132_6.0.0.dir/__/__/__/mesh/bearer/src/scanner.c.obj
 .debug_loc     0x00000000000193cc     0x4d49 CMakeFiles/light_switch_provisioner_nrf52832_xxAA_s132_6.0.0.dir/__/__/__/models/config/src/config_client.c.obj
 .debug_loc     0x000000000001e115      0x33c CMakeFiles/light_switch_provisioner_nrf52832_xxAA_s132_6.0.0.dir/__/__/__/models/config/src/composition_data.c.obj
 .debug_loc     0x000000000001e451     0xa428 CMakeFiles/light_switch_provisioner_nrf52832_xxAA_s132_6.0.0.dir/__/__/__/models/config/src/config_server.c.obj
 .debug_loc     0x0000000000028879       0xa8 CMakeFiles/light_switch_provisioner_nrf52832_xxAA_s132_6.0.0.dir/__/__/__/models/config/src/packed_index_list.c.obj
 .debug_loc     0x0000000000028921     0x3724 CMakeFiles/light_switch_provisioner_nrf52832_xxAA_s132_6.0.0.dir/__/__/__/models/health/src/health_server.c.obj
 .debug_loc     0x000000000002c045     0x15e9 CMakeFiles/light_switch_provisioner_nrf52832_xxAA_s132_6.0.0.dir/__/__/__/models/health/src/health_client.c.obj
 .debug_loc     0x000000000002d62e      0x939 CMakeFiles/light_switch_provisioner_nrf52832_xxAA_s132_6.0.0.dir/__/__/__/mesh/access/src/access_publish.c.obj
 .debug_loc     0x000000000002df67     0x3bd5 CMakeFiles/light_switch_provisioner_nrf52832_xxAA_s132_6.0.0.dir/__/__/__/mesh/access/src/access.c.obj
 .debug_loc     0x0000000000031b3c      0xeac CMakeFiles/light_switch_provisioner_nrf52832_xxAA_s132_6.0.0.dir/__/__/__/mesh/access/src/access_reliable.c.obj
 .debug_loc     0x00000000000329e8     0x6355 CMakeFiles/light_switch_provisioner_nrf52832_xxAA_s132_6.0.0.dir/__/__/__/mesh/access/src/device_state_manager.c.obj
 .debug_loc     0x0000000000038d3d      0x919 CMakeFiles/light_switch_provisioner_nrf52832_xxAA_s132_6.0.0.dir/__/__/__/mesh/prov/src/prov_provisioner.c.obj
 .debug_loc     0x0000000000039656      0xaf3 CMakeFiles/light_switch_provisioner_nrf52832_xxAA_s132_6.0.0.dir/__/__/__/mesh/prov/src/nrf_mesh_prov.c.obj
 .debug_loc     0x000000000003a149      0xc0a CMakeFiles/light_switch_provisioner_nrf52832_xxAA_s132_6.0.0.dir/__/__/__/mesh/prov/src/provisioning.c.obj
 .debug_loc     0x000000000003ad53      0x255 CMakeFiles/light_switch_provisioner_nrf52832_xxAA_s132_6.0.0.dir/__/__/__/mesh/prov/src/prov_beacon.c.obj
 .debug_loc     0x000000000003afa8      0x492 CMakeFiles/light_switch_provisioner_nrf52832_xxAA_s132_6.0.0.dir/__/__/__/mesh/prov/src/prov_utils.c.obj
 .debug_loc     0x000000000003b43a     0x2722 CMakeFiles/light_switch_provisioner_nrf52832_xxAA_s132_6.0.0.dir/__/__/__/mesh/prov/src/prov_bearer_adv.c.obj
 .debug_loc     0x000000000003db5c       0x63 CMakeFiles/light_switch_provisioner_nrf52832_xxAA_s132_6.0.0.dir/home/mazzer/work/nordic/sdk/nRF5_SDK_15.0.0/components/libraries/util/app_error_handler_gcc.c.obj
 .debug_loc     0x000000000003dbbf     0x3e95 ../../../external/rtt/librtt_nrf52832_xxAA.a(SEGGER_RTT.c.obj)
 .debug_loc     0x0000000000041a54      0xec5 ../../../external/rtt/librtt_nrf52832_xxAA.a(SEGGER_RTT_printf.c.obj)
 .debug_loc     0x0000000000042919     0xb105 ../../../external/micro-ecc/libuECC_nrf52832_xxAA.a(uECC.c.obj)

.debug_aranges  0x0000000000000000     0x20d0
 .debug_aranges
                0x0000000000000000       0xc8 CMakeFiles/light_switch_provisioner_nrf52832_xxAA_s132_6.0.0.dir/src/main.c.obj
 .debug_aranges
                0x00000000000000c8       0x50 CMakeFiles/light_switch_provisioner_nrf52832_xxAA_s132_6.0.0.dir/__/__/__/mesh/stack/src/mesh_stack.c.obj
 .debug_aranges
                0x0000000000000118       0x50 CMakeFiles/light_switch_provisioner_nrf52832_xxAA_s132_6.0.0.dir/src/provisioner_helper.c.obj
 .debug_aranges
                0x0000000000000168       0x50 CMakeFiles/light_switch_provisioner_nrf52832_xxAA_s132_6.0.0.dir/src/node_setup.c.obj
 .debug_aranges
                0x00000000000001b8       0x40 CMakeFiles/light_switch_provisioner_nrf52832_xxAA_s132_6.0.0.dir/__/__/common/src/mesh_softdevice_init.c.obj
 .debug_aranges
                0x00000000000001f8       0x30 CMakeFiles/light_switch_provisioner_nrf52832_xxAA_s132_6.0.0.dir/__/__/common/src/rtt_input.c.obj
 .debug_aranges
                0x0000000000000228       0x50 CMakeFiles/light_switch_provisioner_nrf52832_xxAA_s132_6.0.0.dir/__/__/common/src/simple_hal.c.obj
 .debug_aranges
                0x0000000000000278       0x28 CMakeFiles/light_switch_provisioner_nrf52832_xxAA_s132_6.0.0.dir/__/__/nrf_mesh_weak.c.obj
 .debug_aranges
                0x00000000000002a0       0x20 CMakeFiles/light_switch_provisioner_nrf52832_xxAA_s132_6.0.0.dir/__/__/common/src/app_error_weak.c.obj
 .debug_aranges
                0x00000000000002c0       0x20 CMakeFiles/light_switch_provisioner_nrf52832_xxAA_s132_6.0.0.dir/__/__/common/src/assertion_handler_weak.c.obj
 .debug_aranges
                0x00000000000002e0       0x30 CMakeFiles/light_switch_provisioner_nrf52832_xxAA_s132_6.0.0.dir/__/__/__/mesh/core/src/nrf_mesh_configure.c.obj
 .debug_aranges
                0x0000000000000310       0x28 CMakeFiles/light_switch_provisioner_nrf52832_xxAA_s132_6.0.0.dir/__/__/__/mesh/core/src/aes.c.obj
 .debug_aranges
                0x0000000000000338       0x38 CMakeFiles/light_switch_provisioner_nrf52832_xxAA_s132_6.0.0.dir/__/__/__/mesh/core/src/msg_cache.c.obj
 .debug_aranges
                0x0000000000000370       0xc0 CMakeFiles/light_switch_provisioner_nrf52832_xxAA_s132_6.0.0.dir/__/__/__/mesh/core/src/transport.c.obj
 .debug_aranges
                0x0000000000000430       0x30 CMakeFiles/light_switch_provisioner_nrf52832_xxAA_s132_6.0.0.dir/__/__/__/mesh/core/src/event.c.obj
 .debug_aranges
                0x0000000000000460       0x60 CMakeFiles/light_switch_provisioner_nrf52832_xxAA_s132_6.0.0.dir/__/__/__/mesh/core/src/packet_buffer.c.obj
 .debug_aranges
                0x00000000000004c0       0xa0 CMakeFiles/light_switch_provisioner_nrf52832_xxAA_s132_6.0.0.dir/__/__/__/mesh/core/src/flash_manager_defrag.c.obj
 .debug_aranges
                0x0000000000000560       0x60 CMakeFiles/light_switch_provisioner_nrf52832_xxAA_s132_6.0.0.dir/__/__/__/mesh/core/src/fifo.c.obj
 .debug_aranges
                0x00000000000005c0       0x28 CMakeFiles/light_switch_provisioner_nrf52832_xxAA_s132_6.0.0.dir/__/__/__/mesh/core/src/nrf_flash.c.obj
 .debug_aranges
                0x00000000000005e8       0x48 CMakeFiles/light_switch_provisioner_nrf52832_xxAA_s132_6.0.0.dir/__/__/__/mesh/core/src/packet_mgr.c.obj
 .debug_aranges
                0x0000000000000630       0xd0 CMakeFiles/light_switch_provisioner_nrf52832_xxAA_s132_6.0.0.dir/__/__/__/mesh/core/src/net_state.c.obj
 .debug_aranges
                0x0000000000000700       0x58 CMakeFiles/light_switch_provisioner_nrf52832_xxAA_s132_6.0.0.dir/__/__/__/mesh/core/src/mesh_flash.c.obj
 .debug_aranges
                0x0000000000000758       0x30 CMakeFiles/light_switch_provisioner_nrf52832_xxAA_s132_6.0.0.dir/__/__/__/mesh/core/src/nrf_mesh_utils.c.obj
 .debug_aranges
                0x0000000000000788       0x90 CMakeFiles/light_switch_provisioner_nrf52832_xxAA_s132_6.0.0.dir/__/__/__/mesh/core/src/nrf_mesh.c.obj
 .debug_aranges
                0x0000000000000818       0x38 CMakeFiles/light_switch_provisioner_nrf52832_xxAA_s132_6.0.0.dir/__/__/__/mesh/core/src/queue.c.obj
 .debug_aranges
                0x0000000000000850       0x38 CMakeFiles/light_switch_provisioner_nrf52832_xxAA_s132_6.0.0.dir/__/__/__/mesh/core/src/hal.c.obj
 .debug_aranges
                0x0000000000000888       0x28 CMakeFiles/light_switch_provisioner_nrf52832_xxAA_s132_6.0.0.dir/__/__/__/mesh/core/src/aes_cmac.c.obj
 .debug_aranges
                0x00000000000008b0       0x50 CMakeFiles/light_switch_provisioner_nrf52832_xxAA_s132_6.0.0.dir/__/__/__/mesh/core/src/timer_scheduler.c.obj
 .debug_aranges
                0x0000000000000900       0x58 CMakeFiles/light_switch_provisioner_nrf52832_xxAA_s132_6.0.0.dir/__/__/__/mesh/core/src/timer.c.obj
 .debug_aranges
                0x0000000000000958       0x30 CMakeFiles/light_switch_provisioner_nrf52832_xxAA_s132_6.0.0.dir/__/__/__/mesh/core/src/ticker.c.obj
 .debug_aranges
                0x0000000000000988       0x40 CMakeFiles/light_switch_provisioner_nrf52832_xxAA_s132_6.0.0.dir/__/__/__/mesh/core/src/rand.c.obj
 .debug_aranges
                0x00000000000009c8       0x28 CMakeFiles/light_switch_provisioner_nrf52832_xxAA_s132_6.0.0.dir/__/__/__/mesh/core/src/nrf_mesh_opt.c.obj
 .debug_aranges
                0x00000000000009f0       0xa8 CMakeFiles/light_switch_provisioner_nrf52832_xxAA_s132_6.0.0.dir/__/__/__/mesh/core/src/timeslot.c.obj
 .debug_aranges
                0x0000000000000a98       0x88 CMakeFiles/light_switch_provisioner_nrf52832_xxAA_s132_6.0.0.dir/__/__/__/mesh/core/src/bearer_event.c.obj
 .debug_aranges
                0x0000000000000b20       0x70 CMakeFiles/light_switch_provisioner_nrf52832_xxAA_s132_6.0.0.dir/__/__/__/mesh/core/src/enc.c.obj
 .debug_aranges
                0x0000000000000b90       0x50 CMakeFiles/light_switch_provisioner_nrf52832_xxAA_s132_6.0.0.dir/__/__/__/mesh/core/src/network.c.obj
 .debug_aranges
                0x0000000000000be0       0x58 CMakeFiles/light_switch_provisioner_nrf52832_xxAA_s132_6.0.0.dir/__/__/__/mesh/core/src/net_packet.c.obj
 .debug_aranges
                0x0000000000000c38       0x40 CMakeFiles/light_switch_provisioner_nrf52832_xxAA_s132_6.0.0.dir/__/__/__/mesh/core/src/msqueue.c.obj
 .debug_aranges
                0x0000000000000c78       0x40 CMakeFiles/light_switch_provisioner_nrf52832_xxAA_s132_6.0.0.dir/__/__/__/mesh/core/src/nrf_mesh_keygen.c.obj
 .debug_aranges
                0x0000000000000cb8       0x40 CMakeFiles/light_switch_provisioner_nrf52832_xxAA_s132_6.0.0.dir/__/__/__/mesh/core/src/list.c.obj
 .debug_aranges
                0x0000000000000cf8       0x48 CMakeFiles/light_switch_provisioner_nrf52832_xxAA_s132_6.0.0.dir/__/__/__/mesh/core/src/log.c.obj
 .debug_aranges
                0x0000000000000d40       0xa0 CMakeFiles/light_switch_provisioner_nrf52832_xxAA_s132_6.0.0.dir/__/__/__/mesh/core/src/flash_manager.c.obj
 .debug_aranges
                0x0000000000000de0       0x38 CMakeFiles/light_switch_provisioner_nrf52832_xxAA_s132_6.0.0.dir/__/__/__/mesh/core/src/ccm_soft.c.obj
 .debug_aranges
                0x0000000000000e18       0x38 CMakeFiles/light_switch_provisioner_nrf52832_xxAA_s132_6.0.0.dir/__/__/__/mesh/core/src/replay_cache.c.obj
 .debug_aranges
                0x0000000000000e50       0x28 CMakeFiles/light_switch_provisioner_nrf52832_xxAA_s132_6.0.0.dir/__/__/__/mesh/core/src/beacon.c.obj
 .debug_aranges
                0x0000000000000e78       0x20 CMakeFiles/light_switch_provisioner_nrf52832_xxAA_s132_6.0.0.dir/__/__/__/mesh/core/src/flash_manager_internal.c.obj
 .debug_aranges
                0x0000000000000e98       0x58 CMakeFiles/light_switch_provisioner_nrf52832_xxAA_s132_6.0.0.dir/__/__/__/mesh/core/src/core_tx.c.obj
 .debug_aranges
                0x0000000000000ef0       0x70 CMakeFiles/light_switch_provisioner_nrf52832_xxAA_s132_6.0.0.dir/__/__/__/mesh/core/src/heartbeat.c.obj
 .debug_aranges
                0x0000000000000f60       0x58 CMakeFiles/light_switch_provisioner_nrf52832_xxAA_s132_6.0.0.dir/__/__/__/mesh/core/src/net_beacon.c.obj
 .debug_aranges
                0x0000000000000fb8       0x68 CMakeFiles/light_switch_provisioner_nrf52832_xxAA_s132_6.0.0.dir/__/__/__/mesh/core/src/core_tx_adv.c.obj
 .debug_aranges
                0x0000000000001020       0x30 CMakeFiles/light_switch_provisioner_nrf52832_xxAA_s132_6.0.0.dir/__/__/__/mesh/bearer/src/ad_listener.c.obj
 .debug_aranges
                0x0000000000001050       0x58 CMakeFiles/light_switch_provisioner_nrf52832_xxAA_s132_6.0.0.dir/__/__/__/mesh/bearer/src/ad_type_filter.c.obj
 .debug_aranges
                0x00000000000010a8       0xa0 CMakeFiles/light_switch_provisioner_nrf52832_xxAA_s132_6.0.0.dir/__/__/__/mesh/bearer/src/advertiser.c.obj
 .debug_aranges
                0x0000000000001148       0x70 CMakeFiles/light_switch_provisioner_nrf52832_xxAA_s132_6.0.0.dir/__/__/__/mesh/bearer/src/bearer_handler.c.obj
 .debug_aranges
                0x00000000000011b8       0x30 CMakeFiles/light_switch_provisioner_nrf52832_xxAA_s132_6.0.0.dir/__/__/__/mesh/bearer/src/broadcast.c.obj
 .debug_aranges
                0x00000000000011e8       0x38 CMakeFiles/light_switch_provisioner_nrf52832_xxAA_s132_6.0.0.dir/__/__/__/mesh/bearer/src/filter_engine.c.obj
 .debug_aranges
                0x0000000000001220       0x40 CMakeFiles/light_switch_provisioner_nrf52832_xxAA_s132_6.0.0.dir/__/__/__/mesh/bearer/src/radio_config.c.obj
 .debug_aranges
                0x0000000000001260       0xb8 CMakeFiles/light_switch_provisioner_nrf52832_xxAA_s132_6.0.0.dir/__/__/__/mesh/bearer/src/scanner.c.obj
 .debug_aranges
                0x0000000000001318      0x168 CMakeFiles/light_switch_provisioner_nrf52832_xxAA_s132_6.0.0.dir/__/__/__/models/config/src/config_client.c.obj
 .debug_aranges
                0x0000000000001480       0x20 CMakeFiles/light_switch_provisioner_nrf52832_xxAA_s132_6.0.0.dir/__/__/__/models/config/src/composition_data.c.obj
 .debug_aranges
                0x00000000000014a0      0x1b0 CMakeFiles/light_switch_provisioner_nrf52832_xxAA_s132_6.0.0.dir/__/__/__/models/config/src/config_server.c.obj
 .debug_aranges
                0x0000000000001650       0x20 CMakeFiles/light_switch_provisioner_nrf52832_xxAA_s132_6.0.0.dir/__/__/__/models/config/src/packed_index_list.c.obj
 .debug_aranges
                0x0000000000001670       0xa0 CMakeFiles/light_switch_provisioner_nrf52832_xxAA_s132_6.0.0.dir/__/__/__/models/health/src/health_server.c.obj
 .debug_aranges
                0x0000000000001710       0x80 CMakeFiles/light_switch_provisioner_nrf52832_xxAA_s132_6.0.0.dir/__/__/__/models/health/src/health_client.c.obj
 .debug_aranges
                0x0000000000001790       0x40 CMakeFiles/light_switch_provisioner_nrf52832_xxAA_s132_6.0.0.dir/__/__/__/mesh/access/src/access_publish.c.obj
 .debug_aranges
                0x00000000000017d0      0x180 CMakeFiles/light_switch_provisioner_nrf52832_xxAA_s132_6.0.0.dir/__/__/__/mesh/access/src/access.c.obj
 .debug_aranges
                0x0000000000001950       0x50 CMakeFiles/light_switch_provisioner_nrf52832_xxAA_s132_6.0.0.dir/__/__/__/mesh/access/src/access_reliable.c.obj
 .debug_aranges
                0x00000000000019a0      0x250 CMakeFiles/light_switch_provisioner_nrf52832_xxAA_s132_6.0.0.dir/__/__/__/mesh/access/src/device_state_manager.c.obj
 .debug_aranges
                0x0000000000001bf0       0x68 CMakeFiles/light_switch_provisioner_nrf52832_xxAA_s132_6.0.0.dir/__/__/__/mesh/prov/src/prov_provisioner.c.obj
 .debug_aranges
                0x0000000000001c58       0x80 CMakeFiles/light_switch_provisioner_nrf52832_xxAA_s132_6.0.0.dir/__/__/__/mesh/prov/src/nrf_mesh_prov.c.obj
 .debug_aranges
                0x0000000000001cd8       0x78 CMakeFiles/light_switch_provisioner_nrf52832_xxAA_s132_6.0.0.dir/__/__/__/mesh/prov/src/provisioning.c.obj
 .debug_aranges
                0x0000000000001d50       0x38 CMakeFiles/light_switch_provisioner_nrf52832_xxAA_s132_6.0.0.dir/__/__/__/mesh/prov/src/prov_beacon.c.obj
 .debug_aranges
                0x0000000000001d88       0x60 CMakeFiles/light_switch_provisioner_nrf52832_xxAA_s132_6.0.0.dir/__/__/__/mesh/prov/src/prov_utils.c.obj
 .debug_aranges
                0x0000000000001de8       0xa0 CMakeFiles/light_switch_provisioner_nrf52832_xxAA_s132_6.0.0.dir/__/__/__/mesh/prov/src/prov_bearer_adv.c.obj
 .debug_aranges
                0x0000000000001e88       0x28 CMakeFiles/light_switch_provisioner_nrf52832_xxAA_s132_6.0.0.dir/home/mazzer/work/nordic/sdk/nRF5_SDK_15.0.0/modules/nrfx/mdk/system_nrf52.c.obj
 .debug_aranges
                0x0000000000001eb0       0x20 CMakeFiles/light_switch_provisioner_nrf52832_xxAA_s132_6.0.0.dir/home/mazzer/work/nordic/sdk/nRF5_SDK_15.0.0/modules/nrfx/mdk/gcc_startup_nrf52.S.obj
 .debug_aranges
                0x0000000000001ed0       0x20 CMakeFiles/light_switch_provisioner_nrf52832_xxAA_s132_6.0.0.dir/home/mazzer/work/nordic/sdk/nRF5_SDK_15.0.0/components/libraries/util/app_error_handler_gcc.c.obj
 .debug_aranges
                0x0000000000001ef0       0xb0 ../../../external/rtt/librtt_nrf52832_xxAA.a(SEGGER_RTT.c.obj)
 .debug_aranges
                0x0000000000001fa0       0x30 ../../../external/rtt/librtt_nrf52832_xxAA.a(SEGGER_RTT_printf.c.obj)
 .debug_aranges
                0x0000000000001fd0      0x100 ../../../external/micro-ecc/libuECC_nrf52832_xxAA.a(uECC.c.obj)

.debug_ranges   0x0000000000000000     0xeb28
 .debug_ranges  0x0000000000000000      0x958 CMakeFiles/light_switch_provisioner_nrf52832_xxAA_s132_6.0.0.dir/src/main.c.obj
 .debug_ranges  0x0000000000000958       0x88 CMakeFiles/light_switch_provisioner_nrf52832_xxAA_s132_6.0.0.dir/__/__/__/mesh/stack/src/mesh_stack.c.obj
 .debug_ranges  0x00000000000009e0      0x4c8 CMakeFiles/light_switch_provisioner_nrf52832_xxAA_s132_6.0.0.dir/src/provisioner_helper.c.obj
 .debug_ranges  0x0000000000000ea8      0x458 CMakeFiles/light_switch_provisioner_nrf52832_xxAA_s132_6.0.0.dir/src/node_setup.c.obj
 .debug_ranges  0x0000000000001300       0xe8 CMakeFiles/light_switch_provisioner_nrf52832_xxAA_s132_6.0.0.dir/__/__/common/src/mesh_softdevice_init.c.obj
 .debug_ranges  0x00000000000013e8       0x78 CMakeFiles/light_switch_provisioner_nrf52832_xxAA_s132_6.0.0.dir/__/__/common/src/rtt_input.c.obj
 .debug_ranges  0x0000000000001460       0xc0 CMakeFiles/light_switch_provisioner_nrf52832_xxAA_s132_6.0.0.dir/__/__/common/src/simple_hal.c.obj
 .debug_ranges  0x0000000000001520       0x18 CMakeFiles/light_switch_provisioner_nrf52832_xxAA_s132_6.0.0.dir/__/__/nrf_mesh_weak.c.obj
 .debug_ranges  0x0000000000001538       0xc8 CMakeFiles/light_switch_provisioner_nrf52832_xxAA_s132_6.0.0.dir/__/__/common/src/app_error_weak.c.obj
 .debug_ranges  0x0000000000001600       0x10 CMakeFiles/light_switch_provisioner_nrf52832_xxAA_s132_6.0.0.dir/__/__/common/src/assertion_handler_weak.c.obj
 .debug_ranges  0x0000000000001610       0x20 CMakeFiles/light_switch_provisioner_nrf52832_xxAA_s132_6.0.0.dir/__/__/__/mesh/core/src/nrf_mesh_configure.c.obj
 .debug_ranges  0x0000000000001630       0x18 CMakeFiles/light_switch_provisioner_nrf52832_xxAA_s132_6.0.0.dir/__/__/__/mesh/core/src/aes.c.obj
 .debug_ranges  0x0000000000001648       0x40 CMakeFiles/light_switch_provisioner_nrf52832_xxAA_s132_6.0.0.dir/__/__/__/mesh/core/src/msg_cache.c.obj
 .debug_ranges  0x0000000000001688      0xf08 CMakeFiles/light_switch_provisioner_nrf52832_xxAA_s132_6.0.0.dir/__/__/__/mesh/core/src/transport.c.obj
 .debug_ranges  0x0000000000002590       0x20 CMakeFiles/light_switch_provisioner_nrf52832_xxAA_s132_6.0.0.dir/__/__/__/mesh/core/src/event.c.obj
 .debug_ranges  0x00000000000025b0      0x118 CMakeFiles/light_switch_provisioner_nrf52832_xxAA_s132_6.0.0.dir/__/__/__/mesh/core/src/packet_buffer.c.obj
 .debug_ranges  0x00000000000026c8      0x4c8 CMakeFiles/light_switch_provisioner_nrf52832_xxAA_s132_6.0.0.dir/__/__/__/mesh/core/src/flash_manager_defrag.c.obj
 .debug_ranges  0x0000000000002b90       0xc0 CMakeFiles/light_switch_provisioner_nrf52832_xxAA_s132_6.0.0.dir/__/__/__/mesh/core/src/fifo.c.obj
 .debug_ranges  0x0000000000002c50       0x30 CMakeFiles/light_switch_provisioner_nrf52832_xxAA_s132_6.0.0.dir/__/__/__/mesh/core/src/nrf_flash.c.obj
 .debug_ranges  0x0000000000002c80       0xe8 CMakeFiles/light_switch_provisioner_nrf52832_xxAA_s132_6.0.0.dir/__/__/__/mesh/core/src/packet_mgr.c.obj
 .debug_ranges  0x0000000000002d68      0x868 CMakeFiles/light_switch_provisioner_nrf52832_xxAA_s132_6.0.0.dir/__/__/__/mesh/core/src/net_state.c.obj
 .debug_ranges  0x00000000000035d0      0x300 CMakeFiles/light_switch_provisioner_nrf52832_xxAA_s132_6.0.0.dir/__/__/__/mesh/core/src/mesh_flash.c.obj
 .debug_ranges  0x00000000000038d0       0x20 CMakeFiles/light_switch_provisioner_nrf52832_xxAA_s132_6.0.0.dir/__/__/__/mesh/core/src/nrf_mesh_utils.c.obj
 .debug_ranges  0x00000000000038f0      0x150 CMakeFiles/light_switch_provisioner_nrf52832_xxAA_s132_6.0.0.dir/__/__/__/mesh/core/src/nrf_mesh.c.obj
 .debug_ranges  0x0000000000003a40       0x28 CMakeFiles/light_switch_provisioner_nrf52832_xxAA_s132_6.0.0.dir/__/__/__/mesh/core/src/queue.c.obj
 .debug_ranges  0x0000000000003a68       0x28 CMakeFiles/light_switch_provisioner_nrf52832_xxAA_s132_6.0.0.dir/__/__/__/mesh/core/src/hal.c.obj
 .debug_ranges  0x0000000000003a90      0x150 CMakeFiles/light_switch_provisioner_nrf52832_xxAA_s132_6.0.0.dir/__/__/__/mesh/core/src/aes_cmac.c.obj
 .debug_ranges  0x0000000000003be0      0x288 CMakeFiles/light_switch_provisioner_nrf52832_xxAA_s132_6.0.0.dir/__/__/__/mesh/core/src/timer_scheduler.c.obj
 .debug_ranges  0x0000000000003e68      0x178 CMakeFiles/light_switch_provisioner_nrf52832_xxAA_s132_6.0.0.dir/__/__/__/mesh/core/src/timer.c.obj
 .debug_ranges  0x0000000000003fe0       0x20 CMakeFiles/light_switch_provisioner_nrf52832_xxAA_s132_6.0.0.dir/__/__/__/mesh/core/src/ticker.c.obj
 .debug_ranges  0x0000000000004000       0x48 CMakeFiles/light_switch_provisioner_nrf52832_xxAA_s132_6.0.0.dir/__/__/__/mesh/core/src/rand.c.obj
 .debug_ranges  0x0000000000004048       0x18 CMakeFiles/light_switch_provisioner_nrf52832_xxAA_s132_6.0.0.dir/__/__/__/mesh/core/src/nrf_mesh_opt.c.obj
 .debug_ranges  0x0000000000004060      0x250 CMakeFiles/light_switch_provisioner_nrf52832_xxAA_s132_6.0.0.dir/__/__/__/mesh/core/src/timeslot.c.obj
 .debug_ranges  0x00000000000042b0      0x288 CMakeFiles/light_switch_provisioner_nrf52832_xxAA_s132_6.0.0.dir/__/__/__/mesh/core/src/bearer_event.c.obj
 .debug_ranges  0x0000000000004538      0x1b8 CMakeFiles/light_switch_provisioner_nrf52832_xxAA_s132_6.0.0.dir/__/__/__/mesh/core/src/enc.c.obj
 .debug_ranges  0x00000000000046f0      0x1b8 CMakeFiles/light_switch_provisioner_nrf52832_xxAA_s132_6.0.0.dir/__/__/__/mesh/core/src/network.c.obj
 .debug_ranges  0x00000000000048a8      0x208 CMakeFiles/light_switch_provisioner_nrf52832_xxAA_s132_6.0.0.dir/__/__/__/mesh/core/src/net_packet.c.obj
 .debug_ranges  0x0000000000004ab0       0x78 CMakeFiles/light_switch_provisioner_nrf52832_xxAA_s132_6.0.0.dir/__/__/__/mesh/core/src/msqueue.c.obj
 .debug_ranges  0x0000000000004b28       0x30 CMakeFiles/light_switch_provisioner_nrf52832_xxAA_s132_6.0.0.dir/__/__/__/mesh/core/src/nrf_mesh_keygen.c.obj
 .debug_ranges  0x0000000000004b58       0xf0 CMakeFiles/light_switch_provisioner_nrf52832_xxAA_s132_6.0.0.dir/__/__/__/mesh/core/src/list.c.obj
 .debug_ranges  0x0000000000004c48       0x58 CMakeFiles/light_switch_provisioner_nrf52832_xxAA_s132_6.0.0.dir/__/__/__/mesh/core/src/log.c.obj
 .debug_ranges  0x0000000000004ca0      0xc18 CMakeFiles/light_switch_provisioner_nrf52832_xxAA_s132_6.0.0.dir/__/__/__/mesh/core/src/flash_manager.c.obj
 .debug_ranges  0x00000000000058b8       0xf8 CMakeFiles/light_switch_provisioner_nrf52832_xxAA_s132_6.0.0.dir/__/__/__/mesh/core/src/ccm_soft.c.obj
 .debug_ranges  0x00000000000059b0       0x40 CMakeFiles/light_switch_provisioner_nrf52832_xxAA_s132_6.0.0.dir/__/__/__/mesh/core/src/replay_cache.c.obj
 .debug_ranges  0x00000000000059f0       0x90 CMakeFiles/light_switch_provisioner_nrf52832_xxAA_s132_6.0.0.dir/__/__/__/mesh/core/src/beacon.c.obj
 .debug_ranges  0x0000000000005a80       0x30 CMakeFiles/light_switch_provisioner_nrf52832_xxAA_s132_6.0.0.dir/__/__/__/mesh/core/src/flash_manager_internal.c.obj
 .debug_ranges  0x0000000000005ab0       0xc0 CMakeFiles/light_switch_provisioner_nrf52832_xxAA_s132_6.0.0.dir/__/__/__/mesh/core/src/core_tx.c.obj
 .debug_ranges  0x0000000000005b70      0x120 CMakeFiles/light_switch_provisioner_nrf52832_xxAA_s132_6.0.0.dir/__/__/__/mesh/core/src/heartbeat.c.obj
 .debug_ranges  0x0000000000005c90      0x1b8 CMakeFiles/light_switch_provisioner_nrf52832_xxAA_s132_6.0.0.dir/__/__/__/mesh/core/src/net_beacon.c.obj
 .debug_ranges  0x0000000000005e48       0x58 CMakeFiles/light_switch_provisioner_nrf52832_xxAA_s132_6.0.0.dir/__/__/__/mesh/core/src/core_tx_adv.c.obj
 .debug_ranges  0x0000000000005ea0      0x118 CMakeFiles/light_switch_provisioner_nrf52832_xxAA_s132_6.0.0.dir/__/__/__/mesh/bearer/src/ad_listener.c.obj
 .debug_ranges  0x0000000000005fb8       0xc8 CMakeFiles/light_switch_provisioner_nrf52832_xxAA_s132_6.0.0.dir/__/__/__/mesh/bearer/src/ad_type_filter.c.obj
 .debug_ranges  0x0000000000006080      0x478 CMakeFiles/light_switch_provisioner_nrf52832_xxAA_s132_6.0.0.dir/__/__/__/mesh/bearer/src/advertiser.c.obj
 .debug_ranges  0x00000000000064f8      0x188 CMakeFiles/light_switch_provisioner_nrf52832_xxAA_s132_6.0.0.dir/__/__/__/mesh/bearer/src/bearer_handler.c.obj
 .debug_ranges  0x0000000000006680       0xa0 CMakeFiles/light_switch_provisioner_nrf52832_xxAA_s132_6.0.0.dir/__/__/__/mesh/bearer/src/broadcast.c.obj
 .debug_ranges  0x0000000000006720       0x28 CMakeFiles/light_switch_provisioner_nrf52832_xxAA_s132_6.0.0.dir/__/__/__/mesh/bearer/src/filter_engine.c.obj
 .debug_ranges  0x0000000000006748       0x48 CMakeFiles/light_switch_provisioner_nrf52832_xxAA_s132_6.0.0.dir/__/__/__/mesh/bearer/src/radio_config.c.obj
 .debug_ranges  0x0000000000006790      0x400 CMakeFiles/light_switch_provisioner_nrf52832_xxAA_s132_6.0.0.dir/__/__/__/mesh/bearer/src/scanner.c.obj
 .debug_ranges  0x0000000000006b90      0xd30 CMakeFiles/light_switch_provisioner_nrf52832_xxAA_s132_6.0.0.dir/__/__/__/models/config/src/config_client.c.obj
 .debug_ranges  0x00000000000078c0       0xa8 CMakeFiles/light_switch_provisioner_nrf52832_xxAA_s132_6.0.0.dir/__/__/__/models/config/src/composition_data.c.obj
 .debug_ranges  0x0000000000007968     0x15c0 CMakeFiles/light_switch_provisioner_nrf52832_xxAA_s132_6.0.0.dir/__/__/__/models/config/src/config_server.c.obj
 .debug_ranges  0x0000000000008f28       0x10 CMakeFiles/light_switch_provisioner_nrf52832_xxAA_s132_6.0.0.dir/__/__/__/models/config/src/packed_index_list.c.obj
 .debug_ranges  0x0000000000008f38      0x6c8 CMakeFiles/light_switch_provisioner_nrf52832_xxAA_s132_6.0.0.dir/__/__/__/models/health/src/health_server.c.obj
 .debug_ranges  0x0000000000009600      0x1e0 CMakeFiles/light_switch_provisioner_nrf52832_xxAA_s132_6.0.0.dir/__/__/__/models/health/src/health_client.c.obj
 .debug_ranges  0x00000000000097e0      0x318 CMakeFiles/light_switch_provisioner_nrf52832_xxAA_s132_6.0.0.dir/__/__/__/mesh/access/src/access_publish.c.obj
 .debug_ranges  0x0000000000009af8      0xc68 CMakeFiles/light_switch_provisioner_nrf52832_xxAA_s132_6.0.0.dir/__/__/__/mesh/access/src/access.c.obj
 .debug_ranges  0x000000000000a760      0x280 CMakeFiles/light_switch_provisioner_nrf52832_xxAA_s132_6.0.0.dir/__/__/__/mesh/access/src/access_reliable.c.obj
 .debug_ranges  0x000000000000a9e0     0x1760 CMakeFiles/light_switch_provisioner_nrf52832_xxAA_s132_6.0.0.dir/__/__/__/mesh/access/src/device_state_manager.c.obj
 .debug_ranges  0x000000000000c140      0x108 CMakeFiles/light_switch_provisioner_nrf52832_xxAA_s132_6.0.0.dir/__/__/__/mesh/prov/src/prov_provisioner.c.obj
 .debug_ranges  0x000000000000c248      0x140 CMakeFiles/light_switch_provisioner_nrf52832_xxAA_s132_6.0.0.dir/__/__/__/mesh/prov/src/nrf_mesh_prov.c.obj
 .debug_ranges  0x000000000000c388      0x170 CMakeFiles/light_switch_provisioner_nrf52832_xxAA_s132_6.0.0.dir/__/__/__/mesh/prov/src/provisioning.c.obj
 .debug_ranges  0x000000000000c4f8       0x40 CMakeFiles/light_switch_provisioner_nrf52832_xxAA_s132_6.0.0.dir/__/__/__/mesh/prov/src/prov_beacon.c.obj
 .debug_ranges  0x000000000000c538       0x88 CMakeFiles/light_switch_provisioner_nrf52832_xxAA_s132_6.0.0.dir/__/__/__/mesh/prov/src/prov_utils.c.obj
 .debug_ranges  0x000000000000c5c0      0x9c8 CMakeFiles/light_switch_provisioner_nrf52832_xxAA_s132_6.0.0.dir/__/__/__/mesh/prov/src/prov_bearer_adv.c.obj
 .debug_ranges  0x000000000000cf88      0x168 CMakeFiles/light_switch_provisioner_nrf52832_xxAA_s132_6.0.0.dir/home/mazzer/work/nordic/sdk/nRF5_SDK_15.0.0/modules/nrfx/mdk/system_nrf52.c.obj
 .debug_ranges  0x000000000000d0f0       0x10 CMakeFiles/light_switch_provisioner_nrf52832_xxAA_s132_6.0.0.dir/home/mazzer/work/nordic/sdk/nRF5_SDK_15.0.0/components/libraries/util/app_error_handler_gcc.c.obj
 .debug_ranges  0x000000000000d100      0x5d8 ../../../external/rtt/librtt_nrf52832_xxAA.a(SEGGER_RTT.c.obj)
 .debug_ranges  0x000000000000d6d8      0x1b8 ../../../external/rtt/librtt_nrf52832_xxAA.a(SEGGER_RTT_printf.c.obj)
 .debug_ranges  0x000000000000d890     0x1298 ../../../external/micro-ecc/libuECC_nrf52832_xxAA.a(uECC.c.obj)

.debug_line     0x0000000000000000    0x23202
 .debug_line    0x0000000000000000     0x130d CMakeFiles/light_switch_provisioner_nrf52832_xxAA_s132_6.0.0.dir/src/main.c.obj
 .debug_line    0x000000000000130d      0x6a9 CMakeFiles/light_switch_provisioner_nrf52832_xxAA_s132_6.0.0.dir/__/__/__/mesh/stack/src/mesh_stack.c.obj
 .debug_line    0x00000000000019b6      0xed8 CMakeFiles/light_switch_provisioner_nrf52832_xxAA_s132_6.0.0.dir/src/provisioner_helper.c.obj
 .debug_line    0x000000000000288e      0xc97 CMakeFiles/light_switch_provisioner_nrf52832_xxAA_s132_6.0.0.dir/src/node_setup.c.obj
 .debug_line    0x0000000000003525      0x49c CMakeFiles/light_switch_provisioner_nrf52832_xxAA_s132_6.0.0.dir/__/__/common/src/mesh_softdevice_init.c.obj
 .debug_line    0x00000000000039c1      0x379 CMakeFiles/light_switch_provisioner_nrf52832_xxAA_s132_6.0.0.dir/__/__/common/src/rtt_input.c.obj
 .debug_line    0x0000000000003d3a      0x572 CMakeFiles/light_switch_provisioner_nrf52832_xxAA_s132_6.0.0.dir/__/__/common/src/simple_hal.c.obj
 .debug_line    0x00000000000042ac      0x24f CMakeFiles/light_switch_provisioner_nrf52832_xxAA_s132_6.0.0.dir/__/__/nrf_mesh_weak.c.obj
 .debug_line    0x00000000000044fb      0x4e6 CMakeFiles/light_switch_provisioner_nrf52832_xxAA_s132_6.0.0.dir/__/__/common/src/app_error_weak.c.obj
 .debug_line    0x00000000000049e1      0x272 CMakeFiles/light_switch_provisioner_nrf52832_xxAA_s132_6.0.0.dir/__/__/common/src/assertion_handler_weak.c.obj
 .debug_line    0x0000000000004c53      0x24a CMakeFiles/light_switch_provisioner_nrf52832_xxAA_s132_6.0.0.dir/__/__/__/mesh/core/src/nrf_mesh_configure.c.obj
 .debug_line    0x0000000000004e9d      0x282 CMakeFiles/light_switch_provisioner_nrf52832_xxAA_s132_6.0.0.dir/__/__/__/mesh/core/src/aes.c.obj
 .debug_line    0x000000000000511f      0x2bf CMakeFiles/light_switch_provisioner_nrf52832_xxAA_s132_6.0.0.dir/__/__/__/mesh/core/src/msg_cache.c.obj
 .debug_line    0x00000000000053de     0x1258 CMakeFiles/light_switch_provisioner_nrf52832_xxAA_s132_6.0.0.dir/__/__/__/mesh/core/src/transport.c.obj
 .debug_line    0x0000000000006636      0x3df CMakeFiles/light_switch_provisioner_nrf52832_xxAA_s132_6.0.0.dir/__/__/__/mesh/core/src/event.c.obj
 .debug_line    0x0000000000006a15      0x55a CMakeFiles/light_switch_provisioner_nrf52832_xxAA_s132_6.0.0.dir/__/__/__/mesh/core/src/packet_buffer.c.obj
 .debug_line    0x0000000000006f6f      0x8ba CMakeFiles/light_switch_provisioner_nrf52832_xxAA_s132_6.0.0.dir/__/__/__/mesh/core/src/flash_manager_defrag.c.obj
 .debug_line    0x0000000000007829      0x468 CMakeFiles/light_switch_provisioner_nrf52832_xxAA_s132_6.0.0.dir/__/__/__/mesh/core/src/fifo.c.obj
 .debug_line    0x0000000000007c91      0x27a CMakeFiles/light_switch_provisioner_nrf52832_xxAA_s132_6.0.0.dir/__/__/__/mesh/core/src/nrf_flash.c.obj
 .debug_line    0x0000000000007f0b      0x4cc CMakeFiles/light_switch_provisioner_nrf52832_xxAA_s132_6.0.0.dir/__/__/__/mesh/core/src/packet_mgr.c.obj
 .debug_line    0x00000000000083d7      0xae0 CMakeFiles/light_switch_provisioner_nrf52832_xxAA_s132_6.0.0.dir/__/__/__/mesh/core/src/net_state.c.obj
 .debug_line    0x0000000000008eb7      0x67a CMakeFiles/light_switch_provisioner_nrf52832_xxAA_s132_6.0.0.dir/__/__/__/mesh/core/src/mesh_flash.c.obj
 .debug_line    0x0000000000009531      0x2f8 CMakeFiles/light_switch_provisioner_nrf52832_xxAA_s132_6.0.0.dir/__/__/__/mesh/core/src/nrf_mesh_utils.c.obj
 .debug_line    0x0000000000009829      0x92f CMakeFiles/light_switch_provisioner_nrf52832_xxAA_s132_6.0.0.dir/__/__/__/mesh/core/src/nrf_mesh.c.obj
 .debug_line    0x000000000000a158      0x337 CMakeFiles/light_switch_provisioner_nrf52832_xxAA_s132_6.0.0.dir/__/__/__/mesh/core/src/queue.c.obj
 .debug_line    0x000000000000a48f      0x25e CMakeFiles/light_switch_provisioner_nrf52832_xxAA_s132_6.0.0.dir/__/__/__/mesh/core/src/hal.c.obj
 .debug_line    0x000000000000a6ed      0x465 CMakeFiles/light_switch_provisioner_nrf52832_xxAA_s132_6.0.0.dir/__/__/__/mesh/core/src/aes_cmac.c.obj
 .debug_line    0x000000000000ab52      0x503 CMakeFiles/light_switch_provisioner_nrf52832_xxAA_s132_6.0.0.dir/__/__/__/mesh/core/src/timer_scheduler.c.obj
 .debug_line    0x000000000000b055      0x557 CMakeFiles/light_switch_provisioner_nrf52832_xxAA_s132_6.0.0.dir/__/__/__/mesh/core/src/timer.c.obj
 .debug_line    0x000000000000b5ac      0x17f CMakeFiles/light_switch_provisioner_nrf52832_xxAA_s132_6.0.0.dir/__/__/__/mesh/core/src/ticker.c.obj
 .debug_line    0x000000000000b72b      0x341 CMakeFiles/light_switch_provisioner_nrf52832_xxAA_s132_6.0.0.dir/__/__/__/mesh/core/src/rand.c.obj
 .debug_line    0x000000000000ba6c      0x336 CMakeFiles/light_switch_provisioner_nrf52832_xxAA_s132_6.0.0.dir/__/__/__/mesh/core/src/nrf_mesh_opt.c.obj
 .debug_line    0x000000000000bda2      0x70e CMakeFiles/light_switch_provisioner_nrf52832_xxAA_s132_6.0.0.dir/__/__/__/mesh/core/src/timeslot.c.obj
 .debug_line    0x000000000000c4b0      0x69b CMakeFiles/light_switch_provisioner_nrf52832_xxAA_s132_6.0.0.dir/__/__/__/mesh/core/src/bearer_event.c.obj
 .debug_line    0x000000000000cb4b      0x521 CMakeFiles/light_switch_provisioner_nrf52832_xxAA_s132_6.0.0.dir/__/__/__/mesh/core/src/enc.c.obj
 .debug_line    0x000000000000d06c      0x62d CMakeFiles/light_switch_provisioner_nrf52832_xxAA_s132_6.0.0.dir/__/__/__/mesh/core/src/network.c.obj
 .debug_line    0x000000000000d699      0x61f CMakeFiles/light_switch_provisioner_nrf52832_xxAA_s132_6.0.0.dir/__/__/__/mesh/core/src/net_packet.c.obj
 .debug_line    0x000000000000dcb8      0x38a CMakeFiles/light_switch_provisioner_nrf52832_xxAA_s132_6.0.0.dir/__/__/__/mesh/core/src/msqueue.c.obj
 .debug_line    0x000000000000e042      0x2f2 CMakeFiles/light_switch_provisioner_nrf52832_xxAA_s132_6.0.0.dir/__/__/__/mesh/core/src/nrf_mesh_keygen.c.obj
 .debug_line    0x000000000000e334      0x3e6 CMakeFiles/light_switch_provisioner_nrf52832_xxAA_s132_6.0.0.dir/__/__/__/mesh/core/src/list.c.obj
 .debug_line    0x000000000000e71a      0x331 CMakeFiles/light_switch_provisioner_nrf52832_xxAA_s132_6.0.0.dir/__/__/__/mesh/core/src/log.c.obj
 .debug_line    0x000000000000ea4b      0xc3a CMakeFiles/light_switch_provisioner_nrf52832_xxAA_s132_6.0.0.dir/__/__/__/mesh/core/src/flash_manager.c.obj
 .debug_line    0x000000000000f685      0x4a9 CMakeFiles/light_switch_provisioner_nrf52832_xxAA_s132_6.0.0.dir/__/__/__/mesh/core/src/ccm_soft.c.obj
 .debug_line    0x000000000000fb2e      0x1da CMakeFiles/light_switch_provisioner_nrf52832_xxAA_s132_6.0.0.dir/__/__/__/mesh/core/src/replay_cache.c.obj
 .debug_line    0x000000000000fd08      0x5c5 CMakeFiles/light_switch_provisioner_nrf52832_xxAA_s132_6.0.0.dir/__/__/__/mesh/core/src/beacon.c.obj
 .debug_line    0x00000000000102cd      0x31b CMakeFiles/light_switch_provisioner_nrf52832_xxAA_s132_6.0.0.dir/__/__/__/mesh/core/src/flash_manager_internal.c.obj
 .debug_line    0x00000000000105e8      0x42e CMakeFiles/light_switch_provisioner_nrf52832_xxAA_s132_6.0.0.dir/__/__/__/mesh/core/src/core_tx.c.obj
 .debug_line    0x0000000000010a16      0x6b8 CMakeFiles/light_switch_provisioner_nrf52832_xxAA_s132_6.0.0.dir/__/__/__/mesh/core/src/heartbeat.c.obj
 .debug_line    0x00000000000110ce      0x756 CMakeFiles/light_switch_provisioner_nrf52832_xxAA_s132_6.0.0.dir/__/__/__/mesh/core/src/net_beacon.c.obj
 .debug_line    0x0000000000011824      0x5cc CMakeFiles/light_switch_provisioner_nrf52832_xxAA_s132_6.0.0.dir/__/__/__/mesh/core/src/core_tx_adv.c.obj
 .debug_line    0x0000000000011df0      0x43b CMakeFiles/light_switch_provisioner_nrf52832_xxAA_s132_6.0.0.dir/__/__/__/mesh/bearer/src/ad_listener.c.obj
 .debug_line    0x000000000001222b      0x50f CMakeFiles/light_switch_provisioner_nrf52832_xxAA_s132_6.0.0.dir/__/__/__/mesh/bearer/src/ad_type_filter.c.obj
 .debug_line    0x000000000001273a      0x8cd CMakeFiles/light_switch_provisioner_nrf52832_xxAA_s132_6.0.0.dir/__/__/__/mesh/bearer/src/advertiser.c.obj
 .debug_line    0x0000000000013007      0x617 CMakeFiles/light_switch_provisioner_nrf52832_xxAA_s132_6.0.0.dir/__/__/__/mesh/bearer/src/bearer_handler.c.obj
 .debug_line    0x000000000001361e      0x42f CMakeFiles/light_switch_provisioner_nrf52832_xxAA_s132_6.0.0.dir/__/__/__/mesh/bearer/src/broadcast.c.obj
 .debug_line    0x0000000000013a4d      0x450 CMakeFiles/light_switch_provisioner_nrf52832_xxAA_s132_6.0.0.dir/__/__/__/mesh/bearer/src/filter_engine.c.obj
 .debug_line    0x0000000000013e9d      0x346 CMakeFiles/light_switch_provisioner_nrf52832_xxAA_s132_6.0.0.dir/__/__/__/mesh/bearer/src/radio_config.c.obj
 .debug_line    0x00000000000141e3      0x8ef CMakeFiles/light_switch_provisioner_nrf52832_xxAA_s132_6.0.0.dir/__/__/__/mesh/bearer/src/scanner.c.obj
 .debug_line    0x0000000000014ad2     0x1603 CMakeFiles/light_switch_provisioner_nrf52832_xxAA_s132_6.0.0.dir/__/__/__/models/config/src/config_client.c.obj
 .debug_line    0x00000000000160d5      0x3d2 CMakeFiles/light_switch_provisioner_nrf52832_xxAA_s132_6.0.0.dir/__/__/__/models/config/src/composition_data.c.obj
 .debug_line    0x00000000000164a7     0x216f CMakeFiles/light_switch_provisioner_nrf52832_xxAA_s132_6.0.0.dir/__/__/__/models/config/src/config_server.c.obj
 .debug_line    0x0000000000018616      0x10a CMakeFiles/light_switch_provisioner_nrf52832_xxAA_s132_6.0.0.dir/__/__/__/models/config/src/packed_index_list.c.obj
 .debug_line    0x0000000000018720      0xb56 CMakeFiles/light_switch_provisioner_nrf52832_xxAA_s132_6.0.0.dir/__/__/__/models/health/src/health_server.c.obj
 .debug_line    0x0000000000019276      0x751 CMakeFiles/light_switch_provisioner_nrf52832_xxAA_s132_6.0.0.dir/__/__/__/models/health/src/health_client.c.obj
 .debug_line    0x00000000000199c7      0x5c8 CMakeFiles/light_switch_provisioner_nrf52832_xxAA_s132_6.0.0.dir/__/__/__/mesh/access/src/access_publish.c.obj
 .debug_line    0x0000000000019f8f     0x13a6 CMakeFiles/light_switch_provisioner_nrf52832_xxAA_s132_6.0.0.dir/__/__/__/mesh/access/src/access.c.obj
 .debug_line    0x000000000001b335      0x6ee CMakeFiles/light_switch_provisioner_nrf52832_xxAA_s132_6.0.0.dir/__/__/__/mesh/access/src/access_reliable.c.obj
 .debug_line    0x000000000001ba23     0x1f0d CMakeFiles/light_switch_provisioner_nrf52832_xxAA_s132_6.0.0.dir/__/__/__/mesh/access/src/device_state_manager.c.obj
 .debug_line    0x000000000001d930      0x749 CMakeFiles/light_switch_provisioner_nrf52832_xxAA_s132_6.0.0.dir/__/__/__/mesh/prov/src/prov_provisioner.c.obj
 .debug_line    0x000000000001e079      0x687 CMakeFiles/light_switch_provisioner_nrf52832_xxAA_s132_6.0.0.dir/__/__/__/mesh/prov/src/nrf_mesh_prov.c.obj
 .debug_line    0x000000000001e700      0x514 CMakeFiles/light_switch_provisioner_nrf52832_xxAA_s132_6.0.0.dir/__/__/__/mesh/prov/src/provisioning.c.obj
 .debug_line    0x000000000001ec14      0x5c4 CMakeFiles/light_switch_provisioner_nrf52832_xxAA_s132_6.0.0.dir/__/__/__/mesh/prov/src/prov_beacon.c.obj
 .debug_line    0x000000000001f1d8      0x594 CMakeFiles/light_switch_provisioner_nrf52832_xxAA_s132_6.0.0.dir/__/__/__/mesh/prov/src/prov_utils.c.obj
 .debug_line    0x000000000001f76c      0xf19 CMakeFiles/light_switch_provisioner_nrf52832_xxAA_s132_6.0.0.dir/__/__/__/mesh/prov/src/prov_bearer_adv.c.obj
 .debug_line    0x0000000000020685      0x2bd CMakeFiles/light_switch_provisioner_nrf52832_xxAA_s132_6.0.0.dir/home/mazzer/work/nordic/sdk/nRF5_SDK_15.0.0/modules/nrfx/mdk/system_nrf52.c.obj
 .debug_line    0x0000000000020942       0xa1 CMakeFiles/light_switch_provisioner_nrf52832_xxAA_s132_6.0.0.dir/home/mazzer/work/nordic/sdk/nRF5_SDK_15.0.0/modules/nrfx/mdk/gcc_startup_nrf52.S.obj
 .debug_line    0x00000000000209e3      0x214 CMakeFiles/light_switch_provisioner_nrf52832_xxAA_s132_6.0.0.dir/home/mazzer/work/nordic/sdk/nRF5_SDK_15.0.0/components/libraries/util/app_error_handler_gcc.c.obj
 .debug_line    0x0000000000020bf7      0xaaf ../../../external/rtt/librtt_nrf52832_xxAA.a(SEGGER_RTT.c.obj)
 .debug_line    0x00000000000216a6      0x401 ../../../external/rtt/librtt_nrf52832_xxAA.a(SEGGER_RTT_printf.c.obj)
 .debug_line    0x0000000000021aa7     0x175b ../../../external/micro-ecc/libuECC_nrf52832_xxAA.a(uECC.c.obj)

.debug_str      0x0000000000000000    0x153ab
 .debug_str     0x0000000000000000     0x4663 CMakeFiles/light_switch_provisioner_nrf52832_xxAA_s132_6.0.0.dir/src/main.c.obj
                                       0x4cdd (size before relaxing)
 .debug_str     0x0000000000004663      0x2a4 CMakeFiles/light_switch_provisioner_nrf52832_xxAA_s132_6.0.0.dir/__/__/__/mesh/stack/src/mesh_stack.c.obj
                                       0x27a3 (size before relaxing)
 .debug_str     0x0000000000004907     0x1a20 CMakeFiles/light_switch_provisioner_nrf52832_xxAA_s132_6.0.0.dir/src/provisioner_helper.c.obj
                                       0x2e3d (size before relaxing)
 .debug_str     0x0000000000006327      0x97a CMakeFiles/light_switch_provisioner_nrf52832_xxAA_s132_6.0.0.dir/src/node_setup.c.obj
                                       0x25a9 (size before relaxing)
 .debug_str     0x0000000000006ca1      0x34e CMakeFiles/light_switch_provisioner_nrf52832_xxAA_s132_6.0.0.dir/__/__/common/src/mesh_softdevice_init.c.obj
                                       0x11f1 (size before relaxing)
 .debug_str     0x0000000000006fef      0x1c4 CMakeFiles/light_switch_provisioner_nrf52832_xxAA_s132_6.0.0.dir/__/__/common/src/rtt_input.c.obj
                                        0xbde (size before relaxing)
 .debug_str     0x00000000000071b3      0x21c CMakeFiles/light_switch_provisioner_nrf52832_xxAA_s132_6.0.0.dir/__/__/common/src/simple_hal.c.obj
                                        0xd60 (size before relaxing)
 .debug_str     0x00000000000073cf       0x73 CMakeFiles/light_switch_provisioner_nrf52832_xxAA_s132_6.0.0.dir/__/__/nrf_mesh_weak.c.obj
                                        0x691 (size before relaxing)
 .debug_str     0x0000000000007442       0xd7 CMakeFiles/light_switch_provisioner_nrf52832_xxAA_s132_6.0.0.dir/__/__/common/src/app_error_weak.c.obj
                                        0x8d2 (size before relaxing)
 .debug_str     0x0000000000007519       0x73 CMakeFiles/light_switch_provisioner_nrf52832_xxAA_s132_6.0.0.dir/__/__/common/src/assertion_handler_weak.c.obj
                                        0x6e7 (size before relaxing)
 .debug_str     0x000000000000758c      0x190 CMakeFiles/light_switch_provisioner_nrf52832_xxAA_s132_6.0.0.dir/__/__/__/mesh/core/src/nrf_mesh_configure.c.obj
                                        0x7f3 (size before relaxing)
 .debug_str     0x000000000000771c       0xf8 CMakeFiles/light_switch_provisioner_nrf52832_xxAA_s132_6.0.0.dir/__/__/__/mesh/core/src/aes.c.obj
                                        0xafe (size before relaxing)
 .debug_str     0x0000000000007814       0xf2 CMakeFiles/light_switch_provisioner_nrf52832_xxAA_s132_6.0.0.dir/__/__/__/mesh/core/src/msg_cache.c.obj
                                        0x72e (size before relaxing)
 .debug_str     0x0000000000007906     0x1673 CMakeFiles/light_switch_provisioner_nrf52832_xxAA_s132_6.0.0.dir/__/__/__/mesh/core/src/transport.c.obj
                                       0x318c (size before relaxing)
 .debug_str     0x0000000000008f79       0xb9 CMakeFiles/light_switch_provisioner_nrf52832_xxAA_s132_6.0.0.dir/__/__/__/mesh/core/src/event.c.obj
                                       0x1728 (size before relaxing)
 .debug_str     0x0000000000009032      0x344 CMakeFiles/light_switch_provisioner_nrf52832_xxAA_s132_6.0.0.dir/__/__/__/mesh/core/src/packet_buffer.c.obj
                                        0xb21 (size before relaxing)
 .debug_str     0x0000000000009376      0x67b CMakeFiles/light_switch_provisioner_nrf52832_xxAA_s132_6.0.0.dir/__/__/__/mesh/core/src/flash_manager_defrag.c.obj
                                       0x1179 (size before relaxing)
 .debug_str     0x00000000000099f1       0xdc CMakeFiles/light_switch_provisioner_nrf52832_xxAA_s132_6.0.0.dir/__/__/__/mesh/core/src/fifo.c.obj
                                        0x750 (size before relaxing)
 .debug_str     0x0000000000009acd       0xe1 CMakeFiles/light_switch_provisioner_nrf52832_xxAA_s132_6.0.0.dir/__/__/__/mesh/core/src/nrf_flash.c.obj
                                        0x730 (size before relaxing)
 .debug_str     0x0000000000009bae      0x2be CMakeFiles/light_switch_provisioner_nrf52832_xxAA_s132_6.0.0.dir/__/__/__/mesh/core/src/packet_mgr.c.obj
                                        0xa1a (size before relaxing)
 .debug_str     0x0000000000009e6c      0x49c CMakeFiles/light_switch_provisioner_nrf52832_xxAA_s132_6.0.0.dir/__/__/__/mesh/core/src/net_state.c.obj
                                       0x21ce (size before relaxing)
 .debug_str     0x000000000000a308      0x3be CMakeFiles/light_switch_provisioner_nrf52832_xxAA_s132_6.0.0.dir/__/__/__/mesh/core/src/mesh_flash.c.obj
                                        0xd51 (size before relaxing)
 .debug_str     0x000000000000a6c6       0xc2 CMakeFiles/light_switch_provisioner_nrf52832_xxAA_s132_6.0.0.dir/__/__/__/mesh/core/src/nrf_mesh_utils.c.obj
                                        0x7c6 (size before relaxing)
 .debug_str     0x000000000000a788      0x633 CMakeFiles/light_switch_provisioner_nrf52832_xxAA_s132_6.0.0.dir/__/__/__/mesh/core/src/nrf_mesh.c.obj
                                       0x21ac (size before relaxing)
 .debug_str     0x000000000000adbb       0x92 CMakeFiles/light_switch_provisioner_nrf52832_xxAA_s132_6.0.0.dir/__/__/__/mesh/core/src/queue.c.obj
                                        0x6f8 (size before relaxing)
 .debug_str     0x000000000000ae4d       0xec CMakeFiles/light_switch_provisioner_nrf52832_xxAA_s132_6.0.0.dir/__/__/__/mesh/core/src/hal.c.obj
                                        0x7be (size before relaxing)
 .debug_str     0x000000000000af39      0x101 CMakeFiles/light_switch_provisioner_nrf52832_xxAA_s132_6.0.0.dir/__/__/__/mesh/core/src/aes_cmac.c.obj
                                        0x78a (size before relaxing)
 .debug_str     0x000000000000b03a      0x17d CMakeFiles/light_switch_provisioner_nrf52832_xxAA_s132_6.0.0.dir/__/__/__/mesh/core/src/timer_scheduler.c.obj
                                        0x9a9 (size before relaxing)
 .debug_str     0x000000000000b1b7      0x212 CMakeFiles/light_switch_provisioner_nrf52832_xxAA_s132_6.0.0.dir/__/__/__/mesh/core/src/timer.c.obj
                                        0x8de (size before relaxing)
 .debug_str     0x000000000000b3c9       0x79 CMakeFiles/light_switch_provisioner_nrf52832_xxAA_s132_6.0.0.dir/__/__/__/mesh/core/src/ticker.c.obj
                                        0x3ca (size before relaxing)
 .debug_str     0x000000000000b442       0xe3 CMakeFiles/light_switch_provisioner_nrf52832_xxAA_s132_6.0.0.dir/__/__/__/mesh/core/src/rand.c.obj
                                        0x752 (size before relaxing)
 .debug_str     0x000000000000b525       0xbf CMakeFiles/light_switch_provisioner_nrf52832_xxAA_s132_6.0.0.dir/__/__/__/mesh/core/src/nrf_mesh_opt.c.obj
                                        0x965 (size before relaxing)
 .debug_str     0x000000000000b5e4      0x8e6 CMakeFiles/light_switch_provisioner_nrf52832_xxAA_s132_6.0.0.dir/__/__/__/mesh/core/src/timeslot.c.obj
                                       0x186b (size before relaxing)
 .debug_str     0x000000000000beca      0x2fd CMakeFiles/light_switch_provisioner_nrf52832_xxAA_s132_6.0.0.dir/__/__/__/mesh/core/src/bearer_event.c.obj
                                        0xf2e (size before relaxing)
 .debug_str     0x000000000000c1c7      0x1a5 CMakeFiles/light_switch_provisioner_nrf52832_xxAA_s132_6.0.0.dir/__/__/__/mesh/core/src/enc.c.obj
                                        0xa5d (size before relaxing)
 .debug_str     0x000000000000c36c      0x330 CMakeFiles/light_switch_provisioner_nrf52832_xxAA_s132_6.0.0.dir/__/__/__/mesh/core/src/network.c.obj
                                       0x135d (size before relaxing)
 .debug_str     0x000000000000c69c      0x346 CMakeFiles/light_switch_provisioner_nrf52832_xxAA_s132_6.0.0.dir/__/__/__/mesh/core/src/net_packet.c.obj
                                        0xefb (size before relaxing)
 .debug_str     0x000000000000c9e2       0x8a CMakeFiles/light_switch_provisioner_nrf52832_xxAA_s132_6.0.0.dir/__/__/__/mesh/core/src/msqueue.c.obj
                                        0x734 (size before relaxing)
 .debug_str     0x000000000000ca6c       0xf6 CMakeFiles/light_switch_provisioner_nrf52832_xxAA_s132_6.0.0.dir/__/__/__/mesh/core/src/nrf_mesh_keygen.c.obj
                                        0x40c (size before relaxing)
 .debug_str     0x000000000000cb62       0xb4 CMakeFiles/light_switch_provisioner_nrf52832_xxAA_s132_6.0.0.dir/__/__/__/mesh/core/src/list.c.obj
                                        0x333 (size before relaxing)
 .debug_str     0x000000000000cc16      0x12e CMakeFiles/light_switch_provisioner_nrf52832_xxAA_s132_6.0.0.dir/__/__/__/mesh/core/src/log.c.obj
                                        0x845 (size before relaxing)
 .debug_str     0x000000000000cd44      0x51e CMakeFiles/light_switch_provisioner_nrf52832_xxAA_s132_6.0.0.dir/__/__/__/mesh/core/src/flash_manager.c.obj
                                       0x15ed (size before relaxing)
 .debug_str     0x000000000000d262       0xbc CMakeFiles/light_switch_provisioner_nrf52832_xxAA_s132_6.0.0.dir/__/__/__/mesh/core/src/ccm_soft.c.obj
                                        0x7d2 (size before relaxing)
 .debug_str     0x000000000000d31e       0xc9 CMakeFiles/light_switch_provisioner_nrf52832_xxAA_s132_6.0.0.dir/__/__/__/mesh/core/src/replay_cache.c.obj
                                        0x702 (size before relaxing)
 .debug_str     0x000000000000d3e7      0x10b CMakeFiles/light_switch_provisioner_nrf52832_xxAA_s132_6.0.0.dir/__/__/__/mesh/core/src/beacon.c.obj
                                       0x1178 (size before relaxing)
 .debug_str     0x000000000000d4f2       0x6f CMakeFiles/light_switch_provisioner_nrf52832_xxAA_s132_6.0.0.dir/__/__/__/mesh/core/src/flash_manager_internal.c.obj
                                        0x819 (size before relaxing)
 .debug_str     0x000000000000d561      0x2fe CMakeFiles/light_switch_provisioner_nrf52832_xxAA_s132_6.0.0.dir/__/__/__/mesh/core/src/core_tx.c.obj
                                        0xc64 (size before relaxing)
 .debug_str     0x000000000000d85f      0x44f CMakeFiles/light_switch_provisioner_nrf52832_xxAA_s132_6.0.0.dir/__/__/__/mesh/core/src/heartbeat.c.obj
                                       0x22b5 (size before relaxing)
 .debug_str     0x000000000000dcae      0x293 CMakeFiles/light_switch_provisioner_nrf52832_xxAA_s132_6.0.0.dir/__/__/__/mesh/core/src/net_beacon.c.obj
                                       0x2115 (size before relaxing)
 .debug_str     0x000000000000df41      0x13e CMakeFiles/light_switch_provisioner_nrf52832_xxAA_s132_6.0.0.dir/__/__/__/mesh/core/src/core_tx_adv.c.obj
                                       0x134e (size before relaxing)
 .debug_str     0x000000000000e07f      0x1bd CMakeFiles/light_switch_provisioner_nrf52832_xxAA_s132_6.0.0.dir/__/__/__/mesh/bearer/src/ad_listener.c.obj
                                        0xc57 (size before relaxing)
 .debug_str     0x000000000000e23c      0x199 CMakeFiles/light_switch_provisioner_nrf52832_xxAA_s132_6.0.0.dir/__/__/__/mesh/bearer/src/ad_type_filter.c.obj
                                        0xa14 (size before relaxing)
 .debug_str     0x000000000000e3d5      0x358 CMakeFiles/light_switch_provisioner_nrf52832_xxAA_s132_6.0.0.dir/__/__/__/mesh/bearer/src/advertiser.c.obj
                                       0x1567 (size before relaxing)
 .debug_str     0x000000000000e72d      0x35f CMakeFiles/light_switch_provisioner_nrf52832_xxAA_s132_6.0.0.dir/__/__/__/mesh/bearer/src/bearer_handler.c.obj
                                        0xfea (size before relaxing)
 .debug_str     0x000000000000ea8c      0x1e3 CMakeFiles/light_switch_provisioner_nrf52832_xxAA_s132_6.0.0.dir/__/__/__/mesh/bearer/src/broadcast.c.obj
                                        0xfa1 (size before relaxing)
 .debug_str     0x000000000000ec6f       0xa9 CMakeFiles/light_switch_provisioner_nrf52832_xxAA_s132_6.0.0.dir/__/__/__/mesh/bearer/src/filter_engine.c.obj
                                        0x881 (size before relaxing)
 .debug_str     0x000000000000ed18       0xb0 CMakeFiles/light_switch_provisioner_nrf52832_xxAA_s132_6.0.0.dir/__/__/__/mesh/bearer/src/radio_config.c.obj
                                        0x7ef (size before relaxing)
 .debug_str     0x000000000000edc8      0x494 CMakeFiles/light_switch_provisioner_nrf52832_xxAA_s132_6.0.0.dir/__/__/__/mesh/bearer/src/scanner.c.obj
                                       0x1933 (size before relaxing)
 .debug_str     0x000000000000f25c      0xd4a CMakeFiles/light_switch_provisioner_nrf52832_xxAA_s132_6.0.0.dir/__/__/__/models/config/src/config_client.c.obj
                                       0x2c63 (size before relaxing)
 .debug_str     0x000000000000ffa6      0x262 CMakeFiles/light_switch_provisioner_nrf52832_xxAA_s132_6.0.0.dir/__/__/__/models/config/src/composition_data.c.obj
                                        0x952 (size before relaxing)
 .debug_str     0x0000000000010208     0x1157 CMakeFiles/light_switch_provisioner_nrf52832_xxAA_s132_6.0.0.dir/__/__/__/models/config/src/config_server.c.obj
                                       0x507a (size before relaxing)
 .debug_str     0x000000000001135f       0xa0 CMakeFiles/light_switch_provisioner_nrf52832_xxAA_s132_6.0.0.dir/__/__/__/models/config/src/packed_index_list.c.obj
                                        0x2cb (size before relaxing)
 .debug_str     0x00000000000113ff      0x63e CMakeFiles/light_switch_provisioner_nrf52832_xxAA_s132_6.0.0.dir/__/__/__/models/health/src/health_server.c.obj
                                       0x1714 (size before relaxing)
 .debug_str     0x0000000000011a3d      0x1ca CMakeFiles/light_switch_provisioner_nrf52832_xxAA_s132_6.0.0.dir/__/__/__/models/health/src/health_client.c.obj
                                       0x14ae (size before relaxing)
 .debug_str     0x0000000000011c07      0x29b CMakeFiles/light_switch_provisioner_nrf52832_xxAA_s132_6.0.0.dir/__/__/__/mesh/access/src/access_publish.c.obj
                                        0xc41 (size before relaxing)
 .debug_str     0x0000000000011ea2      0x7bc CMakeFiles/light_switch_provisioner_nrf52832_xxAA_s132_6.0.0.dir/__/__/__/mesh/access/src/access.c.obj
                                       0x2feb (size before relaxing)
 .debug_str     0x000000000001265e      0x166 CMakeFiles/light_switch_provisioner_nrf52832_xxAA_s132_6.0.0.dir/__/__/__/mesh/access/src/access_reliable.c.obj
                                       0x107b (size before relaxing)
 .debug_str     0x00000000000127c4      0xcfc CMakeFiles/light_switch_provisioner_nrf52832_xxAA_s132_6.0.0.dir/__/__/__/mesh/access/src/device_state_manager.c.obj
                                       0x30ee (size before relaxing)
 .debug_str     0x00000000000134c0      0x538 CMakeFiles/light_switch_provisioner_nrf52832_xxAA_s132_6.0.0.dir/__/__/__/mesh/prov/src/prov_provisioner.c.obj
                                       0x1fe9 (size before relaxing)
 .debug_str     0x00000000000139f8      0x238 CMakeFiles/light_switch_provisioner_nrf52832_xxAA_s132_6.0.0.dir/__/__/__/mesh/prov/src/nrf_mesh_prov.c.obj
                                       0x1e4f (size before relaxing)
 .debug_str     0x0000000000013c30      0x13c CMakeFiles/light_switch_provisioner_nrf52832_xxAA_s132_6.0.0.dir/__/__/__/mesh/prov/src/provisioning.c.obj
                                        0xfa0 (size before relaxing)
 .debug_str     0x0000000000013d6c       0xe8 CMakeFiles/light_switch_provisioner_nrf52832_xxAA_s132_6.0.0.dir/__/__/__/mesh/prov/src/prov_beacon.c.obj
                                       0x19d1 (size before relaxing)
 .debug_str     0x0000000000013e54      0x1dc CMakeFiles/light_switch_provisioner_nrf52832_xxAA_s132_6.0.0.dir/__/__/__/mesh/prov/src/prov_utils.c.obj
                                       0x1f9e (size before relaxing)
 .debug_str     0x0000000000014030      0x44e CMakeFiles/light_switch_provisioner_nrf52832_xxAA_s132_6.0.0.dir/__/__/__/mesh/prov/src/prov_bearer_adv.c.obj
                                       0x1c35 (size before relaxing)
 .debug_str     0x000000000001447e      0x2f6 CMakeFiles/light_switch_provisioner_nrf52832_xxAA_s132_6.0.0.dir/home/mazzer/work/nordic/sdk/nRF5_SDK_15.0.0/modules/nrfx/mdk/system_nrf52.c.obj
                                        0x7c7 (size before relaxing)
 .debug_str     0x0000000000014774       0x61 CMakeFiles/light_switch_provisioner_nrf52832_xxAA_s132_6.0.0.dir/home/mazzer/work/nordic/sdk/nRF5_SDK_15.0.0/modules/nrfx/mdk/gcc_startup_nrf52.S.obj
                                         0xbf (size before relaxing)
 .debug_str     0x00000000000147d5       0x6a CMakeFiles/light_switch_provisioner_nrf52832_xxAA_s132_6.0.0.dir/home/mazzer/work/nordic/sdk/nRF5_SDK_15.0.0/components/libraries/util/app_error_handler_gcc.c.obj
                                        0x6d7 (size before relaxing)
 .debug_str     0x000000000001483f      0x33f ../../../external/rtt/librtt_nrf52832_xxAA.a(SEGGER_RTT.c.obj)
                                        0x982 (size before relaxing)
 .debug_str     0x0000000000014b7e      0x116 ../../../external/rtt/librtt_nrf52832_xxAA.a(SEGGER_RTT_printf.c.obj)
                                        0x7f2 (size before relaxing)
 .debug_str     0x0000000000014c94      0x717 ../../../external/micro-ecc/libuECC_nrf52832_xxAA.a(uECC.c.obj)
                                        0x8df (size before relaxing)

.debug_frame    0x0000000000000000     0x7908
 .debug_frame   0x0000000000000000      0x330 CMakeFiles/light_switch_provisioner_nrf52832_xxAA_s132_6.0.0.dir/src/main.c.obj
 .debug_frame   0x0000000000000330       0xdc CMakeFiles/light_switch_provisioner_nrf52832_xxAA_s132_6.0.0.dir/__/__/__/mesh/stack/src/mesh_stack.c.obj
 .debug_frame   0x000000000000040c      0x110 CMakeFiles/light_switch_provisioner_nrf52832_xxAA_s132_6.0.0.dir/src/provisioner_helper.c.obj
 .debug_frame   0x000000000000051c      0x150 CMakeFiles/light_switch_provisioner_nrf52832_xxAA_s132_6.0.0.dir/src/node_setup.c.obj
 .debug_frame   0x000000000000066c       0x88 CMakeFiles/light_switch_provisioner_nrf52832_xxAA_s132_6.0.0.dir/__/__/common/src/mesh_softdevice_init.c.obj
 .debug_frame   0x00000000000006f4       0x60 CMakeFiles/light_switch_provisioner_nrf52832_xxAA_s132_6.0.0.dir/__/__/common/src/rtt_input.c.obj
 .debug_frame   0x0000000000000754       0xbc CMakeFiles/light_switch_provisioner_nrf52832_xxAA_s132_6.0.0.dir/__/__/common/src/simple_hal.c.obj
 .debug_frame   0x0000000000000810       0x30 CMakeFiles/light_switch_provisioner_nrf52832_xxAA_s132_6.0.0.dir/__/__/nrf_mesh_weak.c.obj
 .debug_frame   0x0000000000000840       0x34 CMakeFiles/light_switch_provisioner_nrf52832_xxAA_s132_6.0.0.dir/__/__/common/src/app_error_weak.c.obj
 .debug_frame   0x0000000000000874       0x2c CMakeFiles/light_switch_provisioner_nrf52832_xxAA_s132_6.0.0.dir/__/__/common/src/assertion_handler_weak.c.obj
 .debug_frame   0x00000000000008a0       0x4c CMakeFiles/light_switch_provisioner_nrf52832_xxAA_s132_6.0.0.dir/__/__/__/mesh/core/src/nrf_mesh_configure.c.obj
 .debug_frame   0x00000000000008ec       0x40 CMakeFiles/light_switch_provisioner_nrf52832_xxAA_s132_6.0.0.dir/__/__/__/mesh/core/src/aes.c.obj
 .debug_frame   0x000000000000092c       0x7c CMakeFiles/light_switch_provisioner_nrf52832_xxAA_s132_6.0.0.dir/__/__/__/mesh/core/src/msg_cache.c.obj
 .debug_frame   0x00000000000009a8      0x3fc CMakeFiles/light_switch_provisioner_nrf52832_xxAA_s132_6.0.0.dir/__/__/__/mesh/core/src/transport.c.obj
 .debug_frame   0x0000000000000da4       0x74 CMakeFiles/light_switch_provisioner_nrf52832_xxAA_s132_6.0.0.dir/__/__/__/mesh/core/src/event.c.obj
 .debug_frame   0x0000000000000e18      0x10c CMakeFiles/light_switch_provisioner_nrf52832_xxAA_s132_6.0.0.dir/__/__/__/mesh/core/src/packet_buffer.c.obj
 .debug_frame   0x0000000000000f24      0x268 CMakeFiles/light_switch_provisioner_nrf52832_xxAA_s132_6.0.0.dir/__/__/__/mesh/core/src/flash_manager_defrag.c.obj
 .debug_frame   0x000000000000118c       0xd8 CMakeFiles/light_switch_provisioner_nrf52832_xxAA_s132_6.0.0.dir/__/__/__/mesh/core/src/fifo.c.obj
 .debug_frame   0x0000000000001264       0x3c CMakeFiles/light_switch_provisioner_nrf52832_xxAA_s132_6.0.0.dir/__/__/__/mesh/core/src/nrf_flash.c.obj
 .debug_frame   0x00000000000012a0       0xac CMakeFiles/light_switch_provisioner_nrf52832_xxAA_s132_6.0.0.dir/__/__/__/mesh/core/src/packet_mgr.c.obj
 .debug_frame   0x000000000000134c      0x31c CMakeFiles/light_switch_provisioner_nrf52832_xxAA_s132_6.0.0.dir/__/__/__/mesh/core/src/net_state.c.obj
 .debug_frame   0x0000000000001668      0x130 CMakeFiles/light_switch_provisioner_nrf52832_xxAA_s132_6.0.0.dir/__/__/__/mesh/core/src/mesh_flash.c.obj
 .debug_frame   0x0000000000001798       0x60 CMakeFiles/light_switch_provisioner_nrf52832_xxAA_s132_6.0.0.dir/__/__/__/mesh/core/src/nrf_mesh_utils.c.obj
 .debug_frame   0x00000000000017f8      0x200 CMakeFiles/light_switch_provisioner_nrf52832_xxAA_s132_6.0.0.dir/__/__/__/mesh/core/src/nrf_mesh.c.obj
 .debug_frame   0x00000000000019f8       0x74 CMakeFiles/light_switch_provisioner_nrf52832_xxAA_s132_6.0.0.dir/__/__/__/mesh/core/src/queue.c.obj
 .debug_frame   0x0000000000001a6c       0x58 CMakeFiles/light_switch_provisioner_nrf52832_xxAA_s132_6.0.0.dir/__/__/__/mesh/core/src/hal.c.obj
 .debug_frame   0x0000000000001ac4       0x60 CMakeFiles/light_switch_provisioner_nrf52832_xxAA_s132_6.0.0.dir/__/__/__/mesh/core/src/aes_cmac.c.obj
 .debug_frame   0x0000000000001b24       0xe4 CMakeFiles/light_switch_provisioner_nrf52832_xxAA_s132_6.0.0.dir/__/__/__/mesh/core/src/timer_scheduler.c.obj
 .debug_frame   0x0000000000001c08      0x158 CMakeFiles/light_switch_provisioner_nrf52832_xxAA_s132_6.0.0.dir/__/__/__/mesh/core/src/timer.c.obj
 .debug_frame   0x0000000000001d60       0x4c CMakeFiles/light_switch_provisioner_nrf52832_xxAA_s132_6.0.0.dir/__/__/__/mesh/core/src/ticker.c.obj
 .debug_frame   0x0000000000001dac       0x9c CMakeFiles/light_switch_provisioner_nrf52832_xxAA_s132_6.0.0.dir/__/__/__/mesh/core/src/rand.c.obj
 .debug_frame   0x0000000000001e48       0x30 CMakeFiles/light_switch_provisioner_nrf52832_xxAA_s132_6.0.0.dir/__/__/__/mesh/core/src/nrf_mesh_opt.c.obj
 .debug_frame   0x0000000000001e78      0x190 CMakeFiles/light_switch_provisioner_nrf52832_xxAA_s132_6.0.0.dir/__/__/__/mesh/core/src/timeslot.c.obj
 .debug_frame   0x0000000000002008      0x1ac CMakeFiles/light_switch_provisioner_nrf52832_xxAA_s132_6.0.0.dir/__/__/__/mesh/core/src/bearer_event.c.obj
 .debug_frame   0x00000000000021b4      0x158 CMakeFiles/light_switch_provisioner_nrf52832_xxAA_s132_6.0.0.dir/__/__/__/mesh/core/src/enc.c.obj
 .debug_frame   0x000000000000230c      0x10c CMakeFiles/light_switch_provisioner_nrf52832_xxAA_s132_6.0.0.dir/__/__/__/mesh/core/src/network.c.obj
 .debug_frame   0x0000000000002418       0xec CMakeFiles/light_switch_provisioner_nrf52832_xxAA_s132_6.0.0.dir/__/__/__/mesh/core/src/net_packet.c.obj
 .debug_frame   0x0000000000002504       0x94 CMakeFiles/light_switch_provisioner_nrf52832_xxAA_s132_6.0.0.dir/__/__/__/mesh/core/src/msqueue.c.obj
 .debug_frame   0x0000000000002598       0xc8 CMakeFiles/light_switch_provisioner_nrf52832_xxAA_s132_6.0.0.dir/__/__/__/mesh/core/src/nrf_mesh_keygen.c.obj
 .debug_frame   0x0000000000002660       0x98 CMakeFiles/light_switch_provisioner_nrf52832_xxAA_s132_6.0.0.dir/__/__/__/mesh/core/src/list.c.obj
 .debug_frame   0x00000000000026f8       0xc0 CMakeFiles/light_switch_provisioner_nrf52832_xxAA_s132_6.0.0.dir/__/__/__/mesh/core/src/log.c.obj
 .debug_frame   0x00000000000027b8      0x258 CMakeFiles/light_switch_provisioner_nrf52832_xxAA_s132_6.0.0.dir/__/__/__/mesh/core/src/flash_manager.c.obj
 .debug_frame   0x0000000000002a10       0xcc CMakeFiles/light_switch_provisioner_nrf52832_xxAA_s132_6.0.0.dir/__/__/__/mesh/core/src/ccm_soft.c.obj
 .debug_frame   0x0000000000002adc       0xc0 CMakeFiles/light_switch_provisioner_nrf52832_xxAA_s132_6.0.0.dir/__/__/__/mesh/core/src/replay_cache.c.obj
 .debug_frame   0x0000000000002b9c       0x7c CMakeFiles/light_switch_provisioner_nrf52832_xxAA_s132_6.0.0.dir/__/__/__/mesh/core/src/beacon.c.obj
 .debug_frame   0x0000000000002c18       0x34 CMakeFiles/light_switch_provisioner_nrf52832_xxAA_s132_6.0.0.dir/__/__/__/mesh/core/src/flash_manager_internal.c.obj
 .debug_frame   0x0000000000002c4c       0xf8 CMakeFiles/light_switch_provisioner_nrf52832_xxAA_s132_6.0.0.dir/__/__/__/mesh/core/src/core_tx.c.obj
 .debug_frame   0x0000000000002d44      0x184 CMakeFiles/light_switch_provisioner_nrf52832_xxAA_s132_6.0.0.dir/__/__/__/mesh/core/src/heartbeat.c.obj
 .debug_frame   0x0000000000002ec8      0x114 CMakeFiles/light_switch_provisioner_nrf52832_xxAA_s132_6.0.0.dir/__/__/__/mesh/core/src/net_beacon.c.obj
 .debug_frame   0x0000000000002fdc      0x138 CMakeFiles/light_switch_provisioner_nrf52832_xxAA_s132_6.0.0.dir/__/__/__/mesh/core/src/core_tx_adv.c.obj
 .debug_frame   0x0000000000003114       0x94 CMakeFiles/light_switch_provisioner_nrf52832_xxAA_s132_6.0.0.dir/__/__/__/mesh/bearer/src/ad_listener.c.obj
 .debug_frame   0x00000000000031a8       0xc0 CMakeFiles/light_switch_provisioner_nrf52832_xxAA_s132_6.0.0.dir/__/__/__/mesh/bearer/src/ad_type_filter.c.obj
 .debug_frame   0x0000000000003268      0x278 CMakeFiles/light_switch_provisioner_nrf52832_xxAA_s132_6.0.0.dir/__/__/__/mesh/bearer/src/advertiser.c.obj
 .debug_frame   0x00000000000034e0      0x170 CMakeFiles/light_switch_provisioner_nrf52832_xxAA_s132_6.0.0.dir/__/__/__/mesh/bearer/src/bearer_handler.c.obj
 .debug_frame   0x0000000000003650       0x74 CMakeFiles/light_switch_provisioner_nrf52832_xxAA_s132_6.0.0.dir/__/__/__/mesh/bearer/src/broadcast.c.obj
 .debug_frame   0x00000000000036c4       0x88 CMakeFiles/light_switch_provisioner_nrf52832_xxAA_s132_6.0.0.dir/__/__/__/mesh/bearer/src/filter_engine.c.obj
 .debug_frame   0x000000000000374c       0x98 CMakeFiles/light_switch_provisioner_nrf52832_xxAA_s132_6.0.0.dir/__/__/__/mesh/bearer/src/radio_config.c.obj
 .debug_frame   0x00000000000037e4      0x244 CMakeFiles/light_switch_provisioner_nrf52832_xxAA_s132_6.0.0.dir/__/__/__/mesh/bearer/src/scanner.c.obj
 .debug_frame   0x0000000000003a28      0x870 CMakeFiles/light_switch_provisioner_nrf52832_xxAA_s132_6.0.0.dir/__/__/__/models/config/src/config_client.c.obj
 .debug_frame   0x0000000000004298       0x48 CMakeFiles/light_switch_provisioner_nrf52832_xxAA_s132_6.0.0.dir/__/__/__/models/config/src/composition_data.c.obj
 .debug_frame   0x00000000000042e0      0x85c CMakeFiles/light_switch_provisioner_nrf52832_xxAA_s132_6.0.0.dir/__/__/__/models/config/src/config_server.c.obj
 .debug_frame   0x0000000000004b3c       0x30 CMakeFiles/light_switch_provisioner_nrf52832_xxAA_s132_6.0.0.dir/__/__/__/models/config/src/packed_index_list.c.obj
 .debug_frame   0x0000000000004b6c      0x27c CMakeFiles/light_switch_provisioner_nrf52832_xxAA_s132_6.0.0.dir/__/__/__/models/health/src/health_server.c.obj
 .debug_frame   0x0000000000004de8      0x240 CMakeFiles/light_switch_provisioner_nrf52832_xxAA_s132_6.0.0.dir/__/__/__/models/health/src/health_client.c.obj
 .debug_frame   0x0000000000005028       0xf4 CMakeFiles/light_switch_provisioner_nrf52832_xxAA_s132_6.0.0.dir/__/__/__/mesh/access/src/access_publish.c.obj
 .debug_frame   0x000000000000511c      0x670 CMakeFiles/light_switch_provisioner_nrf52832_xxAA_s132_6.0.0.dir/__/__/__/mesh/access/src/access.c.obj
 .debug_frame   0x000000000000578c      0x144 CMakeFiles/light_switch_provisioner_nrf52832_xxAA_s132_6.0.0.dir/__/__/__/mesh/access/src/access_reliable.c.obj
 .debug_frame   0x00000000000058d0      0xad4 CMakeFiles/light_switch_provisioner_nrf52832_xxAA_s132_6.0.0.dir/__/__/__/mesh/access/src/device_state_manager.c.obj
 .debug_frame   0x00000000000063a4      0x1a8 CMakeFiles/light_switch_provisioner_nrf52832_xxAA_s132_6.0.0.dir/__/__/__/mesh/prov/src/prov_provisioner.c.obj
 .debug_frame   0x000000000000654c      0x1c8 CMakeFiles/light_switch_provisioner_nrf52832_xxAA_s132_6.0.0.dir/__/__/__/mesh/prov/src/nrf_mesh_prov.c.obj
 .debug_frame   0x0000000000006714      0x1a0 CMakeFiles/light_switch_provisioner_nrf52832_xxAA_s132_6.0.0.dir/__/__/__/mesh/prov/src/provisioning.c.obj
 .debug_frame   0x00000000000068b4       0x88 CMakeFiles/light_switch_provisioner_nrf52832_xxAA_s132_6.0.0.dir/__/__/__/mesh/prov/src/prov_beacon.c.obj
 .debug_frame   0x000000000000693c      0x11c CMakeFiles/light_switch_provisioner_nrf52832_xxAA_s132_6.0.0.dir/__/__/__/mesh/prov/src/prov_utils.c.obj
 .debug_frame   0x0000000000006a58      0x2d8 CMakeFiles/light_switch_provisioner_nrf52832_xxAA_s132_6.0.0.dir/__/__/__/mesh/prov/src/prov_bearer_adv.c.obj
 .debug_frame   0x0000000000006d30       0x40 CMakeFiles/light_switch_provisioner_nrf52832_xxAA_s132_6.0.0.dir/home/mazzer/work/nordic/sdk/nRF5_SDK_15.0.0/modules/nrfx/mdk/system_nrf52.c.obj
 .debug_frame   0x0000000000006d70       0x20 CMakeFiles/light_switch_provisioner_nrf52832_xxAA_s132_6.0.0.dir/home/mazzer/work/nordic/sdk/nRF5_SDK_15.0.0/components/libraries/util/app_error_handler_gcc.c.obj
 .debug_frame   0x0000000000006d90      0x2e4 ../../../external/rtt/librtt_nrf52832_xxAA.a(SEGGER_RTT.c.obj)
 .debug_frame   0x0000000000007074       0xa0 ../../../external/rtt/librtt_nrf52832_xxAA.a(SEGGER_RTT_printf.c.obj)
 .debug_frame   0x0000000000007114      0x4c8 ../../../external/micro-ecc/libuECC_nrf52832_xxAA.a(uECC.c.obj)
 .debug_frame   0x00000000000075dc       0x2c /usr/bin/../lib/gcc/arm-none-eabi/7.2.1/thumb/v7e-m/fpv4-sp/hard/libgcc.a(_aeabi_uldivmod.o)
 .debug_frame   0x0000000000007608       0x34 /usr/bin/../lib/gcc/arm-none-eabi/7.2.1/thumb/v7e-m/fpv4-sp/hard/libgcc.a(_udivmoddi4.o)
 .debug_frame   0x000000000000763c       0x28 /usr/bin/../lib/gcc/arm-none-eabi/7.2.1/../../../../arm-none-eabi/lib/thumb/v7e-m/fpv4-sp/hard/libg_nano.a(lib_a-exit.o)
 .debug_frame   0x0000000000007664       0x2c /usr/bin/../lib/gcc/arm-none-eabi/7.2.1/../../../../arm-none-eabi/lib/thumb/v7e-m/fpv4-sp/hard/libg_nano.a(lib_a-init.o)
 .debug_frame   0x0000000000007690       0x30 /usr/bin/../lib/gcc/arm-none-eabi/7.2.1/../../../../arm-none-eabi/lib/thumb/v7e-m/fpv4-sp/hard/libg_nano.a(lib_a-malloc.o)
 .debug_frame   0x00000000000076c0       0x2c /usr/bin/../lib/gcc/arm-none-eabi/7.2.1/../../../../arm-none-eabi/lib/thumb/v7e-m/fpv4-sp/hard/libg_nano.a(lib_a-memcmp.o)
 .debug_frame   0x00000000000076ec       0x28 /usr/bin/../lib/gcc/arm-none-eabi/7.2.1/../../../../arm-none-eabi/lib/thumb/v7e-m/fpv4-sp/hard/libg_nano.a(lib_a-memcpy-stub.o)
 .debug_frame   0x0000000000007714       0x20 /usr/bin/../lib/gcc/arm-none-eabi/7.2.1/../../../../arm-none-eabi/lib/thumb/v7e-m/fpv4-sp/hard/libg_nano.a(lib_a-memset.o)
 .debug_frame   0x0000000000007734       0x38 /usr/bin/../lib/gcc/arm-none-eabi/7.2.1/../../../../arm-none-eabi/lib/thumb/v7e-m/fpv4-sp/hard/libg_nano.a(lib_a-nano-freer.o)
 .debug_frame   0x000000000000776c       0x2c /usr/bin/../lib/gcc/arm-none-eabi/7.2.1/../../../../arm-none-eabi/lib/thumb/v7e-m/fpv4-sp/hard/libg_nano.a(lib_a-nano-mallocr.o)
 .debug_frame   0x0000000000007798       0x2c /usr/bin/../lib/gcc/arm-none-eabi/7.2.1/../../../../arm-none-eabi/lib/thumb/v7e-m/fpv4-sp/hard/libg_nano.a(lib_a-sbrkr.o)
 .debug_frame   0x00000000000077c4       0x20 /usr/bin/../lib/gcc/arm-none-eabi/7.2.1/../../../../arm-none-eabi/lib/thumb/v7e-m/fpv4-sp/hard/libg_nano.a(lib_a-strcpy.o)
 .debug_frame   0x00000000000077e4       0x38 /usr/bin/../lib/gcc/arm-none-eabi/7.2.1/../../../../arm-none-eabi/lib/thumb/v7e-m/fpv4-sp/hard/libg_nano.a(lib_a-strrchr.o)
 .debug_frame   0x000000000000781c       0x30 /usr/bin/../lib/gcc/arm-none-eabi/7.2.1/../../../../arm-none-eabi/lib/thumb/v7e-m/fpv4-sp/hard/libg_nano.a(lib_a-mlock.o)
 .debug_frame   0x000000000000784c       0x5c /usr/bin/../lib/gcc/arm-none-eabi/7.2.1/../../../../arm-none-eabi/lib/thumb/v7e-m/fpv4-sp/hard/libg_nano.a(lib_a-reent.o)
 .debug_frame   0x00000000000078a8       0x20 /usr/bin/../lib/gcc/arm-none-eabi/7.2.1/../../../../arm-none-eabi/lib/thumb/v7e-m/fpv4-sp/hard/libg_nano.a(lib_a-strchr.o)
 .debug_frame   0x00000000000078c8       0x20 /usr/bin/../lib/gcc/arm-none-eabi/7.2.1/../../../../arm-none-eabi/lib/thumb/v7e-m/fpv4-sp/hard/libnosys.a(sbrk.o)
 .debug_frame   0x00000000000078e8       0x20 /usr/bin/../lib/gcc/arm-none-eabi/7.2.1/../../../../arm-none-eabi/lib/thumb/v7e-m/fpv4-sp/hard/libnosys.a(_exit.o)
