Archive member included to satisfy reference by file (symbol)

../../external/rtt/librtt_nrf52832_xxAA.a(SEGGER_RTT.c.obj)
                              CMakeFiles/enocean_switch_nrf52832_xxAA_s132_6.0.0.dir/__/__/mesh/core/src/log.c.obj (SEGGER_RTT_Write)
../../external/rtt/librtt_nrf52832_xxAA.a(SEGGER_RTT_printf.c.obj)
                              CMakeFiles/enocean_switch_nrf52832_xxAA_s132_6.0.0.dir/__/__/mesh/core/src/log.c.obj (SEGGER_RTT_vprintf)
../../external/micro-ecc/libuECC_nrf52832_xxAA.a(uECC.c.obj)
                              CMakeFiles/enocean_switch_nrf52832_xxAA_s132_6.0.0.dir/__/__/mesh/prov/src/prov_utils.c.obj (uECC_secp256r1)
/usr/bin/../lib/gcc/arm-none-eabi/7.2.1/thumb/v7e-m/fpv4-sp/hard/libgcc.a(_aeabi_ldivmod.o)
                              CMakeFiles/enocean_switch_nrf52832_xxAA_s132_6.0.0.dir/__/common/src/rtt_input.c.obj (__aeabi_ldivmod)
/usr/bin/../lib/gcc/arm-none-eabi/7.2.1/thumb/v7e-m/fpv4-sp/hard/libgcc.a(_aeabi_uldivmod.o)
                              CMakeFiles/enocean_switch_nrf52832_xxAA_s132_6.0.0.dir/__/common/src/rtt_input.c.obj (__aeabi_uldivmod)
/usr/bin/../lib/gcc/arm-none-eabi/7.2.1/thumb/v7e-m/fpv4-sp/hard/libgcc.a(_udivmoddi4.o)
                              /usr/bin/../lib/gcc/arm-none-eabi/7.2.1/thumb/v7e-m/fpv4-sp/hard/libgcc.a(_aeabi_ldivmod.o) (__udivmoddi4)
/usr/bin/../lib/gcc/arm-none-eabi/7.2.1/thumb/v7e-m/fpv4-sp/hard/libgcc.a(_dvmd_tls.o)
                              /usr/bin/../lib/gcc/arm-none-eabi/7.2.1/thumb/v7e-m/fpv4-sp/hard/libgcc.a(_aeabi_ldivmod.o) (__aeabi_ldiv0)
/usr/bin/../lib/gcc/arm-none-eabi/7.2.1/../../../../arm-none-eabi/lib/thumb/v7e-m/fpv4-sp/hard/libg_nano.a(lib_a-exit.o)
                              /usr/bin/../lib/gcc/arm-none-eabi/7.2.1/../../../../arm-none-eabi/lib/thumb/v7e-m/fpv4-sp/hard/crt0.o (exit)
/usr/bin/../lib/gcc/arm-none-eabi/7.2.1/../../../../arm-none-eabi/lib/thumb/v7e-m/fpv4-sp/hard/libg_nano.a(lib_a-impure.o)
                              /usr/bin/../lib/gcc/arm-none-eabi/7.2.1/../../../../arm-none-eabi/lib/thumb/v7e-m/fpv4-sp/hard/libg_nano.a(lib_a-exit.o) (_global_impure_ptr)
/usr/bin/../lib/gcc/arm-none-eabi/7.2.1/../../../../arm-none-eabi/lib/thumb/v7e-m/fpv4-sp/hard/libg_nano.a(lib_a-init.o)
                              /usr/bin/../lib/gcc/arm-none-eabi/7.2.1/../../../../arm-none-eabi/lib/thumb/v7e-m/fpv4-sp/hard/crt0.o (__libc_init_array)
/usr/bin/../lib/gcc/arm-none-eabi/7.2.1/../../../../arm-none-eabi/lib/thumb/v7e-m/fpv4-sp/hard/libg_nano.a(lib_a-malloc.o)
                              CMakeFiles/enocean_switch_nrf52832_xxAA_s132_6.0.0.dir/__/__/mesh/core/src/transport.c.obj (malloc)
/usr/bin/../lib/gcc/arm-none-eabi/7.2.1/../../../../arm-none-eabi/lib/thumb/v7e-m/fpv4-sp/hard/libg_nano.a(lib_a-memcmp.o)
                              CMakeFiles/enocean_switch_nrf52832_xxAA_s132_6.0.0.dir/src/enocean.c.obj (memcmp)
/usr/bin/../lib/gcc/arm-none-eabi/7.2.1/../../../../arm-none-eabi/lib/thumb/v7e-m/fpv4-sp/hard/libg_nano.a(lib_a-memcpy-stub.o)
                              CMakeFiles/enocean_switch_nrf52832_xxAA_s132_6.0.0.dir/src/main.c.obj (memcpy)
/usr/bin/../lib/gcc/arm-none-eabi/7.2.1/../../../../arm-none-eabi/lib/thumb/v7e-m/fpv4-sp/hard/libg_nano.a(lib_a-memset.o)
                              /usr/bin/../lib/gcc/arm-none-eabi/7.2.1/../../../../arm-none-eabi/lib/thumb/v7e-m/fpv4-sp/hard/crt0.o (memset)
/usr/bin/../lib/gcc/arm-none-eabi/7.2.1/../../../../arm-none-eabi/lib/thumb/v7e-m/fpv4-sp/hard/libg_nano.a(lib_a-nano-freer.o)
                              /usr/bin/../lib/gcc/arm-none-eabi/7.2.1/../../../../arm-none-eabi/lib/thumb/v7e-m/fpv4-sp/hard/libg_nano.a(lib_a-malloc.o) (_free_r)
/usr/bin/../lib/gcc/arm-none-eabi/7.2.1/../../../../arm-none-eabi/lib/thumb/v7e-m/fpv4-sp/hard/libg_nano.a(lib_a-nano-mallocr.o)
                              /usr/bin/../lib/gcc/arm-none-eabi/7.2.1/../../../../arm-none-eabi/lib/thumb/v7e-m/fpv4-sp/hard/libg_nano.a(lib_a-malloc.o) (_malloc_r)
/usr/bin/../lib/gcc/arm-none-eabi/7.2.1/../../../../arm-none-eabi/lib/thumb/v7e-m/fpv4-sp/hard/libg_nano.a(lib_a-sbrkr.o)
                              /usr/bin/../lib/gcc/arm-none-eabi/7.2.1/../../../../arm-none-eabi/lib/thumb/v7e-m/fpv4-sp/hard/libg_nano.a(lib_a-nano-mallocr.o) (_sbrk_r)
/usr/bin/../lib/gcc/arm-none-eabi/7.2.1/../../../../arm-none-eabi/lib/thumb/v7e-m/fpv4-sp/hard/libg_nano.a(lib_a-strcpy.o)
                              ../../external/rtt/librtt_nrf52832_xxAA.a(SEGGER_RTT.c.obj) (strcpy)
/usr/bin/../lib/gcc/arm-none-eabi/7.2.1/../../../../arm-none-eabi/lib/thumb/v7e-m/fpv4-sp/hard/libg_nano.a(lib_a-strlen.o)
                              CMakeFiles/enocean_switch_nrf52832_xxAA_s132_6.0.0.dir/__/__/mesh/core/src/uri.c.obj (strlen)
/usr/bin/../lib/gcc/arm-none-eabi/7.2.1/../../../../arm-none-eabi/lib/thumb/v7e-m/fpv4-sp/hard/libg_nano.a(lib_a-strrchr.o)
                              CMakeFiles/enocean_switch_nrf52832_xxAA_s132_6.0.0.dir/src/main.c.obj (strrchr)
/usr/bin/../lib/gcc/arm-none-eabi/7.2.1/../../../../arm-none-eabi/lib/thumb/v7e-m/fpv4-sp/hard/libg_nano.a(lib_a-mlock.o)
                              /usr/bin/../lib/gcc/arm-none-eabi/7.2.1/../../../../arm-none-eabi/lib/thumb/v7e-m/fpv4-sp/hard/libg_nano.a(lib_a-nano-freer.o) (__malloc_lock)
/usr/bin/../lib/gcc/arm-none-eabi/7.2.1/../../../../arm-none-eabi/lib/thumb/v7e-m/fpv4-sp/hard/libg_nano.a(lib_a-reent.o)
                              /usr/bin/../lib/gcc/arm-none-eabi/7.2.1/../../../../arm-none-eabi/lib/thumb/v7e-m/fpv4-sp/hard/libg_nano.a(lib_a-sbrkr.o) (errno)
/usr/bin/../lib/gcc/arm-none-eabi/7.2.1/../../../../arm-none-eabi/lib/thumb/v7e-m/fpv4-sp/hard/libg_nano.a(lib_a-strchr.o)
                              /usr/bin/../lib/gcc/arm-none-eabi/7.2.1/../../../../arm-none-eabi/lib/thumb/v7e-m/fpv4-sp/hard/libg_nano.a(lib_a-strrchr.o) (strchr)
/usr/bin/../lib/gcc/arm-none-eabi/7.2.1/../../../../arm-none-eabi/lib/thumb/v7e-m/fpv4-sp/hard/libnosys.a(sbrk.o)
                              /usr/bin/../lib/gcc/arm-none-eabi/7.2.1/../../../../arm-none-eabi/lib/thumb/v7e-m/fpv4-sp/hard/libg_nano.a(lib_a-sbrkr.o) (_sbrk)
/usr/bin/../lib/gcc/arm-none-eabi/7.2.1/../../../../arm-none-eabi/lib/thumb/v7e-m/fpv4-sp/hard/libnosys.a(_exit.o)
                              /usr/bin/../lib/gcc/arm-none-eabi/7.2.1/../../../../arm-none-eabi/lib/thumb/v7e-m/fpv4-sp/hard/libg_nano.a(lib_a-exit.o) (_exit)

Allocating common symbols
Common symbol       size              file

nrf_nvic_state      0xc               CMakeFiles/enocean_switch_nrf52832_xxAA_s132_6.0.0.dir/__/common/src/mesh_softdevice_init.c.obj
m_packet            0x24              CMakeFiles/enocean_switch_nrf52832_xxAA_s132_6.0.0.dir/__/__/mesh/core/src/core_tx.c.obj
errno               0x4               /usr/bin/../lib/gcc/arm-none-eabi/7.2.1/../../../../arm-none-eabi/lib/thumb/v7e-m/fpv4-sp/hard/libg_nano.a(lib_a-reent.o)
_SEGGER_RTT         0x78              ../../external/rtt/librtt_nrf52832_xxAA.a(SEGGER_RTT.c.obj)

Discarded input sections

 .text          0x0000000000000000        0x0 /usr/bin/../lib/gcc/arm-none-eabi/7.2.1/thumb/v7e-m/fpv4-sp/hard/crti.o
 .data          0x0000000000000000        0x0 /usr/bin/../lib/gcc/arm-none-eabi/7.2.1/thumb/v7e-m/fpv4-sp/hard/crti.o
 .bss           0x0000000000000000        0x0 /usr/bin/../lib/gcc/arm-none-eabi/7.2.1/thumb/v7e-m/fpv4-sp/hard/crti.o
 .data          0x0000000000000000        0x4 /usr/bin/../lib/gcc/arm-none-eabi/7.2.1/thumb/v7e-m/fpv4-sp/hard/crtbegin.o
 .data          0x0000000000000000        0x0 /usr/bin/../lib/gcc/arm-none-eabi/7.2.1/../../../../arm-none-eabi/lib/thumb/v7e-m/fpv4-sp/hard/crt0.o
 .bss           0x0000000000000000        0x0 /usr/bin/../lib/gcc/arm-none-eabi/7.2.1/../../../../arm-none-eabi/lib/thumb/v7e-m/fpv4-sp/hard/crt0.o
 .ARM.extab     0x0000000000000000        0x0 /usr/bin/../lib/gcc/arm-none-eabi/7.2.1/../../../../arm-none-eabi/lib/thumb/v7e-m/fpv4-sp/hard/crt0.o
 .text          0x0000000000000000        0x0 CMakeFiles/enocean_switch_nrf52832_xxAA_s132_6.0.0.dir/src/main.c.obj
 .data          0x0000000000000000        0x0 CMakeFiles/enocean_switch_nrf52832_xxAA_s132_6.0.0.dir/src/main.c.obj
 .bss           0x0000000000000000        0x0 CMakeFiles/enocean_switch_nrf52832_xxAA_s132_6.0.0.dir/src/main.c.obj
 .text          0x0000000000000000        0x0 CMakeFiles/enocean_switch_nrf52832_xxAA_s132_6.0.0.dir/src/enocean.c.obj
 .data          0x0000000000000000        0x0 CMakeFiles/enocean_switch_nrf52832_xxAA_s132_6.0.0.dir/src/enocean.c.obj
 .bss           0x0000000000000000        0x0 CMakeFiles/enocean_switch_nrf52832_xxAA_s132_6.0.0.dir/src/enocean.c.obj
 .text          0x0000000000000000        0x0 CMakeFiles/enocean_switch_nrf52832_xxAA_s132_6.0.0.dir/src/flash_helper.c.obj
 .data          0x0000000000000000        0x0 CMakeFiles/enocean_switch_nrf52832_xxAA_s132_6.0.0.dir/src/flash_helper.c.obj
 .bss           0x0000000000000000        0x0 CMakeFiles/enocean_switch_nrf52832_xxAA_s132_6.0.0.dir/src/flash_helper.c.obj
 .text          0x0000000000000000        0x0 CMakeFiles/enocean_switch_nrf52832_xxAA_s132_6.0.0.dir/__/__/mesh/stack/src/mesh_stack.c.obj
 .data          0x0000000000000000        0x0 CMakeFiles/enocean_switch_nrf52832_xxAA_s132_6.0.0.dir/__/__/mesh/stack/src/mesh_stack.c.obj
 .bss           0x0000000000000000        0x0 CMakeFiles/enocean_switch_nrf52832_xxAA_s132_6.0.0.dir/__/__/mesh/stack/src/mesh_stack.c.obj
 .text.mesh_stack_is_device_provisioned
                0x0000000000000000       0x1c CMakeFiles/enocean_switch_nrf52832_xxAA_s132_6.0.0.dir/__/__/mesh/stack/src/mesh_stack.c.obj
 .text          0x0000000000000000        0x0 CMakeFiles/enocean_switch_nrf52832_xxAA_s132_6.0.0.dir/__/common/src/mesh_softdevice_init.c.obj
 .data          0x0000000000000000        0x0 CMakeFiles/enocean_switch_nrf52832_xxAA_s132_6.0.0.dir/__/common/src/mesh_softdevice_init.c.obj
 .bss           0x0000000000000000        0x0 CMakeFiles/enocean_switch_nrf52832_xxAA_s132_6.0.0.dir/__/common/src/mesh_softdevice_init.c.obj
 .text          0x0000000000000000        0x0 CMakeFiles/enocean_switch_nrf52832_xxAA_s132_6.0.0.dir/__/common/src/mesh_provisionee.c.obj
 .data          0x0000000000000000        0x0 CMakeFiles/enocean_switch_nrf52832_xxAA_s132_6.0.0.dir/__/common/src/mesh_provisionee.c.obj
 .bss           0x0000000000000000        0x0 CMakeFiles/enocean_switch_nrf52832_xxAA_s132_6.0.0.dir/__/common/src/mesh_provisionee.c.obj
 .text          0x0000000000000000        0x0 CMakeFiles/enocean_switch_nrf52832_xxAA_s132_6.0.0.dir/__/common/src/rtt_input.c.obj
 .data          0x0000000000000000        0x0 CMakeFiles/enocean_switch_nrf52832_xxAA_s132_6.0.0.dir/__/common/src/rtt_input.c.obj
 .bss           0x0000000000000000        0x0 CMakeFiles/enocean_switch_nrf52832_xxAA_s132_6.0.0.dir/__/common/src/rtt_input.c.obj
 .text.rtt_input_disable
                0x0000000000000000       0x28 CMakeFiles/enocean_switch_nrf52832_xxAA_s132_6.0.0.dir/__/common/src/rtt_input.c.obj
 .text          0x0000000000000000        0x0 CMakeFiles/enocean_switch_nrf52832_xxAA_s132_6.0.0.dir/__/common/src/simple_hal.c.obj
 .data          0x0000000000000000        0x0 CMakeFiles/enocean_switch_nrf52832_xxAA_s132_6.0.0.dir/__/common/src/simple_hal.c.obj
 .bss           0x0000000000000000        0x0 CMakeFiles/enocean_switch_nrf52832_xxAA_s132_6.0.0.dir/__/common/src/simple_hal.c.obj
 .text.hal_led_pin_get
                0x0000000000000000       0x18 CMakeFiles/enocean_switch_nrf52832_xxAA_s132_6.0.0.dir/__/common/src/simple_hal.c.obj
 .text          0x0000000000000000        0x0 CMakeFiles/enocean_switch_nrf52832_xxAA_s132_6.0.0.dir/__/common/src/mesh_app_utils.c.obj
 .data          0x0000000000000000        0x0 CMakeFiles/enocean_switch_nrf52832_xxAA_s132_6.0.0.dir/__/common/src/mesh_app_utils.c.obj
 .bss           0x0000000000000000        0x0 CMakeFiles/enocean_switch_nrf52832_xxAA_s132_6.0.0.dir/__/common/src/mesh_app_utils.c.obj
 .text.mesh_app_uuid_gen
                0x0000000000000000       0x34 CMakeFiles/enocean_switch_nrf52832_xxAA_s132_6.0.0.dir/__/common/src/mesh_app_utils.c.obj
 .debug_info    0x0000000000000000      0xce5 CMakeFiles/enocean_switch_nrf52832_xxAA_s132_6.0.0.dir/__/common/src/mesh_app_utils.c.obj
 .debug_abbrev  0x0000000000000000      0x221 CMakeFiles/enocean_switch_nrf52832_xxAA_s132_6.0.0.dir/__/common/src/mesh_app_utils.c.obj
 .debug_loc     0x0000000000000000       0x8f CMakeFiles/enocean_switch_nrf52832_xxAA_s132_6.0.0.dir/__/common/src/mesh_app_utils.c.obj
 .debug_aranges
                0x0000000000000000       0x20 CMakeFiles/enocean_switch_nrf52832_xxAA_s132_6.0.0.dir/__/common/src/mesh_app_utils.c.obj
 .debug_ranges  0x0000000000000000       0x10 CMakeFiles/enocean_switch_nrf52832_xxAA_s132_6.0.0.dir/__/common/src/mesh_app_utils.c.obj
 .debug_line    0x0000000000000000      0x234 CMakeFiles/enocean_switch_nrf52832_xxAA_s132_6.0.0.dir/__/common/src/mesh_app_utils.c.obj
 .debug_str     0x0000000000000000      0x7b5 CMakeFiles/enocean_switch_nrf52832_xxAA_s132_6.0.0.dir/__/common/src/mesh_app_utils.c.obj
 .comment       0x0000000000000000       0x7f CMakeFiles/enocean_switch_nrf52832_xxAA_s132_6.0.0.dir/__/common/src/mesh_app_utils.c.obj
 .debug_frame   0x0000000000000000       0x34 CMakeFiles/enocean_switch_nrf52832_xxAA_s132_6.0.0.dir/__/common/src/mesh_app_utils.c.obj
 .ARM.attributes
                0x0000000000000000       0x39 CMakeFiles/enocean_switch_nrf52832_xxAA_s132_6.0.0.dir/__/common/src/mesh_app_utils.c.obj
 .text          0x0000000000000000        0x0 CMakeFiles/enocean_switch_nrf52832_xxAA_s132_6.0.0.dir/__/nrf_mesh_weak.c.obj
 .data          0x0000000000000000        0x0 CMakeFiles/enocean_switch_nrf52832_xxAA_s132_6.0.0.dir/__/nrf_mesh_weak.c.obj
 .bss           0x0000000000000000        0x0 CMakeFiles/enocean_switch_nrf52832_xxAA_s132_6.0.0.dir/__/nrf_mesh_weak.c.obj
 .text._weak_handler_ptr
                0x0000000000000000        0x4 CMakeFiles/enocean_switch_nrf52832_xxAA_s132_6.0.0.dir/__/nrf_mesh_weak.c.obj
 .text          0x0000000000000000        0x0 CMakeFiles/enocean_switch_nrf52832_xxAA_s132_6.0.0.dir/__/common/src/app_error_weak.c.obj
 .data          0x0000000000000000        0x0 CMakeFiles/enocean_switch_nrf52832_xxAA_s132_6.0.0.dir/__/common/src/app_error_weak.c.obj
 .bss           0x0000000000000000        0x0 CMakeFiles/enocean_switch_nrf52832_xxAA_s132_6.0.0.dir/__/common/src/app_error_weak.c.obj
 .text          0x0000000000000000        0x0 CMakeFiles/enocean_switch_nrf52832_xxAA_s132_6.0.0.dir/__/common/src/assertion_handler_weak.c.obj
 .data          0x0000000000000000        0x0 CMakeFiles/enocean_switch_nrf52832_xxAA_s132_6.0.0.dir/__/common/src/assertion_handler_weak.c.obj
 .bss           0x0000000000000000        0x0 CMakeFiles/enocean_switch_nrf52832_xxAA_s132_6.0.0.dir/__/common/src/assertion_handler_weak.c.obj
 .text          0x0000000000000000        0x0 CMakeFiles/enocean_switch_nrf52832_xxAA_s132_6.0.0.dir/__/__/mesh/core/src/internal_event.c.obj
 .data          0x0000000000000000        0x0 CMakeFiles/enocean_switch_nrf52832_xxAA_s132_6.0.0.dir/__/__/mesh/core/src/internal_event.c.obj
 .bss           0x0000000000000000        0x0 CMakeFiles/enocean_switch_nrf52832_xxAA_s132_6.0.0.dir/__/__/mesh/core/src/internal_event.c.obj
 .debug_info    0x0000000000000000      0x8eb CMakeFiles/enocean_switch_nrf52832_xxAA_s132_6.0.0.dir/__/__/mesh/core/src/internal_event.c.obj
 .debug_abbrev  0x0000000000000000      0x192 CMakeFiles/enocean_switch_nrf52832_xxAA_s132_6.0.0.dir/__/__/mesh/core/src/internal_event.c.obj
 .debug_aranges
                0x0000000000000000       0x18 CMakeFiles/enocean_switch_nrf52832_xxAA_s132_6.0.0.dir/__/__/mesh/core/src/internal_event.c.obj
 .debug_line    0x0000000000000000      0x1d9 CMakeFiles/enocean_switch_nrf52832_xxAA_s132_6.0.0.dir/__/__/mesh/core/src/internal_event.c.obj
 .debug_str     0x0000000000000000      0x66d CMakeFiles/enocean_switch_nrf52832_xxAA_s132_6.0.0.dir/__/__/mesh/core/src/internal_event.c.obj
 .comment       0x0000000000000000       0x7f CMakeFiles/enocean_switch_nrf52832_xxAA_s132_6.0.0.dir/__/__/mesh/core/src/internal_event.c.obj
 .ARM.attributes
                0x0000000000000000       0x39 CMakeFiles/enocean_switch_nrf52832_xxAA_s132_6.0.0.dir/__/__/mesh/core/src/internal_event.c.obj
 .text          0x0000000000000000        0x0 CMakeFiles/enocean_switch_nrf52832_xxAA_s132_6.0.0.dir/__/__/mesh/core/src/nrf_mesh_configure.c.obj
 .data          0x0000000000000000        0x0 CMakeFiles/enocean_switch_nrf52832_xxAA_s132_6.0.0.dir/__/__/mesh/core/src/nrf_mesh_configure.c.obj
 .bss           0x0000000000000000        0x0 CMakeFiles/enocean_switch_nrf52832_xxAA_s132_6.0.0.dir/__/__/mesh/core/src/nrf_mesh_configure.c.obj
 .text          0x0000000000000000        0x0 CMakeFiles/enocean_switch_nrf52832_xxAA_s132_6.0.0.dir/__/__/mesh/core/src/aes.c.obj
 .data          0x0000000000000000        0x0 CMakeFiles/enocean_switch_nrf52832_xxAA_s132_6.0.0.dir/__/__/mesh/core/src/aes.c.obj
 .bss           0x0000000000000000        0x0 CMakeFiles/enocean_switch_nrf52832_xxAA_s132_6.0.0.dir/__/__/mesh/core/src/aes.c.obj
 .text          0x0000000000000000        0x0 CMakeFiles/enocean_switch_nrf52832_xxAA_s132_6.0.0.dir/__/__/mesh/core/src/msg_cache.c.obj
 .data          0x0000000000000000        0x0 CMakeFiles/enocean_switch_nrf52832_xxAA_s132_6.0.0.dir/__/__/mesh/core/src/msg_cache.c.obj
 .bss           0x0000000000000000        0x0 CMakeFiles/enocean_switch_nrf52832_xxAA_s132_6.0.0.dir/__/__/mesh/core/src/msg_cache.c.obj
 .text.msg_cache_clear
                0x0000000000000000       0x18 CMakeFiles/enocean_switch_nrf52832_xxAA_s132_6.0.0.dir/__/__/mesh/core/src/msg_cache.c.obj
 .text          0x0000000000000000        0x0 CMakeFiles/enocean_switch_nrf52832_xxAA_s132_6.0.0.dir/__/__/mesh/core/src/transport.c.obj
 .data          0x0000000000000000        0x0 CMakeFiles/enocean_switch_nrf52832_xxAA_s132_6.0.0.dir/__/__/mesh/core/src/transport.c.obj
 .bss           0x0000000000000000        0x0 CMakeFiles/enocean_switch_nrf52832_xxAA_s132_6.0.0.dir/__/__/mesh/core/src/transport.c.obj
 .text.transport_sar_mem_funcs_set
                0x0000000000000000       0x64 CMakeFiles/enocean_switch_nrf52832_xxAA_s132_6.0.0.dir/__/__/mesh/core/src/transport.c.obj
 .text.transport_sar_mem_funcs_reset
                0x0000000000000000       0x30 CMakeFiles/enocean_switch_nrf52832_xxAA_s132_6.0.0.dir/__/__/mesh/core/src/transport.c.obj
 .text          0x0000000000000000        0x0 CMakeFiles/enocean_switch_nrf52832_xxAA_s132_6.0.0.dir/__/__/mesh/core/src/event.c.obj
 .data          0x0000000000000000        0x0 CMakeFiles/enocean_switch_nrf52832_xxAA_s132_6.0.0.dir/__/__/mesh/core/src/event.c.obj
 .bss           0x0000000000000000        0x0 CMakeFiles/enocean_switch_nrf52832_xxAA_s132_6.0.0.dir/__/__/mesh/core/src/event.c.obj
 .text          0x0000000000000000        0x0 CMakeFiles/enocean_switch_nrf52832_xxAA_s132_6.0.0.dir/__/__/mesh/core/src/packet_buffer.c.obj
 .data          0x0000000000000000        0x0 CMakeFiles/enocean_switch_nrf52832_xxAA_s132_6.0.0.dir/__/__/mesh/core/src/packet_buffer.c.obj
 .bss           0x0000000000000000        0x0 CMakeFiles/enocean_switch_nrf52832_xxAA_s132_6.0.0.dir/__/__/mesh/core/src/packet_buffer.c.obj
 .text.packet_buffer_max_packet_len_get
                0x0000000000000000       0x24 CMakeFiles/enocean_switch_nrf52832_xxAA_s132_6.0.0.dir/__/__/mesh/core/src/packet_buffer.c.obj
 .text          0x0000000000000000        0x0 CMakeFiles/enocean_switch_nrf52832_xxAA_s132_6.0.0.dir/__/__/mesh/core/src/flash_manager_defrag.c.obj
 .data          0x0000000000000000        0x0 CMakeFiles/enocean_switch_nrf52832_xxAA_s132_6.0.0.dir/__/__/mesh/core/src/flash_manager_defrag.c.obj
 .bss           0x0000000000000000        0x0 CMakeFiles/enocean_switch_nrf52832_xxAA_s132_6.0.0.dir/__/__/mesh/core/src/flash_manager_defrag.c.obj
 .text.flash_manager_defragging
                0x0000000000000000       0x44 CMakeFiles/enocean_switch_nrf52832_xxAA_s132_6.0.0.dir/__/__/mesh/core/src/flash_manager_defrag.c.obj
 .text          0x0000000000000000        0x0 CMakeFiles/enocean_switch_nrf52832_xxAA_s132_6.0.0.dir/__/__/mesh/core/src/fifo.c.obj
 .data          0x0000000000000000        0x0 CMakeFiles/enocean_switch_nrf52832_xxAA_s132_6.0.0.dir/__/__/mesh/core/src/fifo.c.obj
 .bss           0x0000000000000000        0x0 CMakeFiles/enocean_switch_nrf52832_xxAA_s132_6.0.0.dir/__/__/mesh/core/src/fifo.c.obj
 .text.fifo_peek_at
                0x0000000000000000       0x58 CMakeFiles/enocean_switch_nrf52832_xxAA_s132_6.0.0.dir/__/__/mesh/core/src/fifo.c.obj
 .text.fifo_peek
                0x0000000000000000       0x54 CMakeFiles/enocean_switch_nrf52832_xxAA_s132_6.0.0.dir/__/__/mesh/core/src/fifo.c.obj
 .text.fifo_flush
                0x0000000000000000        0x8 CMakeFiles/enocean_switch_nrf52832_xxAA_s132_6.0.0.dir/__/__/mesh/core/src/fifo.c.obj
 .text.fifo_get_len
                0x0000000000000000        0x8 CMakeFiles/enocean_switch_nrf52832_xxAA_s132_6.0.0.dir/__/__/mesh/core/src/fifo.c.obj
 .text.fifo_is_full
                0x0000000000000000       0x14 CMakeFiles/enocean_switch_nrf52832_xxAA_s132_6.0.0.dir/__/__/mesh/core/src/fifo.c.obj
 .text.fifo_is_empty
                0x0000000000000000       0x10 CMakeFiles/enocean_switch_nrf52832_xxAA_s132_6.0.0.dir/__/__/mesh/core/src/fifo.c.obj
 .text          0x0000000000000000        0x0 CMakeFiles/enocean_switch_nrf52832_xxAA_s132_6.0.0.dir/__/__/mesh/core/src/nrf_flash.c.obj
 .data          0x0000000000000000        0x0 CMakeFiles/enocean_switch_nrf52832_xxAA_s132_6.0.0.dir/__/__/mesh/core/src/nrf_flash.c.obj
 .bss           0x0000000000000000        0x0 CMakeFiles/enocean_switch_nrf52832_xxAA_s132_6.0.0.dir/__/__/mesh/core/src/nrf_flash.c.obj
 .text          0x0000000000000000        0x0 CMakeFiles/enocean_switch_nrf52832_xxAA_s132_6.0.0.dir/__/__/mesh/core/src/packet_mgr.c.obj
 .data          0x0000000000000000        0x0 CMakeFiles/enocean_switch_nrf52832_xxAA_s132_6.0.0.dir/__/__/mesh/core/src/packet_mgr.c.obj
 .bss           0x0000000000000000        0x0 CMakeFiles/enocean_switch_nrf52832_xxAA_s132_6.0.0.dir/__/__/mesh/core/src/packet_mgr.c.obj
 .text.packet_mgr_alloc
                0x0000000000000000      0x1a4 CMakeFiles/enocean_switch_nrf52832_xxAA_s132_6.0.0.dir/__/__/mesh/core/src/packet_mgr.c.obj
 .text.packet_mgr_free
                0x0000000000000000       0x5c CMakeFiles/enocean_switch_nrf52832_xxAA_s132_6.0.0.dir/__/__/mesh/core/src/packet_mgr.c.obj
 .text.packet_mgr_get_free_space
                0x0000000000000000       0x1c CMakeFiles/enocean_switch_nrf52832_xxAA_s132_6.0.0.dir/__/__/mesh/core/src/packet_mgr.c.obj
 .text.packet_mgr_refcount_get
                0x0000000000000000        0x8 CMakeFiles/enocean_switch_nrf52832_xxAA_s132_6.0.0.dir/__/__/mesh/core/src/packet_mgr.c.obj
 .text.packet_mgr_size_get
                0x0000000000000000        0x8 CMakeFiles/enocean_switch_nrf52832_xxAA_s132_6.0.0.dir/__/__/mesh/core/src/packet_mgr.c.obj
 .text          0x0000000000000000        0x0 CMakeFiles/enocean_switch_nrf52832_xxAA_s132_6.0.0.dir/__/__/mesh/core/src/net_state.c.obj
 .data          0x0000000000000000        0x0 CMakeFiles/enocean_switch_nrf52832_xxAA_s132_6.0.0.dir/__/__/mesh/core/src/net_state.c.obj
 .bss           0x0000000000000000        0x0 CMakeFiles/enocean_switch_nrf52832_xxAA_s132_6.0.0.dir/__/__/mesh/core/src/net_state.c.obj
 .text.net_state_iv_update_start
                0x0000000000000000       0x94 CMakeFiles/enocean_switch_nrf52832_xxAA_s132_6.0.0.dir/__/__/mesh/core/src/net_state.c.obj
 .text.net_state_iv_update_test_mode_set
                0x0000000000000000        0xc CMakeFiles/enocean_switch_nrf52832_xxAA_s132_6.0.0.dir/__/__/mesh/core/src/net_state.c.obj
 .text.net_state_test_mode_transition_run
                0x0000000000000000      0x170 CMakeFiles/enocean_switch_nrf52832_xxAA_s132_6.0.0.dir/__/__/mesh/core/src/net_state.c.obj
 .text          0x0000000000000000        0x0 CMakeFiles/enocean_switch_nrf52832_xxAA_s132_6.0.0.dir/__/__/mesh/core/src/mesh_flash.c.obj
 .data          0x0000000000000000        0x0 CMakeFiles/enocean_switch_nrf52832_xxAA_s132_6.0.0.dir/__/__/mesh/core/src/mesh_flash.c.obj
 .bss           0x0000000000000000        0x0 CMakeFiles/enocean_switch_nrf52832_xxAA_s132_6.0.0.dir/__/__/mesh/core/src/mesh_flash.c.obj
 .text.mesh_flash_op_available_slots
                0x0000000000000000       0x2c CMakeFiles/enocean_switch_nrf52832_xxAA_s132_6.0.0.dir/__/__/mesh/core/src/mesh_flash.c.obj
 .text.mesh_flash_in_progress
                0x0000000000000000       0x34 CMakeFiles/enocean_switch_nrf52832_xxAA_s132_6.0.0.dir/__/__/mesh/core/src/mesh_flash.c.obj
 .text.mesh_flash_set_suspended
                0x0000000000000000      0x21c CMakeFiles/enocean_switch_nrf52832_xxAA_s132_6.0.0.dir/__/__/mesh/core/src/mesh_flash.c.obj
 .bss.suspend_count.10284
                0x0000000000000000        0x4 CMakeFiles/enocean_switch_nrf52832_xxAA_s132_6.0.0.dir/__/__/mesh/core/src/mesh_flash.c.obj
 .text          0x0000000000000000        0x0 CMakeFiles/enocean_switch_nrf52832_xxAA_s132_6.0.0.dir/__/__/mesh/core/src/nrf_mesh_utils.c.obj
 .data          0x0000000000000000        0x0 CMakeFiles/enocean_switch_nrf52832_xxAA_s132_6.0.0.dir/__/__/mesh/core/src/nrf_mesh_utils.c.obj
 .bss           0x0000000000000000        0x0 CMakeFiles/enocean_switch_nrf52832_xxAA_s132_6.0.0.dir/__/__/mesh/core/src/nrf_mesh_utils.c.obj
 .text.nrf_mesh_rand_get
                0x0000000000000000       0x10 CMakeFiles/enocean_switch_nrf52832_xxAA_s132_6.0.0.dir/__/__/mesh/core/src/nrf_mesh_utils.c.obj
 .text.nrf_mesh_gap_address_type_get
                0x0000000000000000       0x34 CMakeFiles/enocean_switch_nrf52832_xxAA_s132_6.0.0.dir/__/__/mesh/core/src/nrf_mesh_utils.c.obj
 .text          0x0000000000000000        0x0 CMakeFiles/enocean_switch_nrf52832_xxAA_s132_6.0.0.dir/__/__/mesh/core/src/nrf_mesh.c.obj
 .data          0x0000000000000000        0x0 CMakeFiles/enocean_switch_nrf52832_xxAA_s132_6.0.0.dir/__/__/mesh/core/src/nrf_mesh.c.obj
 .bss           0x0000000000000000        0x0 CMakeFiles/enocean_switch_nrf52832_xxAA_s132_6.0.0.dir/__/__/mesh/core/src/nrf_mesh.c.obj
 .text.nrf_mesh_disable
                0x0000000000000000       0x30 CMakeFiles/enocean_switch_nrf52832_xxAA_s132_6.0.0.dir/__/__/mesh/core/src/nrf_mesh.c.obj
 .text.nrf_mesh_process
                0x0000000000000000        0x4 CMakeFiles/enocean_switch_nrf52832_xxAA_s132_6.0.0.dir/__/__/mesh/core/src/nrf_mesh.c.obj
 .text.nrf_mesh_evt_handler_remove
                0x0000000000000000        0x4 CMakeFiles/enocean_switch_nrf52832_xxAA_s132_6.0.0.dir/__/__/mesh/core/src/nrf_mesh.c.obj
 .text.nrf_mesh_rx_cb_clear
                0x0000000000000000        0xc CMakeFiles/enocean_switch_nrf52832_xxAA_s132_6.0.0.dir/__/__/mesh/core/src/nrf_mesh.c.obj
 .text          0x0000000000000000        0x0 CMakeFiles/enocean_switch_nrf52832_xxAA_s132_6.0.0.dir/__/__/mesh/core/src/queue.c.obj
 .data          0x0000000000000000        0x0 CMakeFiles/enocean_switch_nrf52832_xxAA_s132_6.0.0.dir/__/__/mesh/core/src/queue.c.obj
 .bss           0x0000000000000000        0x0 CMakeFiles/enocean_switch_nrf52832_xxAA_s132_6.0.0.dir/__/__/mesh/core/src/queue.c.obj
 .text          0x0000000000000000        0x0 CMakeFiles/enocean_switch_nrf52832_xxAA_s132_6.0.0.dir/__/__/mesh/core/src/hal.c.obj
 .data          0x0000000000000000        0x0 CMakeFiles/enocean_switch_nrf52832_xxAA_s132_6.0.0.dir/__/__/mesh/core/src/hal.c.obj
 .bss           0x0000000000000000        0x0 CMakeFiles/enocean_switch_nrf52832_xxAA_s132_6.0.0.dir/__/__/mesh/core/src/hal.c.obj
 .text          0x0000000000000000        0x0 CMakeFiles/enocean_switch_nrf52832_xxAA_s132_6.0.0.dir/__/__/mesh/core/src/aes_cmac.c.obj
 .data          0x0000000000000000        0x0 CMakeFiles/enocean_switch_nrf52832_xxAA_s132_6.0.0.dir/__/__/mesh/core/src/aes_cmac.c.obj
 .bss           0x0000000000000000        0x0 CMakeFiles/enocean_switch_nrf52832_xxAA_s132_6.0.0.dir/__/__/mesh/core/src/aes_cmac.c.obj
 .text          0x0000000000000000        0x0 CMakeFiles/enocean_switch_nrf52832_xxAA_s132_6.0.0.dir/__/__/mesh/core/src/timer_scheduler.c.obj
 .data          0x0000000000000000        0x0 CMakeFiles/enocean_switch_nrf52832_xxAA_s132_6.0.0.dir/__/__/mesh/core/src/timer_scheduler.c.obj
 .bss           0x0000000000000000        0x0 CMakeFiles/enocean_switch_nrf52832_xxAA_s132_6.0.0.dir/__/__/mesh/core/src/timer_scheduler.c.obj
 .text          0x0000000000000000        0x0 CMakeFiles/enocean_switch_nrf52832_xxAA_s132_6.0.0.dir/__/__/mesh/core/src/timer.c.obj
 .data          0x0000000000000000        0x0 CMakeFiles/enocean_switch_nrf52832_xxAA_s132_6.0.0.dir/__/__/mesh/core/src/timer.c.obj
 .bss           0x0000000000000000        0x0 CMakeFiles/enocean_switch_nrf52832_xxAA_s132_6.0.0.dir/__/__/mesh/core/src/timer.c.obj
 .text.timer_order_cb_ppi
                0x0000000000000000       0xd8 CMakeFiles/enocean_switch_nrf52832_xxAA_s132_6.0.0.dir/__/__/mesh/core/src/timer.c.obj
 .text.timer_order_ppi
                0x0000000000000000       0xcc CMakeFiles/enocean_switch_nrf52832_xxAA_s132_6.0.0.dir/__/__/mesh/core/src/timer.c.obj
 .text.timer_abort
                0x0000000000000000       0x84 CMakeFiles/enocean_switch_nrf52832_xxAA_s132_6.0.0.dir/__/__/mesh/core/src/timer.c.obj
 .text          0x0000000000000000        0x0 CMakeFiles/enocean_switch_nrf52832_xxAA_s132_6.0.0.dir/__/__/mesh/core/src/ticker.c.obj
 .data          0x0000000000000000        0x0 CMakeFiles/enocean_switch_nrf52832_xxAA_s132_6.0.0.dir/__/__/mesh/core/src/ticker.c.obj
 .bss           0x0000000000000000        0x0 CMakeFiles/enocean_switch_nrf52832_xxAA_s132_6.0.0.dir/__/__/mesh/core/src/ticker.c.obj
 .text.ticker_get
                0x0000000000000000        0xc CMakeFiles/enocean_switch_nrf52832_xxAA_s132_6.0.0.dir/__/__/mesh/core/src/ticker.c.obj
 .text          0x0000000000000000        0x0 CMakeFiles/enocean_switch_nrf52832_xxAA_s132_6.0.0.dir/__/__/mesh/core/src/rand.c.obj
 .data          0x0000000000000000        0x0 CMakeFiles/enocean_switch_nrf52832_xxAA_s132_6.0.0.dir/__/__/mesh/core/src/rand.c.obj
 .bss           0x0000000000000000        0x0 CMakeFiles/enocean_switch_nrf52832_xxAA_s132_6.0.0.dir/__/__/mesh/core/src/rand.c.obj
 .text          0x0000000000000000        0x0 CMakeFiles/enocean_switch_nrf52832_xxAA_s132_6.0.0.dir/__/__/mesh/core/src/nrf_mesh_opt.c.obj
 .data          0x0000000000000000        0x0 CMakeFiles/enocean_switch_nrf52832_xxAA_s132_6.0.0.dir/__/__/mesh/core/src/nrf_mesh_opt.c.obj
 .bss           0x0000000000000000        0x0 CMakeFiles/enocean_switch_nrf52832_xxAA_s132_6.0.0.dir/__/__/mesh/core/src/nrf_mesh_opt.c.obj
 .text          0x0000000000000000        0x0 CMakeFiles/enocean_switch_nrf52832_xxAA_s132_6.0.0.dir/__/__/mesh/core/src/timeslot.c.obj
 .data          0x0000000000000000        0x0 CMakeFiles/enocean_switch_nrf52832_xxAA_s132_6.0.0.dir/__/__/mesh/core/src/timeslot.c.obj
 .bss           0x0000000000000000        0x0 CMakeFiles/enocean_switch_nrf52832_xxAA_s132_6.0.0.dir/__/__/mesh/core/src/timeslot.c.obj
 .text.timeslot_restart
                0x0000000000000000       0x30 CMakeFiles/enocean_switch_nrf52832_xxAA_s132_6.0.0.dir/__/__/mesh/core/src/timeslot.c.obj
 .text.timeslot_end_time_get
                0x0000000000000000       0x30 CMakeFiles/enocean_switch_nrf52832_xxAA_s132_6.0.0.dir/__/__/mesh/core/src/timeslot.c.obj
 .text.timeslot_is_in_ts
                0x0000000000000000        0xc CMakeFiles/enocean_switch_nrf52832_xxAA_s132_6.0.0.dir/__/__/mesh/core/src/timeslot.c.obj
 .text          0x0000000000000000        0x0 CMakeFiles/enocean_switch_nrf52832_xxAA_s132_6.0.0.dir/__/__/mesh/core/src/bearer_event.c.obj
 .data          0x0000000000000000        0x0 CMakeFiles/enocean_switch_nrf52832_xxAA_s132_6.0.0.dir/__/__/mesh/core/src/bearer_event.c.obj
 .bss           0x0000000000000000        0x0 CMakeFiles/enocean_switch_nrf52832_xxAA_s132_6.0.0.dir/__/__/mesh/core/src/bearer_event.c.obj
 .text.bearer_event_generic_post
                0x0000000000000000       0x50 CMakeFiles/enocean_switch_nrf52832_xxAA_s132_6.0.0.dir/__/__/mesh/core/src/bearer_event.c.obj
 .text.bearer_event_timer_sch_post
                0x0000000000000000       0x54 CMakeFiles/enocean_switch_nrf52832_xxAA_s132_6.0.0.dir/__/__/mesh/core/src/bearer_event.c.obj
 .text.bearer_event_in_correct_irq_priority
                0x0000000000000000       0x58 CMakeFiles/enocean_switch_nrf52832_xxAA_s132_6.0.0.dir/__/__/mesh/core/src/bearer_event.c.obj
 .text          0x0000000000000000        0x0 CMakeFiles/enocean_switch_nrf52832_xxAA_s132_6.0.0.dir/__/__/mesh/core/src/enc.c.obj
 .data          0x0000000000000000        0x0 CMakeFiles/enocean_switch_nrf52832_xxAA_s132_6.0.0.dir/__/__/mesh/core/src/enc.c.obj
 .bss           0x0000000000000000        0x0 CMakeFiles/enocean_switch_nrf52832_xxAA_s132_6.0.0.dir/__/__/mesh/core/src/enc.c.obj
 .text.enc_key_generate
                0x0000000000000000        0x8 CMakeFiles/enocean_switch_nrf52832_xxAA_s132_6.0.0.dir/__/__/mesh/core/src/enc.c.obj
 .text          0x0000000000000000        0x0 CMakeFiles/enocean_switch_nrf52832_xxAA_s132_6.0.0.dir/__/__/mesh/core/src/network.c.obj
 .data          0x0000000000000000        0x0 CMakeFiles/enocean_switch_nrf52832_xxAA_s132_6.0.0.dir/__/__/mesh/core/src/network.c.obj
 .bss           0x0000000000000000        0x0 CMakeFiles/enocean_switch_nrf52832_xxAA_s132_6.0.0.dir/__/__/mesh/core/src/network.c.obj
 .text.network_packet_discard
                0x0000000000000000       0x28 CMakeFiles/enocean_switch_nrf52832_xxAA_s132_6.0.0.dir/__/__/mesh/core/src/network.c.obj
 .text          0x0000000000000000        0x0 CMakeFiles/enocean_switch_nrf52832_xxAA_s132_6.0.0.dir/__/__/mesh/core/src/net_packet.c.obj
 .data          0x0000000000000000        0x0 CMakeFiles/enocean_switch_nrf52832_xxAA_s132_6.0.0.dir/__/__/mesh/core/src/net_packet.c.obj
 .bss           0x0000000000000000        0x0 CMakeFiles/enocean_switch_nrf52832_xxAA_s132_6.0.0.dir/__/__/mesh/core/src/net_packet.c.obj
 .text.net_packet_enc_start_get
                0x0000000000000000        0x4 CMakeFiles/enocean_switch_nrf52832_xxAA_s132_6.0.0.dir/__/__/mesh/core/src/net_packet.c.obj
 .text.net_packet_payload_get
                0x0000000000000000        0x4 CMakeFiles/enocean_switch_nrf52832_xxAA_s132_6.0.0.dir/__/__/mesh/core/src/net_packet.c.obj
 .text          0x0000000000000000        0x0 CMakeFiles/enocean_switch_nrf52832_xxAA_s132_6.0.0.dir/__/__/mesh/core/src/msqueue.c.obj
 .data          0x0000000000000000        0x0 CMakeFiles/enocean_switch_nrf52832_xxAA_s132_6.0.0.dir/__/__/mesh/core/src/msqueue.c.obj
 .bss           0x0000000000000000        0x0 CMakeFiles/enocean_switch_nrf52832_xxAA_s132_6.0.0.dir/__/__/mesh/core/src/msqueue.c.obj
 .text.msq_reset
                0x0000000000000000       0x24 CMakeFiles/enocean_switch_nrf52832_xxAA_s132_6.0.0.dir/__/__/mesh/core/src/msqueue.c.obj
 .text          0x0000000000000000        0x0 CMakeFiles/enocean_switch_nrf52832_xxAA_s132_6.0.0.dir/__/__/mesh/core/src/nrf_mesh_keygen.c.obj
 .data          0x0000000000000000        0x0 CMakeFiles/enocean_switch_nrf52832_xxAA_s132_6.0.0.dir/__/__/mesh/core/src/nrf_mesh_keygen.c.obj
 .bss           0x0000000000000000        0x0 CMakeFiles/enocean_switch_nrf52832_xxAA_s132_6.0.0.dir/__/__/mesh/core/src/nrf_mesh_keygen.c.obj
 .text.nrf_mesh_keygen_identitykey
                0x0000000000000000       0x4c CMakeFiles/enocean_switch_nrf52832_xxAA_s132_6.0.0.dir/__/__/mesh/core/src/nrf_mesh_keygen.c.obj
 .text          0x0000000000000000        0x0 CMakeFiles/enocean_switch_nrf52832_xxAA_s132_6.0.0.dir/__/__/mesh/core/src/cache.c.obj
 .data          0x0000000000000000        0x0 CMakeFiles/enocean_switch_nrf52832_xxAA_s132_6.0.0.dir/__/__/mesh/core/src/cache.c.obj
 .bss           0x0000000000000000        0x0 CMakeFiles/enocean_switch_nrf52832_xxAA_s132_6.0.0.dir/__/__/mesh/core/src/cache.c.obj
 .text.cache_init
                0x0000000000000000       0x40 CMakeFiles/enocean_switch_nrf52832_xxAA_s132_6.0.0.dir/__/__/mesh/core/src/cache.c.obj
 .text.cache_has_elem
                0x0000000000000000       0x54 CMakeFiles/enocean_switch_nrf52832_xxAA_s132_6.0.0.dir/__/__/mesh/core/src/cache.c.obj
 .text.cache_put
                0x0000000000000000       0x2c CMakeFiles/enocean_switch_nrf52832_xxAA_s132_6.0.0.dir/__/__/mesh/core/src/cache.c.obj
 .text.cache_erase_elem
                0x0000000000000000       0x6c CMakeFiles/enocean_switch_nrf52832_xxAA_s132_6.0.0.dir/__/__/mesh/core/src/cache.c.obj
 .debug_info    0x0000000000000000      0xbf9 CMakeFiles/enocean_switch_nrf52832_xxAA_s132_6.0.0.dir/__/__/mesh/core/src/cache.c.obj
 .debug_abbrev  0x0000000000000000      0x2e2 CMakeFiles/enocean_switch_nrf52832_xxAA_s132_6.0.0.dir/__/__/mesh/core/src/cache.c.obj
 .debug_loc     0x0000000000000000      0x3dc CMakeFiles/enocean_switch_nrf52832_xxAA_s132_6.0.0.dir/__/__/mesh/core/src/cache.c.obj
 .debug_aranges
                0x0000000000000000       0x38 CMakeFiles/enocean_switch_nrf52832_xxAA_s132_6.0.0.dir/__/__/mesh/core/src/cache.c.obj
 .debug_ranges  0x0000000000000000       0xb0 CMakeFiles/enocean_switch_nrf52832_xxAA_s132_6.0.0.dir/__/__/mesh/core/src/cache.c.obj
 .debug_line    0x0000000000000000      0x255 CMakeFiles/enocean_switch_nrf52832_xxAA_s132_6.0.0.dir/__/__/mesh/core/src/cache.c.obj
 .debug_str     0x0000000000000000      0x71a CMakeFiles/enocean_switch_nrf52832_xxAA_s132_6.0.0.dir/__/__/mesh/core/src/cache.c.obj
 .comment       0x0000000000000000       0x7f CMakeFiles/enocean_switch_nrf52832_xxAA_s132_6.0.0.dir/__/__/mesh/core/src/cache.c.obj
 .debug_frame   0x0000000000000000       0x90 CMakeFiles/enocean_switch_nrf52832_xxAA_s132_6.0.0.dir/__/__/mesh/core/src/cache.c.obj
 .ARM.attributes
                0x0000000000000000       0x39 CMakeFiles/enocean_switch_nrf52832_xxAA_s132_6.0.0.dir/__/__/mesh/core/src/cache.c.obj
 .text          0x0000000000000000        0x0 CMakeFiles/enocean_switch_nrf52832_xxAA_s132_6.0.0.dir/__/__/mesh/core/src/uri.c.obj
 .data          0x0000000000000000        0x0 CMakeFiles/enocean_switch_nrf52832_xxAA_s132_6.0.0.dir/__/__/mesh/core/src/uri.c.obj
 .bss           0x0000000000000000        0x0 CMakeFiles/enocean_switch_nrf52832_xxAA_s132_6.0.0.dir/__/__/mesh/core/src/uri.c.obj
 .text.uri_data_generate
                0x0000000000000000       0x88 CMakeFiles/enocean_switch_nrf52832_xxAA_s132_6.0.0.dir/__/__/mesh/core/src/uri.c.obj
 .text.uri_data_parse
                0x0000000000000000       0x84 CMakeFiles/enocean_switch_nrf52832_xxAA_s132_6.0.0.dir/__/__/mesh/core/src/uri.c.obj
 .text.uri_scheme_name_code_point
                0x0000000000000000       0x5c CMakeFiles/enocean_switch_nrf52832_xxAA_s132_6.0.0.dir/__/__/mesh/core/src/uri.c.obj
 .text.uri_scheme_name_string
                0x0000000000000000       0x14 CMakeFiles/enocean_switch_nrf52832_xxAA_s132_6.0.0.dir/__/__/mesh/core/src/uri.c.obj
 .rodata.m_code_point_strings
                0x0000000000000000      0x2ec CMakeFiles/enocean_switch_nrf52832_xxAA_s132_6.0.0.dir/__/__/mesh/core/src/uri.c.obj
 .rodata.str1.4
                0x0000000000000000      0x6ba CMakeFiles/enocean_switch_nrf52832_xxAA_s132_6.0.0.dir/__/__/mesh/core/src/uri.c.obj
 .debug_info    0x0000000000000000      0xd55 CMakeFiles/enocean_switch_nrf52832_xxAA_s132_6.0.0.dir/__/__/mesh/core/src/uri.c.obj
 .debug_abbrev  0x0000000000000000      0x331 CMakeFiles/enocean_switch_nrf52832_xxAA_s132_6.0.0.dir/__/__/mesh/core/src/uri.c.obj
 .debug_loc     0x0000000000000000      0x38d CMakeFiles/enocean_switch_nrf52832_xxAA_s132_6.0.0.dir/__/__/mesh/core/src/uri.c.obj
 .debug_aranges
                0x0000000000000000       0x38 CMakeFiles/enocean_switch_nrf52832_xxAA_s132_6.0.0.dir/__/__/mesh/core/src/uri.c.obj
 .debug_ranges  0x0000000000000000       0x58 CMakeFiles/enocean_switch_nrf52832_xxAA_s132_6.0.0.dir/__/__/mesh/core/src/uri.c.obj
 .debug_line    0x0000000000000000      0x31f CMakeFiles/enocean_switch_nrf52832_xxAA_s132_6.0.0.dir/__/__/mesh/core/src/uri.c.obj
 .debug_str     0x0000000000000000      0x748 CMakeFiles/enocean_switch_nrf52832_xxAA_s132_6.0.0.dir/__/__/mesh/core/src/uri.c.obj
 .comment       0x0000000000000000       0x7f CMakeFiles/enocean_switch_nrf52832_xxAA_s132_6.0.0.dir/__/__/mesh/core/src/uri.c.obj
 .debug_frame   0x0000000000000000       0x8c CMakeFiles/enocean_switch_nrf52832_xxAA_s132_6.0.0.dir/__/__/mesh/core/src/uri.c.obj
 .ARM.attributes
                0x0000000000000000       0x39 CMakeFiles/enocean_switch_nrf52832_xxAA_s132_6.0.0.dir/__/__/mesh/core/src/uri.c.obj
 .text          0x0000000000000000        0x0 CMakeFiles/enocean_switch_nrf52832_xxAA_s132_6.0.0.dir/__/__/mesh/core/src/list.c.obj
 .data          0x0000000000000000        0x0 CMakeFiles/enocean_switch_nrf52832_xxAA_s132_6.0.0.dir/__/__/mesh/core/src/list.c.obj
 .bss           0x0000000000000000        0x0 CMakeFiles/enocean_switch_nrf52832_xxAA_s132_6.0.0.dir/__/__/mesh/core/src/list.c.obj
 .text.list_size_get
                0x0000000000000000       0x14 CMakeFiles/enocean_switch_nrf52832_xxAA_s132_6.0.0.dir/__/__/mesh/core/src/list.c.obj
 .text.list_sorted_add
                0x0000000000000000       0x88 CMakeFiles/enocean_switch_nrf52832_xxAA_s132_6.0.0.dir/__/__/mesh/core/src/list.c.obj
 .text          0x0000000000000000        0x0 CMakeFiles/enocean_switch_nrf52832_xxAA_s132_6.0.0.dir/__/__/mesh/core/src/log.c.obj
 .data          0x0000000000000000        0x0 CMakeFiles/enocean_switch_nrf52832_xxAA_s132_6.0.0.dir/__/__/mesh/core/src/log.c.obj
 .bss           0x0000000000000000        0x0 CMakeFiles/enocean_switch_nrf52832_xxAA_s132_6.0.0.dir/__/__/mesh/core/src/log.c.obj
 .text.log_callback_logview
                0x0000000000000000       0x38 CMakeFiles/enocean_switch_nrf52832_xxAA_s132_6.0.0.dir/__/__/mesh/core/src/log.c.obj
 .text.log_set_callback
                0x0000000000000000        0xc CMakeFiles/enocean_switch_nrf52832_xxAA_s132_6.0.0.dir/__/__/mesh/core/src/log.c.obj
 .text.log_vprintf
                0x0000000000000000       0x1c CMakeFiles/enocean_switch_nrf52832_xxAA_s132_6.0.0.dir/__/__/mesh/core/src/log.c.obj
 .rodata.log_callback_logview.str1.4
                0x0000000000000000       0x12 CMakeFiles/enocean_switch_nrf52832_xxAA_s132_6.0.0.dir/__/__/mesh/core/src/log.c.obj
 .text          0x0000000000000000        0x0 CMakeFiles/enocean_switch_nrf52832_xxAA_s132_6.0.0.dir/__/__/mesh/core/src/flash_manager.c.obj
 .data          0x0000000000000000        0x0 CMakeFiles/enocean_switch_nrf52832_xxAA_s132_6.0.0.dir/__/__/mesh/core/src/flash_manager.c.obj
 .bss           0x0000000000000000        0x0 CMakeFiles/enocean_switch_nrf52832_xxAA_s132_6.0.0.dir/__/__/mesh/core/src/flash_manager.c.obj
 .text.flash_manager_entry_count_get
                0x0000000000000000       0xfc CMakeFiles/enocean_switch_nrf52832_xxAA_s132_6.0.0.dir/__/__/mesh/core/src/flash_manager.c.obj
 .text.flash_manager_entry_release
                0x0000000000000000       0x74 CMakeFiles/enocean_switch_nrf52832_xxAA_s132_6.0.0.dir/__/__/mesh/core/src/flash_manager.c.obj
 .text          0x0000000000000000        0x0 CMakeFiles/enocean_switch_nrf52832_xxAA_s132_6.0.0.dir/__/__/mesh/core/src/ccm_soft.c.obj
 .data          0x0000000000000000        0x0 CMakeFiles/enocean_switch_nrf52832_xxAA_s132_6.0.0.dir/__/__/mesh/core/src/ccm_soft.c.obj
 .bss           0x0000000000000000        0x0 CMakeFiles/enocean_switch_nrf52832_xxAA_s132_6.0.0.dir/__/__/mesh/core/src/ccm_soft.c.obj
 .text          0x0000000000000000        0x0 CMakeFiles/enocean_switch_nrf52832_xxAA_s132_6.0.0.dir/__/__/mesh/core/src/toolchain.c.obj
 .data          0x0000000000000000        0x0 CMakeFiles/enocean_switch_nrf52832_xxAA_s132_6.0.0.dir/__/__/mesh/core/src/toolchain.c.obj
 .bss           0x0000000000000000        0x0 CMakeFiles/enocean_switch_nrf52832_xxAA_s132_6.0.0.dir/__/__/mesh/core/src/toolchain.c.obj
 .debug_info    0x0000000000000000       0xac CMakeFiles/enocean_switch_nrf52832_xxAA_s132_6.0.0.dir/__/__/mesh/core/src/toolchain.c.obj
 .debug_abbrev  0x0000000000000000       0x5c CMakeFiles/enocean_switch_nrf52832_xxAA_s132_6.0.0.dir/__/__/mesh/core/src/toolchain.c.obj
 .debug_aranges
                0x0000000000000000       0x18 CMakeFiles/enocean_switch_nrf52832_xxAA_s132_6.0.0.dir/__/__/mesh/core/src/toolchain.c.obj
 .debug_line    0x0000000000000000      0x12e CMakeFiles/enocean_switch_nrf52832_xxAA_s132_6.0.0.dir/__/__/mesh/core/src/toolchain.c.obj
 .debug_str     0x0000000000000000      0x265 CMakeFiles/enocean_switch_nrf52832_xxAA_s132_6.0.0.dir/__/__/mesh/core/src/toolchain.c.obj
 .comment       0x0000000000000000       0x7f CMakeFiles/enocean_switch_nrf52832_xxAA_s132_6.0.0.dir/__/__/mesh/core/src/toolchain.c.obj
 .ARM.attributes
                0x0000000000000000       0x39 CMakeFiles/enocean_switch_nrf52832_xxAA_s132_6.0.0.dir/__/__/mesh/core/src/toolchain.c.obj
 .text          0x0000000000000000        0x0 CMakeFiles/enocean_switch_nrf52832_xxAA_s132_6.0.0.dir/__/__/mesh/core/src/replay_cache.c.obj
 .data          0x0000000000000000        0x0 CMakeFiles/enocean_switch_nrf52832_xxAA_s132_6.0.0.dir/__/__/mesh/core/src/replay_cache.c.obj
 .bss           0x0000000000000000        0x0 CMakeFiles/enocean_switch_nrf52832_xxAA_s132_6.0.0.dir/__/__/mesh/core/src/replay_cache.c.obj
 .text.replay_cache_on_iv_update
                0x0000000000000000       0x2c CMakeFiles/enocean_switch_nrf52832_xxAA_s132_6.0.0.dir/__/__/mesh/core/src/replay_cache.c.obj
 .text.replay_cache_clear
                0x0000000000000000       0x20 CMakeFiles/enocean_switch_nrf52832_xxAA_s132_6.0.0.dir/__/__/mesh/core/src/replay_cache.c.obj
 .text          0x0000000000000000        0x0 CMakeFiles/enocean_switch_nrf52832_xxAA_s132_6.0.0.dir/__/__/mesh/core/src/beacon.c.obj
 .data          0x0000000000000000        0x0 CMakeFiles/enocean_switch_nrf52832_xxAA_s132_6.0.0.dir/__/__/mesh/core/src/beacon.c.obj
 .bss           0x0000000000000000        0x0 CMakeFiles/enocean_switch_nrf52832_xxAA_s132_6.0.0.dir/__/__/mesh/core/src/beacon.c.obj
 .text          0x0000000000000000        0x0 CMakeFiles/enocean_switch_nrf52832_xxAA_s132_6.0.0.dir/__/__/mesh/core/src/flash_manager_internal.c.obj
 .data          0x0000000000000000        0x0 CMakeFiles/enocean_switch_nrf52832_xxAA_s132_6.0.0.dir/__/__/mesh/core/src/flash_manager_internal.c.obj
 .bss           0x0000000000000000        0x0 CMakeFiles/enocean_switch_nrf52832_xxAA_s132_6.0.0.dir/__/__/mesh/core/src/flash_manager_internal.c.obj
 .text          0x0000000000000000        0x0 CMakeFiles/enocean_switch_nrf52832_xxAA_s132_6.0.0.dir/__/__/mesh/core/src/core_tx.c.obj
 .data          0x0000000000000000        0x0 CMakeFiles/enocean_switch_nrf52832_xxAA_s132_6.0.0.dir/__/__/mesh/core/src/core_tx.c.obj
 .bss           0x0000000000000000        0x0 CMakeFiles/enocean_switch_nrf52832_xxAA_s132_6.0.0.dir/__/__/mesh/core/src/core_tx.c.obj
 .text.core_tx_bearer_type_get
                0x0000000000000000       0x2c CMakeFiles/enocean_switch_nrf52832_xxAA_s132_6.0.0.dir/__/__/mesh/core/src/core_tx.c.obj
 .text.core_tx_bearer_count_get
                0x0000000000000000        0xc CMakeFiles/enocean_switch_nrf52832_xxAA_s132_6.0.0.dir/__/__/mesh/core/src/core_tx.c.obj
 .text          0x0000000000000000        0x0 CMakeFiles/enocean_switch_nrf52832_xxAA_s132_6.0.0.dir/__/__/mesh/core/src/heartbeat.c.obj
 .data          0x0000000000000000        0x0 CMakeFiles/enocean_switch_nrf52832_xxAA_s132_6.0.0.dir/__/__/mesh/core/src/heartbeat.c.obj
 .bss           0x0000000000000000        0x0 CMakeFiles/enocean_switch_nrf52832_xxAA_s132_6.0.0.dir/__/__/mesh/core/src/heartbeat.c.obj
 .text          0x0000000000000000        0x0 CMakeFiles/enocean_switch_nrf52832_xxAA_s132_6.0.0.dir/__/__/mesh/core/src/net_beacon.c.obj
 .data          0x0000000000000000        0x0 CMakeFiles/enocean_switch_nrf52832_xxAA_s132_6.0.0.dir/__/__/mesh/core/src/net_beacon.c.obj
 .bss           0x0000000000000000        0x0 CMakeFiles/enocean_switch_nrf52832_xxAA_s132_6.0.0.dir/__/__/mesh/core/src/net_beacon.c.obj
 .text.net_beacon_build
                0x0000000000000000       0x68 CMakeFiles/enocean_switch_nrf52832_xxAA_s132_6.0.0.dir/__/__/mesh/core/src/net_beacon.c.obj
 .text          0x0000000000000000        0x0 CMakeFiles/enocean_switch_nrf52832_xxAA_s132_6.0.0.dir/__/__/mesh/core/src/fsm.c.obj
 .data          0x0000000000000000        0x0 CMakeFiles/enocean_switch_nrf52832_xxAA_s132_6.0.0.dir/__/__/mesh/core/src/fsm.c.obj
 .bss           0x0000000000000000        0x0 CMakeFiles/enocean_switch_nrf52832_xxAA_s132_6.0.0.dir/__/__/mesh/core/src/fsm.c.obj
 .text.fsm_event_post_try
                0x0000000000000000      0x24c CMakeFiles/enocean_switch_nrf52832_xxAA_s132_6.0.0.dir/__/__/mesh/core/src/fsm.c.obj
 .text.fsm_init
                0x0000000000000000      0x100 CMakeFiles/enocean_switch_nrf52832_xxAA_s132_6.0.0.dir/__/__/mesh/core/src/fsm.c.obj
 .text.fsm_event_post
                0x0000000000000000       0xbc CMakeFiles/enocean_switch_nrf52832_xxAA_s132_6.0.0.dir/__/__/mesh/core/src/fsm.c.obj
 .text.fsm_is_processing
                0x0000000000000000        0xc CMakeFiles/enocean_switch_nrf52832_xxAA_s132_6.0.0.dir/__/__/mesh/core/src/fsm.c.obj
 .rodata.fsm_event_post.str1.4
                0x0000000000000000        0xb CMakeFiles/enocean_switch_nrf52832_xxAA_s132_6.0.0.dir/__/__/mesh/core/src/fsm.c.obj
 .rodata.fsm_event_post_try.str1.4
                0x0000000000000000       0x7c CMakeFiles/enocean_switch_nrf52832_xxAA_s132_6.0.0.dir/__/__/mesh/core/src/fsm.c.obj
 .rodata.fsm_init.str1.4
                0x0000000000000000        0xa CMakeFiles/enocean_switch_nrf52832_xxAA_s132_6.0.0.dir/__/__/mesh/core/src/fsm.c.obj
 .debug_info    0x0000000000000000     0x13e3 CMakeFiles/enocean_switch_nrf52832_xxAA_s132_6.0.0.dir/__/__/mesh/core/src/fsm.c.obj
 .debug_abbrev  0x0000000000000000      0x35d CMakeFiles/enocean_switch_nrf52832_xxAA_s132_6.0.0.dir/__/__/mesh/core/src/fsm.c.obj
 .debug_loc     0x0000000000000000      0x4f3 CMakeFiles/enocean_switch_nrf52832_xxAA_s132_6.0.0.dir/__/__/mesh/core/src/fsm.c.obj
 .debug_aranges
                0x0000000000000000       0x38 CMakeFiles/enocean_switch_nrf52832_xxAA_s132_6.0.0.dir/__/__/mesh/core/src/fsm.c.obj
 .debug_ranges  0x0000000000000000       0xd8 CMakeFiles/enocean_switch_nrf52832_xxAA_s132_6.0.0.dir/__/__/mesh/core/src/fsm.c.obj
 .debug_line    0x0000000000000000      0x487 CMakeFiles/enocean_switch_nrf52832_xxAA_s132_6.0.0.dir/__/__/mesh/core/src/fsm.c.obj
 .debug_str     0x0000000000000000      0x9ef CMakeFiles/enocean_switch_nrf52832_xxAA_s132_6.0.0.dir/__/__/mesh/core/src/fsm.c.obj
 .comment       0x0000000000000000       0x7f CMakeFiles/enocean_switch_nrf52832_xxAA_s132_6.0.0.dir/__/__/mesh/core/src/fsm.c.obj
 .debug_frame   0x0000000000000000       0xb0 CMakeFiles/enocean_switch_nrf52832_xxAA_s132_6.0.0.dir/__/__/mesh/core/src/fsm.c.obj
 .ARM.attributes
                0x0000000000000000       0x39 CMakeFiles/enocean_switch_nrf52832_xxAA_s132_6.0.0.dir/__/__/mesh/core/src/fsm.c.obj
 .text          0x0000000000000000        0x0 CMakeFiles/enocean_switch_nrf52832_xxAA_s132_6.0.0.dir/__/__/mesh/core/src/core_tx_adv.c.obj
 .data          0x0000000000000000        0x0 CMakeFiles/enocean_switch_nrf52832_xxAA_s132_6.0.0.dir/__/__/mesh/core/src/core_tx_adv.c.obj
 .bss           0x0000000000000000        0x0 CMakeFiles/enocean_switch_nrf52832_xxAA_s132_6.0.0.dir/__/__/mesh/core/src/core_tx_adv.c.obj
 .text.core_tx_adv_address_set
                0x0000000000000000       0x28 CMakeFiles/enocean_switch_nrf52832_xxAA_s132_6.0.0.dir/__/__/mesh/core/src/core_tx_adv.c.obj
 .text          0x0000000000000000        0x0 CMakeFiles/enocean_switch_nrf52832_xxAA_s132_6.0.0.dir/__/__/mesh/bearer/src/ad_listener.c.obj
 .data          0x0000000000000000        0x0 CMakeFiles/enocean_switch_nrf52832_xxAA_s132_6.0.0.dir/__/__/mesh/bearer/src/ad_listener.c.obj
 .bss           0x0000000000000000        0x0 CMakeFiles/enocean_switch_nrf52832_xxAA_s132_6.0.0.dir/__/__/mesh/bearer/src/ad_listener.c.obj
 .text.ad_listener_unsubscribe
                0x0000000000000000       0x78 CMakeFiles/enocean_switch_nrf52832_xxAA_s132_6.0.0.dir/__/__/mesh/bearer/src/ad_listener.c.obj
 .text          0x0000000000000000        0x0 CMakeFiles/enocean_switch_nrf52832_xxAA_s132_6.0.0.dir/__/__/mesh/bearer/src/ad_type_filter.c.obj
 .data          0x0000000000000000        0x0 CMakeFiles/enocean_switch_nrf52832_xxAA_s132_6.0.0.dir/__/__/mesh/bearer/src/ad_type_filter.c.obj
 .bss           0x0000000000000000        0x0 CMakeFiles/enocean_switch_nrf52832_xxAA_s132_6.0.0.dir/__/__/mesh/bearer/src/ad_type_filter.c.obj
 .text.bearer_adtype_remove
                0x0000000000000000       0x28 CMakeFiles/enocean_switch_nrf52832_xxAA_s132_6.0.0.dir/__/__/mesh/bearer/src/ad_type_filter.c.obj
 .text.bearer_adtype_clear
                0x0000000000000000       0x10 CMakeFiles/enocean_switch_nrf52832_xxAA_s132_6.0.0.dir/__/__/mesh/bearer/src/ad_type_filter.c.obj
 .text.bearer_invalid_length_amount_get
                0x0000000000000000        0xc CMakeFiles/enocean_switch_nrf52832_xxAA_s132_6.0.0.dir/__/__/mesh/bearer/src/ad_type_filter.c.obj
 .text.bearer_adtype_filtered_amount_get
                0x0000000000000000        0xc CMakeFiles/enocean_switch_nrf52832_xxAA_s132_6.0.0.dir/__/__/mesh/bearer/src/ad_type_filter.c.obj
 .text          0x0000000000000000        0x0 CMakeFiles/enocean_switch_nrf52832_xxAA_s132_6.0.0.dir/__/__/mesh/bearer/src/adv_packet_filter.c.obj
 .data          0x0000000000000000        0x0 CMakeFiles/enocean_switch_nrf52832_xxAA_s132_6.0.0.dir/__/__/mesh/bearer/src/adv_packet_filter.c.obj
 .bss           0x0000000000000000        0x0 CMakeFiles/enocean_switch_nrf52832_xxAA_s132_6.0.0.dir/__/__/mesh/bearer/src/adv_packet_filter.c.obj
 .text.adv_filter_handle
                0x0000000000000000       0x40 CMakeFiles/enocean_switch_nrf52832_xxAA_s132_6.0.0.dir/__/__/mesh/bearer/src/adv_packet_filter.c.obj
 .text.bearer_adv_packet_filtering_set
                0x0000000000000000       0x1c CMakeFiles/enocean_switch_nrf52832_xxAA_s132_6.0.0.dir/__/__/mesh/bearer/src/adv_packet_filter.c.obj
 .text.bearer_adv_packet_remove
                0x0000000000000000       0x18 CMakeFiles/enocean_switch_nrf52832_xxAA_s132_6.0.0.dir/__/__/mesh/bearer/src/adv_packet_filter.c.obj
 .text.bearer_adv_packet_add
                0x0000000000000000       0x14 CMakeFiles/enocean_switch_nrf52832_xxAA_s132_6.0.0.dir/__/__/mesh/bearer/src/adv_packet_filter.c.obj
 .text.bearer_adv_packet_clear
                0x0000000000000000        0xc CMakeFiles/enocean_switch_nrf52832_xxAA_s132_6.0.0.dir/__/__/mesh/bearer/src/adv_packet_filter.c.obj
 .text.bearer_adv_packet_filter_mode_set
                0x0000000000000000       0x18 CMakeFiles/enocean_switch_nrf52832_xxAA_s132_6.0.0.dir/__/__/mesh/bearer/src/adv_packet_filter.c.obj
 .text.bearer_adv_packet_filtered_amount_get
                0x0000000000000000        0xc CMakeFiles/enocean_switch_nrf52832_xxAA_s132_6.0.0.dir/__/__/mesh/bearer/src/adv_packet_filter.c.obj
 .bss.m_adv_packet_filter
                0x0000000000000000       0x14 CMakeFiles/enocean_switch_nrf52832_xxAA_s132_6.0.0.dir/__/__/mesh/bearer/src/adv_packet_filter.c.obj
 .debug_info    0x0000000000000000      0xd92 CMakeFiles/enocean_switch_nrf52832_xxAA_s132_6.0.0.dir/__/__/mesh/bearer/src/adv_packet_filter.c.obj
 .debug_abbrev  0x0000000000000000      0x2cb CMakeFiles/enocean_switch_nrf52832_xxAA_s132_6.0.0.dir/__/__/mesh/bearer/src/adv_packet_filter.c.obj
 .debug_loc     0x0000000000000000      0x1b2 CMakeFiles/enocean_switch_nrf52832_xxAA_s132_6.0.0.dir/__/__/mesh/bearer/src/adv_packet_filter.c.obj
 .debug_aranges
                0x0000000000000000       0x50 CMakeFiles/enocean_switch_nrf52832_xxAA_s132_6.0.0.dir/__/__/mesh/bearer/src/adv_packet_filter.c.obj
 .debug_ranges  0x0000000000000000       0x40 CMakeFiles/enocean_switch_nrf52832_xxAA_s132_6.0.0.dir/__/__/mesh/bearer/src/adv_packet_filter.c.obj
 .debug_line    0x0000000000000000      0x486 CMakeFiles/enocean_switch_nrf52832_xxAA_s132_6.0.0.dir/__/__/mesh/bearer/src/adv_packet_filter.c.obj
 .debug_str     0x0000000000000000      0xa93 CMakeFiles/enocean_switch_nrf52832_xxAA_s132_6.0.0.dir/__/__/mesh/bearer/src/adv_packet_filter.c.obj
 .comment       0x0000000000000000       0x7f CMakeFiles/enocean_switch_nrf52832_xxAA_s132_6.0.0.dir/__/__/mesh/bearer/src/adv_packet_filter.c.obj
 .debug_frame   0x0000000000000000       0x88 CMakeFiles/enocean_switch_nrf52832_xxAA_s132_6.0.0.dir/__/__/mesh/bearer/src/adv_packet_filter.c.obj
 .ARM.attributes
                0x0000000000000000       0x39 CMakeFiles/enocean_switch_nrf52832_xxAA_s132_6.0.0.dir/__/__/mesh/bearer/src/adv_packet_filter.c.obj
 .text          0x0000000000000000        0x0 CMakeFiles/enocean_switch_nrf52832_xxAA_s132_6.0.0.dir/__/__/mesh/bearer/src/advertiser.c.obj
 .data          0x0000000000000000        0x0 CMakeFiles/enocean_switch_nrf52832_xxAA_s132_6.0.0.dir/__/__/mesh/bearer/src/advertiser.c.obj
 .bss           0x0000000000000000        0x0 CMakeFiles/enocean_switch_nrf52832_xxAA_s132_6.0.0.dir/__/__/mesh/bearer/src/advertiser.c.obj
 .text.advertiser_disable
                0x0000000000000000        0xc CMakeFiles/enocean_switch_nrf52832_xxAA_s132_6.0.0.dir/__/__/mesh/bearer/src/advertiser.c.obj
 .text.advertiser_config_set
                0x0000000000000000      0x184 CMakeFiles/enocean_switch_nrf52832_xxAA_s132_6.0.0.dir/__/__/mesh/bearer/src/advertiser.c.obj
 .text.advertiser_channels_set
                0x0000000000000000       0x98 CMakeFiles/enocean_switch_nrf52832_xxAA_s132_6.0.0.dir/__/__/mesh/bearer/src/advertiser.c.obj
 .text.advertiser_address_set
                0x0000000000000000       0x74 CMakeFiles/enocean_switch_nrf52832_xxAA_s132_6.0.0.dir/__/__/mesh/bearer/src/advertiser.c.obj
 .text.advertiser_config_get
                0x0000000000000000       0x24 CMakeFiles/enocean_switch_nrf52832_xxAA_s132_6.0.0.dir/__/__/mesh/bearer/src/advertiser.c.obj
 .text.advertiser_address_default_get
                0x0000000000000000       0x5c CMakeFiles/enocean_switch_nrf52832_xxAA_s132_6.0.0.dir/__/__/mesh/bearer/src/advertiser.c.obj
 .text          0x0000000000000000        0x0 CMakeFiles/enocean_switch_nrf52832_xxAA_s132_6.0.0.dir/__/__/mesh/bearer/src/bearer_handler.c.obj
 .data          0x0000000000000000        0x0 CMakeFiles/enocean_switch_nrf52832_xxAA_s132_6.0.0.dir/__/__/mesh/bearer/src/bearer_handler.c.obj
 .bss           0x0000000000000000        0x0 CMakeFiles/enocean_switch_nrf52832_xxAA_s132_6.0.0.dir/__/__/mesh/bearer/src/bearer_handler.c.obj
 .text.bearer_handler_stop
                0x0000000000000000       0x20 CMakeFiles/enocean_switch_nrf52832_xxAA_s132_6.0.0.dir/__/__/mesh/bearer/src/bearer_handler.c.obj
 .text.bearer_handler_action_fire
                0x0000000000000000       0xa0 CMakeFiles/enocean_switch_nrf52832_xxAA_s132_6.0.0.dir/__/__/mesh/bearer/src/bearer_handler.c.obj
 .text          0x0000000000000000        0x0 CMakeFiles/enocean_switch_nrf52832_xxAA_s132_6.0.0.dir/__/__/mesh/bearer/src/broadcast.c.obj
 .data          0x0000000000000000        0x0 CMakeFiles/enocean_switch_nrf52832_xxAA_s132_6.0.0.dir/__/__/mesh/bearer/src/broadcast.c.obj
 .bss           0x0000000000000000        0x0 CMakeFiles/enocean_switch_nrf52832_xxAA_s132_6.0.0.dir/__/__/mesh/bearer/src/broadcast.c.obj
 .text          0x0000000000000000        0x0 CMakeFiles/enocean_switch_nrf52832_xxAA_s132_6.0.0.dir/__/__/mesh/bearer/src/filter_engine.c.obj
 .data          0x0000000000000000        0x0 CMakeFiles/enocean_switch_nrf52832_xxAA_s132_6.0.0.dir/__/__/mesh/bearer/src/filter_engine.c.obj
 .bss           0x0000000000000000        0x0 CMakeFiles/enocean_switch_nrf52832_xxAA_s132_6.0.0.dir/__/__/mesh/bearer/src/filter_engine.c.obj
 .text.fen_accepted_amount_get
                0x0000000000000000        0xc CMakeFiles/enocean_switch_nrf52832_xxAA_s132_6.0.0.dir/__/__/mesh/bearer/src/filter_engine.c.obj
 .text          0x0000000000000000        0x0 CMakeFiles/enocean_switch_nrf52832_xxAA_s132_6.0.0.dir/__/__/mesh/bearer/src/gap_address_filter.c.obj
 .data          0x0000000000000000        0x0 CMakeFiles/enocean_switch_nrf52832_xxAA_s132_6.0.0.dir/__/__/mesh/bearer/src/gap_address_filter.c.obj
 .bss           0x0000000000000000        0x0 CMakeFiles/enocean_switch_nrf52832_xxAA_s132_6.0.0.dir/__/__/mesh/bearer/src/gap_address_filter.c.obj
 .text.gap_address_filter_handle
                0x0000000000000000       0xb8 CMakeFiles/enocean_switch_nrf52832_xxAA_s132_6.0.0.dir/__/__/mesh/bearer/src/gap_address_filter.c.obj
 .text.bearer_filter_gap_addr_whitelist_set
                0x0000000000000000       0x48 CMakeFiles/enocean_switch_nrf52832_xxAA_s132_6.0.0.dir/__/__/mesh/bearer/src/gap_address_filter.c.obj
 .text.bearer_filter_gap_addr_blacklist_set
                0x0000000000000000       0x4c CMakeFiles/enocean_switch_nrf52832_xxAA_s132_6.0.0.dir/__/__/mesh/bearer/src/gap_address_filter.c.obj
 .text.bearer_filter_gap_addr_range_set
                0x0000000000000000       0x64 CMakeFiles/enocean_switch_nrf52832_xxAA_s132_6.0.0.dir/__/__/mesh/bearer/src/gap_address_filter.c.obj
 .text.bearer_filter_gap_addr_clear
                0x0000000000000000       0x24 CMakeFiles/enocean_switch_nrf52832_xxAA_s132_6.0.0.dir/__/__/mesh/bearer/src/gap_address_filter.c.obj
 .text.bearer_gap_addr_filtered_amount_get
                0x0000000000000000        0xc CMakeFiles/enocean_switch_nrf52832_xxAA_s132_6.0.0.dir/__/__/mesh/bearer/src/gap_address_filter.c.obj
 .bss.m_addr_filter
                0x0000000000000000       0x18 CMakeFiles/enocean_switch_nrf52832_xxAA_s132_6.0.0.dir/__/__/mesh/bearer/src/gap_address_filter.c.obj
 .debug_info    0x0000000000000000      0xf34 CMakeFiles/enocean_switch_nrf52832_xxAA_s132_6.0.0.dir/__/__/mesh/bearer/src/gap_address_filter.c.obj
 .debug_abbrev  0x0000000000000000      0x2f8 CMakeFiles/enocean_switch_nrf52832_xxAA_s132_6.0.0.dir/__/__/mesh/bearer/src/gap_address_filter.c.obj
 .debug_loc     0x0000000000000000      0x823 CMakeFiles/enocean_switch_nrf52832_xxAA_s132_6.0.0.dir/__/__/mesh/bearer/src/gap_address_filter.c.obj
 .debug_aranges
                0x0000000000000000       0x48 CMakeFiles/enocean_switch_nrf52832_xxAA_s132_6.0.0.dir/__/__/mesh/bearer/src/gap_address_filter.c.obj
 .debug_ranges  0x0000000000000000      0x100 CMakeFiles/enocean_switch_nrf52832_xxAA_s132_6.0.0.dir/__/__/mesh/bearer/src/gap_address_filter.c.obj
 .debug_line    0x0000000000000000      0x516 CMakeFiles/enocean_switch_nrf52832_xxAA_s132_6.0.0.dir/__/__/mesh/bearer/src/gap_address_filter.c.obj
 .debug_str     0x0000000000000000      0x9ed CMakeFiles/enocean_switch_nrf52832_xxAA_s132_6.0.0.dir/__/__/mesh/bearer/src/gap_address_filter.c.obj
 .comment       0x0000000000000000       0x7f CMakeFiles/enocean_switch_nrf52832_xxAA_s132_6.0.0.dir/__/__/mesh/bearer/src/gap_address_filter.c.obj
 .debug_frame   0x0000000000000000       0xd4 CMakeFiles/enocean_switch_nrf52832_xxAA_s132_6.0.0.dir/__/__/mesh/bearer/src/gap_address_filter.c.obj
 .ARM.attributes
                0x0000000000000000       0x39 CMakeFiles/enocean_switch_nrf52832_xxAA_s132_6.0.0.dir/__/__/mesh/bearer/src/gap_address_filter.c.obj
 .text          0x0000000000000000        0x0 CMakeFiles/enocean_switch_nrf52832_xxAA_s132_6.0.0.dir/__/__/mesh/bearer/src/radio_config.c.obj
 .data          0x0000000000000000        0x0 CMakeFiles/enocean_switch_nrf52832_xxAA_s132_6.0.0.dir/__/__/mesh/bearer/src/radio_config.c.obj
 .bss           0x0000000000000000        0x0 CMakeFiles/enocean_switch_nrf52832_xxAA_s132_6.0.0.dir/__/__/mesh/bearer/src/radio_config.c.obj
 .text.radio_config_access_addr_get
                0x0000000000000000       0x58 CMakeFiles/enocean_switch_nrf52832_xxAA_s132_6.0.0.dir/__/__/mesh/bearer/src/radio_config.c.obj
 .text          0x0000000000000000        0x0 CMakeFiles/enocean_switch_nrf52832_xxAA_s132_6.0.0.dir/__/__/mesh/bearer/src/rssi_filter.c.obj
 .data          0x0000000000000000        0x0 CMakeFiles/enocean_switch_nrf52832_xxAA_s132_6.0.0.dir/__/__/mesh/bearer/src/rssi_filter.c.obj
 .bss           0x0000000000000000        0x0 CMakeFiles/enocean_switch_nrf52832_xxAA_s132_6.0.0.dir/__/__/mesh/bearer/src/rssi_filter.c.obj
 .text.rssi_filter_handle
                0x0000000000000000       0x20 CMakeFiles/enocean_switch_nrf52832_xxAA_s132_6.0.0.dir/__/__/mesh/bearer/src/rssi_filter.c.obj
 .text.bearer_rssi_filtering_set
                0x0000000000000000       0x38 CMakeFiles/enocean_switch_nrf52832_xxAA_s132_6.0.0.dir/__/__/mesh/bearer/src/rssi_filter.c.obj
 .text.bearer_rssi_filtered_amount_get
                0x0000000000000000        0xc CMakeFiles/enocean_switch_nrf52832_xxAA_s132_6.0.0.dir/__/__/mesh/bearer/src/rssi_filter.c.obj
 .bss.m_rssi_filter
                0x0000000000000000       0x18 CMakeFiles/enocean_switch_nrf52832_xxAA_s132_6.0.0.dir/__/__/mesh/bearer/src/rssi_filter.c.obj
 .debug_info    0x0000000000000000      0xc70 CMakeFiles/enocean_switch_nrf52832_xxAA_s132_6.0.0.dir/__/__/mesh/bearer/src/rssi_filter.c.obj
 .debug_abbrev  0x0000000000000000      0x290 CMakeFiles/enocean_switch_nrf52832_xxAA_s132_6.0.0.dir/__/__/mesh/bearer/src/rssi_filter.c.obj
 .debug_loc     0x0000000000000000       0xbe CMakeFiles/enocean_switch_nrf52832_xxAA_s132_6.0.0.dir/__/__/mesh/bearer/src/rssi_filter.c.obj
 .debug_aranges
                0x0000000000000000       0x30 CMakeFiles/enocean_switch_nrf52832_xxAA_s132_6.0.0.dir/__/__/mesh/bearer/src/rssi_filter.c.obj
 .debug_ranges  0x0000000000000000       0x20 CMakeFiles/enocean_switch_nrf52832_xxAA_s132_6.0.0.dir/__/__/mesh/bearer/src/rssi_filter.c.obj
 .debug_line    0x0000000000000000      0x3f8 CMakeFiles/enocean_switch_nrf52832_xxAA_s132_6.0.0.dir/__/__/mesh/bearer/src/rssi_filter.c.obj
 .debug_str     0x0000000000000000      0x8a8 CMakeFiles/enocean_switch_nrf52832_xxAA_s132_6.0.0.dir/__/__/mesh/bearer/src/rssi_filter.c.obj
 .comment       0x0000000000000000       0x7f CMakeFiles/enocean_switch_nrf52832_xxAA_s132_6.0.0.dir/__/__/mesh/bearer/src/rssi_filter.c.obj
 .debug_frame   0x0000000000000000       0x58 CMakeFiles/enocean_switch_nrf52832_xxAA_s132_6.0.0.dir/__/__/mesh/bearer/src/rssi_filter.c.obj
 .ARM.attributes
                0x0000000000000000       0x39 CMakeFiles/enocean_switch_nrf52832_xxAA_s132_6.0.0.dir/__/__/mesh/bearer/src/rssi_filter.c.obj
 .text          0x0000000000000000        0x0 CMakeFiles/enocean_switch_nrf52832_xxAA_s132_6.0.0.dir/__/__/mesh/bearer/src/scanner.c.obj
 .data          0x0000000000000000        0x0 CMakeFiles/enocean_switch_nrf52832_xxAA_s132_6.0.0.dir/__/__/mesh/bearer/src/scanner.c.obj
 .bss           0x0000000000000000        0x0 CMakeFiles/enocean_switch_nrf52832_xxAA_s132_6.0.0.dir/__/__/mesh/bearer/src/scanner.c.obj
 .text.scanner_rx_callback_set
                0x0000000000000000       0x20 CMakeFiles/enocean_switch_nrf52832_xxAA_s132_6.0.0.dir/__/__/mesh/bearer/src/scanner.c.obj
 .text.scanner_disable
                0x0000000000000000       0x50 CMakeFiles/enocean_switch_nrf52832_xxAA_s132_6.0.0.dir/__/__/mesh/bearer/src/scanner.c.obj
 .text.scanner_is_enabled
                0x0000000000000000       0x14 CMakeFiles/enocean_switch_nrf52832_xxAA_s132_6.0.0.dir/__/__/mesh/bearer/src/scanner.c.obj
 .text.scanner_stats_get
                0x0000000000000000        0x8 CMakeFiles/enocean_switch_nrf52832_xxAA_s132_6.0.0.dir/__/__/mesh/bearer/src/scanner.c.obj
 .text.scanner_config_radio_mode_set
                0x0000000000000000       0x10 CMakeFiles/enocean_switch_nrf52832_xxAA_s132_6.0.0.dir/__/__/mesh/bearer/src/scanner.c.obj
 .text.scanner_config_scan_time_set
                0x0000000000000000       0x88 CMakeFiles/enocean_switch_nrf52832_xxAA_s132_6.0.0.dir/__/__/mesh/bearer/src/scanner.c.obj
 .text.scanner_config_channels_set
                0x0000000000000000       0x50 CMakeFiles/enocean_switch_nrf52832_xxAA_s132_6.0.0.dir/__/__/mesh/bearer/src/scanner.c.obj
 .text.scanner_config_access_addresses_set
                0x0000000000000000       0x38 CMakeFiles/enocean_switch_nrf52832_xxAA_s132_6.0.0.dir/__/__/mesh/bearer/src/scanner.c.obj
 .text          0x0000000000000000        0x0 CMakeFiles/enocean_switch_nrf52832_xxAA_s132_6.0.0.dir/__/__/models/simple_on_off/src/simple_on_off_client.c.obj
 .data          0x0000000000000000        0x0 CMakeFiles/enocean_switch_nrf52832_xxAA_s132_6.0.0.dir/__/__/models/simple_on_off/src/simple_on_off_client.c.obj
 .bss           0x0000000000000000        0x0 CMakeFiles/enocean_switch_nrf52832_xxAA_s132_6.0.0.dir/__/__/models/simple_on_off/src/simple_on_off_client.c.obj
 .text.simple_on_off_client_get
                0x0000000000000000       0x60 CMakeFiles/enocean_switch_nrf52832_xxAA_s132_6.0.0.dir/__/__/models/simple_on_off/src/simple_on_off_client.c.obj
 .text.simple_on_off_client_pending_msg_cancel
                0x0000000000000000        0x8 CMakeFiles/enocean_switch_nrf52832_xxAA_s132_6.0.0.dir/__/__/models/simple_on_off/src/simple_on_off_client.c.obj
 .text          0x0000000000000000        0x0 CMakeFiles/enocean_switch_nrf52832_xxAA_s132_6.0.0.dir/__/__/models/config/src/composition_data.c.obj
 .data          0x0000000000000000        0x0 CMakeFiles/enocean_switch_nrf52832_xxAA_s132_6.0.0.dir/__/__/models/config/src/composition_data.c.obj
 .bss           0x0000000000000000        0x0 CMakeFiles/enocean_switch_nrf52832_xxAA_s132_6.0.0.dir/__/__/models/config/src/composition_data.c.obj
 .text          0x0000000000000000        0x0 CMakeFiles/enocean_switch_nrf52832_xxAA_s132_6.0.0.dir/__/__/models/config/src/config_server.c.obj
 .data          0x0000000000000000        0x0 CMakeFiles/enocean_switch_nrf52832_xxAA_s132_6.0.0.dir/__/__/models/config/src/config_server.c.obj
 .bss           0x0000000000000000        0x0 CMakeFiles/enocean_switch_nrf52832_xxAA_s132_6.0.0.dir/__/__/models/config/src/config_server.c.obj
 .text          0x0000000000000000        0x0 CMakeFiles/enocean_switch_nrf52832_xxAA_s132_6.0.0.dir/__/__/models/config/src/packed_index_list.c.obj
 .data          0x0000000000000000        0x0 CMakeFiles/enocean_switch_nrf52832_xxAA_s132_6.0.0.dir/__/__/models/config/src/packed_index_list.c.obj
 .bss           0x0000000000000000        0x0 CMakeFiles/enocean_switch_nrf52832_xxAA_s132_6.0.0.dir/__/__/models/config/src/packed_index_list.c.obj
 .text          0x0000000000000000        0x0 CMakeFiles/enocean_switch_nrf52832_xxAA_s132_6.0.0.dir/__/__/models/health/src/health_server.c.obj
 .data          0x0000000000000000        0x0 CMakeFiles/enocean_switch_nrf52832_xxAA_s132_6.0.0.dir/__/__/models/health/src/health_server.c.obj
 .bss           0x0000000000000000        0x0 CMakeFiles/enocean_switch_nrf52832_xxAA_s132_6.0.0.dir/__/__/models/health/src/health_server.c.obj
 .text.health_server_fault_register
                0x0000000000000000      0x23c CMakeFiles/enocean_switch_nrf52832_xxAA_s132_6.0.0.dir/__/__/models/health/src/health_server.c.obj
 .text.health_server_fault_clear
                0x0000000000000000      0x2d8 CMakeFiles/enocean_switch_nrf52832_xxAA_s132_6.0.0.dir/__/__/models/health/src/health_server.c.obj
 .text.health_server_fault_is_set
                0x0000000000000000       0x1c CMakeFiles/enocean_switch_nrf52832_xxAA_s132_6.0.0.dir/__/__/models/health/src/health_server.c.obj
 .text.health_server_fault_count_get
                0x0000000000000000      0x14c CMakeFiles/enocean_switch_nrf52832_xxAA_s132_6.0.0.dir/__/__/models/health/src/health_server.c.obj
 .text.health_server_attention_get
                0x0000000000000000        0x8 CMakeFiles/enocean_switch_nrf52832_xxAA_s132_6.0.0.dir/__/__/models/health/src/health_server.c.obj
 .text.health_server_attention_set
                0x0000000000000000       0x90 CMakeFiles/enocean_switch_nrf52832_xxAA_s132_6.0.0.dir/__/__/models/health/src/health_server.c.obj
 .text          0x0000000000000000        0x0 CMakeFiles/enocean_switch_nrf52832_xxAA_s132_6.0.0.dir/__/__/mesh/access/src/access_publish.c.obj
 .data          0x0000000000000000        0x0 CMakeFiles/enocean_switch_nrf52832_xxAA_s132_6.0.0.dir/__/__/mesh/access/src/access_publish.c.obj
 .bss           0x0000000000000000        0x0 CMakeFiles/enocean_switch_nrf52832_xxAA_s132_6.0.0.dir/__/__/mesh/access/src/access_publish.c.obj
 .text          0x0000000000000000        0x0 CMakeFiles/enocean_switch_nrf52832_xxAA_s132_6.0.0.dir/__/__/mesh/access/src/access.c.obj
 .data          0x0000000000000000        0x0 CMakeFiles/enocean_switch_nrf52832_xxAA_s132_6.0.0.dir/__/__/mesh/access/src/access.c.obj
 .bss           0x0000000000000000        0x0 CMakeFiles/enocean_switch_nrf52832_xxAA_s132_6.0.0.dir/__/__/mesh/access/src/access.c.obj
 .text.access_model_subscription_lists_share
                0x0000000000000000       0x68 CMakeFiles/enocean_switch_nrf52832_xxAA_s132_6.0.0.dir/__/__/mesh/access/src/access.c.obj
 .text.access_element_location_set
                0x0000000000000000       0x3c CMakeFiles/enocean_switch_nrf52832_xxAA_s132_6.0.0.dir/__/__/mesh/access/src/access.c.obj
 .text          0x0000000000000000        0x0 CMakeFiles/enocean_switch_nrf52832_xxAA_s132_6.0.0.dir/__/__/mesh/access/src/access_reliable.c.obj
 .data          0x0000000000000000        0x0 CMakeFiles/enocean_switch_nrf52832_xxAA_s132_6.0.0.dir/__/__/mesh/access/src/access_reliable.c.obj
 .bss           0x0000000000000000        0x0 CMakeFiles/enocean_switch_nrf52832_xxAA_s132_6.0.0.dir/__/__/mesh/access/src/access_reliable.c.obj
 .text          0x0000000000000000        0x0 CMakeFiles/enocean_switch_nrf52832_xxAA_s132_6.0.0.dir/__/__/mesh/access/src/device_state_manager.c.obj
 .data          0x0000000000000000        0x0 CMakeFiles/enocean_switch_nrf52832_xxAA_s132_6.0.0.dir/__/__/mesh/access/src/device_state_manager.c.obj
 .bss           0x0000000000000000        0x0 CMakeFiles/enocean_switch_nrf52832_xxAA_s132_6.0.0.dir/__/__/mesh/access/src/device_state_manager.c.obj
 .text.dsm_has_unflashed_data
                0x0000000000000000       0x58 CMakeFiles/enocean_switch_nrf52832_xxAA_s132_6.0.0.dir/__/__/mesh/access/src/device_state_manager.c.obj
 .text.dsm_address_subscription_count_get
                0x0000000000000000       0x80 CMakeFiles/enocean_switch_nrf52832_xxAA_s132_6.0.0.dir/__/__/mesh/access/src/device_state_manager.c.obj
 .text.dsm_address_get_all
                0x0000000000000000      0x258 CMakeFiles/enocean_switch_nrf52832_xxAA_s132_6.0.0.dir/__/__/mesh/access/src/device_state_manager.c.obj
 .text.dsm_subnet_handle_to_netkey_index
                0x0000000000000000       0x34 CMakeFiles/enocean_switch_nrf52832_xxAA_s132_6.0.0.dir/__/__/mesh/access/src/device_state_manager.c.obj
 .text.dsm_devkey_delete
                0x0000000000000000       0x6c CMakeFiles/enocean_switch_nrf52832_xxAA_s132_6.0.0.dir/__/__/mesh/access/src/device_state_manager.c.obj
 .text.dsm_devkey_handle_get
                0x0000000000000000       0x3c CMakeFiles/enocean_switch_nrf52832_xxAA_s132_6.0.0.dir/__/__/mesh/access/src/device_state_manager.c.obj
 .text.dsm_beacon_info_get
                0x0000000000000000       0x34 CMakeFiles/enocean_switch_nrf52832_xxAA_s132_6.0.0.dir/__/__/mesh/access/src/device_state_manager.c.obj
 .text          0x0000000000000000        0x0 CMakeFiles/enocean_switch_nrf52832_xxAA_s132_6.0.0.dir/__/__/mesh/prov/src/prov_provisionee.c.obj
 .data          0x0000000000000000        0x0 CMakeFiles/enocean_switch_nrf52832_xxAA_s132_6.0.0.dir/__/__/mesh/prov/src/prov_provisionee.c.obj
 .bss           0x0000000000000000        0x0 CMakeFiles/enocean_switch_nrf52832_xxAA_s132_6.0.0.dir/__/__/mesh/prov/src/prov_provisionee.c.obj
 .text.prov_provisionee_shared_secret
                0x0000000000000000       0xa0 CMakeFiles/enocean_switch_nrf52832_xxAA_s132_6.0.0.dir/__/__/mesh/prov/src/prov_provisionee.c.obj
 .text          0x0000000000000000        0x0 CMakeFiles/enocean_switch_nrf52832_xxAA_s132_6.0.0.dir/__/__/mesh/prov/src/nrf_mesh_prov.c.obj
 .data          0x0000000000000000        0x0 CMakeFiles/enocean_switch_nrf52832_xxAA_s132_6.0.0.dir/__/__/mesh/prov/src/nrf_mesh_prov.c.obj
 .bss           0x0000000000000000        0x0 CMakeFiles/enocean_switch_nrf52832_xxAA_s132_6.0.0.dir/__/__/mesh/prov/src/nrf_mesh_prov.c.obj
 .text.nrf_mesh_prov_listen_stop
                0x0000000000000000       0x30 CMakeFiles/enocean_switch_nrf52832_xxAA_s132_6.0.0.dir/__/__/mesh/prov/src/nrf_mesh_prov.c.obj
 .text.nrf_mesh_prov_provision
                0x0000000000000000       0x68 CMakeFiles/enocean_switch_nrf52832_xxAA_s132_6.0.0.dir/__/__/mesh/prov/src/nrf_mesh_prov.c.obj
 .text.nrf_mesh_prov_oob_use
                0x0000000000000000       0x18 CMakeFiles/enocean_switch_nrf52832_xxAA_s132_6.0.0.dir/__/__/mesh/prov/src/nrf_mesh_prov.c.obj
 .text.nrf_mesh_prov_shared_secret_provide
                0x0000000000000000       0x10 CMakeFiles/enocean_switch_nrf52832_xxAA_s132_6.0.0.dir/__/__/mesh/prov/src/nrf_mesh_prov.c.obj
 .text.nrf_mesh_prov_pubkey_provide
                0x0000000000000000       0x10 CMakeFiles/enocean_switch_nrf52832_xxAA_s132_6.0.0.dir/__/__/mesh/prov/src/nrf_mesh_prov.c.obj
 .text.nrf_mesh_prov_scan_start
                0x0000000000000000       0x10 CMakeFiles/enocean_switch_nrf52832_xxAA_s132_6.0.0.dir/__/__/mesh/prov/src/nrf_mesh_prov.c.obj
 .text.nrf_mesh_prov_scan_stop
                0x0000000000000000        0x4 CMakeFiles/enocean_switch_nrf52832_xxAA_s132_6.0.0.dir/__/__/mesh/prov/src/nrf_mesh_prov.c.obj
 .text          0x0000000000000000        0x0 CMakeFiles/enocean_switch_nrf52832_xxAA_s132_6.0.0.dir/__/__/mesh/prov/src/provisioning.c.obj
 .data          0x0000000000000000        0x0 CMakeFiles/enocean_switch_nrf52832_xxAA_s132_6.0.0.dir/__/__/mesh/prov/src/provisioning.c.obj
 .bss           0x0000000000000000        0x0 CMakeFiles/enocean_switch_nrf52832_xxAA_s132_6.0.0.dir/__/__/mesh/prov/src/provisioning.c.obj
 .text.prov_tx_invite
                0x0000000000000000       0x38 CMakeFiles/enocean_switch_nrf52832_xxAA_s132_6.0.0.dir/__/__/mesh/prov/src/provisioning.c.obj
 .text.prov_tx_start
                0x0000000000000000       0x38 CMakeFiles/enocean_switch_nrf52832_xxAA_s132_6.0.0.dir/__/__/mesh/prov/src/provisioning.c.obj
 .text.prov_tx_data
                0x0000000000000000       0x34 CMakeFiles/enocean_switch_nrf52832_xxAA_s132_6.0.0.dir/__/__/mesh/prov/src/provisioning.c.obj
 .text.prov_tx  0x0000000000000000       0x3c CMakeFiles/enocean_switch_nrf52832_xxAA_s132_6.0.0.dir/__/__/mesh/prov/src/provisioning.c.obj
 .text          0x0000000000000000        0x0 CMakeFiles/enocean_switch_nrf52832_xxAA_s132_6.0.0.dir/__/__/mesh/prov/src/prov_beacon.c.obj
 .data          0x0000000000000000        0x0 CMakeFiles/enocean_switch_nrf52832_xxAA_s132_6.0.0.dir/__/__/mesh/prov/src/prov_beacon.c.obj
 .bss           0x0000000000000000        0x0 CMakeFiles/enocean_switch_nrf52832_xxAA_s132_6.0.0.dir/__/__/mesh/prov/src/prov_beacon.c.obj
 .text.prov_beacon_scan_start
                0x0000000000000000       0x1c CMakeFiles/enocean_switch_nrf52832_xxAA_s132_6.0.0.dir/__/__/mesh/prov/src/prov_beacon.c.obj
 .text.prov_beacon_scan_stop
                0x0000000000000000        0xc CMakeFiles/enocean_switch_nrf52832_xxAA_s132_6.0.0.dir/__/__/mesh/prov/src/prov_beacon.c.obj
 .text          0x0000000000000000        0x0 CMakeFiles/enocean_switch_nrf52832_xxAA_s132_6.0.0.dir/__/__/mesh/prov/src/prov_utils.c.obj
 .data          0x0000000000000000        0x0 CMakeFiles/enocean_switch_nrf52832_xxAA_s132_6.0.0.dir/__/__/mesh/prov/src/prov_utils.c.obj
 .bss           0x0000000000000000        0x0 CMakeFiles/enocean_switch_nrf52832_xxAA_s132_6.0.0.dir/__/__/mesh/prov/src/prov_utils.c.obj
 .text          0x0000000000000000        0x0 CMakeFiles/enocean_switch_nrf52832_xxAA_s132_6.0.0.dir/__/__/mesh/prov/src/prov_bearer_adv.c.obj
 .data          0x0000000000000000        0x0 CMakeFiles/enocean_switch_nrf52832_xxAA_s132_6.0.0.dir/__/__/mesh/prov/src/prov_bearer_adv.c.obj
 .bss           0x0000000000000000        0x0 CMakeFiles/enocean_switch_nrf52832_xxAA_s132_6.0.0.dir/__/__/mesh/prov/src/prov_bearer_adv.c.obj
 .text.calculate_3GPP_CRC
                0x0000000000000000       0x28 CMakeFiles/enocean_switch_nrf52832_xxAA_s132_6.0.0.dir/__/__/mesh/prov/src/prov_bearer_adv.c.obj
 .text          0x0000000000000000        0x0 CMakeFiles/enocean_switch_nrf52832_xxAA_s132_6.0.0.dir/home/mazzer/work/nordic/sdk/nRF5_SDK_15.0.0/modules/nrfx/mdk/system_nrf52.c.obj
 .data          0x0000000000000000        0x0 CMakeFiles/enocean_switch_nrf52832_xxAA_s132_6.0.0.dir/home/mazzer/work/nordic/sdk/nRF5_SDK_15.0.0/modules/nrfx/mdk/system_nrf52.c.obj
 .bss           0x0000000000000000        0x0 CMakeFiles/enocean_switch_nrf52832_xxAA_s132_6.0.0.dir/home/mazzer/work/nordic/sdk/nRF5_SDK_15.0.0/modules/nrfx/mdk/system_nrf52.c.obj
 .text.SystemCoreClockUpdate
                0x0000000000000000       0x10 CMakeFiles/enocean_switch_nrf52832_xxAA_s132_6.0.0.dir/home/mazzer/work/nordic/sdk/nRF5_SDK_15.0.0/modules/nrfx/mdk/system_nrf52.c.obj
 .data          0x0000000000000000        0x0 CMakeFiles/enocean_switch_nrf52832_xxAA_s132_6.0.0.dir/home/mazzer/work/nordic/sdk/nRF5_SDK_15.0.0/modules/nrfx/mdk/gcc_startup_nrf52.S.obj
 .bss           0x0000000000000000        0x0 CMakeFiles/enocean_switch_nrf52832_xxAA_s132_6.0.0.dir/home/mazzer/work/nordic/sdk/nRF5_SDK_15.0.0/modules/nrfx/mdk/gcc_startup_nrf52.S.obj
 .text          0x0000000000000000        0x0 CMakeFiles/enocean_switch_nrf52832_xxAA_s132_6.0.0.dir/home/mazzer/work/nordic/sdk/nRF5_SDK_15.0.0/components/libraries/util/app_error.c.obj
 .data          0x0000000000000000        0x0 CMakeFiles/enocean_switch_nrf52832_xxAA_s132_6.0.0.dir/home/mazzer/work/nordic/sdk/nRF5_SDK_15.0.0/components/libraries/util/app_error.c.obj
 .bss           0x0000000000000000        0x0 CMakeFiles/enocean_switch_nrf52832_xxAA_s132_6.0.0.dir/home/mazzer/work/nordic/sdk/nRF5_SDK_15.0.0/components/libraries/util/app_error.c.obj
 .text.app_error_save_and_stop
                0x0000000000000000       0x64 CMakeFiles/enocean_switch_nrf52832_xxAA_s132_6.0.0.dir/home/mazzer/work/nordic/sdk/nRF5_SDK_15.0.0/components/libraries/util/app_error.c.obj
 .bss.m_error_data.8037
                0x0000000000000000       0x20 CMakeFiles/enocean_switch_nrf52832_xxAA_s132_6.0.0.dir/home/mazzer/work/nordic/sdk/nRF5_SDK_15.0.0/components/libraries/util/app_error.c.obj
 .text          0x0000000000000000        0x0 CMakeFiles/enocean_switch_nrf52832_xxAA_s132_6.0.0.dir/home/mazzer/work/nordic/sdk/nRF5_SDK_15.0.0/components/libraries/util/app_error_handler_gcc.c.obj
 .data          0x0000000000000000        0x0 CMakeFiles/enocean_switch_nrf52832_xxAA_s132_6.0.0.dir/home/mazzer/work/nordic/sdk/nRF5_SDK_15.0.0/components/libraries/util/app_error_handler_gcc.c.obj
 .bss           0x0000000000000000        0x0 CMakeFiles/enocean_switch_nrf52832_xxAA_s132_6.0.0.dir/home/mazzer/work/nordic/sdk/nRF5_SDK_15.0.0/components/libraries/util/app_error_handler_gcc.c.obj
 .text          0x0000000000000000        0x0 ../../external/rtt/librtt_nrf52832_xxAA.a(SEGGER_RTT.c.obj)
 .data          0x0000000000000000        0x0 ../../external/rtt/librtt_nrf52832_xxAA.a(SEGGER_RTT.c.obj)
 .bss           0x0000000000000000        0x0 ../../external/rtt/librtt_nrf52832_xxAA.a(SEGGER_RTT.c.obj)
 .text.SEGGER_RTT_ReadNoLock
                0x0000000000000000       0xfc ../../external/rtt/librtt_nrf52832_xxAA.a(SEGGER_RTT.c.obj)
 .text.SEGGER_RTT_Read
                0x0000000000000000      0x118 ../../external/rtt/librtt_nrf52832_xxAA.a(SEGGER_RTT.c.obj)
 .text.SEGGER_RTT_WriteSkipNoLock
                0x0000000000000000      0x1a8 ../../external/rtt/librtt_nrf52832_xxAA.a(SEGGER_RTT.c.obj)
 .text.SEGGER_RTT_WriteNoLock
                0x0000000000000000      0x168 ../../external/rtt/librtt_nrf52832_xxAA.a(SEGGER_RTT.c.obj)
 .text.SEGGER_RTT_WriteString
                0x0000000000000000      0x1f8 ../../external/rtt/librtt_nrf52832_xxAA.a(SEGGER_RTT.c.obj)
 .text.SEGGER_RTT_WaitKey
                0x0000000000000000       0xfc ../../external/rtt/librtt_nrf52832_xxAA.a(SEGGER_RTT.c.obj)
 .text.SEGGER_RTT_HasKey
                0x0000000000000000       0x6c ../../external/rtt/librtt_nrf52832_xxAA.a(SEGGER_RTT.c.obj)
 .text.SEGGER_RTT_HasData
                0x0000000000000000       0x18 ../../external/rtt/librtt_nrf52832_xxAA.a(SEGGER_RTT.c.obj)
 .text.SEGGER_RTT_AllocDownBuffer
                0x0000000000000000       0xb8 ../../external/rtt/librtt_nrf52832_xxAA.a(SEGGER_RTT.c.obj)
 .text.SEGGER_RTT_AllocUpBuffer
                0x0000000000000000       0xd4 ../../external/rtt/librtt_nrf52832_xxAA.a(SEGGER_RTT.c.obj)
 .text.SEGGER_RTT_ConfigUpBuffer
                0x0000000000000000       0xd0 ../../external/rtt/librtt_nrf52832_xxAA.a(SEGGER_RTT.c.obj)
 .text.SEGGER_RTT_ConfigDownBuffer
                0x0000000000000000       0xb4 ../../external/rtt/librtt_nrf52832_xxAA.a(SEGGER_RTT.c.obj)
 .text.SEGGER_RTT_SetNameUpBuffer
                0x0000000000000000       0x90 ../../external/rtt/librtt_nrf52832_xxAA.a(SEGGER_RTT.c.obj)
 .text.SEGGER_RTT_SetNameDownBuffer
                0x0000000000000000       0x90 ../../external/rtt/librtt_nrf52832_xxAA.a(SEGGER_RTT.c.obj)
 .text.SEGGER_RTT_Init
                0x0000000000000000       0x64 ../../external/rtt/librtt_nrf52832_xxAA.a(SEGGER_RTT.c.obj)
 .text.SEGGER_RTT_SetTerminal
                0x0000000000000000      0x16c ../../external/rtt/librtt_nrf52832_xxAA.a(SEGGER_RTT.c.obj)
 .text.SEGGER_RTT_TerminalOut
                0x0000000000000000      0x4d8 ../../external/rtt/librtt_nrf52832_xxAA.a(SEGGER_RTT.c.obj)
 .bss._ActiveTerminal
                0x0000000000000000        0x1 ../../external/rtt/librtt_nrf52832_xxAA.a(SEGGER_RTT.c.obj)
 .rodata._aTerminalId
                0x0000000000000000       0x10 ../../external/rtt/librtt_nrf52832_xxAA.a(SEGGER_RTT.c.obj)
 .text          0x0000000000000000        0x0 ../../external/rtt/librtt_nrf52832_xxAA.a(SEGGER_RTT_printf.c.obj)
 .data          0x0000000000000000        0x0 ../../external/rtt/librtt_nrf52832_xxAA.a(SEGGER_RTT_printf.c.obj)
 .bss           0x0000000000000000        0x0 ../../external/rtt/librtt_nrf52832_xxAA.a(SEGGER_RTT_printf.c.obj)
 .text          0x0000000000000000        0x0 ../../external/micro-ecc/libuECC_nrf52832_xxAA.a(uECC.c.obj)
 .data          0x0000000000000000        0x0 ../../external/micro-ecc/libuECC_nrf52832_xxAA.a(uECC.c.obj)
 .bss           0x0000000000000000        0x0 ../../external/micro-ecc/libuECC_nrf52832_xxAA.a(uECC.c.obj)
 .text.HMAC_finish
                0x0000000000000000       0x70 ../../external/micro-ecc/libuECC_nrf52832_xxAA.a(uECC.c.obj)
 .text.uECC_vli_mmod
                0x0000000000000000      0x418 ../../external/micro-ecc/libuECC_nrf52832_xxAA.a(uECC.c.obj)
 .text.uECC_vli_modSub.isra.2
                0x0000000000000000       0x98 ../../external/micro-ecc/libuECC_nrf52832_xxAA.a(uECC.c.obj)
 .text.bits2int
                0x0000000000000000      0x160 ../../external/micro-ecc/libuECC_nrf52832_xxAA.a(uECC.c.obj)
 .text.uECC_sign_with_k
                0x0000000000000000      0x630 ../../external/micro-ecc/libuECC_nrf52832_xxAA.a(uECC.c.obj)
 .text.uECC_set_rng
                0x0000000000000000        0xc ../../external/micro-ecc/libuECC_nrf52832_xxAA.a(uECC.c.obj)
 .text.uECC_get_rng
                0x0000000000000000        0xc ../../external/micro-ecc/libuECC_nrf52832_xxAA.a(uECC.c.obj)
 .text.uECC_curve_private_key_size
                0x0000000000000000       0x10 ../../external/micro-ecc/libuECC_nrf52832_xxAA.a(uECC.c.obj)
 .text.uECC_curve_public_key_size
                0x0000000000000000        0x8 ../../external/micro-ecc/libuECC_nrf52832_xxAA.a(uECC.c.obj)
 .text.uECC_valid_point
                0x0000000000000000      0x154 ../../external/micro-ecc/libuECC_nrf52832_xxAA.a(uECC.c.obj)
 .text.uECC_compute_public_key
                0x0000000000000000      0x2e8 ../../external/micro-ecc/libuECC_nrf52832_xxAA.a(uECC.c.obj)
 .text.uECC_sign
                0x0000000000000000       0x5c ../../external/micro-ecc/libuECC_nrf52832_xxAA.a(uECC.c.obj)
 .text.uECC_sign_deterministic
                0x0000000000000000      0x414 ../../external/micro-ecc/libuECC_nrf52832_xxAA.a(uECC.c.obj)
 .text.uECC_verify
                0x0000000000000000      0x960 ../../external/micro-ecc/libuECC_nrf52832_xxAA.a(uECC.c.obj)
 .text          0x0000000000000000       0xa0 /usr/bin/../lib/gcc/arm-none-eabi/7.2.1/thumb/v7e-m/fpv4-sp/hard/libgcc.a(_aeabi_ldivmod.o)
 .data          0x0000000000000000        0x0 /usr/bin/../lib/gcc/arm-none-eabi/7.2.1/thumb/v7e-m/fpv4-sp/hard/libgcc.a(_aeabi_ldivmod.o)
 .bss           0x0000000000000000        0x0 /usr/bin/../lib/gcc/arm-none-eabi/7.2.1/thumb/v7e-m/fpv4-sp/hard/libgcc.a(_aeabi_ldivmod.o)
 .debug_frame   0x0000000000000000       0x44 /usr/bin/../lib/gcc/arm-none-eabi/7.2.1/thumb/v7e-m/fpv4-sp/hard/libgcc.a(_aeabi_ldivmod.o)
 .ARM.attributes
                0x0000000000000000       0x22 /usr/bin/../lib/gcc/arm-none-eabi/7.2.1/thumb/v7e-m/fpv4-sp/hard/libgcc.a(_aeabi_ldivmod.o)
 .data          0x0000000000000000        0x0 /usr/bin/../lib/gcc/arm-none-eabi/7.2.1/thumb/v7e-m/fpv4-sp/hard/libgcc.a(_aeabi_uldivmod.o)
 .bss           0x0000000000000000        0x0 /usr/bin/../lib/gcc/arm-none-eabi/7.2.1/thumb/v7e-m/fpv4-sp/hard/libgcc.a(_aeabi_uldivmod.o)
 .data          0x0000000000000000        0x0 /usr/bin/../lib/gcc/arm-none-eabi/7.2.1/thumb/v7e-m/fpv4-sp/hard/libgcc.a(_udivmoddi4.o)
 .bss           0x0000000000000000        0x0 /usr/bin/../lib/gcc/arm-none-eabi/7.2.1/thumb/v7e-m/fpv4-sp/hard/libgcc.a(_udivmoddi4.o)
 .ARM.extab     0x0000000000000000        0x0 /usr/bin/../lib/gcc/arm-none-eabi/7.2.1/thumb/v7e-m/fpv4-sp/hard/libgcc.a(_udivmoddi4.o)
 .data          0x0000000000000000        0x0 /usr/bin/../lib/gcc/arm-none-eabi/7.2.1/thumb/v7e-m/fpv4-sp/hard/libgcc.a(_dvmd_tls.o)
 .bss           0x0000000000000000        0x0 /usr/bin/../lib/gcc/arm-none-eabi/7.2.1/thumb/v7e-m/fpv4-sp/hard/libgcc.a(_dvmd_tls.o)
 .text          0x0000000000000000        0x0 /usr/bin/../lib/gcc/arm-none-eabi/7.2.1/../../../../arm-none-eabi/lib/thumb/v7e-m/fpv4-sp/hard/libg_nano.a(lib_a-exit.o)
 .data          0x0000000000000000        0x0 /usr/bin/../lib/gcc/arm-none-eabi/7.2.1/../../../../arm-none-eabi/lib/thumb/v7e-m/fpv4-sp/hard/libg_nano.a(lib_a-exit.o)
 .bss           0x0000000000000000        0x0 /usr/bin/../lib/gcc/arm-none-eabi/7.2.1/../../../../arm-none-eabi/lib/thumb/v7e-m/fpv4-sp/hard/libg_nano.a(lib_a-exit.o)
 .text          0x0000000000000000        0x0 /usr/bin/../lib/gcc/arm-none-eabi/7.2.1/../../../../arm-none-eabi/lib/thumb/v7e-m/fpv4-sp/hard/libg_nano.a(lib_a-impure.o)
 .data          0x0000000000000000        0x0 /usr/bin/../lib/gcc/arm-none-eabi/7.2.1/../../../../arm-none-eabi/lib/thumb/v7e-m/fpv4-sp/hard/libg_nano.a(lib_a-impure.o)
 .bss           0x0000000000000000        0x0 /usr/bin/../lib/gcc/arm-none-eabi/7.2.1/../../../../arm-none-eabi/lib/thumb/v7e-m/fpv4-sp/hard/libg_nano.a(lib_a-impure.o)
 .text          0x0000000000000000        0x0 /usr/bin/../lib/gcc/arm-none-eabi/7.2.1/../../../../arm-none-eabi/lib/thumb/v7e-m/fpv4-sp/hard/libg_nano.a(lib_a-init.o)
 .data          0x0000000000000000        0x0 /usr/bin/../lib/gcc/arm-none-eabi/7.2.1/../../../../arm-none-eabi/lib/thumb/v7e-m/fpv4-sp/hard/libg_nano.a(lib_a-init.o)
 .bss           0x0000000000000000        0x0 /usr/bin/../lib/gcc/arm-none-eabi/7.2.1/../../../../arm-none-eabi/lib/thumb/v7e-m/fpv4-sp/hard/libg_nano.a(lib_a-init.o)
 .text          0x0000000000000000        0x0 /usr/bin/../lib/gcc/arm-none-eabi/7.2.1/../../../../arm-none-eabi/lib/thumb/v7e-m/fpv4-sp/hard/libg_nano.a(lib_a-malloc.o)
 .data          0x0000000000000000        0x0 /usr/bin/../lib/gcc/arm-none-eabi/7.2.1/../../../../arm-none-eabi/lib/thumb/v7e-m/fpv4-sp/hard/libg_nano.a(lib_a-malloc.o)
 .bss           0x0000000000000000        0x0 /usr/bin/../lib/gcc/arm-none-eabi/7.2.1/../../../../arm-none-eabi/lib/thumb/v7e-m/fpv4-sp/hard/libg_nano.a(lib_a-malloc.o)
 .text          0x0000000000000000        0x0 /usr/bin/../lib/gcc/arm-none-eabi/7.2.1/../../../../arm-none-eabi/lib/thumb/v7e-m/fpv4-sp/hard/libg_nano.a(lib_a-memcmp.o)
 .data          0x0000000000000000        0x0 /usr/bin/../lib/gcc/arm-none-eabi/7.2.1/../../../../arm-none-eabi/lib/thumb/v7e-m/fpv4-sp/hard/libg_nano.a(lib_a-memcmp.o)
 .bss           0x0000000000000000        0x0 /usr/bin/../lib/gcc/arm-none-eabi/7.2.1/../../../../arm-none-eabi/lib/thumb/v7e-m/fpv4-sp/hard/libg_nano.a(lib_a-memcmp.o)
 .text          0x0000000000000000        0x0 /usr/bin/../lib/gcc/arm-none-eabi/7.2.1/../../../../arm-none-eabi/lib/thumb/v7e-m/fpv4-sp/hard/libg_nano.a(lib_a-memcpy-stub.o)
 .data          0x0000000000000000        0x0 /usr/bin/../lib/gcc/arm-none-eabi/7.2.1/../../../../arm-none-eabi/lib/thumb/v7e-m/fpv4-sp/hard/libg_nano.a(lib_a-memcpy-stub.o)
 .bss           0x0000000000000000        0x0 /usr/bin/../lib/gcc/arm-none-eabi/7.2.1/../../../../arm-none-eabi/lib/thumb/v7e-m/fpv4-sp/hard/libg_nano.a(lib_a-memcpy-stub.o)
 .text          0x0000000000000000        0x0 /usr/bin/../lib/gcc/arm-none-eabi/7.2.1/../../../../arm-none-eabi/lib/thumb/v7e-m/fpv4-sp/hard/libg_nano.a(lib_a-memset.o)
 .data          0x0000000000000000        0x0 /usr/bin/../lib/gcc/arm-none-eabi/7.2.1/../../../../arm-none-eabi/lib/thumb/v7e-m/fpv4-sp/hard/libg_nano.a(lib_a-memset.o)
 .bss           0x0000000000000000        0x0 /usr/bin/../lib/gcc/arm-none-eabi/7.2.1/../../../../arm-none-eabi/lib/thumb/v7e-m/fpv4-sp/hard/libg_nano.a(lib_a-memset.o)
 .text          0x0000000000000000        0x0 /usr/bin/../lib/gcc/arm-none-eabi/7.2.1/../../../../arm-none-eabi/lib/thumb/v7e-m/fpv4-sp/hard/libg_nano.a(lib_a-nano-freer.o)
 .data          0x0000000000000000        0x0 /usr/bin/../lib/gcc/arm-none-eabi/7.2.1/../../../../arm-none-eabi/lib/thumb/v7e-m/fpv4-sp/hard/libg_nano.a(lib_a-nano-freer.o)
 .bss           0x0000000000000000        0x0 /usr/bin/../lib/gcc/arm-none-eabi/7.2.1/../../../../arm-none-eabi/lib/thumb/v7e-m/fpv4-sp/hard/libg_nano.a(lib_a-nano-freer.o)
 .text          0x0000000000000000        0x0 /usr/bin/../lib/gcc/arm-none-eabi/7.2.1/../../../../arm-none-eabi/lib/thumb/v7e-m/fpv4-sp/hard/libg_nano.a(lib_a-nano-mallocr.o)
 .data          0x0000000000000000        0x0 /usr/bin/../lib/gcc/arm-none-eabi/7.2.1/../../../../arm-none-eabi/lib/thumb/v7e-m/fpv4-sp/hard/libg_nano.a(lib_a-nano-mallocr.o)
 .bss           0x0000000000000000        0x0 /usr/bin/../lib/gcc/arm-none-eabi/7.2.1/../../../../arm-none-eabi/lib/thumb/v7e-m/fpv4-sp/hard/libg_nano.a(lib_a-nano-mallocr.o)
 .text          0x0000000000000000        0x0 /usr/bin/../lib/gcc/arm-none-eabi/7.2.1/../../../../arm-none-eabi/lib/thumb/v7e-m/fpv4-sp/hard/libg_nano.a(lib_a-sbrkr.o)
 .data          0x0000000000000000        0x0 /usr/bin/../lib/gcc/arm-none-eabi/7.2.1/../../../../arm-none-eabi/lib/thumb/v7e-m/fpv4-sp/hard/libg_nano.a(lib_a-sbrkr.o)
 .bss           0x0000000000000000        0x0 /usr/bin/../lib/gcc/arm-none-eabi/7.2.1/../../../../arm-none-eabi/lib/thumb/v7e-m/fpv4-sp/hard/libg_nano.a(lib_a-sbrkr.o)
 .text          0x0000000000000000        0x0 /usr/bin/../lib/gcc/arm-none-eabi/7.2.1/../../../../arm-none-eabi/lib/thumb/v7e-m/fpv4-sp/hard/libg_nano.a(lib_a-strcpy.o)
 .data          0x0000000000000000        0x0 /usr/bin/../lib/gcc/arm-none-eabi/7.2.1/../../../../arm-none-eabi/lib/thumb/v7e-m/fpv4-sp/hard/libg_nano.a(lib_a-strcpy.o)
 .bss           0x0000000000000000        0x0 /usr/bin/../lib/gcc/arm-none-eabi/7.2.1/../../../../arm-none-eabi/lib/thumb/v7e-m/fpv4-sp/hard/libg_nano.a(lib_a-strcpy.o)
 .data          0x0000000000000000        0x0 /usr/bin/../lib/gcc/arm-none-eabi/7.2.1/../../../../arm-none-eabi/lib/thumb/v7e-m/fpv4-sp/hard/libg_nano.a(lib_a-strlen.o)
 .bss           0x0000000000000000        0x0 /usr/bin/../lib/gcc/arm-none-eabi/7.2.1/../../../../arm-none-eabi/lib/thumb/v7e-m/fpv4-sp/hard/libg_nano.a(lib_a-strlen.o)
 .text          0x0000000000000000        0x0 /usr/bin/../lib/gcc/arm-none-eabi/7.2.1/../../../../arm-none-eabi/lib/thumb/v7e-m/fpv4-sp/hard/libg_nano.a(lib_a-strrchr.o)
 .data          0x0000000000000000        0x0 /usr/bin/../lib/gcc/arm-none-eabi/7.2.1/../../../../arm-none-eabi/lib/thumb/v7e-m/fpv4-sp/hard/libg_nano.a(lib_a-strrchr.o)
 .bss           0x0000000000000000        0x0 /usr/bin/../lib/gcc/arm-none-eabi/7.2.1/../../../../arm-none-eabi/lib/thumb/v7e-m/fpv4-sp/hard/libg_nano.a(lib_a-strrchr.o)
 .text          0x0000000000000000        0x0 /usr/bin/../lib/gcc/arm-none-eabi/7.2.1/../../../../arm-none-eabi/lib/thumb/v7e-m/fpv4-sp/hard/libg_nano.a(lib_a-mlock.o)
 .data          0x0000000000000000        0x0 /usr/bin/../lib/gcc/arm-none-eabi/7.2.1/../../../../arm-none-eabi/lib/thumb/v7e-m/fpv4-sp/hard/libg_nano.a(lib_a-mlock.o)
 .bss           0x0000000000000000        0x0 /usr/bin/../lib/gcc/arm-none-eabi/7.2.1/../../../../arm-none-eabi/lib/thumb/v7e-m/fpv4-sp/hard/libg_nano.a(lib_a-mlock.o)
 .text          0x0000000000000000        0x0 /usr/bin/../lib/gcc/arm-none-eabi/7.2.1/../../../../arm-none-eabi/lib/thumb/v7e-m/fpv4-sp/hard/libg_nano.a(lib_a-reent.o)
 .data          0x0000000000000000        0x0 /usr/bin/../lib/gcc/arm-none-eabi/7.2.1/../../../../arm-none-eabi/lib/thumb/v7e-m/fpv4-sp/hard/libg_nano.a(lib_a-reent.o)
 .bss           0x0000000000000000        0x0 /usr/bin/../lib/gcc/arm-none-eabi/7.2.1/../../../../arm-none-eabi/lib/thumb/v7e-m/fpv4-sp/hard/libg_nano.a(lib_a-reent.o)
 .text.cleanup_glue
                0x0000000000000000       0x1a /usr/bin/../lib/gcc/arm-none-eabi/7.2.1/../../../../arm-none-eabi/lib/thumb/v7e-m/fpv4-sp/hard/libg_nano.a(lib_a-reent.o)
 .text._reclaim_reent
                0x0000000000000000       0xb8 /usr/bin/../lib/gcc/arm-none-eabi/7.2.1/../../../../arm-none-eabi/lib/thumb/v7e-m/fpv4-sp/hard/libg_nano.a(lib_a-reent.o)
 .text          0x0000000000000000        0x0 /usr/bin/../lib/gcc/arm-none-eabi/7.2.1/../../../../arm-none-eabi/lib/thumb/v7e-m/fpv4-sp/hard/libg_nano.a(lib_a-strchr.o)
 .data          0x0000000000000000        0x0 /usr/bin/../lib/gcc/arm-none-eabi/7.2.1/../../../../arm-none-eabi/lib/thumb/v7e-m/fpv4-sp/hard/libg_nano.a(lib_a-strchr.o)
 .bss           0x0000000000000000        0x0 /usr/bin/../lib/gcc/arm-none-eabi/7.2.1/../../../../arm-none-eabi/lib/thumb/v7e-m/fpv4-sp/hard/libg_nano.a(lib_a-strchr.o)
 .text          0x0000000000000000        0x0 /usr/bin/../lib/gcc/arm-none-eabi/7.2.1/thumb/v7e-m/fpv4-sp/hard/crtend.o
 .data          0x0000000000000000        0x0 /usr/bin/../lib/gcc/arm-none-eabi/7.2.1/thumb/v7e-m/fpv4-sp/hard/crtend.o
 .bss           0x0000000000000000        0x0 /usr/bin/../lib/gcc/arm-none-eabi/7.2.1/thumb/v7e-m/fpv4-sp/hard/crtend.o
 .text          0x0000000000000000        0x0 /usr/bin/../lib/gcc/arm-none-eabi/7.2.1/thumb/v7e-m/fpv4-sp/hard/crtn.o
 .data          0x0000000000000000        0x0 /usr/bin/../lib/gcc/arm-none-eabi/7.2.1/thumb/v7e-m/fpv4-sp/hard/crtn.o
 .bss           0x0000000000000000        0x0 /usr/bin/../lib/gcc/arm-none-eabi/7.2.1/thumb/v7e-m/fpv4-sp/hard/crtn.o
 .text          0x0000000000000000        0x0 /usr/bin/../lib/gcc/arm-none-eabi/7.2.1/../../../../arm-none-eabi/lib/thumb/v7e-m/fpv4-sp/hard/libnosys.a(sbrk.o)
 .data          0x0000000000000000        0x0 /usr/bin/../lib/gcc/arm-none-eabi/7.2.1/../../../../arm-none-eabi/lib/thumb/v7e-m/fpv4-sp/hard/libnosys.a(sbrk.o)
 .bss           0x0000000000000000        0x0 /usr/bin/../lib/gcc/arm-none-eabi/7.2.1/../../../../arm-none-eabi/lib/thumb/v7e-m/fpv4-sp/hard/libnosys.a(sbrk.o)
 .text          0x0000000000000000        0x0 /usr/bin/../lib/gcc/arm-none-eabi/7.2.1/../../../../arm-none-eabi/lib/thumb/v7e-m/fpv4-sp/hard/libnosys.a(_exit.o)
 .data          0x0000000000000000        0x0 /usr/bin/../lib/gcc/arm-none-eabi/7.2.1/../../../../arm-none-eabi/lib/thumb/v7e-m/fpv4-sp/hard/libnosys.a(_exit.o)
 .bss           0x0000000000000000        0x0 /usr/bin/../lib/gcc/arm-none-eabi/7.2.1/../../../../arm-none-eabi/lib/thumb/v7e-m/fpv4-sp/hard/libnosys.a(_exit.o)

Memory Configuration

Name             Origin             Length             Attributes
FLASH            0x0000000000026000 0x0000000000051000 xr
RAM              0x00000000200032c8 0x000000000000ca38 xrw
*default*        0x0000000000000000 0xffffffffffffffff

Linker script and memory map


.text           0x0000000000026000    0x20a78
 *(.isr_vector)
 .isr_vector    0x0000000000026000      0x200 CMakeFiles/enocean_switch_nrf52832_xxAA_s132_6.0.0.dir/home/mazzer/work/nordic/sdk/nRF5_SDK_15.0.0/modules/nrfx/mdk/gcc_startup_nrf52.S.obj
                0x0000000000026000                __isr_vector
 *(.text*)
 .text          0x0000000000026200       0x40 /usr/bin/../lib/gcc/arm-none-eabi/7.2.1/thumb/v7e-m/fpv4-sp/hard/crtbegin.o
 .text          0x0000000000026240       0x74 /usr/bin/../lib/gcc/arm-none-eabi/7.2.1/../../../../arm-none-eabi/lib/thumb/v7e-m/fpv4-sp/hard/crt0.o
                0x0000000000026240                _mainCRTStartup
                0x0000000000026240                _start
 .text.sd_app_evt_wait
                0x00000000000262b4        0x4 CMakeFiles/enocean_switch_nrf52832_xxAA_s132_6.0.0.dir/src/main.c.obj
 .text.provisioning_complete_cb
                0x00000000000262b8       0xe8 CMakeFiles/enocean_switch_nrf52832_xxAA_s132_6.0.0.dir/src/main.c.obj
 .text.app_data_store_try
                0x00000000000263a0      0x130 CMakeFiles/enocean_switch_nrf52832_xxAA_s132_6.0.0.dir/src/main.c.obj
 .text.button_event_handler
                0x00000000000264d0      0x104 CMakeFiles/enocean_switch_nrf52832_xxAA_s132_6.0.0.dir/src/main.c.obj
 .text.app_enocean_cb
                0x00000000000265d4      0x3f8 CMakeFiles/enocean_switch_nrf52832_xxAA_s132_6.0.0.dir/src/main.c.obj
 .text.rx_callback
                0x00000000000269cc        0x4 CMakeFiles/enocean_switch_nrf52832_xxAA_s132_6.0.0.dir/src/main.c.obj
 .text.models_init_cb
                0x00000000000269d0       0xb4 CMakeFiles/enocean_switch_nrf52832_xxAA_s132_6.0.0.dir/src/main.c.obj
 .text.client_status_cb
                0x0000000000026a84       0xd0 CMakeFiles/enocean_switch_nrf52832_xxAA_s132_6.0.0.dir/src/main.c.obj
 .text.app_mesh_core_event_cb
                0x0000000000026b54      0x188 CMakeFiles/enocean_switch_nrf52832_xxAA_s132_6.0.0.dir/src/main.c.obj
 .text.config_server_evt_cb
                0x0000000000026cdc       0x8c CMakeFiles/enocean_switch_nrf52832_xxAA_s132_6.0.0.dir/src/main.c.obj
 .text.app_rtt_input_handler
                0x0000000000026d68      0x108 CMakeFiles/enocean_switch_nrf52832_xxAA_s132_6.0.0.dir/src/main.c.obj
 .text.startup.main
                0x0000000000026e70      0x3ec CMakeFiles/enocean_switch_nrf52832_xxAA_s132_6.0.0.dir/src/main.c.obj
                0x0000000000026e70                main
 .text.enocean_packet_process
                0x000000000002725c      0x440 CMakeFiles/enocean_switch_nrf52832_xxAA_s132_6.0.0.dir/src/enocean.c.obj
                0x000000000002725c                enocean_packet_process
 .text.enocean_secmat_add
                0x000000000002769c       0x2c CMakeFiles/enocean_switch_nrf52832_xxAA_s132_6.0.0.dir/src/enocean.c.obj
                0x000000000002769c                enocean_secmat_add
 .text.enocean_translator_init
                0x00000000000276c8       0x1c CMakeFiles/enocean_switch_nrf52832_xxAA_s132_6.0.0.dir/src/enocean.c.obj
                0x00000000000276c8                enocean_translator_init
 .text.flash_manager_mem_available
                0x00000000000276e4       0x80 CMakeFiles/enocean_switch_nrf52832_xxAA_s132_6.0.0.dir/src/flash_helper.c.obj
 .text.flash_invalidate_complete
                0x0000000000027764       0x10 CMakeFiles/enocean_switch_nrf52832_xxAA_s132_6.0.0.dir/src/flash_helper.c.obj
 .text.flash_write_complete
                0x0000000000027774       0x98 CMakeFiles/enocean_switch_nrf52832_xxAA_s132_6.0.0.dir/src/flash_helper.c.obj
 .text.flash_reset
                0x000000000002780c       0x8c CMakeFiles/enocean_switch_nrf52832_xxAA_s132_6.0.0.dir/src/flash_helper.c.obj
 .text.app_flash_init
                0x0000000000027898       0xb8 CMakeFiles/enocean_switch_nrf52832_xxAA_s132_6.0.0.dir/src/flash_helper.c.obj
                0x0000000000027898                app_flash_init
 .text.flash_remove_complete
                0x0000000000027950       0x70 CMakeFiles/enocean_switch_nrf52832_xxAA_s132_6.0.0.dir/src/flash_helper.c.obj
 .text.app_flash_data_load
                0x00000000000279c0       0x44 CMakeFiles/enocean_switch_nrf52832_xxAA_s132_6.0.0.dir/src/flash_helper.c.obj
                0x00000000000279c0                app_flash_data_load
 .text.app_flash_data_store
                0x0000000000027a04       0xb4 CMakeFiles/enocean_switch_nrf52832_xxAA_s132_6.0.0.dir/src/flash_helper.c.obj
                0x0000000000027a04                app_flash_data_store
 .text.app_flash_clear
                0x0000000000027ab8       0x94 CMakeFiles/enocean_switch_nrf52832_xxAA_s132_6.0.0.dir/src/flash_helper.c.obj
                0x0000000000027ab8                app_flash_clear
 .text.mesh_evt_handler
                0x0000000000027b4c       0x10 CMakeFiles/enocean_switch_nrf52832_xxAA_s132_6.0.0.dir/__/__/mesh/stack/src/mesh_stack.c.obj
 .text.mesh_stack_init
                0x0000000000027b5c       0x90 CMakeFiles/enocean_switch_nrf52832_xxAA_s132_6.0.0.dir/__/__/mesh/stack/src/mesh_stack.c.obj
                0x0000000000027b5c                mesh_stack_init
 .text.mesh_stack_start
                0x0000000000027bec        0x4 CMakeFiles/enocean_switch_nrf52832_xxAA_s132_6.0.0.dir/__/__/mesh/stack/src/mesh_stack.c.obj
                0x0000000000027bec                mesh_stack_start
 .text.mesh_stack_provisioning_data_store
                0x0000000000027bf0       0x78 CMakeFiles/enocean_switch_nrf52832_xxAA_s132_6.0.0.dir/__/__/mesh/stack/src/mesh_stack.c.obj
                0x0000000000027bf0                mesh_stack_provisioning_data_store
 .text.mesh_stack_config_clear
                0x0000000000027c68       0x14 CMakeFiles/enocean_switch_nrf52832_xxAA_s132_6.0.0.dir/__/__/mesh/stack/src/mesh_stack.c.obj
                0x0000000000027c68                mesh_stack_config_clear
 .text.mesh_stack_device_reset
                0x0000000000027c7c       0x20 CMakeFiles/enocean_switch_nrf52832_xxAA_s132_6.0.0.dir/__/__/mesh/stack/src/mesh_stack.c.obj
                0x0000000000027c7c                mesh_stack_device_reset
 .text.sd_evt_get
                0x0000000000027c9c        0x4 CMakeFiles/enocean_switch_nrf52832_xxAA_s132_6.0.0.dir/__/common/src/mesh_softdevice_init.c.obj
 .text.sd_softdevice_enable
                0x0000000000027ca0        0x4 CMakeFiles/enocean_switch_nrf52832_xxAA_s132_6.0.0.dir/__/common/src/mesh_softdevice_init.c.obj
 .text.sd_ble_enable
                0x0000000000027ca4        0x4 CMakeFiles/enocean_switch_nrf52832_xxAA_s132_6.0.0.dir/__/common/src/mesh_softdevice_init.c.obj
 .text.SWI2_EGU2_IRQHandler
                0x0000000000027ca8       0x1c CMakeFiles/enocean_switch_nrf52832_xxAA_s132_6.0.0.dir/__/common/src/mesh_softdevice_init.c.obj
                0x0000000000027ca8                SWI2_EGU2_IRQHandler
 .text.mesh_softdevice_init
                0x0000000000027cc4      0x1f8 CMakeFiles/enocean_switch_nrf52832_xxAA_s132_6.0.0.dir/__/common/src/mesh_softdevice_init.c.obj
                0x0000000000027cc4                mesh_softdevice_init
 .text.prov_evt_handler
                0x0000000000027ebc       0x70 CMakeFiles/enocean_switch_nrf52832_xxAA_s132_6.0.0.dir/__/common/src/mesh_provisionee.c.obj
 .text.mesh_provisionee_prov_start
                0x0000000000027f2c       0x88 CMakeFiles/enocean_switch_nrf52832_xxAA_s132_6.0.0.dir/__/common/src/mesh_provisionee.c.obj
                0x0000000000027f2c                mesh_provisionee_prov_start
 .text.TIMER2_IRQHandler
                0x0000000000027fb4       0x3c CMakeFiles/enocean_switch_nrf52832_xxAA_s132_6.0.0.dir/__/common/src/rtt_input.c.obj
                0x0000000000027fb4                TIMER2_IRQHandler
 .text.rtt_input_enable
                0x0000000000027ff0       0x5c CMakeFiles/enocean_switch_nrf52832_xxAA_s132_6.0.0.dir/__/common/src/rtt_input.c.obj
                0x0000000000027ff0                rtt_input_enable
 .text.hal_led_pin_set
                0x000000000002804c       0x18 CMakeFiles/enocean_switch_nrf52832_xxAA_s132_6.0.0.dir/__/common/src/simple_hal.c.obj
                0x000000000002804c                hal_led_pin_set
 .text.hal_led_mask_set
                0x0000000000028064       0x14 CMakeFiles/enocean_switch_nrf52832_xxAA_s132_6.0.0.dir/__/common/src/simple_hal.c.obj
                0x0000000000028064                hal_led_mask_set
 .text.hal_led_blink_ms
                0x0000000000028078       0x50 CMakeFiles/enocean_switch_nrf52832_xxAA_s132_6.0.0.dir/__/common/src/simple_hal.c.obj
                0x0000000000028078                hal_led_blink_ms
 .text.hal_leds_init
                0x00000000000280c8       0x3c CMakeFiles/enocean_switch_nrf52832_xxAA_s132_6.0.0.dir/__/common/src/simple_hal.c.obj
                0x00000000000280c8                hal_leds_init
 .text.hal_buttons_init
                0x0000000000028104       0x54 CMakeFiles/enocean_switch_nrf52832_xxAA_s132_6.0.0.dir/__/common/src/simple_hal.c.obj
                0x0000000000028104                hal_buttons_init
 .text.GPIOTE_IRQHandler
                0x0000000000028158       0x70 CMakeFiles/enocean_switch_nrf52832_xxAA_s132_6.0.0.dir/__/common/src/simple_hal.c.obj
                0x0000000000028158                GPIOTE_IRQHandler
 .text._weak_handler
                0x00000000000281c8        0x4 CMakeFiles/enocean_switch_nrf52832_xxAA_s132_6.0.0.dir/__/nrf_mesh_weak.c.obj
                0x00000000000281c8                nrf_mesh_dfu_init
                0x00000000000281c8                nrf_mesh_dfu_jump_to_bootloader
                0x00000000000281c8                nrf_mesh_dfu_rx
                0x00000000000281c8                prov_provisioner_provision
                0x00000000000281c8                nrf_mesh_dfu_bank_info_get
                0x00000000000281c8                prov_provisioner_oob_pubkey
                0x00000000000281c8                nrf_mesh_dfu_request
                0x00000000000281c8                nrf_mesh_dfu_bank_flash
                0x00000000000281c8                _weak_handler
                0x00000000000281c8                nrf_mesh_dfu_relay
                0x00000000000281c8                nrf_mesh_dfu_abort
                0x00000000000281c8                mesh_flash_op_execute
                0x00000000000281c8                prov_provisionee_init
                0x00000000000281c8                nrf_mesh_dfu_state_get
                0x00000000000281c8                prov_provisioner_shared_secret
                0x00000000000281c8                prov_provisioner_auth_data
                0x00000000000281c8                prov_provisioner_oob_use
 .text.app_error_fault_handler
                0x00000000000281cc      0x238 CMakeFiles/enocean_switch_nrf52832_xxAA_s132_6.0.0.dir/__/common/src/app_error_weak.c.obj
                0x00000000000281cc                app_error_fault_handler
 .text.mesh_assertion_handler
                0x0000000000028404       0x24 CMakeFiles/enocean_switch_nrf52832_xxAA_s132_6.0.0.dir/__/common/src/assertion_handler_weak.c.obj
                0x0000000000028404                mesh_assertion_handler
 .text.nrf_mesh_configure_device_uuid_set
                0x0000000000028428       0x10 CMakeFiles/enocean_switch_nrf52832_xxAA_s132_6.0.0.dir/__/__/mesh/core/src/nrf_mesh_configure.c.obj
                0x0000000000028428                nrf_mesh_configure_device_uuid_set
 .text.nrf_mesh_configure_device_uuid_reset
                0x0000000000028438       0x2c CMakeFiles/enocean_switch_nrf52832_xxAA_s132_6.0.0.dir/__/__/mesh/core/src/nrf_mesh_configure.c.obj
                0x0000000000028438                nrf_mesh_configure_device_uuid_reset
 .text.nrf_mesh_configure_device_uuid_get
                0x0000000000028464        0x8 CMakeFiles/enocean_switch_nrf52832_xxAA_s132_6.0.0.dir/__/__/mesh/core/src/nrf_mesh_configure.c.obj
                0x0000000000028464                nrf_mesh_configure_device_uuid_get
 .text.sd_ecb_block_encrypt
                0x000000000002846c        0x4 CMakeFiles/enocean_switch_nrf52832_xxAA_s132_6.0.0.dir/__/__/mesh/core/src/aes.c.obj
 .text.aes_encrypt
                0x0000000000028470       0x34 CMakeFiles/enocean_switch_nrf52832_xxAA_s132_6.0.0.dir/__/__/mesh/core/src/aes.c.obj
                0x0000000000028470                aes_encrypt
 .text.msg_cache_init
                0x00000000000284a4       0x24 CMakeFiles/enocean_switch_nrf52832_xxAA_s132_6.0.0.dir/__/__/mesh/core/src/msg_cache.c.obj
                0x00000000000284a4                msg_cache_init
 .text.msg_cache_entry_exists
                0x00000000000284c8       0x40 CMakeFiles/enocean_switch_nrf52832_xxAA_s132_6.0.0.dir/__/__/mesh/core/src/msg_cache.c.obj
                0x00000000000284c8                msg_cache_entry_exists
 .text.msg_cache_entry_add
                0x0000000000028508       0x2c CMakeFiles/enocean_switch_nrf52832_xxAA_s132_6.0.0.dir/__/__/mesh/core/src/msg_cache.c.obj
                0x0000000000028508                msg_cache_entry_add
 .text.tx_complete
                0x0000000000028534       0x30 CMakeFiles/enocean_switch_nrf52832_xxAA_s132_6.0.0.dir/__/__/mesh/core/src/transport.c.obj
 .text.upper_trs_packet_encrypt
                0x0000000000028564       0xa8 CMakeFiles/enocean_switch_nrf52832_xxAA_s132_6.0.0.dir/__/__/mesh/core/src/transport.c.obj
 .text.trs_sar_packet_out
                0x000000000002860c      0x19c CMakeFiles/enocean_switch_nrf52832_xxAA_s132_6.0.0.dir/__/__/mesh/core/src/transport.c.obj
 .text.upper_transport_access_packet_in
                0x00000000000287a8      0x33c CMakeFiles/enocean_switch_nrf52832_xxAA_s132_6.0.0.dir/__/__/mesh/core/src/transport.c.obj
 .text.sar_ctx_cancel
                0x0000000000028ae4      0x148 CMakeFiles/enocean_switch_nrf52832_xxAA_s132_6.0.0.dir/__/__/mesh/core/src/transport.c.obj
 .text.retry_timeout
                0x0000000000028c2c       0x98 CMakeFiles/enocean_switch_nrf52832_xxAA_s132_6.0.0.dir/__/__/mesh/core/src/transport.c.obj
 .text.upper_transport_packet_in
                0x0000000000028cc4      0x2a4 CMakeFiles/enocean_switch_nrf52832_xxAA_s132_6.0.0.dir/__/__/mesh/core/src/transport.c.obj
 .text.upper_transport_tx.part.27
                0x0000000000028f68      0x370 CMakeFiles/enocean_switch_nrf52832_xxAA_s132_6.0.0.dir/__/__/mesh/core/src/transport.c.obj
 .text.sar_ack_send.part.31
                0x00000000000292d8       0xd4 CMakeFiles/enocean_switch_nrf52832_xxAA_s132_6.0.0.dir/__/__/mesh/core/src/transport.c.obj
 .text.transport_sar_process
                0x00000000000293ac      0x274 CMakeFiles/enocean_switch_nrf52832_xxAA_s132_6.0.0.dir/__/__/mesh/core/src/transport.c.obj
 .text.abort_timeout
                0x0000000000029620      0x138 CMakeFiles/enocean_switch_nrf52832_xxAA_s132_6.0.0.dir/__/__/mesh/core/src/transport.c.obj
 .text.ack_timeout
                0x0000000000029758       0xf8 CMakeFiles/enocean_switch_nrf52832_xxAA_s132_6.0.0.dir/__/__/mesh/core/src/transport.c.obj
 .text.transport_init
                0x0000000000029850       0xac CMakeFiles/enocean_switch_nrf52832_xxAA_s132_6.0.0.dir/__/__/mesh/core/src/transport.c.obj
                0x0000000000029850                transport_init
 .text.transport_packet_in
                0x00000000000298fc      0x778 CMakeFiles/enocean_switch_nrf52832_xxAA_s132_6.0.0.dir/__/__/mesh/core/src/transport.c.obj
                0x00000000000298fc                transport_packet_in
 .text.transport_tx
                0x000000000002a074       0xec CMakeFiles/enocean_switch_nrf52832_xxAA_s132_6.0.0.dir/__/__/mesh/core/src/transport.c.obj
                0x000000000002a074                transport_tx
 .text.transport_control_tx
                0x000000000002a160       0xc4 CMakeFiles/enocean_switch_nrf52832_xxAA_s132_6.0.0.dir/__/__/mesh/core/src/transport.c.obj
                0x000000000002a160                transport_control_tx
 .text.transport_opt_set
                0x000000000002a224       0xdc CMakeFiles/enocean_switch_nrf52832_xxAA_s132_6.0.0.dir/__/__/mesh/core/src/transport.c.obj
                0x000000000002a224                transport_opt_set
 .text.transport_opt_get
                0x000000000002a300       0x84 CMakeFiles/enocean_switch_nrf52832_xxAA_s132_6.0.0.dir/__/__/mesh/core/src/transport.c.obj
                0x000000000002a300                transport_opt_get
 .text.transport_control_packet_consumer_add
                0x000000000002a384       0x68 CMakeFiles/enocean_switch_nrf52832_xxAA_s132_6.0.0.dir/__/__/mesh/core/src/transport.c.obj
                0x000000000002a384                transport_control_packet_consumer_add
 .text.event_handle
                0x000000000002a3ec       0x28 CMakeFiles/enocean_switch_nrf52832_xxAA_s132_6.0.0.dir/__/__/mesh/core/src/event.c.obj
                0x000000000002a3ec                event_handle
 .text.event_handler_add
                0x000000000002a414       0x28 CMakeFiles/enocean_switch_nrf52832_xxAA_s132_6.0.0.dir/__/__/mesh/core/src/event.c.obj
                0x000000000002a414                event_handler_add
 .text.event_handler_remove
                0x000000000002a43c       0x28 CMakeFiles/enocean_switch_nrf52832_xxAA_s132_6.0.0.dir/__/__/mesh/core/src/event.c.obj
                0x000000000002a43c                event_handler_remove
 .text.packet_buffer_init
                0x000000000002a464       0xb4 CMakeFiles/enocean_switch_nrf52832_xxAA_s132_6.0.0.dir/__/__/mesh/core/src/packet_buffer.c.obj
                0x000000000002a464                packet_buffer_init
 .text.packet_buffer_flush
                0x000000000002a518       0x6c CMakeFiles/enocean_switch_nrf52832_xxAA_s132_6.0.0.dir/__/__/mesh/core/src/packet_buffer.c.obj
                0x000000000002a518                packet_buffer_flush
 .text.packet_buffer_reserve
                0x000000000002a584       0xa4 CMakeFiles/enocean_switch_nrf52832_xxAA_s132_6.0.0.dir/__/__/mesh/core/src/packet_buffer.c.obj
                0x000000000002a584                packet_buffer_reserve
 .text.packet_buffer_commit
                0x000000000002a628       0x7c CMakeFiles/enocean_switch_nrf52832_xxAA_s132_6.0.0.dir/__/__/mesh/core/src/packet_buffer.c.obj
                0x000000000002a628                packet_buffer_commit
 .text.packet_buffer_pop
                0x000000000002a6a4       0x44 CMakeFiles/enocean_switch_nrf52832_xxAA_s132_6.0.0.dir/__/__/mesh/core/src/packet_buffer.c.obj
                0x000000000002a6a4                packet_buffer_pop
 .text.packet_buffer_can_pop
                0x000000000002a6e8       0x24 CMakeFiles/enocean_switch_nrf52832_xxAA_s132_6.0.0.dir/__/__/mesh/core/src/packet_buffer.c.obj
                0x000000000002a6e8                packet_buffer_can_pop
 .text.packet_buffer_packets_ready_to_pop
                0x000000000002a70c       0x5c CMakeFiles/enocean_switch_nrf52832_xxAA_s132_6.0.0.dir/__/__/mesh/core/src/packet_buffer.c.obj
                0x000000000002a70c                packet_buffer_packets_ready_to_pop
 .text.packet_buffer_free
                0x000000000002a768       0x8c CMakeFiles/enocean_switch_nrf52832_xxAA_s132_6.0.0.dir/__/__/mesh/core/src/packet_buffer.c.obj
                0x000000000002a768                packet_buffer_free
 .text.erase_source
                0x000000000002a7f4       0x34 CMakeFiles/enocean_switch_nrf52832_xxAA_s132_6.0.0.dir/__/__/mesh/core/src/flash_manager_defrag.c.obj
 .text.erase_recovery_area
                0x000000000002a828       0x34 CMakeFiles/enocean_switch_nrf52832_xxAA_s132_6.0.0.dir/__/__/mesh/core/src/flash_manager_defrag.c.obj
 .text.write_back
                0x000000000002a85c       0x44 CMakeFiles/enocean_switch_nrf52832_xxAA_s132_6.0.0.dir/__/__/mesh/core/src/flash_manager_defrag.c.obj
 .text.write_defrag_start_pointer
                0x000000000002a8a0       0x38 CMakeFiles/enocean_switch_nrf52832_xxAA_s132_6.0.0.dir/__/__/mesh/core/src/flash_manager_defrag.c.obj
 .text.copy_metadata
                0x000000000002a8d8       0x58 CMakeFiles/enocean_switch_nrf52832_xxAA_s132_6.0.0.dir/__/__/mesh/core/src/flash_manager_defrag.c.obj
 .text.seal_storage_page
                0x000000000002a930       0x70 CMakeFiles/enocean_switch_nrf52832_xxAA_s132_6.0.0.dir/__/__/mesh/core/src/flash_manager_defrag.c.obj
 .text.post_process
                0x000000000002a9a0       0x64 CMakeFiles/enocean_switch_nrf52832_xxAA_s132_6.0.0.dir/__/__/mesh/core/src/flash_manager_defrag.c.obj
 .text.check_for_invalid_entries
                0x000000000002aa04       0x40 CMakeFiles/enocean_switch_nrf52832_xxAA_s132_6.0.0.dir/__/__/mesh/core/src/flash_manager_defrag.c.obj
 .text.execute_procedure_step
                0x000000000002aa44       0x98 CMakeFiles/enocean_switch_nrf52832_xxAA_s132_6.0.0.dir/__/__/mesh/core/src/flash_manager_defrag.c.obj
 .text.on_flash_op_end
                0x000000000002aadc       0x48 CMakeFiles/enocean_switch_nrf52832_xxAA_s132_6.0.0.dir/__/__/mesh/core/src/flash_manager_defrag.c.obj
 .text.invalidate_duplicate_entries
                0x000000000002ab24      0x150 CMakeFiles/enocean_switch_nrf52832_xxAA_s132_6.0.0.dir/__/__/mesh/core/src/flash_manager_defrag.c.obj
 .text.backup_entries
                0x000000000002ac74      0x1c8 CMakeFiles/enocean_switch_nrf52832_xxAA_s132_6.0.0.dir/__/__/mesh/core/src/flash_manager_defrag.c.obj
 .text.flash_manager_defrag_init
                0x000000000002ae3c       0x6c CMakeFiles/enocean_switch_nrf52832_xxAA_s132_6.0.0.dir/__/__/mesh/core/src/flash_manager_defrag.c.obj
                0x000000000002ae3c                flash_manager_defrag_init
 .text.flash_manager_defrag_is_running
                0x000000000002aea8       0x10 CMakeFiles/enocean_switch_nrf52832_xxAA_s132_6.0.0.dir/__/__/mesh/core/src/flash_manager_defrag.c.obj
                0x000000000002aea8                flash_manager_defrag_is_running
 .text.flash_manager_defrag
                0x000000000002aeb8       0x48 CMakeFiles/enocean_switch_nrf52832_xxAA_s132_6.0.0.dir/__/__/mesh/core/src/flash_manager_defrag.c.obj
                0x000000000002aeb8                flash_manager_defrag
 .text.flash_manager_defrag_recovery_page_get
                0x000000000002af00        0xc CMakeFiles/enocean_switch_nrf52832_xxAA_s132_6.0.0.dir/__/__/mesh/core/src/flash_manager_defrag.c.obj
                0x000000000002af00                flash_manager_defrag_recovery_page_get
 .text.fifo_init
                0x000000000002af0c       0x38 CMakeFiles/enocean_switch_nrf52832_xxAA_s132_6.0.0.dir/__/__/mesh/core/src/fifo.c.obj
                0x000000000002af0c                fifo_init
 .text.fifo_push
                0x000000000002af44       0x60 CMakeFiles/enocean_switch_nrf52832_xxAA_s132_6.0.0.dir/__/__/mesh/core/src/fifo.c.obj
                0x000000000002af44                fifo_push
 .text.fifo_pop
                0x000000000002afa4       0x5c CMakeFiles/enocean_switch_nrf52832_xxAA_s132_6.0.0.dir/__/__/mesh/core/src/fifo.c.obj
                0x000000000002afa4                fifo_pop
 .text.nrf_flash_erase
                0x000000000002b000       0x5c CMakeFiles/enocean_switch_nrf52832_xxAA_s132_6.0.0.dir/__/__/mesh/core/src/nrf_flash.c.obj
                0x000000000002b000                nrf_flash_erase
 .text.nrf_flash_write
                0x000000000002b05c       0x70 CMakeFiles/enocean_switch_nrf52832_xxAA_s132_6.0.0.dir/__/__/mesh/core/src/nrf_flash.c.obj
                0x000000000002b05c                nrf_flash_write
 .text.packet_mgr_init
                0x000000000002b0cc       0x48 CMakeFiles/enocean_switch_nrf52832_xxAA_s132_6.0.0.dir/__/__/mesh/core/src/packet_mgr.c.obj
                0x000000000002b0cc                packet_mgr_init
 .text.flash_store_iv_index
                0x000000000002b114       0x38 CMakeFiles/enocean_switch_nrf52832_xxAA_s132_6.0.0.dir/__/__/mesh/core/src/net_state.c.obj
 .text.flash_mem_available
                0x000000000002b14c       0x1c CMakeFiles/enocean_switch_nrf52832_xxAA_s132_6.0.0.dir/__/__/mesh/core/src/net_state.c.obj
 .text.init_flash_storage
                0x000000000002b168       0x44 CMakeFiles/enocean_switch_nrf52832_xxAA_s132_6.0.0.dir/__/__/mesh/core/src/net_state.c.obj
 .text.flash_write_complete
                0x000000000002b1ac       0x6c CMakeFiles/enocean_switch_nrf52832_xxAA_s132_6.0.0.dir/__/__/mesh/core/src/net_state.c.obj
 .text.seqnum_block_allocate
                0x000000000002b218       0x4c CMakeFiles/enocean_switch_nrf52832_xxAA_s132_6.0.0.dir/__/__/mesh/core/src/net_state.c.obj
 .text.net_state_reset
                0x000000000002b264       0x78 CMakeFiles/enocean_switch_nrf52832_xxAA_s132_6.0.0.dir/__/__/mesh/core/src/net_state.c.obj
                0x000000000002b264                net_state_reset
 .text.iv_update_trigger_if_pending
                0x000000000002b2dc      0x174 CMakeFiles/enocean_switch_nrf52832_xxAA_s132_6.0.0.dir/__/__/mesh/core/src/net_state.c.obj
 .text.iv_update_timer_handler
                0x000000000002b450       0x70 CMakeFiles/enocean_switch_nrf52832_xxAA_s132_6.0.0.dir/__/__/mesh/core/src/net_state.c.obj
 .text.mesh_evt_handler
                0x000000000002b4c0      0x104 CMakeFiles/enocean_switch_nrf52832_xxAA_s132_6.0.0.dir/__/__/mesh/core/src/net_state.c.obj
 .text.net_state_recover_from_flash
                0x000000000002b5c4      0x118 CMakeFiles/enocean_switch_nrf52832_xxAA_s132_6.0.0.dir/__/__/mesh/core/src/net_state.c.obj
                0x000000000002b5c4                net_state_recover_from_flash
 .text.net_state_flash_area_get
                0x000000000002b6dc        0xc CMakeFiles/enocean_switch_nrf52832_xxAA_s132_6.0.0.dir/__/__/mesh/core/src/net_state.c.obj
                0x000000000002b6dc                net_state_flash_area_get
 .text.net_state_init
                0x000000000002b6e8       0x94 CMakeFiles/enocean_switch_nrf52832_xxAA_s132_6.0.0.dir/__/__/mesh/core/src/net_state.c.obj
                0x000000000002b6e8                net_state_init
 .text.net_state_seqnum_alloc
                0x000000000002b77c       0xd0 CMakeFiles/enocean_switch_nrf52832_xxAA_s132_6.0.0.dir/__/__/mesh/core/src/net_state.c.obj
                0x000000000002b77c                net_state_seqnum_alloc
 .text.net_state_iv_index_lock
                0x000000000002b84c      0x188 CMakeFiles/enocean_switch_nrf52832_xxAA_s132_6.0.0.dir/__/__/mesh/core/src/net_state.c.obj
                0x000000000002b84c                net_state_iv_index_lock
 .text.net_state_key_refresh_phase_changed
                0x000000000002b9d4       0x20 CMakeFiles/enocean_switch_nrf52832_xxAA_s132_6.0.0.dir/__/__/mesh/core/src/net_state.c.obj
                0x000000000002b9d4                net_state_key_refresh_phase_changed
 .text.net_state_beacon_iv_index_get
                0x000000000002b9f4        0xc CMakeFiles/enocean_switch_nrf52832_xxAA_s132_6.0.0.dir/__/__/mesh/core/src/net_state.c.obj
                0x000000000002b9f4                net_state_beacon_iv_index_get
 .text.net_state_tx_iv_index_get
                0x000000000002ba00       0x14 CMakeFiles/enocean_switch_nrf52832_xxAA_s132_6.0.0.dir/__/__/mesh/core/src/net_state.c.obj
                0x000000000002ba00                net_state_tx_iv_index_get
 .text.net_state_rx_iv_index_get
                0x000000000002ba14       0x18 CMakeFiles/enocean_switch_nrf52832_xxAA_s132_6.0.0.dir/__/__/mesh/core/src/net_state.c.obj
                0x000000000002ba14                net_state_rx_iv_index_get
 .text.net_state_iv_update_get
                0x000000000002ba2c        0xc CMakeFiles/enocean_switch_nrf52832_xxAA_s132_6.0.0.dir/__/__/mesh/core/src/net_state.c.obj
                0x000000000002ba2c                net_state_iv_update_get
 .text.net_state_iv_index_set
                0x000000000002ba38       0x88 CMakeFiles/enocean_switch_nrf52832_xxAA_s132_6.0.0.dir/__/__/mesh/core/src/net_state.c.obj
                0x000000000002ba38                net_state_iv_index_set
 .text.send_end_events
                0x000000000002bac0       0x98 CMakeFiles/enocean_switch_nrf52832_xxAA_s132_6.0.0.dir/__/__/mesh/core/src/mesh_flash.c.obj
 .text.flash_op_start
                0x000000000002bb58      0x214 CMakeFiles/enocean_switch_nrf52832_xxAA_s132_6.0.0.dir/__/__/mesh/core/src/mesh_flash.c.obj
 .text.mesh_flash_init
                0x000000000002bd6c       0x78 CMakeFiles/enocean_switch_nrf52832_xxAA_s132_6.0.0.dir/__/__/mesh/core/src/mesh_flash.c.obj
                0x000000000002bd6c                mesh_flash_init
 .text.mesh_flash_user_callback_set
                0x000000000002bde4       0x20 CMakeFiles/enocean_switch_nrf52832_xxAA_s132_6.0.0.dir/__/__/mesh/core/src/mesh_flash.c.obj
                0x000000000002bde4                mesh_flash_user_callback_set
 .text.mesh_flash_op_push
                0x000000000002be04      0x198 CMakeFiles/enocean_switch_nrf52832_xxAA_s132_6.0.0.dir/__/__/mesh/core/src/mesh_flash.c.obj
                0x000000000002be04                mesh_flash_op_push
 .text.nrf_mesh_address_type_get
                0x000000000002bf9c       0x10 CMakeFiles/enocean_switch_nrf52832_xxAA_s132_6.0.0.dir/__/__/mesh/core/src/nrf_mesh_utils.c.obj
                0x000000000002bf9c                nrf_mesh_address_type_get
 .text.sd_softdevice_is_enabled
                0x000000000002bfac        0x4 CMakeFiles/enocean_switch_nrf52832_xxAA_s132_6.0.0.dir/__/__/mesh/core/src/nrf_mesh.c.obj
 .text.nrf_mesh_listen
                0x000000000002bfb0      0x184 CMakeFiles/enocean_switch_nrf52832_xxAA_s132_6.0.0.dir/__/__/mesh/core/src/nrf_mesh.c.obj
 .text.flash_stable_cb
                0x000000000002c134       0x20 CMakeFiles/enocean_switch_nrf52832_xxAA_s132_6.0.0.dir/__/__/mesh/core/src/nrf_mesh.c.obj
 .text.scanner_packet_process_cb
                0x000000000002c154       0x88 CMakeFiles/enocean_switch_nrf52832_xxAA_s132_6.0.0.dir/__/__/mesh/core/src/nrf_mesh.c.obj
 .text.nrf_mesh_init
                0x000000000002c1dc       0xe4 CMakeFiles/enocean_switch_nrf52832_xxAA_s132_6.0.0.dir/__/__/mesh/core/src/nrf_mesh.c.obj
                0x000000000002c1dc                nrf_mesh_init
 .text.nrf_mesh_enable
                0x000000000002c2c0       0x48 CMakeFiles/enocean_switch_nrf52832_xxAA_s132_6.0.0.dir/__/__/mesh/core/src/nrf_mesh.c.obj
                0x000000000002c2c0                nrf_mesh_enable
 .text.nrf_mesh_packet_send
                0x000000000002c308       0x94 CMakeFiles/enocean_switch_nrf52832_xxAA_s132_6.0.0.dir/__/__/mesh/core/src/nrf_mesh.c.obj
                0x000000000002c308                nrf_mesh_packet_send
 .text.nrf_mesh_evt_handler_add
                0x000000000002c39c        0x4 CMakeFiles/enocean_switch_nrf52832_xxAA_s132_6.0.0.dir/__/__/mesh/core/src/nrf_mesh.c.obj
                0x000000000002c39c                nrf_mesh_evt_handler_add
 .text.nrf_mesh_on_sd_evt
                0x000000000002c3a0        0xc CMakeFiles/enocean_switch_nrf52832_xxAA_s132_6.0.0.dir/__/__/mesh/core/src/nrf_mesh.c.obj
                0x000000000002c3a0                nrf_mesh_on_sd_evt
 .text.nrf_mesh_rx_cb_set
                0x000000000002c3ac        0xc CMakeFiles/enocean_switch_nrf52832_xxAA_s132_6.0.0.dir/__/__/mesh/core/src/nrf_mesh.c.obj
                0x000000000002c3ac                nrf_mesh_rx_cb_set
 .text.nrf_mesh_subnet_added
                0x000000000002c3b8        0x4 CMakeFiles/enocean_switch_nrf52832_xxAA_s132_6.0.0.dir/__/__/mesh/core/src/nrf_mesh.c.obj
                0x000000000002c3b8                nrf_mesh_subnet_added
 .text.queue_init
                0x000000000002c3bc       0x1c CMakeFiles/enocean_switch_nrf52832_xxAA_s132_6.0.0.dir/__/__/mesh/core/src/queue.c.obj
                0x000000000002c3bc                queue_init
 .text.queue_push
                0x000000000002c3d8       0x3c CMakeFiles/enocean_switch_nrf52832_xxAA_s132_6.0.0.dir/__/__/mesh/core/src/queue.c.obj
                0x000000000002c3d8                queue_push
 .text.queue_pop
                0x000000000002c414       0x2c CMakeFiles/enocean_switch_nrf52832_xxAA_s132_6.0.0.dir/__/__/mesh/core/src/queue.c.obj
                0x000000000002c414                queue_pop
 .text.queue_peek
                0x000000000002c440       0x14 CMakeFiles/enocean_switch_nrf52832_xxAA_s132_6.0.0.dir/__/__/mesh/core/src/queue.c.obj
                0x000000000002c440                queue_peek
 .text.sd_power_reset_reason_clr
                0x000000000002c454        0x4 CMakeFiles/enocean_switch_nrf52832_xxAA_s132_6.0.0.dir/__/__/mesh/core/src/hal.c.obj
 .text.sd_power_gpregret_set
                0x000000000002c458        0x4 CMakeFiles/enocean_switch_nrf52832_xxAA_s132_6.0.0.dir/__/__/mesh/core/src/hal.c.obj
 .text.hal_device_reset
                0x000000000002c45c       0x38 CMakeFiles/enocean_switch_nrf52832_xxAA_s132_6.0.0.dir/__/__/mesh/core/src/hal.c.obj
                0x000000000002c45c                hal_device_reset
 .text.hal_lfclk_ppm_get
                0x000000000002c494       0x14 CMakeFiles/enocean_switch_nrf52832_xxAA_s132_6.0.0.dir/__/__/mesh/core/src/hal.c.obj
                0x000000000002c494                hal_lfclk_ppm_get
 .text.aes_cmac_subkey_generate
                0x000000000002c4a8      0x294 CMakeFiles/enocean_switch_nrf52832_xxAA_s132_6.0.0.dir/__/__/mesh/core/src/aes_cmac.c.obj
                0x000000000002c4a8                aes_cmac_subkey_generate
 .text.aes_cmac
                0x000000000002c73c      0x4b8 CMakeFiles/enocean_switch_nrf52832_xxAA_s132_6.0.0.dir/__/__/mesh/core/src/aes_cmac.c.obj
                0x000000000002c73c                aes_cmac
 .text.timer_cb
                0x000000000002cbf4        0xc CMakeFiles/enocean_switch_nrf52832_xxAA_s132_6.0.0.dir/__/__/mesh/core/src/timer_scheduler.c.obj
 .text.add_evt.constprop.1
                0x000000000002cc00       0x60 CMakeFiles/enocean_switch_nrf52832_xxAA_s132_6.0.0.dir/__/__/mesh/core/src/timer_scheduler.c.obj
 .text.flag_event_cb
                0x000000000002cc60      0x2f0 CMakeFiles/enocean_switch_nrf52832_xxAA_s132_6.0.0.dir/__/__/mesh/core/src/timer_scheduler.c.obj
 .text.timer_sch_init
                0x000000000002cf50       0x24 CMakeFiles/enocean_switch_nrf52832_xxAA_s132_6.0.0.dir/__/__/mesh/core/src/timer_scheduler.c.obj
                0x000000000002cf50                timer_sch_init
 .text.timer_sch_schedule
                0x000000000002cf74       0x68 CMakeFiles/enocean_switch_nrf52832_xxAA_s132_6.0.0.dir/__/__/mesh/core/src/timer_scheduler.c.obj
                0x000000000002cf74                timer_sch_schedule
 .text.timer_sch_abort
                0x000000000002cfdc       0x5c CMakeFiles/enocean_switch_nrf52832_xxAA_s132_6.0.0.dir/__/__/mesh/core/src/timer_scheduler.c.obj
                0x000000000002cfdc                timer_sch_abort
 .text.timer_sch_reschedule
                0x000000000002d038       0x90 CMakeFiles/enocean_switch_nrf52832_xxAA_s132_6.0.0.dir/__/__/mesh/core/src/timer_scheduler.c.obj
                0x000000000002d038                timer_sch_reschedule
 .text.timer_event_handler
                0x000000000002d0c8       0xd0 CMakeFiles/enocean_switch_nrf52832_xxAA_s132_6.0.0.dir/__/__/mesh/core/src/timer.c.obj
                0x000000000002d0c8                timer_event_handler
 .text.timer_order_cb
                0x000000000002d198       0x9c CMakeFiles/enocean_switch_nrf52832_xxAA_s132_6.0.0.dir/__/__/mesh/core/src/timer.c.obj
                0x000000000002d198                timer_order_cb
 .text.timer_now
                0x000000000002d234       0x58 CMakeFiles/enocean_switch_nrf52832_xxAA_s132_6.0.0.dir/__/__/mesh/core/src/timer.c.obj
                0x000000000002d234                timer_now
 .text.timer_on_ts_begin
                0x000000000002d28c      0x100 CMakeFiles/enocean_switch_nrf52832_xxAA_s132_6.0.0.dir/__/__/mesh/core/src/timer.c.obj
                0x000000000002d28c                timer_on_ts_begin
 .text.timer_on_ts_end
                0x000000000002d38c       0x78 CMakeFiles/enocean_switch_nrf52832_xxAA_s132_6.0.0.dir/__/__/mesh/core/src/timer.c.obj
                0x000000000002d38c                timer_on_ts_end
 .text.timer_cb
                0x000000000002d404       0x10 CMakeFiles/enocean_switch_nrf52832_xxAA_s132_6.0.0.dir/__/__/mesh/core/src/ticker.c.obj
 .text.ticker_init
                0x000000000002d414       0x3c CMakeFiles/enocean_switch_nrf52832_xxAA_s132_6.0.0.dir/__/__/mesh/core/src/ticker.c.obj
                0x000000000002d414                ticker_init
 .text.sd_rand_application_bytes_available_get
                0x000000000002d450        0x4 CMakeFiles/enocean_switch_nrf52832_xxAA_s132_6.0.0.dir/__/__/mesh/core/src/rand.c.obj
 .text.sd_rand_application_vector_get
                0x000000000002d454        0x4 CMakeFiles/enocean_switch_nrf52832_xxAA_s132_6.0.0.dir/__/__/mesh/core/src/rand.c.obj
 .text.rand_prng_seed
                0x000000000002d458       0x78 CMakeFiles/enocean_switch_nrf52832_xxAA_s132_6.0.0.dir/__/__/mesh/core/src/rand.c.obj
                0x000000000002d458                rand_prng_seed
 .text.rand_prng_get
                0x000000000002d4d0       0x28 CMakeFiles/enocean_switch_nrf52832_xxAA_s132_6.0.0.dir/__/__/mesh/core/src/rand.c.obj
                0x000000000002d4d0                rand_prng_get
 .text.rand_hw_rng_get
                0x000000000002d4f8       0x60 CMakeFiles/enocean_switch_nrf52832_xxAA_s132_6.0.0.dir/__/__/mesh/core/src/rand.c.obj
                0x000000000002d4f8                rand_hw_rng_get
 .text.nrf_mesh_opt_set
                0x000000000002d558       0x28 CMakeFiles/enocean_switch_nrf52832_xxAA_s132_6.0.0.dir/__/__/mesh/core/src/nrf_mesh_opt.c.obj
                0x000000000002d558                nrf_mesh_opt_set
 .text.nrf_mesh_opt_get
                0x000000000002d580       0x28 CMakeFiles/enocean_switch_nrf52832_xxAA_s132_6.0.0.dir/__/__/mesh/core/src/nrf_mesh_opt.c.obj
                0x000000000002d580                nrf_mesh_opt_get
 .text.sd_radio_session_open
                0x000000000002d5a8        0x4 CMakeFiles/enocean_switch_nrf52832_xxAA_s132_6.0.0.dir/__/__/mesh/core/src/timeslot.c.obj
 .text.sd_radio_session_close
                0x000000000002d5ac        0x4 CMakeFiles/enocean_switch_nrf52832_xxAA_s132_6.0.0.dir/__/__/mesh/core/src/timeslot.c.obj
 .text.sd_radio_request
                0x000000000002d5b0        0x4 CMakeFiles/enocean_switch_nrf52832_xxAA_s132_6.0.0.dir/__/__/mesh/core/src/timeslot.c.obj
 .text.end_timer_handler
                0x000000000002d5b4       0x2c CMakeFiles/enocean_switch_nrf52832_xxAA_s132_6.0.0.dir/__/__/mesh/core/src/timeslot.c.obj
 .text.radio_signal_callback
                0x000000000002d5e0      0x2b4 CMakeFiles/enocean_switch_nrf52832_xxAA_s132_6.0.0.dir/__/__/mesh/core/src/timeslot.c.obj
 .text.timeslot_sd_event_handler
                0x000000000002d894       0x44 CMakeFiles/enocean_switch_nrf52832_xxAA_s132_6.0.0.dir/__/__/mesh/core/src/timeslot.c.obj
                0x000000000002d894                timeslot_sd_event_handler
 .text.timeslot_init
                0x000000000002d8d8       0x4c CMakeFiles/enocean_switch_nrf52832_xxAA_s132_6.0.0.dir/__/__/mesh/core/src/timeslot.c.obj
                0x000000000002d8d8                timeslot_init
 .text.timeslot_start
                0x000000000002d924       0x20 CMakeFiles/enocean_switch_nrf52832_xxAA_s132_6.0.0.dir/__/__/mesh/core/src/timeslot.c.obj
                0x000000000002d924                timeslot_start
 .text.timeslot_stop
                0x000000000002d944       0x30 CMakeFiles/enocean_switch_nrf52832_xxAA_s132_6.0.0.dir/__/__/mesh/core/src/timeslot.c.obj
                0x000000000002d944                timeslot_stop
 .text.timeslot_state_lock
                0x000000000002d974       0x44 CMakeFiles/enocean_switch_nrf52832_xxAA_s132_6.0.0.dir/__/__/mesh/core/src/timeslot.c.obj
                0x000000000002d974                timeslot_state_lock
 .text.timeslot_end_is_pending
                0x000000000002d9b8       0x24 CMakeFiles/enocean_switch_nrf52832_xxAA_s132_6.0.0.dir/__/__/mesh/core/src/timeslot.c.obj
                0x000000000002d9b8                timeslot_end_is_pending
 .text.timeslot_start_time_get
                0x000000000002d9dc        0xc CMakeFiles/enocean_switch_nrf52832_xxAA_s132_6.0.0.dir/__/__/mesh/core/src/timeslot.c.obj
                0x000000000002d9dc                timeslot_start_time_get
 .text.timeslot_remaining_time_get
                0x000000000002d9e8       0x40 CMakeFiles/enocean_switch_nrf52832_xxAA_s132_6.0.0.dir/__/__/mesh/core/src/timeslot.c.obj
                0x000000000002d9e8                timeslot_remaining_time_get
 .text.timeslot_is_in_cb
                0x000000000002da28        0xc CMakeFiles/enocean_switch_nrf52832_xxAA_s132_6.0.0.dir/__/__/mesh/core/src/timeslot.c.obj
                0x000000000002da28                timeslot_is_in_cb
 .text.timeslot_trigger
                0x000000000002da34       0x24 CMakeFiles/enocean_switch_nrf52832_xxAA_s132_6.0.0.dir/__/__/mesh/core/src/timeslot.c.obj
                0x000000000002da34                timeslot_trigger
 .text.bearer_event_init
                0x000000000002da58       0x4c CMakeFiles/enocean_switch_nrf52832_xxAA_s132_6.0.0.dir/__/__/mesh/core/src/bearer_event.c.obj
                0x000000000002da58                bearer_event_init
 .text.bearer_event_timer_post
                0x000000000002daa4       0x50 CMakeFiles/enocean_switch_nrf52832_xxAA_s132_6.0.0.dir/__/__/mesh/core/src/bearer_event.c.obj
                0x000000000002daa4                bearer_event_timer_post
 .text.bearer_event_critical_section_begin
                0x000000000002daf4       0x44 CMakeFiles/enocean_switch_nrf52832_xxAA_s132_6.0.0.dir/__/__/mesh/core/src/bearer_event.c.obj
                0x000000000002daf4                bearer_event_critical_section_begin
 .text.bearer_event_critical_section_end
                0x000000000002db38       0x40 CMakeFiles/enocean_switch_nrf52832_xxAA_s132_6.0.0.dir/__/__/mesh/core/src/bearer_event.c.obj
                0x000000000002db38                bearer_event_critical_section_end
 .text.bearer_event_flag_add
                0x000000000002db78       0x40 CMakeFiles/enocean_switch_nrf52832_xxAA_s132_6.0.0.dir/__/__/mesh/core/src/bearer_event.c.obj
                0x000000000002db78                bearer_event_flag_add
 .text.bearer_event_flag_set
                0x000000000002dbb8       0x5c CMakeFiles/enocean_switch_nrf52832_xxAA_s132_6.0.0.dir/__/__/mesh/core/src/bearer_event.c.obj
                0x000000000002dbb8                bearer_event_flag_set
 .text.bearer_event_sequential_add
                0x000000000002dc14       0x34 CMakeFiles/enocean_switch_nrf52832_xxAA_s132_6.0.0.dir/__/__/mesh/core/src/bearer_event.c.obj
                0x000000000002dc14                bearer_event_sequential_add
 .text.bearer_event_sequential_post
                0x000000000002dc48       0x64 CMakeFiles/enocean_switch_nrf52832_xxAA_s132_6.0.0.dir/__/__/mesh/core/src/bearer_event.c.obj
                0x000000000002dc48                bearer_event_sequential_post
 .text.bearer_event_sequential_pending
                0x000000000002dcac       0x14 CMakeFiles/enocean_switch_nrf52832_xxAA_s132_6.0.0.dir/__/__/mesh/core/src/bearer_event.c.obj
                0x000000000002dcac                bearer_event_sequential_pending
 .text.bearer_event_handler
                0x000000000002dcc0      0x16c CMakeFiles/enocean_switch_nrf52832_xxAA_s132_6.0.0.dir/__/__/mesh/core/src/bearer_event.c.obj
                0x000000000002dcc0                bearer_event_handler
 .text.QDEC_IRQHandler
                0x000000000002de2c        0x4 CMakeFiles/enocean_switch_nrf52832_xxAA_s132_6.0.0.dir/__/__/mesh/core/src/bearer_event.c.obj
                0x000000000002de2c                QDEC_IRQHandler
 .text.enc_aes_encrypt
                0x000000000002de30        0x4 CMakeFiles/enocean_switch_nrf52832_xxAA_s132_6.0.0.dir/__/__/mesh/core/src/enc.c.obj
                0x000000000002de30                enc_aes_encrypt
 .text.enc_aes_cmac
                0x000000000002de34        0x4 CMakeFiles/enocean_switch_nrf52832_xxAA_s132_6.0.0.dir/__/__/mesh/core/src/enc.c.obj
                0x000000000002de34                enc_aes_cmac
 .text.enc_aes_ccm_encrypt
                0x000000000002de38        0x4 CMakeFiles/enocean_switch_nrf52832_xxAA_s132_6.0.0.dir/__/__/mesh/core/src/enc.c.obj
                0x000000000002de38                enc_aes_ccm_encrypt
 .text.enc_aes_ccm_decrypt
                0x000000000002de3c        0x4 CMakeFiles/enocean_switch_nrf52832_xxAA_s132_6.0.0.dir/__/__/mesh/core/src/enc.c.obj
                0x000000000002de3c                enc_aes_ccm_decrypt
 .text.enc_nonce_generate
                0x000000000002de40       0xc8 CMakeFiles/enocean_switch_nrf52832_xxAA_s132_6.0.0.dir/__/__/mesh/core/src/enc.c.obj
                0x000000000002de40                enc_nonce_generate
 .text.enc_s1   0x000000000002df08       0x30 CMakeFiles/enocean_switch_nrf52832_xxAA_s132_6.0.0.dir/__/__/mesh/core/src/enc.c.obj
                0x000000000002df08                enc_s1
 .text.enc_k1   0x000000000002df38       0x40 CMakeFiles/enocean_switch_nrf52832_xxAA_s132_6.0.0.dir/__/__/mesh/core/src/enc.c.obj
                0x000000000002df38                enc_k1
 .text.enc_k2   0x000000000002df78       0xe0 CMakeFiles/enocean_switch_nrf52832_xxAA_s132_6.0.0.dir/__/__/mesh/core/src/enc.c.obj
                0x000000000002df78                enc_k2
 .text.enc_k3   0x000000000002e058       0x68 CMakeFiles/enocean_switch_nrf52832_xxAA_s132_6.0.0.dir/__/__/mesh/core/src/enc.c.obj
                0x000000000002e058                enc_k3
 .text.enc_k4   0x000000000002e0c0       0x60 CMakeFiles/enocean_switch_nrf52832_xxAA_s132_6.0.0.dir/__/__/mesh/core/src/enc.c.obj
                0x000000000002e0c0                enc_k4
 .text.network_init
                0x000000000002e120       0x28 CMakeFiles/enocean_switch_nrf52832_xxAA_s132_6.0.0.dir/__/__/mesh/core/src/network.c.obj
                0x000000000002e120                network_init
 .text.network_opt_set
                0x000000000002e148       0x84 CMakeFiles/enocean_switch_nrf52832_xxAA_s132_6.0.0.dir/__/__/mesh/core/src/network.c.obj
                0x000000000002e148                network_opt_set
 .text.network_opt_get
                0x000000000002e1cc       0x5c CMakeFiles/enocean_switch_nrf52832_xxAA_s132_6.0.0.dir/__/__/mesh/core/src/network.c.obj
                0x000000000002e1cc                network_opt_get
 .text.network_packet_alloc
                0x000000000002e228       0xa0 CMakeFiles/enocean_switch_nrf52832_xxAA_s132_6.0.0.dir/__/__/mesh/core/src/network.c.obj
                0x000000000002e228                network_packet_alloc
 .text.network_packet_send
                0x000000000002e2c8       0x58 CMakeFiles/enocean_switch_nrf52832_xxAA_s132_6.0.0.dir/__/__/mesh/core/src/network.c.obj
                0x000000000002e2c8                network_packet_send
 .text.network_packet_in
                0x000000000002e320      0x1c8 CMakeFiles/enocean_switch_nrf52832_xxAA_s132_6.0.0.dir/__/__/mesh/core/src/network.c.obj
                0x000000000002e320                network_packet_in
 .text.net_packet_decrypt
                0x000000000002e4e8      0x2bc CMakeFiles/enocean_switch_nrf52832_xxAA_s132_6.0.0.dir/__/__/mesh/core/src/net_packet.c.obj
                0x000000000002e4e8                net_packet_decrypt
 .text.net_packet_encrypt
                0x000000000002e7a4      0x100 CMakeFiles/enocean_switch_nrf52832_xxAA_s132_6.0.0.dir/__/__/mesh/core/src/net_packet.c.obj
                0x000000000002e7a4                net_packet_encrypt
 .text.net_packet_header_set
                0x000000000002e8a4       0xc0 CMakeFiles/enocean_switch_nrf52832_xxAA_s132_6.0.0.dir/__/__/mesh/core/src/net_packet.c.obj
                0x000000000002e8a4                net_packet_header_set
 .text.net_packet_payload_len_get
                0x000000000002e964       0x14 CMakeFiles/enocean_switch_nrf52832_xxAA_s132_6.0.0.dir/__/__/mesh/core/src/net_packet.c.obj
                0x000000000002e964                net_packet_payload_len_get
 .text.net_packet_from_payload
                0x000000000002e978        0x4 CMakeFiles/enocean_switch_nrf52832_xxAA_s132_6.0.0.dir/__/__/mesh/core/src/net_packet.c.obj
                0x000000000002e978                net_packet_from_payload
 .text.net_packet_obfuscation_start_get
                0x000000000002e97c        0x4 CMakeFiles/enocean_switch_nrf52832_xxAA_s132_6.0.0.dir/__/__/mesh/core/src/net_packet.c.obj
                0x000000000002e97c                net_packet_obfuscation_start_get
 .text.msq_init
                0x000000000002e980       0x6c CMakeFiles/enocean_switch_nrf52832_xxAA_s132_6.0.0.dir/__/__/mesh/core/src/msqueue.c.obj
                0x000000000002e980                msq_init
 .text.msq_get  0x000000000002e9ec       0x54 CMakeFiles/enocean_switch_nrf52832_xxAA_s132_6.0.0.dir/__/__/mesh/core/src/msqueue.c.obj
                0x000000000002e9ec                msq_get
 .text.msq_move
                0x000000000002ea40       0x4c CMakeFiles/enocean_switch_nrf52832_xxAA_s132_6.0.0.dir/__/__/mesh/core/src/msqueue.c.obj
                0x000000000002ea40                msq_move
 .text.msq_available
                0x000000000002ea8c       0x44 CMakeFiles/enocean_switch_nrf52832_xxAA_s132_6.0.0.dir/__/__/mesh/core/src/msqueue.c.obj
                0x000000000002ea8c                msq_available
 .text.nrf_mesh_keygen_aid
                0x000000000002ead0       0x18 CMakeFiles/enocean_switch_nrf52832_xxAA_s132_6.0.0.dir/__/__/mesh/core/src/nrf_mesh_keygen.c.obj
                0x000000000002ead0                nrf_mesh_keygen_aid
 .text.nrf_mesh_keygen_network_secmat
                0x000000000002eae8       0x24 CMakeFiles/enocean_switch_nrf52832_xxAA_s132_6.0.0.dir/__/__/mesh/core/src/nrf_mesh_keygen.c.obj
                0x000000000002eae8                nrf_mesh_keygen_network_secmat
 .text.nrf_mesh_keygen_beacon_secmat
                0x000000000002eb0c       0x50 CMakeFiles/enocean_switch_nrf52832_xxAA_s132_6.0.0.dir/__/__/mesh/core/src/nrf_mesh_keygen.c.obj
                0x000000000002eb0c                nrf_mesh_keygen_beacon_secmat
 .text.nrf_mesh_keygen_virtual_address
                0x000000000002eb5c       0x50 CMakeFiles/enocean_switch_nrf52832_xxAA_s132_6.0.0.dir/__/__/mesh/core/src/nrf_mesh_keygen.c.obj
                0x000000000002eb5c                nrf_mesh_keygen_virtual_address
 .text.list_add
                0x000000000002ebac       0x64 CMakeFiles/enocean_switch_nrf52832_xxAA_s132_6.0.0.dir/__/__/mesh/core/src/list.c.obj
                0x000000000002ebac                list_add
 .text.list_remove
                0x000000000002ec10       0x44 CMakeFiles/enocean_switch_nrf52832_xxAA_s132_6.0.0.dir/__/__/mesh/core/src/list.c.obj
                0x000000000002ec10                list_remove
 .text.list_compare_add
                0x000000000002ec54       0x80 CMakeFiles/enocean_switch_nrf52832_xxAA_s132_6.0.0.dir/__/__/mesh/core/src/list.c.obj
                0x000000000002ec54                list_compare_add
 .text.log_callback_rtt
                0x000000000002ecd4       0x2c CMakeFiles/enocean_switch_nrf52832_xxAA_s132_6.0.0.dir/__/__/mesh/core/src/log.c.obj
                0x000000000002ecd4                log_callback_rtt
 .text.log_init
                0x000000000002ed00       0x20 CMakeFiles/enocean_switch_nrf52832_xxAA_s132_6.0.0.dir/__/__/mesh/core/src/log.c.obj
                0x000000000002ed00                log_init
 .text.log_printf
                0x000000000002ed20       0x20 CMakeFiles/enocean_switch_nrf52832_xxAA_s132_6.0.0.dir/__/__/mesh/core/src/log.c.obj
                0x000000000002ed20                log_printf
 .text.process_action_queue
                0x000000000002ed40      0x794 CMakeFiles/enocean_switch_nrf52832_xxAA_s132_6.0.0.dir/__/__/mesh/core/src/flash_manager.c.obj
 .text.flash_op_ended_callback
                0x000000000002f4d4       0x24 CMakeFiles/enocean_switch_nrf52832_xxAA_s132_6.0.0.dir/__/__/mesh/core/src/flash_manager.c.obj
 .text.flash_manager_init
                0x000000000002f4f8       0x68 CMakeFiles/enocean_switch_nrf52832_xxAA_s132_6.0.0.dir/__/__/mesh/core/src/flash_manager.c.obj
                0x000000000002f4f8                flash_manager_init
 .text.flash_manager_remove
                0x000000000002f560       0x6c CMakeFiles/enocean_switch_nrf52832_xxAA_s132_6.0.0.dir/__/__/mesh/core/src/flash_manager.c.obj
                0x000000000002f560                flash_manager_remove
 .text.flash_manager_entry_get
                0x000000000002f5cc       0x48 CMakeFiles/enocean_switch_nrf52832_xxAA_s132_6.0.0.dir/__/__/mesh/core/src/flash_manager.c.obj
                0x000000000002f5cc                flash_manager_entry_get
 .text.flash_manager_entry_next_get
                0x000000000002f614      0x144 CMakeFiles/enocean_switch_nrf52832_xxAA_s132_6.0.0.dir/__/__/mesh/core/src/flash_manager.c.obj
                0x000000000002f614                flash_manager_entry_next_get
 .text.flash_manager_entry_alloc
                0x000000000002f758       0x80 CMakeFiles/enocean_switch_nrf52832_xxAA_s132_6.0.0.dir/__/__/mesh/core/src/flash_manager.c.obj
                0x000000000002f758                flash_manager_entry_alloc
 .text.flash_manager_entry_commit
                0x000000000002f7d8       0x58 CMakeFiles/enocean_switch_nrf52832_xxAA_s132_6.0.0.dir/__/__/mesh/core/src/flash_manager.c.obj
                0x000000000002f7d8                flash_manager_entry_commit
 .text.flash_manager_entry_invalidate
                0x000000000002f830       0x98 CMakeFiles/enocean_switch_nrf52832_xxAA_s132_6.0.0.dir/__/__/mesh/core/src/flash_manager.c.obj
                0x000000000002f830                flash_manager_entry_invalidate
 .text.flash_manager_add
                0x000000000002f8c8      0x3f4 CMakeFiles/enocean_switch_nrf52832_xxAA_s132_6.0.0.dir/__/__/mesh/core/src/flash_manager.c.obj
                0x000000000002f8c8                flash_manager_add
 .text.flash_manager_mem_listener_register
                0x000000000002fcbc       0x38 CMakeFiles/enocean_switch_nrf52832_xxAA_s132_6.0.0.dir/__/__/mesh/core/src/flash_manager.c.obj
                0x000000000002fcbc                flash_manager_mem_listener_register
 .text.flash_manager_is_stable
                0x000000000002fcf4       0x20 CMakeFiles/enocean_switch_nrf52832_xxAA_s132_6.0.0.dir/__/__/mesh/core/src/flash_manager.c.obj
                0x000000000002fcf4                flash_manager_is_stable
 .text.flash_manager_on_defrag_end
                0x000000000002fd14       0x58 CMakeFiles/enocean_switch_nrf52832_xxAA_s132_6.0.0.dir/__/__/mesh/core/src/flash_manager.c.obj
                0x000000000002fd14                flash_manager_on_defrag_end
 .text.flash_manager_recovery_page_get
                0x000000000002fd6c        0x4 CMakeFiles/enocean_switch_nrf52832_xxAA_s132_6.0.0.dir/__/__/mesh/core/src/flash_manager.c.obj
                0x000000000002fd6c                flash_manager_recovery_page_get
 .text.flash_manager_action_queue_empty_cb_set
                0x000000000002fd70       0x20 CMakeFiles/enocean_switch_nrf52832_xxAA_s132_6.0.0.dir/__/__/mesh/core/src/flash_manager.c.obj
                0x000000000002fd70                flash_manager_action_queue_empty_cb_set
 .text.ccm_soft_crypt.constprop.0
                0x000000000002fd90      0x274 CMakeFiles/enocean_switch_nrf52832_xxAA_s132_6.0.0.dir/__/__/mesh/core/src/ccm_soft.c.obj
 .text.ccm_soft_authenticate
                0x0000000000030004      0x308 CMakeFiles/enocean_switch_nrf52832_xxAA_s132_6.0.0.dir/__/__/mesh/core/src/ccm_soft.c.obj
 .text.ccm_soft_encrypt
                0x000000000003030c       0x7c CMakeFiles/enocean_switch_nrf52832_xxAA_s132_6.0.0.dir/__/__/mesh/core/src/ccm_soft.c.obj
                0x000000000003030c                ccm_soft_encrypt
 .text.ccm_soft_decrypt
                0x0000000000030388      0x114 CMakeFiles/enocean_switch_nrf52832_xxAA_s132_6.0.0.dir/__/__/mesh/core/src/ccm_soft.c.obj
                0x0000000000030388                ccm_soft_decrypt
 .text.replay_cache_init
                0x000000000003049c       0x20 CMakeFiles/enocean_switch_nrf52832_xxAA_s132_6.0.0.dir/__/__/mesh/core/src/replay_cache.c.obj
                0x000000000003049c                replay_cache_init
 .text.replay_cache_add
                0x00000000000304bc       0x60 CMakeFiles/enocean_switch_nrf52832_xxAA_s132_6.0.0.dir/__/__/mesh/core/src/replay_cache.c.obj
                0x00000000000304bc                replay_cache_add
 .text.replay_cache_has_elem
                0x000000000003051c       0x40 CMakeFiles/enocean_switch_nrf52832_xxAA_s132_6.0.0.dir/__/__/mesh/core/src/replay_cache.c.obj
                0x000000000003051c                replay_cache_has_elem
 .text.beacon_create
                0x000000000003055c       0x50 CMakeFiles/enocean_switch_nrf52832_xxAA_s132_6.0.0.dir/__/__/mesh/core/src/beacon.c.obj
                0x000000000003055c                beacon_create
 .text.beacon_packet_in
                0x00000000000305ac      0x178 CMakeFiles/enocean_switch_nrf52832_xxAA_s132_6.0.0.dir/__/__/mesh/core/src/beacon.c.obj
                0x00000000000305ac                beacon_packet_in
 .text.entry_get
                0x0000000000030724       0x7c CMakeFiles/enocean_switch_nrf52832_xxAA_s132_6.0.0.dir/__/__/mesh/core/src/flash_manager_internal.c.obj
                0x0000000000030724                entry_get
 .text.core_tx_complete_cb_set
                0x00000000000307a0        0xc CMakeFiles/enocean_switch_nrf52832_xxAA_s132_6.0.0.dir/__/__/mesh/core/src/core_tx.c.obj
                0x00000000000307a0                core_tx_complete_cb_set
 .text.core_tx_packet_alloc
                0x00000000000307ac       0xc0 CMakeFiles/enocean_switch_nrf52832_xxAA_s132_6.0.0.dir/__/__/mesh/core/src/core_tx.c.obj
                0x00000000000307ac                core_tx_packet_alloc
 .text.core_tx_packet_send
                0x000000000003086c       0x5c CMakeFiles/enocean_switch_nrf52832_xxAA_s132_6.0.0.dir/__/__/mesh/core/src/core_tx.c.obj
                0x000000000003086c                core_tx_packet_send
 .text.core_tx_packet_discard
                0x00000000000308c8       0x54 CMakeFiles/enocean_switch_nrf52832_xxAA_s132_6.0.0.dir/__/__/mesh/core/src/core_tx.c.obj
                0x00000000000308c8                core_tx_packet_discard
 .text.core_tx_complete
                0x000000000003091c       0x38 CMakeFiles/enocean_switch_nrf52832_xxAA_s132_6.0.0.dir/__/__/mesh/core/src/core_tx.c.obj
                0x000000000003091c                core_tx_complete
 .text.core_tx_bearer_add
                0x0000000000030954       0x90 CMakeFiles/enocean_switch_nrf52832_xxAA_s132_6.0.0.dir/__/__/mesh/core/src/core_tx.c.obj
                0x0000000000030954                core_tx_bearer_add
 .text.heartbeat_subscription_timer_cb
                0x00000000000309e4       0x1c CMakeFiles/enocean_switch_nrf52832_xxAA_s132_6.0.0.dir/__/__/mesh/core/src/heartbeat.c.obj
 .text.heartbeat_opcode_handle
                0x0000000000030a00       0x8c CMakeFiles/enocean_switch_nrf52832_xxAA_s132_6.0.0.dir/__/__/mesh/core/src/heartbeat.c.obj
 .text.heartbeat_send
                0x0000000000030a8c       0xbc CMakeFiles/enocean_switch_nrf52832_xxAA_s132_6.0.0.dir/__/__/mesh/core/src/heartbeat.c.obj
 .text.heartbeat_core_evt_cb
                0x0000000000030b48       0x94 CMakeFiles/enocean_switch_nrf52832_xxAA_s132_6.0.0.dir/__/__/mesh/core/src/heartbeat.c.obj
 .text.heartbeat_publication_timer_cb
                0x0000000000030bdc       0xb0 CMakeFiles/enocean_switch_nrf52832_xxAA_s132_6.0.0.dir/__/__/mesh/core/src/heartbeat.c.obj
 .text.heartbeat_on_feature_change_trigger
                0x0000000000030c8c       0x48 CMakeFiles/enocean_switch_nrf52832_xxAA_s132_6.0.0.dir/__/__/mesh/core/src/heartbeat.c.obj
                0x0000000000030c8c                heartbeat_on_feature_change_trigger
 .text.heartbeat_init
                0x0000000000030cd4       0x7c CMakeFiles/enocean_switch_nrf52832_xxAA_s132_6.0.0.dir/__/__/mesh/core/src/heartbeat.c.obj
                0x0000000000030cd4                heartbeat_init
 .text.heartbeat_subscription_set
                0x0000000000030d50       0xa4 CMakeFiles/enocean_switch_nrf52832_xxAA_s132_6.0.0.dir/__/__/mesh/core/src/heartbeat.c.obj
                0x0000000000030d50                heartbeat_subscription_set
 .text.heartbeat_subscription_get
                0x0000000000030df4        0x8 CMakeFiles/enocean_switch_nrf52832_xxAA_s132_6.0.0.dir/__/__/mesh/core/src/heartbeat.c.obj
                0x0000000000030df4                heartbeat_subscription_get
 .text.heartbeat_config_server_cb_set
                0x0000000000030dfc       0x30 CMakeFiles/enocean_switch_nrf52832_xxAA_s132_6.0.0.dir/__/__/mesh/core/src/heartbeat.c.obj
                0x0000000000030dfc                heartbeat_config_server_cb_set
 .text.heartbeat_publication_state_updated
                0x0000000000030e2c       0x78 CMakeFiles/enocean_switch_nrf52832_xxAA_s132_6.0.0.dir/__/__/mesh/core/src/heartbeat.c.obj
                0x0000000000030e2c                heartbeat_publication_state_updated
 .text.beacon_tx
                0x0000000000030ea4      0x194 CMakeFiles/enocean_switch_nrf52832_xxAA_s132_6.0.0.dir/__/__/mesh/core/src/net_beacon.c.obj
 .text.tx_complete_cb
                0x0000000000031038       0x10 CMakeFiles/enocean_switch_nrf52832_xxAA_s132_6.0.0.dir/__/__/mesh/core/src/net_beacon.c.obj
 .text.beacon_tx_timeout
                0x0000000000031048        0x4 CMakeFiles/enocean_switch_nrf52832_xxAA_s132_6.0.0.dir/__/__/mesh/core/src/net_beacon.c.obj
 .text.net_beacon_init
                0x000000000003104c       0x94 CMakeFiles/enocean_switch_nrf52832_xxAA_s132_6.0.0.dir/__/__/mesh/core/src/net_beacon.c.obj
                0x000000000003104c                net_beacon_init
 .text.net_beacon_state_set
                0x00000000000310e0       0x3c CMakeFiles/enocean_switch_nrf52832_xxAA_s132_6.0.0.dir/__/__/mesh/core/src/net_beacon.c.obj
                0x00000000000310e0                net_beacon_state_set
 .text.net_beacon_state_get
                0x000000000003111c        0xc CMakeFiles/enocean_switch_nrf52832_xxAA_s132_6.0.0.dir/__/__/mesh/core/src/net_beacon.c.obj
                0x000000000003111c                net_beacon_state_get
 .text.net_beacon_packet_in
                0x0000000000031128      0x134 CMakeFiles/enocean_switch_nrf52832_xxAA_s132_6.0.0.dir/__/__/mesh/core/src/net_beacon.c.obj
                0x0000000000031128                net_beacon_packet_in
 .text.packet_discard
                0x000000000003125c       0x40 CMakeFiles/enocean_switch_nrf52832_xxAA_s132_6.0.0.dir/__/__/mesh/core/src/core_tx_adv.c.obj
 .text.packet_send
                0x000000000003129c       0x58 CMakeFiles/enocean_switch_nrf52832_xxAA_s132_6.0.0.dir/__/__/mesh/core/src/core_tx_adv.c.obj
 .text.packet_alloc
                0x00000000000312f4       0x5c CMakeFiles/enocean_switch_nrf52832_xxAA_s132_6.0.0.dir/__/__/mesh/core/src/core_tx_adv.c.obj
 .text.adv_tx_complete_callback
                0x0000000000031350       0x28 CMakeFiles/enocean_switch_nrf52832_xxAA_s132_6.0.0.dir/__/__/mesh/core/src/core_tx_adv.c.obj
 .text.core_tx_adv_init
                0x0000000000031378       0x60 CMakeFiles/enocean_switch_nrf52832_xxAA_s132_6.0.0.dir/__/__/mesh/core/src/core_tx_adv.c.obj
                0x0000000000031378                core_tx_adv_init
 .text.core_tx_adv_count_set
                0x00000000000313d8       0x2c CMakeFiles/enocean_switch_nrf52832_xxAA_s132_6.0.0.dir/__/__/mesh/core/src/core_tx_adv.c.obj
                0x00000000000313d8                core_tx_adv_count_set
 .text.core_tx_adv_count_get
                0x0000000000031404       0x20 CMakeFiles/enocean_switch_nrf52832_xxAA_s132_6.0.0.dir/__/__/mesh/core/src/core_tx_adv.c.obj
                0x0000000000031404                core_tx_adv_count_get
 .text.core_tx_adv_interval_set
                0x0000000000031424       0x28 CMakeFiles/enocean_switch_nrf52832_xxAA_s132_6.0.0.dir/__/__/mesh/core/src/core_tx_adv.c.obj
                0x0000000000031424                core_tx_adv_interval_set
 .text.core_tx_adv_interval_get
                0x000000000003144c       0x2c CMakeFiles/enocean_switch_nrf52832_xxAA_s132_6.0.0.dir/__/__/mesh/core/src/core_tx_adv.c.obj
                0x000000000003144c                core_tx_adv_interval_get
 .text.ad_listener_subscribe
                0x0000000000031478       0x60 CMakeFiles/enocean_switch_nrf52832_xxAA_s132_6.0.0.dir/__/__/mesh/bearer/src/ad_listener.c.obj
                0x0000000000031478                ad_listener_subscribe
 .text.ad_listener_process
                0x00000000000314d8       0x84 CMakeFiles/enocean_switch_nrf52832_xxAA_s132_6.0.0.dir/__/__/mesh/bearer/src/ad_listener.c.obj
                0x00000000000314d8                ad_listener_process
 .text.adtype_filter_handle
                0x000000000003155c       0x94 CMakeFiles/enocean_switch_nrf52832_xxAA_s132_6.0.0.dir/__/__/mesh/bearer/src/ad_type_filter.c.obj
 .text.bearer_adtype_filtering_set
                0x00000000000315f0       0x1c CMakeFiles/enocean_switch_nrf52832_xxAA_s132_6.0.0.dir/__/__/mesh/bearer/src/ad_type_filter.c.obj
                0x00000000000315f0                bearer_adtype_filtering_set
 .text.bearer_adtype_add
                0x000000000003160c       0x24 CMakeFiles/enocean_switch_nrf52832_xxAA_s132_6.0.0.dir/__/__/mesh/bearer/src/ad_type_filter.c.obj
                0x000000000003160c                bearer_adtype_add
 .text.bearer_adtype_mode_set
                0x0000000000031630       0x18 CMakeFiles/enocean_switch_nrf52832_xxAA_s132_6.0.0.dir/__/__/mesh/bearer/src/ad_type_filter.c.obj
                0x0000000000031630                bearer_adtype_mode_set
 .text.tx_complete_event_callback
                0x0000000000031648       0x34 CMakeFiles/enocean_switch_nrf52832_xxAA_s132_6.0.0.dir/__/__/mesh/bearer/src/advertiser.c.obj
 .text.broadcast_complete_cb
                0x000000000003167c       0x48 CMakeFiles/enocean_switch_nrf52832_xxAA_s132_6.0.0.dir/__/__/mesh/bearer/src/advertiser.c.obj
 .text.timeout_event
                0x00000000000316c4      0x12c CMakeFiles/enocean_switch_nrf52832_xxAA_s132_6.0.0.dir/__/__/mesh/bearer/src/advertiser.c.obj
 .text.advertiser_init
                0x00000000000317f0        0xc CMakeFiles/enocean_switch_nrf52832_xxAA_s132_6.0.0.dir/__/__/mesh/bearer/src/advertiser.c.obj
                0x00000000000317f0                advertiser_init
 .text.advertiser_instance_init
                0x00000000000317fc      0x100 CMakeFiles/enocean_switch_nrf52832_xxAA_s132_6.0.0.dir/__/__/mesh/bearer/src/advertiser.c.obj
                0x00000000000317fc                advertiser_instance_init
 .text.advertiser_enable
                0x00000000000318fc       0x44 CMakeFiles/enocean_switch_nrf52832_xxAA_s132_6.0.0.dir/__/__/mesh/bearer/src/advertiser.c.obj
                0x00000000000318fc                advertiser_enable
 .text.advertiser_packet_alloc
                0x0000000000031940       0x80 CMakeFiles/enocean_switch_nrf52832_xxAA_s132_6.0.0.dir/__/__/mesh/bearer/src/advertiser.c.obj
                0x0000000000031940                advertiser_packet_alloc
 .text.advertiser_packet_send
                0x00000000000319c0       0x84 CMakeFiles/enocean_switch_nrf52832_xxAA_s132_6.0.0.dir/__/__/mesh/bearer/src/advertiser.c.obj
                0x00000000000319c0                advertiser_packet_send
 .text.advertiser_packet_discard
                0x0000000000031a44       0x2c CMakeFiles/enocean_switch_nrf52832_xxAA_s132_6.0.0.dir/__/__/mesh/bearer/src/advertiser.c.obj
                0x0000000000031a44                advertiser_packet_discard
 .text.advertiser_interval_set
                0x0000000000031a70       0x6c CMakeFiles/enocean_switch_nrf52832_xxAA_s132_6.0.0.dir/__/__/mesh/bearer/src/advertiser.c.obj
                0x0000000000031a70                advertiser_interval_set
 .text.advertiser_flush
                0x0000000000031adc       0x20 CMakeFiles/enocean_switch_nrf52832_xxAA_s132_6.0.0.dir/__/__/mesh/bearer/src/advertiser.c.obj
                0x0000000000031adc                advertiser_flush
 .text.action_switch.part.2
                0x0000000000031afc       0xb4 CMakeFiles/enocean_switch_nrf52832_xxAA_s132_6.0.0.dir/__/__/mesh/bearer/src/bearer_handler.c.obj
 .text.bearer_handler_init
                0x0000000000031bb0       0x2c CMakeFiles/enocean_switch_nrf52832_xxAA_s132_6.0.0.dir/__/__/mesh/bearer/src/bearer_handler.c.obj
                0x0000000000031bb0                bearer_handler_init
 .text.bearer_handler_start
                0x0000000000031bdc       0x1c CMakeFiles/enocean_switch_nrf52832_xxAA_s132_6.0.0.dir/__/__/mesh/bearer/src/bearer_handler.c.obj
                0x0000000000031bdc                bearer_handler_start
 .text.bearer_handler_action_enqueue
                0x0000000000031bf8       0x88 CMakeFiles/enocean_switch_nrf52832_xxAA_s132_6.0.0.dir/__/__/mesh/bearer/src/bearer_handler.c.obj
                0x0000000000031bf8                bearer_handler_action_enqueue
 .text.bearer_handler_action_end
                0x0000000000031c80       0x68 CMakeFiles/enocean_switch_nrf52832_xxAA_s132_6.0.0.dir/__/__/mesh/bearer/src/bearer_handler.c.obj
                0x0000000000031c80                bearer_handler_action_end
 .text.bearer_handler_radio_irq_handler
                0x0000000000031ce8       0x58 CMakeFiles/enocean_switch_nrf52832_xxAA_s132_6.0.0.dir/__/__/mesh/bearer/src/bearer_handler.c.obj
                0x0000000000031ce8                bearer_handler_radio_irq_handler
 .text.bearer_handler_timer_irq_handler
                0x0000000000031d40       0x34 CMakeFiles/enocean_switch_nrf52832_xxAA_s132_6.0.0.dir/__/__/mesh/bearer/src/bearer_handler.c.obj
                0x0000000000031d40                bearer_handler_timer_irq_handler
 .text.bearer_handler_on_ts_begin
                0x0000000000031d74       0x3c CMakeFiles/enocean_switch_nrf52832_xxAA_s132_6.0.0.dir/__/__/mesh/bearer/src/bearer_handler.c.obj
                0x0000000000031d74                bearer_handler_on_ts_begin
 .text.bearer_handler_on_ts_end
                0x0000000000031db0       0x38 CMakeFiles/enocean_switch_nrf52832_xxAA_s132_6.0.0.dir/__/__/mesh/bearer/src/bearer_handler.c.obj
                0x0000000000031db0                bearer_handler_on_ts_end
 .text.radio_irq_handler
                0x0000000000031de8       0x98 CMakeFiles/enocean_switch_nrf52832_xxAA_s132_6.0.0.dir/__/__/mesh/bearer/src/broadcast.c.obj
 .text.broadcast_start
                0x0000000000031e80       0x8c CMakeFiles/enocean_switch_nrf52832_xxAA_s132_6.0.0.dir/__/__/mesh/bearer/src/broadcast.c.obj
 .text.broadcast_send
                0x0000000000031f0c       0x74 CMakeFiles/enocean_switch_nrf52832_xxAA_s132_6.0.0.dir/__/__/mesh/bearer/src/broadcast.c.obj
                0x0000000000031f0c                broadcast_send
 .text.fen_filter_start
                0x0000000000031f80       0x38 CMakeFiles/enocean_switch_nrf52832_xxAA_s132_6.0.0.dir/__/__/mesh/bearer/src/filter_engine.c.obj
                0x0000000000031f80                fen_filter_start
 .text.fen_filter_stop
                0x0000000000031fb8       0x2c CMakeFiles/enocean_switch_nrf52832_xxAA_s132_6.0.0.dir/__/__/mesh/bearer/src/filter_engine.c.obj
                0x0000000000031fb8                fen_filter_stop
 .text.fen_filters_apply
                0x0000000000031fe4       0x34 CMakeFiles/enocean_switch_nrf52832_xxAA_s132_6.0.0.dir/__/__/mesh/bearer/src/filter_engine.c.obj
                0x0000000000031fe4                fen_filters_apply
 .text.radio_config_reset
                0x0000000000032018       0x38 CMakeFiles/enocean_switch_nrf52832_xxAA_s132_6.0.0.dir/__/__/mesh/bearer/src/radio_config.c.obj
                0x0000000000032018                radio_config_reset
 .text.radio_config_channel_set
                0x0000000000032050       0x28 CMakeFiles/enocean_switch_nrf52832_xxAA_s132_6.0.0.dir/__/__/mesh/bearer/src/radio_config.c.obj
                0x0000000000032050                radio_config_channel_set
 .text.radio_config_config
                0x0000000000032078       0x94 CMakeFiles/enocean_switch_nrf52832_xxAA_s132_6.0.0.dir/__/__/mesh/bearer/src/radio_config.c.obj
                0x0000000000032078                radio_config_config
 .text.radio_config_access_addr_set
                0x000000000003210c       0x58 CMakeFiles/enocean_switch_nrf52832_xxAA_s132_6.0.0.dir/__/__/mesh/bearer/src/radio_config.c.obj
                0x000000000003210c                radio_config_access_addr_set
 .text.scan_window_end
                0x0000000000032164       0x28 CMakeFiles/enocean_switch_nrf52832_xxAA_s132_6.0.0.dir/__/__/mesh/bearer/src/scanner.c.obj
 .text.scan_window_start
                0x000000000003218c       0x38 CMakeFiles/enocean_switch_nrf52832_xxAA_s132_6.0.0.dir/__/__/mesh/bearer/src/scanner.c.obj
 .text.radio_start
                0x00000000000321c4      0x1a8 CMakeFiles/enocean_switch_nrf52832_xxAA_s132_6.0.0.dir/__/__/mesh/bearer/src/scanner.c.obj
 .text.scanner_radio_start
                0x000000000003236c      0x14c CMakeFiles/enocean_switch_nrf52832_xxAA_s132_6.0.0.dir/__/__/mesh/bearer/src/scanner.c.obj
                0x000000000003236c                scanner_radio_start
 .text.scanner_radio_stop
                0x00000000000324b8       0x34 CMakeFiles/enocean_switch_nrf52832_xxAA_s132_6.0.0.dir/__/__/mesh/bearer/src/scanner.c.obj
                0x00000000000324b8                scanner_radio_stop
 .text.scanner_radio_irq_handler
                0x00000000000324ec      0x200 CMakeFiles/enocean_switch_nrf52832_xxAA_s132_6.0.0.dir/__/__/mesh/bearer/src/scanner.c.obj
                0x00000000000324ec                scanner_radio_irq_handler
 .text.scanner_enable
                0x00000000000326ec       0x50 CMakeFiles/enocean_switch_nrf52832_xxAA_s132_6.0.0.dir/__/__/mesh/bearer/src/scanner.c.obj
                0x00000000000326ec                scanner_enable
 .text.scanner_rx
                0x000000000003273c       0x8c CMakeFiles/enocean_switch_nrf52832_xxAA_s132_6.0.0.dir/__/__/mesh/bearer/src/scanner.c.obj
                0x000000000003273c                scanner_rx
 .text.scanner_packet_release
                0x00000000000327c8       0x40 CMakeFiles/enocean_switch_nrf52832_xxAA_s132_6.0.0.dir/__/__/mesh/bearer/src/scanner.c.obj
                0x00000000000327c8                scanner_packet_release
 .text.scanner_rx_pending
                0x0000000000032808        0xc CMakeFiles/enocean_switch_nrf52832_xxAA_s132_6.0.0.dir/__/__/mesh/bearer/src/scanner.c.obj
                0x0000000000032808                scanner_rx_pending
 .text.scanner_config_reset
                0x0000000000032814       0xa4 CMakeFiles/enocean_switch_nrf52832_xxAA_s132_6.0.0.dir/__/__/mesh/bearer/src/scanner.c.obj
                0x0000000000032814                scanner_config_reset
 .text.scanner_init
                0x00000000000328b8       0x54 CMakeFiles/enocean_switch_nrf52832_xxAA_s132_6.0.0.dir/__/__/mesh/bearer/src/scanner.c.obj
                0x00000000000328b8                scanner_init
 .text.handle_publish_timeout
                0x000000000003290c        0x8 CMakeFiles/enocean_switch_nrf52832_xxAA_s132_6.0.0.dir/__/__/models/simple_on_off/src/simple_on_off_client.c.obj
 .text.reliable_status_cb
                0x0000000000032914       0x7c CMakeFiles/enocean_switch_nrf52832_xxAA_s132_6.0.0.dir/__/__/models/simple_on_off/src/simple_on_off_client.c.obj
 .text.handle_status_cb
                0x0000000000032990       0x58 CMakeFiles/enocean_switch_nrf52832_xxAA_s132_6.0.0.dir/__/__/models/simple_on_off/src/simple_on_off_client.c.obj
 .text.simple_on_off_client_init
                0x00000000000329e8       0x40 CMakeFiles/enocean_switch_nrf52832_xxAA_s132_6.0.0.dir/__/__/models/simple_on_off/src/simple_on_off_client.c.obj
                0x00000000000329e8                simple_on_off_client_init
 .text.simple_on_off_client_set
                0x0000000000032a28       0x74 CMakeFiles/enocean_switch_nrf52832_xxAA_s132_6.0.0.dir/__/__/models/simple_on_off/src/simple_on_off_client.c.obj
                0x0000000000032a28                simple_on_off_client_set
 .text.simple_on_off_client_set_unreliable
                0x0000000000032a9c       0x5c CMakeFiles/enocean_switch_nrf52832_xxAA_s132_6.0.0.dir/__/__/models/simple_on_off/src/simple_on_off_client.c.obj
                0x0000000000032a9c                simple_on_off_client_set_unreliable
 .text.config_composition_data_get
                0x0000000000032af8      0x1dc CMakeFiles/enocean_switch_nrf52832_xxAA_s132_6.0.0.dir/__/__/models/config/src/composition_data.c.obj
                0x0000000000032af8                config_composition_data_get
 .text.config_server_heartbeat_publication_count_decrement
                0x0000000000032cd4       0x1c CMakeFiles/enocean_switch_nrf52832_xxAA_s132_6.0.0.dir/__/__/models/config/src/config_server.c.obj
 .text.config_server_heartbeat_publication_params_get
                0x0000000000032cf0       0x38 CMakeFiles/enocean_switch_nrf52832_xxAA_s132_6.0.0.dir/__/__/models/config/src/config_server.c.obj
 .text.handle_config_network_transmit_set
                0x0000000000032d28      0x118 CMakeFiles/enocean_switch_nrf52832_xxAA_s132_6.0.0.dir/__/__/models/config/src/config_server.c.obj
 .text.handle_node_reset
                0x0000000000032e40       0x30 CMakeFiles/enocean_switch_nrf52832_xxAA_s132_6.0.0.dir/__/__/models/config/src/config_server.c.obj
 .text.handle_config_relay_set
                0x0000000000032e70      0x1a8 CMakeFiles/enocean_switch_nrf52832_xxAA_s132_6.0.0.dir/__/__/models/config/src/config_server.c.obj
 .text.handle_netkey_get
                0x0000000000033018       0x70 CMakeFiles/enocean_switch_nrf52832_xxAA_s132_6.0.0.dir/__/__/models/config/src/config_server.c.obj
 .text.handle_model_app_bind_unbind
                0x0000000000033088      0x234 CMakeFiles/enocean_switch_nrf52832_xxAA_s132_6.0.0.dir/__/__/models/config/src/config_server.c.obj
 .text.status_error_sub_send
                0x00000000000332bc      0x180 CMakeFiles/enocean_switch_nrf52832_xxAA_s132_6.0.0.dir/__/__/models/config/src/config_server.c.obj
 .text.send_publication_status
                0x000000000003343c      0x1a8 CMakeFiles/enocean_switch_nrf52832_xxAA_s132_6.0.0.dir/__/__/models/config/src/config_server.c.obj
 .text.handle_config_key_refresh_phase_set
                0x00000000000335e4       0xf0 CMakeFiles/enocean_switch_nrf52832_xxAA_s132_6.0.0.dir/__/__/models/config/src/config_server.c.obj
 .text.handle_config_default_ttl_set
                0x00000000000336d4       0x70 CMakeFiles/enocean_switch_nrf52832_xxAA_s132_6.0.0.dir/__/__/models/config/src/config_server.c.obj
 .text.handle_heartbeat_publication_set
                0x0000000000033744      0x168 CMakeFiles/enocean_switch_nrf52832_xxAA_s132_6.0.0.dir/__/__/models/config/src/config_server.c.obj
 .text.mesh_event_cb
                0x00000000000338ac       0x70 CMakeFiles/enocean_switch_nrf52832_xxAA_s132_6.0.0.dir/__/__/models/config/src/config_server.c.obj
 .text.handle_node_identity_set
                0x000000000003391c       0x48 CMakeFiles/enocean_switch_nrf52832_xxAA_s132_6.0.0.dir/__/__/models/config/src/config_server.c.obj
 .text.handle_node_identity_get
                0x0000000000033964       0x44 CMakeFiles/enocean_switch_nrf52832_xxAA_s132_6.0.0.dir/__/__/models/config/src/config_server.c.obj
 .text.handle_config_gatt_proxy_set
                0x00000000000339a8       0x40 CMakeFiles/enocean_switch_nrf52832_xxAA_s132_6.0.0.dir/__/__/models/config/src/config_server.c.obj
 .text.handle_config_friend_set
                0x00000000000339e8       0x40 CMakeFiles/enocean_switch_nrf52832_xxAA_s132_6.0.0.dir/__/__/models/config/src/config_server.c.obj
 .text.status_error_pub_send
                0x0000000000033a28       0xc8 CMakeFiles/enocean_switch_nrf52832_xxAA_s132_6.0.0.dir/__/__/models/config/src/config_server.c.obj
 .text.handle_config_key_refresh_phase_get
                0x0000000000033af0       0x70 CMakeFiles/enocean_switch_nrf52832_xxAA_s132_6.0.0.dir/__/__/models/config/src/config_server.c.obj
 .text.handle_config_default_ttl_get
                0x0000000000033b60       0x48 CMakeFiles/enocean_switch_nrf52832_xxAA_s132_6.0.0.dir/__/__/models/config/src/config_server.c.obj
 .text.handle_config_beacon_set
                0x0000000000033ba8       0x80 CMakeFiles/enocean_switch_nrf52832_xxAA_s132_6.0.0.dir/__/__/models/config/src/config_server.c.obj
 .text.handle_composition_data_get
                0x0000000000033c28       0x64 CMakeFiles/enocean_switch_nrf52832_xxAA_s132_6.0.0.dir/__/__/models/config/src/config_server.c.obj
 .text.handle_appkey_update
                0x0000000000033c8c      0x108 CMakeFiles/enocean_switch_nrf52832_xxAA_s132_6.0.0.dir/__/__/models/config/src/config_server.c.obj
 .text.handle_model_app_get
                0x0000000000033d94      0x220 CMakeFiles/enocean_switch_nrf52832_xxAA_s132_6.0.0.dir/__/__/models/config/src/config_server.c.obj
 .text.handle_appkey_get
                0x0000000000033fb4      0x100 CMakeFiles/enocean_switch_nrf52832_xxAA_s132_6.0.0.dir/__/__/models/config/src/config_server.c.obj
 .text.handle_heartbeat_subscription_get
                0x00000000000340b4       0xdc CMakeFiles/enocean_switch_nrf52832_xxAA_s132_6.0.0.dir/__/__/models/config/src/config_server.c.obj
 .text.handle_config_friend_get
                0x0000000000034190       0x38 CMakeFiles/enocean_switch_nrf52832_xxAA_s132_6.0.0.dir/__/__/models/config/src/config_server.c.obj
 .text.handle_config_gatt_proxy_get
                0x00000000000341c8       0x38 CMakeFiles/enocean_switch_nrf52832_xxAA_s132_6.0.0.dir/__/__/models/config/src/config_server.c.obj
 .text.handle_heartbeat_subscription_set
                0x0000000000034200      0x114 CMakeFiles/enocean_switch_nrf52832_xxAA_s132_6.0.0.dir/__/__/models/config/src/config_server.c.obj
 .text.handle_heartbeat_publication_get
                0x0000000000034314       0xcc CMakeFiles/enocean_switch_nrf52832_xxAA_s132_6.0.0.dir/__/__/models/config/src/config_server.c.obj
 .text.handle_config_beacon_get
                0x00000000000343e0       0x40 CMakeFiles/enocean_switch_nrf52832_xxAA_s132_6.0.0.dir/__/__/models/config/src/config_server.c.obj
 .text.handle_appkey_delete
                0x0000000000034420      0x11c CMakeFiles/enocean_switch_nrf52832_xxAA_s132_6.0.0.dir/__/__/models/config/src/config_server.c.obj
 .text.handle_appkey_add
                0x000000000003453c      0x124 CMakeFiles/enocean_switch_nrf52832_xxAA_s132_6.0.0.dir/__/__/models/config/src/config_server.c.obj
 .text.handle_config_vendor_model_subscription_get
                0x0000000000034660      0x194 CMakeFiles/enocean_switch_nrf52832_xxAA_s132_6.0.0.dir/__/__/models/config/src/config_server.c.obj
 .text.handle_netkey_add_update
                0x00000000000347f4       0xec CMakeFiles/enocean_switch_nrf52832_xxAA_s132_6.0.0.dir/__/__/models/config/src/config_server.c.obj
 .text.handle_netkey_delete
                0x00000000000348e0      0x14c CMakeFiles/enocean_switch_nrf52832_xxAA_s132_6.0.0.dir/__/__/models/config/src/config_server.c.obj
 .text.handle_config_network_transmit_get
                0x0000000000034a2c       0x94 CMakeFiles/enocean_switch_nrf52832_xxAA_s132_6.0.0.dir/__/__/models/config/src/config_server.c.obj
 .text.handle_config_model_publication_get
                0x0000000000034ac0      0x150 CMakeFiles/enocean_switch_nrf52832_xxAA_s132_6.0.0.dir/__/__/models/config/src/config_server.c.obj
 .text.handle_config_relay_get
                0x0000000000034c10       0xcc CMakeFiles/enocean_switch_nrf52832_xxAA_s132_6.0.0.dir/__/__/models/config/src/config_server.c.obj
 .text.handle_config_model_publication_set
                0x0000000000034cdc      0x3d4 CMakeFiles/enocean_switch_nrf52832_xxAA_s132_6.0.0.dir/__/__/models/config/src/config_server.c.obj
 .text.handle_config_model_subscription_delete_all
                0x00000000000350b0      0x2fc CMakeFiles/enocean_switch_nrf52832_xxAA_s132_6.0.0.dir/__/__/models/config/src/config_server.c.obj
 .text.handle_config_model_subscription_virtual_address_delete
                0x00000000000353ac      0x2f0 CMakeFiles/enocean_switch_nrf52832_xxAA_s132_6.0.0.dir/__/__/models/config/src/config_server.c.obj
 .text.handle_config_model_subscription_virtual_address_add
                0x000000000003569c      0x2cc CMakeFiles/enocean_switch_nrf52832_xxAA_s132_6.0.0.dir/__/__/models/config/src/config_server.c.obj
 .text.handle_config_model_subscription_delete
                0x0000000000035968      0x2e4 CMakeFiles/enocean_switch_nrf52832_xxAA_s132_6.0.0.dir/__/__/models/config/src/config_server.c.obj
 .text.handle_config_model_subscription_add
                0x0000000000035c4c      0x2e4 CMakeFiles/enocean_switch_nrf52832_xxAA_s132_6.0.0.dir/__/__/models/config/src/config_server.c.obj
 .text.handle_config_model_subscription_virtual_address_overwrite
                0x0000000000035f30      0x374 CMakeFiles/enocean_switch_nrf52832_xxAA_s132_6.0.0.dir/__/__/models/config/src/config_server.c.obj
 .text.handle_config_model_subscription_overwrite
                0x00000000000362a4      0x370 CMakeFiles/enocean_switch_nrf52832_xxAA_s132_6.0.0.dir/__/__/models/config/src/config_server.c.obj
 .text.handle_config_sig_model_subscription_get
                0x0000000000036614      0x2a8 CMakeFiles/enocean_switch_nrf52832_xxAA_s132_6.0.0.dir/__/__/models/config/src/config_server.c.obj
 .text.config_server_init
                0x00000000000368bc       0x70 CMakeFiles/enocean_switch_nrf52832_xxAA_s132_6.0.0.dir/__/__/models/config/src/config_server.c.obj
                0x00000000000368bc                config_server_init
 .text.config_server_bind
                0x000000000003692c       0x10 CMakeFiles/enocean_switch_nrf52832_xxAA_s132_6.0.0.dir/__/__/models/config/src/config_server.c.obj
                0x000000000003692c                config_server_bind
 .text.packed_index_list_create
                0x000000000003693c       0x3c CMakeFiles/enocean_switch_nrf52832_xxAA_s132_6.0.0.dir/__/__/models/config/src/packed_index_list.c.obj
                0x000000000003693c                packed_index_list_create
 .text.attention_timer_handler
                0x0000000000036978       0x6c CMakeFiles/enocean_switch_nrf52832_xxAA_s132_6.0.0.dir/__/__/models/health/src/health_server.c.obj
 .text.handle_attention_get
                0x00000000000369e4       0x40 CMakeFiles/enocean_switch_nrf52832_xxAA_s132_6.0.0.dir/__/__/models/health/src/health_server.c.obj
 .text.handle_period_get
                0x0000000000036a24       0x3c CMakeFiles/enocean_switch_nrf52832_xxAA_s132_6.0.0.dir/__/__/models/health/src/health_server.c.obj
 .text.handle_attention_set
                0x0000000000036a60       0xdc CMakeFiles/enocean_switch_nrf52832_xxAA_s132_6.0.0.dir/__/__/models/health/src/health_server.c.obj
 .text.handle_period_set
                0x0000000000036b3c       0x54 CMakeFiles/enocean_switch_nrf52832_xxAA_s132_6.0.0.dir/__/__/models/health/src/health_server.c.obj
 .text.send_fault_status
                0x0000000000036b90      0x3b4 CMakeFiles/enocean_switch_nrf52832_xxAA_s132_6.0.0.dir/__/__/models/health/src/health_server.c.obj
 .text.health_publish_timeout_handler
                0x0000000000036f44        0xc CMakeFiles/enocean_switch_nrf52832_xxAA_s132_6.0.0.dir/__/__/models/health/src/health_server.c.obj
 .text.handle_fault_test
                0x0000000000036f50       0x8c CMakeFiles/enocean_switch_nrf52832_xxAA_s132_6.0.0.dir/__/__/models/health/src/health_server.c.obj
 .text.handle_fault_clear
                0x0000000000036fdc       0x54 CMakeFiles/enocean_switch_nrf52832_xxAA_s132_6.0.0.dir/__/__/models/health/src/health_server.c.obj
 .text.handle_fault_get
                0x0000000000037030       0x40 CMakeFiles/enocean_switch_nrf52832_xxAA_s132_6.0.0.dir/__/__/models/health/src/health_server.c.obj
 .text.health_server_init
                0x0000000000037070       0x68 CMakeFiles/enocean_switch_nrf52832_xxAA_s132_6.0.0.dir/__/__/models/health/src/health_server.c.obj
                0x0000000000037070                health_server_init
 .text.schedule_publication_timer
                0x00000000000370d8      0x2d0 CMakeFiles/enocean_switch_nrf52832_xxAA_s132_6.0.0.dir/__/__/mesh/access/src/access_publish.c.obj
 .text.publish_timer_tick
                0x00000000000373a8      0x140 CMakeFiles/enocean_switch_nrf52832_xxAA_s132_6.0.0.dir/__/__/mesh/access/src/access_publish.c.obj
 .text.access_publish_init
                0x00000000000374e8       0x38 CMakeFiles/enocean_switch_nrf52832_xxAA_s132_6.0.0.dir/__/__/mesh/access/src/access_publish.c.obj
                0x00000000000374e8                access_publish_init
 .text.access_publish_period_set
                0x0000000000037520      0x118 CMakeFiles/enocean_switch_nrf52832_xxAA_s132_6.0.0.dir/__/__/mesh/access/src/access_publish.c.obj
                0x0000000000037520                access_publish_period_set
 .text.access_publish_period_get
                0x0000000000037638       0x2c CMakeFiles/enocean_switch_nrf52832_xxAA_s132_6.0.0.dir/__/__/mesh/access/src/access_publish.c.obj
                0x0000000000037638                access_publish_period_get
 .text.flash_manager_mem_available
                0x0000000000037664        0x4 CMakeFiles/enocean_switch_nrf52832_xxAA_s132_6.0.0.dir/__/__/mesh/access/src/access.c.obj
 .text.flash_invalidate_complete
                0x0000000000037668        0x8 CMakeFiles/enocean_switch_nrf52832_xxAA_s132_6.0.0.dir/__/__/mesh/access/src/access.c.obj
 .text.access_flash_config_clear
                0x0000000000037670       0x28 CMakeFiles/enocean_switch_nrf52832_xxAA_s132_6.0.0.dir/__/__/mesh/access/src/access.c.obj
 .text.access_flash_config_store
                0x0000000000037698      0x43c CMakeFiles/enocean_switch_nrf52832_xxAA_s132_6.0.0.dir/__/__/mesh/access/src/access.c.obj
                0x0000000000037698                access_flash_config_store
 .text.handle_incoming
                0x0000000000037ad4      0x198 CMakeFiles/enocean_switch_nrf52832_xxAA_s132_6.0.0.dir/__/__/mesh/access/src/access.c.obj
 .text.mesh_evt_cb
                0x0000000000037c6c      0x158 CMakeFiles/enocean_switch_nrf52832_xxAA_s132_6.0.0.dir/__/__/mesh/access/src/access.c.obj
 .text.add_flash_manager
                0x0000000000037dc4       0x58 CMakeFiles/enocean_switch_nrf52832_xxAA_s132_6.0.0.dir/__/__/mesh/access/src/access.c.obj
 .text.flash_write_complete
                0x0000000000037e1c       0x4c CMakeFiles/enocean_switch_nrf52832_xxAA_s132_6.0.0.dir/__/__/mesh/access/src/access.c.obj
 .text.flash_remove_complete
                0x0000000000037e68      0x158 CMakeFiles/enocean_switch_nrf52832_xxAA_s132_6.0.0.dir/__/__/mesh/access/src/access.c.obj
 .text.access_flash_config_load
                0x0000000000037fc0      0x2d0 CMakeFiles/enocean_switch_nrf52832_xxAA_s132_6.0.0.dir/__/__/mesh/access/src/access.c.obj
                0x0000000000037fc0                access_flash_config_load
 .text.access_clear
                0x0000000000038290       0x88 CMakeFiles/enocean_switch_nrf52832_xxAA_s132_6.0.0.dir/__/__/mesh/access/src/access.c.obj
                0x0000000000038290                access_clear
 .text.access_init
                0x0000000000038318       0xd0 CMakeFiles/enocean_switch_nrf52832_xxAA_s132_6.0.0.dir/__/__/mesh/access/src/access.c.obj
                0x0000000000038318                access_init
 .text.access_model_add
                0x00000000000383e8      0x2ec CMakeFiles/enocean_switch_nrf52832_xxAA_s132_6.0.0.dir/__/__/mesh/access/src/access.c.obj
                0x00000000000383e8                access_model_add
 .text.access_model_publish
                0x00000000000386d4      0x3c8 CMakeFiles/enocean_switch_nrf52832_xxAA_s132_6.0.0.dir/__/__/mesh/access/src/access.c.obj
                0x00000000000386d4                access_model_publish
 .text.access_model_reply
                0x0000000000038a9c      0x3e4 CMakeFiles/enocean_switch_nrf52832_xxAA_s132_6.0.0.dir/__/__/mesh/access/src/access.c.obj
                0x0000000000038a9c                access_model_reply
 .text.access_model_publish_address_set
                0x0000000000038e80       0x3c CMakeFiles/enocean_switch_nrf52832_xxAA_s132_6.0.0.dir/__/__/mesh/access/src/access.c.obj
                0x0000000000038e80                access_model_publish_address_set
 .text.access_model_publish_address_get
                0x0000000000038ebc       0x2c CMakeFiles/enocean_switch_nrf52832_xxAA_s132_6.0.0.dir/__/__/mesh/access/src/access.c.obj
                0x0000000000038ebc                access_model_publish_address_get
 .text.access_model_publish_retransmit_set
                0x0000000000038ee8       0x58 CMakeFiles/enocean_switch_nrf52832_xxAA_s132_6.0.0.dir/__/__/mesh/access/src/access.c.obj
                0x0000000000038ee8                access_model_publish_retransmit_set
 .text.access_model_publish_retransmit_get
                0x0000000000038f40       0x2c CMakeFiles/enocean_switch_nrf52832_xxAA_s132_6.0.0.dir/__/__/mesh/access/src/access.c.obj
                0x0000000000038f40                access_model_publish_retransmit_get
 .text.access_model_publish_period_set
                0x0000000000038f6c       0x78 CMakeFiles/enocean_switch_nrf52832_xxAA_s132_6.0.0.dir/__/__/mesh/access/src/access.c.obj
                0x0000000000038f6c                access_model_publish_period_set
 .text.access_model_publish_period_get
                0x0000000000038fe4       0x40 CMakeFiles/enocean_switch_nrf52832_xxAA_s132_6.0.0.dir/__/__/mesh/access/src/access.c.obj
                0x0000000000038fe4                access_model_publish_period_get
 .text.access_model_subscription_list_alloc
                0x0000000000039024       0x84 CMakeFiles/enocean_switch_nrf52832_xxAA_s132_6.0.0.dir/__/__/mesh/access/src/access.c.obj
                0x0000000000039024                access_model_subscription_list_alloc
 .text.access_model_subscription_add
                0x00000000000390a8       0x64 CMakeFiles/enocean_switch_nrf52832_xxAA_s132_6.0.0.dir/__/__/mesh/access/src/access.c.obj
                0x00000000000390a8                access_model_subscription_add
 .text.access_model_subscription_remove
                0x000000000003910c       0x60 CMakeFiles/enocean_switch_nrf52832_xxAA_s132_6.0.0.dir/__/__/mesh/access/src/access.c.obj
                0x000000000003910c                access_model_subscription_remove
 .text.access_model_subscriptions_get
                0x000000000003916c       0x78 CMakeFiles/enocean_switch_nrf52832_xxAA_s132_6.0.0.dir/__/__/mesh/access/src/access.c.obj
                0x000000000003916c                access_model_subscriptions_get
 .text.access_model_application_bind
                0x00000000000391e4       0x5c CMakeFiles/enocean_switch_nrf52832_xxAA_s132_6.0.0.dir/__/__/mesh/access/src/access.c.obj
                0x00000000000391e4                access_model_application_bind
 .text.access_model_application_unbind
                0x0000000000039240       0x58 CMakeFiles/enocean_switch_nrf52832_xxAA_s132_6.0.0.dir/__/__/mesh/access/src/access.c.obj
                0x0000000000039240                access_model_application_unbind
 .text.access_model_applications_get
                0x0000000000039298      0x100 CMakeFiles/enocean_switch_nrf52832_xxAA_s132_6.0.0.dir/__/__/mesh/access/src/access.c.obj
                0x0000000000039298                access_model_applications_get
 .text.access_model_publish_application_set
                0x0000000000039398       0x3c CMakeFiles/enocean_switch_nrf52832_xxAA_s132_6.0.0.dir/__/__/mesh/access/src/access.c.obj
                0x0000000000039398                access_model_publish_application_set
 .text.access_model_publish_application_get
                0x00000000000393d4       0x2c CMakeFiles/enocean_switch_nrf52832_xxAA_s132_6.0.0.dir/__/__/mesh/access/src/access.c.obj
                0x00000000000393d4                access_model_publish_application_get
 .text.access_default_ttl_set
                0x0000000000039400       0x1c CMakeFiles/enocean_switch_nrf52832_xxAA_s132_6.0.0.dir/__/__/mesh/access/src/access.c.obj
                0x0000000000039400                access_default_ttl_set
 .text.access_default_ttl_get
                0x000000000003941c        0xc CMakeFiles/enocean_switch_nrf52832_xxAA_s132_6.0.0.dir/__/__/mesh/access/src/access.c.obj
                0x000000000003941c                access_default_ttl_get
 .text.access_model_publish_ttl_set
                0x0000000000039428       0x40 CMakeFiles/enocean_switch_nrf52832_xxAA_s132_6.0.0.dir/__/__/mesh/access/src/access.c.obj
                0x0000000000039428                access_model_publish_ttl_set
 .text.access_model_publish_ttl_get
                0x0000000000039468       0x2c CMakeFiles/enocean_switch_nrf52832_xxAA_s132_6.0.0.dir/__/__/mesh/access/src/access.c.obj
                0x0000000000039468                access_model_publish_ttl_get
 .text.access_element_location_get
                0x0000000000039494       0x24 CMakeFiles/enocean_switch_nrf52832_xxAA_s132_6.0.0.dir/__/__/mesh/access/src/access.c.obj
                0x0000000000039494                access_element_location_get
 .text.access_element_sig_model_count_get
                0x00000000000394b8       0x24 CMakeFiles/enocean_switch_nrf52832_xxAA_s132_6.0.0.dir/__/__/mesh/access/src/access.c.obj
                0x00000000000394b8                access_element_sig_model_count_get
 .text.access_element_vendor_model_count_get
                0x00000000000394dc       0x24 CMakeFiles/enocean_switch_nrf52832_xxAA_s132_6.0.0.dir/__/__/mesh/access/src/access.c.obj
                0x00000000000394dc                access_element_vendor_model_count_get
 .text.access_model_id_get
                0x0000000000039500       0x40 CMakeFiles/enocean_switch_nrf52832_xxAA_s132_6.0.0.dir/__/__/mesh/access/src/access.c.obj
                0x0000000000039500                access_model_id_get
 .text.access_handle_get
                0x0000000000039540       0xd8 CMakeFiles/enocean_switch_nrf52832_xxAA_s132_6.0.0.dir/__/__/mesh/access/src/access.c.obj
                0x0000000000039540                access_handle_get
 .text.access_element_models_get
                0x0000000000039618       0xf8 CMakeFiles/enocean_switch_nrf52832_xxAA_s132_6.0.0.dir/__/__/mesh/access/src/access.c.obj
                0x0000000000039618                access_element_models_get
 .text.access_model_p_args_get
                0x0000000000039710       0x2c CMakeFiles/enocean_switch_nrf52832_xxAA_s132_6.0.0.dir/__/__/mesh/access/src/access.c.obj
                0x0000000000039710                access_model_p_args_get
 .text.access_model_publication_stop
                0x000000000003973c       0x5c CMakeFiles/enocean_switch_nrf52832_xxAA_s132_6.0.0.dir/__/__/mesh/access/src/access.c.obj
                0x000000000003973c                access_model_publication_stop
 .text.access_model_publication_by_appkey_stop
                0x0000000000039798      0x1b8 CMakeFiles/enocean_switch_nrf52832_xxAA_s132_6.0.0.dir/__/__/mesh/access/src/access.c.obj
                0x0000000000039798                access_model_publication_by_appkey_stop
 .text.remove_and_reschedule
                0x0000000000039950      0x12c CMakeFiles/enocean_switch_nrf52832_xxAA_s132_6.0.0.dir/__/__/mesh/access/src/access_reliable.c.obj
 .text.reliable_timer_cb
                0x0000000000039a7c      0x128 CMakeFiles/enocean_switch_nrf52832_xxAA_s132_6.0.0.dir/__/__/mesh/access/src/access_reliable.c.obj
 .text.access_reliable_message_rx_cb
                0x0000000000039ba4       0xb4 CMakeFiles/enocean_switch_nrf52832_xxAA_s132_6.0.0.dir/__/__/mesh/access/src/access_reliable.c.obj
                0x0000000000039ba4                access_reliable_message_rx_cb
 .text.access_reliable_init
                0x0000000000039c58       0x20 CMakeFiles/enocean_switch_nrf52832_xxAA_s132_6.0.0.dir/__/__/mesh/access/src/access_reliable.c.obj
                0x0000000000039c58                access_reliable_init
 .text.access_reliable_cancel_all
                0x0000000000039c78      0x1b4 CMakeFiles/enocean_switch_nrf52832_xxAA_s132_6.0.0.dir/__/__/mesh/access/src/access_reliable.c.obj
                0x0000000000039c78                access_reliable_cancel_all
 .text.access_model_reliable_cancel
                0x0000000000039e2c       0xbc CMakeFiles/enocean_switch_nrf52832_xxAA_s132_6.0.0.dir/__/__/mesh/access/src/access_reliable.c.obj
                0x0000000000039e2c                access_model_reliable_cancel
 .text.access_model_reliable_publish
                0x0000000000039ee8      0x2c4 CMakeFiles/enocean_switch_nrf52832_xxAA_s132_6.0.0.dir/__/__/mesh/access/src/access_reliable.c.obj
                0x0000000000039ee8                access_model_reliable_publish
 .text.addr_nonvirtual_to_dsm_entry
                0x000000000003a1ac       0x48 CMakeFiles/enocean_switch_nrf52832_xxAA_s132_6.0.0.dir/__/__/mesh/access/src/device_state_manager.c.obj
 .text.addr_nonvirtual_to_flash_entry
                0x000000000003a1f4       0x10 CMakeFiles/enocean_switch_nrf52832_xxAA_s132_6.0.0.dir/__/__/mesh/access/src/device_state_manager.c.obj
 .text.devkey_to_flash_entry
                0x000000000003a204       0x28 CMakeFiles/enocean_switch_nrf52832_xxAA_s132_6.0.0.dir/__/__/mesh/access/src/device_state_manager.c.obj
 .text.addr_virtual_to_flash_entry
                0x000000000003a22c       0x18 CMakeFiles/enocean_switch_nrf52832_xxAA_s132_6.0.0.dir/__/__/mesh/access/src/device_state_manager.c.obj
 .text.addr_unicast_to_dsm_entry
                0x000000000003a244        0xc CMakeFiles/enocean_switch_nrf52832_xxAA_s132_6.0.0.dir/__/__/mesh/access/src/device_state_manager.c.obj
 .text.addr_unicast_to_flash_entry
                0x000000000003a250       0x10 CMakeFiles/enocean_switch_nrf52832_xxAA_s132_6.0.0.dir/__/__/mesh/access/src/device_state_manager.c.obj
 .text.flash_mem_listener_callback
                0x000000000003a260       0x1c CMakeFiles/enocean_switch_nrf52832_xxAA_s132_6.0.0.dir/__/__/mesh/access/src/device_state_manager.c.obj
 .text.appkey_to_flash_entry
                0x000000000003a27c       0x54 CMakeFiles/enocean_switch_nrf52832_xxAA_s132_6.0.0.dir/__/__/mesh/access/src/device_state_manager.c.obj
 .text.subnet_to_flash_entry
                0x000000000003a2d0       0x60 CMakeFiles/enocean_switch_nrf52832_xxAA_s132_6.0.0.dir/__/__/mesh/access/src/device_state_manager.c.obj
 .text.reset_flash_area
                0x000000000003a330       0x28 CMakeFiles/enocean_switch_nrf52832_xxAA_s132_6.0.0.dir/__/__/mesh/access/src/device_state_manager.c.obj
 .text.build_flash_area
                0x000000000003a358       0x90 CMakeFiles/enocean_switch_nrf52832_xxAA_s132_6.0.0.dir/__/__/mesh/access/src/device_state_manager.c.obj
 .text.flash_invalidate_complete
                0x000000000003a3e8       0x54 CMakeFiles/enocean_switch_nrf52832_xxAA_s132_6.0.0.dir/__/__/mesh/access/src/device_state_manager.c.obj
 .text.flash_write_complete
                0x000000000003a43c       0x50 CMakeFiles/enocean_switch_nrf52832_xxAA_s132_6.0.0.dir/__/__/mesh/access/src/device_state_manager.c.obj
 .text.devkey_to_dsm_entry
                0x000000000003a48c       0x70 CMakeFiles/enocean_switch_nrf52832_xxAA_s132_6.0.0.dir/__/__/mesh/access/src/device_state_manager.c.obj
 .text.addr_virtual_to_dsm_entry
                0x000000000003a4fc       0x60 CMakeFiles/enocean_switch_nrf52832_xxAA_s132_6.0.0.dir/__/__/mesh/access/src/device_state_manager.c.obj
 .text.appkey_to_dsm_entry
                0x000000000003a55c       0xf4 CMakeFiles/enocean_switch_nrf52832_xxAA_s132_6.0.0.dir/__/__/mesh/access/src/device_state_manager.c.obj
 .text.subnet_to_dsm_entry
                0x000000000003a650      0x11c CMakeFiles/enocean_switch_nrf52832_xxAA_s132_6.0.0.dir/__/__/mesh/access/src/device_state_manager.c.obj
 .text.flash_remove_complete
                0x000000000003a76c       0x90 CMakeFiles/enocean_switch_nrf52832_xxAA_s132_6.0.0.dir/__/__/mesh/access/src/device_state_manager.c.obj
 .text.address_delete_if_unused
                0x000000000003a7fc       0xf4 CMakeFiles/enocean_switch_nrf52832_xxAA_s132_6.0.0.dir/__/__/mesh/access/src/device_state_manager.c.obj
 .text.flash_update_all
                0x000000000003a8f0      0x184 CMakeFiles/enocean_switch_nrf52832_xxAA_s132_6.0.0.dir/__/__/mesh/access/src/device_state_manager.c.obj
 .text.mesh_evt_handler
                0x000000000003aa74      0x258 CMakeFiles/enocean_switch_nrf52832_xxAA_s132_6.0.0.dir/__/__/mesh/access/src/device_state_manager.c.obj
 .text.dsm_flash_config_load
                0x000000000003accc      0x1f8 CMakeFiles/enocean_switch_nrf52832_xxAA_s132_6.0.0.dir/__/__/mesh/access/src/device_state_manager.c.obj
                0x000000000003accc                dsm_flash_config_load
 .text.dsm_flash_area_get
                0x000000000003aec4        0xc CMakeFiles/enocean_switch_nrf52832_xxAA_s132_6.0.0.dir/__/__/mesh/access/src/device_state_manager.c.obj
                0x000000000003aec4                dsm_flash_area_get
 .text.dsm_clear
                0x000000000003aed0      0x100 CMakeFiles/enocean_switch_nrf52832_xxAA_s132_6.0.0.dir/__/__/mesh/access/src/device_state_manager.c.obj
                0x000000000003aed0                dsm_clear
 .text.dsm_init
                0x000000000003afd0       0xbc CMakeFiles/enocean_switch_nrf52832_xxAA_s132_6.0.0.dir/__/__/mesh/access/src/device_state_manager.c.obj
                0x000000000003afd0                dsm_init
 .text.dsm_local_unicast_addresses_set
                0x000000000003b08c       0xbc CMakeFiles/enocean_switch_nrf52832_xxAA_s132_6.0.0.dir/__/__/mesh/access/src/device_state_manager.c.obj
                0x000000000003b08c                dsm_local_unicast_addresses_set
 .text.dsm_local_unicast_addresses_get
                0x000000000003b148       0x20 CMakeFiles/enocean_switch_nrf52832_xxAA_s132_6.0.0.dir/__/__/mesh/access/src/device_state_manager.c.obj
                0x000000000003b148                dsm_local_unicast_addresses_get
 .text.dsm_address_publish_add
                0x000000000003b168      0x318 CMakeFiles/enocean_switch_nrf52832_xxAA_s132_6.0.0.dir/__/__/mesh/access/src/device_state_manager.c.obj
                0x000000000003b168                dsm_address_publish_add
 .text.dsm_address_publish_add_handle
                0x000000000003b480       0x54 CMakeFiles/enocean_switch_nrf52832_xxAA_s132_6.0.0.dir/__/__/mesh/access/src/device_state_manager.c.obj
                0x000000000003b480                dsm_address_publish_add_handle
 .text.dsm_address_publish_virtual_add
                0x000000000003b4d4      0x2b4 CMakeFiles/enocean_switch_nrf52832_xxAA_s132_6.0.0.dir/__/__/mesh/access/src/device_state_manager.c.obj
                0x000000000003b4d4                dsm_address_publish_virtual_add
 .text.dsm_address_publish_remove
                0x000000000003b788       0xcc CMakeFiles/enocean_switch_nrf52832_xxAA_s132_6.0.0.dir/__/__/mesh/access/src/device_state_manager.c.obj
                0x000000000003b788                dsm_address_publish_remove
 .text.dsm_address_subscription_add
                0x000000000003b854      0x354 CMakeFiles/enocean_switch_nrf52832_xxAA_s132_6.0.0.dir/__/__/mesh/access/src/device_state_manager.c.obj
                0x000000000003b854                dsm_address_subscription_add
 .text.dsm_address_subscription_virtual_add
                0x000000000003bba8      0x2b4 CMakeFiles/enocean_switch_nrf52832_xxAA_s132_6.0.0.dir/__/__/mesh/access/src/device_state_manager.c.obj
                0x000000000003bba8                dsm_address_subscription_virtual_add
 .text.dsm_address_subscription_add_handle
                0x000000000003be5c       0x54 CMakeFiles/enocean_switch_nrf52832_xxAA_s132_6.0.0.dir/__/__/mesh/access/src/device_state_manager.c.obj
                0x000000000003be5c                dsm_address_subscription_add_handle
 .text.dsm_address_subscription_get
                0x000000000003beb0       0x5c CMakeFiles/enocean_switch_nrf52832_xxAA_s132_6.0.0.dir/__/__/mesh/access/src/device_state_manager.c.obj
                0x000000000003beb0                dsm_address_subscription_get
 .text.dsm_address_subscription_remove
                0x000000000003bf0c       0x90 CMakeFiles/enocean_switch_nrf52832_xxAA_s132_6.0.0.dir/__/__/mesh/access/src/device_state_manager.c.obj
                0x000000000003bf0c                dsm_address_subscription_remove
 .text.dsm_address_get
                0x000000000003bf9c       0x78 CMakeFiles/enocean_switch_nrf52832_xxAA_s132_6.0.0.dir/__/__/mesh/access/src/device_state_manager.c.obj
                0x000000000003bf9c                dsm_address_get
 .text.dsm_address_handle_get
                0x000000000003c014      0x3a4 CMakeFiles/enocean_switch_nrf52832_xxAA_s132_6.0.0.dir/__/__/mesh/access/src/device_state_manager.c.obj
                0x000000000003c014                dsm_address_handle_get
 .text.dsm_net_key_index_to_subnet_handle
                0x000000000003c3b8       0x5c CMakeFiles/enocean_switch_nrf52832_xxAA_s132_6.0.0.dir/__/__/mesh/access/src/device_state_manager.c.obj
                0x000000000003c3b8                dsm_net_key_index_to_subnet_handle
 .text.dsm_subnet_handle_get
                0x000000000003c414       0xa8 CMakeFiles/enocean_switch_nrf52832_xxAA_s132_6.0.0.dir/__/__/mesh/access/src/device_state_manager.c.obj
                0x000000000003c414                dsm_subnet_handle_get
 .text.dsm_appkey_index_to_appkey_handle
                0x000000000003c4bc       0xa0 CMakeFiles/enocean_switch_nrf52832_xxAA_s132_6.0.0.dir/__/__/mesh/access/src/device_state_manager.c.obj
                0x000000000003c4bc                dsm_appkey_index_to_appkey_handle
 .text.dsm_appkey_handle_get
                0x000000000003c55c       0x44 CMakeFiles/enocean_switch_nrf52832_xxAA_s132_6.0.0.dir/__/__/mesh/access/src/device_state_manager.c.obj
                0x000000000003c55c                dsm_appkey_handle_get
 .text.dsm_appkey_handle_to_appkey_index
                0x000000000003c5a0       0x34 CMakeFiles/enocean_switch_nrf52832_xxAA_s132_6.0.0.dir/__/__/mesh/access/src/device_state_manager.c.obj
                0x000000000003c5a0                dsm_appkey_handle_to_appkey_index
 .text.dsm_appkey_handle_to_subnet_handle
                0x000000000003c5d4       0xb8 CMakeFiles/enocean_switch_nrf52832_xxAA_s132_6.0.0.dir/__/__/mesh/access/src/device_state_manager.c.obj
                0x000000000003c5d4                dsm_appkey_handle_to_subnet_handle
 .text.dsm_subnet_add
                0x000000000003c68c      0x210 CMakeFiles/enocean_switch_nrf52832_xxAA_s132_6.0.0.dir/__/__/mesh/access/src/device_state_manager.c.obj
                0x000000000003c68c                dsm_subnet_add
 .text.dsm_subnet_kr_phase_get
                0x000000000003c89c       0x30 CMakeFiles/enocean_switch_nrf52832_xxAA_s132_6.0.0.dir/__/__/mesh/access/src/device_state_manager.c.obj
                0x000000000003c89c                dsm_subnet_kr_phase_get
 .text.dsm_subnet_update
                0x000000000003c8cc      0x118 CMakeFiles/enocean_switch_nrf52832_xxAA_s132_6.0.0.dir/__/__/mesh/access/src/device_state_manager.c.obj
                0x000000000003c8cc                dsm_subnet_update
 .text.dsm_subnet_update_swap_keys
                0x000000000003c9e4       0xa8 CMakeFiles/enocean_switch_nrf52832_xxAA_s132_6.0.0.dir/__/__/mesh/access/src/device_state_manager.c.obj
                0x000000000003c9e4                dsm_subnet_update_swap_keys
 .text.dsm_subnet_update_commit
                0x000000000003ca8c      0x1b8 CMakeFiles/enocean_switch_nrf52832_xxAA_s132_6.0.0.dir/__/__/mesh/access/src/device_state_manager.c.obj
                0x000000000003ca8c                dsm_subnet_update_commit
 .text.dsm_subnet_delete
                0x000000000003cc44      0x330 CMakeFiles/enocean_switch_nrf52832_xxAA_s132_6.0.0.dir/__/__/mesh/access/src/device_state_manager.c.obj
                0x000000000003cc44                dsm_subnet_delete
 .text.dsm_subnet_get_all
                0x000000000003cf74       0x90 CMakeFiles/enocean_switch_nrf52832_xxAA_s132_6.0.0.dir/__/__/mesh/access/src/device_state_manager.c.obj
                0x000000000003cf74                dsm_subnet_get_all
 .text.dsm_devkey_add
                0x000000000003d004      0x108 CMakeFiles/enocean_switch_nrf52832_xxAA_s132_6.0.0.dir/__/__/mesh/access/src/device_state_manager.c.obj
                0x000000000003d004                dsm_devkey_add
 .text.dsm_appkey_add
                0x000000000003d10c      0x288 CMakeFiles/enocean_switch_nrf52832_xxAA_s132_6.0.0.dir/__/__/mesh/access/src/device_state_manager.c.obj
                0x000000000003d10c                dsm_appkey_add
 .text.dsm_appkey_update
                0x000000000003d394       0xf8 CMakeFiles/enocean_switch_nrf52832_xxAA_s132_6.0.0.dir/__/__/mesh/access/src/device_state_manager.c.obj
                0x000000000003d394                dsm_appkey_update
 .text.dsm_appkey_delete
                0x000000000003d48c       0x68 CMakeFiles/enocean_switch_nrf52832_xxAA_s132_6.0.0.dir/__/__/mesh/access/src/device_state_manager.c.obj
                0x000000000003d48c                dsm_appkey_delete
 .text.dsm_appkey_get_all
                0x000000000003d4f4      0x15c CMakeFiles/enocean_switch_nrf52832_xxAA_s132_6.0.0.dir/__/__/mesh/access/src/device_state_manager.c.obj
                0x000000000003d4f4                dsm_appkey_get_all
 .text.dsm_tx_secmat_get
                0x000000000003d650       0xdc CMakeFiles/enocean_switch_nrf52832_xxAA_s132_6.0.0.dir/__/__/mesh/access/src/device_state_manager.c.obj
                0x000000000003d650                dsm_tx_secmat_get
 .text.dsm_net_secmat_from_keyindex_get
                0x000000000003d72c       0x7c CMakeFiles/enocean_switch_nrf52832_xxAA_s132_6.0.0.dir/__/__/mesh/access/src/device_state_manager.c.obj
                0x000000000003d72c                dsm_net_secmat_from_keyindex_get
 .text.nrf_mesh_net_secmat_next_get
                0x000000000003d7a8      0x230 CMakeFiles/enocean_switch_nrf52832_xxAA_s132_6.0.0.dir/__/__/mesh/access/src/device_state_manager.c.obj
                0x000000000003d7a8                nrf_mesh_net_secmat_next_get
 .text.nrf_mesh_app_secmat_next_get
                0x000000000003d9d8      0x278 CMakeFiles/enocean_switch_nrf52832_xxAA_s132_6.0.0.dir/__/__/mesh/access/src/device_state_manager.c.obj
                0x000000000003d9d8                nrf_mesh_app_secmat_next_get
 .text.nrf_mesh_devkey_secmat_get
                0x000000000003dc50       0x30 CMakeFiles/enocean_switch_nrf52832_xxAA_s132_6.0.0.dir/__/__/mesh/access/src/device_state_manager.c.obj
                0x000000000003dc50                nrf_mesh_devkey_secmat_get
 .text.nrf_mesh_beacon_info_next_get
                0x000000000003dc80      0x170 CMakeFiles/enocean_switch_nrf52832_xxAA_s132_6.0.0.dir/__/__/mesh/access/src/device_state_manager.c.obj
                0x000000000003dc80                nrf_mesh_beacon_info_next_get
 .text.nrf_mesh_rx_address_get
                0x000000000003ddf0      0x570 CMakeFiles/enocean_switch_nrf52832_xxAA_s132_6.0.0.dir/__/__/mesh/access/src/device_state_manager.c.obj
                0x000000000003ddf0                nrf_mesh_rx_address_get
 .text.nrf_mesh_unicast_address_get
                0x000000000003e360       0x24 CMakeFiles/enocean_switch_nrf52832_xxAA_s132_6.0.0.dir/__/__/mesh/access/src/device_state_manager.c.obj
                0x000000000003e360                nrf_mesh_unicast_address_get
 .text.prov_provisionee_cb_link_established
                0x000000000003e384       0x40 CMakeFiles/enocean_switch_nrf52832_xxAA_s132_6.0.0.dir/__/__/mesh/prov/src/prov_provisionee.c.obj
 .text.prov_provisionee_cb_link_closed
                0x000000000003e3c4       0x50 CMakeFiles/enocean_switch_nrf52832_xxAA_s132_6.0.0.dir/__/__/mesh/prov/src/prov_provisionee.c.obj
 .text.request_authentication
                0x000000000003e414       0x90 CMakeFiles/enocean_switch_nrf52832_xxAA_s132_6.0.0.dir/__/__/mesh/prov/src/prov_provisionee.c.obj
 .text.send_failed
                0x000000000003e4a4       0x38 CMakeFiles/enocean_switch_nrf52832_xxAA_s132_6.0.0.dir/__/__/mesh/prov/src/prov_provisionee.c.obj
 .text.prov_provisionee_cb_ack_received
                0x000000000003e4dc      0x174 CMakeFiles/enocean_switch_nrf52832_xxAA_s132_6.0.0.dir/__/__/mesh/prov/src/prov_provisionee.c.obj
 .text.prov_provisionee_pkt_in
                0x000000000003e650      0x428 CMakeFiles/enocean_switch_nrf52832_xxAA_s132_6.0.0.dir/__/__/mesh/prov/src/prov_provisionee.c.obj
 .text.prov_provisionee_listen
                0x000000000003ea78       0x34 CMakeFiles/enocean_switch_nrf52832_xxAA_s132_6.0.0.dir/__/__/mesh/prov/src/prov_provisionee.c.obj
                0x000000000003ea78                prov_provisionee_listen
 .text.prov_provisionee_auth_data
                0x000000000003eaac      0x100 CMakeFiles/enocean_switch_nrf52832_xxAA_s132_6.0.0.dir/__/__/mesh/prov/src/prov_provisionee.c.obj
                0x000000000003eaac                prov_provisionee_auth_data
 .text.bearer_compare_callback
                0x000000000003ebac       0x10 CMakeFiles/enocean_switch_nrf52832_xxAA_s132_6.0.0.dir/__/__/mesh/prov/src/nrf_mesh_prov.c.obj
 .text.nrf_mesh_prov_init
                0x000000000003ebbc       0x3c CMakeFiles/enocean_switch_nrf52832_xxAA_s132_6.0.0.dir/__/__/mesh/prov/src/nrf_mesh_prov.c.obj
                0x000000000003ebbc                nrf_mesh_prov_init
 .text.nrf_mesh_prov_bearer_add
                0x000000000003ebf8       0x2c CMakeFiles/enocean_switch_nrf52832_xxAA_s132_6.0.0.dir/__/__/mesh/prov/src/nrf_mesh_prov.c.obj
                0x000000000003ebf8                nrf_mesh_prov_bearer_add
 .text.nrf_mesh_prov_generate_keys
                0x000000000003ec24        0x4 CMakeFiles/enocean_switch_nrf52832_xxAA_s132_6.0.0.dir/__/__/mesh/prov/src/nrf_mesh_prov.c.obj
                0x000000000003ec24                nrf_mesh_prov_generate_keys
 .text.nrf_mesh_prov_listen
                0x000000000003ec28       0xf0 CMakeFiles/enocean_switch_nrf52832_xxAA_s132_6.0.0.dir/__/__/mesh/prov/src/nrf_mesh_prov.c.obj
                0x000000000003ec28                nrf_mesh_prov_listen
 .text.nrf_mesh_prov_auth_data_provide
                0x000000000003ed18       0x10 CMakeFiles/enocean_switch_nrf52832_xxAA_s132_6.0.0.dir/__/__/mesh/prov/src/nrf_mesh_prov.c.obj
                0x000000000003ed18                nrf_mesh_prov_auth_data_provide
 .text.prov_packet_length_valid
                0x000000000003ed28       0x20 CMakeFiles/enocean_switch_nrf52832_xxAA_s132_6.0.0.dir/__/__/mesh/prov/src/provisioning.c.obj
                0x000000000003ed28                prov_packet_length_valid
 .text.prov_tx_capabilities
                0x000000000003ed48       0x38 CMakeFiles/enocean_switch_nrf52832_xxAA_s132_6.0.0.dir/__/__/mesh/prov/src/provisioning.c.obj
                0x000000000003ed48                prov_tx_capabilities
 .text.prov_tx_public_key
                0x000000000003ed80       0x30 CMakeFiles/enocean_switch_nrf52832_xxAA_s132_6.0.0.dir/__/__/mesh/prov/src/provisioning.c.obj
                0x000000000003ed80                prov_tx_public_key
 .text.prov_tx_input_complete
                0x000000000003edb0       0x28 CMakeFiles/enocean_switch_nrf52832_xxAA_s132_6.0.0.dir/__/__/mesh/prov/src/provisioning.c.obj
                0x000000000003edb0                prov_tx_input_complete
 .text.prov_tx_confirmation
                0x000000000003edd8       0x30 CMakeFiles/enocean_switch_nrf52832_xxAA_s132_6.0.0.dir/__/__/mesh/prov/src/provisioning.c.obj
                0x000000000003edd8                prov_tx_confirmation
 .text.prov_tx_random
                0x000000000003ee08       0x30 CMakeFiles/enocean_switch_nrf52832_xxAA_s132_6.0.0.dir/__/__/mesh/prov/src/provisioning.c.obj
                0x000000000003ee08                prov_tx_random
 .text.prov_tx_complete
                0x000000000003ee38       0x28 CMakeFiles/enocean_switch_nrf52832_xxAA_s132_6.0.0.dir/__/__/mesh/prov/src/provisioning.c.obj
                0x000000000003ee38                prov_tx_complete
 .text.prov_tx_failed
                0x000000000003ee60       0x2c CMakeFiles/enocean_switch_nrf52832_xxAA_s132_6.0.0.dir/__/__/mesh/prov/src/provisioning.c.obj
                0x000000000003ee60                prov_tx_failed
 .text.prov_beacon_unprov_build
                0x000000000003ee8c       0x54 CMakeFiles/enocean_switch_nrf52832_xxAA_s132_6.0.0.dir/__/__/mesh/prov/src/prov_beacon.c.obj
                0x000000000003ee8c                prov_beacon_unprov_build
 .text.prov_beacon_unprov_packet_in
                0x000000000003eee0       0xd0 CMakeFiles/enocean_switch_nrf52832_xxAA_s132_6.0.0.dir/__/__/mesh/prov/src/prov_beacon.c.obj
                0x000000000003eee0                prov_beacon_unprov_packet_in
 .text.prov_utils_opt_set
                0x000000000003efb0       0x24 CMakeFiles/enocean_switch_nrf52832_xxAA_s132_6.0.0.dir/__/__/mesh/prov/src/prov_utils.c.obj
                0x000000000003efb0                prov_utils_opt_set
 .text.prov_utils_opt_get
                0x000000000003efd4       0x1c CMakeFiles/enocean_switch_nrf52832_xxAA_s132_6.0.0.dir/__/__/mesh/prov/src/prov_utils.c.obj
                0x000000000003efd4                prov_utils_opt_get
 .text.prov_utils_use_ecdh_offloading
                0x000000000003eff0        0xc CMakeFiles/enocean_switch_nrf52832_xxAA_s132_6.0.0.dir/__/__/mesh/prov/src/prov_utils.c.obj
                0x000000000003eff0                prov_utils_use_ecdh_offloading
 .text.prov_utils_authentication_values_derive
                0x000000000003effc       0xac CMakeFiles/enocean_switch_nrf52832_xxAA_s132_6.0.0.dir/__/__/mesh/prov/src/prov_utils.c.obj
                0x000000000003effc                prov_utils_authentication_values_derive
 .text.prov_utils_keys_generate
                0x000000000003f0a8       0x20 CMakeFiles/enocean_switch_nrf52832_xxAA_s132_6.0.0.dir/__/__/mesh/prov/src/prov_utils.c.obj
                0x000000000003f0a8                prov_utils_keys_generate
 .text.prov_utils_derive_keys
                0x000000000003f0c8       0xb4 CMakeFiles/enocean_switch_nrf52832_xxAA_s132_6.0.0.dir/__/__/mesh/prov/src/prov_utils.c.obj
                0x000000000003f0c8                prov_utils_derive_keys
 .text.prov_utils_calculate_shared_secret
                0x000000000003f17c       0x34 CMakeFiles/enocean_switch_nrf52832_xxAA_s132_6.0.0.dir/__/__/mesh/prov/src/prov_utils.c.obj
                0x000000000003f17c                prov_utils_calculate_shared_secret
 .text.prov_utils_generate_oob_data
                0x000000000003f1b0      0x1b8 CMakeFiles/enocean_switch_nrf52832_xxAA_s132_6.0.0.dir/__/__/mesh/prov/src/prov_utils.c.obj
                0x000000000003f1b0                prov_utils_generate_oob_data
 .text.prov_utils_confirmation_check
                0x000000000003f368       0x5c CMakeFiles/enocean_switch_nrf52832_xxAA_s132_6.0.0.dir/__/__/mesh/prov/src/prov_utils.c.obj
                0x000000000003f368                prov_utils_confirmation_check
 .text.link_timeout_cb
                0x000000000003f3c4       0x10 CMakeFiles/enocean_switch_nrf52832_xxAA_s132_6.0.0.dir/__/__/mesh/prov/src/prov_bearer_adv.c.obj
 .text.prov_bearer_adv_listen_stop
                0x000000000003f3d4       0x98 CMakeFiles/enocean_switch_nrf52832_xxAA_s132_6.0.0.dir/__/__/mesh/prov/src/prov_bearer_adv.c.obj
 .text.tx_complete_cb
                0x000000000003f46c       0x20 CMakeFiles/enocean_switch_nrf52832_xxAA_s132_6.0.0.dir/__/__/mesh/prov/src/prov_bearer_adv.c.obj
 .text.prov_bearer_adv_listen
                0x000000000003f48c      0x15c CMakeFiles/enocean_switch_nrf52832_xxAA_s132_6.0.0.dir/__/__/mesh/prov/src/prov_bearer_adv.c.obj
 .text.close_link
                0x000000000003f5e8       0xd8 CMakeFiles/enocean_switch_nrf52832_xxAA_s132_6.0.0.dir/__/__/mesh/prov/src/prov_bearer_adv.c.obj
 .text.send_link_ack
                0x000000000003f6c0       0x70 CMakeFiles/enocean_switch_nrf52832_xxAA_s132_6.0.0.dir/__/__/mesh/prov/src/prov_bearer_adv.c.obj
 .text.send_transaction_ack
                0x000000000003f730       0x68 CMakeFiles/enocean_switch_nrf52832_xxAA_s132_6.0.0.dir/__/__/mesh/prov/src/prov_bearer_adv.c.obj
 .text.prov_buffer_rx
                0x000000000003f798       0xa0 CMakeFiles/enocean_switch_nrf52832_xxAA_s132_6.0.0.dir/__/__/mesh/prov/src/prov_bearer_adv.c.obj
 .text.prov_bearer_adv_link_open
                0x000000000003f838      0x1b8 CMakeFiles/enocean_switch_nrf52832_xxAA_s132_6.0.0.dir/__/__/mesh/prov/src/prov_bearer_adv.c.obj
 .text.prov_bearer_adv_link_close
                0x000000000003f9f0       0xcc CMakeFiles/enocean_switch_nrf52832_xxAA_s132_6.0.0.dir/__/__/mesh/prov/src/prov_bearer_adv.c.obj
 .text.prov_buffer_tx
                0x000000000003fabc      0x1e4 CMakeFiles/enocean_switch_nrf52832_xxAA_s132_6.0.0.dir/__/__/mesh/prov/src/prov_bearer_adv.c.obj
 .text.tx_retry_cb
                0x000000000003fca0      0x130 CMakeFiles/enocean_switch_nrf52832_xxAA_s132_6.0.0.dir/__/__/mesh/prov/src/prov_bearer_adv.c.obj
 .text.prov_bearer_adv_tx
                0x000000000003fdd0       0xe8 CMakeFiles/enocean_switch_nrf52832_xxAA_s132_6.0.0.dir/__/__/mesh/prov/src/prov_bearer_adv.c.obj
 .text.async_process
                0x000000000003feb8      0x118 CMakeFiles/enocean_switch_nrf52832_xxAA_s132_6.0.0.dir/__/__/mesh/prov/src/prov_bearer_adv.c.obj
 .text.nrf_mesh_prov_bearer_adv_interface_get
                0x000000000003ffd0       0x40 CMakeFiles/enocean_switch_nrf52832_xxAA_s132_6.0.0.dir/__/__/mesh/prov/src/prov_bearer_adv.c.obj
                0x000000000003ffd0                nrf_mesh_prov_bearer_adv_interface_get
 .text.prov_bearer_adv_packet_in
                0x0000000000040010      0x914 CMakeFiles/enocean_switch_nrf52832_xxAA_s132_6.0.0.dir/__/__/mesh/prov/src/prov_bearer_adv.c.obj
                0x0000000000040010                prov_bearer_adv_packet_in
 .text.SystemInit
                0x0000000000040924      0x3c0 CMakeFiles/enocean_switch_nrf52832_xxAA_s132_6.0.0.dir/home/mazzer/work/nordic/sdk/nRF5_SDK_15.0.0/modules/nrfx/mdk/system_nrf52.c.obj
                0x0000000000040924                SystemInit
 .text          0x0000000000040ce4       0x3c CMakeFiles/enocean_switch_nrf52832_xxAA_s132_6.0.0.dir/home/mazzer/work/nordic/sdk/nRF5_SDK_15.0.0/modules/nrfx/mdk/gcc_startup_nrf52.S.obj
                0x0000000000040ce4                Reset_Handler
                0x0000000000040d0c                NMI_Handler
                0x0000000000040d0e                HardFault_Handler
                0x0000000000040d10                MemoryManagement_Handler
                0x0000000000040d12                BusFault_Handler
                0x0000000000040d14                UsageFault_Handler
                0x0000000000040d16                SVC_Handler
                0x0000000000040d18                DebugMon_Handler
                0x0000000000040d1a                PendSV_Handler
                0x0000000000040d1c                SysTick_Handler
                0x0000000000040d1e                RTC0_IRQHandler
                0x0000000000040d1e                SWI0_EGU0_IRQHandler
                0x0000000000040d1e                PWM1_IRQHandler
                0x0000000000040d1e                POWER_CLOCK_IRQHandler
                0x0000000000040d1e                RADIO_IRQHandler
                0x0000000000040d1e                PDM_IRQHandler
                0x0000000000040d1e                TEMP_IRQHandler
                0x0000000000040d1e                TIMER3_IRQHandler
                0x0000000000040d1e                FPU_IRQHandler
                0x0000000000040d1e                SPIM0_SPIS0_TWIM0_TWIS0_SPI0_TWI0_IRQHandler
                0x0000000000040d1e                UARTE0_UART0_IRQHandler
                0x0000000000040d1e                TIMER4_IRQHandler
                0x0000000000040d1e                I2S_IRQHandler
                0x0000000000040d1e                SWI4_EGU4_IRQHandler
                0x0000000000040d1e                TIMER0_IRQHandler
                0x0000000000040d1e                TIMER1_IRQHandler
                0x0000000000040d1e                PWM2_IRQHandler
                0x0000000000040d1e                ECB_IRQHandler
                0x0000000000040d1e                SPIM1_SPIS1_TWIM1_TWIS1_SPI1_TWI1_IRQHandler
                0x0000000000040d1e                Default_Handler
                0x0000000000040d1e                SAADC_IRQHandler
                0x0000000000040d1e                CCM_AAR_IRQHandler
                0x0000000000040d1e                WDT_IRQHandler
                0x0000000000040d1e                SWI5_EGU5_IRQHandler
                0x0000000000040d1e                RNG_IRQHandler
                0x0000000000040d1e                RTC2_IRQHandler
                0x0000000000040d1e                PWM0_IRQHandler
                0x0000000000040d1e                SWI3_EGU3_IRQHandler
                0x0000000000040d1e                RTC1_IRQHandler
                0x0000000000040d1e                SWI1_EGU1_IRQHandler
                0x0000000000040d1e                SPIM2_SPIS2_SPI2_IRQHandler
                0x0000000000040d1e                NFCT_IRQHandler
                0x0000000000040d1e                MWU_IRQHandler
                0x0000000000040d1e                COMP_LPCOMP_IRQHandler
 .text.app_error_handler_bare
                0x0000000000040d20       0x20 CMakeFiles/enocean_switch_nrf52832_xxAA_s132_6.0.0.dir/home/mazzer/work/nordic/sdk/nRF5_SDK_15.0.0/components/libraries/util/app_error.c.obj
                0x0000000000040d20                app_error_handler_bare
 .text.app_error_handler
                0x0000000000040d40       0x1c CMakeFiles/enocean_switch_nrf52832_xxAA_s132_6.0.0.dir/home/mazzer/work/nordic/sdk/nRF5_SDK_15.0.0/components/libraries/util/app_error_handler_gcc.c.obj
                0x0000000000040d40                app_error_handler
 .text.SEGGER_RTT_Write
                0x0000000000040d5c      0x1f4 ../../external/rtt/librtt_nrf52832_xxAA.a(SEGGER_RTT.c.obj)
                0x0000000000040d5c                SEGGER_RTT_Write
 .text.SEGGER_RTT_GetKey
                0x0000000000040f50       0xf8 ../../external/rtt/librtt_nrf52832_xxAA.a(SEGGER_RTT.c.obj)
                0x0000000000040f50                SEGGER_RTT_GetKey
 .text._PrintUnsigned
                0x0000000000041048      0x17c ../../external/rtt/librtt_nrf52832_xxAA.a(SEGGER_RTT_printf.c.obj)
 .text.SEGGER_RTT_vprintf
                0x00000000000411c4      0x524 ../../external/rtt/librtt_nrf52832_xxAA.a(SEGGER_RTT_printf.c.obj)
                0x00000000000411c4                SEGGER_RTT_vprintf
 .text.SEGGER_RTT_printf
                0x00000000000416e8       0x20 ../../external/rtt/librtt_nrf52832_xxAA.a(SEGGER_RTT_printf.c.obj)
                0x00000000000416e8                SEGGER_RTT_printf
 .text.default_RNG
                0x0000000000041708        0xc ../../external/micro-ecc/libuECC_nrf52832_xxAA.a(uECC.c.obj)
 .text.uECC_generate_random_int
                0x0000000000041714      0x17c ../../external/micro-ecc/libuECC_nrf52832_xxAA.a(uECC.c.obj)
 .text.apply_z  0x0000000000041890      0x1a8 ../../external/micro-ecc/libuECC_nrf52832_xxAA.a(uECC.c.obj)
 .text.uECC_vli_modAdd
                0x0000000000041a38       0xd8 ../../external/micro-ecc/libuECC_nrf52832_xxAA.a(uECC.c.obj)
 .text.x_side_default
                0x0000000000041b10      0x26c ../../external/micro-ecc/libuECC_nrf52832_xxAA.a(uECC.c.obj)
 .text.vli_mmod_fast_secp256r1
                0x0000000000041d7c      0x514 ../../external/micro-ecc/libuECC_nrf52832_xxAA.a(uECC.c.obj)
 .text.XYcZ_add
                0x0000000000042290      0x6e0 ../../external/micro-ecc/libuECC_nrf52832_xxAA.a(uECC.c.obj)
 .text.XYcZ_addC
                0x0000000000042970      0xabc ../../external/micro-ecc/libuECC_nrf52832_xxAA.a(uECC.c.obj)
 .text.uECC_vli_modInv.part.4
                0x000000000004342c      0x71c ../../external/micro-ecc/libuECC_nrf52832_xxAA.a(uECC.c.obj)
 .text.EccPoint_mult
                0x0000000000043b48      0x4a4 ../../external/micro-ecc/libuECC_nrf52832_xxAA.a(uECC.c.obj)
 .text.double_jacobian_default
                0x0000000000043fec      0x814 ../../external/micro-ecc/libuECC_nrf52832_xxAA.a(uECC.c.obj)
 .text.uECC_secp256r1
                0x0000000000044800        0x8 ../../external/micro-ecc/libuECC_nrf52832_xxAA.a(uECC.c.obj)
                0x0000000000044800                uECC_secp256r1
 .text.uECC_make_key
                0x0000000000044808      0x240 ../../external/micro-ecc/libuECC_nrf52832_xxAA.a(uECC.c.obj)
                0x0000000000044808                uECC_make_key
 .text.uECC_shared_secret
                0x0000000000044a48      0x314 ../../external/micro-ecc/libuECC_nrf52832_xxAA.a(uECC.c.obj)
                0x0000000000044a48                uECC_shared_secret
 .text.uECC_valid_public_key
                0x0000000000044d5c      0x230 ../../external/micro-ecc/libuECC_nrf52832_xxAA.a(uECC.c.obj)
                0x0000000000044d5c                uECC_valid_public_key
 .text          0x0000000000044f8c       0x30 /usr/bin/../lib/gcc/arm-none-eabi/7.2.1/thumb/v7e-m/fpv4-sp/hard/libgcc.a(_aeabi_uldivmod.o)
                0x0000000000044f8c                __aeabi_uldivmod
 .text          0x0000000000044fbc      0x2cc /usr/bin/../lib/gcc/arm-none-eabi/7.2.1/thumb/v7e-m/fpv4-sp/hard/libgcc.a(_udivmoddi4.o)
                0x0000000000044fbc                __udivmoddi4
 .text          0x0000000000045288        0x4 /usr/bin/../lib/gcc/arm-none-eabi/7.2.1/thumb/v7e-m/fpv4-sp/hard/libgcc.a(_dvmd_tls.o)
                0x0000000000045288                __aeabi_ldiv0
                0x0000000000045288                __aeabi_idiv0
 .text.exit     0x000000000004528c       0x28 /usr/bin/../lib/gcc/arm-none-eabi/7.2.1/../../../../arm-none-eabi/lib/thumb/v7e-m/fpv4-sp/hard/libg_nano.a(lib_a-exit.o)
                0x000000000004528c                exit
 .text.__libc_init_array
                0x00000000000452b4       0x48 /usr/bin/../lib/gcc/arm-none-eabi/7.2.1/../../../../arm-none-eabi/lib/thumb/v7e-m/fpv4-sp/hard/libg_nano.a(lib_a-init.o)
                0x00000000000452b4                __libc_init_array
 .text.malloc   0x00000000000452fc       0x10 /usr/bin/../lib/gcc/arm-none-eabi/7.2.1/../../../../arm-none-eabi/lib/thumb/v7e-m/fpv4-sp/hard/libg_nano.a(lib_a-malloc.o)
                0x00000000000452fc                malloc
 .text.free     0x000000000004530c       0x10 /usr/bin/../lib/gcc/arm-none-eabi/7.2.1/../../../../arm-none-eabi/lib/thumb/v7e-m/fpv4-sp/hard/libg_nano.a(lib_a-malloc.o)
                0x000000000004530c                free
 .text.memcmp   0x000000000004531c       0x1e /usr/bin/../lib/gcc/arm-none-eabi/7.2.1/../../../../arm-none-eabi/lib/thumb/v7e-m/fpv4-sp/hard/libg_nano.a(lib_a-memcmp.o)
                0x000000000004531c                memcmp
 .text.memcpy   0x000000000004533a       0x16 /usr/bin/../lib/gcc/arm-none-eabi/7.2.1/../../../../arm-none-eabi/lib/thumb/v7e-m/fpv4-sp/hard/libg_nano.a(lib_a-memcpy-stub.o)
                0x000000000004533a                memcpy
 .text.memset   0x0000000000045350       0x10 /usr/bin/../lib/gcc/arm-none-eabi/7.2.1/../../../../arm-none-eabi/lib/thumb/v7e-m/fpv4-sp/hard/libg_nano.a(lib_a-memset.o)
                0x0000000000045350                memset
 .text._free_r  0x0000000000045360       0x9c /usr/bin/../lib/gcc/arm-none-eabi/7.2.1/../../../../arm-none-eabi/lib/thumb/v7e-m/fpv4-sp/hard/libg_nano.a(lib_a-nano-freer.o)
                0x0000000000045360                _free_r
 .text._malloc_r
                0x00000000000453fc       0xb4 /usr/bin/../lib/gcc/arm-none-eabi/7.2.1/../../../../arm-none-eabi/lib/thumb/v7e-m/fpv4-sp/hard/libg_nano.a(lib_a-nano-mallocr.o)
                0x00000000000453fc                _malloc_r
 .text._sbrk_r  0x00000000000454b0       0x20 /usr/bin/../lib/gcc/arm-none-eabi/7.2.1/../../../../arm-none-eabi/lib/thumb/v7e-m/fpv4-sp/hard/libg_nano.a(lib_a-sbrkr.o)
                0x00000000000454b0                _sbrk_r
 .text.strcpy   0x00000000000454d0       0x10 /usr/bin/../lib/gcc/arm-none-eabi/7.2.1/../../../../arm-none-eabi/lib/thumb/v7e-m/fpv4-sp/hard/libg_nano.a(lib_a-strcpy.o)
                0x00000000000454d0                strcpy
 .text          0x00000000000454e0       0x10 /usr/bin/../lib/gcc/arm-none-eabi/7.2.1/../../../../arm-none-eabi/lib/thumb/v7e-m/fpv4-sp/hard/libg_nano.a(lib_a-strlen.o)
                0x00000000000454e0                strlen
 .text.strrchr  0x00000000000454f0       0x28 /usr/bin/../lib/gcc/arm-none-eabi/7.2.1/../../../../arm-none-eabi/lib/thumb/v7e-m/fpv4-sp/hard/libg_nano.a(lib_a-strrchr.o)
                0x00000000000454f0                strrchr
 .text.__malloc_lock
                0x0000000000045518        0x2 /usr/bin/../lib/gcc/arm-none-eabi/7.2.1/../../../../arm-none-eabi/lib/thumb/v7e-m/fpv4-sp/hard/libg_nano.a(lib_a-mlock.o)
                0x0000000000045518                __malloc_lock
 .text.__malloc_unlock
                0x000000000004551a        0x2 /usr/bin/../lib/gcc/arm-none-eabi/7.2.1/../../../../arm-none-eabi/lib/thumb/v7e-m/fpv4-sp/hard/libg_nano.a(lib_a-mlock.o)
                0x000000000004551a                __malloc_unlock
 .text.strchr   0x000000000004551c       0x1a /usr/bin/../lib/gcc/arm-none-eabi/7.2.1/../../../../arm-none-eabi/lib/thumb/v7e-m/fpv4-sp/hard/libg_nano.a(lib_a-strchr.o)
                0x000000000004551c                strchr
 *fill*         0x0000000000045536        0x2 
 .text._sbrk    0x0000000000045538       0x1c /usr/bin/../lib/gcc/arm-none-eabi/7.2.1/../../../../arm-none-eabi/lib/thumb/v7e-m/fpv4-sp/hard/libnosys.a(sbrk.o)
                0x0000000000045538                _sbrk
 .text._exit    0x0000000000045554        0x4 /usr/bin/../lib/gcc/arm-none-eabi/7.2.1/../../../../arm-none-eabi/lib/thumb/v7e-m/fpv4-sp/hard/libnosys.a(_exit.o)
                0x0000000000045554                _exit
 *(.init)
 .init          0x0000000000045558        0x4 /usr/bin/../lib/gcc/arm-none-eabi/7.2.1/thumb/v7e-m/fpv4-sp/hard/crti.o
                0x0000000000045558                _init
 .init          0x000000000004555c        0x8 /usr/bin/../lib/gcc/arm-none-eabi/7.2.1/thumb/v7e-m/fpv4-sp/hard/crtn.o
 *(.fini)
 .fini          0x0000000000045564        0x4 /usr/bin/../lib/gcc/arm-none-eabi/7.2.1/thumb/v7e-m/fpv4-sp/hard/crti.o
                0x0000000000045564                _fini
 .fini          0x0000000000045568        0x8 /usr/bin/../lib/gcc/arm-none-eabi/7.2.1/thumb/v7e-m/fpv4-sp/hard/crtn.o
 *crtbegin.o(.ctors)
 *crtbegin?.o(.ctors)
 *(EXCLUDE_FILE(*crtend.o *crtend?.o) .ctors)
 *(SORT_BY_NAME(.ctors.*))
 *(.ctors)
 *crtbegin.o(.dtors)
 *crtbegin?.o(.dtors)
 *(EXCLUDE_FILE(*crtend.o *crtend?.o) .dtors)
 *(SORT_BY_NAME(.dtors.*))
 *(.dtors)
 *(.rodata*)
 .rodata        0x0000000000045570       0x10 CMakeFiles/enocean_switch_nrf52832_xxAA_s132_6.0.0.dir/src/main.c.obj
 .rodata.app_data_store_try.str1.4
                0x0000000000045580       0x8d CMakeFiles/enocean_switch_nrf52832_xxAA_s132_6.0.0.dir/src/main.c.obj
 *fill*         0x000000000004560d        0x3 
 .rodata.app_enocean_cb.str1.4
                0x0000000000045610       0x90 CMakeFiles/enocean_switch_nrf52832_xxAA_s132_6.0.0.dir/src/main.c.obj
 .rodata.app_mesh_core_event_cb.str1.4
                0x00000000000456a0       0x5a CMakeFiles/enocean_switch_nrf52832_xxAA_s132_6.0.0.dir/src/main.c.obj
 *fill*         0x00000000000456fa        0x2 
 .rodata.button_event_handler.str1.4
                0x00000000000456fc       0x2d CMakeFiles/enocean_switch_nrf52832_xxAA_s132_6.0.0.dir/src/main.c.obj
 *fill*         0x0000000000045729        0x3 
 .rodata.client_status_cb.str1.4
                0x000000000004572c       0x2f CMakeFiles/enocean_switch_nrf52832_xxAA_s132_6.0.0.dir/src/main.c.obj
 *fill*         0x000000000004575b        0x1 
 .rodata.main.str1.4
                0x000000000004575c       0x50 CMakeFiles/enocean_switch_nrf52832_xxAA_s132_6.0.0.dir/src/main.c.obj
 .rodata.models_init_cb.str1.4
                0x00000000000457ac       0x20 CMakeFiles/enocean_switch_nrf52832_xxAA_s132_6.0.0.dir/src/main.c.obj
 .rodata.provisioning_complete_cb.str1.4
                0x00000000000457cc       0x93 CMakeFiles/enocean_switch_nrf52832_xxAA_s132_6.0.0.dir/src/main.c.obj
 *fill*         0x000000000004585f        0x1 
 .rodata.static_auth_data.12812
                0x0000000000045860       0x10 CMakeFiles/enocean_switch_nrf52832_xxAA_s132_6.0.0.dir/src/main.c.obj
 .rodata.enocean_packet_process.str1.4
                0x0000000000045870       0x7c CMakeFiles/enocean_switch_nrf52832_xxAA_s132_6.0.0.dir/src/enocean.c.obj
 .rodata.app_flash_data_store.str1.4
                0x00000000000458ec        0xe CMakeFiles/enocean_switch_nrf52832_xxAA_s132_6.0.0.dir/src/flash_helper.c.obj
 *fill*         0x00000000000458fa        0x2 
 .rodata.app_flash_init.str1.4
                0x00000000000458fc       0x2a CMakeFiles/enocean_switch_nrf52832_xxAA_s132_6.0.0.dir/src/flash_helper.c.obj
 *fill*         0x0000000000045926        0x2 
 .rodata.flash_manager_mem_available.str1.4
                0x0000000000045928       0x7d CMakeFiles/enocean_switch_nrf52832_xxAA_s132_6.0.0.dir/src/flash_helper.c.obj
 *fill*         0x00000000000459a5        0x3 
 .rodata.flash_remove_complete.str1.4
                0x00000000000459a8       0x17 CMakeFiles/enocean_switch_nrf52832_xxAA_s132_6.0.0.dir/src/flash_helper.c.obj
 *fill*         0x00000000000459bf        0x1 
 .rodata.flash_reset.str1.4
                0x00000000000459c0        0xf CMakeFiles/enocean_switch_nrf52832_xxAA_s132_6.0.0.dir/src/flash_helper.c.obj
 *fill*         0x00000000000459cf        0x1 
 .rodata.flash_write_complete.str1.4
                0x00000000000459d0       0x16 CMakeFiles/enocean_switch_nrf52832_xxAA_s132_6.0.0.dir/src/flash_helper.c.obj
 *fill*         0x00000000000459e6        0x2 
 .rodata.mesh_softdevice_init.str1.4
                0x00000000000459e8       0xe1 CMakeFiles/enocean_switch_nrf52832_xxAA_s132_6.0.0.dir/__/common/src/mesh_softdevice_init.c.obj
 *fill*         0x0000000000045ac9        0x3 
 .rodata        0x0000000000045acc        0xb CMakeFiles/enocean_switch_nrf52832_xxAA_s132_6.0.0.dir/__/common/src/mesh_provisionee.c.obj
 *fill*         0x0000000000045ad7        0x9 
 .rodata.delay_bytecode.8588
                0x0000000000045ae0        0x6 CMakeFiles/enocean_switch_nrf52832_xxAA_s132_6.0.0.dir/__/common/src/simple_hal.c.obj
 *fill*         0x0000000000045ae6        0x2 
 .rodata.m_buttons_list
                0x0000000000045ae8        0x4 CMakeFiles/enocean_switch_nrf52832_xxAA_s132_6.0.0.dir/__/common/src/simple_hal.c.obj
 .rodata.app_error_fault_handler.str1.4
                0x0000000000045aec       0xfd CMakeFiles/enocean_switch_nrf52832_xxAA_s132_6.0.0.dir/__/common/src/app_error_weak.c.obj
 .rodata.mesh_assertion_handler.str1.4
                0x0000000000045be9       0xfd CMakeFiles/enocean_switch_nrf52832_xxAA_s132_6.0.0.dir/__/common/src/assertion_handler_weak.c.obj
                                          0x1 (size before relaxing)
 *fill*         0x0000000000045be9        0x3 
 .rodata.sar_ctx_cancel.str1.4
                0x0000000000045bec       0x23 CMakeFiles/enocean_switch_nrf52832_xxAA_s132_6.0.0.dir/__/__/mesh/core/src/transport.c.obj
 *fill*         0x0000000000045c0f        0x1 
 .rodata.transport_packet_in.str1.4
                0x0000000000045c10       0x24 CMakeFiles/enocean_switch_nrf52832_xxAA_s132_6.0.0.dir/__/__/mesh/core/src/transport.c.obj
 .rodata.upper_transport_access_packet_in.str1.4
                0x0000000000045c34       0x91 CMakeFiles/enocean_switch_nrf52832_xxAA_s132_6.0.0.dir/__/__/mesh/core/src/transport.c.obj
 *fill*         0x0000000000045cc5        0x3 
 .rodata.upper_transport_packet_in.str1.4
                0x0000000000045cc8       0x2e CMakeFiles/enocean_switch_nrf52832_xxAA_s132_6.0.0.dir/__/__/mesh/core/src/transport.c.obj
 *fill*         0x0000000000045cf6        0x2 
 .rodata.upper_transport_tx.part.27.str1.4
                0x0000000000045cf8        0xe CMakeFiles/enocean_switch_nrf52832_xxAA_s132_6.0.0.dir/__/__/mesh/core/src/transport.c.obj
                                         0x18 (size before relaxing)
 *fill*         0x0000000000045d06        0x2 
 .rodata.m_procedure_steps
                0x0000000000045d08       0x28 CMakeFiles/enocean_switch_nrf52832_xxAA_s132_6.0.0.dir/__/__/mesh/core/src/flash_manager_defrag.c.obj
 .rodata.m_all_operations
                0x0000000000045d30       0x10 CMakeFiles/enocean_switch_nrf52832_xxAA_s132_6.0.0.dir/__/__/mesh/core/src/mesh_flash.c.obj
 .rodata.types_lookup.9220
                0x0000000000045d40        0x4 CMakeFiles/enocean_switch_nrf52832_xxAA_s132_6.0.0.dir/__/__/mesh/core/src/nrf_mesh_utils.c.obj
 .rodata.__func__.11692
                0x0000000000045d44       0x15 CMakeFiles/enocean_switch_nrf52832_xxAA_s132_6.0.0.dir/__/__/mesh/core/src/nrf_mesh.c.obj
 *fill*         0x0000000000045d59        0x3 
 .rodata.nrf_mesh_listen.str1.4
                0x0000000000045d5c       0xab CMakeFiles/enocean_switch_nrf52832_xxAA_s132_6.0.0.dir/__/__/mesh/core/src/nrf_mesh.c.obj
 .rodata.nrf_mesh_packet_send.str1.4
                0x0000000000045e07       0xab CMakeFiles/enocean_switch_nrf52832_xxAA_s132_6.0.0.dir/__/__/mesh/core/src/nrf_mesh.c.obj
                                          0x4 (size before relaxing)
 *fill*         0x0000000000045e07        0x1 
 .rodata.CSWTCH.8
                0x0000000000045e08       0x20 CMakeFiles/enocean_switch_nrf52832_xxAA_s132_6.0.0.dir/__/__/mesh/core/src/hal.c.obj
 .rodata        0x0000000000045e28       0x18 CMakeFiles/enocean_switch_nrf52832_xxAA_s132_6.0.0.dir/__/__/mesh/core/src/enc.c.obj
 .rodata.network_packet_in.str1.4
                0x0000000000045e40       0x81 CMakeFiles/enocean_switch_nrf52832_xxAA_s132_6.0.0.dir/__/__/mesh/core/src/network.c.obj
 *fill*         0x0000000000045ec1        0x3 
 .rodata.net_packet_decrypt.str1.4
                0x0000000000045ec4       0x6b CMakeFiles/enocean_switch_nrf52832_xxAA_s132_6.0.0.dir/__/__/mesh/core/src/net_packet.c.obj
                                         0x74 (size before relaxing)
 *fill*         0x0000000000045f2f        0x1 
 .rodata        0x0000000000045f30        0x7 CMakeFiles/enocean_switch_nrf52832_xxAA_s132_6.0.0.dir/__/__/mesh/core/src/nrf_mesh_keygen.c.obj
 *fill*         0x0000000000045f37        0x1 
 .rodata.log_callback_rtt.str1.4
                0x0000000000045f38       0x15 CMakeFiles/enocean_switch_nrf52832_xxAA_s132_6.0.0.dir/__/__/mesh/core/src/log.c.obj
 *fill*         0x0000000000045f4d        0x3 
 .rodata.str1.4
                0x0000000000045f50       0x11 CMakeFiles/enocean_switch_nrf52832_xxAA_s132_6.0.0.dir/__/__/mesh/core/src/log.c.obj
 *fill*         0x0000000000045f61        0x3 
 .rodata.INVALID_HEADER
                0x0000000000045f64        0x4 CMakeFiles/enocean_switch_nrf52832_xxAA_s132_6.0.0.dir/__/__/mesh/core/src/flash_manager.c.obj
                0x0000000000045f64                INVALID_HEADER
 .rodata.PADDING_HEADER
                0x0000000000045f68        0x4 CMakeFiles/enocean_switch_nrf52832_xxAA_s132_6.0.0.dir/__/__/mesh/core/src/flash_manager.c.obj
                0x0000000000045f68                PADDING_HEADER
 .rodata.SEAL_HEADER
                0x0000000000045f6c        0x4 CMakeFiles/enocean_switch_nrf52832_xxAA_s132_6.0.0.dir/__/__/mesh/core/src/flash_manager.c.obj
                0x0000000000045f6c                SEAL_HEADER
 .rodata.beacon_packet_in.str1.4
                0x0000000000045f70       0x8d CMakeFiles/enocean_switch_nrf52832_xxAA_s132_6.0.0.dir/__/__/mesh/core/src/beacon.c.obj
                                         0x98 (size before relaxing)
 *fill*         0x0000000000045ffd        0x3 
 .rodata.cp_handler
                0x0000000000046000        0x8 CMakeFiles/enocean_switch_nrf52832_xxAA_s132_6.0.0.dir/__/__/mesh/core/src/heartbeat.c.obj
 .rodata.beacon_tx.str1.4
                0x0000000000046008       0x6f CMakeFiles/enocean_switch_nrf52832_xxAA_s132_6.0.0.dir/__/__/mesh/core/src/net_beacon.c.obj
 *fill*         0x0000000000046077        0x1 
 .rodata.net_beacon_init.str1.4
                0x0000000000046078        0x5 CMakeFiles/enocean_switch_nrf52832_xxAA_s132_6.0.0.dir/__/__/mesh/core/src/net_beacon.c.obj
 *fill*         0x000000000004607d        0x3 
 .rodata.m_interface
                0x0000000000046080        0xc CMakeFiles/enocean_switch_nrf52832_xxAA_s132_6.0.0.dir/__/__/mesh/core/src/core_tx_adv.c.obj
 .rodata.radio_mode_to_us_per_byte.9613
                0x000000000004608c        0x6 CMakeFiles/enocean_switch_nrf52832_xxAA_s132_6.0.0.dir/__/__/mesh/bearer/src/broadcast.c.obj
 *fill*         0x0000000000046092        0x2 
 .rodata.channel_rf_offsets.8831
                0x0000000000046094       0x28 CMakeFiles/enocean_switch_nrf52832_xxAA_s132_6.0.0.dir/__/__/mesh/bearer/src/radio_config.c.obj
 .rodata.m_opcode_handlers
                0x00000000000460bc        0x8 CMakeFiles/enocean_switch_nrf52832_xxAA_s132_6.0.0.dir/__/__/models/simple_on_off/src/simple_on_off_client.c.obj
 .rodata        0x00000000000460c4        0x8 CMakeFiles/enocean_switch_nrf52832_xxAA_s132_6.0.0.dir/__/__/models/config/src/config_server.c.obj
 .rodata.CSWTCH.178
                0x00000000000460cc       0x10 CMakeFiles/enocean_switch_nrf52832_xxAA_s132_6.0.0.dir/__/__/models/config/src/config_server.c.obj
 .rodata.opcode_handlers
                0x00000000000460dc      0x170 CMakeFiles/enocean_switch_nrf52832_xxAA_s132_6.0.0.dir/__/__/models/config/src/config_server.c.obj
 .rodata.m_opcode_handlers
                0x000000000004624c       0x58 CMakeFiles/enocean_switch_nrf52832_xxAA_s132_6.0.0.dir/__/__/models/health/src/health_server.c.obj
 .rodata.multiply_de_bruijn_bit_position.9465
                0x00000000000462a4       0x20 CMakeFiles/enocean_switch_nrf52832_xxAA_s132_6.0.0.dir/__/__/models/health/src/health_server.c.obj
 .rodata.access_model_publish.str1.4
                0x00000000000462c4       0x1c CMakeFiles/enocean_switch_nrf52832_xxAA_s132_6.0.0.dir/__/__/mesh/access/src/access.c.obj
                                         0x24 (size before relaxing)
 .rodata.mesh_evt_cb.str1.4
                0x00000000000462e0       0x67 CMakeFiles/enocean_switch_nrf52832_xxAA_s132_6.0.0.dir/__/__/mesh/access/src/access.c.obj
 *fill*         0x0000000000046347        0x1 
 .rodata.multiply_de_bruijn_bit_position.9421
                0x0000000000046348       0x20 CMakeFiles/enocean_switch_nrf52832_xxAA_s132_6.0.0.dir/__/__/mesh/access/src/access.c.obj
 .rodata.m_flash_groups
                0x0000000000046368       0xa8 CMakeFiles/enocean_switch_nrf52832_xxAA_s132_6.0.0.dir/__/__/mesh/access/src/device_state_manager.c.obj
 .rodata.multiply_de_bruijn_bit_position.9527
                0x0000000000046410       0x20 CMakeFiles/enocean_switch_nrf52832_xxAA_s132_6.0.0.dir/__/__/mesh/access/src/device_state_manager.c.obj
 .rodata.m_prov_callbacks
                0x0000000000046430       0x10 CMakeFiles/enocean_switch_nrf52832_xxAA_s132_6.0.0.dir/__/__/mesh/prov/src/prov_provisionee.c.obj
 .rodata.prov_provisionee_cb_ack_received.str1.4
                0x0000000000046440       0x8b CMakeFiles/enocean_switch_nrf52832_xxAA_s132_6.0.0.dir/__/__/mesh/prov/src/prov_provisionee.c.obj
 *fill*         0x00000000000464cb        0x1 
 .rodata.multiply_de_bruijn_bit_position.9474
                0x00000000000464cc       0x20 CMakeFiles/enocean_switch_nrf52832_xxAA_s132_6.0.0.dir/__/__/mesh/prov/src/nrf_mesh_prov.c.obj
 .rodata.pdu_sizes.11435
                0x00000000000464ec        0xa CMakeFiles/enocean_switch_nrf52832_xxAA_s132_6.0.0.dir/__/__/mesh/prov/src/provisioning.c.obj
 *fill*         0x00000000000464f6        0x2 
 .rodata.alphanumeric.11540
                0x00000000000464f8       0x25 CMakeFiles/enocean_switch_nrf52832_xxAA_s132_6.0.0.dir/__/__/mesh/prov/src/prov_utils.c.obj
 *fill*         0x000000000004651d        0x3 
 .rodata.numeric_max.11534
                0x0000000000046520       0x24 CMakeFiles/enocean_switch_nrf52832_xxAA_s132_6.0.0.dir/__/__/mesh/prov/src/prov_utils.c.obj
 .rodata.prov_utils_authentication_values_derive.str1.4
                0x0000000000046544        0x5 CMakeFiles/enocean_switch_nrf52832_xxAA_s132_6.0.0.dir/__/__/mesh/prov/src/prov_utils.c.obj
 *fill*         0x0000000000046549        0x3 
 .rodata.prov_utils_derive_keys.str1.4
                0x000000000004654c       0x15 CMakeFiles/enocean_switch_nrf52832_xxAA_s132_6.0.0.dir/__/__/mesh/prov/src/prov_utils.c.obj
 *fill*         0x0000000000046561        0x3 
 .rodata.crctable.11169
                0x0000000000046564      0x100 CMakeFiles/enocean_switch_nrf52832_xxAA_s132_6.0.0.dir/__/__/mesh/prov/src/prov_bearer_adv.c.obj
 .rodata.interface.11399
                0x0000000000046664       0x14 CMakeFiles/enocean_switch_nrf52832_xxAA_s132_6.0.0.dir/__/__/mesh/prov/src/prov_bearer_adv.c.obj
 .rodata.prov_bearer_adv_listen.str1.4
                0x0000000000046678       0x88 CMakeFiles/enocean_switch_nrf52832_xxAA_s132_6.0.0.dir/__/__/mesh/prov/src/prov_bearer_adv.c.obj
 .rodata.prov_bearer_adv_packet_in.str1.4
                0x0000000000046700      0x283 CMakeFiles/enocean_switch_nrf52832_xxAA_s132_6.0.0.dir/__/__/mesh/prov/src/prov_bearer_adv.c.obj
 *fill*         0x0000000000046983        0x1 
 .rodata.tx_retry_cb.str1.4
                0x0000000000046984       0x14 CMakeFiles/enocean_switch_nrf52832_xxAA_s132_6.0.0.dir/__/__/mesh/prov/src/prov_bearer_adv.c.obj
 .rodata.SEGGER_RTT_ReadNoLock.str1.4
                0x0000000000046998       0x18 ../../external/rtt/librtt_nrf52832_xxAA.a(SEGGER_RTT.c.obj)
                                         0x17 (size before relaxing)
 .rodata._aV2C.5639
                0x00000000000469b0       0x10 ../../external/rtt/librtt_nrf52832_xxAA.a(SEGGER_RTT_printf.c.obj)
 .rodata.curve_secp256r1
                0x00000000000469c0       0xb0 ../../external/micro-ecc/libuECC_nrf52832_xxAA.a(uECC.c.obj)
 .rodata._global_impure_ptr
                0x0000000000046a70        0x4 /usr/bin/../lib/gcc/arm-none-eabi/7.2.1/../../../../arm-none-eabi/lib/thumb/v7e-m/fpv4-sp/hard/libg_nano.a(lib_a-impure.o)
                0x0000000000046a70                _global_impure_ptr
 *(.eh_frame*)
 .eh_frame      0x0000000000046a74        0x0 /usr/bin/../lib/gcc/arm-none-eabi/7.2.1/thumb/v7e-m/fpv4-sp/hard/crtbegin.o
 .eh_frame      0x0000000000046a74        0x4 /usr/bin/../lib/gcc/arm-none-eabi/7.2.1/thumb/v7e-m/fpv4-sp/hard/crtend.o

.glue_7         0x0000000000046a78        0x0
 .glue_7        0x0000000000046a78        0x0 linker stubs

.glue_7t        0x0000000000046a78        0x0
 .glue_7t       0x0000000000046a78        0x0 linker stubs

.vfp11_veneer   0x0000000000046a78        0x0
 .vfp11_veneer  0x0000000000046a78        0x0 linker stubs

.v4_bx          0x0000000000046a78        0x0
 .v4_bx         0x0000000000046a78        0x0 linker stubs

.iplt           0x0000000000046a78        0x0
 .iplt          0x0000000000046a78        0x0 /usr/bin/../lib/gcc/arm-none-eabi/7.2.1/thumb/v7e-m/fpv4-sp/hard/crtbegin.o

.pwr_mgmt_data  0x0000000000046a78        0x0
                [!provide]                        PROVIDE (__start_pwr_mgmt_data, .)
 *(SORT_BY_NAME(.pwr_mgmt_data*))
                [!provide]                        PROVIDE (__stop_pwr_mgmt_data, .)

.log_const_data
                0x0000000000046a78        0x0
                [!provide]                        PROVIDE (__start_log_const_data, .)
 *(.log_const_data)
                [!provide]                        PROVIDE (__stop_log_const_data, .)

.cli_command    0x0000000000046a78        0x0
                [!provide]                        PROVIDE (__start_cli_command, .)
 *(.cli_command)
                [!provide]                        PROVIDE (__stop_cli_command, .)

.sdh_stack_observers
                0x0000000000046a78        0x0
                [!provide]                        PROVIDE (__start_sdh_stack_observers, .)
 *(SORT_BY_NAME(.sdh_stack_observers*))
                [!provide]                        PROVIDE (__stop_sdh_stack_observers, .)

.sdh_req_observers
                0x0000000000046a78        0x0
                [!provide]                        PROVIDE (__start_sdh_req_observers, .)
 *(SORT_BY_NAME(.sdh_req_observers*))
                [!provide]                        PROVIDE (__stop_sdh_req_observers, .)

.sdh_state_observers
                0x0000000000046a78        0x0
                [!provide]                        PROVIDE (__start_sdh_state_observers, .)
 *(SORT_BY_NAME(.sdh_state_observers*))
                [!provide]                        PROVIDE (__stop_sdh_state_observers, .)

.sdh_ant_observers
                0x0000000000046a78        0x0
                [!provide]                        PROVIDE (__start_sdh_ant_observers, .)
 *(SORT_BY_NAME(.sdh_ant_observers*))
                [!provide]                        PROVIDE (__stop_sdh_ant_observers, .)

.sdh_ble_observers
                0x0000000000046a78        0x0
                [!provide]                        PROVIDE (__start_sdh_ble_observers, .)
 *(SORT_BY_NAME(.sdh_ble_observers*))
                [!provide]                        PROVIDE (__stop_sdh_ble_observers, .)

.sdh_soc_observers
                0x0000000000046a78        0x0
                [!provide]                        PROVIDE (__start_sdh_soc_observers, .)
 *(SORT_BY_NAME(.sdh_soc_observers*))
                [!provide]                        PROVIDE (__stop_sdh_soc_observers, .)

.ARM.extab
 *(.ARM.extab* .gnu.linkonce.armextab.*)
                0x0000000000046a78                __exidx_start = .

.ARM.exidx      0x0000000000046a78        0x8
 *(.ARM.exidx* .gnu.linkonce.armexidx.*)
 .ARM.exidx     0x0000000000046a78        0x8 /usr/bin/../lib/gcc/arm-none-eabi/7.2.1/../../../../arm-none-eabi/lib/thumb/v7e-m/fpv4-sp/hard/crt0.o
 .ARM.exidx     0x0000000000046a80        0x0 /usr/bin/../lib/gcc/arm-none-eabi/7.2.1/thumb/v7e-m/fpv4-sp/hard/libgcc.a(_udivmoddi4.o)
                                          0x8 (size before relaxing)
                0x0000000000046a80                __exidx_end = .
                0x0000000000046a80                __etext = .

.rel.dyn        0x0000000000046a80        0x0
 .rel.iplt      0x0000000000046a80        0x0 /usr/bin/../lib/gcc/arm-none-eabi/7.2.1/thumb/v7e-m/fpv4-sp/hard/crtbegin.o

.data           0x00000000200032c8      0x168 load address 0x0000000000046a80
                0x00000000200032c8                __data_start__ = .
 *(vtable)
 *(.data*)
 .data.m_mesh_core_event_handler
                0x00000000200032c8        0x8 CMakeFiles/enocean_switch_nrf52832_xxAA_s132_6.0.0.dir/src/main.c.obj
 .data.flash_add_mem_available_struct.9979
                0x00000000200032d0       0x10 CMakeFiles/enocean_switch_nrf52832_xxAA_s132_6.0.0.dir/src/flash_helper.c.obj
 .data.mem_listener.9975
                0x00000000200032e0       0x10 CMakeFiles/enocean_switch_nrf52832_xxAA_s132_6.0.0.dir/src/flash_helper.c.obj
 .data.s_evt_handler.11216
                0x00000000200032f0        0x8 CMakeFiles/enocean_switch_nrf52832_xxAA_s132_6.0.0.dir/__/__/mesh/stack/src/mesh_stack.c.obj
 .data.wait.9133
                0x00000000200032f8        0x1 CMakeFiles/enocean_switch_nrf52832_xxAA_s132_6.0.0.dir/__/common/src/app_error_weak.c.obj
 *fill*         0x00000000200032f9        0x3 
 .data.mem_listener.10007
                0x00000000200032fc       0x10 CMakeFiles/enocean_switch_nrf52832_xxAA_s132_6.0.0.dir/__/__/mesh/core/src/net_state.c.obj
 .data.mem_listener.9971
                0x000000002000330c       0x10 CMakeFiles/enocean_switch_nrf52832_xxAA_s132_6.0.0.dir/__/__/mesh/core/src/net_state.c.obj
 .data.mem_listener.9976
                0x000000002000331c       0x10 CMakeFiles/enocean_switch_nrf52832_xxAA_s132_6.0.0.dir/__/__/mesh/core/src/net_state.c.obj
 .data.mem_listener.9990
                0x000000002000332c       0x10 CMakeFiles/enocean_switch_nrf52832_xxAA_s132_6.0.0.dir/__/__/mesh/core/src/net_state.c.obj
 .data.m_nrf_mesh_listener
                0x000000002000333c        0xc CMakeFiles/enocean_switch_nrf52832_xxAA_s132_6.0.0.dir/__/__/mesh/core/src/nrf_mesh.c.obj
 .data.g_log_dbg_lvl
                0x0000000020003348        0x4 CMakeFiles/enocean_switch_nrf52832_xxAA_s132_6.0.0.dir/__/__/mesh/core/src/log.c.obj
                0x0000000020003348                g_log_dbg_lvl
 .data.g_log_dbg_msk
                0x000000002000334c        0x4 CMakeFiles/enocean_switch_nrf52832_xxAA_s132_6.0.0.dir/__/__/mesh/core/src/log.c.obj
                0x000000002000334c                g_log_dbg_msk
 .data.g_log_hex_digits
                0x0000000020003350        0x4 CMakeFiles/enocean_switch_nrf52832_xxAA_s132_6.0.0.dir/__/__/mesh/core/src/log.c.obj
                0x0000000020003350                g_log_hex_digits
 .data.m_log_callback
                0x0000000020003354        0x4 CMakeFiles/enocean_switch_nrf52832_xxAA_s132_6.0.0.dir/__/__/mesh/core/src/log.c.obj
                0x0000000020003354                m_log_callback
 .data.m_config_server_handle
                0x0000000020003358        0x2 CMakeFiles/enocean_switch_nrf52832_xxAA_s132_6.0.0.dir/__/__/models/config/src/config_server.c.obj
 *fill*         0x000000002000335a        0x2 
 .data.m_mesh_evt_handler
                0x000000002000335c        0x8 CMakeFiles/enocean_switch_nrf52832_xxAA_s132_6.0.0.dir/__/__/models/config/src/config_server.c.obj
 .data.flash_add_mem_available_struct.10545
                0x0000000020003364       0x10 CMakeFiles/enocean_switch_nrf52832_xxAA_s132_6.0.0.dir/__/__/mesh/access/src/access.c.obj
 .data.flash_clear_mem_available_struct.10634
                0x0000000020003374       0x10 CMakeFiles/enocean_switch_nrf52832_xxAA_s132_6.0.0.dir/__/__/mesh/access/src/access.c.obj
 .data.flash_store_mem_available_struct.10658
                0x0000000020003384       0x10 CMakeFiles/enocean_switch_nrf52832_xxAA_s132_6.0.0.dir/__/__/mesh/access/src/access.c.obj
 .data.m_default_ttl
                0x0000000020003394        0x1 CMakeFiles/enocean_switch_nrf52832_xxAA_s132_6.0.0.dir/__/__/mesh/access/src/access.c.obj
 *fill*         0x0000000020003395        0x3 
 .data.mem_listener.10834
                0x0000000020003398       0x10 CMakeFiles/enocean_switch_nrf52832_xxAA_s132_6.0.0.dir/__/__/mesh/access/src/device_state_manager.c.obj
 .data.mem_listener.10860
                0x00000000200033a8       0x10 CMakeFiles/enocean_switch_nrf52832_xxAA_s132_6.0.0.dir/__/__/mesh/access/src/device_state_manager.c.obj
 .data.m_async_process_flag
                0x00000000200033b8        0x4 CMakeFiles/enocean_switch_nrf52832_xxAA_s132_6.0.0.dir/__/__/mesh/prov/src/prov_bearer_adv.c.obj
 .data.SystemCoreClock
                0x00000000200033bc        0x4 CMakeFiles/enocean_switch_nrf52832_xxAA_s132_6.0.0.dir/home/mazzer/work/nordic/sdk/nRF5_SDK_15.0.0/modules/nrfx/mdk/system_nrf52.c.obj
                0x00000000200033bc                SystemCoreClock
 .data.g_rng_function
                0x00000000200033c0        0x4 ../../external/micro-ecc/libuECC_nrf52832_xxAA.a(uECC.c.obj)
 .data._impure_ptr
                0x00000000200033c4        0x4 /usr/bin/../lib/gcc/arm-none-eabi/7.2.1/../../../../arm-none-eabi/lib/thumb/v7e-m/fpv4-sp/hard/libg_nano.a(lib_a-impure.o)
                0x00000000200033c4                _impure_ptr
 .data.impure_data
                0x00000000200033c8       0x60 /usr/bin/../lib/gcc/arm-none-eabi/7.2.1/../../../../arm-none-eabi/lib/thumb/v7e-m/fpv4-sp/hard/libg_nano.a(lib_a-impure.o)
                0x0000000020003428                . = ALIGN (0x4)
                0x0000000020003428                PROVIDE (__preinit_array_start, .)
 *(.preinit_array)
                0x0000000020003428                PROVIDE (__preinit_array_end, .)
                0x0000000020003428                . = ALIGN (0x4)
                0x0000000020003428                PROVIDE (__init_array_start, .)
 *(SORT_BY_NAME(.init_array.*))
 *(.init_array)
 .init_array    0x0000000020003428        0x4 /usr/bin/../lib/gcc/arm-none-eabi/7.2.1/thumb/v7e-m/fpv4-sp/hard/crtbegin.o
                0x000000002000342c                PROVIDE (__init_array_end, .)
                0x000000002000342c                . = ALIGN (0x4)
                [!provide]                        PROVIDE (__fini_array_start, .)
 *(SORT_BY_NAME(.fini_array.*))
 *(.fini_array)
 .fini_array    0x000000002000342c        0x4 /usr/bin/../lib/gcc/arm-none-eabi/7.2.1/thumb/v7e-m/fpv4-sp/hard/crtbegin.o
                [!provide]                        PROVIDE (__fini_array_end, .)
 *(.jcr*)
                0x0000000020003430                . = ALIGN (0x4)
                0x0000000020003430                __data_end__ = .
LOAD /usr/bin/../lib/gcc/arm-none-eabi/7.2.1/thumb/v7e-m/fpv4-sp/hard/crti.o
LOAD /usr/bin/../lib/gcc/arm-none-eabi/7.2.1/thumb/v7e-m/fpv4-sp/hard/crtbegin.o
LOAD /usr/bin/../lib/gcc/arm-none-eabi/7.2.1/../../../../arm-none-eabi/lib/thumb/v7e-m/fpv4-sp/hard/crt0.o
LOAD CMakeFiles/enocean_switch_nrf52832_xxAA_s132_6.0.0.dir/src/main.c.obj
LOAD CMakeFiles/enocean_switch_nrf52832_xxAA_s132_6.0.0.dir/src/enocean.c.obj
LOAD CMakeFiles/enocean_switch_nrf52832_xxAA_s132_6.0.0.dir/src/flash_helper.c.obj
LOAD CMakeFiles/enocean_switch_nrf52832_xxAA_s132_6.0.0.dir/__/__/mesh/stack/src/mesh_stack.c.obj
LOAD CMakeFiles/enocean_switch_nrf52832_xxAA_s132_6.0.0.dir/__/common/src/mesh_softdevice_init.c.obj
LOAD CMakeFiles/enocean_switch_nrf52832_xxAA_s132_6.0.0.dir/__/common/src/mesh_provisionee.c.obj
LOAD CMakeFiles/enocean_switch_nrf52832_xxAA_s132_6.0.0.dir/__/common/src/rtt_input.c.obj
LOAD CMakeFiles/enocean_switch_nrf52832_xxAA_s132_6.0.0.dir/__/common/src/simple_hal.c.obj
LOAD CMakeFiles/enocean_switch_nrf52832_xxAA_s132_6.0.0.dir/__/common/src/mesh_app_utils.c.obj
LOAD CMakeFiles/enocean_switch_nrf52832_xxAA_s132_6.0.0.dir/__/nrf_mesh_weak.c.obj
LOAD CMakeFiles/enocean_switch_nrf52832_xxAA_s132_6.0.0.dir/__/common/src/app_error_weak.c.obj
LOAD CMakeFiles/enocean_switch_nrf52832_xxAA_s132_6.0.0.dir/__/common/src/assertion_handler_weak.c.obj
LOAD CMakeFiles/enocean_switch_nrf52832_xxAA_s132_6.0.0.dir/__/__/mesh/core/src/internal_event.c.obj
LOAD CMakeFiles/enocean_switch_nrf52832_xxAA_s132_6.0.0.dir/__/__/mesh/core/src/nrf_mesh_configure.c.obj
LOAD CMakeFiles/enocean_switch_nrf52832_xxAA_s132_6.0.0.dir/__/__/mesh/core/src/aes.c.obj
LOAD CMakeFiles/enocean_switch_nrf52832_xxAA_s132_6.0.0.dir/__/__/mesh/core/src/msg_cache.c.obj
LOAD CMakeFiles/enocean_switch_nrf52832_xxAA_s132_6.0.0.dir/__/__/mesh/core/src/transport.c.obj
LOAD CMakeFiles/enocean_switch_nrf52832_xxAA_s132_6.0.0.dir/__/__/mesh/core/src/event.c.obj
LOAD CMakeFiles/enocean_switch_nrf52832_xxAA_s132_6.0.0.dir/__/__/mesh/core/src/packet_buffer.c.obj
LOAD CMakeFiles/enocean_switch_nrf52832_xxAA_s132_6.0.0.dir/__/__/mesh/core/src/flash_manager_defrag.c.obj
LOAD CMakeFiles/enocean_switch_nrf52832_xxAA_s132_6.0.0.dir/__/__/mesh/core/src/fifo.c.obj
LOAD CMakeFiles/enocean_switch_nrf52832_xxAA_s132_6.0.0.dir/__/__/mesh/core/src/nrf_flash.c.obj
LOAD CMakeFiles/enocean_switch_nrf52832_xxAA_s132_6.0.0.dir/__/__/mesh/core/src/packet_mgr.c.obj
LOAD CMakeFiles/enocean_switch_nrf52832_xxAA_s132_6.0.0.dir/__/__/mesh/core/src/net_state.c.obj
LOAD CMakeFiles/enocean_switch_nrf52832_xxAA_s132_6.0.0.dir/__/__/mesh/core/src/mesh_flash.c.obj
LOAD CMakeFiles/enocean_switch_nrf52832_xxAA_s132_6.0.0.dir/__/__/mesh/core/src/nrf_mesh_utils.c.obj
LOAD CMakeFiles/enocean_switch_nrf52832_xxAA_s132_6.0.0.dir/__/__/mesh/core/src/nrf_mesh.c.obj
LOAD CMakeFiles/enocean_switch_nrf52832_xxAA_s132_6.0.0.dir/__/__/mesh/core/src/queue.c.obj
LOAD CMakeFiles/enocean_switch_nrf52832_xxAA_s132_6.0.0.dir/__/__/mesh/core/src/hal.c.obj
LOAD CMakeFiles/enocean_switch_nrf52832_xxAA_s132_6.0.0.dir/__/__/mesh/core/src/aes_cmac.c.obj
LOAD CMakeFiles/enocean_switch_nrf52832_xxAA_s132_6.0.0.dir/__/__/mesh/core/src/timer_scheduler.c.obj
LOAD CMakeFiles/enocean_switch_nrf52832_xxAA_s132_6.0.0.dir/__/__/mesh/core/src/timer.c.obj
LOAD CMakeFiles/enocean_switch_nrf52832_xxAA_s132_6.0.0.dir/__/__/mesh/core/src/ticker.c.obj
LOAD CMakeFiles/enocean_switch_nrf52832_xxAA_s132_6.0.0.dir/__/__/mesh/core/src/rand.c.obj
LOAD CMakeFiles/enocean_switch_nrf52832_xxAA_s132_6.0.0.dir/__/__/mesh/core/src/nrf_mesh_opt.c.obj
LOAD CMakeFiles/enocean_switch_nrf52832_xxAA_s132_6.0.0.dir/__/__/mesh/core/src/timeslot.c.obj
LOAD CMakeFiles/enocean_switch_nrf52832_xxAA_s132_6.0.0.dir/__/__/mesh/core/src/bearer_event.c.obj
LOAD CMakeFiles/enocean_switch_nrf52832_xxAA_s132_6.0.0.dir/__/__/mesh/core/src/enc.c.obj
LOAD CMakeFiles/enocean_switch_nrf52832_xxAA_s132_6.0.0.dir/__/__/mesh/core/src/network.c.obj
LOAD CMakeFiles/enocean_switch_nrf52832_xxAA_s132_6.0.0.dir/__/__/mesh/core/src/net_packet.c.obj
LOAD CMakeFiles/enocean_switch_nrf52832_xxAA_s132_6.0.0.dir/__/__/mesh/core/src/msqueue.c.obj
LOAD CMakeFiles/enocean_switch_nrf52832_xxAA_s132_6.0.0.dir/__/__/mesh/core/src/nrf_mesh_keygen.c.obj
LOAD CMakeFiles/enocean_switch_nrf52832_xxAA_s132_6.0.0.dir/__/__/mesh/core/src/cache.c.obj
LOAD CMakeFiles/enocean_switch_nrf52832_xxAA_s132_6.0.0.dir/__/__/mesh/core/src/uri.c.obj
LOAD CMakeFiles/enocean_switch_nrf52832_xxAA_s132_6.0.0.dir/__/__/mesh/core/src/list.c.obj
LOAD CMakeFiles/enocean_switch_nrf52832_xxAA_s132_6.0.0.dir/__/__/mesh/core/src/log.c.obj
LOAD CMakeFiles/enocean_switch_nrf52832_xxAA_s132_6.0.0.dir/__/__/mesh/core/src/flash_manager.c.obj
LOAD CMakeFiles/enocean_switch_nrf52832_xxAA_s132_6.0.0.dir/__/__/mesh/core/src/ccm_soft.c.obj
LOAD CMakeFiles/enocean_switch_nrf52832_xxAA_s132_6.0.0.dir/__/__/mesh/core/src/toolchain.c.obj
LOAD CMakeFiles/enocean_switch_nrf52832_xxAA_s132_6.0.0.dir/__/__/mesh/core/src/replay_cache.c.obj
LOAD CMakeFiles/enocean_switch_nrf52832_xxAA_s132_6.0.0.dir/__/__/mesh/core/src/beacon.c.obj
LOAD CMakeFiles/enocean_switch_nrf52832_xxAA_s132_6.0.0.dir/__/__/mesh/core/src/flash_manager_internal.c.obj
LOAD CMakeFiles/enocean_switch_nrf52832_xxAA_s132_6.0.0.dir/__/__/mesh/core/src/core_tx.c.obj
LOAD CMakeFiles/enocean_switch_nrf52832_xxAA_s132_6.0.0.dir/__/__/mesh/core/src/heartbeat.c.obj
LOAD CMakeFiles/enocean_switch_nrf52832_xxAA_s132_6.0.0.dir/__/__/mesh/core/src/net_beacon.c.obj
LOAD CMakeFiles/enocean_switch_nrf52832_xxAA_s132_6.0.0.dir/__/__/mesh/core/src/fsm.c.obj
LOAD CMakeFiles/enocean_switch_nrf52832_xxAA_s132_6.0.0.dir/__/__/mesh/core/src/core_tx_adv.c.obj
LOAD CMakeFiles/enocean_switch_nrf52832_xxAA_s132_6.0.0.dir/__/__/mesh/bearer/src/ad_listener.c.obj
LOAD CMakeFiles/enocean_switch_nrf52832_xxAA_s132_6.0.0.dir/__/__/mesh/bearer/src/ad_type_filter.c.obj
LOAD CMakeFiles/enocean_switch_nrf52832_xxAA_s132_6.0.0.dir/__/__/mesh/bearer/src/adv_packet_filter.c.obj
LOAD CMakeFiles/enocean_switch_nrf52832_xxAA_s132_6.0.0.dir/__/__/mesh/bearer/src/advertiser.c.obj
LOAD CMakeFiles/enocean_switch_nrf52832_xxAA_s132_6.0.0.dir/__/__/mesh/bearer/src/bearer_handler.c.obj
LOAD CMakeFiles/enocean_switch_nrf52832_xxAA_s132_6.0.0.dir/__/__/mesh/bearer/src/broadcast.c.obj
LOAD CMakeFiles/enocean_switch_nrf52832_xxAA_s132_6.0.0.dir/__/__/mesh/bearer/src/filter_engine.c.obj
LOAD CMakeFiles/enocean_switch_nrf52832_xxAA_s132_6.0.0.dir/__/__/mesh/bearer/src/gap_address_filter.c.obj
LOAD CMakeFiles/enocean_switch_nrf52832_xxAA_s132_6.0.0.dir/__/__/mesh/bearer/src/radio_config.c.obj
LOAD CMakeFiles/enocean_switch_nrf52832_xxAA_s132_6.0.0.dir/__/__/mesh/bearer/src/rssi_filter.c.obj
LOAD CMakeFiles/enocean_switch_nrf52832_xxAA_s132_6.0.0.dir/__/__/mesh/bearer/src/scanner.c.obj
LOAD CMakeFiles/enocean_switch_nrf52832_xxAA_s132_6.0.0.dir/__/__/models/simple_on_off/src/simple_on_off_client.c.obj
LOAD CMakeFiles/enocean_switch_nrf52832_xxAA_s132_6.0.0.dir/__/__/models/config/src/composition_data.c.obj
LOAD CMakeFiles/enocean_switch_nrf52832_xxAA_s132_6.0.0.dir/__/__/models/config/src/config_server.c.obj
LOAD CMakeFiles/enocean_switch_nrf52832_xxAA_s132_6.0.0.dir/__/__/models/config/src/packed_index_list.c.obj
LOAD CMakeFiles/enocean_switch_nrf52832_xxAA_s132_6.0.0.dir/__/__/models/health/src/health_server.c.obj
LOAD CMakeFiles/enocean_switch_nrf52832_xxAA_s132_6.0.0.dir/__/__/mesh/access/src/access_publish.c.obj
LOAD CMakeFiles/enocean_switch_nrf52832_xxAA_s132_6.0.0.dir/__/__/mesh/access/src/access.c.obj
LOAD CMakeFiles/enocean_switch_nrf52832_xxAA_s132_6.0.0.dir/__/__/mesh/access/src/access_reliable.c.obj
LOAD CMakeFiles/enocean_switch_nrf52832_xxAA_s132_6.0.0.dir/__/__/mesh/access/src/device_state_manager.c.obj
LOAD CMakeFiles/enocean_switch_nrf52832_xxAA_s132_6.0.0.dir/__/__/mesh/prov/src/prov_provisionee.c.obj
LOAD CMakeFiles/enocean_switch_nrf52832_xxAA_s132_6.0.0.dir/__/__/mesh/prov/src/nrf_mesh_prov.c.obj
LOAD CMakeFiles/enocean_switch_nrf52832_xxAA_s132_6.0.0.dir/__/__/mesh/prov/src/provisioning.c.obj
LOAD CMakeFiles/enocean_switch_nrf52832_xxAA_s132_6.0.0.dir/__/__/mesh/prov/src/prov_beacon.c.obj
LOAD CMakeFiles/enocean_switch_nrf52832_xxAA_s132_6.0.0.dir/__/__/mesh/prov/src/prov_utils.c.obj
LOAD CMakeFiles/enocean_switch_nrf52832_xxAA_s132_6.0.0.dir/__/__/mesh/prov/src/prov_bearer_adv.c.obj
LOAD CMakeFiles/enocean_switch_nrf52832_xxAA_s132_6.0.0.dir/home/mazzer/work/nordic/sdk/nRF5_SDK_15.0.0/modules/nrfx/mdk/system_nrf52.c.obj
LOAD CMakeFiles/enocean_switch_nrf52832_xxAA_s132_6.0.0.dir/home/mazzer/work/nordic/sdk/nRF5_SDK_15.0.0/modules/nrfx/mdk/gcc_startup_nrf52.S.obj
LOAD CMakeFiles/enocean_switch_nrf52832_xxAA_s132_6.0.0.dir/home/mazzer/work/nordic/sdk/nRF5_SDK_15.0.0/components/libraries/util/app_error.c.obj
LOAD CMakeFiles/enocean_switch_nrf52832_xxAA_s132_6.0.0.dir/home/mazzer/work/nordic/sdk/nRF5_SDK_15.0.0/components/libraries/util/app_error_handler_gcc.c.obj
LOAD ../../external/rtt/librtt_nrf52832_xxAA.a
LOAD ../../external/micro-ecc/libuECC_nrf52832_xxAA.a
START GROUP
LOAD /usr/bin/../lib/gcc/arm-none-eabi/7.2.1/thumb/v7e-m/fpv4-sp/hard/libgcc.a
LOAD /usr/bin/../lib/gcc/arm-none-eabi/7.2.1/../../../../arm-none-eabi/lib/thumb/v7e-m/fpv4-sp/hard/libg_nano.a
LOAD /usr/bin/../lib/gcc/arm-none-eabi/7.2.1/../../../../arm-none-eabi/lib/thumb/v7e-m/fpv4-sp/hard/libc_nano.a
END GROUP
START GROUP
LOAD /usr/bin/../lib/gcc/arm-none-eabi/7.2.1/thumb/v7e-m/fpv4-sp/hard/libgcc.a
LOAD /usr/bin/../lib/gcc/arm-none-eabi/7.2.1/../../../../arm-none-eabi/lib/thumb/v7e-m/fpv4-sp/hard/libc_nano.a
END GROUP
LOAD /usr/bin/../lib/gcc/arm-none-eabi/7.2.1/thumb/v7e-m/fpv4-sp/hard/crtend.o
LOAD /usr/bin/../lib/gcc/arm-none-eabi/7.2.1/thumb/v7e-m/fpv4-sp/hard/crtn.o
START GROUP
LOAD /usr/bin/../lib/gcc/arm-none-eabi/7.2.1/thumb/v7e-m/fpv4-sp/hard/libgcc.a
LOAD /usr/bin/../lib/gcc/arm-none-eabi/7.2.1/../../../../arm-none-eabi/lib/thumb/v7e-m/fpv4-sp/hard/libc.a
LOAD /usr/bin/../lib/gcc/arm-none-eabi/7.2.1/../../../../arm-none-eabi/lib/thumb/v7e-m/fpv4-sp/hard/libnosys.a
END GROUP

.igot.plt       0x0000000020003430        0x0 load address 0x0000000000046be8
 .igot.plt      0x0000000020003430        0x0 /usr/bin/../lib/gcc/arm-none-eabi/7.2.1/thumb/v7e-m/fpv4-sp/hard/crtbegin.o
                0x0000000020003430                . = ALIGN (0x4)

.svc_data       0x0000000020003430        0x0
                [!provide]                        PROVIDE (__start_svc_data, .)
 *(.svc_data)
                [!provide]                        PROVIDE (__stop_svc_data, .)

.fs_data        0x0000000020003430        0x0
                [!provide]                        PROVIDE (__start_fs_data, .)
 *(.fs_data)
                [!provide]                        PROVIDE (__stop_fs_data, .)

.log_dynamic_data
                0x0000000020003430        0x0
                [!provide]                        PROVIDE (__start_log_dynamic_data, .)
 *(.log_dynamic_data)
                [!provide]                        PROVIDE (__stop_log_dynamic_data, .)

.cli_sorted_cmd_ptrs
                0x0000000020003430        0x0
                [!provide]                        PROVIDE (__start_cli_sorted_cmd_ptrs, .)
 *(.cli_sorted_cmd_ptrs)
                [!provide]                        PROVIDE (__stop_cli_sorted_cmd_ptrs, .)

.bss            0x0000000020003430     0x3534 load address 0x0000000000046be8
                0x0000000020003430                . = ALIGN (0x4)
                0x0000000020003430                __bss_start__ = .
 *(.bss*)
 .bss           0x0000000020003430       0x1c /usr/bin/../lib/gcc/arm-none-eabi/7.2.1/thumb/v7e-m/fpv4-sp/hard/crtbegin.o
 .bss.m_app_secmat
                0x000000002000344c       0x10 CMakeFiles/enocean_switch_nrf52832_xxAA_s132_6.0.0.dir/src/main.c.obj
 .bss.m_app_secmat_flash
                0x000000002000345c       0x1c CMakeFiles/enocean_switch_nrf52832_xxAA_s132_6.0.0.dir/src/main.c.obj
 .bss.m_clients
                0x0000000020003478       0x40 CMakeFiles/enocean_switch_nrf52832_xxAA_s132_6.0.0.dir/src/main.c.obj
 .bss.m_device_provisioned
                0x00000000200034b8        0x1 CMakeFiles/enocean_switch_nrf52832_xxAA_s132_6.0.0.dir/src/main.c.obj
 .bss.m_enocean_dev_cnt
                0x00000000200034b9        0x1 CMakeFiles/enocean_switch_nrf52832_xxAA_s132_6.0.0.dir/src/main.c.obj
 *fill*         0x00000000200034ba        0x2 
 .bss.m_switch_state
                0x00000000200034bc       0x20 CMakeFiles/enocean_switch_nrf52832_xxAA_s132_6.0.0.dir/src/main.c.obj
 .bss.s_app_started.12769
                0x00000000200034dc        0x1 CMakeFiles/enocean_switch_nrf52832_xxAA_s132_6.0.0.dir/src/main.c.obj
 *fill*         0x00000000200034dd        0x3 
 .bss.m_app_cb  0x00000000200034e0        0x4 CMakeFiles/enocean_switch_nrf52832_xxAA_s132_6.0.0.dir/src/enocean.c.obj
 .bss.mp_secmats_list_head
                0x00000000200034e4        0x4 CMakeFiles/enocean_switch_nrf52832_xxAA_s132_6.0.0.dir/src/enocean.c.obj
 .bss.m_flash_manager
                0x00000000200034e8       0x24 CMakeFiles/enocean_switch_nrf52832_xxAA_s132_6.0.0.dir/src/flash_helper.c.obj
 .bss.m_health_server
                0x000000002000350c       0x5c CMakeFiles/enocean_switch_nrf52832_xxAA_s132_6.0.0.dir/__/__/mesh/stack/src/mesh_stack.c.obj
 .bss.m_init_params
                0x0000000020003568       0x24 CMakeFiles/enocean_switch_nrf52832_xxAA_s132_6.0.0.dir/__/__/mesh/stack/src/mesh_stack.c.obj
 .bss.m_device_provisioned
                0x000000002000358c        0x1 CMakeFiles/enocean_switch_nrf52832_xxAA_s132_6.0.0.dir/__/common/src/mesh_provisionee.c.obj
 *fill*         0x000000002000358d        0x3 
 .bss.m_params  0x0000000020003590        0xc CMakeFiles/enocean_switch_nrf52832_xxAA_s132_6.0.0.dir/__/common/src/mesh_provisionee.c.obj
 .bss.m_private_key
                0x000000002000359c       0x20 CMakeFiles/enocean_switch_nrf52832_xxAA_s132_6.0.0.dir/__/common/src/mesh_provisionee.c.obj
 .bss.m_prov_bearer_adv
                0x00000000200035bc      0x1c4 CMakeFiles/enocean_switch_nrf52832_xxAA_s132_6.0.0.dir/__/common/src/mesh_provisionee.c.obj
 .bss.m_prov_ctx
                0x0000000020003780      0x134 CMakeFiles/enocean_switch_nrf52832_xxAA_s132_6.0.0.dir/__/common/src/mesh_provisionee.c.obj
 .bss.m_public_key
                0x00000000200038b4       0x40 CMakeFiles/enocean_switch_nrf52832_xxAA_s132_6.0.0.dir/__/common/src/mesh_provisionee.c.obj
 .bss.m_rtt_input_handler
                0x00000000200038f4        0x4 CMakeFiles/enocean_switch_nrf52832_xxAA_s132_6.0.0.dir/__/common/src/rtt_input.c.obj
 .bss.m_button_handler_cb
                0x00000000200038f8        0x4 CMakeFiles/enocean_switch_nrf52832_xxAA_s132_6.0.0.dir/__/common/src/simple_hal.c.obj
 .bss.m_last_button_press
                0x00000000200038fc        0x4 CMakeFiles/enocean_switch_nrf52832_xxAA_s132_6.0.0.dir/__/common/src/simple_hal.c.obj
 .bss.m_uuid    0x0000000020003900       0x10 CMakeFiles/enocean_switch_nrf52832_xxAA_s132_6.0.0.dir/__/__/mesh/core/src/nrf_mesh_configure.c.obj
 .bss.m_msg_cache
                0x0000000020003910      0x100 CMakeFiles/enocean_switch_nrf52832_xxAA_s132_6.0.0.dir/__/__/mesh/core/src/msg_cache.c.obj
 .bss.m_msg_cache_head
                0x0000000020003a10        0x4 CMakeFiles/enocean_switch_nrf52832_xxAA_s132_6.0.0.dir/__/__/mesh/core/src/msg_cache.c.obj
 .bss.m_control_packet_consumer_count
                0x0000000020003a14        0x4 CMakeFiles/enocean_switch_nrf52832_xxAA_s132_6.0.0.dir/__/__/mesh/core/src/transport.c.obj
 .bss.m_control_packet_consumers
                0x0000000020003a18        0x8 CMakeFiles/enocean_switch_nrf52832_xxAA_s132_6.0.0.dir/__/__/mesh/core/src/transport.c.obj
 .bss.m_sar_alloc
                0x0000000020003a20        0x4 CMakeFiles/enocean_switch_nrf52832_xxAA_s132_6.0.0.dir/__/__/mesh/core/src/transport.c.obj
 .bss.m_sar_process_flag
                0x0000000020003a24        0x4 CMakeFiles/enocean_switch_nrf52832_xxAA_s132_6.0.0.dir/__/__/mesh/core/src/transport.c.obj
 .bss.m_sar_release
                0x0000000020003a28        0x4 CMakeFiles/enocean_switch_nrf52832_xxAA_s132_6.0.0.dir/__/__/mesh/core/src/transport.c.obj
 .bss.m_sar_session_cache
                0x0000000020003a2c       0x40 CMakeFiles/enocean_switch_nrf52832_xxAA_s132_6.0.0.dir/__/__/mesh/core/src/transport.c.obj
 .bss.m_sar_session_cache_head
                0x0000000020003a6c        0x4 CMakeFiles/enocean_switch_nrf52832_xxAA_s132_6.0.0.dir/__/__/mesh/core/src/transport.c.obj
 .bss.m_trs_config
                0x0000000020003a70       0x18 CMakeFiles/enocean_switch_nrf52832_xxAA_s132_6.0.0.dir/__/__/mesh/core/src/transport.c.obj
 .bss.m_trs_sar_sessions
                0x0000000020003a88      0x1b0 CMakeFiles/enocean_switch_nrf52832_xxAA_s132_6.0.0.dir/__/__/mesh/core/src/transport.c.obj
 .bss.mp_evt_handlers_head
                0x0000000020003c38        0x4 CMakeFiles/enocean_switch_nrf52832_xxAA_s132_6.0.0.dir/__/__/mesh/core/src/event.c.obj
 .bss.m_defrag  0x0000000020003c3c       0x1c CMakeFiles/enocean_switch_nrf52832_xxAA_s132_6.0.0.dir/__/__/mesh/core/src/flash_manager_defrag.c.obj
 .bss.m_token   0x0000000020003c58        0x2 CMakeFiles/enocean_switch_nrf52832_xxAA_s132_6.0.0.dir/__/__/mesh/core/src/flash_manager_defrag.c.obj
 *fill*         0x0000000020003c5a        0x2 
 .bss.mp_recovery_area
                0x0000000020003c5c        0x4 CMakeFiles/enocean_switch_nrf52832_xxAA_s132_6.0.0.dir/__/__/mesh/core/src/flash_manager_defrag.c.obj
 .bss.p_null_ptr.10402
                0x0000000020003c60        0x4 CMakeFiles/enocean_switch_nrf52832_xxAA_s132_6.0.0.dir/__/__/mesh/core/src/flash_manager_defrag.c.obj
 .bss.m_pool    0x0000000020003c64     0x1000 CMakeFiles/enocean_switch_nrf52832_xxAA_s132_6.0.0.dir/__/__/mesh/core/src/packet_mgr.c.obj
 .bss.mp_free_head
                0x0000000020004c64        0x4 CMakeFiles/enocean_switch_nrf52832_xxAA_s132_6.0.0.dir/__/__/mesh/core/src/packet_mgr.c.obj
 .bss.iv_state_set.10057
                0x0000000020004c68        0x1 CMakeFiles/enocean_switch_nrf52832_xxAA_s132_6.0.0.dir/__/__/mesh/core/src/net_state.c.obj
 *fill*         0x0000000020004c69        0x3 
 .bss.lock_count.10033
                0x0000000020004c6c        0x4 CMakeFiles/enocean_switch_nrf52832_xxAA_s132_6.0.0.dir/__/__/mesh/core/src/net_state.c.obj
 .bss.m_flash_manager
                0x0000000020004c70       0x24 CMakeFiles/enocean_switch_nrf52832_xxAA_s132_6.0.0.dir/__/__/mesh/core/src/net_state.c.obj
 .bss.m_iv_update_timer
                0x0000000020004c94       0x18 CMakeFiles/enocean_switch_nrf52832_xxAA_s132_6.0.0.dir/__/__/mesh/core/src/net_state.c.obj
 .bss.m_mesh_evt_handler
                0x0000000020004cac        0x8 CMakeFiles/enocean_switch_nrf52832_xxAA_s132_6.0.0.dir/__/__/mesh/core/src/net_state.c.obj
 .bss.m_net_state
                0x0000000020004cb4       0x14 CMakeFiles/enocean_switch_nrf52832_xxAA_s132_6.0.0.dir/__/__/mesh/core/src/net_state.c.obj
 .bss.m_seqnum_allocation_in_progress
                0x0000000020004cc8        0x1 CMakeFiles/enocean_switch_nrf52832_xxAA_s132_6.0.0.dir/__/__/mesh/core/src/net_state.c.obj
 .bss.m_test_mode
                0x0000000020004cc9        0x1 CMakeFiles/enocean_switch_nrf52832_xxAA_s132_6.0.0.dir/__/__/mesh/core/src/net_state.c.obj
 *fill*         0x0000000020004cca        0x2 
 .bss.m_event_flag
                0x0000000020004ccc        0x4 CMakeFiles/enocean_switch_nrf52832_xxAA_s132_6.0.0.dir/__/__/mesh/core/src/mesh_flash.c.obj
 .bss.m_suspended
                0x0000000020004cd0        0x1 CMakeFiles/enocean_switch_nrf52832_xxAA_s132_6.0.0.dir/__/__/mesh/core/src/mesh_flash.c.obj
 *fill*         0x0000000020004cd1        0x3 
 .bss.m_users   0x0000000020004cd4      0x228 CMakeFiles/enocean_switch_nrf52832_xxAA_s132_6.0.0.dir/__/__/mesh/core/src/mesh_flash.c.obj
 .bss.m_is_enabled
                0x0000000020004efc        0x1 CMakeFiles/enocean_switch_nrf52832_xxAA_s132_6.0.0.dir/__/__/mesh/core/src/nrf_mesh.c.obj
 .bss.m_is_initialized
                0x0000000020004efd        0x1 CMakeFiles/enocean_switch_nrf52832_xxAA_s132_6.0.0.dir/__/__/mesh/core/src/nrf_mesh.c.obj
 *fill*         0x0000000020004efe        0x2 
 .bss.m_rx_cb   0x0000000020004f00        0x4 CMakeFiles/enocean_switch_nrf52832_xxAA_s132_6.0.0.dir/__/__/mesh/core/src/nrf_mesh.c.obj
 .bss.m_128buf  0x0000000020004f04       0x10 CMakeFiles/enocean_switch_nrf52832_xxAA_s132_6.0.0.dir/__/__/mesh/core/src/aes_cmac.c.obj
 .bss.m_subkey1
                0x0000000020004f14       0x10 CMakeFiles/enocean_switch_nrf52832_xxAA_s132_6.0.0.dir/__/__/mesh/core/src/aes_cmac.c.obj
 .bss.m_subkey2
                0x0000000020004f24       0x10 CMakeFiles/enocean_switch_nrf52832_xxAA_s132_6.0.0.dir/__/__/mesh/core/src/aes_cmac.c.obj
 .bss.m_event_flag
                0x0000000020004f34        0x4 CMakeFiles/enocean_switch_nrf52832_xxAA_s132_6.0.0.dir/__/__/mesh/core/src/timer_scheduler.c.obj
 .bss.m_scheduler
                0x0000000020004f38       0x10 CMakeFiles/enocean_switch_nrf52832_xxAA_s132_6.0.0.dir/__/__/mesh/core/src/timer_scheduler.c.obj
 .bss.m_attributes
                0x0000000020004f48        0x3 CMakeFiles/enocean_switch_nrf52832_xxAA_s132_6.0.0.dir/__/__/mesh/core/src/timer.c.obj
 *fill*         0x0000000020004f4b        0x1 
 .bss.m_callbacks
                0x0000000020004f4c        0xc CMakeFiles/enocean_switch_nrf52832_xxAA_s132_6.0.0.dir/__/__/mesh/core/src/timer.c.obj
 .bss.m_is_in_ts
                0x0000000020004f58        0x1 CMakeFiles/enocean_switch_nrf52832_xxAA_s132_6.0.0.dir/__/__/mesh/core/src/timer.c.obj
 *fill*         0x0000000020004f59        0x3 
 .bss.m_reference_time
                0x0000000020004f5c        0x4 CMakeFiles/enocean_switch_nrf52832_xxAA_s132_6.0.0.dir/__/__/mesh/core/src/timer.c.obj
 .bss.m_timeouts
                0x0000000020004f60        0xc CMakeFiles/enocean_switch_nrf52832_xxAA_s132_6.0.0.dir/__/__/mesh/core/src/timer.c.obj
 .bss.m_timer_mut
                0x0000000020004f6c        0x4 CMakeFiles/enocean_switch_nrf52832_xxAA_s132_6.0.0.dir/__/__/mesh/core/src/timer.c.obj
 .bss.m_ts_end_time
                0x0000000020004f70        0x4 CMakeFiles/enocean_switch_nrf52832_xxAA_s132_6.0.0.dir/__/__/mesh/core/src/timer.c.obj
 .bss.mp_ppi_tasks
                0x0000000020004f74        0xc CMakeFiles/enocean_switch_nrf52832_xxAA_s132_6.0.0.dir/__/__/mesh/core/src/timer.c.obj
 .bss.m_current_time
                0x0000000020004f80        0x4 CMakeFiles/enocean_switch_nrf52832_xxAA_s132_6.0.0.dir/__/__/mesh/core/src/ticker.c.obj
 .bss.m_timer   0x0000000020004f84       0x18 CMakeFiles/enocean_switch_nrf52832_xxAA_s132_6.0.0.dir/__/__/mesh/core/src/ticker.c.obj
 .bss.m_current_timeslot
                0x0000000020004f9c       0x1c CMakeFiles/enocean_switch_nrf52832_xxAA_s132_6.0.0.dir/__/__/mesh/core/src/timeslot.c.obj
 .bss.m_lfclk_ppm
                0x0000000020004fb8        0x4 CMakeFiles/enocean_switch_nrf52832_xxAA_s132_6.0.0.dir/__/__/mesh/core/src/timeslot.c.obj
 .bss.m_radio_request_earliest
                0x0000000020004fbc       0x10 CMakeFiles/enocean_switch_nrf52832_xxAA_s132_6.0.0.dir/__/__/mesh/core/src/timeslot.c.obj
 .bss.m_state_lock
                0x0000000020004fcc        0x1 CMakeFiles/enocean_switch_nrf52832_xxAA_s132_6.0.0.dir/__/__/mesh/core/src/timeslot.c.obj
 .bss.m_timeslot_forced_command
                0x0000000020004fcd        0x1 CMakeFiles/enocean_switch_nrf52832_xxAA_s132_6.0.0.dir/__/__/mesh/core/src/timeslot.c.obj
 *fill*         0x0000000020004fce        0x2 
 .bss.s_last_rtc_value.9460
                0x0000000020004fd0        0x8 CMakeFiles/enocean_switch_nrf52832_xxAA_s132_6.0.0.dir/__/__/mesh/core/src/timeslot.c.obj
 .bss.m_bearer_event_fifo
                0x0000000020004fd8       0x14 CMakeFiles/enocean_switch_nrf52832_xxAA_s132_6.0.0.dir/__/__/mesh/core/src/bearer_event.c.obj
 .bss.m_bearer_event_fifo_buffer
                0x0000000020004fec      0x100 CMakeFiles/enocean_switch_nrf52832_xxAA_s132_6.0.0.dir/__/__/mesh/core/src/bearer_event.c.obj
 .bss.m_critical
                0x00000000200050ec        0x4 CMakeFiles/enocean_switch_nrf52832_xxAA_s132_6.0.0.dir/__/__/mesh/core/src/bearer_event.c.obj
 .bss.m_flag_count
                0x00000000200050f0        0x4 CMakeFiles/enocean_switch_nrf52832_xxAA_s132_6.0.0.dir/__/__/mesh/core/src/bearer_event.c.obj
 .bss.m_flag_event_callbacks
                0x00000000200050f4       0x20 CMakeFiles/enocean_switch_nrf52832_xxAA_s132_6.0.0.dir/__/__/mesh/core/src/bearer_event.c.obj
 .bss.m_flags   0x0000000020005114        0x4 CMakeFiles/enocean_switch_nrf52832_xxAA_s132_6.0.0.dir/__/__/mesh/core/src/bearer_event.c.obj
 .bss.m_irq_priority
                0x0000000020005118        0x1 CMakeFiles/enocean_switch_nrf52832_xxAA_s132_6.0.0.dir/__/__/mesh/core/src/bearer_event.c.obj
 *fill*         0x0000000020005119        0x3 
 .bss.m_sequential_event_queue
                0x000000002000511c        0x8 CMakeFiles/enocean_switch_nrf52832_xxAA_s132_6.0.0.dir/__/__/mesh/core/src/bearer_event.c.obj
 .bss.s_recursion_guard.9591
                0x0000000020005124        0x1 CMakeFiles/enocean_switch_nrf52832_xxAA_s132_6.0.0.dir/__/__/mesh/core/src/bearer_event.c.obj
 *fill*         0x0000000020005125        0x3 
 .bss.m_relay_check_cb
                0x0000000020005128        0x4 CMakeFiles/enocean_switch_nrf52832_xxAA_s132_6.0.0.dir/__/__/mesh/core/src/network.c.obj
 .bss.m_relay_enable
                0x000000002000512c        0x1 CMakeFiles/enocean_switch_nrf52832_xxAA_s132_6.0.0.dir/__/__/mesh/core/src/network.c.obj
 *fill*         0x000000002000512d        0x3 
 .bss.m_action_queue
                0x0000000020005130        0xc CMakeFiles/enocean_switch_nrf52832_xxAA_s132_6.0.0.dir/__/__/mesh/core/src/flash_manager.c.obj
 .bss.m_action_queue_buffer
                0x000000002000513c      0x104 CMakeFiles/enocean_switch_nrf52832_xxAA_s132_6.0.0.dir/__/__/mesh/core/src/flash_manager.c.obj
 .bss.m_action_state
                0x0000000020005240        0x1 CMakeFiles/enocean_switch_nrf52832_xxAA_s132_6.0.0.dir/__/__/mesh/core/src/flash_manager.c.obj
 *fill*         0x0000000020005241        0x3 
 .bss.m_memory_listener_queue
                0x0000000020005244        0x8 CMakeFiles/enocean_switch_nrf52832_xxAA_s132_6.0.0.dir/__/__/mesh/core/src/flash_manager.c.obj
 .bss.m_processing_flag
                0x000000002000524c        0x4 CMakeFiles/enocean_switch_nrf52832_xxAA_s132_6.0.0.dir/__/__/mesh/core/src/flash_manager.c.obj
 .bss.m_queue_empty_cb
                0x0000000020005250        0x4 CMakeFiles/enocean_switch_nrf52832_xxAA_s132_6.0.0.dir/__/__/mesh/core/src/flash_manager.c.obj
 .bss.m_state   0x0000000020005254        0x1 CMakeFiles/enocean_switch_nrf52832_xxAA_s132_6.0.0.dir/__/__/mesh/core/src/flash_manager.c.obj
 *fill*         0x0000000020005255        0x1 
 .bss.m_token   0x0000000020005256        0x2 CMakeFiles/enocean_switch_nrf52832_xxAA_s132_6.0.0.dir/__/__/mesh/core/src/flash_manager.c.obj
 .bss.p_current.11346
                0x0000000020005258        0x4 CMakeFiles/enocean_switch_nrf52832_xxAA_s132_6.0.0.dir/__/__/mesh/core/src/flash_manager.c.obj
 .bss.result.11347
                0x000000002000525c        0x1 CMakeFiles/enocean_switch_nrf52832_xxAA_s132_6.0.0.dir/__/__/mesh/core/src/flash_manager.c.obj
 .bss.m_cache_index
                0x000000002000525d        0x1 CMakeFiles/enocean_switch_nrf52832_xxAA_s132_6.0.0.dir/__/__/mesh/core/src/replay_cache.c.obj
 *fill*         0x000000002000525e        0x2 
 .bss.m_replay_cache
                0x0000000020005260      0x200 CMakeFiles/enocean_switch_nrf52832_xxAA_s132_6.0.0.dir/__/__/mesh/core/src/replay_cache.c.obj
 .bss.m_bearer_count
                0x0000000020005460        0x1 CMakeFiles/enocean_switch_nrf52832_xxAA_s132_6.0.0.dir/__/__/mesh/core/src/core_tx.c.obj
 *fill*         0x0000000020005461        0x3 
 .bss.m_tx_complete_callback
                0x0000000020005464        0x4 CMakeFiles/enocean_switch_nrf52832_xxAA_s132_6.0.0.dir/__/__/mesh/core/src/core_tx.c.obj
 .bss.mp_bearers
                0x0000000020005468        0x4 CMakeFiles/enocean_switch_nrf52832_xxAA_s132_6.0.0.dir/__/__/mesh/core/src/core_tx.c.obj
 .bss.m_hb_core_evt_handler
                0x000000002000546c        0x8 CMakeFiles/enocean_switch_nrf52832_xxAA_s132_6.0.0.dir/__/__/mesh/core/src/heartbeat.c.obj
 .bss.m_hb_pending_feat_msg
                0x0000000020005474        0x1 CMakeFiles/enocean_switch_nrf52832_xxAA_s132_6.0.0.dir/__/__/mesh/core/src/heartbeat.c.obj
 .bss.m_hb_pending_pub_msg
                0x0000000020005475        0x1 CMakeFiles/enocean_switch_nrf52832_xxAA_s132_6.0.0.dir/__/__/mesh/core/src/heartbeat.c.obj
 .bss.m_heartbeat_init_done
                0x0000000020005476        0x1 CMakeFiles/enocean_switch_nrf52832_xxAA_s132_6.0.0.dir/__/__/mesh/core/src/heartbeat.c.obj
 *fill*         0x0000000020005477        0x1 
 .bss.m_heartbeat_subscription
                0x0000000020005478       0x10 CMakeFiles/enocean_switch_nrf52832_xxAA_s132_6.0.0.dir/__/__/mesh/core/src/heartbeat.c.obj
 .bss.m_publication_count_decrement_cb
                0x0000000020005488        0x4 CMakeFiles/enocean_switch_nrf52832_xxAA_s132_6.0.0.dir/__/__/mesh/core/src/heartbeat.c.obj
 .bss.m_publication_get_cb
                0x000000002000548c        0x4 CMakeFiles/enocean_switch_nrf52832_xxAA_s132_6.0.0.dir/__/__/mesh/core/src/heartbeat.c.obj
 .bss.m_publication_timer
                0x0000000020005490       0x1c CMakeFiles/enocean_switch_nrf52832_xxAA_s132_6.0.0.dir/__/__/mesh/core/src/heartbeat.c.obj
 .bss.m_subscription_timer
                0x00000000200054ac       0x18 CMakeFiles/enocean_switch_nrf52832_xxAA_s132_6.0.0.dir/__/__/mesh/core/src/heartbeat.c.obj
 .bss.m_adv     0x00000000200054c4       0x98 CMakeFiles/enocean_switch_nrf52832_xxAA_s132_6.0.0.dir/__/__/mesh/core/src/net_beacon.c.obj
 .bss.m_adv_buf
                0x000000002000555c       0x34 CMakeFiles/enocean_switch_nrf52832_xxAA_s132_6.0.0.dir/__/__/mesh/core/src/net_beacon.c.obj
 .bss.m_beacon_salt
                0x0000000020005590       0x10 CMakeFiles/enocean_switch_nrf52832_xxAA_s132_6.0.0.dir/__/__/mesh/core/src/net_beacon.c.obj
 .bss.m_enabled
                0x00000000200055a0        0x1 CMakeFiles/enocean_switch_nrf52832_xxAA_s132_6.0.0.dir/__/__/mesh/core/src/net_beacon.c.obj
 *fill*         0x00000000200055a1        0x3 
 .bss.m_tx_timer
                0x00000000200055a4       0x18 CMakeFiles/enocean_switch_nrf52832_xxAA_s132_6.0.0.dir/__/__/mesh/core/src/net_beacon.c.obj
 .bss.mp_beacon_info
                0x00000000200055bc        0x4 CMakeFiles/enocean_switch_nrf52832_xxAA_s132_6.0.0.dir/__/__/mesh/core/src/net_beacon.c.obj
 .bss.m_bearer  0x00000000200055c0        0xc CMakeFiles/enocean_switch_nrf52832_xxAA_s132_6.0.0.dir/__/__/mesh/core/src/core_tx_adv.c.obj
 .bss.m_bearer_roles
                0x00000000200055cc      0x138 CMakeFiles/enocean_switch_nrf52832_xxAA_s132_6.0.0.dir/__/__/mesh/core/src/core_tx_adv.c.obj
 .bss.m_current_alloc
                0x0000000020005704        0x8 CMakeFiles/enocean_switch_nrf52832_xxAA_s132_6.0.0.dir/__/__/mesh/core/src/core_tx_adv.c.obj
 .bss.m_originator_adv_packet_buffer
                0x000000002000570c      0x100 CMakeFiles/enocean_switch_nrf52832_xxAA_s132_6.0.0.dir/__/__/mesh/core/src/core_tx_adv.c.obj
 .bss.m_relay_adv_packet_buffer
                0x000000002000580c       0x80 CMakeFiles/enocean_switch_nrf52832_xxAA_s132_6.0.0.dir/__/__/mesh/core/src/core_tx_adv.c.obj
 .bss.m_subscribers
                0x000000002000588c        0x4 CMakeFiles/enocean_switch_nrf52832_xxAA_s132_6.0.0.dir/__/__/mesh/bearer/src/ad_listener.c.obj
 .bss.m_adtype_filter
                0x0000000020005890       0x38 CMakeFiles/enocean_switch_nrf52832_xxAA_s132_6.0.0.dir/__/__/mesh/bearer/src/ad_type_filter.c.obj
 .bss.m_adv_prng
                0x00000000200058c8       0x10 CMakeFiles/enocean_switch_nrf52832_xxAA_s132_6.0.0.dir/__/__/mesh/bearer/src/advertiser.c.obj
 .bss.m_action_queue
                0x00000000200058d8        0x8 CMakeFiles/enocean_switch_nrf52832_xxAA_s132_6.0.0.dir/__/__/mesh/bearer/src/bearer_handler.c.obj
 .bss.m_end_time
                0x00000000200058e0        0x4 CMakeFiles/enocean_switch_nrf52832_xxAA_s132_6.0.0.dir/__/__/mesh/bearer/src/bearer_handler.c.obj
 .bss.m_scanner_is_active
                0x00000000200058e4        0x1 CMakeFiles/enocean_switch_nrf52832_xxAA_s132_6.0.0.dir/__/__/mesh/bearer/src/bearer_handler.c.obj
 .bss.m_stopped
                0x00000000200058e5        0x1 CMakeFiles/enocean_switch_nrf52832_xxAA_s132_6.0.0.dir/__/__/mesh/bearer/src/bearer_handler.c.obj
 *fill*         0x00000000200058e6        0x2 
 .bss.mp_action
                0x00000000200058e8        0x4 CMakeFiles/enocean_switch_nrf52832_xxAA_s132_6.0.0.dir/__/__/mesh/bearer/src/bearer_handler.c.obj
 .bss.m_next_channel_index
                0x00000000200058ec        0x1 CMakeFiles/enocean_switch_nrf52832_xxAA_s132_6.0.0.dir/__/__/mesh/bearer/src/broadcast.c.obj
 *fill*         0x00000000200058ed        0x3 
 .bss.m_accepted_amount
                0x00000000200058f0        0x4 CMakeFiles/enocean_switch_nrf52832_xxAA_s132_6.0.0.dir/__/__/mesh/bearer/src/filter_engine.c.obj
 .bss.m_filter_list_head
                0x00000000200058f4        0x4 CMakeFiles/enocean_switch_nrf52832_xxAA_s132_6.0.0.dir/__/__/mesh/bearer/src/filter_engine.c.obj
 .bss.m_scanner
                0x00000000200058f8      0x290 CMakeFiles/enocean_switch_nrf52832_xxAA_s132_6.0.0.dir/__/__/mesh/bearer/src/scanner.c.obj
 .bss.m_tid     0x0000000020005b88        0x1 CMakeFiles/enocean_switch_nrf52832_xxAA_s132_6.0.0.dir/__/__/models/simple_on_off/src/simple_on_off_client.c.obj
 *fill*         0x0000000020005b89        0x3 
 .bss.m_evt_cb  0x0000000020005b8c        0x4 CMakeFiles/enocean_switch_nrf52832_xxAA_s132_6.0.0.dir/__/__/models/config/src/config_server.c.obj
 .bss.m_heartbeat_publication
                0x0000000020005b90       0x14 CMakeFiles/enocean_switch_nrf52832_xxAA_s132_6.0.0.dir/__/__/models/config/src/config_server.c.obj
 .bss.m_node_reset_pending
                0x0000000020005ba4        0x1 CMakeFiles/enocean_switch_nrf52832_xxAA_s132_6.0.0.dir/__/__/models/config/src/config_server.c.obj
 *fill*         0x0000000020005ba5        0x3 
 .bss.m_attention_timer
                0x0000000020005ba8       0x18 CMakeFiles/enocean_switch_nrf52832_xxAA_s132_6.0.0.dir/__/__/models/health/src/health_server.c.obj
 .bss.mp_attention_list
                0x0000000020005bc0        0x4 CMakeFiles/enocean_switch_nrf52832_xxAA_s132_6.0.0.dir/__/__/models/health/src/health_server.c.obj
 .bss.m_publish_timer
                0x0000000020005bc4       0x18 CMakeFiles/enocean_switch_nrf52832_xxAA_s132_6.0.0.dir/__/__/mesh/access/src/access_publish.c.obj
 .bss.m_publish_timer_counter
                0x0000000020005bdc        0x4 CMakeFiles/enocean_switch_nrf52832_xxAA_s132_6.0.0.dir/__/__/mesh/access/src/access_publish.c.obj
 .bss.m_publish_timer_running
                0x0000000020005be0        0x1 CMakeFiles/enocean_switch_nrf52832_xxAA_s132_6.0.0.dir/__/__/mesh/access/src/access_publish.c.obj
 .bss.m_timer_resolution
                0x0000000020005be1        0x1 CMakeFiles/enocean_switch_nrf52832_xxAA_s132_6.0.0.dir/__/__/mesh/access/src/access_publish.c.obj
 *fill*         0x0000000020005be2        0x2 
 .bss.mp_publication_list
                0x0000000020005be4        0x4 CMakeFiles/enocean_switch_nrf52832_xxAA_s132_6.0.0.dir/__/__/mesh/access/src/access_publish.c.obj
 .bss.m_element_pool
                0x0000000020005be8       0x1e CMakeFiles/enocean_switch_nrf52832_xxAA_s132_6.0.0.dir/__/__/mesh/access/src/access.c.obj
 *fill*         0x0000000020005c06        0x2 
 .bss.m_evt_handler
                0x0000000020005c08        0x8 CMakeFiles/enocean_switch_nrf52832_xxAA_s132_6.0.0.dir/__/__/mesh/access/src/access.c.obj
 .bss.m_flash_manager
                0x0000000020005c10       0x24 CMakeFiles/enocean_switch_nrf52832_xxAA_s132_6.0.0.dir/__/__/mesh/access/src/access.c.obj
 .bss.m_flash_not_ready
                0x0000000020005c34        0x1 CMakeFiles/enocean_switch_nrf52832_xxAA_s132_6.0.0.dir/__/__/mesh/access/src/access.c.obj
 .bss.m_metadata_stored
                0x0000000020005c35        0x1 CMakeFiles/enocean_switch_nrf52832_xxAA_s132_6.0.0.dir/__/__/mesh/access/src/access.c.obj
 *fill*         0x0000000020005c36        0x2 
 .bss.m_model_pool
                0x0000000020005c38      0x138 CMakeFiles/enocean_switch_nrf52832_xxAA_s132_6.0.0.dir/__/__/mesh/access/src/access.c.obj
 .bss.m_subscription_list_pool
                0x0000000020005d70       0x30 CMakeFiles/enocean_switch_nrf52832_xxAA_s132_6.0.0.dir/__/__/mesh/access/src/access.c.obj
 .bss.m_reliable
                0x0000000020005da0      0x124 CMakeFiles/enocean_switch_nrf52832_xxAA_s132_6.0.0.dir/__/__/mesh/access/src/access_reliable.c.obj
 .bss.m_addr_nonvirtual_allocated
                0x0000000020005ec4        0x4 CMakeFiles/enocean_switch_nrf52832_xxAA_s132_6.0.0.dir/__/__/mesh/access/src/device_state_manager.c.obj
 .bss.m_addr_nonvirtual_needs_flashing
                0x0000000020005ec8        0x4 CMakeFiles/enocean_switch_nrf52832_xxAA_s132_6.0.0.dir/__/__/mesh/access/src/device_state_manager.c.obj
 .bss.m_addr_unicast_allocated
                0x0000000020005ecc        0x4 CMakeFiles/enocean_switch_nrf52832_xxAA_s132_6.0.0.dir/__/__/mesh/access/src/device_state_manager.c.obj
 .bss.m_addr_unicast_needs_flashing
                0x0000000020005ed0        0x4 CMakeFiles/enocean_switch_nrf52832_xxAA_s132_6.0.0.dir/__/__/mesh/access/src/device_state_manager.c.obj
 .bss.m_addr_virtual_allocated
                0x0000000020005ed4        0x4 CMakeFiles/enocean_switch_nrf52832_xxAA_s132_6.0.0.dir/__/__/mesh/access/src/device_state_manager.c.obj
 .bss.m_addr_virtual_needs_flashing
                0x0000000020005ed8        0x4 CMakeFiles/enocean_switch_nrf52832_xxAA_s132_6.0.0.dir/__/__/mesh/access/src/device_state_manager.c.obj
 .bss.m_addresses
                0x0000000020005edc       0x40 CMakeFiles/enocean_switch_nrf52832_xxAA_s132_6.0.0.dir/__/__/mesh/access/src/device_state_manager.c.obj
 .bss.m_appkey_allocated
                0x0000000020005f1c        0x4 CMakeFiles/enocean_switch_nrf52832_xxAA_s132_6.0.0.dir/__/__/mesh/access/src/device_state_manager.c.obj
 .bss.m_appkey_needs_flashing
                0x0000000020005f20        0x4 CMakeFiles/enocean_switch_nrf52832_xxAA_s132_6.0.0.dir/__/__/mesh/access/src/device_state_manager.c.obj
 .bss.m_appkeys
                0x0000000020005f24      0x150 CMakeFiles/enocean_switch_nrf52832_xxAA_s132_6.0.0.dir/__/__/mesh/access/src/device_state_manager.c.obj
 .bss.m_devkey_allocated
                0x0000000020006074        0x4 CMakeFiles/enocean_switch_nrf52832_xxAA_s132_6.0.0.dir/__/__/mesh/access/src/device_state_manager.c.obj
 .bss.m_devkey_needs_flashing
                0x0000000020006078        0x4 CMakeFiles/enocean_switch_nrf52832_xxAA_s132_6.0.0.dir/__/__/mesh/access/src/device_state_manager.c.obj
 .bss.m_devkeys
                0x000000002000607c       0x16 CMakeFiles/enocean_switch_nrf52832_xxAA_s132_6.0.0.dir/__/__/mesh/access/src/device_state_manager.c.obj
 .bss.m_flash_is_available
                0x0000000020006092        0x1 CMakeFiles/enocean_switch_nrf52832_xxAA_s132_6.0.0.dir/__/__/mesh/access/src/device_state_manager.c.obj
 *fill*         0x0000000020006093        0x1 
 .bss.m_flash_manager
                0x0000000020006094       0x24 CMakeFiles/enocean_switch_nrf52832_xxAA_s132_6.0.0.dir/__/__/mesh/access/src/device_state_manager.c.obj
 .bss.m_flash_mem_listener_update_all
                0x00000000200060b8       0x10 CMakeFiles/enocean_switch_nrf52832_xxAA_s132_6.0.0.dir/__/__/mesh/access/src/device_state_manager.c.obj
 .bss.m_has_primary_subnet
                0x00000000200060c8        0x1 CMakeFiles/enocean_switch_nrf52832_xxAA_s132_6.0.0.dir/__/__/mesh/access/src/device_state_manager.c.obj
 *fill*         0x00000000200060c9        0x3 
 .bss.m_local_unicast_addr
                0x00000000200060cc        0x4 CMakeFiles/enocean_switch_nrf52832_xxAA_s132_6.0.0.dir/__/__/mesh/access/src/device_state_manager.c.obj
 .bss.m_mesh_evt_handler
                0x00000000200060d0        0x8 CMakeFiles/enocean_switch_nrf52832_xxAA_s132_6.0.0.dir/__/__/mesh/access/src/device_state_manager.c.obj
 .bss.m_subnet_allocated
                0x00000000200060d8        0x4 CMakeFiles/enocean_switch_nrf52832_xxAA_s132_6.0.0.dir/__/__/mesh/access/src/device_state_manager.c.obj
 .bss.m_subnet_needs_flashing
                0x00000000200060dc        0x4 CMakeFiles/enocean_switch_nrf52832_xxAA_s132_6.0.0.dir/__/__/mesh/access/src/device_state_manager.c.obj
 .bss.m_subnets
                0x00000000200060e0      0x2a0 CMakeFiles/enocean_switch_nrf52832_xxAA_s132_6.0.0.dir/__/__/mesh/access/src/device_state_manager.c.obj
 .bss.m_virtual_addresses
                0x0000000020006380       0xa0 CMakeFiles/enocean_switch_nrf52832_xxAA_s132_6.0.0.dir/__/__/mesh/access/src/device_state_manager.c.obj
 .bss.m_event_handler
                0x0000000020006420        0x4 CMakeFiles/enocean_switch_nrf52832_xxAA_s132_6.0.0.dir/__/__/mesh/prov/src/prov_beacon.c.obj
 .bss.m_offload_ecdh
                0x0000000020006424        0x1 CMakeFiles/enocean_switch_nrf52832_xxAA_s132_6.0.0.dir/__/__/mesh/prov/src/prov_utils.c.obj
 *fill*         0x0000000020006425        0x3 
 .bss.mp_bearer_head
                0x0000000020006428        0x4 CMakeFiles/enocean_switch_nrf52832_xxAA_s132_6.0.0.dir/__/__/mesh/prov/src/prov_bearer_adv.c.obj
 .bss._acDownBuffer
                0x000000002000642c       0x80 ../../external/rtt/librtt_nrf52832_xxAA.a(SEGGER_RTT.c.obj)
 .bss._acUpBuffer
                0x00000000200064ac      0x400 ../../external/rtt/librtt_nrf52832_xxAA.a(SEGGER_RTT.c.obj)
 .bss.__malloc_free_list
                0x00000000200068ac        0x4 /usr/bin/../lib/gcc/arm-none-eabi/7.2.1/../../../../arm-none-eabi/lib/thumb/v7e-m/fpv4-sp/hard/libg_nano.a(lib_a-nano-mallocr.o)
                0x00000000200068ac                __malloc_free_list
 .bss.__malloc_sbrk_start
                0x00000000200068b0        0x4 /usr/bin/../lib/gcc/arm-none-eabi/7.2.1/../../../../arm-none-eabi/lib/thumb/v7e-m/fpv4-sp/hard/libg_nano.a(lib_a-nano-mallocr.o)
                0x00000000200068b0                __malloc_sbrk_start
 .bss.heap_end.5377
                0x00000000200068b4        0x4 /usr/bin/../lib/gcc/arm-none-eabi/7.2.1/../../../../arm-none-eabi/lib/thumb/v7e-m/fpv4-sp/hard/libnosys.a(sbrk.o)
 *(COMMON)
 COMMON         0x00000000200068b8        0xc CMakeFiles/enocean_switch_nrf52832_xxAA_s132_6.0.0.dir/__/common/src/mesh_softdevice_init.c.obj
                0x00000000200068b8                nrf_nvic_state
 COMMON         0x00000000200068c4       0x24 CMakeFiles/enocean_switch_nrf52832_xxAA_s132_6.0.0.dir/__/__/mesh/core/src/core_tx.c.obj
                0x00000000200068c4                m_packet
 COMMON         0x00000000200068e8       0x78 ../../external/rtt/librtt_nrf52832_xxAA.a(SEGGER_RTT.c.obj)
                0x00000000200068e8                _SEGGER_RTT
 COMMON         0x0000000020006960        0x4 /usr/bin/../lib/gcc/arm-none-eabi/7.2.1/../../../../arm-none-eabi/lib/thumb/v7e-m/fpv4-sp/hard/libg_nano.a(lib_a-reent.o)
                0x0000000020006960                errno
                0x0000000020006964                . = ALIGN (0x4)
                0x0000000020006964                __bss_end__ = .

.heap           0x0000000020006968     0x2000
                0x0000000020006968                __HeapBase = .
                0x0000000020006968                __end__ = .
                0x0000000020006968                PROVIDE (end, .)
 *(.heap*)
 .heap          0x0000000020006968     0x2000 CMakeFiles/enocean_switch_nrf52832_xxAA_s132_6.0.0.dir/home/mazzer/work/nordic/sdk/nRF5_SDK_15.0.0/modules/nrfx/mdk/gcc_startup_nrf52.S.obj
                0x0000000020008968                __HeapLimit = .

.stack_dummy    0x0000000020006968     0x2000
 *(.stack*)
 .stack         0x0000000020006968     0x2000 CMakeFiles/enocean_switch_nrf52832_xxAA_s132_6.0.0.dir/home/mazzer/work/nordic/sdk/nRF5_SDK_15.0.0/modules/nrfx/mdk/gcc_startup_nrf52.S.obj
                0x000000002000fd00                __StackTop = (ORIGIN (RAM) + LENGTH (RAM))
                0x000000002000dd00                __StackLimit = (__StackTop - SIZEOF (.stack_dummy))
                0x000000002000fd00                PROVIDE (__stack, __StackTop)
                0x0000000000000001                ASSERT ((__StackLimit >= __HeapLimit), region RAM overflowed with stack)
                0x0000000000000168                DataInitFlashUsed = (__bss_start__ - __data_start__)
                0x0000000000020a80                CodeFlashUsed = (__etext - ORIGIN (FLASH))
                0x0000000000020be8                TotalFlashUsed = (CodeFlashUsed + DataInitFlashUsed)
                0x0000000000000001                ASSERT ((TotalFlashUsed <= LENGTH (FLASH)), region FLASH overflowed with .data and user data)
OUTPUT(enocean_switch_nrf52832_xxAA_s132_6.0.0.elf elf32-littlearm)

.ARM.attributes
                0x0000000000000000       0x30
 .ARM.attributes
                0x0000000000000000       0x22 /usr/bin/../lib/gcc/arm-none-eabi/7.2.1/thumb/v7e-m/fpv4-sp/hard/crti.o
 .ARM.attributes
                0x0000000000000022       0x34 /usr/bin/../lib/gcc/arm-none-eabi/7.2.1/thumb/v7e-m/fpv4-sp/hard/crtbegin.o
 .ARM.attributes
                0x0000000000000056       0x20 /usr/bin/../lib/gcc/arm-none-eabi/7.2.1/../../../../arm-none-eabi/lib/thumb/v7e-m/fpv4-sp/hard/crt0.o
 .ARM.attributes
                0x0000000000000076       0x39 CMakeFiles/enocean_switch_nrf52832_xxAA_s132_6.0.0.dir/src/main.c.obj
 .ARM.attributes
                0x00000000000000af       0x39 CMakeFiles/enocean_switch_nrf52832_xxAA_s132_6.0.0.dir/src/enocean.c.obj
 .ARM.attributes
                0x00000000000000e8       0x39 CMakeFiles/enocean_switch_nrf52832_xxAA_s132_6.0.0.dir/src/flash_helper.c.obj
 .ARM.attributes
                0x0000000000000121       0x39 CMakeFiles/enocean_switch_nrf52832_xxAA_s132_6.0.0.dir/__/__/mesh/stack/src/mesh_stack.c.obj
 .ARM.attributes
                0x000000000000015a       0x39 CMakeFiles/enocean_switch_nrf52832_xxAA_s132_6.0.0.dir/__/common/src/mesh_softdevice_init.c.obj
 .ARM.attributes
                0x0000000000000193       0x39 CMakeFiles/enocean_switch_nrf52832_xxAA_s132_6.0.0.dir/__/common/src/mesh_provisionee.c.obj
 .ARM.attributes
                0x00000000000001cc       0x39 CMakeFiles/enocean_switch_nrf52832_xxAA_s132_6.0.0.dir/__/common/src/rtt_input.c.obj
 .ARM.attributes
                0x0000000000000205       0x39 CMakeFiles/enocean_switch_nrf52832_xxAA_s132_6.0.0.dir/__/common/src/simple_hal.c.obj
 .ARM.attributes
                0x000000000000023e       0x39 CMakeFiles/enocean_switch_nrf52832_xxAA_s132_6.0.0.dir/__/nrf_mesh_weak.c.obj
 .ARM.attributes
                0x0000000000000277       0x39 CMakeFiles/enocean_switch_nrf52832_xxAA_s132_6.0.0.dir/__/common/src/app_error_weak.c.obj
 .ARM.attributes
                0x00000000000002b0       0x39 CMakeFiles/enocean_switch_nrf52832_xxAA_s132_6.0.0.dir/__/common/src/assertion_handler_weak.c.obj
 .ARM.attributes
                0x00000000000002e9       0x39 CMakeFiles/enocean_switch_nrf52832_xxAA_s132_6.0.0.dir/__/__/mesh/core/src/nrf_mesh_configure.c.obj
 .ARM.attributes
                0x0000000000000322       0x39 CMakeFiles/enocean_switch_nrf52832_xxAA_s132_6.0.0.dir/__/__/mesh/core/src/aes.c.obj
 .ARM.attributes
                0x000000000000035b       0x39 CMakeFiles/enocean_switch_nrf52832_xxAA_s132_6.0.0.dir/__/__/mesh/core/src/msg_cache.c.obj
 .ARM.attributes
                0x0000000000000394       0x39 CMakeFiles/enocean_switch_nrf52832_xxAA_s132_6.0.0.dir/__/__/mesh/core/src/transport.c.obj
 .ARM.attributes
                0x00000000000003cd       0x39 CMakeFiles/enocean_switch_nrf52832_xxAA_s132_6.0.0.dir/__/__/mesh/core/src/event.c.obj
 .ARM.attributes
                0x0000000000000406       0x39 CMakeFiles/enocean_switch_nrf52832_xxAA_s132_6.0.0.dir/__/__/mesh/core/src/packet_buffer.c.obj
 .ARM.attributes
                0x000000000000043f       0x39 CMakeFiles/enocean_switch_nrf52832_xxAA_s132_6.0.0.dir/__/__/mesh/core/src/flash_manager_defrag.c.obj
 .ARM.attributes
                0x0000000000000478       0x39 CMakeFiles/enocean_switch_nrf52832_xxAA_s132_6.0.0.dir/__/__/mesh/core/src/fifo.c.obj
 .ARM.attributes
                0x00000000000004b1       0x39 CMakeFiles/enocean_switch_nrf52832_xxAA_s132_6.0.0.dir/__/__/mesh/core/src/nrf_flash.c.obj
 .ARM.attributes
                0x00000000000004ea       0x39 CMakeFiles/enocean_switch_nrf52832_xxAA_s132_6.0.0.dir/__/__/mesh/core/src/packet_mgr.c.obj
 .ARM.attributes
                0x0000000000000523       0x39 CMakeFiles/enocean_switch_nrf52832_xxAA_s132_6.0.0.dir/__/__/mesh/core/src/net_state.c.obj
 .ARM.attributes
                0x000000000000055c       0x39 CMakeFiles/enocean_switch_nrf52832_xxAA_s132_6.0.0.dir/__/__/mesh/core/src/mesh_flash.c.obj
 .ARM.attributes
                0x0000000000000595       0x39 CMakeFiles/enocean_switch_nrf52832_xxAA_s132_6.0.0.dir/__/__/mesh/core/src/nrf_mesh_utils.c.obj
 .ARM.attributes
                0x00000000000005ce       0x39 CMakeFiles/enocean_switch_nrf52832_xxAA_s132_6.0.0.dir/__/__/mesh/core/src/nrf_mesh.c.obj
 .ARM.attributes
                0x0000000000000607       0x39 CMakeFiles/enocean_switch_nrf52832_xxAA_s132_6.0.0.dir/__/__/mesh/core/src/queue.c.obj
 .ARM.attributes
                0x0000000000000640       0x39 CMakeFiles/enocean_switch_nrf52832_xxAA_s132_6.0.0.dir/__/__/mesh/core/src/hal.c.obj
 .ARM.attributes
                0x0000000000000679       0x39 CMakeFiles/enocean_switch_nrf52832_xxAA_s132_6.0.0.dir/__/__/mesh/core/src/aes_cmac.c.obj
 .ARM.attributes
                0x00000000000006b2       0x39 CMakeFiles/enocean_switch_nrf52832_xxAA_s132_6.0.0.dir/__/__/mesh/core/src/timer_scheduler.c.obj
 .ARM.attributes
                0x00000000000006eb       0x39 CMakeFiles/enocean_switch_nrf52832_xxAA_s132_6.0.0.dir/__/__/mesh/core/src/timer.c.obj
 .ARM.attributes
                0x0000000000000724       0x39 CMakeFiles/enocean_switch_nrf52832_xxAA_s132_6.0.0.dir/__/__/mesh/core/src/ticker.c.obj
 .ARM.attributes
                0x000000000000075d       0x39 CMakeFiles/enocean_switch_nrf52832_xxAA_s132_6.0.0.dir/__/__/mesh/core/src/rand.c.obj
 .ARM.attributes
                0x0000000000000796       0x39 CMakeFiles/enocean_switch_nrf52832_xxAA_s132_6.0.0.dir/__/__/mesh/core/src/nrf_mesh_opt.c.obj
 .ARM.attributes
                0x00000000000007cf       0x39 CMakeFiles/enocean_switch_nrf52832_xxAA_s132_6.0.0.dir/__/__/mesh/core/src/timeslot.c.obj
 .ARM.attributes
                0x0000000000000808       0x39 CMakeFiles/enocean_switch_nrf52832_xxAA_s132_6.0.0.dir/__/__/mesh/core/src/bearer_event.c.obj
 .ARM.attributes
                0x0000000000000841       0x39 CMakeFiles/enocean_switch_nrf52832_xxAA_s132_6.0.0.dir/__/__/mesh/core/src/enc.c.obj
 .ARM.attributes
                0x000000000000087a       0x39 CMakeFiles/enocean_switch_nrf52832_xxAA_s132_6.0.0.dir/__/__/mesh/core/src/network.c.obj
 .ARM.attributes
                0x00000000000008b3       0x39 CMakeFiles/enocean_switch_nrf52832_xxAA_s132_6.0.0.dir/__/__/mesh/core/src/net_packet.c.obj
 .ARM.attributes
                0x00000000000008ec       0x39 CMakeFiles/enocean_switch_nrf52832_xxAA_s132_6.0.0.dir/__/__/mesh/core/src/msqueue.c.obj
 .ARM.attributes
                0x0000000000000925       0x39 CMakeFiles/enocean_switch_nrf52832_xxAA_s132_6.0.0.dir/__/__/mesh/core/src/nrf_mesh_keygen.c.obj
 .ARM.attributes
                0x000000000000095e       0x39 CMakeFiles/enocean_switch_nrf52832_xxAA_s132_6.0.0.dir/__/__/mesh/core/src/list.c.obj
 .ARM.attributes
                0x0000000000000997       0x39 CMakeFiles/enocean_switch_nrf52832_xxAA_s132_6.0.0.dir/__/__/mesh/core/src/log.c.obj
 .ARM.attributes
                0x00000000000009d0       0x39 CMakeFiles/enocean_switch_nrf52832_xxAA_s132_6.0.0.dir/__/__/mesh/core/src/flash_manager.c.obj
 .ARM.attributes
                0x0000000000000a09       0x39 CMakeFiles/enocean_switch_nrf52832_xxAA_s132_6.0.0.dir/__/__/mesh/core/src/ccm_soft.c.obj
 .ARM.attributes
                0x0000000000000a42       0x39 CMakeFiles/enocean_switch_nrf52832_xxAA_s132_6.0.0.dir/__/__/mesh/core/src/replay_cache.c.obj
 .ARM.attributes
                0x0000000000000a7b       0x39 CMakeFiles/enocean_switch_nrf52832_xxAA_s132_6.0.0.dir/__/__/mesh/core/src/beacon.c.obj
 .ARM.attributes
                0x0000000000000ab4       0x39 CMakeFiles/enocean_switch_nrf52832_xxAA_s132_6.0.0.dir/__/__/mesh/core/src/flash_manager_internal.c.obj
 .ARM.attributes
                0x0000000000000aed       0x39 CMakeFiles/enocean_switch_nrf52832_xxAA_s132_6.0.0.dir/__/__/mesh/core/src/core_tx.c.obj
 .ARM.attributes
                0x0000000000000b26       0x39 CMakeFiles/enocean_switch_nrf52832_xxAA_s132_6.0.0.dir/__/__/mesh/core/src/heartbeat.c.obj
 .ARM.attributes
                0x0000000000000b5f       0x39 CMakeFiles/enocean_switch_nrf52832_xxAA_s132_6.0.0.dir/__/__/mesh/core/src/net_beacon.c.obj
 .ARM.attributes
                0x0000000000000b98       0x39 CMakeFiles/enocean_switch_nrf52832_xxAA_s132_6.0.0.dir/__/__/mesh/core/src/core_tx_adv.c.obj
 .ARM.attributes
                0x0000000000000bd1       0x39 CMakeFiles/enocean_switch_nrf52832_xxAA_s132_6.0.0.dir/__/__/mesh/bearer/src/ad_listener.c.obj
 .ARM.attributes
                0x0000000000000c0a       0x39 CMakeFiles/enocean_switch_nrf52832_xxAA_s132_6.0.0.dir/__/__/mesh/bearer/src/ad_type_filter.c.obj
 .ARM.attributes
                0x0000000000000c43       0x39 CMakeFiles/enocean_switch_nrf52832_xxAA_s132_6.0.0.dir/__/__/mesh/bearer/src/advertiser.c.obj
 .ARM.attributes
                0x0000000000000c7c       0x39 CMakeFiles/enocean_switch_nrf52832_xxAA_s132_6.0.0.dir/__/__/mesh/bearer/src/bearer_handler.c.obj
 .ARM.attributes
                0x0000000000000cb5       0x39 CMakeFiles/enocean_switch_nrf52832_xxAA_s132_6.0.0.dir/__/__/mesh/bearer/src/broadcast.c.obj
 .ARM.attributes
                0x0000000000000cee       0x39 CMakeFiles/enocean_switch_nrf52832_xxAA_s132_6.0.0.dir/__/__/mesh/bearer/src/filter_engine.c.obj
 .ARM.attributes
                0x0000000000000d27       0x39 CMakeFiles/enocean_switch_nrf52832_xxAA_s132_6.0.0.dir/__/__/mesh/bearer/src/radio_config.c.obj
 .ARM.attributes
                0x0000000000000d60       0x39 CMakeFiles/enocean_switch_nrf52832_xxAA_s132_6.0.0.dir/__/__/mesh/bearer/src/scanner.c.obj
 .ARM.attributes
                0x0000000000000d99       0x39 CMakeFiles/enocean_switch_nrf52832_xxAA_s132_6.0.0.dir/__/__/models/simple_on_off/src/simple_on_off_client.c.obj
 .ARM.attributes
                0x0000000000000dd2       0x39 CMakeFiles/enocean_switch_nrf52832_xxAA_s132_6.0.0.dir/__/__/models/config/src/composition_data.c.obj
 .ARM.attributes
                0x0000000000000e0b       0x39 CMakeFiles/enocean_switch_nrf52832_xxAA_s132_6.0.0.dir/__/__/models/config/src/config_server.c.obj
 .ARM.attributes
                0x0000000000000e44       0x39 CMakeFiles/enocean_switch_nrf52832_xxAA_s132_6.0.0.dir/__/__/models/config/src/packed_index_list.c.obj
 .ARM.attributes
                0x0000000000000e7d       0x39 CMakeFiles/enocean_switch_nrf52832_xxAA_s132_6.0.0.dir/__/__/models/health/src/health_server.c.obj
 .ARM.attributes
                0x0000000000000eb6       0x39 CMakeFiles/enocean_switch_nrf52832_xxAA_s132_6.0.0.dir/__/__/mesh/access/src/access_publish.c.obj
 .ARM.attributes
                0x0000000000000eef       0x39 CMakeFiles/enocean_switch_nrf52832_xxAA_s132_6.0.0.dir/__/__/mesh/access/src/access.c.obj
 .ARM.attributes
                0x0000000000000f28       0x39 CMakeFiles/enocean_switch_nrf52832_xxAA_s132_6.0.0.dir/__/__/mesh/access/src/access_reliable.c.obj
 .ARM.attributes
                0x0000000000000f61       0x39 CMakeFiles/enocean_switch_nrf52832_xxAA_s132_6.0.0.dir/__/__/mesh/access/src/device_state_manager.c.obj
 .ARM.attributes
                0x0000000000000f9a       0x39 CMakeFiles/enocean_switch_nrf52832_xxAA_s132_6.0.0.dir/__/__/mesh/prov/src/prov_provisionee.c.obj
 .ARM.attributes
                0x0000000000000fd3       0x39 CMakeFiles/enocean_switch_nrf52832_xxAA_s132_6.0.0.dir/__/__/mesh/prov/src/nrf_mesh_prov.c.obj
 .ARM.attributes
                0x000000000000100c       0x39 CMakeFiles/enocean_switch_nrf52832_xxAA_s132_6.0.0.dir/__/__/mesh/prov/src/provisioning.c.obj
 .ARM.attributes
                0x0000000000001045       0x39 CMakeFiles/enocean_switch_nrf52832_xxAA_s132_6.0.0.dir/__/__/mesh/prov/src/prov_beacon.c.obj
 .ARM.attributes
                0x000000000000107e       0x39 CMakeFiles/enocean_switch_nrf52832_xxAA_s132_6.0.0.dir/__/__/mesh/prov/src/prov_utils.c.obj
 .ARM.attributes
                0x00000000000010b7       0x39 CMakeFiles/enocean_switch_nrf52832_xxAA_s132_6.0.0.dir/__/__/mesh/prov/src/prov_bearer_adv.c.obj
 .ARM.attributes
                0x00000000000010f0       0x39 CMakeFiles/enocean_switch_nrf52832_xxAA_s132_6.0.0.dir/home/mazzer/work/nordic/sdk/nRF5_SDK_15.0.0/modules/nrfx/mdk/system_nrf52.c.obj
 .ARM.attributes
                0x0000000000001129       0x20 CMakeFiles/enocean_switch_nrf52832_xxAA_s132_6.0.0.dir/home/mazzer/work/nordic/sdk/nRF5_SDK_15.0.0/modules/nrfx/mdk/gcc_startup_nrf52.S.obj
 .ARM.attributes
                0x0000000000001149       0x39 CMakeFiles/enocean_switch_nrf52832_xxAA_s132_6.0.0.dir/home/mazzer/work/nordic/sdk/nRF5_SDK_15.0.0/components/libraries/util/app_error.c.obj
 .ARM.attributes
                0x0000000000001182       0x39 CMakeFiles/enocean_switch_nrf52832_xxAA_s132_6.0.0.dir/home/mazzer/work/nordic/sdk/nRF5_SDK_15.0.0/components/libraries/util/app_error_handler_gcc.c.obj
 .ARM.attributes
                0x00000000000011bb       0x39 ../../external/rtt/librtt_nrf52832_xxAA.a(SEGGER_RTT.c.obj)
 .ARM.attributes
                0x00000000000011f4       0x39 ../../external/rtt/librtt_nrf52832_xxAA.a(SEGGER_RTT_printf.c.obj)
 .ARM.attributes
                0x000000000000122d       0x39 ../../external/micro-ecc/libuECC_nrf52832_xxAA.a(uECC.c.obj)
 .ARM.attributes
                0x0000000000001266       0x22 /usr/bin/../lib/gcc/arm-none-eabi/7.2.1/thumb/v7e-m/fpv4-sp/hard/libgcc.a(_aeabi_uldivmod.o)
 .ARM.attributes
                0x0000000000001288       0x34 /usr/bin/../lib/gcc/arm-none-eabi/7.2.1/thumb/v7e-m/fpv4-sp/hard/libgcc.a(_udivmoddi4.o)
 .ARM.attributes
                0x00000000000012bc       0x22 /usr/bin/../lib/gcc/arm-none-eabi/7.2.1/thumb/v7e-m/fpv4-sp/hard/libgcc.a(_dvmd_tls.o)
 .ARM.attributes
                0x00000000000012de       0x34 /usr/bin/../lib/gcc/arm-none-eabi/7.2.1/../../../../arm-none-eabi/lib/thumb/v7e-m/fpv4-sp/hard/libg_nano.a(lib_a-exit.o)
 .ARM.attributes
                0x0000000000001312       0x34 /usr/bin/../lib/gcc/arm-none-eabi/7.2.1/../../../../arm-none-eabi/lib/thumb/v7e-m/fpv4-sp/hard/libg_nano.a(lib_a-impure.o)
 .ARM.attributes
                0x0000000000001346       0x34 /usr/bin/../lib/gcc/arm-none-eabi/7.2.1/../../../../arm-none-eabi/lib/thumb/v7e-m/fpv4-sp/hard/libg_nano.a(lib_a-init.o)
 .ARM.attributes
                0x000000000000137a       0x34 /usr/bin/../lib/gcc/arm-none-eabi/7.2.1/../../../../arm-none-eabi/lib/thumb/v7e-m/fpv4-sp/hard/libg_nano.a(lib_a-malloc.o)
 .ARM.attributes
                0x00000000000013ae       0x34 /usr/bin/../lib/gcc/arm-none-eabi/7.2.1/../../../../arm-none-eabi/lib/thumb/v7e-m/fpv4-sp/hard/libg_nano.a(lib_a-memcmp.o)
 .ARM.attributes
                0x00000000000013e2       0x34 /usr/bin/../lib/gcc/arm-none-eabi/7.2.1/../../../../arm-none-eabi/lib/thumb/v7e-m/fpv4-sp/hard/libg_nano.a(lib_a-memcpy-stub.o)
 .ARM.attributes
                0x0000000000001416       0x34 /usr/bin/../lib/gcc/arm-none-eabi/7.2.1/../../../../arm-none-eabi/lib/thumb/v7e-m/fpv4-sp/hard/libg_nano.a(lib_a-memset.o)
 .ARM.attributes
                0x000000000000144a       0x34 /usr/bin/../lib/gcc/arm-none-eabi/7.2.1/../../../../arm-none-eabi/lib/thumb/v7e-m/fpv4-sp/hard/libg_nano.a(lib_a-nano-freer.o)
 .ARM.attributes
                0x000000000000147e       0x34 /usr/bin/../lib/gcc/arm-none-eabi/7.2.1/../../../../arm-none-eabi/lib/thumb/v7e-m/fpv4-sp/hard/libg_nano.a(lib_a-nano-mallocr.o)
 .ARM.attributes
                0x00000000000014b2       0x34 /usr/bin/../lib/gcc/arm-none-eabi/7.2.1/../../../../arm-none-eabi/lib/thumb/v7e-m/fpv4-sp/hard/libg_nano.a(lib_a-sbrkr.o)
 .ARM.attributes
                0x00000000000014e6       0x34 /usr/bin/../lib/gcc/arm-none-eabi/7.2.1/../../../../arm-none-eabi/lib/thumb/v7e-m/fpv4-sp/hard/libg_nano.a(lib_a-strcpy.o)
 .ARM.attributes
                0x000000000000151a       0x1b /usr/bin/../lib/gcc/arm-none-eabi/7.2.1/../../../../arm-none-eabi/lib/thumb/v7e-m/fpv4-sp/hard/libg_nano.a(lib_a-strlen.o)
 .ARM.attributes
                0x0000000000001535       0x34 /usr/bin/../lib/gcc/arm-none-eabi/7.2.1/../../../../arm-none-eabi/lib/thumb/v7e-m/fpv4-sp/hard/libg_nano.a(lib_a-strrchr.o)
 .ARM.attributes
                0x0000000000001569       0x34 /usr/bin/../lib/gcc/arm-none-eabi/7.2.1/../../../../arm-none-eabi/lib/thumb/v7e-m/fpv4-sp/hard/libg_nano.a(lib_a-mlock.o)
 .ARM.attributes
                0x000000000000159d       0x34 /usr/bin/../lib/gcc/arm-none-eabi/7.2.1/../../../../arm-none-eabi/lib/thumb/v7e-m/fpv4-sp/hard/libg_nano.a(lib_a-reent.o)
 .ARM.attributes
                0x00000000000015d1       0x34 /usr/bin/../lib/gcc/arm-none-eabi/7.2.1/../../../../arm-none-eabi/lib/thumb/v7e-m/fpv4-sp/hard/libg_nano.a(lib_a-strchr.o)
 .ARM.attributes
                0x0000000000001605       0x34 /usr/bin/../lib/gcc/arm-none-eabi/7.2.1/thumb/v7e-m/fpv4-sp/hard/crtend.o
 .ARM.attributes
                0x0000000000001639       0x22 /usr/bin/../lib/gcc/arm-none-eabi/7.2.1/thumb/v7e-m/fpv4-sp/hard/crtn.o
 .ARM.attributes
                0x000000000000165b       0x34 /usr/bin/../lib/gcc/arm-none-eabi/7.2.1/../../../../arm-none-eabi/lib/thumb/v7e-m/fpv4-sp/hard/libnosys.a(sbrk.o)
 .ARM.attributes
                0x000000000000168f       0x34 /usr/bin/../lib/gcc/arm-none-eabi/7.2.1/../../../../arm-none-eabi/lib/thumb/v7e-m/fpv4-sp/hard/libnosys.a(_exit.o)

.comment        0x0000000000000000       0x7e
 .comment       0x0000000000000000       0x7e CMakeFiles/enocean_switch_nrf52832_xxAA_s132_6.0.0.dir/src/main.c.obj
                                         0x7f (size before relaxing)
 .comment       0x000000000000007e       0x7f CMakeFiles/enocean_switch_nrf52832_xxAA_s132_6.0.0.dir/src/enocean.c.obj
 .comment       0x000000000000007e       0x7f CMakeFiles/enocean_switch_nrf52832_xxAA_s132_6.0.0.dir/src/flash_helper.c.obj
 .comment       0x000000000000007e       0x7f CMakeFiles/enocean_switch_nrf52832_xxAA_s132_6.0.0.dir/__/__/mesh/stack/src/mesh_stack.c.obj
 .comment       0x000000000000007e       0x7f CMakeFiles/enocean_switch_nrf52832_xxAA_s132_6.0.0.dir/__/common/src/mesh_softdevice_init.c.obj
 .comment       0x000000000000007e       0x7f CMakeFiles/enocean_switch_nrf52832_xxAA_s132_6.0.0.dir/__/common/src/mesh_provisionee.c.obj
 .comment       0x000000000000007e       0x7f CMakeFiles/enocean_switch_nrf52832_xxAA_s132_6.0.0.dir/__/common/src/rtt_input.c.obj
 .comment       0x000000000000007e       0x7f CMakeFiles/enocean_switch_nrf52832_xxAA_s132_6.0.0.dir/__/common/src/simple_hal.c.obj
 .comment       0x000000000000007e       0x7f CMakeFiles/enocean_switch_nrf52832_xxAA_s132_6.0.0.dir/__/nrf_mesh_weak.c.obj
 .comment       0x000000000000007e       0x7f CMakeFiles/enocean_switch_nrf52832_xxAA_s132_6.0.0.dir/__/common/src/app_error_weak.c.obj
 .comment       0x000000000000007e       0x7f CMakeFiles/enocean_switch_nrf52832_xxAA_s132_6.0.0.dir/__/common/src/assertion_handler_weak.c.obj
 .comment       0x000000000000007e       0x7f CMakeFiles/enocean_switch_nrf52832_xxAA_s132_6.0.0.dir/__/__/mesh/core/src/nrf_mesh_configure.c.obj
 .comment       0x000000000000007e       0x7f CMakeFiles/enocean_switch_nrf52832_xxAA_s132_6.0.0.dir/__/__/mesh/core/src/aes.c.obj
 .comment       0x000000000000007e       0x7f CMakeFiles/enocean_switch_nrf52832_xxAA_s132_6.0.0.dir/__/__/mesh/core/src/msg_cache.c.obj
 .comment       0x000000000000007e       0x7f CMakeFiles/enocean_switch_nrf52832_xxAA_s132_6.0.0.dir/__/__/mesh/core/src/transport.c.obj
 .comment       0x000000000000007e       0x7f CMakeFiles/enocean_switch_nrf52832_xxAA_s132_6.0.0.dir/__/__/mesh/core/src/event.c.obj
 .comment       0x000000000000007e       0x7f CMakeFiles/enocean_switch_nrf52832_xxAA_s132_6.0.0.dir/__/__/mesh/core/src/packet_buffer.c.obj
 .comment       0x000000000000007e       0x7f CMakeFiles/enocean_switch_nrf52832_xxAA_s132_6.0.0.dir/__/__/mesh/core/src/flash_manager_defrag.c.obj
 .comment       0x000000000000007e       0x7f CMakeFiles/enocean_switch_nrf52832_xxAA_s132_6.0.0.dir/__/__/mesh/core/src/fifo.c.obj
 .comment       0x000000000000007e       0x7f CMakeFiles/enocean_switch_nrf52832_xxAA_s132_6.0.0.dir/__/__/mesh/core/src/nrf_flash.c.obj
 .comment       0x000000000000007e       0x7f CMakeFiles/enocean_switch_nrf52832_xxAA_s132_6.0.0.dir/__/__/mesh/core/src/packet_mgr.c.obj
 .comment       0x000000000000007e       0x7f CMakeFiles/enocean_switch_nrf52832_xxAA_s132_6.0.0.dir/__/__/mesh/core/src/net_state.c.obj
 .comment       0x000000000000007e       0x7f CMakeFiles/enocean_switch_nrf52832_xxAA_s132_6.0.0.dir/__/__/mesh/core/src/mesh_flash.c.obj
 .comment       0x000000000000007e       0x7f CMakeFiles/enocean_switch_nrf52832_xxAA_s132_6.0.0.dir/__/__/mesh/core/src/nrf_mesh_utils.c.obj
 .comment       0x000000000000007e       0x7f CMakeFiles/enocean_switch_nrf52832_xxAA_s132_6.0.0.dir/__/__/mesh/core/src/nrf_mesh.c.obj
 .comment       0x000000000000007e       0x7f CMakeFiles/enocean_switch_nrf52832_xxAA_s132_6.0.0.dir/__/__/mesh/core/src/queue.c.obj
 .comment       0x000000000000007e       0x7f CMakeFiles/enocean_switch_nrf52832_xxAA_s132_6.0.0.dir/__/__/mesh/core/src/hal.c.obj
 .comment       0x000000000000007e       0x7f CMakeFiles/enocean_switch_nrf52832_xxAA_s132_6.0.0.dir/__/__/mesh/core/src/aes_cmac.c.obj
 .comment       0x000000000000007e       0x7f CMakeFiles/enocean_switch_nrf52832_xxAA_s132_6.0.0.dir/__/__/mesh/core/src/timer_scheduler.c.obj
 .comment       0x000000000000007e       0x7f CMakeFiles/enocean_switch_nrf52832_xxAA_s132_6.0.0.dir/__/__/mesh/core/src/timer.c.obj
 .comment       0x000000000000007e       0x7f CMakeFiles/enocean_switch_nrf52832_xxAA_s132_6.0.0.dir/__/__/mesh/core/src/ticker.c.obj
 .comment       0x000000000000007e       0x7f CMakeFiles/enocean_switch_nrf52832_xxAA_s132_6.0.0.dir/__/__/mesh/core/src/rand.c.obj
 .comment       0x000000000000007e       0x7f CMakeFiles/enocean_switch_nrf52832_xxAA_s132_6.0.0.dir/__/__/mesh/core/src/nrf_mesh_opt.c.obj
 .comment       0x000000000000007e       0x7f CMakeFiles/enocean_switch_nrf52832_xxAA_s132_6.0.0.dir/__/__/mesh/core/src/timeslot.c.obj
 .comment       0x000000000000007e       0x7f CMakeFiles/enocean_switch_nrf52832_xxAA_s132_6.0.0.dir/__/__/mesh/core/src/bearer_event.c.obj
 .comment       0x000000000000007e       0x7f CMakeFiles/enocean_switch_nrf52832_xxAA_s132_6.0.0.dir/__/__/mesh/core/src/enc.c.obj
 .comment       0x000000000000007e       0x7f CMakeFiles/enocean_switch_nrf52832_xxAA_s132_6.0.0.dir/__/__/mesh/core/src/network.c.obj
 .comment       0x000000000000007e       0x7f CMakeFiles/enocean_switch_nrf52832_xxAA_s132_6.0.0.dir/__/__/mesh/core/src/net_packet.c.obj
 .comment       0x000000000000007e       0x7f CMakeFiles/enocean_switch_nrf52832_xxAA_s132_6.0.0.dir/__/__/mesh/core/src/msqueue.c.obj
 .comment       0x000000000000007e       0x7f CMakeFiles/enocean_switch_nrf52832_xxAA_s132_6.0.0.dir/__/__/mesh/core/src/nrf_mesh_keygen.c.obj
 .comment       0x000000000000007e       0x7f CMakeFiles/enocean_switch_nrf52832_xxAA_s132_6.0.0.dir/__/__/mesh/core/src/list.c.obj
 .comment       0x000000000000007e       0x7f CMakeFiles/enocean_switch_nrf52832_xxAA_s132_6.0.0.dir/__/__/mesh/core/src/log.c.obj
 .comment       0x000000000000007e       0x7f CMakeFiles/enocean_switch_nrf52832_xxAA_s132_6.0.0.dir/__/__/mesh/core/src/flash_manager.c.obj
 .comment       0x000000000000007e       0x7f CMakeFiles/enocean_switch_nrf52832_xxAA_s132_6.0.0.dir/__/__/mesh/core/src/ccm_soft.c.obj
 .comment       0x000000000000007e       0x7f CMakeFiles/enocean_switch_nrf52832_xxAA_s132_6.0.0.dir/__/__/mesh/core/src/replay_cache.c.obj
 .comment       0x000000000000007e       0x7f CMakeFiles/enocean_switch_nrf52832_xxAA_s132_6.0.0.dir/__/__/mesh/core/src/beacon.c.obj
 .comment       0x000000000000007e       0x7f CMakeFiles/enocean_switch_nrf52832_xxAA_s132_6.0.0.dir/__/__/mesh/core/src/flash_manager_internal.c.obj
 .comment       0x000000000000007e       0x7f CMakeFiles/enocean_switch_nrf52832_xxAA_s132_6.0.0.dir/__/__/mesh/core/src/core_tx.c.obj
 .comment       0x000000000000007e       0x7f CMakeFiles/enocean_switch_nrf52832_xxAA_s132_6.0.0.dir/__/__/mesh/core/src/heartbeat.c.obj
 .comment       0x000000000000007e       0x7f CMakeFiles/enocean_switch_nrf52832_xxAA_s132_6.0.0.dir/__/__/mesh/core/src/net_beacon.c.obj
 .comment       0x000000000000007e       0x7f CMakeFiles/enocean_switch_nrf52832_xxAA_s132_6.0.0.dir/__/__/mesh/core/src/core_tx_adv.c.obj
 .comment       0x000000000000007e       0x7f CMakeFiles/enocean_switch_nrf52832_xxAA_s132_6.0.0.dir/__/__/mesh/bearer/src/ad_listener.c.obj
 .comment       0x000000000000007e       0x7f CMakeFiles/enocean_switch_nrf52832_xxAA_s132_6.0.0.dir/__/__/mesh/bearer/src/ad_type_filter.c.obj
 .comment       0x000000000000007e       0x7f CMakeFiles/enocean_switch_nrf52832_xxAA_s132_6.0.0.dir/__/__/mesh/bearer/src/advertiser.c.obj
 .comment       0x000000000000007e       0x7f CMakeFiles/enocean_switch_nrf52832_xxAA_s132_6.0.0.dir/__/__/mesh/bearer/src/bearer_handler.c.obj
 .comment       0x000000000000007e       0x7f CMakeFiles/enocean_switch_nrf52832_xxAA_s132_6.0.0.dir/__/__/mesh/bearer/src/broadcast.c.obj
 .comment       0x000000000000007e       0x7f CMakeFiles/enocean_switch_nrf52832_xxAA_s132_6.0.0.dir/__/__/mesh/bearer/src/filter_engine.c.obj
 .comment       0x000000000000007e       0x7f CMakeFiles/enocean_switch_nrf52832_xxAA_s132_6.0.0.dir/__/__/mesh/bearer/src/radio_config.c.obj
 .comment       0x000000000000007e       0x7f CMakeFiles/enocean_switch_nrf52832_xxAA_s132_6.0.0.dir/__/__/mesh/bearer/src/scanner.c.obj
 .comment       0x000000000000007e       0x7f CMakeFiles/enocean_switch_nrf52832_xxAA_s132_6.0.0.dir/__/__/models/simple_on_off/src/simple_on_off_client.c.obj
 .comment       0x000000000000007e       0x7f CMakeFiles/enocean_switch_nrf52832_xxAA_s132_6.0.0.dir/__/__/models/config/src/composition_data.c.obj
 .comment       0x000000000000007e       0x7f CMakeFiles/enocean_switch_nrf52832_xxAA_s132_6.0.0.dir/__/__/models/config/src/config_server.c.obj
 .comment       0x000000000000007e       0x7f CMakeFiles/enocean_switch_nrf52832_xxAA_s132_6.0.0.dir/__/__/models/config/src/packed_index_list.c.obj
 .comment       0x000000000000007e       0x7f CMakeFiles/enocean_switch_nrf52832_xxAA_s132_6.0.0.dir/__/__/models/health/src/health_server.c.obj
 .comment       0x000000000000007e       0x7f CMakeFiles/enocean_switch_nrf52832_xxAA_s132_6.0.0.dir/__/__/mesh/access/src/access_publish.c.obj
 .comment       0x000000000000007e       0x7f CMakeFiles/enocean_switch_nrf52832_xxAA_s132_6.0.0.dir/__/__/mesh/access/src/access.c.obj
 .comment       0x000000000000007e       0x7f CMakeFiles/enocean_switch_nrf52832_xxAA_s132_6.0.0.dir/__/__/mesh/access/src/access_reliable.c.obj
 .comment       0x000000000000007e       0x7f CMakeFiles/enocean_switch_nrf52832_xxAA_s132_6.0.0.dir/__/__/mesh/access/src/device_state_manager.c.obj
 .comment       0x000000000000007e       0x7f CMakeFiles/enocean_switch_nrf52832_xxAA_s132_6.0.0.dir/__/__/mesh/prov/src/prov_provisionee.c.obj
 .comment       0x000000000000007e       0x7f CMakeFiles/enocean_switch_nrf52832_xxAA_s132_6.0.0.dir/__/__/mesh/prov/src/nrf_mesh_prov.c.obj
 .comment       0x000000000000007e       0x7f CMakeFiles/enocean_switch_nrf52832_xxAA_s132_6.0.0.dir/__/__/mesh/prov/src/provisioning.c.obj
 .comment       0x000000000000007e       0x7f CMakeFiles/enocean_switch_nrf52832_xxAA_s132_6.0.0.dir/__/__/mesh/prov/src/prov_beacon.c.obj
 .comment       0x000000000000007e       0x7f CMakeFiles/enocean_switch_nrf52832_xxAA_s132_6.0.0.dir/__/__/mesh/prov/src/prov_utils.c.obj
 .comment       0x000000000000007e       0x7f CMakeFiles/enocean_switch_nrf52832_xxAA_s132_6.0.0.dir/__/__/mesh/prov/src/prov_bearer_adv.c.obj
 .comment       0x000000000000007e       0x7f CMakeFiles/enocean_switch_nrf52832_xxAA_s132_6.0.0.dir/home/mazzer/work/nordic/sdk/nRF5_SDK_15.0.0/modules/nrfx/mdk/system_nrf52.c.obj
 .comment       0x000000000000007e       0x7f CMakeFiles/enocean_switch_nrf52832_xxAA_s132_6.0.0.dir/home/mazzer/work/nordic/sdk/nRF5_SDK_15.0.0/components/libraries/util/app_error.c.obj
 .comment       0x000000000000007e       0x7f CMakeFiles/enocean_switch_nrf52832_xxAA_s132_6.0.0.dir/home/mazzer/work/nordic/sdk/nRF5_SDK_15.0.0/components/libraries/util/app_error_handler_gcc.c.obj
 .comment       0x000000000000007e       0x7f ../../external/rtt/librtt_nrf52832_xxAA.a(SEGGER_RTT.c.obj)
 .comment       0x000000000000007e       0x7f ../../external/rtt/librtt_nrf52832_xxAA.a(SEGGER_RTT_printf.c.obj)
 .comment       0x000000000000007e       0x7f ../../external/micro-ecc/libuECC_nrf52832_xxAA.a(uECC.c.obj)

.debug_info     0x0000000000000000    0x984bd
 .debug_info    0x0000000000000000     0x48c1 CMakeFiles/enocean_switch_nrf52832_xxAA_s132_6.0.0.dir/src/main.c.obj
 .debug_info    0x00000000000048c1     0x19bb CMakeFiles/enocean_switch_nrf52832_xxAA_s132_6.0.0.dir/src/enocean.c.obj
 .debug_info    0x000000000000627c     0x18fb CMakeFiles/enocean_switch_nrf52832_xxAA_s132_6.0.0.dir/src/flash_helper.c.obj
 .debug_info    0x0000000000007b77     0x2346 CMakeFiles/enocean_switch_nrf52832_xxAA_s132_6.0.0.dir/__/__/mesh/stack/src/mesh_stack.c.obj
 .debug_info    0x0000000000009ebd     0x17aa CMakeFiles/enocean_switch_nrf52832_xxAA_s132_6.0.0.dir/__/common/src/mesh_softdevice_init.c.obj
 .debug_info    0x000000000000b667     0x218f CMakeFiles/enocean_switch_nrf52832_xxAA_s132_6.0.0.dir/__/common/src/mesh_provisionee.c.obj
 .debug_info    0x000000000000d7f6     0x1169 CMakeFiles/enocean_switch_nrf52832_xxAA_s132_6.0.0.dir/__/common/src/rtt_input.c.obj
 .debug_info    0x000000000000e95f     0x1572 CMakeFiles/enocean_switch_nrf52832_xxAA_s132_6.0.0.dir/__/common/src/simple_hal.c.obj
 .debug_info    0x000000000000fed1      0x91d CMakeFiles/enocean_switch_nrf52832_xxAA_s132_6.0.0.dir/__/nrf_mesh_weak.c.obj
 .debug_info    0x00000000000107ee     0x1170 CMakeFiles/enocean_switch_nrf52832_xxAA_s132_6.0.0.dir/__/common/src/app_error_weak.c.obj
 .debug_info    0x000000000001195e      0x994 CMakeFiles/enocean_switch_nrf52832_xxAA_s132_6.0.0.dir/__/common/src/assertion_handler_weak.c.obj
 .debug_info    0x00000000000122f2      0xcfd CMakeFiles/enocean_switch_nrf52832_xxAA_s132_6.0.0.dir/__/__/mesh/core/src/nrf_mesh_configure.c.obj
 .debug_info    0x0000000000012fef      0xbcc CMakeFiles/enocean_switch_nrf52832_xxAA_s132_6.0.0.dir/__/__/mesh/core/src/aes.c.obj
 .debug_info    0x0000000000013bbb      0xa51 CMakeFiles/enocean_switch_nrf52832_xxAA_s132_6.0.0.dir/__/__/mesh/core/src/msg_cache.c.obj
 .debug_info    0x000000000001460c     0x6184 CMakeFiles/enocean_switch_nrf52832_xxAA_s132_6.0.0.dir/__/__/mesh/core/src/transport.c.obj
 .debug_info    0x000000000001a790     0x1763 CMakeFiles/enocean_switch_nrf52832_xxAA_s132_6.0.0.dir/__/__/mesh/core/src/event.c.obj
 .debug_info    0x000000000001bef3     0x19a8 CMakeFiles/enocean_switch_nrf52832_xxAA_s132_6.0.0.dir/__/__/mesh/core/src/packet_buffer.c.obj
 .debug_info    0x000000000001d89b     0x2372 CMakeFiles/enocean_switch_nrf52832_xxAA_s132_6.0.0.dir/__/__/mesh/core/src/flash_manager_defrag.c.obj
 .debug_info    0x000000000001fc0d      0xd9a CMakeFiles/enocean_switch_nrf52832_xxAA_s132_6.0.0.dir/__/__/mesh/core/src/fifo.c.obj
 .debug_info    0x00000000000209a7      0xb38 CMakeFiles/enocean_switch_nrf52832_xxAA_s132_6.0.0.dir/__/__/mesh/core/src/nrf_flash.c.obj
 .debug_info    0x00000000000214df     0x118f CMakeFiles/enocean_switch_nrf52832_xxAA_s132_6.0.0.dir/__/__/mesh/core/src/packet_mgr.c.obj
 .debug_info    0x000000000002266e     0x3735 CMakeFiles/enocean_switch_nrf52832_xxAA_s132_6.0.0.dir/__/__/mesh/core/src/net_state.c.obj
 .debug_info    0x0000000000025da3     0x1be8 CMakeFiles/enocean_switch_nrf52832_xxAA_s132_6.0.0.dir/__/__/mesh/core/src/mesh_flash.c.obj
 .debug_info    0x000000000002798b      0xa72 CMakeFiles/enocean_switch_nrf52832_xxAA_s132_6.0.0.dir/__/__/mesh/core/src/nrf_mesh_utils.c.obj
 .debug_info    0x00000000000283fd     0x2678 CMakeFiles/enocean_switch_nrf52832_xxAA_s132_6.0.0.dir/__/__/mesh/core/src/nrf_mesh.c.obj
 .debug_info    0x000000000002aa75      0xb10 CMakeFiles/enocean_switch_nrf52832_xxAA_s132_6.0.0.dir/__/__/mesh/core/src/queue.c.obj
 .debug_info    0x000000000002b585      0x549 CMakeFiles/enocean_switch_nrf52832_xxAA_s132_6.0.0.dir/__/__/mesh/core/src/hal.c.obj
 .debug_info    0x000000000002bace      0xe8f CMakeFiles/enocean_switch_nrf52832_xxAA_s132_6.0.0.dir/__/__/mesh/core/src/aes_cmac.c.obj
 .debug_info    0x000000000002c95d     0x13bd CMakeFiles/enocean_switch_nrf52832_xxAA_s132_6.0.0.dir/__/__/mesh/core/src/timer_scheduler.c.obj
 .debug_info    0x000000000002dd1a      0xdfa CMakeFiles/enocean_switch_nrf52832_xxAA_s132_6.0.0.dir/__/__/mesh/core/src/timer.c.obj
 .debug_info    0x000000000002eb14      0x20c CMakeFiles/enocean_switch_nrf52832_xxAA_s132_6.0.0.dir/__/__/mesh/core/src/ticker.c.obj
 .debug_info    0x000000000002ed20      0x4b6 CMakeFiles/enocean_switch_nrf52832_xxAA_s132_6.0.0.dir/__/__/mesh/core/src/rand.c.obj
 .debug_info    0x000000000002f1d6      0xaef CMakeFiles/enocean_switch_nrf52832_xxAA_s132_6.0.0.dir/__/__/mesh/core/src/nrf_mesh_opt.c.obj
 .debug_info    0x000000000002fcc5     0x1bc6 CMakeFiles/enocean_switch_nrf52832_xxAA_s132_6.0.0.dir/__/__/mesh/core/src/timeslot.c.obj
 .debug_info    0x000000000003188b     0x1c7b CMakeFiles/enocean_switch_nrf52832_xxAA_s132_6.0.0.dir/__/__/mesh/core/src/bearer_event.c.obj
 .debug_info    0x0000000000033506     0x181f CMakeFiles/enocean_switch_nrf52832_xxAA_s132_6.0.0.dir/__/__/mesh/core/src/enc.c.obj
 .debug_info    0x0000000000034d25     0x1cc0 CMakeFiles/enocean_switch_nrf52832_xxAA_s132_6.0.0.dir/__/__/mesh/core/src/network.c.obj
 .debug_info    0x00000000000369e5     0x1de3 CMakeFiles/enocean_switch_nrf52832_xxAA_s132_6.0.0.dir/__/__/mesh/core/src/net_packet.c.obj
 .debug_info    0x00000000000387c8      0xe51 CMakeFiles/enocean_switch_nrf52832_xxAA_s132_6.0.0.dir/__/__/mesh/core/src/msqueue.c.obj
 .debug_info    0x0000000000039619      0x4c0 CMakeFiles/enocean_switch_nrf52832_xxAA_s132_6.0.0.dir/__/__/mesh/core/src/nrf_mesh_keygen.c.obj
 .debug_info    0x0000000000039ad9      0x573 CMakeFiles/enocean_switch_nrf52832_xxAA_s132_6.0.0.dir/__/__/mesh/core/src/list.c.obj
 .debug_info    0x000000000003a04c      0xe8b CMakeFiles/enocean_switch_nrf52832_xxAA_s132_6.0.0.dir/__/__/mesh/core/src/log.c.obj
 .debug_info    0x000000000003aed7     0x3cc6 CMakeFiles/enocean_switch_nrf52832_xxAA_s132_6.0.0.dir/__/__/mesh/core/src/flash_manager.c.obj
 .debug_info    0x000000000003eb9d     0x120f CMakeFiles/enocean_switch_nrf52832_xxAA_s132_6.0.0.dir/__/__/mesh/core/src/ccm_soft.c.obj
 .debug_info    0x000000000003fdac      0xa87 CMakeFiles/enocean_switch_nrf52832_xxAA_s132_6.0.0.dir/__/__/mesh/core/src/replay_cache.c.obj
 .debug_info    0x0000000000040833     0x17c2 CMakeFiles/enocean_switch_nrf52832_xxAA_s132_6.0.0.dir/__/__/mesh/core/src/beacon.c.obj
 .debug_info    0x0000000000041ff5      0xb98 CMakeFiles/enocean_switch_nrf52832_xxAA_s132_6.0.0.dir/__/__/mesh/core/src/flash_manager_internal.c.obj
 .debug_info    0x0000000000042b8d     0x1264 CMakeFiles/enocean_switch_nrf52832_xxAA_s132_6.0.0.dir/__/__/mesh/core/src/core_tx.c.obj
 .debug_info    0x0000000000043df1     0x24e7 CMakeFiles/enocean_switch_nrf52832_xxAA_s132_6.0.0.dir/__/__/mesh/core/src/heartbeat.c.obj
 .debug_info    0x00000000000462d8     0x2a3c CMakeFiles/enocean_switch_nrf52832_xxAA_s132_6.0.0.dir/__/__/mesh/core/src/net_beacon.c.obj
 .debug_info    0x0000000000048d14     0x197e CMakeFiles/enocean_switch_nrf52832_xxAA_s132_6.0.0.dir/__/__/mesh/core/src/core_tx_adv.c.obj
 .debug_info    0x000000000004a692     0x116a CMakeFiles/enocean_switch_nrf52832_xxAA_s132_6.0.0.dir/__/__/mesh/bearer/src/ad_listener.c.obj
 .debug_info    0x000000000004b7fc      0xfc4 CMakeFiles/enocean_switch_nrf52832_xxAA_s132_6.0.0.dir/__/__/mesh/bearer/src/ad_type_filter.c.obj
 .debug_info    0x000000000004c7c0     0x29fb CMakeFiles/enocean_switch_nrf52832_xxAA_s132_6.0.0.dir/__/__/mesh/bearer/src/advertiser.c.obj
 .debug_info    0x000000000004f1bb     0x1a38 CMakeFiles/enocean_switch_nrf52832_xxAA_s132_6.0.0.dir/__/__/mesh/bearer/src/bearer_handler.c.obj
 .debug_info    0x0000000000050bf3     0x19a6 CMakeFiles/enocean_switch_nrf52832_xxAA_s132_6.0.0.dir/__/__/mesh/bearer/src/broadcast.c.obj
 .debug_info    0x0000000000052599      0xd3e CMakeFiles/enocean_switch_nrf52832_xxAA_s132_6.0.0.dir/__/__/mesh/bearer/src/filter_engine.c.obj
 .debug_info    0x00000000000532d7      0x8d7 CMakeFiles/enocean_switch_nrf52832_xxAA_s132_6.0.0.dir/__/__/mesh/bearer/src/radio_config.c.obj
 .debug_info    0x0000000000053bae     0x2c83 CMakeFiles/enocean_switch_nrf52832_xxAA_s132_6.0.0.dir/__/__/mesh/bearer/src/scanner.c.obj
 .debug_info    0x0000000000056831     0x168b CMakeFiles/enocean_switch_nrf52832_xxAA_s132_6.0.0.dir/__/__/models/simple_on_off/src/simple_on_off_client.c.obj
 .debug_info    0x0000000000057ebc      0xee4 CMakeFiles/enocean_switch_nrf52832_xxAA_s132_6.0.0.dir/__/__/models/config/src/composition_data.c.obj
 .debug_info    0x0000000000058da0     0xc3c3 CMakeFiles/enocean_switch_nrf52832_xxAA_s132_6.0.0.dir/__/__/models/config/src/config_server.c.obj
 .debug_info    0x0000000000065163      0x126 CMakeFiles/enocean_switch_nrf52832_xxAA_s132_6.0.0.dir/__/__/models/config/src/packed_index_list.c.obj
 .debug_info    0x0000000000065289     0x2e65 CMakeFiles/enocean_switch_nrf52832_xxAA_s132_6.0.0.dir/__/__/models/health/src/health_server.c.obj
 .debug_info    0x00000000000680ee     0x12cf CMakeFiles/enocean_switch_nrf52832_xxAA_s132_6.0.0.dir/__/__/mesh/access/src/access_publish.c.obj
 .debug_info    0x00000000000693bd     0x58be CMakeFiles/enocean_switch_nrf52832_xxAA_s132_6.0.0.dir/__/__/mesh/access/src/access.c.obj
 .debug_info    0x000000000006ec7b     0x1b90 CMakeFiles/enocean_switch_nrf52832_xxAA_s132_6.0.0.dir/__/__/mesh/access/src/access_reliable.c.obj
 .debug_info    0x000000000007080b     0x94c8 CMakeFiles/enocean_switch_nrf52832_xxAA_s132_6.0.0.dir/__/__/mesh/access/src/device_state_manager.c.obj
 .debug_info    0x0000000000079cd3     0x2c7b CMakeFiles/enocean_switch_nrf52832_xxAA_s132_6.0.0.dir/__/__/mesh/prov/src/prov_provisionee.c.obj
 .debug_info    0x000000000007c94e     0x1fa2 CMakeFiles/enocean_switch_nrf52832_xxAA_s132_6.0.0.dir/__/__/mesh/prov/src/nrf_mesh_prov.c.obj
 .debug_info    0x000000000007e8f0     0x18dc CMakeFiles/enocean_switch_nrf52832_xxAA_s132_6.0.0.dir/__/__/mesh/prov/src/provisioning.c.obj
 .debug_info    0x00000000000801cc     0x1a93 CMakeFiles/enocean_switch_nrf52832_xxAA_s132_6.0.0.dir/__/__/mesh/prov/src/prov_beacon.c.obj
 .debug_info    0x0000000000081c5f     0x2108 CMakeFiles/enocean_switch_nrf52832_xxAA_s132_6.0.0.dir/__/__/mesh/prov/src/prov_utils.c.obj
 .debug_info    0x0000000000083d67     0x4a03 CMakeFiles/enocean_switch_nrf52832_xxAA_s132_6.0.0.dir/__/__/mesh/prov/src/prov_bearer_adv.c.obj
 .debug_info    0x000000000008876a     0x1116 CMakeFiles/enocean_switch_nrf52832_xxAA_s132_6.0.0.dir/home/mazzer/work/nordic/sdk/nRF5_SDK_15.0.0/modules/nrfx/mdk/system_nrf52.c.obj
 .debug_info    0x0000000000089880       0x26 CMakeFiles/enocean_switch_nrf52832_xxAA_s132_6.0.0.dir/home/mazzer/work/nordic/sdk/nRF5_SDK_15.0.0/modules/nrfx/mdk/gcc_startup_nrf52.S.obj
 .debug_info    0x00000000000898a6      0xae7 CMakeFiles/enocean_switch_nrf52832_xxAA_s132_6.0.0.dir/home/mazzer/work/nordic/sdk/nRF5_SDK_15.0.0/components/libraries/util/app_error.c.obj
 .debug_info    0x000000000008a38d      0x96d CMakeFiles/enocean_switch_nrf52832_xxAA_s132_6.0.0.dir/home/mazzer/work/nordic/sdk/nRF5_SDK_15.0.0/components/libraries/util/app_error_handler_gcc.c.obj
 .debug_info    0x000000000008acfa     0x2b01 ../../external/rtt/librtt_nrf52832_xxAA.a(SEGGER_RTT.c.obj)
 .debug_info    0x000000000008d7fb     0x11e1 ../../external/rtt/librtt_nrf52832_xxAA.a(SEGGER_RTT_printf.c.obj)
 .debug_info    0x000000000008e9dc     0x9ae1 ../../external/micro-ecc/libuECC_nrf52832_xxAA.a(uECC.c.obj)

.debug_abbrev   0x0000000000000000    0x11c1e
 .debug_abbrev  0x0000000000000000      0x611 CMakeFiles/enocean_switch_nrf52832_xxAA_s132_6.0.0.dir/src/main.c.obj
 .debug_abbrev  0x0000000000000611      0x3bc CMakeFiles/enocean_switch_nrf52832_xxAA_s132_6.0.0.dir/src/enocean.c.obj
 .debug_abbrev  0x00000000000009cd      0x417 CMakeFiles/enocean_switch_nrf52832_xxAA_s132_6.0.0.dir/src/flash_helper.c.obj
 .debug_abbrev  0x0000000000000de4      0x3b3 CMakeFiles/enocean_switch_nrf52832_xxAA_s132_6.0.0.dir/__/__/mesh/stack/src/mesh_stack.c.obj
 .debug_abbrev  0x0000000000001197      0x408 CMakeFiles/enocean_switch_nrf52832_xxAA_s132_6.0.0.dir/__/common/src/mesh_softdevice_init.c.obj
 .debug_abbrev  0x000000000000159f      0x393 CMakeFiles/enocean_switch_nrf52832_xxAA_s132_6.0.0.dir/__/common/src/mesh_provisionee.c.obj
 .debug_abbrev  0x0000000000001932      0x2ba CMakeFiles/enocean_switch_nrf52832_xxAA_s132_6.0.0.dir/__/common/src/rtt_input.c.obj
 .debug_abbrev  0x0000000000001bec      0x372 CMakeFiles/enocean_switch_nrf52832_xxAA_s132_6.0.0.dir/__/common/src/simple_hal.c.obj
 .debug_abbrev  0x0000000000001f5e      0x1ae CMakeFiles/enocean_switch_nrf52832_xxAA_s132_6.0.0.dir/__/nrf_mesh_weak.c.obj
 .debug_abbrev  0x000000000000210c      0x2d5 CMakeFiles/enocean_switch_nrf52832_xxAA_s132_6.0.0.dir/__/common/src/app_error_weak.c.obj
 .debug_abbrev  0x00000000000023e1      0x1f6 CMakeFiles/enocean_switch_nrf52832_xxAA_s132_6.0.0.dir/__/common/src/assertion_handler_weak.c.obj
 .debug_abbrev  0x00000000000025d7      0x24b CMakeFiles/enocean_switch_nrf52832_xxAA_s132_6.0.0.dir/__/__/mesh/core/src/nrf_mesh_configure.c.obj
 .debug_abbrev  0x0000000000002822      0x266 CMakeFiles/enocean_switch_nrf52832_xxAA_s132_6.0.0.dir/__/__/mesh/core/src/aes.c.obj
 .debug_abbrev  0x0000000000002a88      0x24e CMakeFiles/enocean_switch_nrf52832_xxAA_s132_6.0.0.dir/__/__/mesh/core/src/msg_cache.c.obj
 .debug_abbrev  0x0000000000002cd6      0x5f7 CMakeFiles/enocean_switch_nrf52832_xxAA_s132_6.0.0.dir/__/__/mesh/core/src/transport.c.obj
 .debug_abbrev  0x00000000000032cd      0x2d2 CMakeFiles/enocean_switch_nrf52832_xxAA_s132_6.0.0.dir/__/__/mesh/core/src/event.c.obj
 .debug_abbrev  0x000000000000359f      0x44c CMakeFiles/enocean_switch_nrf52832_xxAA_s132_6.0.0.dir/__/__/mesh/core/src/packet_buffer.c.obj
 .debug_abbrev  0x00000000000039eb      0x526 CMakeFiles/enocean_switch_nrf52832_xxAA_s132_6.0.0.dir/__/__/mesh/core/src/flash_manager_defrag.c.obj
 .debug_abbrev  0x0000000000003f11      0x2fc CMakeFiles/enocean_switch_nrf52832_xxAA_s132_6.0.0.dir/__/__/mesh/core/src/fifo.c.obj
 .debug_abbrev  0x000000000000420d      0x22d CMakeFiles/enocean_switch_nrf52832_xxAA_s132_6.0.0.dir/__/__/mesh/core/src/nrf_flash.c.obj
 .debug_abbrev  0x000000000000443a      0x3bf CMakeFiles/enocean_switch_nrf52832_xxAA_s132_6.0.0.dir/__/__/mesh/core/src/packet_mgr.c.obj
 .debug_abbrev  0x00000000000047f9      0x5a6 CMakeFiles/enocean_switch_nrf52832_xxAA_s132_6.0.0.dir/__/__/mesh/core/src/net_state.c.obj
 .debug_abbrev  0x0000000000004d9f      0x467 CMakeFiles/enocean_switch_nrf52832_xxAA_s132_6.0.0.dir/__/__/mesh/core/src/mesh_flash.c.obj
 .debug_abbrev  0x0000000000005206      0x244 CMakeFiles/enocean_switch_nrf52832_xxAA_s132_6.0.0.dir/__/__/mesh/core/src/nrf_mesh_utils.c.obj
 .debug_abbrev  0x000000000000544a      0x47a CMakeFiles/enocean_switch_nrf52832_xxAA_s132_6.0.0.dir/__/__/mesh/core/src/nrf_mesh.c.obj
 .debug_abbrev  0x00000000000058c4      0x247 CMakeFiles/enocean_switch_nrf52832_xxAA_s132_6.0.0.dir/__/__/mesh/core/src/queue.c.obj
 .debug_abbrev  0x0000000000005b0b      0x1ed CMakeFiles/enocean_switch_nrf52832_xxAA_s132_6.0.0.dir/__/__/mesh/core/src/hal.c.obj
 .debug_abbrev  0x0000000000005cf8      0x2e3 CMakeFiles/enocean_switch_nrf52832_xxAA_s132_6.0.0.dir/__/__/mesh/core/src/aes_cmac.c.obj
 .debug_abbrev  0x0000000000005fdb      0x3f7 CMakeFiles/enocean_switch_nrf52832_xxAA_s132_6.0.0.dir/__/__/mesh/core/src/timer_scheduler.c.obj
 .debug_abbrev  0x00000000000063d2      0x378 CMakeFiles/enocean_switch_nrf52832_xxAA_s132_6.0.0.dir/__/__/mesh/core/src/timer.c.obj
 .debug_abbrev  0x000000000000674a      0x154 CMakeFiles/enocean_switch_nrf52832_xxAA_s132_6.0.0.dir/__/__/mesh/core/src/ticker.c.obj
 .debug_abbrev  0x000000000000689e      0x22e CMakeFiles/enocean_switch_nrf52832_xxAA_s132_6.0.0.dir/__/__/mesh/core/src/rand.c.obj
 .debug_abbrev  0x0000000000006acc      0x24c CMakeFiles/enocean_switch_nrf52832_xxAA_s132_6.0.0.dir/__/__/mesh/core/src/nrf_mesh_opt.c.obj
 .debug_abbrev  0x0000000000006d18      0x4e5 CMakeFiles/enocean_switch_nrf52832_xxAA_s132_6.0.0.dir/__/__/mesh/core/src/timeslot.c.obj
 .debug_abbrev  0x00000000000071fd      0x4f9 CMakeFiles/enocean_switch_nrf52832_xxAA_s132_6.0.0.dir/__/__/mesh/core/src/bearer_event.c.obj
 .debug_abbrev  0x00000000000076f6      0x39b CMakeFiles/enocean_switch_nrf52832_xxAA_s132_6.0.0.dir/__/__/mesh/core/src/enc.c.obj
 .debug_abbrev  0x0000000000007a91      0x4e2 CMakeFiles/enocean_switch_nrf52832_xxAA_s132_6.0.0.dir/__/__/mesh/core/src/network.c.obj
 .debug_abbrev  0x0000000000007f73      0x4a1 CMakeFiles/enocean_switch_nrf52832_xxAA_s132_6.0.0.dir/__/__/mesh/core/src/net_packet.c.obj
 .debug_abbrev  0x0000000000008414      0x2e9 CMakeFiles/enocean_switch_nrf52832_xxAA_s132_6.0.0.dir/__/__/mesh/core/src/msqueue.c.obj
 .debug_abbrev  0x00000000000086fd      0x156 CMakeFiles/enocean_switch_nrf52832_xxAA_s132_6.0.0.dir/__/__/mesh/core/src/nrf_mesh_keygen.c.obj
 .debug_abbrev  0x0000000000008853      0x1ec CMakeFiles/enocean_switch_nrf52832_xxAA_s132_6.0.0.dir/__/__/mesh/core/src/list.c.obj
 .debug_abbrev  0x0000000000008a3f      0x2b4 CMakeFiles/enocean_switch_nrf52832_xxAA_s132_6.0.0.dir/__/__/mesh/core/src/log.c.obj
 .debug_abbrev  0x0000000000008cf3      0x538 CMakeFiles/enocean_switch_nrf52832_xxAA_s132_6.0.0.dir/__/__/mesh/core/src/flash_manager.c.obj
 .debug_abbrev  0x000000000000922b      0x2f5 CMakeFiles/enocean_switch_nrf52832_xxAA_s132_6.0.0.dir/__/__/mesh/core/src/ccm_soft.c.obj
 .debug_abbrev  0x0000000000009520      0x29b CMakeFiles/enocean_switch_nrf52832_xxAA_s132_6.0.0.dir/__/__/mesh/core/src/replay_cache.c.obj
 .debug_abbrev  0x00000000000097bb      0x310 CMakeFiles/enocean_switch_nrf52832_xxAA_s132_6.0.0.dir/__/__/mesh/core/src/beacon.c.obj
 .debug_abbrev  0x0000000000009acb      0x2a4 CMakeFiles/enocean_switch_nrf52832_xxAA_s132_6.0.0.dir/__/__/mesh/core/src/flash_manager_internal.c.obj
 .debug_abbrev  0x0000000000009d6f      0x2fc CMakeFiles/enocean_switch_nrf52832_xxAA_s132_6.0.0.dir/__/__/mesh/core/src/core_tx.c.obj
 .debug_abbrev  0x000000000000a06b      0x4e3 CMakeFiles/enocean_switch_nrf52832_xxAA_s132_6.0.0.dir/__/__/mesh/core/src/heartbeat.c.obj
 .debug_abbrev  0x000000000000a54e      0x512 CMakeFiles/enocean_switch_nrf52832_xxAA_s132_6.0.0.dir/__/__/mesh/core/src/net_beacon.c.obj
 .debug_abbrev  0x000000000000aa60      0x330 CMakeFiles/enocean_switch_nrf52832_xxAA_s132_6.0.0.dir/__/__/mesh/core/src/core_tx_adv.c.obj
 .debug_abbrev  0x000000000000ad90      0x340 CMakeFiles/enocean_switch_nrf52832_xxAA_s132_6.0.0.dir/__/__/mesh/bearer/src/ad_listener.c.obj
 .debug_abbrev  0x000000000000b0d0      0x375 CMakeFiles/enocean_switch_nrf52832_xxAA_s132_6.0.0.dir/__/__/mesh/bearer/src/ad_type_filter.c.obj
 .debug_abbrev  0x000000000000b445      0x561 CMakeFiles/enocean_switch_nrf52832_xxAA_s132_6.0.0.dir/__/__/mesh/bearer/src/advertiser.c.obj
 .debug_abbrev  0x000000000000b9a6      0x3fa CMakeFiles/enocean_switch_nrf52832_xxAA_s132_6.0.0.dir/__/__/mesh/bearer/src/bearer_handler.c.obj
 .debug_abbrev  0x000000000000bda0      0x3eb CMakeFiles/enocean_switch_nrf52832_xxAA_s132_6.0.0.dir/__/__/mesh/bearer/src/broadcast.c.obj
 .debug_abbrev  0x000000000000c18b      0x2af CMakeFiles/enocean_switch_nrf52832_xxAA_s132_6.0.0.dir/__/__/mesh/bearer/src/filter_engine.c.obj
 .debug_abbrev  0x000000000000c43a      0x1e4 CMakeFiles/enocean_switch_nrf52832_xxAA_s132_6.0.0.dir/__/__/mesh/bearer/src/radio_config.c.obj
 .debug_abbrev  0x000000000000c61e      0x59f CMakeFiles/enocean_switch_nrf52832_xxAA_s132_6.0.0.dir/__/__/mesh/bearer/src/scanner.c.obj
 .debug_abbrev  0x000000000000cbbd      0x3c9 CMakeFiles/enocean_switch_nrf52832_xxAA_s132_6.0.0.dir/__/__/models/simple_on_off/src/simple_on_off_client.c.obj
 .debug_abbrev  0x000000000000cf86      0x305 CMakeFiles/enocean_switch_nrf52832_xxAA_s132_6.0.0.dir/__/__/models/config/src/composition_data.c.obj
 .debug_abbrev  0x000000000000d28b      0x56c CMakeFiles/enocean_switch_nrf52832_xxAA_s132_6.0.0.dir/__/__/models/config/src/config_server.c.obj
 .debug_abbrev  0x000000000000d7f7       0x95 CMakeFiles/enocean_switch_nrf52832_xxAA_s132_6.0.0.dir/__/__/models/config/src/packed_index_list.c.obj
 .debug_abbrev  0x000000000000d88c      0x505 CMakeFiles/enocean_switch_nrf52832_xxAA_s132_6.0.0.dir/__/__/models/health/src/health_server.c.obj
 .debug_abbrev  0x000000000000dd91      0x423 CMakeFiles/enocean_switch_nrf52832_xxAA_s132_6.0.0.dir/__/__/mesh/access/src/access_publish.c.obj
 .debug_abbrev  0x000000000000e1b4      0x67c CMakeFiles/enocean_switch_nrf52832_xxAA_s132_6.0.0.dir/__/__/mesh/access/src/access.c.obj
 .debug_abbrev  0x000000000000e830      0x455 CMakeFiles/enocean_switch_nrf52832_xxAA_s132_6.0.0.dir/__/__/mesh/access/src/access_reliable.c.obj
 .debug_abbrev  0x000000000000ec85      0x5b0 CMakeFiles/enocean_switch_nrf52832_xxAA_s132_6.0.0.dir/__/__/mesh/access/src/device_state_manager.c.obj
 .debug_abbrev  0x000000000000f235      0x47e CMakeFiles/enocean_switch_nrf52832_xxAA_s132_6.0.0.dir/__/__/mesh/prov/src/prov_provisionee.c.obj
 .debug_abbrev  0x000000000000f6b3      0x450 CMakeFiles/enocean_switch_nrf52832_xxAA_s132_6.0.0.dir/__/__/mesh/prov/src/nrf_mesh_prov.c.obj
 .debug_abbrev  0x000000000000fb03      0x2e6 CMakeFiles/enocean_switch_nrf52832_xxAA_s132_6.0.0.dir/__/__/mesh/prov/src/provisioning.c.obj
 .debug_abbrev  0x000000000000fde9      0x2fc CMakeFiles/enocean_switch_nrf52832_xxAA_s132_6.0.0.dir/__/__/mesh/prov/src/prov_beacon.c.obj
 .debug_abbrev  0x00000000000100e5      0x3f3 CMakeFiles/enocean_switch_nrf52832_xxAA_s132_6.0.0.dir/__/__/mesh/prov/src/prov_utils.c.obj
 .debug_abbrev  0x00000000000104d8      0x55d CMakeFiles/enocean_switch_nrf52832_xxAA_s132_6.0.0.dir/__/__/mesh/prov/src/prov_bearer_adv.c.obj
 .debug_abbrev  0x0000000000010a35      0x1df CMakeFiles/enocean_switch_nrf52832_xxAA_s132_6.0.0.dir/home/mazzer/work/nordic/sdk/nRF5_SDK_15.0.0/modules/nrfx/mdk/system_nrf52.c.obj
 .debug_abbrev  0x0000000000010c14       0x14 CMakeFiles/enocean_switch_nrf52832_xxAA_s132_6.0.0.dir/home/mazzer/work/nordic/sdk/nRF5_SDK_15.0.0/modules/nrfx/mdk/gcc_startup_nrf52.S.obj
 .debug_abbrev  0x0000000000010c28      0x232 CMakeFiles/enocean_switch_nrf52832_xxAA_s132_6.0.0.dir/home/mazzer/work/nordic/sdk/nRF5_SDK_15.0.0/components/libraries/util/app_error.c.obj
 .debug_abbrev  0x0000000000010e5a      0x1bd CMakeFiles/enocean_switch_nrf52832_xxAA_s132_6.0.0.dir/home/mazzer/work/nordic/sdk/nRF5_SDK_15.0.0/components/libraries/util/app_error_handler_gcc.c.obj
 .debug_abbrev  0x0000000000011017      0x3d2 ../../external/rtt/librtt_nrf52832_xxAA.a(SEGGER_RTT.c.obj)
 .debug_abbrev  0x00000000000113e9      0x353 ../../external/rtt/librtt_nrf52832_xxAA.a(SEGGER_RTT_printf.c.obj)
 .debug_abbrev  0x000000000001173c      0x4e2 ../../external/micro-ecc/libuECC_nrf52832_xxAA.a(uECC.c.obj)

.debug_loc      0x0000000000000000    0x4a822
 .debug_loc     0x0000000000000000      0x8dc CMakeFiles/enocean_switch_nrf52832_xxAA_s132_6.0.0.dir/src/main.c.obj
 .debug_loc     0x00000000000008dc      0x695 CMakeFiles/enocean_switch_nrf52832_xxAA_s132_6.0.0.dir/src/enocean.c.obj
 .debug_loc     0x0000000000000f71      0x378 CMakeFiles/enocean_switch_nrf52832_xxAA_s132_6.0.0.dir/src/flash_helper.c.obj
 .debug_loc     0x00000000000012e9      0x1a3 CMakeFiles/enocean_switch_nrf52832_xxAA_s132_6.0.0.dir/__/__/mesh/stack/src/mesh_stack.c.obj
 .debug_loc     0x000000000000148c      0x1bb CMakeFiles/enocean_switch_nrf52832_xxAA_s132_6.0.0.dir/__/common/src/mesh_softdevice_init.c.obj
 .debug_loc     0x0000000000001647      0x16b CMakeFiles/enocean_switch_nrf52832_xxAA_s132_6.0.0.dir/__/common/src/mesh_provisionee.c.obj
 .debug_loc     0x00000000000017b2       0xbf CMakeFiles/enocean_switch_nrf52832_xxAA_s132_6.0.0.dir/__/common/src/rtt_input.c.obj
 .debug_loc     0x0000000000001871      0x29c CMakeFiles/enocean_switch_nrf52832_xxAA_s132_6.0.0.dir/__/common/src/simple_hal.c.obj
 .debug_loc     0x0000000000001b0d      0x1c6 CMakeFiles/enocean_switch_nrf52832_xxAA_s132_6.0.0.dir/__/common/src/app_error_weak.c.obj
 .debug_loc     0x0000000000001cd3       0x2c CMakeFiles/enocean_switch_nrf52832_xxAA_s132_6.0.0.dir/__/common/src/assertion_handler_weak.c.obj
 .debug_loc     0x0000000000001cff       0x2c CMakeFiles/enocean_switch_nrf52832_xxAA_s132_6.0.0.dir/__/__/mesh/core/src/nrf_mesh_configure.c.obj
 .debug_loc     0x0000000000001d2b       0x89 CMakeFiles/enocean_switch_nrf52832_xxAA_s132_6.0.0.dir/__/__/mesh/core/src/aes.c.obj
 .debug_loc     0x0000000000001db4       0xab CMakeFiles/enocean_switch_nrf52832_xxAA_s132_6.0.0.dir/__/__/mesh/core/src/msg_cache.c.obj
 .debug_loc     0x0000000000001e5f     0x41e3 CMakeFiles/enocean_switch_nrf52832_xxAA_s132_6.0.0.dir/__/__/mesh/core/src/transport.c.obj
 .debug_loc     0x0000000000006042      0x169 CMakeFiles/enocean_switch_nrf52832_xxAA_s132_6.0.0.dir/__/__/mesh/core/src/event.c.obj
 .debug_loc     0x00000000000061ab      0xcfb CMakeFiles/enocean_switch_nrf52832_xxAA_s132_6.0.0.dir/__/__/mesh/core/src/packet_buffer.c.obj
 .debug_loc     0x0000000000006ea6      0xbd0 CMakeFiles/enocean_switch_nrf52832_xxAA_s132_6.0.0.dir/__/__/mesh/core/src/flash_manager_defrag.c.obj
 .debug_loc     0x0000000000007a76      0x86b CMakeFiles/enocean_switch_nrf52832_xxAA_s132_6.0.0.dir/__/__/mesh/core/src/fifo.c.obj
 .debug_loc     0x00000000000082e1      0x194 CMakeFiles/enocean_switch_nrf52832_xxAA_s132_6.0.0.dir/__/__/mesh/core/src/nrf_flash.c.obj
 .debug_loc     0x0000000000008475      0x788 CMakeFiles/enocean_switch_nrf52832_xxAA_s132_6.0.0.dir/__/__/mesh/core/src/packet_mgr.c.obj
 .debug_loc     0x0000000000008bfd      0xfdf CMakeFiles/enocean_switch_nrf52832_xxAA_s132_6.0.0.dir/__/__/mesh/core/src/net_state.c.obj
 .debug_loc     0x0000000000009bdc      0xfd3 CMakeFiles/enocean_switch_nrf52832_xxAA_s132_6.0.0.dir/__/__/mesh/core/src/mesh_flash.c.obj
 .debug_loc     0x000000000000abaf      0x185 CMakeFiles/enocean_switch_nrf52832_xxAA_s132_6.0.0.dir/__/__/mesh/core/src/nrf_mesh_utils.c.obj
 .debug_loc     0x000000000000ad34      0x6be CMakeFiles/enocean_switch_nrf52832_xxAA_s132_6.0.0.dir/__/__/mesh/core/src/nrf_mesh.c.obj
 .debug_loc     0x000000000000b3f2      0x186 CMakeFiles/enocean_switch_nrf52832_xxAA_s132_6.0.0.dir/__/__/mesh/core/src/queue.c.obj
 .debug_loc     0x000000000000b578       0x84 CMakeFiles/enocean_switch_nrf52832_xxAA_s132_6.0.0.dir/__/__/mesh/core/src/hal.c.obj
 .debug_loc     0x000000000000b5fc      0xb75 CMakeFiles/enocean_switch_nrf52832_xxAA_s132_6.0.0.dir/__/__/mesh/core/src/aes_cmac.c.obj
 .debug_loc     0x000000000000c171      0x5b7 CMakeFiles/enocean_switch_nrf52832_xxAA_s132_6.0.0.dir/__/__/mesh/core/src/timer_scheduler.c.obj
 .debug_loc     0x000000000000c728      0x608 CMakeFiles/enocean_switch_nrf52832_xxAA_s132_6.0.0.dir/__/__/mesh/core/src/timer.c.obj
 .debug_loc     0x000000000000cd30      0x1c5 CMakeFiles/enocean_switch_nrf52832_xxAA_s132_6.0.0.dir/__/__/mesh/core/src/rand.c.obj
 .debug_loc     0x000000000000cef5      0x194 CMakeFiles/enocean_switch_nrf52832_xxAA_s132_6.0.0.dir/__/__/mesh/core/src/nrf_mesh_opt.c.obj
 .debug_loc     0x000000000000d089      0x4f1 CMakeFiles/enocean_switch_nrf52832_xxAA_s132_6.0.0.dir/__/__/mesh/core/src/timeslot.c.obj
 .debug_loc     0x000000000000d57a      0x86e CMakeFiles/enocean_switch_nrf52832_xxAA_s132_6.0.0.dir/__/__/mesh/core/src/bearer_event.c.obj
 .debug_loc     0x000000000000dde8      0xb0d CMakeFiles/enocean_switch_nrf52832_xxAA_s132_6.0.0.dir/__/__/mesh/core/src/enc.c.obj
 .debug_loc     0x000000000000e8f5      0x864 CMakeFiles/enocean_switch_nrf52832_xxAA_s132_6.0.0.dir/__/__/mesh/core/src/network.c.obj
 .debug_loc     0x000000000000f159      0x978 CMakeFiles/enocean_switch_nrf52832_xxAA_s132_6.0.0.dir/__/__/mesh/core/src/net_packet.c.obj
 .debug_loc     0x000000000000fad1      0x438 CMakeFiles/enocean_switch_nrf52832_xxAA_s132_6.0.0.dir/__/__/mesh/core/src/msqueue.c.obj
 .debug_loc     0x000000000000ff09      0x210 CMakeFiles/enocean_switch_nrf52832_xxAA_s132_6.0.0.dir/__/__/mesh/core/src/nrf_mesh_keygen.c.obj
 .debug_loc     0x0000000000010119      0x565 CMakeFiles/enocean_switch_nrf52832_xxAA_s132_6.0.0.dir/__/__/mesh/core/src/list.c.obj
 .debug_loc     0x000000000001067e      0x3dd CMakeFiles/enocean_switch_nrf52832_xxAA_s132_6.0.0.dir/__/__/mesh/core/src/log.c.obj
 .debug_loc     0x0000000000010a5b     0x21f7 CMakeFiles/enocean_switch_nrf52832_xxAA_s132_6.0.0.dir/__/__/mesh/core/src/flash_manager.c.obj
 .debug_loc     0x0000000000012c52      0xb6e CMakeFiles/enocean_switch_nrf52832_xxAA_s132_6.0.0.dir/__/__/mesh/core/src/ccm_soft.c.obj
 .debug_loc     0x00000000000137c0      0x16c CMakeFiles/enocean_switch_nrf52832_xxAA_s132_6.0.0.dir/__/__/mesh/core/src/replay_cache.c.obj
 .debug_loc     0x000000000001392c      0x416 CMakeFiles/enocean_switch_nrf52832_xxAA_s132_6.0.0.dir/__/__/mesh/core/src/beacon.c.obj
 .debug_loc     0x0000000000013d42      0x12d CMakeFiles/enocean_switch_nrf52832_xxAA_s132_6.0.0.dir/__/__/mesh/core/src/flash_manager_internal.c.obj
 .debug_loc     0x0000000000013e6f      0x4c4 CMakeFiles/enocean_switch_nrf52832_xxAA_s132_6.0.0.dir/__/__/mesh/core/src/core_tx.c.obj
 .debug_loc     0x0000000000014333      0x6c5 CMakeFiles/enocean_switch_nrf52832_xxAA_s132_6.0.0.dir/__/__/mesh/core/src/heartbeat.c.obj
 .debug_loc     0x00000000000149f8      0x6e9 CMakeFiles/enocean_switch_nrf52832_xxAA_s132_6.0.0.dir/__/__/mesh/core/src/net_beacon.c.obj
 .debug_loc     0x00000000000150e1      0x3d3 CMakeFiles/enocean_switch_nrf52832_xxAA_s132_6.0.0.dir/__/__/mesh/core/src/core_tx_adv.c.obj
 .debug_loc     0x00000000000154b4      0x45f CMakeFiles/enocean_switch_nrf52832_xxAA_s132_6.0.0.dir/__/__/mesh/bearer/src/ad_listener.c.obj
 .debug_loc     0x0000000000015913      0x321 CMakeFiles/enocean_switch_nrf52832_xxAA_s132_6.0.0.dir/__/__/mesh/bearer/src/ad_type_filter.c.obj
 .debug_loc     0x0000000000015c34     0x12af CMakeFiles/enocean_switch_nrf52832_xxAA_s132_6.0.0.dir/__/__/mesh/bearer/src/advertiser.c.obj
 .debug_loc     0x0000000000016ee3      0x394 CMakeFiles/enocean_switch_nrf52832_xxAA_s132_6.0.0.dir/__/__/mesh/bearer/src/bearer_handler.c.obj
 .debug_loc     0x0000000000017277      0x30e CMakeFiles/enocean_switch_nrf52832_xxAA_s132_6.0.0.dir/__/__/mesh/bearer/src/broadcast.c.obj
 .debug_loc     0x0000000000017585      0x179 CMakeFiles/enocean_switch_nrf52832_xxAA_s132_6.0.0.dir/__/__/mesh/bearer/src/filter_engine.c.obj
 .debug_loc     0x00000000000176fe      0x239 CMakeFiles/enocean_switch_nrf52832_xxAA_s132_6.0.0.dir/__/__/mesh/bearer/src/radio_config.c.obj
 .debug_loc     0x0000000000017937      0x899 CMakeFiles/enocean_switch_nrf52832_xxAA_s132_6.0.0.dir/__/__/mesh/bearer/src/scanner.c.obj
 .debug_loc     0x00000000000181d0      0x805 CMakeFiles/enocean_switch_nrf52832_xxAA_s132_6.0.0.dir/__/__/models/simple_on_off/src/simple_on_off_client.c.obj
 .debug_loc     0x00000000000189d5      0x29f CMakeFiles/enocean_switch_nrf52832_xxAA_s132_6.0.0.dir/__/__/models/config/src/composition_data.c.obj
 .debug_loc     0x0000000000018c74     0xa73e CMakeFiles/enocean_switch_nrf52832_xxAA_s132_6.0.0.dir/__/__/models/config/src/config_server.c.obj
 .debug_loc     0x00000000000233b2       0xa8 CMakeFiles/enocean_switch_nrf52832_xxAA_s132_6.0.0.dir/__/__/models/config/src/packed_index_list.c.obj
 .debug_loc     0x000000000002345a     0x3724 CMakeFiles/enocean_switch_nrf52832_xxAA_s132_6.0.0.dir/__/__/models/health/src/health_server.c.obj
 .debug_loc     0x0000000000026b7e      0x939 CMakeFiles/enocean_switch_nrf52832_xxAA_s132_6.0.0.dir/__/__/mesh/access/src/access_publish.c.obj
 .debug_loc     0x00000000000274b7     0x3f4f CMakeFiles/enocean_switch_nrf52832_xxAA_s132_6.0.0.dir/__/__/mesh/access/src/access.c.obj
 .debug_loc     0x000000000002b406      0xead CMakeFiles/enocean_switch_nrf52832_xxAA_s132_6.0.0.dir/__/__/mesh/access/src/access_reliable.c.obj
 .debug_loc     0x000000000002c2b3     0x963e CMakeFiles/enocean_switch_nrf52832_xxAA_s132_6.0.0.dir/__/__/mesh/access/src/device_state_manager.c.obj
 .debug_loc     0x00000000000358f1      0xa9f CMakeFiles/enocean_switch_nrf52832_xxAA_s132_6.0.0.dir/__/__/mesh/prov/src/prov_provisionee.c.obj
 .debug_loc     0x0000000000036390      0xaf3 CMakeFiles/enocean_switch_nrf52832_xxAA_s132_6.0.0.dir/__/__/mesh/prov/src/nrf_mesh_prov.c.obj
 .debug_loc     0x0000000000036e83      0xc0a CMakeFiles/enocean_switch_nrf52832_xxAA_s132_6.0.0.dir/__/__/mesh/prov/src/provisioning.c.obj
 .debug_loc     0x0000000000037a8d      0x255 CMakeFiles/enocean_switch_nrf52832_xxAA_s132_6.0.0.dir/__/__/mesh/prov/src/prov_beacon.c.obj
 .debug_loc     0x0000000000037ce2      0x492 CMakeFiles/enocean_switch_nrf52832_xxAA_s132_6.0.0.dir/__/__/mesh/prov/src/prov_utils.c.obj
 .debug_loc     0x0000000000038174     0x2722 CMakeFiles/enocean_switch_nrf52832_xxAA_s132_6.0.0.dir/__/__/mesh/prov/src/prov_bearer_adv.c.obj
 .debug_loc     0x000000000003a896       0xca CMakeFiles/enocean_switch_nrf52832_xxAA_s132_6.0.0.dir/home/mazzer/work/nordic/sdk/nRF5_SDK_15.0.0/components/libraries/util/app_error.c.obj
 .debug_loc     0x000000000003a960       0x63 CMakeFiles/enocean_switch_nrf52832_xxAA_s132_6.0.0.dir/home/mazzer/work/nordic/sdk/nRF5_SDK_15.0.0/components/libraries/util/app_error_handler_gcc.c.obj
 .debug_loc     0x000000000003a9c3     0x3e95 ../../external/rtt/librtt_nrf52832_xxAA.a(SEGGER_RTT.c.obj)
 .debug_loc     0x000000000003e858      0xec5 ../../external/rtt/librtt_nrf52832_xxAA.a(SEGGER_RTT_printf.c.obj)
 .debug_loc     0x000000000003f71d     0xb105 ../../external/micro-ecc/libuECC_nrf52832_xxAA.a(uECC.c.obj)

.debug_aranges  0x0000000000000000     0x1f20
 .debug_aranges
                0x0000000000000000       0x78 CMakeFiles/enocean_switch_nrf52832_xxAA_s132_6.0.0.dir/src/main.c.obj
 .debug_aranges
                0x0000000000000078       0x30 CMakeFiles/enocean_switch_nrf52832_xxAA_s132_6.0.0.dir/src/enocean.c.obj
 .debug_aranges
                0x00000000000000a8       0x60 CMakeFiles/enocean_switch_nrf52832_xxAA_s132_6.0.0.dir/src/flash_helper.c.obj
 .debug_aranges
                0x0000000000000108       0x50 CMakeFiles/enocean_switch_nrf52832_xxAA_s132_6.0.0.dir/__/__/mesh/stack/src/mesh_stack.c.obj
 .debug_aranges
                0x0000000000000158       0x40 CMakeFiles/enocean_switch_nrf52832_xxAA_s132_6.0.0.dir/__/common/src/mesh_softdevice_init.c.obj
 .debug_aranges
                0x0000000000000198       0x28 CMakeFiles/enocean_switch_nrf52832_xxAA_s132_6.0.0.dir/__/common/src/mesh_provisionee.c.obj
 .debug_aranges
                0x00000000000001c0       0x30 CMakeFiles/enocean_switch_nrf52832_xxAA_s132_6.0.0.dir/__/common/src/rtt_input.c.obj
 .debug_aranges
                0x00000000000001f0       0x50 CMakeFiles/enocean_switch_nrf52832_xxAA_s132_6.0.0.dir/__/common/src/simple_hal.c.obj
 .debug_aranges
                0x0000000000000240       0x28 CMakeFiles/enocean_switch_nrf52832_xxAA_s132_6.0.0.dir/__/nrf_mesh_weak.c.obj
 .debug_aranges
                0x0000000000000268       0x20 CMakeFiles/enocean_switch_nrf52832_xxAA_s132_6.0.0.dir/__/common/src/app_error_weak.c.obj
 .debug_aranges
                0x0000000000000288       0x20 CMakeFiles/enocean_switch_nrf52832_xxAA_s132_6.0.0.dir/__/common/src/assertion_handler_weak.c.obj
 .debug_aranges
                0x00000000000002a8       0x30 CMakeFiles/enocean_switch_nrf52832_xxAA_s132_6.0.0.dir/__/__/mesh/core/src/nrf_mesh_configure.c.obj
 .debug_aranges
                0x00000000000002d8       0x28 CMakeFiles/enocean_switch_nrf52832_xxAA_s132_6.0.0.dir/__/__/mesh/core/src/aes.c.obj
 .debug_aranges
                0x0000000000000300       0x38 CMakeFiles/enocean_switch_nrf52832_xxAA_s132_6.0.0.dir/__/__/mesh/core/src/msg_cache.c.obj
 .debug_aranges
                0x0000000000000338       0xc0 CMakeFiles/enocean_switch_nrf52832_xxAA_s132_6.0.0.dir/__/__/mesh/core/src/transport.c.obj
 .debug_aranges
                0x00000000000003f8       0x30 CMakeFiles/enocean_switch_nrf52832_xxAA_s132_6.0.0.dir/__/__/mesh/core/src/event.c.obj
 .debug_aranges
                0x0000000000000428       0x60 CMakeFiles/enocean_switch_nrf52832_xxAA_s132_6.0.0.dir/__/__/mesh/core/src/packet_buffer.c.obj
 .debug_aranges
                0x0000000000000488       0xa0 CMakeFiles/enocean_switch_nrf52832_xxAA_s132_6.0.0.dir/__/__/mesh/core/src/flash_manager_defrag.c.obj
 .debug_aranges
                0x0000000000000528       0x60 CMakeFiles/enocean_switch_nrf52832_xxAA_s132_6.0.0.dir/__/__/mesh/core/src/fifo.c.obj
 .debug_aranges
                0x0000000000000588       0x28 CMakeFiles/enocean_switch_nrf52832_xxAA_s132_6.0.0.dir/__/__/mesh/core/src/nrf_flash.c.obj
 .debug_aranges
                0x00000000000005b0       0x48 CMakeFiles/enocean_switch_nrf52832_xxAA_s132_6.0.0.dir/__/__/mesh/core/src/packet_mgr.c.obj
 .debug_aranges
                0x00000000000005f8       0xd0 CMakeFiles/enocean_switch_nrf52832_xxAA_s132_6.0.0.dir/__/__/mesh/core/src/net_state.c.obj
 .debug_aranges
                0x00000000000006c8       0x58 CMakeFiles/enocean_switch_nrf52832_xxAA_s132_6.0.0.dir/__/__/mesh/core/src/mesh_flash.c.obj
 .debug_aranges
                0x0000000000000720       0x30 CMakeFiles/enocean_switch_nrf52832_xxAA_s132_6.0.0.dir/__/__/mesh/core/src/nrf_mesh_utils.c.obj
 .debug_aranges
                0x0000000000000750       0x90 CMakeFiles/enocean_switch_nrf52832_xxAA_s132_6.0.0.dir/__/__/mesh/core/src/nrf_mesh.c.obj
 .debug_aranges
                0x00000000000007e0       0x38 CMakeFiles/enocean_switch_nrf52832_xxAA_s132_6.0.0.dir/__/__/mesh/core/src/queue.c.obj
 .debug_aranges
                0x0000000000000818       0x38 CMakeFiles/enocean_switch_nrf52832_xxAA_s132_6.0.0.dir/__/__/mesh/core/src/hal.c.obj
 .debug_aranges
                0x0000000000000850       0x28 CMakeFiles/enocean_switch_nrf52832_xxAA_s132_6.0.0.dir/__/__/mesh/core/src/aes_cmac.c.obj
 .debug_aranges
                0x0000000000000878       0x50 CMakeFiles/enocean_switch_nrf52832_xxAA_s132_6.0.0.dir/__/__/mesh/core/src/timer_scheduler.c.obj
 .debug_aranges
                0x00000000000008c8       0x58 CMakeFiles/enocean_switch_nrf52832_xxAA_s132_6.0.0.dir/__/__/mesh/core/src/timer.c.obj
 .debug_aranges
                0x0000000000000920       0x30 CMakeFiles/enocean_switch_nrf52832_xxAA_s132_6.0.0.dir/__/__/mesh/core/src/ticker.c.obj
 .debug_aranges
                0x0000000000000950       0x40 CMakeFiles/enocean_switch_nrf52832_xxAA_s132_6.0.0.dir/__/__/mesh/core/src/rand.c.obj
 .debug_aranges
                0x0000000000000990       0x28 CMakeFiles/enocean_switch_nrf52832_xxAA_s132_6.0.0.dir/__/__/mesh/core/src/nrf_mesh_opt.c.obj
 .debug_aranges
                0x00000000000009b8       0xa8 CMakeFiles/enocean_switch_nrf52832_xxAA_s132_6.0.0.dir/__/__/mesh/core/src/timeslot.c.obj
 .debug_aranges
                0x0000000000000a60       0x88 CMakeFiles/enocean_switch_nrf52832_xxAA_s132_6.0.0.dir/__/__/mesh/core/src/bearer_event.c.obj
 .debug_aranges
                0x0000000000000ae8       0x70 CMakeFiles/enocean_switch_nrf52832_xxAA_s132_6.0.0.dir/__/__/mesh/core/src/enc.c.obj
 .debug_aranges
                0x0000000000000b58       0x50 CMakeFiles/enocean_switch_nrf52832_xxAA_s132_6.0.0.dir/__/__/mesh/core/src/network.c.obj
 .debug_aranges
                0x0000000000000ba8       0x58 CMakeFiles/enocean_switch_nrf52832_xxAA_s132_6.0.0.dir/__/__/mesh/core/src/net_packet.c.obj
 .debug_aranges
                0x0000000000000c00       0x40 CMakeFiles/enocean_switch_nrf52832_xxAA_s132_6.0.0.dir/__/__/mesh/core/src/msqueue.c.obj
 .debug_aranges
                0x0000000000000c40       0x40 CMakeFiles/enocean_switch_nrf52832_xxAA_s132_6.0.0.dir/__/__/mesh/core/src/nrf_mesh_keygen.c.obj
 .debug_aranges
                0x0000000000000c80       0x40 CMakeFiles/enocean_switch_nrf52832_xxAA_s132_6.0.0.dir/__/__/mesh/core/src/list.c.obj
 .debug_aranges
                0x0000000000000cc0       0x48 CMakeFiles/enocean_switch_nrf52832_xxAA_s132_6.0.0.dir/__/__/mesh/core/src/log.c.obj
 .debug_aranges
                0x0000000000000d08       0xa0 CMakeFiles/enocean_switch_nrf52832_xxAA_s132_6.0.0.dir/__/__/mesh/core/src/flash_manager.c.obj
 .debug_aranges
                0x0000000000000da8       0x38 CMakeFiles/enocean_switch_nrf52832_xxAA_s132_6.0.0.dir/__/__/mesh/core/src/ccm_soft.c.obj
 .debug_aranges
                0x0000000000000de0       0x38 CMakeFiles/enocean_switch_nrf52832_xxAA_s132_6.0.0.dir/__/__/mesh/core/src/replay_cache.c.obj
 .debug_aranges
                0x0000000000000e18       0x28 CMakeFiles/enocean_switch_nrf52832_xxAA_s132_6.0.0.dir/__/__/mesh/core/src/beacon.c.obj
 .debug_aranges
                0x0000000000000e40       0x20 CMakeFiles/enocean_switch_nrf52832_xxAA_s132_6.0.0.dir/__/__/mesh/core/src/flash_manager_internal.c.obj
 .debug_aranges
                0x0000000000000e60       0x58 CMakeFiles/enocean_switch_nrf52832_xxAA_s132_6.0.0.dir/__/__/mesh/core/src/core_tx.c.obj
 .debug_aranges
                0x0000000000000eb8       0x70 CMakeFiles/enocean_switch_nrf52832_xxAA_s132_6.0.0.dir/__/__/mesh/core/src/heartbeat.c.obj
 .debug_aranges
                0x0000000000000f28       0x58 CMakeFiles/enocean_switch_nrf52832_xxAA_s132_6.0.0.dir/__/__/mesh/core/src/net_beacon.c.obj
 .debug_aranges
                0x0000000000000f80       0x68 CMakeFiles/enocean_switch_nrf52832_xxAA_s132_6.0.0.dir/__/__/mesh/core/src/core_tx_adv.c.obj
 .debug_aranges
                0x0000000000000fe8       0x30 CMakeFiles/enocean_switch_nrf52832_xxAA_s132_6.0.0.dir/__/__/mesh/bearer/src/ad_listener.c.obj
 .debug_aranges
                0x0000000000001018       0x58 CMakeFiles/enocean_switch_nrf52832_xxAA_s132_6.0.0.dir/__/__/mesh/bearer/src/ad_type_filter.c.obj
 .debug_aranges
                0x0000000000001070       0xa0 CMakeFiles/enocean_switch_nrf52832_xxAA_s132_6.0.0.dir/__/__/mesh/bearer/src/advertiser.c.obj
 .debug_aranges
                0x0000000000001110       0x70 CMakeFiles/enocean_switch_nrf52832_xxAA_s132_6.0.0.dir/__/__/mesh/bearer/src/bearer_handler.c.obj
 .debug_aranges
                0x0000000000001180       0x30 CMakeFiles/enocean_switch_nrf52832_xxAA_s132_6.0.0.dir/__/__/mesh/bearer/src/broadcast.c.obj
 .debug_aranges
                0x00000000000011b0       0x38 CMakeFiles/enocean_switch_nrf52832_xxAA_s132_6.0.0.dir/__/__/mesh/bearer/src/filter_engine.c.obj
 .debug_aranges
                0x00000000000011e8       0x40 CMakeFiles/enocean_switch_nrf52832_xxAA_s132_6.0.0.dir/__/__/mesh/bearer/src/radio_config.c.obj
 .debug_aranges
                0x0000000000001228       0xb8 CMakeFiles/enocean_switch_nrf52832_xxAA_s132_6.0.0.dir/__/__/mesh/bearer/src/scanner.c.obj
 .debug_aranges
                0x00000000000012e0       0x58 CMakeFiles/enocean_switch_nrf52832_xxAA_s132_6.0.0.dir/__/__/models/simple_on_off/src/simple_on_off_client.c.obj
 .debug_aranges
                0x0000000000001338       0x20 CMakeFiles/enocean_switch_nrf52832_xxAA_s132_6.0.0.dir/__/__/models/config/src/composition_data.c.obj
 .debug_aranges
                0x0000000000001358      0x1a8 CMakeFiles/enocean_switch_nrf52832_xxAA_s132_6.0.0.dir/__/__/models/config/src/config_server.c.obj
 .debug_aranges
                0x0000000000001500       0x20 CMakeFiles/enocean_switch_nrf52832_xxAA_s132_6.0.0.dir/__/__/models/config/src/packed_index_list.c.obj
 .debug_aranges
                0x0000000000001520       0xa0 CMakeFiles/enocean_switch_nrf52832_xxAA_s132_6.0.0.dir/__/__/models/health/src/health_server.c.obj
 .debug_aranges
                0x00000000000015c0       0x40 CMakeFiles/enocean_switch_nrf52832_xxAA_s132_6.0.0.dir/__/__/mesh/access/src/access_publish.c.obj
 .debug_aranges
                0x0000000000001600      0x180 CMakeFiles/enocean_switch_nrf52832_xxAA_s132_6.0.0.dir/__/__/mesh/access/src/access.c.obj
 .debug_aranges
                0x0000000000001780       0x50 CMakeFiles/enocean_switch_nrf52832_xxAA_s132_6.0.0.dir/__/__/mesh/access/src/access_reliable.c.obj
 .debug_aranges
                0x00000000000017d0      0x250 CMakeFiles/enocean_switch_nrf52832_xxAA_s132_6.0.0.dir/__/__/mesh/access/src/device_state_manager.c.obj
 .debug_aranges
                0x0000000000001a20       0x60 CMakeFiles/enocean_switch_nrf52832_xxAA_s132_6.0.0.dir/__/__/mesh/prov/src/prov_provisionee.c.obj
 .debug_aranges
                0x0000000000001a80       0x80 CMakeFiles/enocean_switch_nrf52832_xxAA_s132_6.0.0.dir/__/__/mesh/prov/src/nrf_mesh_prov.c.obj
 .debug_aranges
                0x0000000000001b00       0x78 CMakeFiles/enocean_switch_nrf52832_xxAA_s132_6.0.0.dir/__/__/mesh/prov/src/provisioning.c.obj
 .debug_aranges
                0x0000000000001b78       0x38 CMakeFiles/enocean_switch_nrf52832_xxAA_s132_6.0.0.dir/__/__/mesh/prov/src/prov_beacon.c.obj
 .debug_aranges
                0x0000000000001bb0       0x60 CMakeFiles/enocean_switch_nrf52832_xxAA_s132_6.0.0.dir/__/__/mesh/prov/src/prov_utils.c.obj
 .debug_aranges
                0x0000000000001c10       0xa0 CMakeFiles/enocean_switch_nrf52832_xxAA_s132_6.0.0.dir/__/__/mesh/prov/src/prov_bearer_adv.c.obj
 .debug_aranges
                0x0000000000001cb0       0x28 CMakeFiles/enocean_switch_nrf52832_xxAA_s132_6.0.0.dir/home/mazzer/work/nordic/sdk/nRF5_SDK_15.0.0/modules/nrfx/mdk/system_nrf52.c.obj
 .debug_aranges
                0x0000000000001cd8       0x20 CMakeFiles/enocean_switch_nrf52832_xxAA_s132_6.0.0.dir/home/mazzer/work/nordic/sdk/nRF5_SDK_15.0.0/modules/nrfx/mdk/gcc_startup_nrf52.S.obj
 .debug_aranges
                0x0000000000001cf8       0x28 CMakeFiles/enocean_switch_nrf52832_xxAA_s132_6.0.0.dir/home/mazzer/work/nordic/sdk/nRF5_SDK_15.0.0/components/libraries/util/app_error.c.obj
 .debug_aranges
                0x0000000000001d20       0x20 CMakeFiles/enocean_switch_nrf52832_xxAA_s132_6.0.0.dir/home/mazzer/work/nordic/sdk/nRF5_SDK_15.0.0/components/libraries/util/app_error_handler_gcc.c.obj
 .debug_aranges
                0x0000000000001d40       0xb0 ../../external/rtt/librtt_nrf52832_xxAA.a(SEGGER_RTT.c.obj)
 .debug_aranges
                0x0000000000001df0       0x30 ../../external/rtt/librtt_nrf52832_xxAA.a(SEGGER_RTT_printf.c.obj)
 .debug_aranges
                0x0000000000001e20      0x100 ../../external/micro-ecc/libuECC_nrf52832_xxAA.a(uECC.c.obj)

.debug_ranges   0x0000000000000000     0xde90
 .debug_ranges  0x0000000000000000      0x568 CMakeFiles/enocean_switch_nrf52832_xxAA_s132_6.0.0.dir/src/main.c.obj
 .debug_ranges  0x0000000000000568      0x118 CMakeFiles/enocean_switch_nrf52832_xxAA_s132_6.0.0.dir/src/enocean.c.obj
 .debug_ranges  0x0000000000000680      0x1b0 CMakeFiles/enocean_switch_nrf52832_xxAA_s132_6.0.0.dir/src/flash_helper.c.obj
 .debug_ranges  0x0000000000000830       0x88 CMakeFiles/enocean_switch_nrf52832_xxAA_s132_6.0.0.dir/__/__/mesh/stack/src/mesh_stack.c.obj
 .debug_ranges  0x00000000000008b8       0xe8 CMakeFiles/enocean_switch_nrf52832_xxAA_s132_6.0.0.dir/__/common/src/mesh_softdevice_init.c.obj
 .debug_ranges  0x00000000000009a0       0x90 CMakeFiles/enocean_switch_nrf52832_xxAA_s132_6.0.0.dir/__/common/src/mesh_provisionee.c.obj
 .debug_ranges  0x0000000000000a30       0x78 CMakeFiles/enocean_switch_nrf52832_xxAA_s132_6.0.0.dir/__/common/src/rtt_input.c.obj
 .debug_ranges  0x0000000000000aa8       0xc0 CMakeFiles/enocean_switch_nrf52832_xxAA_s132_6.0.0.dir/__/common/src/simple_hal.c.obj
 .debug_ranges  0x0000000000000b68       0x18 CMakeFiles/enocean_switch_nrf52832_xxAA_s132_6.0.0.dir/__/nrf_mesh_weak.c.obj
 .debug_ranges  0x0000000000000b80       0xc8 CMakeFiles/enocean_switch_nrf52832_xxAA_s132_6.0.0.dir/__/common/src/app_error_weak.c.obj
 .debug_ranges  0x0000000000000c48       0x10 CMakeFiles/enocean_switch_nrf52832_xxAA_s132_6.0.0.dir/__/common/src/assertion_handler_weak.c.obj
 .debug_ranges  0x0000000000000c58       0x20 CMakeFiles/enocean_switch_nrf52832_xxAA_s132_6.0.0.dir/__/__/mesh/core/src/nrf_mesh_configure.c.obj
 .debug_ranges  0x0000000000000c78       0x18 CMakeFiles/enocean_switch_nrf52832_xxAA_s132_6.0.0.dir/__/__/mesh/core/src/aes.c.obj
 .debug_ranges  0x0000000000000c90       0x40 CMakeFiles/enocean_switch_nrf52832_xxAA_s132_6.0.0.dir/__/__/mesh/core/src/msg_cache.c.obj
 .debug_ranges  0x0000000000000cd0      0xf08 CMakeFiles/enocean_switch_nrf52832_xxAA_s132_6.0.0.dir/__/__/mesh/core/src/transport.c.obj
 .debug_ranges  0x0000000000001bd8       0x20 CMakeFiles/enocean_switch_nrf52832_xxAA_s132_6.0.0.dir/__/__/mesh/core/src/event.c.obj
 .debug_ranges  0x0000000000001bf8      0x118 CMakeFiles/enocean_switch_nrf52832_xxAA_s132_6.0.0.dir/__/__/mesh/core/src/packet_buffer.c.obj
 .debug_ranges  0x0000000000001d10      0x4c8 CMakeFiles/enocean_switch_nrf52832_xxAA_s132_6.0.0.dir/__/__/mesh/core/src/flash_manager_defrag.c.obj
 .debug_ranges  0x00000000000021d8       0xc0 CMakeFiles/enocean_switch_nrf52832_xxAA_s132_6.0.0.dir/__/__/mesh/core/src/fifo.c.obj
 .debug_ranges  0x0000000000002298       0x30 CMakeFiles/enocean_switch_nrf52832_xxAA_s132_6.0.0.dir/__/__/mesh/core/src/nrf_flash.c.obj
 .debug_ranges  0x00000000000022c8       0xe8 CMakeFiles/enocean_switch_nrf52832_xxAA_s132_6.0.0.dir/__/__/mesh/core/src/packet_mgr.c.obj
 .debug_ranges  0x00000000000023b0      0x868 CMakeFiles/enocean_switch_nrf52832_xxAA_s132_6.0.0.dir/__/__/mesh/core/src/net_state.c.obj
 .debug_ranges  0x0000000000002c18      0x300 CMakeFiles/enocean_switch_nrf52832_xxAA_s132_6.0.0.dir/__/__/mesh/core/src/mesh_flash.c.obj
 .debug_ranges  0x0000000000002f18       0x20 CMakeFiles/enocean_switch_nrf52832_xxAA_s132_6.0.0.dir/__/__/mesh/core/src/nrf_mesh_utils.c.obj
 .debug_ranges  0x0000000000002f38      0x150 CMakeFiles/enocean_switch_nrf52832_xxAA_s132_6.0.0.dir/__/__/mesh/core/src/nrf_mesh.c.obj
 .debug_ranges  0x0000000000003088       0x28 CMakeFiles/enocean_switch_nrf52832_xxAA_s132_6.0.0.dir/__/__/mesh/core/src/queue.c.obj
 .debug_ranges  0x00000000000030b0       0x28 CMakeFiles/enocean_switch_nrf52832_xxAA_s132_6.0.0.dir/__/__/mesh/core/src/hal.c.obj
 .debug_ranges  0x00000000000030d8      0x150 CMakeFiles/enocean_switch_nrf52832_xxAA_s132_6.0.0.dir/__/__/mesh/core/src/aes_cmac.c.obj
 .debug_ranges  0x0000000000003228      0x288 CMakeFiles/enocean_switch_nrf52832_xxAA_s132_6.0.0.dir/__/__/mesh/core/src/timer_scheduler.c.obj
 .debug_ranges  0x00000000000034b0      0x178 CMakeFiles/enocean_switch_nrf52832_xxAA_s132_6.0.0.dir/__/__/mesh/core/src/timer.c.obj
 .debug_ranges  0x0000000000003628       0x20 CMakeFiles/enocean_switch_nrf52832_xxAA_s132_6.0.0.dir/__/__/mesh/core/src/ticker.c.obj
 .debug_ranges  0x0000000000003648       0x48 CMakeFiles/enocean_switch_nrf52832_xxAA_s132_6.0.0.dir/__/__/mesh/core/src/rand.c.obj
 .debug_ranges  0x0000000000003690       0x18 CMakeFiles/enocean_switch_nrf52832_xxAA_s132_6.0.0.dir/__/__/mesh/core/src/nrf_mesh_opt.c.obj
 .debug_ranges  0x00000000000036a8      0x250 CMakeFiles/enocean_switch_nrf52832_xxAA_s132_6.0.0.dir/__/__/mesh/core/src/timeslot.c.obj
 .debug_ranges  0x00000000000038f8      0x288 CMakeFiles/enocean_switch_nrf52832_xxAA_s132_6.0.0.dir/__/__/mesh/core/src/bearer_event.c.obj
 .debug_ranges  0x0000000000003b80      0x1b8 CMakeFiles/enocean_switch_nrf52832_xxAA_s132_6.0.0.dir/__/__/mesh/core/src/enc.c.obj
 .debug_ranges  0x0000000000003d38      0x1b8 CMakeFiles/enocean_switch_nrf52832_xxAA_s132_6.0.0.dir/__/__/mesh/core/src/network.c.obj
 .debug_ranges  0x0000000000003ef0      0x208 CMakeFiles/enocean_switch_nrf52832_xxAA_s132_6.0.0.dir/__/__/mesh/core/src/net_packet.c.obj
 .debug_ranges  0x00000000000040f8       0x78 CMakeFiles/enocean_switch_nrf52832_xxAA_s132_6.0.0.dir/__/__/mesh/core/src/msqueue.c.obj
 .debug_ranges  0x0000000000004170       0x30 CMakeFiles/enocean_switch_nrf52832_xxAA_s132_6.0.0.dir/__/__/mesh/core/src/nrf_mesh_keygen.c.obj
 .debug_ranges  0x00000000000041a0       0xf0 CMakeFiles/enocean_switch_nrf52832_xxAA_s132_6.0.0.dir/__/__/mesh/core/src/list.c.obj
 .debug_ranges  0x0000000000004290       0x58 CMakeFiles/enocean_switch_nrf52832_xxAA_s132_6.0.0.dir/__/__/mesh/core/src/log.c.obj
 .debug_ranges  0x00000000000042e8      0xc18 CMakeFiles/enocean_switch_nrf52832_xxAA_s132_6.0.0.dir/__/__/mesh/core/src/flash_manager.c.obj
 .debug_ranges  0x0000000000004f00       0xf8 CMakeFiles/enocean_switch_nrf52832_xxAA_s132_6.0.0.dir/__/__/mesh/core/src/ccm_soft.c.obj
 .debug_ranges  0x0000000000004ff8       0x48 CMakeFiles/enocean_switch_nrf52832_xxAA_s132_6.0.0.dir/__/__/mesh/core/src/replay_cache.c.obj
 .debug_ranges  0x0000000000005040       0x90 CMakeFiles/enocean_switch_nrf52832_xxAA_s132_6.0.0.dir/__/__/mesh/core/src/beacon.c.obj
 .debug_ranges  0x00000000000050d0       0x30 CMakeFiles/enocean_switch_nrf52832_xxAA_s132_6.0.0.dir/__/__/mesh/core/src/flash_manager_internal.c.obj
 .debug_ranges  0x0000000000005100       0xc0 CMakeFiles/enocean_switch_nrf52832_xxAA_s132_6.0.0.dir/__/__/mesh/core/src/core_tx.c.obj
 .debug_ranges  0x00000000000051c0      0x120 CMakeFiles/enocean_switch_nrf52832_xxAA_s132_6.0.0.dir/__/__/mesh/core/src/heartbeat.c.obj
 .debug_ranges  0x00000000000052e0      0x1b8 CMakeFiles/enocean_switch_nrf52832_xxAA_s132_6.0.0.dir/__/__/mesh/core/src/net_beacon.c.obj
 .debug_ranges  0x0000000000005498       0x58 CMakeFiles/enocean_switch_nrf52832_xxAA_s132_6.0.0.dir/__/__/mesh/core/src/core_tx_adv.c.obj
 .debug_ranges  0x00000000000054f0      0x118 CMakeFiles/enocean_switch_nrf52832_xxAA_s132_6.0.0.dir/__/__/mesh/bearer/src/ad_listener.c.obj
 .debug_ranges  0x0000000000005608       0xc8 CMakeFiles/enocean_switch_nrf52832_xxAA_s132_6.0.0.dir/__/__/mesh/bearer/src/ad_type_filter.c.obj
 .debug_ranges  0x00000000000056d0      0x478 CMakeFiles/enocean_switch_nrf52832_xxAA_s132_6.0.0.dir/__/__/mesh/bearer/src/advertiser.c.obj
 .debug_ranges  0x0000000000005b48      0x188 CMakeFiles/enocean_switch_nrf52832_xxAA_s132_6.0.0.dir/__/__/mesh/bearer/src/bearer_handler.c.obj
 .debug_ranges  0x0000000000005cd0       0xa0 CMakeFiles/enocean_switch_nrf52832_xxAA_s132_6.0.0.dir/__/__/mesh/bearer/src/broadcast.c.obj
 .debug_ranges  0x0000000000005d70       0x28 CMakeFiles/enocean_switch_nrf52832_xxAA_s132_6.0.0.dir/__/__/mesh/bearer/src/filter_engine.c.obj
 .debug_ranges  0x0000000000005d98       0x48 CMakeFiles/enocean_switch_nrf52832_xxAA_s132_6.0.0.dir/__/__/mesh/bearer/src/radio_config.c.obj
 .debug_ranges  0x0000000000005de0      0x400 CMakeFiles/enocean_switch_nrf52832_xxAA_s132_6.0.0.dir/__/__/mesh/bearer/src/scanner.c.obj
 .debug_ranges  0x00000000000061e0       0xc0 CMakeFiles/enocean_switch_nrf52832_xxAA_s132_6.0.0.dir/__/__/models/simple_on_off/src/simple_on_off_client.c.obj
 .debug_ranges  0x00000000000062a0       0x90 CMakeFiles/enocean_switch_nrf52832_xxAA_s132_6.0.0.dir/__/__/models/config/src/composition_data.c.obj
 .debug_ranges  0x0000000000006330     0x16a0 CMakeFiles/enocean_switch_nrf52832_xxAA_s132_6.0.0.dir/__/__/models/config/src/config_server.c.obj
 .debug_ranges  0x00000000000079d0       0x10 CMakeFiles/enocean_switch_nrf52832_xxAA_s132_6.0.0.dir/__/__/models/config/src/packed_index_list.c.obj
 .debug_ranges  0x00000000000079e0      0x6c8 CMakeFiles/enocean_switch_nrf52832_xxAA_s132_6.0.0.dir/__/__/models/health/src/health_server.c.obj
 .debug_ranges  0x00000000000080a8      0x318 CMakeFiles/enocean_switch_nrf52832_xxAA_s132_6.0.0.dir/__/__/mesh/access/src/access_publish.c.obj
 .debug_ranges  0x00000000000083c0      0xd90 CMakeFiles/enocean_switch_nrf52832_xxAA_s132_6.0.0.dir/__/__/mesh/access/src/access.c.obj
 .debug_ranges  0x0000000000009150      0x280 CMakeFiles/enocean_switch_nrf52832_xxAA_s132_6.0.0.dir/__/__/mesh/access/src/access_reliable.c.obj
 .debug_ranges  0x00000000000093d0     0x2018 CMakeFiles/enocean_switch_nrf52832_xxAA_s132_6.0.0.dir/__/__/mesh/access/src/device_state_manager.c.obj
 .debug_ranges  0x000000000000b3e8      0x1b0 CMakeFiles/enocean_switch_nrf52832_xxAA_s132_6.0.0.dir/__/__/mesh/prov/src/prov_provisionee.c.obj
 .debug_ranges  0x000000000000b598      0x140 CMakeFiles/enocean_switch_nrf52832_xxAA_s132_6.0.0.dir/__/__/mesh/prov/src/nrf_mesh_prov.c.obj
 .debug_ranges  0x000000000000b6d8      0x170 CMakeFiles/enocean_switch_nrf52832_xxAA_s132_6.0.0.dir/__/__/mesh/prov/src/provisioning.c.obj
 .debug_ranges  0x000000000000b848       0x40 CMakeFiles/enocean_switch_nrf52832_xxAA_s132_6.0.0.dir/__/__/mesh/prov/src/prov_beacon.c.obj
 .debug_ranges  0x000000000000b888       0x88 CMakeFiles/enocean_switch_nrf52832_xxAA_s132_6.0.0.dir/__/__/mesh/prov/src/prov_utils.c.obj
 .debug_ranges  0x000000000000b910      0x9c8 CMakeFiles/enocean_switch_nrf52832_xxAA_s132_6.0.0.dir/__/__/mesh/prov/src/prov_bearer_adv.c.obj
 .debug_ranges  0x000000000000c2d8      0x168 CMakeFiles/enocean_switch_nrf52832_xxAA_s132_6.0.0.dir/home/mazzer/work/nordic/sdk/nRF5_SDK_15.0.0/modules/nrfx/mdk/system_nrf52.c.obj
 .debug_ranges  0x000000000000c440       0x18 CMakeFiles/enocean_switch_nrf52832_xxAA_s132_6.0.0.dir/home/mazzer/work/nordic/sdk/nRF5_SDK_15.0.0/components/libraries/util/app_error.c.obj
 .debug_ranges  0x000000000000c458       0x10 CMakeFiles/enocean_switch_nrf52832_xxAA_s132_6.0.0.dir/home/mazzer/work/nordic/sdk/nRF5_SDK_15.0.0/components/libraries/util/app_error_handler_gcc.c.obj
 .debug_ranges  0x000000000000c468      0x5d8 ../../external/rtt/librtt_nrf52832_xxAA.a(SEGGER_RTT.c.obj)
 .debug_ranges  0x000000000000ca40      0x1b8 ../../external/rtt/librtt_nrf52832_xxAA.a(SEGGER_RTT_printf.c.obj)
 .debug_ranges  0x000000000000cbf8     0x1298 ../../external/micro-ecc/libuECC_nrf52832_xxAA.a(uECC.c.obj)

.debug_line     0x0000000000000000    0x21bb9
 .debug_line    0x0000000000000000      0xef8 CMakeFiles/enocean_switch_nrf52832_xxAA_s132_6.0.0.dir/src/main.c.obj
 .debug_line    0x0000000000000ef8      0x532 CMakeFiles/enocean_switch_nrf52832_xxAA_s132_6.0.0.dir/src/enocean.c.obj
 .debug_line    0x000000000000142a      0x6e8 CMakeFiles/enocean_switch_nrf52832_xxAA_s132_6.0.0.dir/src/flash_helper.c.obj
 .debug_line    0x0000000000001b12      0x6a9 CMakeFiles/enocean_switch_nrf52832_xxAA_s132_6.0.0.dir/__/__/mesh/stack/src/mesh_stack.c.obj
 .debug_line    0x00000000000021bb      0x49c CMakeFiles/enocean_switch_nrf52832_xxAA_s132_6.0.0.dir/__/common/src/mesh_softdevice_init.c.obj
 .debug_line    0x0000000000002657      0x6ff CMakeFiles/enocean_switch_nrf52832_xxAA_s132_6.0.0.dir/__/common/src/mesh_provisionee.c.obj
 .debug_line    0x0000000000002d56      0x379 CMakeFiles/enocean_switch_nrf52832_xxAA_s132_6.0.0.dir/__/common/src/rtt_input.c.obj
 .debug_line    0x00000000000030cf      0x572 CMakeFiles/enocean_switch_nrf52832_xxAA_s132_6.0.0.dir/__/common/src/simple_hal.c.obj
 .debug_line    0x0000000000003641      0x24f CMakeFiles/enocean_switch_nrf52832_xxAA_s132_6.0.0.dir/__/nrf_mesh_weak.c.obj
 .debug_line    0x0000000000003890      0x4e6 CMakeFiles/enocean_switch_nrf52832_xxAA_s132_6.0.0.dir/__/common/src/app_error_weak.c.obj
 .debug_line    0x0000000000003d76      0x272 CMakeFiles/enocean_switch_nrf52832_xxAA_s132_6.0.0.dir/__/common/src/assertion_handler_weak.c.obj
 .debug_line    0x0000000000003fe8      0x24a CMakeFiles/enocean_switch_nrf52832_xxAA_s132_6.0.0.dir/__/__/mesh/core/src/nrf_mesh_configure.c.obj
 .debug_line    0x0000000000004232      0x282 CMakeFiles/enocean_switch_nrf52832_xxAA_s132_6.0.0.dir/__/__/mesh/core/src/aes.c.obj
 .debug_line    0x00000000000044b4      0x2bf CMakeFiles/enocean_switch_nrf52832_xxAA_s132_6.0.0.dir/__/__/mesh/core/src/msg_cache.c.obj
 .debug_line    0x0000000000004773     0x1258 CMakeFiles/enocean_switch_nrf52832_xxAA_s132_6.0.0.dir/__/__/mesh/core/src/transport.c.obj
 .debug_line    0x00000000000059cb      0x3df CMakeFiles/enocean_switch_nrf52832_xxAA_s132_6.0.0.dir/__/__/mesh/core/src/event.c.obj
 .debug_line    0x0000000000005daa      0x55a CMakeFiles/enocean_switch_nrf52832_xxAA_s132_6.0.0.dir/__/__/mesh/core/src/packet_buffer.c.obj
 .debug_line    0x0000000000006304      0x8ba CMakeFiles/enocean_switch_nrf52832_xxAA_s132_6.0.0.dir/__/__/mesh/core/src/flash_manager_defrag.c.obj
 .debug_line    0x0000000000006bbe      0x468 CMakeFiles/enocean_switch_nrf52832_xxAA_s132_6.0.0.dir/__/__/mesh/core/src/fifo.c.obj
 .debug_line    0x0000000000007026      0x27a CMakeFiles/enocean_switch_nrf52832_xxAA_s132_6.0.0.dir/__/__/mesh/core/src/nrf_flash.c.obj
 .debug_line    0x00000000000072a0      0x4cc CMakeFiles/enocean_switch_nrf52832_xxAA_s132_6.0.0.dir/__/__/mesh/core/src/packet_mgr.c.obj
 .debug_line    0x000000000000776c      0xae0 CMakeFiles/enocean_switch_nrf52832_xxAA_s132_6.0.0.dir/__/__/mesh/core/src/net_state.c.obj
 .debug_line    0x000000000000824c      0x67a CMakeFiles/enocean_switch_nrf52832_xxAA_s132_6.0.0.dir/__/__/mesh/core/src/mesh_flash.c.obj
 .debug_line    0x00000000000088c6      0x2f8 CMakeFiles/enocean_switch_nrf52832_xxAA_s132_6.0.0.dir/__/__/mesh/core/src/nrf_mesh_utils.c.obj
 .debug_line    0x0000000000008bbe      0x92f CMakeFiles/enocean_switch_nrf52832_xxAA_s132_6.0.0.dir/__/__/mesh/core/src/nrf_mesh.c.obj
 .debug_line    0x00000000000094ed      0x337 CMakeFiles/enocean_switch_nrf52832_xxAA_s132_6.0.0.dir/__/__/mesh/core/src/queue.c.obj
 .debug_line    0x0000000000009824      0x25e CMakeFiles/enocean_switch_nrf52832_xxAA_s132_6.0.0.dir/__/__/mesh/core/src/hal.c.obj
 .debug_line    0x0000000000009a82      0x465 CMakeFiles/enocean_switch_nrf52832_xxAA_s132_6.0.0.dir/__/__/mesh/core/src/aes_cmac.c.obj
 .debug_line    0x0000000000009ee7      0x503 CMakeFiles/enocean_switch_nrf52832_xxAA_s132_6.0.0.dir/__/__/mesh/core/src/timer_scheduler.c.obj
 .debug_line    0x000000000000a3ea      0x557 CMakeFiles/enocean_switch_nrf52832_xxAA_s132_6.0.0.dir/__/__/mesh/core/src/timer.c.obj
 .debug_line    0x000000000000a941      0x17f CMakeFiles/enocean_switch_nrf52832_xxAA_s132_6.0.0.dir/__/__/mesh/core/src/ticker.c.obj
 .debug_line    0x000000000000aac0      0x341 CMakeFiles/enocean_switch_nrf52832_xxAA_s132_6.0.0.dir/__/__/mesh/core/src/rand.c.obj
 .debug_line    0x000000000000ae01      0x336 CMakeFiles/enocean_switch_nrf52832_xxAA_s132_6.0.0.dir/__/__/mesh/core/src/nrf_mesh_opt.c.obj
 .debug_line    0x000000000000b137      0x70e CMakeFiles/enocean_switch_nrf52832_xxAA_s132_6.0.0.dir/__/__/mesh/core/src/timeslot.c.obj
 .debug_line    0x000000000000b845      0x69b CMakeFiles/enocean_switch_nrf52832_xxAA_s132_6.0.0.dir/__/__/mesh/core/src/bearer_event.c.obj
 .debug_line    0x000000000000bee0      0x521 CMakeFiles/enocean_switch_nrf52832_xxAA_s132_6.0.0.dir/__/__/mesh/core/src/enc.c.obj
 .debug_line    0x000000000000c401      0x62d CMakeFiles/enocean_switch_nrf52832_xxAA_s132_6.0.0.dir/__/__/mesh/core/src/network.c.obj
 .debug_line    0x000000000000ca2e      0x61f CMakeFiles/enocean_switch_nrf52832_xxAA_s132_6.0.0.dir/__/__/mesh/core/src/net_packet.c.obj
 .debug_line    0x000000000000d04d      0x38a CMakeFiles/enocean_switch_nrf52832_xxAA_s132_6.0.0.dir/__/__/mesh/core/src/msqueue.c.obj
 .debug_line    0x000000000000d3d7      0x2f2 CMakeFiles/enocean_switch_nrf52832_xxAA_s132_6.0.0.dir/__/__/mesh/core/src/nrf_mesh_keygen.c.obj
 .debug_line    0x000000000000d6c9      0x3e6 CMakeFiles/enocean_switch_nrf52832_xxAA_s132_6.0.0.dir/__/__/mesh/core/src/list.c.obj
 .debug_line    0x000000000000daaf      0x331 CMakeFiles/enocean_switch_nrf52832_xxAA_s132_6.0.0.dir/__/__/mesh/core/src/log.c.obj
 .debug_line    0x000000000000dde0      0xc3a CMakeFiles/enocean_switch_nrf52832_xxAA_s132_6.0.0.dir/__/__/mesh/core/src/flash_manager.c.obj
 .debug_line    0x000000000000ea1a      0x4a9 CMakeFiles/enocean_switch_nrf52832_xxAA_s132_6.0.0.dir/__/__/mesh/core/src/ccm_soft.c.obj
 .debug_line    0x000000000000eec3      0x1dc CMakeFiles/enocean_switch_nrf52832_xxAA_s132_6.0.0.dir/__/__/mesh/core/src/replay_cache.c.obj
 .debug_line    0x000000000000f09f      0x5c5 CMakeFiles/enocean_switch_nrf52832_xxAA_s132_6.0.0.dir/__/__/mesh/core/src/beacon.c.obj
 .debug_line    0x000000000000f664      0x31b CMakeFiles/enocean_switch_nrf52832_xxAA_s132_6.0.0.dir/__/__/mesh/core/src/flash_manager_internal.c.obj
 .debug_line    0x000000000000f97f      0x42e CMakeFiles/enocean_switch_nrf52832_xxAA_s132_6.0.0.dir/__/__/mesh/core/src/core_tx.c.obj
 .debug_line    0x000000000000fdad      0x6b8 CMakeFiles/enocean_switch_nrf52832_xxAA_s132_6.0.0.dir/__/__/mesh/core/src/heartbeat.c.obj
 .debug_line    0x0000000000010465      0x756 CMakeFiles/enocean_switch_nrf52832_xxAA_s132_6.0.0.dir/__/__/mesh/core/src/net_beacon.c.obj
 .debug_line    0x0000000000010bbb      0x5cc CMakeFiles/enocean_switch_nrf52832_xxAA_s132_6.0.0.dir/__/__/mesh/core/src/core_tx_adv.c.obj
 .debug_line    0x0000000000011187      0x43b CMakeFiles/enocean_switch_nrf52832_xxAA_s132_6.0.0.dir/__/__/mesh/bearer/src/ad_listener.c.obj
 .debug_line    0x00000000000115c2      0x50f CMakeFiles/enocean_switch_nrf52832_xxAA_s132_6.0.0.dir/__/__/mesh/bearer/src/ad_type_filter.c.obj
 .debug_line    0x0000000000011ad1      0x8cd CMakeFiles/enocean_switch_nrf52832_xxAA_s132_6.0.0.dir/__/__/mesh/bearer/src/advertiser.c.obj
 .debug_line    0x000000000001239e      0x617 CMakeFiles/enocean_switch_nrf52832_xxAA_s132_6.0.0.dir/__/__/mesh/bearer/src/bearer_handler.c.obj
 .debug_line    0x00000000000129b5      0x42f CMakeFiles/enocean_switch_nrf52832_xxAA_s132_6.0.0.dir/__/__/mesh/bearer/src/broadcast.c.obj
 .debug_line    0x0000000000012de4      0x450 CMakeFiles/enocean_switch_nrf52832_xxAA_s132_6.0.0.dir/__/__/mesh/bearer/src/filter_engine.c.obj
 .debug_line    0x0000000000013234      0x346 CMakeFiles/enocean_switch_nrf52832_xxAA_s132_6.0.0.dir/__/__/mesh/bearer/src/radio_config.c.obj
 .debug_line    0x000000000001357a      0x8ef CMakeFiles/enocean_switch_nrf52832_xxAA_s132_6.0.0.dir/__/__/mesh/bearer/src/scanner.c.obj
 .debug_line    0x0000000000013e69      0x5db CMakeFiles/enocean_switch_nrf52832_xxAA_s132_6.0.0.dir/__/__/models/simple_on_off/src/simple_on_off_client.c.obj
 .debug_line    0x0000000000014444      0x3d1 CMakeFiles/enocean_switch_nrf52832_xxAA_s132_6.0.0.dir/__/__/models/config/src/composition_data.c.obj
 .debug_line    0x0000000000014815     0x2241 CMakeFiles/enocean_switch_nrf52832_xxAA_s132_6.0.0.dir/__/__/models/config/src/config_server.c.obj
 .debug_line    0x0000000000016a56      0x10a CMakeFiles/enocean_switch_nrf52832_xxAA_s132_6.0.0.dir/__/__/models/config/src/packed_index_list.c.obj
 .debug_line    0x0000000000016b60      0xb56 CMakeFiles/enocean_switch_nrf52832_xxAA_s132_6.0.0.dir/__/__/models/health/src/health_server.c.obj
 .debug_line    0x00000000000176b6      0x5c8 CMakeFiles/enocean_switch_nrf52832_xxAA_s132_6.0.0.dir/__/__/mesh/access/src/access_publish.c.obj
 .debug_line    0x0000000000017c7e     0x1498 CMakeFiles/enocean_switch_nrf52832_xxAA_s132_6.0.0.dir/__/__/mesh/access/src/access.c.obj
 .debug_line    0x0000000000019116      0x6ac CMakeFiles/enocean_switch_nrf52832_xxAA_s132_6.0.0.dir/__/__/mesh/access/src/access_reliable.c.obj
 .debug_line    0x00000000000197c2     0x27fa CMakeFiles/enocean_switch_nrf52832_xxAA_s132_6.0.0.dir/__/__/mesh/access/src/device_state_manager.c.obj
 .debug_line    0x000000000001bfbc      0x803 CMakeFiles/enocean_switch_nrf52832_xxAA_s132_6.0.0.dir/__/__/mesh/prov/src/prov_provisionee.c.obj
 .debug_line    0x000000000001c7bf      0x687 CMakeFiles/enocean_switch_nrf52832_xxAA_s132_6.0.0.dir/__/__/mesh/prov/src/nrf_mesh_prov.c.obj
 .debug_line    0x000000000001ce46      0x514 CMakeFiles/enocean_switch_nrf52832_xxAA_s132_6.0.0.dir/__/__/mesh/prov/src/provisioning.c.obj
 .debug_line    0x000000000001d35a      0x5c4 CMakeFiles/enocean_switch_nrf52832_xxAA_s132_6.0.0.dir/__/__/mesh/prov/src/prov_beacon.c.obj
 .debug_line    0x000000000001d91e      0x594 CMakeFiles/enocean_switch_nrf52832_xxAA_s132_6.0.0.dir/__/__/mesh/prov/src/prov_utils.c.obj
 .debug_line    0x000000000001deb2      0xf19 CMakeFiles/enocean_switch_nrf52832_xxAA_s132_6.0.0.dir/__/__/mesh/prov/src/prov_bearer_adv.c.obj
 .debug_line    0x000000000001edcb      0x2bd CMakeFiles/enocean_switch_nrf52832_xxAA_s132_6.0.0.dir/home/mazzer/work/nordic/sdk/nRF5_SDK_15.0.0/modules/nrfx/mdk/system_nrf52.c.obj
 .debug_line    0x000000000001f088       0xa1 CMakeFiles/enocean_switch_nrf52832_xxAA_s132_6.0.0.dir/home/mazzer/work/nordic/sdk/nRF5_SDK_15.0.0/modules/nrfx/mdk/gcc_startup_nrf52.S.obj
 .debug_line    0x000000000001f129      0x271 CMakeFiles/enocean_switch_nrf52832_xxAA_s132_6.0.0.dir/home/mazzer/work/nordic/sdk/nRF5_SDK_15.0.0/components/libraries/util/app_error.c.obj
 .debug_line    0x000000000001f39a      0x214 CMakeFiles/enocean_switch_nrf52832_xxAA_s132_6.0.0.dir/home/mazzer/work/nordic/sdk/nRF5_SDK_15.0.0/components/libraries/util/app_error_handler_gcc.c.obj
 .debug_line    0x000000000001f5ae      0xaaf ../../external/rtt/librtt_nrf52832_xxAA.a(SEGGER_RTT.c.obj)
 .debug_line    0x000000000002005d      0x401 ../../external/rtt/librtt_nrf52832_xxAA.a(SEGGER_RTT_printf.c.obj)
 .debug_line    0x000000000002045e     0x175b ../../external/micro-ecc/libuECC_nrf52832_xxAA.a(uECC.c.obj)

.debug_str      0x0000000000000000    0x147ae
 .debug_str     0x0000000000000000     0x31e9 CMakeFiles/enocean_switch_nrf52832_xxAA_s132_6.0.0.dir/src/main.c.obj
                                       0x368a (size before relaxing)
 .debug_str     0x00000000000031e9      0x303 CMakeFiles/enocean_switch_nrf52832_xxAA_s132_6.0.0.dir/src/enocean.c.obj
                                        0xf1a (size before relaxing)
 .debug_str     0x00000000000034ec      0x519 CMakeFiles/enocean_switch_nrf52832_xxAA_s132_6.0.0.dir/src/flash_helper.c.obj
                                        0xdba (size before relaxing)
 .debug_str     0x0000000000003a05      0x27f CMakeFiles/enocean_switch_nrf52832_xxAA_s132_6.0.0.dir/__/__/mesh/stack/src/mesh_stack.c.obj
                                       0x2799 (size before relaxing)
 .debug_str     0x0000000000003c84      0x34e CMakeFiles/enocean_switch_nrf52832_xxAA_s132_6.0.0.dir/__/common/src/mesh_softdevice_init.c.obj
                                       0x11e7 (size before relaxing)
 .debug_str     0x0000000000003fd2     0x1827 CMakeFiles/enocean_switch_nrf52832_xxAA_s132_6.0.0.dir/__/common/src/mesh_provisionee.c.obj
                                       0x24ac (size before relaxing)
 .debug_str     0x00000000000057f9      0x1c4 CMakeFiles/enocean_switch_nrf52832_xxAA_s132_6.0.0.dir/__/common/src/rtt_input.c.obj
                                        0xbd4 (size before relaxing)
 .debug_str     0x00000000000059bd      0x205 CMakeFiles/enocean_switch_nrf52832_xxAA_s132_6.0.0.dir/__/common/src/simple_hal.c.obj
                                        0xd56 (size before relaxing)
 .debug_str     0x0000000000005bc2       0x73 CMakeFiles/enocean_switch_nrf52832_xxAA_s132_6.0.0.dir/__/nrf_mesh_weak.c.obj
                                        0x687 (size before relaxing)
 .debug_str     0x0000000000005c35       0xd7 CMakeFiles/enocean_switch_nrf52832_xxAA_s132_6.0.0.dir/__/common/src/app_error_weak.c.obj
                                        0x8c8 (size before relaxing)
 .debug_str     0x0000000000005d0c       0x67 CMakeFiles/enocean_switch_nrf52832_xxAA_s132_6.0.0.dir/__/common/src/assertion_handler_weak.c.obj
                                        0x6dd (size before relaxing)
 .debug_str     0x0000000000005d73      0x16d CMakeFiles/enocean_switch_nrf52832_xxAA_s132_6.0.0.dir/__/__/mesh/core/src/nrf_mesh_configure.c.obj
                                        0x7e9 (size before relaxing)
 .debug_str     0x0000000000005ee0       0xf8 CMakeFiles/enocean_switch_nrf52832_xxAA_s132_6.0.0.dir/__/__/mesh/core/src/aes.c.obj
                                        0xaf4 (size before relaxing)
 .debug_str     0x0000000000005fd8       0xf2 CMakeFiles/enocean_switch_nrf52832_xxAA_s132_6.0.0.dir/__/__/mesh/core/src/msg_cache.c.obj
                                        0x724 (size before relaxing)
 .debug_str     0x00000000000060ca     0x1687 CMakeFiles/enocean_switch_nrf52832_xxAA_s132_6.0.0.dir/__/__/mesh/core/src/transport.c.obj
                                       0x3182 (size before relaxing)
 .debug_str     0x0000000000007751       0xb0 CMakeFiles/enocean_switch_nrf52832_xxAA_s132_6.0.0.dir/__/__/mesh/core/src/event.c.obj
                                       0x171e (size before relaxing)
 .debug_str     0x0000000000007801      0x344 CMakeFiles/enocean_switch_nrf52832_xxAA_s132_6.0.0.dir/__/__/mesh/core/src/packet_buffer.c.obj
                                        0xb17 (size before relaxing)
 .debug_str     0x0000000000007b45      0x675 CMakeFiles/enocean_switch_nrf52832_xxAA_s132_6.0.0.dir/__/__/mesh/core/src/flash_manager_defrag.c.obj
                                       0x116f (size before relaxing)
 .debug_str     0x00000000000081ba       0xdc CMakeFiles/enocean_switch_nrf52832_xxAA_s132_6.0.0.dir/__/__/mesh/core/src/fifo.c.obj
                                        0x746 (size before relaxing)
 .debug_str     0x0000000000008296       0xe1 CMakeFiles/enocean_switch_nrf52832_xxAA_s132_6.0.0.dir/__/__/mesh/core/src/nrf_flash.c.obj
                                        0x726 (size before relaxing)
 .debug_str     0x0000000000008377      0x2be CMakeFiles/enocean_switch_nrf52832_xxAA_s132_6.0.0.dir/__/__/mesh/core/src/packet_mgr.c.obj
                                        0xa10 (size before relaxing)
 .debug_str     0x0000000000008635      0x4bf CMakeFiles/enocean_switch_nrf52832_xxAA_s132_6.0.0.dir/__/__/mesh/core/src/net_state.c.obj
                                       0x21c4 (size before relaxing)
 .debug_str     0x0000000000008af4      0x3be CMakeFiles/enocean_switch_nrf52832_xxAA_s132_6.0.0.dir/__/__/mesh/core/src/mesh_flash.c.obj
                                        0xd47 (size before relaxing)
 .debug_str     0x0000000000008eb2       0xcb CMakeFiles/enocean_switch_nrf52832_xxAA_s132_6.0.0.dir/__/__/mesh/core/src/nrf_mesh_utils.c.obj
                                        0x7bc (size before relaxing)
 .debug_str     0x0000000000008f7d      0x5f2 CMakeFiles/enocean_switch_nrf52832_xxAA_s132_6.0.0.dir/__/__/mesh/core/src/nrf_mesh.c.obj
                                       0x21a2 (size before relaxing)
 .debug_str     0x000000000000956f       0x92 CMakeFiles/enocean_switch_nrf52832_xxAA_s132_6.0.0.dir/__/__/mesh/core/src/queue.c.obj
                                        0x6ee (size before relaxing)
 .debug_str     0x0000000000009601       0xec CMakeFiles/enocean_switch_nrf52832_xxAA_s132_6.0.0.dir/__/__/mesh/core/src/hal.c.obj
                                        0x7b4 (size before relaxing)
 .debug_str     0x00000000000096ed       0xef CMakeFiles/enocean_switch_nrf52832_xxAA_s132_6.0.0.dir/__/__/mesh/core/src/aes_cmac.c.obj
                                        0x780 (size before relaxing)
 .debug_str     0x00000000000097dc      0x17d CMakeFiles/enocean_switch_nrf52832_xxAA_s132_6.0.0.dir/__/__/mesh/core/src/timer_scheduler.c.obj
                                        0x99f (size before relaxing)
 .debug_str     0x0000000000009959      0x212 CMakeFiles/enocean_switch_nrf52832_xxAA_s132_6.0.0.dir/__/__/mesh/core/src/timer.c.obj
                                        0x8d4 (size before relaxing)
 .debug_str     0x0000000000009b6b       0x79 CMakeFiles/enocean_switch_nrf52832_xxAA_s132_6.0.0.dir/__/__/mesh/core/src/ticker.c.obj
                                        0x3c0 (size before relaxing)
 .debug_str     0x0000000000009be4       0xe3 CMakeFiles/enocean_switch_nrf52832_xxAA_s132_6.0.0.dir/__/__/mesh/core/src/rand.c.obj
                                        0x748 (size before relaxing)
 .debug_str     0x0000000000009cc7       0xbf CMakeFiles/enocean_switch_nrf52832_xxAA_s132_6.0.0.dir/__/__/mesh/core/src/nrf_mesh_opt.c.obj
                                        0x95b (size before relaxing)
 .debug_str     0x0000000000009d86      0x8ee CMakeFiles/enocean_switch_nrf52832_xxAA_s132_6.0.0.dir/__/__/mesh/core/src/timeslot.c.obj
                                       0x1861 (size before relaxing)
 .debug_str     0x000000000000a674      0x2f7 CMakeFiles/enocean_switch_nrf52832_xxAA_s132_6.0.0.dir/__/__/mesh/core/src/bearer_event.c.obj
                                        0xf24 (size before relaxing)
 .debug_str     0x000000000000a96b      0x1a5 CMakeFiles/enocean_switch_nrf52832_xxAA_s132_6.0.0.dir/__/__/mesh/core/src/enc.c.obj
                                        0xa53 (size before relaxing)
 .debug_str     0x000000000000ab10      0x330 CMakeFiles/enocean_switch_nrf52832_xxAA_s132_6.0.0.dir/__/__/mesh/core/src/network.c.obj
                                       0x1353 (size before relaxing)
 .debug_str     0x000000000000ae40      0x346 CMakeFiles/enocean_switch_nrf52832_xxAA_s132_6.0.0.dir/__/__/mesh/core/src/net_packet.c.obj
                                        0xef1 (size before relaxing)
 .debug_str     0x000000000000b186       0x8a CMakeFiles/enocean_switch_nrf52832_xxAA_s132_6.0.0.dir/__/__/mesh/core/src/msqueue.c.obj
                                        0x72a (size before relaxing)
 .debug_str     0x000000000000b210       0xff CMakeFiles/enocean_switch_nrf52832_xxAA_s132_6.0.0.dir/__/__/mesh/core/src/nrf_mesh_keygen.c.obj
                                        0x402 (size before relaxing)
 .debug_str     0x000000000000b30f       0xb4 CMakeFiles/enocean_switch_nrf52832_xxAA_s132_6.0.0.dir/__/__/mesh/core/src/list.c.obj
                                        0x329 (size before relaxing)
 .debug_str     0x000000000000b3c3      0x127 CMakeFiles/enocean_switch_nrf52832_xxAA_s132_6.0.0.dir/__/__/mesh/core/src/log.c.obj
                                        0x83b (size before relaxing)
 .debug_str     0x000000000000b4ea      0x520 CMakeFiles/enocean_switch_nrf52832_xxAA_s132_6.0.0.dir/__/__/mesh/core/src/flash_manager.c.obj
                                       0x15e3 (size before relaxing)
 .debug_str     0x000000000000ba0a       0xbc CMakeFiles/enocean_switch_nrf52832_xxAA_s132_6.0.0.dir/__/__/mesh/core/src/ccm_soft.c.obj
                                        0x7c8 (size before relaxing)
 .debug_str     0x000000000000bac6       0xc9 CMakeFiles/enocean_switch_nrf52832_xxAA_s132_6.0.0.dir/__/__/mesh/core/src/replay_cache.c.obj
                                        0x6f8 (size before relaxing)
 .debug_str     0x000000000000bb8f      0x10b CMakeFiles/enocean_switch_nrf52832_xxAA_s132_6.0.0.dir/__/__/mesh/core/src/beacon.c.obj
                                       0x116e (size before relaxing)
 .debug_str     0x000000000000bc9a       0x6f CMakeFiles/enocean_switch_nrf52832_xxAA_s132_6.0.0.dir/__/__/mesh/core/src/flash_manager_internal.c.obj
                                        0x80f (size before relaxing)
 .debug_str     0x000000000000bd09      0x2ec CMakeFiles/enocean_switch_nrf52832_xxAA_s132_6.0.0.dir/__/__/mesh/core/src/core_tx.c.obj
                                        0xc5a (size before relaxing)
 .debug_str     0x000000000000bff5      0x44f CMakeFiles/enocean_switch_nrf52832_xxAA_s132_6.0.0.dir/__/__/mesh/core/src/heartbeat.c.obj
                                       0x22ab (size before relaxing)
 .debug_str     0x000000000000c444      0x293 CMakeFiles/enocean_switch_nrf52832_xxAA_s132_6.0.0.dir/__/__/mesh/core/src/net_beacon.c.obj
                                       0x210b (size before relaxing)
 .debug_str     0x000000000000c6d7      0x13e CMakeFiles/enocean_switch_nrf52832_xxAA_s132_6.0.0.dir/__/__/mesh/core/src/core_tx_adv.c.obj
                                       0x1344 (size before relaxing)
 .debug_str     0x000000000000c815      0x1c4 CMakeFiles/enocean_switch_nrf52832_xxAA_s132_6.0.0.dir/__/__/mesh/bearer/src/ad_listener.c.obj
                                        0xc4d (size before relaxing)
 .debug_str     0x000000000000c9d9      0x199 CMakeFiles/enocean_switch_nrf52832_xxAA_s132_6.0.0.dir/__/__/mesh/bearer/src/ad_type_filter.c.obj
                                        0xa0a (size before relaxing)
 .debug_str     0x000000000000cb72      0x358 CMakeFiles/enocean_switch_nrf52832_xxAA_s132_6.0.0.dir/__/__/mesh/bearer/src/advertiser.c.obj
                                       0x155d (size before relaxing)
 .debug_str     0x000000000000ceca      0x35f CMakeFiles/enocean_switch_nrf52832_xxAA_s132_6.0.0.dir/__/__/mesh/bearer/src/bearer_handler.c.obj
                                        0xfe0 (size before relaxing)
 .debug_str     0x000000000000d229      0x1e3 CMakeFiles/enocean_switch_nrf52832_xxAA_s132_6.0.0.dir/__/__/mesh/bearer/src/broadcast.c.obj
                                        0xf97 (size before relaxing)
 .debug_str     0x000000000000d40c       0xa9 CMakeFiles/enocean_switch_nrf52832_xxAA_s132_6.0.0.dir/__/__/mesh/bearer/src/filter_engine.c.obj
                                        0x877 (size before relaxing)
 .debug_str     0x000000000000d4b5       0xb0 CMakeFiles/enocean_switch_nrf52832_xxAA_s132_6.0.0.dir/__/__/mesh/bearer/src/radio_config.c.obj
                                        0x7e5 (size before relaxing)
 .debug_str     0x000000000000d565      0x488 CMakeFiles/enocean_switch_nrf52832_xxAA_s132_6.0.0.dir/__/__/mesh/bearer/src/scanner.c.obj
                                       0x1929 (size before relaxing)
 .debug_str     0x000000000000d9ed      0x49a CMakeFiles/enocean_switch_nrf52832_xxAA_s132_6.0.0.dir/__/__/models/simple_on_off/src/simple_on_off_client.c.obj
                                       0x1155 (size before relaxing)
 .debug_str     0x000000000000de87      0x262 CMakeFiles/enocean_switch_nrf52832_xxAA_s132_6.0.0.dir/__/__/models/config/src/composition_data.c.obj
                                        0x948 (size before relaxing)
 .debug_str     0x000000000000e0e9     0x2675 CMakeFiles/enocean_switch_nrf52832_xxAA_s132_6.0.0.dir/__/__/models/config/src/config_server.c.obj
                                       0x5070 (size before relaxing)
 .debug_str     0x000000000001075e       0xa0 CMakeFiles/enocean_switch_nrf52832_xxAA_s132_6.0.0.dir/__/__/models/config/src/packed_index_list.c.obj
                                        0x2c1 (size before relaxing)
 .debug_str     0x00000000000107fe      0x641 CMakeFiles/enocean_switch_nrf52832_xxAA_s132_6.0.0.dir/__/__/models/health/src/health_server.c.obj
                                       0x170a (size before relaxing)
 .debug_str     0x0000000000010e3f      0x29b CMakeFiles/enocean_switch_nrf52832_xxAA_s132_6.0.0.dir/__/__/mesh/access/src/access_publish.c.obj
                                        0xc37 (size before relaxing)
 .debug_str     0x00000000000110da      0x7ad CMakeFiles/enocean_switch_nrf52832_xxAA_s132_6.0.0.dir/__/__/mesh/access/src/access.c.obj
                                       0x2fe1 (size before relaxing)
 .debug_str     0x0000000000011887      0x166 CMakeFiles/enocean_switch_nrf52832_xxAA_s132_6.0.0.dir/__/__/mesh/access/src/access_reliable.c.obj
                                       0x1071 (size before relaxing)
 .debug_str     0x00000000000119ed      0xd12 CMakeFiles/enocean_switch_nrf52832_xxAA_s132_6.0.0.dir/__/__/mesh/access/src/device_state_manager.c.obj
                                       0x30e4 (size before relaxing)
 .debug_str     0x00000000000126ff      0x60f CMakeFiles/enocean_switch_nrf52832_xxAA_s132_6.0.0.dir/__/__/mesh/prov/src/prov_provisionee.c.obj
                                       0x2253 (size before relaxing)
 .debug_str     0x0000000000012d0e      0x27e CMakeFiles/enocean_switch_nrf52832_xxAA_s132_6.0.0.dir/__/__/mesh/prov/src/nrf_mesh_prov.c.obj
                                       0x1e45 (size before relaxing)
 .debug_str     0x0000000000012f8c      0x124 CMakeFiles/enocean_switch_nrf52832_xxAA_s132_6.0.0.dir/__/__/mesh/prov/src/provisioning.c.obj
                                        0xf96 (size before relaxing)
 .debug_str     0x00000000000130b0       0xe8 CMakeFiles/enocean_switch_nrf52832_xxAA_s132_6.0.0.dir/__/__/mesh/prov/src/prov_beacon.c.obj
                                       0x19c7 (size before relaxing)
 .debug_str     0x0000000000013198      0x1fa CMakeFiles/enocean_switch_nrf52832_xxAA_s132_6.0.0.dir/__/__/mesh/prov/src/prov_utils.c.obj
                                       0x1f94 (size before relaxing)
 .debug_str     0x0000000000013392      0x44e CMakeFiles/enocean_switch_nrf52832_xxAA_s132_6.0.0.dir/__/__/mesh/prov/src/prov_bearer_adv.c.obj
                                       0x1c2b (size before relaxing)
 .debug_str     0x00000000000137e0      0x2f6 CMakeFiles/enocean_switch_nrf52832_xxAA_s132_6.0.0.dir/home/mazzer/work/nordic/sdk/nRF5_SDK_15.0.0/modules/nrfx/mdk/system_nrf52.c.obj
                                        0x7bd (size before relaxing)
 .debug_str     0x0000000000013ad6       0x61 CMakeFiles/enocean_switch_nrf52832_xxAA_s132_6.0.0.dir/home/mazzer/work/nordic/sdk/nRF5_SDK_15.0.0/modules/nrfx/mdk/gcc_startup_nrf52.S.obj
                                         0xb5 (size before relaxing)
 .debug_str     0x0000000000013b37       0xac CMakeFiles/enocean_switch_nrf52832_xxAA_s132_6.0.0.dir/home/mazzer/work/nordic/sdk/nRF5_SDK_15.0.0/components/libraries/util/app_error.c.obj
                                        0x768 (size before relaxing)
 .debug_str     0x0000000000013be3       0x5f CMakeFiles/enocean_switch_nrf52832_xxAA_s132_6.0.0.dir/home/mazzer/work/nordic/sdk/nRF5_SDK_15.0.0/components/libraries/util/app_error_handler_gcc.c.obj
                                        0x6cd (size before relaxing)
 .debug_str     0x0000000000013c42      0x33f ../../external/rtt/librtt_nrf52832_xxAA.a(SEGGER_RTT.c.obj)
                                        0x982 (size before relaxing)
 .debug_str     0x0000000000013f81      0x116 ../../external/rtt/librtt_nrf52832_xxAA.a(SEGGER_RTT_printf.c.obj)
                                        0x7f2 (size before relaxing)
 .debug_str     0x0000000000014097      0x717 ../../external/micro-ecc/libuECC_nrf52832_xxAA.a(uECC.c.obj)
                                        0x8df (size before relaxing)

.debug_frame    0x0000000000000000     0x6f7c
 .debug_frame   0x0000000000000000      0x214 CMakeFiles/enocean_switch_nrf52832_xxAA_s132_6.0.0.dir/src/main.c.obj
 .debug_frame   0x0000000000000214       0x7c CMakeFiles/enocean_switch_nrf52832_xxAA_s132_6.0.0.dir/src/enocean.c.obj
 .debug_frame   0x0000000000000290      0x164 CMakeFiles/enocean_switch_nrf52832_xxAA_s132_6.0.0.dir/src/flash_helper.c.obj
 .debug_frame   0x00000000000003f4       0xdc CMakeFiles/enocean_switch_nrf52832_xxAA_s132_6.0.0.dir/__/__/mesh/stack/src/mesh_stack.c.obj
 .debug_frame   0x00000000000004d0       0x88 CMakeFiles/enocean_switch_nrf52832_xxAA_s132_6.0.0.dir/__/common/src/mesh_softdevice_init.c.obj
 .debug_frame   0x0000000000000558       0x64 CMakeFiles/enocean_switch_nrf52832_xxAA_s132_6.0.0.dir/__/common/src/mesh_provisionee.c.obj
 .debug_frame   0x00000000000005bc       0x60 CMakeFiles/enocean_switch_nrf52832_xxAA_s132_6.0.0.dir/__/common/src/rtt_input.c.obj
 .debug_frame   0x000000000000061c       0xbc CMakeFiles/enocean_switch_nrf52832_xxAA_s132_6.0.0.dir/__/common/src/simple_hal.c.obj
 .debug_frame   0x00000000000006d8       0x30 CMakeFiles/enocean_switch_nrf52832_xxAA_s132_6.0.0.dir/__/nrf_mesh_weak.c.obj
 .debug_frame   0x0000000000000708       0x34 CMakeFiles/enocean_switch_nrf52832_xxAA_s132_6.0.0.dir/__/common/src/app_error_weak.c.obj
 .debug_frame   0x000000000000073c       0x2c CMakeFiles/enocean_switch_nrf52832_xxAA_s132_6.0.0.dir/__/common/src/assertion_handler_weak.c.obj
 .debug_frame   0x0000000000000768       0x4c CMakeFiles/enocean_switch_nrf52832_xxAA_s132_6.0.0.dir/__/__/mesh/core/src/nrf_mesh_configure.c.obj
 .debug_frame   0x00000000000007b4       0x40 CMakeFiles/enocean_switch_nrf52832_xxAA_s132_6.0.0.dir/__/__/mesh/core/src/aes.c.obj
 .debug_frame   0x00000000000007f4       0x7c CMakeFiles/enocean_switch_nrf52832_xxAA_s132_6.0.0.dir/__/__/mesh/core/src/msg_cache.c.obj
 .debug_frame   0x0000000000000870      0x3fc CMakeFiles/enocean_switch_nrf52832_xxAA_s132_6.0.0.dir/__/__/mesh/core/src/transport.c.obj
 .debug_frame   0x0000000000000c6c       0x74 CMakeFiles/enocean_switch_nrf52832_xxAA_s132_6.0.0.dir/__/__/mesh/core/src/event.c.obj
 .debug_frame   0x0000000000000ce0      0x10c CMakeFiles/enocean_switch_nrf52832_xxAA_s132_6.0.0.dir/__/__/mesh/core/src/packet_buffer.c.obj
 .debug_frame   0x0000000000000dec      0x268 CMakeFiles/enocean_switch_nrf52832_xxAA_s132_6.0.0.dir/__/__/mesh/core/src/flash_manager_defrag.c.obj
 .debug_frame   0x0000000000001054       0xd8 CMakeFiles/enocean_switch_nrf52832_xxAA_s132_6.0.0.dir/__/__/mesh/core/src/fifo.c.obj
 .debug_frame   0x000000000000112c       0x3c CMakeFiles/enocean_switch_nrf52832_xxAA_s132_6.0.0.dir/__/__/mesh/core/src/nrf_flash.c.obj
 .debug_frame   0x0000000000001168       0xac CMakeFiles/enocean_switch_nrf52832_xxAA_s132_6.0.0.dir/__/__/mesh/core/src/packet_mgr.c.obj
 .debug_frame   0x0000000000001214      0x31c CMakeFiles/enocean_switch_nrf52832_xxAA_s132_6.0.0.dir/__/__/mesh/core/src/net_state.c.obj
 .debug_frame   0x0000000000001530      0x130 CMakeFiles/enocean_switch_nrf52832_xxAA_s132_6.0.0.dir/__/__/mesh/core/src/mesh_flash.c.obj
 .debug_frame   0x0000000000001660       0x60 CMakeFiles/enocean_switch_nrf52832_xxAA_s132_6.0.0.dir/__/__/mesh/core/src/nrf_mesh_utils.c.obj
 .debug_frame   0x00000000000016c0      0x200 CMakeFiles/enocean_switch_nrf52832_xxAA_s132_6.0.0.dir/__/__/mesh/core/src/nrf_mesh.c.obj
 .debug_frame   0x00000000000018c0       0x74 CMakeFiles/enocean_switch_nrf52832_xxAA_s132_6.0.0.dir/__/__/mesh/core/src/queue.c.obj
 .debug_frame   0x0000000000001934       0x58 CMakeFiles/enocean_switch_nrf52832_xxAA_s132_6.0.0.dir/__/__/mesh/core/src/hal.c.obj
 .debug_frame   0x000000000000198c       0x60 CMakeFiles/enocean_switch_nrf52832_xxAA_s132_6.0.0.dir/__/__/mesh/core/src/aes_cmac.c.obj
 .debug_frame   0x00000000000019ec       0xe4 CMakeFiles/enocean_switch_nrf52832_xxAA_s132_6.0.0.dir/__/__/mesh/core/src/timer_scheduler.c.obj
 .debug_frame   0x0000000000001ad0      0x158 CMakeFiles/enocean_switch_nrf52832_xxAA_s132_6.0.0.dir/__/__/mesh/core/src/timer.c.obj
 .debug_frame   0x0000000000001c28       0x4c CMakeFiles/enocean_switch_nrf52832_xxAA_s132_6.0.0.dir/__/__/mesh/core/src/ticker.c.obj
 .debug_frame   0x0000000000001c74       0x9c CMakeFiles/enocean_switch_nrf52832_xxAA_s132_6.0.0.dir/__/__/mesh/core/src/rand.c.obj
 .debug_frame   0x0000000000001d10       0x30 CMakeFiles/enocean_switch_nrf52832_xxAA_s132_6.0.0.dir/__/__/mesh/core/src/nrf_mesh_opt.c.obj
 .debug_frame   0x0000000000001d40      0x190 CMakeFiles/enocean_switch_nrf52832_xxAA_s132_6.0.0.dir/__/__/mesh/core/src/timeslot.c.obj
 .debug_frame   0x0000000000001ed0      0x1ac CMakeFiles/enocean_switch_nrf52832_xxAA_s132_6.0.0.dir/__/__/mesh/core/src/bearer_event.c.obj
 .debug_frame   0x000000000000207c      0x158 CMakeFiles/enocean_switch_nrf52832_xxAA_s132_6.0.0.dir/__/__/mesh/core/src/enc.c.obj
 .debug_frame   0x00000000000021d4      0x10c CMakeFiles/enocean_switch_nrf52832_xxAA_s132_6.0.0.dir/__/__/mesh/core/src/network.c.obj
 .debug_frame   0x00000000000022e0       0xec CMakeFiles/enocean_switch_nrf52832_xxAA_s132_6.0.0.dir/__/__/mesh/core/src/net_packet.c.obj
 .debug_frame   0x00000000000023cc       0x94 CMakeFiles/enocean_switch_nrf52832_xxAA_s132_6.0.0.dir/__/__/mesh/core/src/msqueue.c.obj
 .debug_frame   0x0000000000002460       0xc8 CMakeFiles/enocean_switch_nrf52832_xxAA_s132_6.0.0.dir/__/__/mesh/core/src/nrf_mesh_keygen.c.obj
 .debug_frame   0x0000000000002528       0x98 CMakeFiles/enocean_switch_nrf52832_xxAA_s132_6.0.0.dir/__/__/mesh/core/src/list.c.obj
 .debug_frame   0x00000000000025c0       0xc0 CMakeFiles/enocean_switch_nrf52832_xxAA_s132_6.0.0.dir/__/__/mesh/core/src/log.c.obj
 .debug_frame   0x0000000000002680      0x258 CMakeFiles/enocean_switch_nrf52832_xxAA_s132_6.0.0.dir/__/__/mesh/core/src/flash_manager.c.obj
 .debug_frame   0x00000000000028d8       0xcc CMakeFiles/enocean_switch_nrf52832_xxAA_s132_6.0.0.dir/__/__/mesh/core/src/ccm_soft.c.obj
 .debug_frame   0x00000000000029a4       0xb8 CMakeFiles/enocean_switch_nrf52832_xxAA_s132_6.0.0.dir/__/__/mesh/core/src/replay_cache.c.obj
 .debug_frame   0x0000000000002a5c       0x7c CMakeFiles/enocean_switch_nrf52832_xxAA_s132_6.0.0.dir/__/__/mesh/core/src/beacon.c.obj
 .debug_frame   0x0000000000002ad8       0x34 CMakeFiles/enocean_switch_nrf52832_xxAA_s132_6.0.0.dir/__/__/mesh/core/src/flash_manager_internal.c.obj
 .debug_frame   0x0000000000002b0c       0xf8 CMakeFiles/enocean_switch_nrf52832_xxAA_s132_6.0.0.dir/__/__/mesh/core/src/core_tx.c.obj
 .debug_frame   0x0000000000002c04      0x184 CMakeFiles/enocean_switch_nrf52832_xxAA_s132_6.0.0.dir/__/__/mesh/core/src/heartbeat.c.obj
 .debug_frame   0x0000000000002d88      0x114 CMakeFiles/enocean_switch_nrf52832_xxAA_s132_6.0.0.dir/__/__/mesh/core/src/net_beacon.c.obj
 .debug_frame   0x0000000000002e9c      0x138 CMakeFiles/enocean_switch_nrf52832_xxAA_s132_6.0.0.dir/__/__/mesh/core/src/core_tx_adv.c.obj
 .debug_frame   0x0000000000002fd4       0x94 CMakeFiles/enocean_switch_nrf52832_xxAA_s132_6.0.0.dir/__/__/mesh/bearer/src/ad_listener.c.obj
 .debug_frame   0x0000000000003068       0xc0 CMakeFiles/enocean_switch_nrf52832_xxAA_s132_6.0.0.dir/__/__/mesh/bearer/src/ad_type_filter.c.obj
 .debug_frame   0x0000000000003128      0x278 CMakeFiles/enocean_switch_nrf52832_xxAA_s132_6.0.0.dir/__/__/mesh/bearer/src/advertiser.c.obj
 .debug_frame   0x00000000000033a0      0x170 CMakeFiles/enocean_switch_nrf52832_xxAA_s132_6.0.0.dir/__/__/mesh/bearer/src/bearer_handler.c.obj
 .debug_frame   0x0000000000003510       0x74 CMakeFiles/enocean_switch_nrf52832_xxAA_s132_6.0.0.dir/__/__/mesh/bearer/src/broadcast.c.obj
 .debug_frame   0x0000000000003584       0x88 CMakeFiles/enocean_switch_nrf52832_xxAA_s132_6.0.0.dir/__/__/mesh/bearer/src/filter_engine.c.obj
 .debug_frame   0x000000000000360c       0x98 CMakeFiles/enocean_switch_nrf52832_xxAA_s132_6.0.0.dir/__/__/mesh/bearer/src/radio_config.c.obj
 .debug_frame   0x00000000000036a4      0x244 CMakeFiles/enocean_switch_nrf52832_xxAA_s132_6.0.0.dir/__/__/mesh/bearer/src/scanner.c.obj
 .debug_frame   0x00000000000038e8      0x130 CMakeFiles/enocean_switch_nrf52832_xxAA_s132_6.0.0.dir/__/__/models/simple_on_off/src/simple_on_off_client.c.obj
 .debug_frame   0x0000000000003a18       0x40 CMakeFiles/enocean_switch_nrf52832_xxAA_s132_6.0.0.dir/__/__/models/config/src/composition_data.c.obj
 .debug_frame   0x0000000000003a58      0x834 CMakeFiles/enocean_switch_nrf52832_xxAA_s132_6.0.0.dir/__/__/models/config/src/config_server.c.obj
 .debug_frame   0x000000000000428c       0x30 CMakeFiles/enocean_switch_nrf52832_xxAA_s132_6.0.0.dir/__/__/models/config/src/packed_index_list.c.obj
 .debug_frame   0x00000000000042bc      0x27c CMakeFiles/enocean_switch_nrf52832_xxAA_s132_6.0.0.dir/__/__/models/health/src/health_server.c.obj
 .debug_frame   0x0000000000004538       0xf4 CMakeFiles/enocean_switch_nrf52832_xxAA_s132_6.0.0.dir/__/__/mesh/access/src/access_publish.c.obj
 .debug_frame   0x000000000000462c      0x688 CMakeFiles/enocean_switch_nrf52832_xxAA_s132_6.0.0.dir/__/__/mesh/access/src/access.c.obj
 .debug_frame   0x0000000000004cb4      0x14c CMakeFiles/enocean_switch_nrf52832_xxAA_s132_6.0.0.dir/__/__/mesh/access/src/access_reliable.c.obj
 .debug_frame   0x0000000000004e00      0xbd4 CMakeFiles/enocean_switch_nrf52832_xxAA_s132_6.0.0.dir/__/__/mesh/access/src/device_state_manager.c.obj
 .debug_frame   0x00000000000059d4      0x198 CMakeFiles/enocean_switch_nrf52832_xxAA_s132_6.0.0.dir/__/__/mesh/prov/src/prov_provisionee.c.obj
 .debug_frame   0x0000000000005b6c      0x1c8 CMakeFiles/enocean_switch_nrf52832_xxAA_s132_6.0.0.dir/__/__/mesh/prov/src/nrf_mesh_prov.c.obj
 .debug_frame   0x0000000000005d34      0x1a0 CMakeFiles/enocean_switch_nrf52832_xxAA_s132_6.0.0.dir/__/__/mesh/prov/src/provisioning.c.obj
 .debug_frame   0x0000000000005ed4       0x88 CMakeFiles/enocean_switch_nrf52832_xxAA_s132_6.0.0.dir/__/__/mesh/prov/src/prov_beacon.c.obj
 .debug_frame   0x0000000000005f5c      0x11c CMakeFiles/enocean_switch_nrf52832_xxAA_s132_6.0.0.dir/__/__/mesh/prov/src/prov_utils.c.obj
 .debug_frame   0x0000000000006078      0x2d8 CMakeFiles/enocean_switch_nrf52832_xxAA_s132_6.0.0.dir/__/__/mesh/prov/src/prov_bearer_adv.c.obj
 .debug_frame   0x0000000000006350       0x40 CMakeFiles/enocean_switch_nrf52832_xxAA_s132_6.0.0.dir/home/mazzer/work/nordic/sdk/nRF5_SDK_15.0.0/modules/nrfx/mdk/system_nrf52.c.obj
 .debug_frame   0x0000000000006390       0x54 CMakeFiles/enocean_switch_nrf52832_xxAA_s132_6.0.0.dir/home/mazzer/work/nordic/sdk/nRF5_SDK_15.0.0/components/libraries/util/app_error.c.obj
 .debug_frame   0x00000000000063e4       0x20 CMakeFiles/enocean_switch_nrf52832_xxAA_s132_6.0.0.dir/home/mazzer/work/nordic/sdk/nRF5_SDK_15.0.0/components/libraries/util/app_error_handler_gcc.c.obj
 .debug_frame   0x0000000000006404      0x2e4 ../../external/rtt/librtt_nrf52832_xxAA.a(SEGGER_RTT.c.obj)
 .debug_frame   0x00000000000066e8       0xa0 ../../external/rtt/librtt_nrf52832_xxAA.a(SEGGER_RTT_printf.c.obj)
 .debug_frame   0x0000000000006788      0x4c8 ../../external/micro-ecc/libuECC_nrf52832_xxAA.a(uECC.c.obj)
 .debug_frame   0x0000000000006c50       0x2c /usr/bin/../lib/gcc/arm-none-eabi/7.2.1/thumb/v7e-m/fpv4-sp/hard/libgcc.a(_aeabi_uldivmod.o)
 .debug_frame   0x0000000000006c7c       0x34 /usr/bin/../lib/gcc/arm-none-eabi/7.2.1/thumb/v7e-m/fpv4-sp/hard/libgcc.a(_udivmoddi4.o)
 .debug_frame   0x0000000000006cb0       0x28 /usr/bin/../lib/gcc/arm-none-eabi/7.2.1/../../../../arm-none-eabi/lib/thumb/v7e-m/fpv4-sp/hard/libg_nano.a(lib_a-exit.o)
 .debug_frame   0x0000000000006cd8       0x2c /usr/bin/../lib/gcc/arm-none-eabi/7.2.1/../../../../arm-none-eabi/lib/thumb/v7e-m/fpv4-sp/hard/libg_nano.a(lib_a-init.o)
 .debug_frame   0x0000000000006d04       0x30 /usr/bin/../lib/gcc/arm-none-eabi/7.2.1/../../../../arm-none-eabi/lib/thumb/v7e-m/fpv4-sp/hard/libg_nano.a(lib_a-malloc.o)
 .debug_frame   0x0000000000006d34       0x2c /usr/bin/../lib/gcc/arm-none-eabi/7.2.1/../../../../arm-none-eabi/lib/thumb/v7e-m/fpv4-sp/hard/libg_nano.a(lib_a-memcmp.o)
 .debug_frame   0x0000000000006d60       0x28 /usr/bin/../lib/gcc/arm-none-eabi/7.2.1/../../../../arm-none-eabi/lib/thumb/v7e-m/fpv4-sp/hard/libg_nano.a(lib_a-memcpy-stub.o)
 .debug_frame   0x0000000000006d88       0x20 /usr/bin/../lib/gcc/arm-none-eabi/7.2.1/../../../../arm-none-eabi/lib/thumb/v7e-m/fpv4-sp/hard/libg_nano.a(lib_a-memset.o)
 .debug_frame   0x0000000000006da8       0x38 /usr/bin/../lib/gcc/arm-none-eabi/7.2.1/../../../../arm-none-eabi/lib/thumb/v7e-m/fpv4-sp/hard/libg_nano.a(lib_a-nano-freer.o)
 .debug_frame   0x0000000000006de0       0x2c /usr/bin/../lib/gcc/arm-none-eabi/7.2.1/../../../../arm-none-eabi/lib/thumb/v7e-m/fpv4-sp/hard/libg_nano.a(lib_a-nano-mallocr.o)
 .debug_frame   0x0000000000006e0c       0x2c /usr/bin/../lib/gcc/arm-none-eabi/7.2.1/../../../../arm-none-eabi/lib/thumb/v7e-m/fpv4-sp/hard/libg_nano.a(lib_a-sbrkr.o)
 .debug_frame   0x0000000000006e38       0x20 /usr/bin/../lib/gcc/arm-none-eabi/7.2.1/../../../../arm-none-eabi/lib/thumb/v7e-m/fpv4-sp/hard/libg_nano.a(lib_a-strcpy.o)
 .debug_frame   0x0000000000006e58       0x38 /usr/bin/../lib/gcc/arm-none-eabi/7.2.1/../../../../arm-none-eabi/lib/thumb/v7e-m/fpv4-sp/hard/libg_nano.a(lib_a-strrchr.o)
 .debug_frame   0x0000000000006e90       0x30 /usr/bin/../lib/gcc/arm-none-eabi/7.2.1/../../../../arm-none-eabi/lib/thumb/v7e-m/fpv4-sp/hard/libg_nano.a(lib_a-mlock.o)
 .debug_frame   0x0000000000006ec0       0x5c /usr/bin/../lib/gcc/arm-none-eabi/7.2.1/../../../../arm-none-eabi/lib/thumb/v7e-m/fpv4-sp/hard/libg_nano.a(lib_a-reent.o)
 .debug_frame   0x0000000000006f1c       0x20 /usr/bin/../lib/gcc/arm-none-eabi/7.2.1/../../../../arm-none-eabi/lib/thumb/v7e-m/fpv4-sp/hard/libg_nano.a(lib_a-strchr.o)
 .debug_frame   0x0000000000006f3c       0x20 /usr/bin/../lib/gcc/arm-none-eabi/7.2.1/../../../../arm-none-eabi/lib/thumb/v7e-m/fpv4-sp/hard/libnosys.a(sbrk.o)
 .debug_frame   0x0000000000006f5c       0x20 /usr/bin/../lib/gcc/arm-none-eabi/7.2.1/../../../../arm-none-eabi/lib/thumb/v7e-m/fpv4-sp/hard/libnosys.a(_exit.o)
