Archive member included to satisfy reference by file (symbol)

../../external/rtt/librtt_nrf52840_xxAA.a(SEGGER_RTT.c.obj)
                              CMakeFiles/enocean_switch_nrf52840_xxAA_s140_6.0.0.dir/__/__/mesh/core/src/log.c.obj (SEGGER_RTT_Write)
../../external/rtt/librtt_nrf52840_xxAA.a(SEGGER_RTT_printf.c.obj)
                              CMakeFiles/enocean_switch_nrf52840_xxAA_s140_6.0.0.dir/__/__/mesh/core/src/log.c.obj (SEGGER_RTT_vprintf)
../../external/micro-ecc/libuECC_nrf52840_xxAA.a(uECC.c.obj)
                              CMakeFiles/enocean_switch_nrf52840_xxAA_s140_6.0.0.dir/__/__/mesh/prov/src/prov_utils.c.obj (uECC_secp256r1)
/usr/bin/../lib/gcc/arm-none-eabi/7.2.1/thumb/v7e-m/fpv4-sp/hard/libgcc.a(_aeabi_ldivmod.o)
                              CMakeFiles/enocean_switch_nrf52840_xxAA_s140_6.0.0.dir/__/common/src/rtt_input.c.obj (__aeabi_ldivmod)
/usr/bin/../lib/gcc/arm-none-eabi/7.2.1/thumb/v7e-m/fpv4-sp/hard/libgcc.a(_aeabi_uldivmod.o)
                              CMakeFiles/enocean_switch_nrf52840_xxAA_s140_6.0.0.dir/__/common/src/rtt_input.c.obj (__aeabi_uldivmod)
/usr/bin/../lib/gcc/arm-none-eabi/7.2.1/thumb/v7e-m/fpv4-sp/hard/libgcc.a(_udivmoddi4.o)
                              /usr/bin/../lib/gcc/arm-none-eabi/7.2.1/thumb/v7e-m/fpv4-sp/hard/libgcc.a(_aeabi_ldivmod.o) (__udivmoddi4)
/usr/bin/../lib/gcc/arm-none-eabi/7.2.1/thumb/v7e-m/fpv4-sp/hard/libgcc.a(_dvmd_tls.o)
                              /usr/bin/../lib/gcc/arm-none-eabi/7.2.1/thumb/v7e-m/fpv4-sp/hard/libgcc.a(_aeabi_ldivmod.o) (__aeabi_ldiv0)
/usr/bin/../lib/gcc/arm-none-eabi/7.2.1/../../../../arm-none-eabi/lib/thumb/v7e-m/fpv4-sp/hard/libg_nano.a(lib_a-exit.o)
                              /usr/bin/../lib/gcc/arm-none-eabi/7.2.1/../../../../arm-none-eabi/lib/thumb/v7e-m/fpv4-sp/hard/crt0.o (exit)
/usr/bin/../lib/gcc/arm-none-eabi/7.2.1/../../../../arm-none-eabi/lib/thumb/v7e-m/fpv4-sp/hard/libg_nano.a(lib_a-impure.o)
                              /usr/bin/../lib/gcc/arm-none-eabi/7.2.1/../../../../arm-none-eabi/lib/thumb/v7e-m/fpv4-sp/hard/libg_nano.a(lib_a-exit.o) (_global_impure_ptr)
/usr/bin/../lib/gcc/arm-none-eabi/7.2.1/../../../../arm-none-eabi/lib/thumb/v7e-m/fpv4-sp/hard/libg_nano.a(lib_a-init.o)
                              /usr/bin/../lib/gcc/arm-none-eabi/7.2.1/../../../../arm-none-eabi/lib/thumb/v7e-m/fpv4-sp/hard/crt0.o (__libc_init_array)
/usr/bin/../lib/gcc/arm-none-eabi/7.2.1/../../../../arm-none-eabi/lib/thumb/v7e-m/fpv4-sp/hard/libg_nano.a(lib_a-malloc.o)
                              CMakeFiles/enocean_switch_nrf52840_xxAA_s140_6.0.0.dir/__/__/mesh/core/src/transport.c.obj (malloc)
/usr/bin/../lib/gcc/arm-none-eabi/7.2.1/../../../../arm-none-eabi/lib/thumb/v7e-m/fpv4-sp/hard/libg_nano.a(lib_a-memcmp.o)
                              CMakeFiles/enocean_switch_nrf52840_xxAA_s140_6.0.0.dir/src/enocean.c.obj (memcmp)
/usr/bin/../lib/gcc/arm-none-eabi/7.2.1/../../../../arm-none-eabi/lib/thumb/v7e-m/fpv4-sp/hard/libg_nano.a(lib_a-memcpy-stub.o)
                              CMakeFiles/enocean_switch_nrf52840_xxAA_s140_6.0.0.dir/src/main.c.obj (memcpy)
/usr/bin/../lib/gcc/arm-none-eabi/7.2.1/../../../../arm-none-eabi/lib/thumb/v7e-m/fpv4-sp/hard/libg_nano.a(lib_a-memset.o)
                              /usr/bin/../lib/gcc/arm-none-eabi/7.2.1/../../../../arm-none-eabi/lib/thumb/v7e-m/fpv4-sp/hard/crt0.o (memset)
/usr/bin/../lib/gcc/arm-none-eabi/7.2.1/../../../../arm-none-eabi/lib/thumb/v7e-m/fpv4-sp/hard/libg_nano.a(lib_a-nano-freer.o)
                              /usr/bin/../lib/gcc/arm-none-eabi/7.2.1/../../../../arm-none-eabi/lib/thumb/v7e-m/fpv4-sp/hard/libg_nano.a(lib_a-malloc.o) (_free_r)
/usr/bin/../lib/gcc/arm-none-eabi/7.2.1/../../../../arm-none-eabi/lib/thumb/v7e-m/fpv4-sp/hard/libg_nano.a(lib_a-nano-mallocr.o)
                              /usr/bin/../lib/gcc/arm-none-eabi/7.2.1/../../../../arm-none-eabi/lib/thumb/v7e-m/fpv4-sp/hard/libg_nano.a(lib_a-malloc.o) (_malloc_r)
/usr/bin/../lib/gcc/arm-none-eabi/7.2.1/../../../../arm-none-eabi/lib/thumb/v7e-m/fpv4-sp/hard/libg_nano.a(lib_a-sbrkr.o)
                              /usr/bin/../lib/gcc/arm-none-eabi/7.2.1/../../../../arm-none-eabi/lib/thumb/v7e-m/fpv4-sp/hard/libg_nano.a(lib_a-nano-mallocr.o) (_sbrk_r)
/usr/bin/../lib/gcc/arm-none-eabi/7.2.1/../../../../arm-none-eabi/lib/thumb/v7e-m/fpv4-sp/hard/libg_nano.a(lib_a-strcpy.o)
                              ../../external/rtt/librtt_nrf52840_xxAA.a(SEGGER_RTT.c.obj) (strcpy)
/usr/bin/../lib/gcc/arm-none-eabi/7.2.1/../../../../arm-none-eabi/lib/thumb/v7e-m/fpv4-sp/hard/libg_nano.a(lib_a-strlen.o)
                              CMakeFiles/enocean_switch_nrf52840_xxAA_s140_6.0.0.dir/__/__/mesh/core/src/uri.c.obj (strlen)
/usr/bin/../lib/gcc/arm-none-eabi/7.2.1/../../../../arm-none-eabi/lib/thumb/v7e-m/fpv4-sp/hard/libg_nano.a(lib_a-strrchr.o)
                              CMakeFiles/enocean_switch_nrf52840_xxAA_s140_6.0.0.dir/src/main.c.obj (strrchr)
/usr/bin/../lib/gcc/arm-none-eabi/7.2.1/../../../../arm-none-eabi/lib/thumb/v7e-m/fpv4-sp/hard/libg_nano.a(lib_a-mlock.o)
                              /usr/bin/../lib/gcc/arm-none-eabi/7.2.1/../../../../arm-none-eabi/lib/thumb/v7e-m/fpv4-sp/hard/libg_nano.a(lib_a-nano-freer.o) (__malloc_lock)
/usr/bin/../lib/gcc/arm-none-eabi/7.2.1/../../../../arm-none-eabi/lib/thumb/v7e-m/fpv4-sp/hard/libg_nano.a(lib_a-reent.o)
                              /usr/bin/../lib/gcc/arm-none-eabi/7.2.1/../../../../arm-none-eabi/lib/thumb/v7e-m/fpv4-sp/hard/libg_nano.a(lib_a-sbrkr.o) (errno)
/usr/bin/../lib/gcc/arm-none-eabi/7.2.1/../../../../arm-none-eabi/lib/thumb/v7e-m/fpv4-sp/hard/libg_nano.a(lib_a-strchr.o)
                              /usr/bin/../lib/gcc/arm-none-eabi/7.2.1/../../../../arm-none-eabi/lib/thumb/v7e-m/fpv4-sp/hard/libg_nano.a(lib_a-strrchr.o) (strchr)
/usr/bin/../lib/gcc/arm-none-eabi/7.2.1/../../../../arm-none-eabi/lib/thumb/v7e-m/fpv4-sp/hard/libnosys.a(sbrk.o)
                              /usr/bin/../lib/gcc/arm-none-eabi/7.2.1/../../../../arm-none-eabi/lib/thumb/v7e-m/fpv4-sp/hard/libg_nano.a(lib_a-sbrkr.o) (_sbrk)
/usr/bin/../lib/gcc/arm-none-eabi/7.2.1/../../../../arm-none-eabi/lib/thumb/v7e-m/fpv4-sp/hard/libnosys.a(_exit.o)
                              /usr/bin/../lib/gcc/arm-none-eabi/7.2.1/../../../../arm-none-eabi/lib/thumb/v7e-m/fpv4-sp/hard/libg_nano.a(lib_a-exit.o) (_exit)

Allocating common symbols
Common symbol       size              file

nrf_nvic_state      0xc               CMakeFiles/enocean_switch_nrf52840_xxAA_s140_6.0.0.dir/__/common/src/mesh_softdevice_init.c.obj
m_packet            0x24              CMakeFiles/enocean_switch_nrf52840_xxAA_s140_6.0.0.dir/__/__/mesh/core/src/core_tx.c.obj
errno               0x4               /usr/bin/../lib/gcc/arm-none-eabi/7.2.1/../../../../arm-none-eabi/lib/thumb/v7e-m/fpv4-sp/hard/libg_nano.a(lib_a-reent.o)
_SEGGER_RTT         0x78              ../../external/rtt/librtt_nrf52840_xxAA.a(SEGGER_RTT.c.obj)

Discarded input sections

 .text          0x0000000000000000        0x0 /usr/bin/../lib/gcc/arm-none-eabi/7.2.1/thumb/v7e-m/fpv4-sp/hard/crti.o
 .data          0x0000000000000000        0x0 /usr/bin/../lib/gcc/arm-none-eabi/7.2.1/thumb/v7e-m/fpv4-sp/hard/crti.o
 .bss           0x0000000000000000        0x0 /usr/bin/../lib/gcc/arm-none-eabi/7.2.1/thumb/v7e-m/fpv4-sp/hard/crti.o
 .data          0x0000000000000000        0x4 /usr/bin/../lib/gcc/arm-none-eabi/7.2.1/thumb/v7e-m/fpv4-sp/hard/crtbegin.o
 .data          0x0000000000000000        0x0 /usr/bin/../lib/gcc/arm-none-eabi/7.2.1/../../../../arm-none-eabi/lib/thumb/v7e-m/fpv4-sp/hard/crt0.o
 .bss           0x0000000000000000        0x0 /usr/bin/../lib/gcc/arm-none-eabi/7.2.1/../../../../arm-none-eabi/lib/thumb/v7e-m/fpv4-sp/hard/crt0.o
 .ARM.extab     0x0000000000000000        0x0 /usr/bin/../lib/gcc/arm-none-eabi/7.2.1/../../../../arm-none-eabi/lib/thumb/v7e-m/fpv4-sp/hard/crt0.o
 .text          0x0000000000000000        0x0 CMakeFiles/enocean_switch_nrf52840_xxAA_s140_6.0.0.dir/src/main.c.obj
 .data          0x0000000000000000        0x0 CMakeFiles/enocean_switch_nrf52840_xxAA_s140_6.0.0.dir/src/main.c.obj
 .bss           0x0000000000000000        0x0 CMakeFiles/enocean_switch_nrf52840_xxAA_s140_6.0.0.dir/src/main.c.obj
 .text          0x0000000000000000        0x0 CMakeFiles/enocean_switch_nrf52840_xxAA_s140_6.0.0.dir/src/enocean.c.obj
 .data          0x0000000000000000        0x0 CMakeFiles/enocean_switch_nrf52840_xxAA_s140_6.0.0.dir/src/enocean.c.obj
 .bss           0x0000000000000000        0x0 CMakeFiles/enocean_switch_nrf52840_xxAA_s140_6.0.0.dir/src/enocean.c.obj
 .text          0x0000000000000000        0x0 CMakeFiles/enocean_switch_nrf52840_xxAA_s140_6.0.0.dir/src/flash_helper.c.obj
 .data          0x0000000000000000        0x0 CMakeFiles/enocean_switch_nrf52840_xxAA_s140_6.0.0.dir/src/flash_helper.c.obj
 .bss           0x0000000000000000        0x0 CMakeFiles/enocean_switch_nrf52840_xxAA_s140_6.0.0.dir/src/flash_helper.c.obj
 .text          0x0000000000000000        0x0 CMakeFiles/enocean_switch_nrf52840_xxAA_s140_6.0.0.dir/__/__/mesh/stack/src/mesh_stack.c.obj
 .data          0x0000000000000000        0x0 CMakeFiles/enocean_switch_nrf52840_xxAA_s140_6.0.0.dir/__/__/mesh/stack/src/mesh_stack.c.obj
 .bss           0x0000000000000000        0x0 CMakeFiles/enocean_switch_nrf52840_xxAA_s140_6.0.0.dir/__/__/mesh/stack/src/mesh_stack.c.obj
 .text.mesh_stack_is_device_provisioned
                0x0000000000000000       0x1c CMakeFiles/enocean_switch_nrf52840_xxAA_s140_6.0.0.dir/__/__/mesh/stack/src/mesh_stack.c.obj
 .text          0x0000000000000000        0x0 CMakeFiles/enocean_switch_nrf52840_xxAA_s140_6.0.0.dir/__/common/src/mesh_softdevice_init.c.obj
 .data          0x0000000000000000        0x0 CMakeFiles/enocean_switch_nrf52840_xxAA_s140_6.0.0.dir/__/common/src/mesh_softdevice_init.c.obj
 .bss           0x0000000000000000        0x0 CMakeFiles/enocean_switch_nrf52840_xxAA_s140_6.0.0.dir/__/common/src/mesh_softdevice_init.c.obj
 .text          0x0000000000000000        0x0 CMakeFiles/enocean_switch_nrf52840_xxAA_s140_6.0.0.dir/__/common/src/mesh_provisionee.c.obj
 .data          0x0000000000000000        0x0 CMakeFiles/enocean_switch_nrf52840_xxAA_s140_6.0.0.dir/__/common/src/mesh_provisionee.c.obj
 .bss           0x0000000000000000        0x0 CMakeFiles/enocean_switch_nrf52840_xxAA_s140_6.0.0.dir/__/common/src/mesh_provisionee.c.obj
 .text          0x0000000000000000        0x0 CMakeFiles/enocean_switch_nrf52840_xxAA_s140_6.0.0.dir/__/common/src/rtt_input.c.obj
 .data          0x0000000000000000        0x0 CMakeFiles/enocean_switch_nrf52840_xxAA_s140_6.0.0.dir/__/common/src/rtt_input.c.obj
 .bss           0x0000000000000000        0x0 CMakeFiles/enocean_switch_nrf52840_xxAA_s140_6.0.0.dir/__/common/src/rtt_input.c.obj
 .text.rtt_input_disable
                0x0000000000000000       0x28 CMakeFiles/enocean_switch_nrf52840_xxAA_s140_6.0.0.dir/__/common/src/rtt_input.c.obj
 .text          0x0000000000000000        0x0 CMakeFiles/enocean_switch_nrf52840_xxAA_s140_6.0.0.dir/__/common/src/simple_hal.c.obj
 .data          0x0000000000000000        0x0 CMakeFiles/enocean_switch_nrf52840_xxAA_s140_6.0.0.dir/__/common/src/simple_hal.c.obj
 .bss           0x0000000000000000        0x0 CMakeFiles/enocean_switch_nrf52840_xxAA_s140_6.0.0.dir/__/common/src/simple_hal.c.obj
 .text.hal_led_pin_get
                0x0000000000000000       0x18 CMakeFiles/enocean_switch_nrf52840_xxAA_s140_6.0.0.dir/__/common/src/simple_hal.c.obj
 .text          0x0000000000000000        0x0 CMakeFiles/enocean_switch_nrf52840_xxAA_s140_6.0.0.dir/__/common/src/mesh_app_utils.c.obj
 .data          0x0000000000000000        0x0 CMakeFiles/enocean_switch_nrf52840_xxAA_s140_6.0.0.dir/__/common/src/mesh_app_utils.c.obj
 .bss           0x0000000000000000        0x0 CMakeFiles/enocean_switch_nrf52840_xxAA_s140_6.0.0.dir/__/common/src/mesh_app_utils.c.obj
 .text.mesh_app_uuid_gen
                0x0000000000000000       0x34 CMakeFiles/enocean_switch_nrf52840_xxAA_s140_6.0.0.dir/__/common/src/mesh_app_utils.c.obj
 .debug_info    0x0000000000000000      0xde0 CMakeFiles/enocean_switch_nrf52840_xxAA_s140_6.0.0.dir/__/common/src/mesh_app_utils.c.obj
 .debug_abbrev  0x0000000000000000      0x22a CMakeFiles/enocean_switch_nrf52840_xxAA_s140_6.0.0.dir/__/common/src/mesh_app_utils.c.obj
 .debug_loc     0x0000000000000000       0x8f CMakeFiles/enocean_switch_nrf52840_xxAA_s140_6.0.0.dir/__/common/src/mesh_app_utils.c.obj
 .debug_aranges
                0x0000000000000000       0x20 CMakeFiles/enocean_switch_nrf52840_xxAA_s140_6.0.0.dir/__/common/src/mesh_app_utils.c.obj
 .debug_ranges  0x0000000000000000       0x10 CMakeFiles/enocean_switch_nrf52840_xxAA_s140_6.0.0.dir/__/common/src/mesh_app_utils.c.obj
 .debug_line    0x0000000000000000      0x23a CMakeFiles/enocean_switch_nrf52840_xxAA_s140_6.0.0.dir/__/common/src/mesh_app_utils.c.obj
 .debug_str     0x0000000000000000      0x824 CMakeFiles/enocean_switch_nrf52840_xxAA_s140_6.0.0.dir/__/common/src/mesh_app_utils.c.obj
 .comment       0x0000000000000000       0x7f CMakeFiles/enocean_switch_nrf52840_xxAA_s140_6.0.0.dir/__/common/src/mesh_app_utils.c.obj
 .debug_frame   0x0000000000000000       0x34 CMakeFiles/enocean_switch_nrf52840_xxAA_s140_6.0.0.dir/__/common/src/mesh_app_utils.c.obj
 .ARM.attributes
                0x0000000000000000       0x39 CMakeFiles/enocean_switch_nrf52840_xxAA_s140_6.0.0.dir/__/common/src/mesh_app_utils.c.obj
 .text          0x0000000000000000        0x0 CMakeFiles/enocean_switch_nrf52840_xxAA_s140_6.0.0.dir/__/nrf_mesh_weak.c.obj
 .data          0x0000000000000000        0x0 CMakeFiles/enocean_switch_nrf52840_xxAA_s140_6.0.0.dir/__/nrf_mesh_weak.c.obj
 .bss           0x0000000000000000        0x0 CMakeFiles/enocean_switch_nrf52840_xxAA_s140_6.0.0.dir/__/nrf_mesh_weak.c.obj
 .text._weak_handler_ptr
                0x0000000000000000        0x4 CMakeFiles/enocean_switch_nrf52840_xxAA_s140_6.0.0.dir/__/nrf_mesh_weak.c.obj
 .text          0x0000000000000000        0x0 CMakeFiles/enocean_switch_nrf52840_xxAA_s140_6.0.0.dir/__/common/src/app_error_weak.c.obj
 .data          0x0000000000000000        0x0 CMakeFiles/enocean_switch_nrf52840_xxAA_s140_6.0.0.dir/__/common/src/app_error_weak.c.obj
 .bss           0x0000000000000000        0x0 CMakeFiles/enocean_switch_nrf52840_xxAA_s140_6.0.0.dir/__/common/src/app_error_weak.c.obj
 .text          0x0000000000000000        0x0 CMakeFiles/enocean_switch_nrf52840_xxAA_s140_6.0.0.dir/__/common/src/assertion_handler_weak.c.obj
 .data          0x0000000000000000        0x0 CMakeFiles/enocean_switch_nrf52840_xxAA_s140_6.0.0.dir/__/common/src/assertion_handler_weak.c.obj
 .bss           0x0000000000000000        0x0 CMakeFiles/enocean_switch_nrf52840_xxAA_s140_6.0.0.dir/__/common/src/assertion_handler_weak.c.obj
 .text          0x0000000000000000        0x0 CMakeFiles/enocean_switch_nrf52840_xxAA_s140_6.0.0.dir/__/__/mesh/core/src/internal_event.c.obj
 .data          0x0000000000000000        0x0 CMakeFiles/enocean_switch_nrf52840_xxAA_s140_6.0.0.dir/__/__/mesh/core/src/internal_event.c.obj
 .bss           0x0000000000000000        0x0 CMakeFiles/enocean_switch_nrf52840_xxAA_s140_6.0.0.dir/__/__/mesh/core/src/internal_event.c.obj
 .debug_info    0x0000000000000000      0x8eb CMakeFiles/enocean_switch_nrf52840_xxAA_s140_6.0.0.dir/__/__/mesh/core/src/internal_event.c.obj
 .debug_abbrev  0x0000000000000000      0x192 CMakeFiles/enocean_switch_nrf52840_xxAA_s140_6.0.0.dir/__/__/mesh/core/src/internal_event.c.obj
 .debug_aranges
                0x0000000000000000       0x18 CMakeFiles/enocean_switch_nrf52840_xxAA_s140_6.0.0.dir/__/__/mesh/core/src/internal_event.c.obj
 .debug_line    0x0000000000000000      0x1dc CMakeFiles/enocean_switch_nrf52840_xxAA_s140_6.0.0.dir/__/__/mesh/core/src/internal_event.c.obj
 .debug_str     0x0000000000000000      0x66d CMakeFiles/enocean_switch_nrf52840_xxAA_s140_6.0.0.dir/__/__/mesh/core/src/internal_event.c.obj
 .comment       0x0000000000000000       0x7f CMakeFiles/enocean_switch_nrf52840_xxAA_s140_6.0.0.dir/__/__/mesh/core/src/internal_event.c.obj
 .ARM.attributes
                0x0000000000000000       0x39 CMakeFiles/enocean_switch_nrf52840_xxAA_s140_6.0.0.dir/__/__/mesh/core/src/internal_event.c.obj
 .text          0x0000000000000000        0x0 CMakeFiles/enocean_switch_nrf52840_xxAA_s140_6.0.0.dir/__/__/mesh/core/src/nrf_mesh_configure.c.obj
 .data          0x0000000000000000        0x0 CMakeFiles/enocean_switch_nrf52840_xxAA_s140_6.0.0.dir/__/__/mesh/core/src/nrf_mesh_configure.c.obj
 .bss           0x0000000000000000        0x0 CMakeFiles/enocean_switch_nrf52840_xxAA_s140_6.0.0.dir/__/__/mesh/core/src/nrf_mesh_configure.c.obj
 .text          0x0000000000000000        0x0 CMakeFiles/enocean_switch_nrf52840_xxAA_s140_6.0.0.dir/__/__/mesh/core/src/aes.c.obj
 .data          0x0000000000000000        0x0 CMakeFiles/enocean_switch_nrf52840_xxAA_s140_6.0.0.dir/__/__/mesh/core/src/aes.c.obj
 .bss           0x0000000000000000        0x0 CMakeFiles/enocean_switch_nrf52840_xxAA_s140_6.0.0.dir/__/__/mesh/core/src/aes.c.obj
 .text          0x0000000000000000        0x0 CMakeFiles/enocean_switch_nrf52840_xxAA_s140_6.0.0.dir/__/__/mesh/core/src/msg_cache.c.obj
 .data          0x0000000000000000        0x0 CMakeFiles/enocean_switch_nrf52840_xxAA_s140_6.0.0.dir/__/__/mesh/core/src/msg_cache.c.obj
 .bss           0x0000000000000000        0x0 CMakeFiles/enocean_switch_nrf52840_xxAA_s140_6.0.0.dir/__/__/mesh/core/src/msg_cache.c.obj
 .text.msg_cache_clear
                0x0000000000000000       0x18 CMakeFiles/enocean_switch_nrf52840_xxAA_s140_6.0.0.dir/__/__/mesh/core/src/msg_cache.c.obj
 .text          0x0000000000000000        0x0 CMakeFiles/enocean_switch_nrf52840_xxAA_s140_6.0.0.dir/__/__/mesh/core/src/transport.c.obj
 .data          0x0000000000000000        0x0 CMakeFiles/enocean_switch_nrf52840_xxAA_s140_6.0.0.dir/__/__/mesh/core/src/transport.c.obj
 .bss           0x0000000000000000        0x0 CMakeFiles/enocean_switch_nrf52840_xxAA_s140_6.0.0.dir/__/__/mesh/core/src/transport.c.obj
 .text.transport_sar_mem_funcs_set
                0x0000000000000000       0x64 CMakeFiles/enocean_switch_nrf52840_xxAA_s140_6.0.0.dir/__/__/mesh/core/src/transport.c.obj
 .text.transport_sar_mem_funcs_reset
                0x0000000000000000       0x30 CMakeFiles/enocean_switch_nrf52840_xxAA_s140_6.0.0.dir/__/__/mesh/core/src/transport.c.obj
 .text          0x0000000000000000        0x0 CMakeFiles/enocean_switch_nrf52840_xxAA_s140_6.0.0.dir/__/__/mesh/core/src/event.c.obj
 .data          0x0000000000000000        0x0 CMakeFiles/enocean_switch_nrf52840_xxAA_s140_6.0.0.dir/__/__/mesh/core/src/event.c.obj
 .bss           0x0000000000000000        0x0 CMakeFiles/enocean_switch_nrf52840_xxAA_s140_6.0.0.dir/__/__/mesh/core/src/event.c.obj
 .text          0x0000000000000000        0x0 CMakeFiles/enocean_switch_nrf52840_xxAA_s140_6.0.0.dir/__/__/mesh/core/src/packet_buffer.c.obj
 .data          0x0000000000000000        0x0 CMakeFiles/enocean_switch_nrf52840_xxAA_s140_6.0.0.dir/__/__/mesh/core/src/packet_buffer.c.obj
 .bss           0x0000000000000000        0x0 CMakeFiles/enocean_switch_nrf52840_xxAA_s140_6.0.0.dir/__/__/mesh/core/src/packet_buffer.c.obj
 .text.packet_buffer_max_packet_len_get
                0x0000000000000000       0x24 CMakeFiles/enocean_switch_nrf52840_xxAA_s140_6.0.0.dir/__/__/mesh/core/src/packet_buffer.c.obj
 .text          0x0000000000000000        0x0 CMakeFiles/enocean_switch_nrf52840_xxAA_s140_6.0.0.dir/__/__/mesh/core/src/flash_manager_defrag.c.obj
 .data          0x0000000000000000        0x0 CMakeFiles/enocean_switch_nrf52840_xxAA_s140_6.0.0.dir/__/__/mesh/core/src/flash_manager_defrag.c.obj
 .bss           0x0000000000000000        0x0 CMakeFiles/enocean_switch_nrf52840_xxAA_s140_6.0.0.dir/__/__/mesh/core/src/flash_manager_defrag.c.obj
 .text.flash_manager_defragging
                0x0000000000000000       0x44 CMakeFiles/enocean_switch_nrf52840_xxAA_s140_6.0.0.dir/__/__/mesh/core/src/flash_manager_defrag.c.obj
 .text          0x0000000000000000        0x0 CMakeFiles/enocean_switch_nrf52840_xxAA_s140_6.0.0.dir/__/__/mesh/core/src/fifo.c.obj
 .data          0x0000000000000000        0x0 CMakeFiles/enocean_switch_nrf52840_xxAA_s140_6.0.0.dir/__/__/mesh/core/src/fifo.c.obj
 .bss           0x0000000000000000        0x0 CMakeFiles/enocean_switch_nrf52840_xxAA_s140_6.0.0.dir/__/__/mesh/core/src/fifo.c.obj
 .text.fifo_peek_at
                0x0000000000000000       0x58 CMakeFiles/enocean_switch_nrf52840_xxAA_s140_6.0.0.dir/__/__/mesh/core/src/fifo.c.obj
 .text.fifo_peek
                0x0000000000000000       0x54 CMakeFiles/enocean_switch_nrf52840_xxAA_s140_6.0.0.dir/__/__/mesh/core/src/fifo.c.obj
 .text.fifo_flush
                0x0000000000000000        0x8 CMakeFiles/enocean_switch_nrf52840_xxAA_s140_6.0.0.dir/__/__/mesh/core/src/fifo.c.obj
 .text.fifo_get_len
                0x0000000000000000        0x8 CMakeFiles/enocean_switch_nrf52840_xxAA_s140_6.0.0.dir/__/__/mesh/core/src/fifo.c.obj
 .text.fifo_is_full
                0x0000000000000000       0x14 CMakeFiles/enocean_switch_nrf52840_xxAA_s140_6.0.0.dir/__/__/mesh/core/src/fifo.c.obj
 .text.fifo_is_empty
                0x0000000000000000       0x10 CMakeFiles/enocean_switch_nrf52840_xxAA_s140_6.0.0.dir/__/__/mesh/core/src/fifo.c.obj
 .text          0x0000000000000000        0x0 CMakeFiles/enocean_switch_nrf52840_xxAA_s140_6.0.0.dir/__/__/mesh/core/src/nrf_flash.c.obj
 .data          0x0000000000000000        0x0 CMakeFiles/enocean_switch_nrf52840_xxAA_s140_6.0.0.dir/__/__/mesh/core/src/nrf_flash.c.obj
 .bss           0x0000000000000000        0x0 CMakeFiles/enocean_switch_nrf52840_xxAA_s140_6.0.0.dir/__/__/mesh/core/src/nrf_flash.c.obj
 .text          0x0000000000000000        0x0 CMakeFiles/enocean_switch_nrf52840_xxAA_s140_6.0.0.dir/__/__/mesh/core/src/packet_mgr.c.obj
 .data          0x0000000000000000        0x0 CMakeFiles/enocean_switch_nrf52840_xxAA_s140_6.0.0.dir/__/__/mesh/core/src/packet_mgr.c.obj
 .bss           0x0000000000000000        0x0 CMakeFiles/enocean_switch_nrf52840_xxAA_s140_6.0.0.dir/__/__/mesh/core/src/packet_mgr.c.obj
 .text.packet_mgr_alloc
                0x0000000000000000      0x1a4 CMakeFiles/enocean_switch_nrf52840_xxAA_s140_6.0.0.dir/__/__/mesh/core/src/packet_mgr.c.obj
 .text.packet_mgr_free
                0x0000000000000000       0x5c CMakeFiles/enocean_switch_nrf52840_xxAA_s140_6.0.0.dir/__/__/mesh/core/src/packet_mgr.c.obj
 .text.packet_mgr_get_free_space
                0x0000000000000000       0x1c CMakeFiles/enocean_switch_nrf52840_xxAA_s140_6.0.0.dir/__/__/mesh/core/src/packet_mgr.c.obj
 .text.packet_mgr_refcount_get
                0x0000000000000000        0x8 CMakeFiles/enocean_switch_nrf52840_xxAA_s140_6.0.0.dir/__/__/mesh/core/src/packet_mgr.c.obj
 .text.packet_mgr_size_get
                0x0000000000000000        0x8 CMakeFiles/enocean_switch_nrf52840_xxAA_s140_6.0.0.dir/__/__/mesh/core/src/packet_mgr.c.obj
 .text          0x0000000000000000        0x0 CMakeFiles/enocean_switch_nrf52840_xxAA_s140_6.0.0.dir/__/__/mesh/core/src/net_state.c.obj
 .data          0x0000000000000000        0x0 CMakeFiles/enocean_switch_nrf52840_xxAA_s140_6.0.0.dir/__/__/mesh/core/src/net_state.c.obj
 .bss           0x0000000000000000        0x0 CMakeFiles/enocean_switch_nrf52840_xxAA_s140_6.0.0.dir/__/__/mesh/core/src/net_state.c.obj
 .text.net_state_iv_update_start
                0x0000000000000000       0x94 CMakeFiles/enocean_switch_nrf52840_xxAA_s140_6.0.0.dir/__/__/mesh/core/src/net_state.c.obj
 .text.net_state_iv_update_test_mode_set
                0x0000000000000000        0xc CMakeFiles/enocean_switch_nrf52840_xxAA_s140_6.0.0.dir/__/__/mesh/core/src/net_state.c.obj
 .text.net_state_test_mode_transition_run
                0x0000000000000000      0x170 CMakeFiles/enocean_switch_nrf52840_xxAA_s140_6.0.0.dir/__/__/mesh/core/src/net_state.c.obj
 .text          0x0000000000000000        0x0 CMakeFiles/enocean_switch_nrf52840_xxAA_s140_6.0.0.dir/__/__/mesh/core/src/mesh_flash.c.obj
 .data          0x0000000000000000        0x0 CMakeFiles/enocean_switch_nrf52840_xxAA_s140_6.0.0.dir/__/__/mesh/core/src/mesh_flash.c.obj
 .bss           0x0000000000000000        0x0 CMakeFiles/enocean_switch_nrf52840_xxAA_s140_6.0.0.dir/__/__/mesh/core/src/mesh_flash.c.obj
 .text.mesh_flash_op_available_slots
                0x0000000000000000       0x2c CMakeFiles/enocean_switch_nrf52840_xxAA_s140_6.0.0.dir/__/__/mesh/core/src/mesh_flash.c.obj
 .text.mesh_flash_in_progress
                0x0000000000000000       0x34 CMakeFiles/enocean_switch_nrf52840_xxAA_s140_6.0.0.dir/__/__/mesh/core/src/mesh_flash.c.obj
 .text.mesh_flash_set_suspended
                0x0000000000000000      0x21c CMakeFiles/enocean_switch_nrf52840_xxAA_s140_6.0.0.dir/__/__/mesh/core/src/mesh_flash.c.obj
 .bss.suspend_count.10577
                0x0000000000000000        0x4 CMakeFiles/enocean_switch_nrf52840_xxAA_s140_6.0.0.dir/__/__/mesh/core/src/mesh_flash.c.obj
 .text          0x0000000000000000        0x0 CMakeFiles/enocean_switch_nrf52840_xxAA_s140_6.0.0.dir/__/__/mesh/core/src/nrf_mesh_utils.c.obj
 .data          0x0000000000000000        0x0 CMakeFiles/enocean_switch_nrf52840_xxAA_s140_6.0.0.dir/__/__/mesh/core/src/nrf_mesh_utils.c.obj
 .bss           0x0000000000000000        0x0 CMakeFiles/enocean_switch_nrf52840_xxAA_s140_6.0.0.dir/__/__/mesh/core/src/nrf_mesh_utils.c.obj
 .text.nrf_mesh_rand_get
                0x0000000000000000       0x10 CMakeFiles/enocean_switch_nrf52840_xxAA_s140_6.0.0.dir/__/__/mesh/core/src/nrf_mesh_utils.c.obj
 .text.nrf_mesh_gap_address_type_get
                0x0000000000000000       0x34 CMakeFiles/enocean_switch_nrf52840_xxAA_s140_6.0.0.dir/__/__/mesh/core/src/nrf_mesh_utils.c.obj
 .text          0x0000000000000000        0x0 CMakeFiles/enocean_switch_nrf52840_xxAA_s140_6.0.0.dir/__/__/mesh/core/src/nrf_mesh.c.obj
 .data          0x0000000000000000        0x0 CMakeFiles/enocean_switch_nrf52840_xxAA_s140_6.0.0.dir/__/__/mesh/core/src/nrf_mesh.c.obj
 .bss           0x0000000000000000        0x0 CMakeFiles/enocean_switch_nrf52840_xxAA_s140_6.0.0.dir/__/__/mesh/core/src/nrf_mesh.c.obj
 .text.nrf_mesh_disable
                0x0000000000000000       0x30 CMakeFiles/enocean_switch_nrf52840_xxAA_s140_6.0.0.dir/__/__/mesh/core/src/nrf_mesh.c.obj
 .text.nrf_mesh_process
                0x0000000000000000        0x4 CMakeFiles/enocean_switch_nrf52840_xxAA_s140_6.0.0.dir/__/__/mesh/core/src/nrf_mesh.c.obj
 .text.nrf_mesh_evt_handler_remove
                0x0000000000000000        0x4 CMakeFiles/enocean_switch_nrf52840_xxAA_s140_6.0.0.dir/__/__/mesh/core/src/nrf_mesh.c.obj
 .text.nrf_mesh_rx_cb_clear
                0x0000000000000000        0xc CMakeFiles/enocean_switch_nrf52840_xxAA_s140_6.0.0.dir/__/__/mesh/core/src/nrf_mesh.c.obj
 .text          0x0000000000000000        0x0 CMakeFiles/enocean_switch_nrf52840_xxAA_s140_6.0.0.dir/__/__/mesh/core/src/queue.c.obj
 .data          0x0000000000000000        0x0 CMakeFiles/enocean_switch_nrf52840_xxAA_s140_6.0.0.dir/__/__/mesh/core/src/queue.c.obj
 .bss           0x0000000000000000        0x0 CMakeFiles/enocean_switch_nrf52840_xxAA_s140_6.0.0.dir/__/__/mesh/core/src/queue.c.obj
 .text          0x0000000000000000        0x0 CMakeFiles/enocean_switch_nrf52840_xxAA_s140_6.0.0.dir/__/__/mesh/core/src/hal.c.obj
 .data          0x0000000000000000        0x0 CMakeFiles/enocean_switch_nrf52840_xxAA_s140_6.0.0.dir/__/__/mesh/core/src/hal.c.obj
 .bss           0x0000000000000000        0x0 CMakeFiles/enocean_switch_nrf52840_xxAA_s140_6.0.0.dir/__/__/mesh/core/src/hal.c.obj
 .text          0x0000000000000000        0x0 CMakeFiles/enocean_switch_nrf52840_xxAA_s140_6.0.0.dir/__/__/mesh/core/src/aes_cmac.c.obj
 .data          0x0000000000000000        0x0 CMakeFiles/enocean_switch_nrf52840_xxAA_s140_6.0.0.dir/__/__/mesh/core/src/aes_cmac.c.obj
 .bss           0x0000000000000000        0x0 CMakeFiles/enocean_switch_nrf52840_xxAA_s140_6.0.0.dir/__/__/mesh/core/src/aes_cmac.c.obj
 .text          0x0000000000000000        0x0 CMakeFiles/enocean_switch_nrf52840_xxAA_s140_6.0.0.dir/__/__/mesh/core/src/timer_scheduler.c.obj
 .data          0x0000000000000000        0x0 CMakeFiles/enocean_switch_nrf52840_xxAA_s140_6.0.0.dir/__/__/mesh/core/src/timer_scheduler.c.obj
 .bss           0x0000000000000000        0x0 CMakeFiles/enocean_switch_nrf52840_xxAA_s140_6.0.0.dir/__/__/mesh/core/src/timer_scheduler.c.obj
 .text          0x0000000000000000        0x0 CMakeFiles/enocean_switch_nrf52840_xxAA_s140_6.0.0.dir/__/__/mesh/core/src/timer.c.obj
 .data          0x0000000000000000        0x0 CMakeFiles/enocean_switch_nrf52840_xxAA_s140_6.0.0.dir/__/__/mesh/core/src/timer.c.obj
 .bss           0x0000000000000000        0x0 CMakeFiles/enocean_switch_nrf52840_xxAA_s140_6.0.0.dir/__/__/mesh/core/src/timer.c.obj
 .text.timer_order_cb_ppi
                0x0000000000000000       0xd8 CMakeFiles/enocean_switch_nrf52840_xxAA_s140_6.0.0.dir/__/__/mesh/core/src/timer.c.obj
 .text.timer_order_ppi
                0x0000000000000000       0xcc CMakeFiles/enocean_switch_nrf52840_xxAA_s140_6.0.0.dir/__/__/mesh/core/src/timer.c.obj
 .text.timer_abort
                0x0000000000000000       0x84 CMakeFiles/enocean_switch_nrf52840_xxAA_s140_6.0.0.dir/__/__/mesh/core/src/timer.c.obj
 .text          0x0000000000000000        0x0 CMakeFiles/enocean_switch_nrf52840_xxAA_s140_6.0.0.dir/__/__/mesh/core/src/ticker.c.obj
 .data          0x0000000000000000        0x0 CMakeFiles/enocean_switch_nrf52840_xxAA_s140_6.0.0.dir/__/__/mesh/core/src/ticker.c.obj
 .bss           0x0000000000000000        0x0 CMakeFiles/enocean_switch_nrf52840_xxAA_s140_6.0.0.dir/__/__/mesh/core/src/ticker.c.obj
 .text.ticker_get
                0x0000000000000000        0xc CMakeFiles/enocean_switch_nrf52840_xxAA_s140_6.0.0.dir/__/__/mesh/core/src/ticker.c.obj
 .text          0x0000000000000000        0x0 CMakeFiles/enocean_switch_nrf52840_xxAA_s140_6.0.0.dir/__/__/mesh/core/src/rand.c.obj
 .data          0x0000000000000000        0x0 CMakeFiles/enocean_switch_nrf52840_xxAA_s140_6.0.0.dir/__/__/mesh/core/src/rand.c.obj
 .bss           0x0000000000000000        0x0 CMakeFiles/enocean_switch_nrf52840_xxAA_s140_6.0.0.dir/__/__/mesh/core/src/rand.c.obj
 .text          0x0000000000000000        0x0 CMakeFiles/enocean_switch_nrf52840_xxAA_s140_6.0.0.dir/__/__/mesh/core/src/nrf_mesh_opt.c.obj
 .data          0x0000000000000000        0x0 CMakeFiles/enocean_switch_nrf52840_xxAA_s140_6.0.0.dir/__/__/mesh/core/src/nrf_mesh_opt.c.obj
 .bss           0x0000000000000000        0x0 CMakeFiles/enocean_switch_nrf52840_xxAA_s140_6.0.0.dir/__/__/mesh/core/src/nrf_mesh_opt.c.obj
 .text          0x0000000000000000        0x0 CMakeFiles/enocean_switch_nrf52840_xxAA_s140_6.0.0.dir/__/__/mesh/core/src/timeslot.c.obj
 .data          0x0000000000000000        0x0 CMakeFiles/enocean_switch_nrf52840_xxAA_s140_6.0.0.dir/__/__/mesh/core/src/timeslot.c.obj
 .bss           0x0000000000000000        0x0 CMakeFiles/enocean_switch_nrf52840_xxAA_s140_6.0.0.dir/__/__/mesh/core/src/timeslot.c.obj
 .text.timeslot_restart
                0x0000000000000000       0x30 CMakeFiles/enocean_switch_nrf52840_xxAA_s140_6.0.0.dir/__/__/mesh/core/src/timeslot.c.obj
 .text.timeslot_end_time_get
                0x0000000000000000       0x30 CMakeFiles/enocean_switch_nrf52840_xxAA_s140_6.0.0.dir/__/__/mesh/core/src/timeslot.c.obj
 .text.timeslot_is_in_ts
                0x0000000000000000        0xc CMakeFiles/enocean_switch_nrf52840_xxAA_s140_6.0.0.dir/__/__/mesh/core/src/timeslot.c.obj
 .text          0x0000000000000000        0x0 CMakeFiles/enocean_switch_nrf52840_xxAA_s140_6.0.0.dir/__/__/mesh/core/src/bearer_event.c.obj
 .data          0x0000000000000000        0x0 CMakeFiles/enocean_switch_nrf52840_xxAA_s140_6.0.0.dir/__/__/mesh/core/src/bearer_event.c.obj
 .bss           0x0000000000000000        0x0 CMakeFiles/enocean_switch_nrf52840_xxAA_s140_6.0.0.dir/__/__/mesh/core/src/bearer_event.c.obj
 .text.bearer_event_generic_post
                0x0000000000000000       0x50 CMakeFiles/enocean_switch_nrf52840_xxAA_s140_6.0.0.dir/__/__/mesh/core/src/bearer_event.c.obj
 .text.bearer_event_timer_sch_post
                0x0000000000000000       0x54 CMakeFiles/enocean_switch_nrf52840_xxAA_s140_6.0.0.dir/__/__/mesh/core/src/bearer_event.c.obj
 .text.bearer_event_in_correct_irq_priority
                0x0000000000000000       0x58 CMakeFiles/enocean_switch_nrf52840_xxAA_s140_6.0.0.dir/__/__/mesh/core/src/bearer_event.c.obj
 .text          0x0000000000000000        0x0 CMakeFiles/enocean_switch_nrf52840_xxAA_s140_6.0.0.dir/__/__/mesh/core/src/enc.c.obj
 .data          0x0000000000000000        0x0 CMakeFiles/enocean_switch_nrf52840_xxAA_s140_6.0.0.dir/__/__/mesh/core/src/enc.c.obj
 .bss           0x0000000000000000        0x0 CMakeFiles/enocean_switch_nrf52840_xxAA_s140_6.0.0.dir/__/__/mesh/core/src/enc.c.obj
 .text.enc_key_generate
                0x0000000000000000        0x8 CMakeFiles/enocean_switch_nrf52840_xxAA_s140_6.0.0.dir/__/__/mesh/core/src/enc.c.obj
 .text          0x0000000000000000        0x0 CMakeFiles/enocean_switch_nrf52840_xxAA_s140_6.0.0.dir/__/__/mesh/core/src/network.c.obj
 .data          0x0000000000000000        0x0 CMakeFiles/enocean_switch_nrf52840_xxAA_s140_6.0.0.dir/__/__/mesh/core/src/network.c.obj
 .bss           0x0000000000000000        0x0 CMakeFiles/enocean_switch_nrf52840_xxAA_s140_6.0.0.dir/__/__/mesh/core/src/network.c.obj
 .text.network_packet_discard
                0x0000000000000000       0x28 CMakeFiles/enocean_switch_nrf52840_xxAA_s140_6.0.0.dir/__/__/mesh/core/src/network.c.obj
 .text          0x0000000000000000        0x0 CMakeFiles/enocean_switch_nrf52840_xxAA_s140_6.0.0.dir/__/__/mesh/core/src/net_packet.c.obj
 .data          0x0000000000000000        0x0 CMakeFiles/enocean_switch_nrf52840_xxAA_s140_6.0.0.dir/__/__/mesh/core/src/net_packet.c.obj
 .bss           0x0000000000000000        0x0 CMakeFiles/enocean_switch_nrf52840_xxAA_s140_6.0.0.dir/__/__/mesh/core/src/net_packet.c.obj
 .text.net_packet_enc_start_get
                0x0000000000000000        0x4 CMakeFiles/enocean_switch_nrf52840_xxAA_s140_6.0.0.dir/__/__/mesh/core/src/net_packet.c.obj
 .text.net_packet_payload_get
                0x0000000000000000        0x4 CMakeFiles/enocean_switch_nrf52840_xxAA_s140_6.0.0.dir/__/__/mesh/core/src/net_packet.c.obj
 .text          0x0000000000000000        0x0 CMakeFiles/enocean_switch_nrf52840_xxAA_s140_6.0.0.dir/__/__/mesh/core/src/msqueue.c.obj
 .data          0x0000000000000000        0x0 CMakeFiles/enocean_switch_nrf52840_xxAA_s140_6.0.0.dir/__/__/mesh/core/src/msqueue.c.obj
 .bss           0x0000000000000000        0x0 CMakeFiles/enocean_switch_nrf52840_xxAA_s140_6.0.0.dir/__/__/mesh/core/src/msqueue.c.obj
 .text.msq_reset
                0x0000000000000000       0x24 CMakeFiles/enocean_switch_nrf52840_xxAA_s140_6.0.0.dir/__/__/mesh/core/src/msqueue.c.obj
 .text          0x0000000000000000        0x0 CMakeFiles/enocean_switch_nrf52840_xxAA_s140_6.0.0.dir/__/__/mesh/core/src/nrf_mesh_keygen.c.obj
 .data          0x0000000000000000        0x0 CMakeFiles/enocean_switch_nrf52840_xxAA_s140_6.0.0.dir/__/__/mesh/core/src/nrf_mesh_keygen.c.obj
 .bss           0x0000000000000000        0x0 CMakeFiles/enocean_switch_nrf52840_xxAA_s140_6.0.0.dir/__/__/mesh/core/src/nrf_mesh_keygen.c.obj
 .text.nrf_mesh_keygen_identitykey
                0x0000000000000000       0x4c CMakeFiles/enocean_switch_nrf52840_xxAA_s140_6.0.0.dir/__/__/mesh/core/src/nrf_mesh_keygen.c.obj
 .text          0x0000000000000000        0x0 CMakeFiles/enocean_switch_nrf52840_xxAA_s140_6.0.0.dir/__/__/mesh/core/src/cache.c.obj
 .data          0x0000000000000000        0x0 CMakeFiles/enocean_switch_nrf52840_xxAA_s140_6.0.0.dir/__/__/mesh/core/src/cache.c.obj
 .bss           0x0000000000000000        0x0 CMakeFiles/enocean_switch_nrf52840_xxAA_s140_6.0.0.dir/__/__/mesh/core/src/cache.c.obj
 .text.cache_init
                0x0000000000000000       0x40 CMakeFiles/enocean_switch_nrf52840_xxAA_s140_6.0.0.dir/__/__/mesh/core/src/cache.c.obj
 .text.cache_has_elem
                0x0000000000000000       0x54 CMakeFiles/enocean_switch_nrf52840_xxAA_s140_6.0.0.dir/__/__/mesh/core/src/cache.c.obj
 .text.cache_put
                0x0000000000000000       0x2c CMakeFiles/enocean_switch_nrf52840_xxAA_s140_6.0.0.dir/__/__/mesh/core/src/cache.c.obj
 .text.cache_erase_elem
                0x0000000000000000       0x6c CMakeFiles/enocean_switch_nrf52840_xxAA_s140_6.0.0.dir/__/__/mesh/core/src/cache.c.obj
 .debug_info    0x0000000000000000      0xbf9 CMakeFiles/enocean_switch_nrf52840_xxAA_s140_6.0.0.dir/__/__/mesh/core/src/cache.c.obj
 .debug_abbrev  0x0000000000000000      0x2e2 CMakeFiles/enocean_switch_nrf52840_xxAA_s140_6.0.0.dir/__/__/mesh/core/src/cache.c.obj
 .debug_loc     0x0000000000000000      0x3dc CMakeFiles/enocean_switch_nrf52840_xxAA_s140_6.0.0.dir/__/__/mesh/core/src/cache.c.obj
 .debug_aranges
                0x0000000000000000       0x38 CMakeFiles/enocean_switch_nrf52840_xxAA_s140_6.0.0.dir/__/__/mesh/core/src/cache.c.obj
 .debug_ranges  0x0000000000000000       0xb0 CMakeFiles/enocean_switch_nrf52840_xxAA_s140_6.0.0.dir/__/__/mesh/core/src/cache.c.obj
 .debug_line    0x0000000000000000      0x255 CMakeFiles/enocean_switch_nrf52840_xxAA_s140_6.0.0.dir/__/__/mesh/core/src/cache.c.obj
 .debug_str     0x0000000000000000      0x71a CMakeFiles/enocean_switch_nrf52840_xxAA_s140_6.0.0.dir/__/__/mesh/core/src/cache.c.obj
 .comment       0x0000000000000000       0x7f CMakeFiles/enocean_switch_nrf52840_xxAA_s140_6.0.0.dir/__/__/mesh/core/src/cache.c.obj
 .debug_frame   0x0000000000000000       0x90 CMakeFiles/enocean_switch_nrf52840_xxAA_s140_6.0.0.dir/__/__/mesh/core/src/cache.c.obj
 .ARM.attributes
                0x0000000000000000       0x39 CMakeFiles/enocean_switch_nrf52840_xxAA_s140_6.0.0.dir/__/__/mesh/core/src/cache.c.obj
 .text          0x0000000000000000        0x0 CMakeFiles/enocean_switch_nrf52840_xxAA_s140_6.0.0.dir/__/__/mesh/core/src/uri.c.obj
 .data          0x0000000000000000        0x0 CMakeFiles/enocean_switch_nrf52840_xxAA_s140_6.0.0.dir/__/__/mesh/core/src/uri.c.obj
 .bss           0x0000000000000000        0x0 CMakeFiles/enocean_switch_nrf52840_xxAA_s140_6.0.0.dir/__/__/mesh/core/src/uri.c.obj
 .text.uri_data_generate
                0x0000000000000000       0x88 CMakeFiles/enocean_switch_nrf52840_xxAA_s140_6.0.0.dir/__/__/mesh/core/src/uri.c.obj
 .text.uri_data_parse
                0x0000000000000000       0x84 CMakeFiles/enocean_switch_nrf52840_xxAA_s140_6.0.0.dir/__/__/mesh/core/src/uri.c.obj
 .text.uri_scheme_name_code_point
                0x0000000000000000       0x5c CMakeFiles/enocean_switch_nrf52840_xxAA_s140_6.0.0.dir/__/__/mesh/core/src/uri.c.obj
 .text.uri_scheme_name_string
                0x0000000000000000       0x14 CMakeFiles/enocean_switch_nrf52840_xxAA_s140_6.0.0.dir/__/__/mesh/core/src/uri.c.obj
 .rodata.m_code_point_strings
                0x0000000000000000      0x2ec CMakeFiles/enocean_switch_nrf52840_xxAA_s140_6.0.0.dir/__/__/mesh/core/src/uri.c.obj
 .rodata.str1.4
                0x0000000000000000      0x6ba CMakeFiles/enocean_switch_nrf52840_xxAA_s140_6.0.0.dir/__/__/mesh/core/src/uri.c.obj
 .debug_info    0x0000000000000000      0xd55 CMakeFiles/enocean_switch_nrf52840_xxAA_s140_6.0.0.dir/__/__/mesh/core/src/uri.c.obj
 .debug_abbrev  0x0000000000000000      0x331 CMakeFiles/enocean_switch_nrf52840_xxAA_s140_6.0.0.dir/__/__/mesh/core/src/uri.c.obj
 .debug_loc     0x0000000000000000      0x38d CMakeFiles/enocean_switch_nrf52840_xxAA_s140_6.0.0.dir/__/__/mesh/core/src/uri.c.obj
 .debug_aranges
                0x0000000000000000       0x38 CMakeFiles/enocean_switch_nrf52840_xxAA_s140_6.0.0.dir/__/__/mesh/core/src/uri.c.obj
 .debug_ranges  0x0000000000000000       0x58 CMakeFiles/enocean_switch_nrf52840_xxAA_s140_6.0.0.dir/__/__/mesh/core/src/uri.c.obj
 .debug_line    0x0000000000000000      0x322 CMakeFiles/enocean_switch_nrf52840_xxAA_s140_6.0.0.dir/__/__/mesh/core/src/uri.c.obj
 .debug_str     0x0000000000000000      0x748 CMakeFiles/enocean_switch_nrf52840_xxAA_s140_6.0.0.dir/__/__/mesh/core/src/uri.c.obj
 .comment       0x0000000000000000       0x7f CMakeFiles/enocean_switch_nrf52840_xxAA_s140_6.0.0.dir/__/__/mesh/core/src/uri.c.obj
 .debug_frame   0x0000000000000000       0x8c CMakeFiles/enocean_switch_nrf52840_xxAA_s140_6.0.0.dir/__/__/mesh/core/src/uri.c.obj
 .ARM.attributes
                0x0000000000000000       0x39 CMakeFiles/enocean_switch_nrf52840_xxAA_s140_6.0.0.dir/__/__/mesh/core/src/uri.c.obj
 .text          0x0000000000000000        0x0 CMakeFiles/enocean_switch_nrf52840_xxAA_s140_6.0.0.dir/__/__/mesh/core/src/list.c.obj
 .data          0x0000000000000000        0x0 CMakeFiles/enocean_switch_nrf52840_xxAA_s140_6.0.0.dir/__/__/mesh/core/src/list.c.obj
 .bss           0x0000000000000000        0x0 CMakeFiles/enocean_switch_nrf52840_xxAA_s140_6.0.0.dir/__/__/mesh/core/src/list.c.obj
 .text.list_size_get
                0x0000000000000000       0x14 CMakeFiles/enocean_switch_nrf52840_xxAA_s140_6.0.0.dir/__/__/mesh/core/src/list.c.obj
 .text.list_sorted_add
                0x0000000000000000       0x88 CMakeFiles/enocean_switch_nrf52840_xxAA_s140_6.0.0.dir/__/__/mesh/core/src/list.c.obj
 .text          0x0000000000000000        0x0 CMakeFiles/enocean_switch_nrf52840_xxAA_s140_6.0.0.dir/__/__/mesh/core/src/log.c.obj
 .data          0x0000000000000000        0x0 CMakeFiles/enocean_switch_nrf52840_xxAA_s140_6.0.0.dir/__/__/mesh/core/src/log.c.obj
 .bss           0x0000000000000000        0x0 CMakeFiles/enocean_switch_nrf52840_xxAA_s140_6.0.0.dir/__/__/mesh/core/src/log.c.obj
 .text.log_callback_logview
                0x0000000000000000       0x38 CMakeFiles/enocean_switch_nrf52840_xxAA_s140_6.0.0.dir/__/__/mesh/core/src/log.c.obj
 .text.log_set_callback
                0x0000000000000000        0xc CMakeFiles/enocean_switch_nrf52840_xxAA_s140_6.0.0.dir/__/__/mesh/core/src/log.c.obj
 .text.log_vprintf
                0x0000000000000000       0x1c CMakeFiles/enocean_switch_nrf52840_xxAA_s140_6.0.0.dir/__/__/mesh/core/src/log.c.obj
 .rodata.log_callback_logview.str1.4
                0x0000000000000000       0x12 CMakeFiles/enocean_switch_nrf52840_xxAA_s140_6.0.0.dir/__/__/mesh/core/src/log.c.obj
 .text          0x0000000000000000        0x0 CMakeFiles/enocean_switch_nrf52840_xxAA_s140_6.0.0.dir/__/__/mesh/core/src/flash_manager.c.obj
 .data          0x0000000000000000        0x0 CMakeFiles/enocean_switch_nrf52840_xxAA_s140_6.0.0.dir/__/__/mesh/core/src/flash_manager.c.obj
 .bss           0x0000000000000000        0x0 CMakeFiles/enocean_switch_nrf52840_xxAA_s140_6.0.0.dir/__/__/mesh/core/src/flash_manager.c.obj
 .text.flash_manager_entry_count_get
                0x0000000000000000       0xfc CMakeFiles/enocean_switch_nrf52840_xxAA_s140_6.0.0.dir/__/__/mesh/core/src/flash_manager.c.obj
 .text.flash_manager_entry_release
                0x0000000000000000       0x74 CMakeFiles/enocean_switch_nrf52840_xxAA_s140_6.0.0.dir/__/__/mesh/core/src/flash_manager.c.obj
 .text          0x0000000000000000        0x0 CMakeFiles/enocean_switch_nrf52840_xxAA_s140_6.0.0.dir/__/__/mesh/core/src/ccm_soft.c.obj
 .data          0x0000000000000000        0x0 CMakeFiles/enocean_switch_nrf52840_xxAA_s140_6.0.0.dir/__/__/mesh/core/src/ccm_soft.c.obj
 .bss           0x0000000000000000        0x0 CMakeFiles/enocean_switch_nrf52840_xxAA_s140_6.0.0.dir/__/__/mesh/core/src/ccm_soft.c.obj
 .text          0x0000000000000000        0x0 CMakeFiles/enocean_switch_nrf52840_xxAA_s140_6.0.0.dir/__/__/mesh/core/src/toolchain.c.obj
 .data          0x0000000000000000        0x0 CMakeFiles/enocean_switch_nrf52840_xxAA_s140_6.0.0.dir/__/__/mesh/core/src/toolchain.c.obj
 .bss           0x0000000000000000        0x0 CMakeFiles/enocean_switch_nrf52840_xxAA_s140_6.0.0.dir/__/__/mesh/core/src/toolchain.c.obj
 .debug_info    0x0000000000000000       0xac CMakeFiles/enocean_switch_nrf52840_xxAA_s140_6.0.0.dir/__/__/mesh/core/src/toolchain.c.obj
 .debug_abbrev  0x0000000000000000       0x5c CMakeFiles/enocean_switch_nrf52840_xxAA_s140_6.0.0.dir/__/__/mesh/core/src/toolchain.c.obj
 .debug_aranges
                0x0000000000000000       0x18 CMakeFiles/enocean_switch_nrf52840_xxAA_s140_6.0.0.dir/__/__/mesh/core/src/toolchain.c.obj
 .debug_line    0x0000000000000000      0x131 CMakeFiles/enocean_switch_nrf52840_xxAA_s140_6.0.0.dir/__/__/mesh/core/src/toolchain.c.obj
 .debug_str     0x0000000000000000      0x265 CMakeFiles/enocean_switch_nrf52840_xxAA_s140_6.0.0.dir/__/__/mesh/core/src/toolchain.c.obj
 .comment       0x0000000000000000       0x7f CMakeFiles/enocean_switch_nrf52840_xxAA_s140_6.0.0.dir/__/__/mesh/core/src/toolchain.c.obj
 .ARM.attributes
                0x0000000000000000       0x39 CMakeFiles/enocean_switch_nrf52840_xxAA_s140_6.0.0.dir/__/__/mesh/core/src/toolchain.c.obj
 .text          0x0000000000000000        0x0 CMakeFiles/enocean_switch_nrf52840_xxAA_s140_6.0.0.dir/__/__/mesh/core/src/replay_cache.c.obj
 .data          0x0000000000000000        0x0 CMakeFiles/enocean_switch_nrf52840_xxAA_s140_6.0.0.dir/__/__/mesh/core/src/replay_cache.c.obj
 .bss           0x0000000000000000        0x0 CMakeFiles/enocean_switch_nrf52840_xxAA_s140_6.0.0.dir/__/__/mesh/core/src/replay_cache.c.obj
 .text.replay_cache_on_iv_update
                0x0000000000000000       0x2c CMakeFiles/enocean_switch_nrf52840_xxAA_s140_6.0.0.dir/__/__/mesh/core/src/replay_cache.c.obj
 .text.replay_cache_clear
                0x0000000000000000       0x20 CMakeFiles/enocean_switch_nrf52840_xxAA_s140_6.0.0.dir/__/__/mesh/core/src/replay_cache.c.obj
 .text          0x0000000000000000        0x0 CMakeFiles/enocean_switch_nrf52840_xxAA_s140_6.0.0.dir/__/__/mesh/core/src/beacon.c.obj
 .data          0x0000000000000000        0x0 CMakeFiles/enocean_switch_nrf52840_xxAA_s140_6.0.0.dir/__/__/mesh/core/src/beacon.c.obj
 .bss           0x0000000000000000        0x0 CMakeFiles/enocean_switch_nrf52840_xxAA_s140_6.0.0.dir/__/__/mesh/core/src/beacon.c.obj
 .text          0x0000000000000000        0x0 CMakeFiles/enocean_switch_nrf52840_xxAA_s140_6.0.0.dir/__/__/mesh/core/src/flash_manager_internal.c.obj
 .data          0x0000000000000000        0x0 CMakeFiles/enocean_switch_nrf52840_xxAA_s140_6.0.0.dir/__/__/mesh/core/src/flash_manager_internal.c.obj
 .bss           0x0000000000000000        0x0 CMakeFiles/enocean_switch_nrf52840_xxAA_s140_6.0.0.dir/__/__/mesh/core/src/flash_manager_internal.c.obj
 .text          0x0000000000000000        0x0 CMakeFiles/enocean_switch_nrf52840_xxAA_s140_6.0.0.dir/__/__/mesh/core/src/core_tx.c.obj
 .data          0x0000000000000000        0x0 CMakeFiles/enocean_switch_nrf52840_xxAA_s140_6.0.0.dir/__/__/mesh/core/src/core_tx.c.obj
 .bss           0x0000000000000000        0x0 CMakeFiles/enocean_switch_nrf52840_xxAA_s140_6.0.0.dir/__/__/mesh/core/src/core_tx.c.obj
 .text.core_tx_bearer_type_get
                0x0000000000000000       0x2c CMakeFiles/enocean_switch_nrf52840_xxAA_s140_6.0.0.dir/__/__/mesh/core/src/core_tx.c.obj
 .text.core_tx_bearer_count_get
                0x0000000000000000        0xc CMakeFiles/enocean_switch_nrf52840_xxAA_s140_6.0.0.dir/__/__/mesh/core/src/core_tx.c.obj
 .text          0x0000000000000000        0x0 CMakeFiles/enocean_switch_nrf52840_xxAA_s140_6.0.0.dir/__/__/mesh/core/src/heartbeat.c.obj
 .data          0x0000000000000000        0x0 CMakeFiles/enocean_switch_nrf52840_xxAA_s140_6.0.0.dir/__/__/mesh/core/src/heartbeat.c.obj
 .bss           0x0000000000000000        0x0 CMakeFiles/enocean_switch_nrf52840_xxAA_s140_6.0.0.dir/__/__/mesh/core/src/heartbeat.c.obj
 .text          0x0000000000000000        0x0 CMakeFiles/enocean_switch_nrf52840_xxAA_s140_6.0.0.dir/__/__/mesh/core/src/net_beacon.c.obj
 .data          0x0000000000000000        0x0 CMakeFiles/enocean_switch_nrf52840_xxAA_s140_6.0.0.dir/__/__/mesh/core/src/net_beacon.c.obj
 .bss           0x0000000000000000        0x0 CMakeFiles/enocean_switch_nrf52840_xxAA_s140_6.0.0.dir/__/__/mesh/core/src/net_beacon.c.obj
 .text.net_beacon_build
                0x0000000000000000       0x68 CMakeFiles/enocean_switch_nrf52840_xxAA_s140_6.0.0.dir/__/__/mesh/core/src/net_beacon.c.obj
 .text          0x0000000000000000        0x0 CMakeFiles/enocean_switch_nrf52840_xxAA_s140_6.0.0.dir/__/__/mesh/core/src/fsm.c.obj
 .data          0x0000000000000000        0x0 CMakeFiles/enocean_switch_nrf52840_xxAA_s140_6.0.0.dir/__/__/mesh/core/src/fsm.c.obj
 .bss           0x0000000000000000        0x0 CMakeFiles/enocean_switch_nrf52840_xxAA_s140_6.0.0.dir/__/__/mesh/core/src/fsm.c.obj
 .text.fsm_event_post_try
                0x0000000000000000      0x24c CMakeFiles/enocean_switch_nrf52840_xxAA_s140_6.0.0.dir/__/__/mesh/core/src/fsm.c.obj
 .text.fsm_init
                0x0000000000000000      0x100 CMakeFiles/enocean_switch_nrf52840_xxAA_s140_6.0.0.dir/__/__/mesh/core/src/fsm.c.obj
 .text.fsm_event_post
                0x0000000000000000       0xbc CMakeFiles/enocean_switch_nrf52840_xxAA_s140_6.0.0.dir/__/__/mesh/core/src/fsm.c.obj
 .text.fsm_is_processing
                0x0000000000000000        0xc CMakeFiles/enocean_switch_nrf52840_xxAA_s140_6.0.0.dir/__/__/mesh/core/src/fsm.c.obj
 .rodata.fsm_event_post.str1.4
                0x0000000000000000        0xb CMakeFiles/enocean_switch_nrf52840_xxAA_s140_6.0.0.dir/__/__/mesh/core/src/fsm.c.obj
 .rodata.fsm_event_post_try.str1.4
                0x0000000000000000       0x7c CMakeFiles/enocean_switch_nrf52840_xxAA_s140_6.0.0.dir/__/__/mesh/core/src/fsm.c.obj
 .rodata.fsm_init.str1.4
                0x0000000000000000        0xa CMakeFiles/enocean_switch_nrf52840_xxAA_s140_6.0.0.dir/__/__/mesh/core/src/fsm.c.obj
 .debug_info    0x0000000000000000     0x13e3 CMakeFiles/enocean_switch_nrf52840_xxAA_s140_6.0.0.dir/__/__/mesh/core/src/fsm.c.obj
 .debug_abbrev  0x0000000000000000      0x35d CMakeFiles/enocean_switch_nrf52840_xxAA_s140_6.0.0.dir/__/__/mesh/core/src/fsm.c.obj
 .debug_loc     0x0000000000000000      0x4f3 CMakeFiles/enocean_switch_nrf52840_xxAA_s140_6.0.0.dir/__/__/mesh/core/src/fsm.c.obj
 .debug_aranges
                0x0000000000000000       0x38 CMakeFiles/enocean_switch_nrf52840_xxAA_s140_6.0.0.dir/__/__/mesh/core/src/fsm.c.obj
 .debug_ranges  0x0000000000000000       0xd8 CMakeFiles/enocean_switch_nrf52840_xxAA_s140_6.0.0.dir/__/__/mesh/core/src/fsm.c.obj
 .debug_line    0x0000000000000000      0x48d CMakeFiles/enocean_switch_nrf52840_xxAA_s140_6.0.0.dir/__/__/mesh/core/src/fsm.c.obj
 .debug_str     0x0000000000000000      0x9ef CMakeFiles/enocean_switch_nrf52840_xxAA_s140_6.0.0.dir/__/__/mesh/core/src/fsm.c.obj
 .comment       0x0000000000000000       0x7f CMakeFiles/enocean_switch_nrf52840_xxAA_s140_6.0.0.dir/__/__/mesh/core/src/fsm.c.obj
 .debug_frame   0x0000000000000000       0xb0 CMakeFiles/enocean_switch_nrf52840_xxAA_s140_6.0.0.dir/__/__/mesh/core/src/fsm.c.obj
 .ARM.attributes
                0x0000000000000000       0x39 CMakeFiles/enocean_switch_nrf52840_xxAA_s140_6.0.0.dir/__/__/mesh/core/src/fsm.c.obj
 .text          0x0000000000000000        0x0 CMakeFiles/enocean_switch_nrf52840_xxAA_s140_6.0.0.dir/__/__/mesh/core/src/core_tx_adv.c.obj
 .data          0x0000000000000000        0x0 CMakeFiles/enocean_switch_nrf52840_xxAA_s140_6.0.0.dir/__/__/mesh/core/src/core_tx_adv.c.obj
 .bss           0x0000000000000000        0x0 CMakeFiles/enocean_switch_nrf52840_xxAA_s140_6.0.0.dir/__/__/mesh/core/src/core_tx_adv.c.obj
 .text.core_tx_adv_address_set
                0x0000000000000000       0x28 CMakeFiles/enocean_switch_nrf52840_xxAA_s140_6.0.0.dir/__/__/mesh/core/src/core_tx_adv.c.obj
 .text          0x0000000000000000        0x0 CMakeFiles/enocean_switch_nrf52840_xxAA_s140_6.0.0.dir/__/__/mesh/bearer/src/ad_listener.c.obj
 .data          0x0000000000000000        0x0 CMakeFiles/enocean_switch_nrf52840_xxAA_s140_6.0.0.dir/__/__/mesh/bearer/src/ad_listener.c.obj
 .bss           0x0000000000000000        0x0 CMakeFiles/enocean_switch_nrf52840_xxAA_s140_6.0.0.dir/__/__/mesh/bearer/src/ad_listener.c.obj
 .text.ad_listener_unsubscribe
                0x0000000000000000       0x78 CMakeFiles/enocean_switch_nrf52840_xxAA_s140_6.0.0.dir/__/__/mesh/bearer/src/ad_listener.c.obj
 .text          0x0000000000000000        0x0 CMakeFiles/enocean_switch_nrf52840_xxAA_s140_6.0.0.dir/__/__/mesh/bearer/src/ad_type_filter.c.obj
 .data          0x0000000000000000        0x0 CMakeFiles/enocean_switch_nrf52840_xxAA_s140_6.0.0.dir/__/__/mesh/bearer/src/ad_type_filter.c.obj
 .bss           0x0000000000000000        0x0 CMakeFiles/enocean_switch_nrf52840_xxAA_s140_6.0.0.dir/__/__/mesh/bearer/src/ad_type_filter.c.obj
 .text.bearer_adtype_remove
                0x0000000000000000       0x28 CMakeFiles/enocean_switch_nrf52840_xxAA_s140_6.0.0.dir/__/__/mesh/bearer/src/ad_type_filter.c.obj
 .text.bearer_adtype_clear
                0x0000000000000000       0x10 CMakeFiles/enocean_switch_nrf52840_xxAA_s140_6.0.0.dir/__/__/mesh/bearer/src/ad_type_filter.c.obj
 .text.bearer_invalid_length_amount_get
                0x0000000000000000        0xc CMakeFiles/enocean_switch_nrf52840_xxAA_s140_6.0.0.dir/__/__/mesh/bearer/src/ad_type_filter.c.obj
 .text.bearer_adtype_filtered_amount_get
                0x0000000000000000        0xc CMakeFiles/enocean_switch_nrf52840_xxAA_s140_6.0.0.dir/__/__/mesh/bearer/src/ad_type_filter.c.obj
 .text          0x0000000000000000        0x0 CMakeFiles/enocean_switch_nrf52840_xxAA_s140_6.0.0.dir/__/__/mesh/bearer/src/adv_packet_filter.c.obj
 .data          0x0000000000000000        0x0 CMakeFiles/enocean_switch_nrf52840_xxAA_s140_6.0.0.dir/__/__/mesh/bearer/src/adv_packet_filter.c.obj
 .bss           0x0000000000000000        0x0 CMakeFiles/enocean_switch_nrf52840_xxAA_s140_6.0.0.dir/__/__/mesh/bearer/src/adv_packet_filter.c.obj
 .text.adv_filter_handle
                0x0000000000000000       0x40 CMakeFiles/enocean_switch_nrf52840_xxAA_s140_6.0.0.dir/__/__/mesh/bearer/src/adv_packet_filter.c.obj
 .text.bearer_adv_packet_filtering_set
                0x0000000000000000       0x1c CMakeFiles/enocean_switch_nrf52840_xxAA_s140_6.0.0.dir/__/__/mesh/bearer/src/adv_packet_filter.c.obj
 .text.bearer_adv_packet_remove
                0x0000000000000000       0x18 CMakeFiles/enocean_switch_nrf52840_xxAA_s140_6.0.0.dir/__/__/mesh/bearer/src/adv_packet_filter.c.obj
 .text.bearer_adv_packet_add
                0x0000000000000000       0x14 CMakeFiles/enocean_switch_nrf52840_xxAA_s140_6.0.0.dir/__/__/mesh/bearer/src/adv_packet_filter.c.obj
 .text.bearer_adv_packet_clear
                0x0000000000000000        0xc CMakeFiles/enocean_switch_nrf52840_xxAA_s140_6.0.0.dir/__/__/mesh/bearer/src/adv_packet_filter.c.obj
 .text.bearer_adv_packet_filter_mode_set
                0x0000000000000000       0x18 CMakeFiles/enocean_switch_nrf52840_xxAA_s140_6.0.0.dir/__/__/mesh/bearer/src/adv_packet_filter.c.obj
 .text.bearer_adv_packet_filtered_amount_get
                0x0000000000000000        0xc CMakeFiles/enocean_switch_nrf52840_xxAA_s140_6.0.0.dir/__/__/mesh/bearer/src/adv_packet_filter.c.obj
 .bss.m_adv_packet_filter
                0x0000000000000000       0x14 CMakeFiles/enocean_switch_nrf52840_xxAA_s140_6.0.0.dir/__/__/mesh/bearer/src/adv_packet_filter.c.obj
 .debug_info    0x0000000000000000      0xd92 CMakeFiles/enocean_switch_nrf52840_xxAA_s140_6.0.0.dir/__/__/mesh/bearer/src/adv_packet_filter.c.obj
 .debug_abbrev  0x0000000000000000      0x2cb CMakeFiles/enocean_switch_nrf52840_xxAA_s140_6.0.0.dir/__/__/mesh/bearer/src/adv_packet_filter.c.obj
 .debug_loc     0x0000000000000000      0x1b2 CMakeFiles/enocean_switch_nrf52840_xxAA_s140_6.0.0.dir/__/__/mesh/bearer/src/adv_packet_filter.c.obj
 .debug_aranges
                0x0000000000000000       0x50 CMakeFiles/enocean_switch_nrf52840_xxAA_s140_6.0.0.dir/__/__/mesh/bearer/src/adv_packet_filter.c.obj
 .debug_ranges  0x0000000000000000       0x40 CMakeFiles/enocean_switch_nrf52840_xxAA_s140_6.0.0.dir/__/__/mesh/bearer/src/adv_packet_filter.c.obj
 .debug_line    0x0000000000000000      0x489 CMakeFiles/enocean_switch_nrf52840_xxAA_s140_6.0.0.dir/__/__/mesh/bearer/src/adv_packet_filter.c.obj
 .debug_str     0x0000000000000000      0xa93 CMakeFiles/enocean_switch_nrf52840_xxAA_s140_6.0.0.dir/__/__/mesh/bearer/src/adv_packet_filter.c.obj
 .comment       0x0000000000000000       0x7f CMakeFiles/enocean_switch_nrf52840_xxAA_s140_6.0.0.dir/__/__/mesh/bearer/src/adv_packet_filter.c.obj
 .debug_frame   0x0000000000000000       0x88 CMakeFiles/enocean_switch_nrf52840_xxAA_s140_6.0.0.dir/__/__/mesh/bearer/src/adv_packet_filter.c.obj
 .ARM.attributes
                0x0000000000000000       0x39 CMakeFiles/enocean_switch_nrf52840_xxAA_s140_6.0.0.dir/__/__/mesh/bearer/src/adv_packet_filter.c.obj
 .text          0x0000000000000000        0x0 CMakeFiles/enocean_switch_nrf52840_xxAA_s140_6.0.0.dir/__/__/mesh/bearer/src/advertiser.c.obj
 .data          0x0000000000000000        0x0 CMakeFiles/enocean_switch_nrf52840_xxAA_s140_6.0.0.dir/__/__/mesh/bearer/src/advertiser.c.obj
 .bss           0x0000000000000000        0x0 CMakeFiles/enocean_switch_nrf52840_xxAA_s140_6.0.0.dir/__/__/mesh/bearer/src/advertiser.c.obj
 .text.advertiser_disable
                0x0000000000000000        0xc CMakeFiles/enocean_switch_nrf52840_xxAA_s140_6.0.0.dir/__/__/mesh/bearer/src/advertiser.c.obj
 .text.advertiser_config_set
                0x0000000000000000      0x184 CMakeFiles/enocean_switch_nrf52840_xxAA_s140_6.0.0.dir/__/__/mesh/bearer/src/advertiser.c.obj
 .text.advertiser_channels_set
                0x0000000000000000       0x98 CMakeFiles/enocean_switch_nrf52840_xxAA_s140_6.0.0.dir/__/__/mesh/bearer/src/advertiser.c.obj
 .text.advertiser_address_set
                0x0000000000000000       0x74 CMakeFiles/enocean_switch_nrf52840_xxAA_s140_6.0.0.dir/__/__/mesh/bearer/src/advertiser.c.obj
 .text.advertiser_config_get
                0x0000000000000000       0x24 CMakeFiles/enocean_switch_nrf52840_xxAA_s140_6.0.0.dir/__/__/mesh/bearer/src/advertiser.c.obj
 .text.advertiser_address_default_get
                0x0000000000000000       0x5c CMakeFiles/enocean_switch_nrf52840_xxAA_s140_6.0.0.dir/__/__/mesh/bearer/src/advertiser.c.obj
 .text          0x0000000000000000        0x0 CMakeFiles/enocean_switch_nrf52840_xxAA_s140_6.0.0.dir/__/__/mesh/bearer/src/bearer_handler.c.obj
 .data          0x0000000000000000        0x0 CMakeFiles/enocean_switch_nrf52840_xxAA_s140_6.0.0.dir/__/__/mesh/bearer/src/bearer_handler.c.obj
 .bss           0x0000000000000000        0x0 CMakeFiles/enocean_switch_nrf52840_xxAA_s140_6.0.0.dir/__/__/mesh/bearer/src/bearer_handler.c.obj
 .text.bearer_handler_stop
                0x0000000000000000       0x20 CMakeFiles/enocean_switch_nrf52840_xxAA_s140_6.0.0.dir/__/__/mesh/bearer/src/bearer_handler.c.obj
 .text.bearer_handler_action_fire
                0x0000000000000000       0xa0 CMakeFiles/enocean_switch_nrf52840_xxAA_s140_6.0.0.dir/__/__/mesh/bearer/src/bearer_handler.c.obj
 .text          0x0000000000000000        0x0 CMakeFiles/enocean_switch_nrf52840_xxAA_s140_6.0.0.dir/__/__/mesh/bearer/src/broadcast.c.obj
 .data          0x0000000000000000        0x0 CMakeFiles/enocean_switch_nrf52840_xxAA_s140_6.0.0.dir/__/__/mesh/bearer/src/broadcast.c.obj
 .bss           0x0000000000000000        0x0 CMakeFiles/enocean_switch_nrf52840_xxAA_s140_6.0.0.dir/__/__/mesh/bearer/src/broadcast.c.obj
 .text          0x0000000000000000        0x0 CMakeFiles/enocean_switch_nrf52840_xxAA_s140_6.0.0.dir/__/__/mesh/bearer/src/filter_engine.c.obj
 .data          0x0000000000000000        0x0 CMakeFiles/enocean_switch_nrf52840_xxAA_s140_6.0.0.dir/__/__/mesh/bearer/src/filter_engine.c.obj
 .bss           0x0000000000000000        0x0 CMakeFiles/enocean_switch_nrf52840_xxAA_s140_6.0.0.dir/__/__/mesh/bearer/src/filter_engine.c.obj
 .text.fen_accepted_amount_get
                0x0000000000000000        0xc CMakeFiles/enocean_switch_nrf52840_xxAA_s140_6.0.0.dir/__/__/mesh/bearer/src/filter_engine.c.obj
 .text          0x0000000000000000        0x0 CMakeFiles/enocean_switch_nrf52840_xxAA_s140_6.0.0.dir/__/__/mesh/bearer/src/gap_address_filter.c.obj
 .data          0x0000000000000000        0x0 CMakeFiles/enocean_switch_nrf52840_xxAA_s140_6.0.0.dir/__/__/mesh/bearer/src/gap_address_filter.c.obj
 .bss           0x0000000000000000        0x0 CMakeFiles/enocean_switch_nrf52840_xxAA_s140_6.0.0.dir/__/__/mesh/bearer/src/gap_address_filter.c.obj
 .text.gap_address_filter_handle
                0x0000000000000000       0xb8 CMakeFiles/enocean_switch_nrf52840_xxAA_s140_6.0.0.dir/__/__/mesh/bearer/src/gap_address_filter.c.obj
 .text.bearer_filter_gap_addr_whitelist_set
                0x0000000000000000       0x48 CMakeFiles/enocean_switch_nrf52840_xxAA_s140_6.0.0.dir/__/__/mesh/bearer/src/gap_address_filter.c.obj
 .text.bearer_filter_gap_addr_blacklist_set
                0x0000000000000000       0x4c CMakeFiles/enocean_switch_nrf52840_xxAA_s140_6.0.0.dir/__/__/mesh/bearer/src/gap_address_filter.c.obj
 .text.bearer_filter_gap_addr_range_set
                0x0000000000000000       0x64 CMakeFiles/enocean_switch_nrf52840_xxAA_s140_6.0.0.dir/__/__/mesh/bearer/src/gap_address_filter.c.obj
 .text.bearer_filter_gap_addr_clear
                0x0000000000000000       0x24 CMakeFiles/enocean_switch_nrf52840_xxAA_s140_6.0.0.dir/__/__/mesh/bearer/src/gap_address_filter.c.obj
 .text.bearer_gap_addr_filtered_amount_get
                0x0000000000000000        0xc CMakeFiles/enocean_switch_nrf52840_xxAA_s140_6.0.0.dir/__/__/mesh/bearer/src/gap_address_filter.c.obj
 .bss.m_addr_filter
                0x0000000000000000       0x18 CMakeFiles/enocean_switch_nrf52840_xxAA_s140_6.0.0.dir/__/__/mesh/bearer/src/gap_address_filter.c.obj
 .debug_info    0x0000000000000000      0xf34 CMakeFiles/enocean_switch_nrf52840_xxAA_s140_6.0.0.dir/__/__/mesh/bearer/src/gap_address_filter.c.obj
 .debug_abbrev  0x0000000000000000      0x2f8 CMakeFiles/enocean_switch_nrf52840_xxAA_s140_6.0.0.dir/__/__/mesh/bearer/src/gap_address_filter.c.obj
 .debug_loc     0x0000000000000000      0x823 CMakeFiles/enocean_switch_nrf52840_xxAA_s140_6.0.0.dir/__/__/mesh/bearer/src/gap_address_filter.c.obj
 .debug_aranges
                0x0000000000000000       0x48 CMakeFiles/enocean_switch_nrf52840_xxAA_s140_6.0.0.dir/__/__/mesh/bearer/src/gap_address_filter.c.obj
 .debug_ranges  0x0000000000000000      0x100 CMakeFiles/enocean_switch_nrf52840_xxAA_s140_6.0.0.dir/__/__/mesh/bearer/src/gap_address_filter.c.obj
 .debug_line    0x0000000000000000      0x519 CMakeFiles/enocean_switch_nrf52840_xxAA_s140_6.0.0.dir/__/__/mesh/bearer/src/gap_address_filter.c.obj
 .debug_str     0x0000000000000000      0x9ed CMakeFiles/enocean_switch_nrf52840_xxAA_s140_6.0.0.dir/__/__/mesh/bearer/src/gap_address_filter.c.obj
 .comment       0x0000000000000000       0x7f CMakeFiles/enocean_switch_nrf52840_xxAA_s140_6.0.0.dir/__/__/mesh/bearer/src/gap_address_filter.c.obj
 .debug_frame   0x0000000000000000       0xd4 CMakeFiles/enocean_switch_nrf52840_xxAA_s140_6.0.0.dir/__/__/mesh/bearer/src/gap_address_filter.c.obj
 .ARM.attributes
                0x0000000000000000       0x39 CMakeFiles/enocean_switch_nrf52840_xxAA_s140_6.0.0.dir/__/__/mesh/bearer/src/gap_address_filter.c.obj
 .text          0x0000000000000000        0x0 CMakeFiles/enocean_switch_nrf52840_xxAA_s140_6.0.0.dir/__/__/mesh/bearer/src/radio_config.c.obj
 .data          0x0000000000000000        0x0 CMakeFiles/enocean_switch_nrf52840_xxAA_s140_6.0.0.dir/__/__/mesh/bearer/src/radio_config.c.obj
 .bss           0x0000000000000000        0x0 CMakeFiles/enocean_switch_nrf52840_xxAA_s140_6.0.0.dir/__/__/mesh/bearer/src/radio_config.c.obj
 .text.radio_config_access_addr_get
                0x0000000000000000       0x58 CMakeFiles/enocean_switch_nrf52840_xxAA_s140_6.0.0.dir/__/__/mesh/bearer/src/radio_config.c.obj
 .text          0x0000000000000000        0x0 CMakeFiles/enocean_switch_nrf52840_xxAA_s140_6.0.0.dir/__/__/mesh/bearer/src/rssi_filter.c.obj
 .data          0x0000000000000000        0x0 CMakeFiles/enocean_switch_nrf52840_xxAA_s140_6.0.0.dir/__/__/mesh/bearer/src/rssi_filter.c.obj
 .bss           0x0000000000000000        0x0 CMakeFiles/enocean_switch_nrf52840_xxAA_s140_6.0.0.dir/__/__/mesh/bearer/src/rssi_filter.c.obj
 .text.rssi_filter_handle
                0x0000000000000000       0x20 CMakeFiles/enocean_switch_nrf52840_xxAA_s140_6.0.0.dir/__/__/mesh/bearer/src/rssi_filter.c.obj
 .text.bearer_rssi_filtering_set
                0x0000000000000000       0x38 CMakeFiles/enocean_switch_nrf52840_xxAA_s140_6.0.0.dir/__/__/mesh/bearer/src/rssi_filter.c.obj
 .text.bearer_rssi_filtered_amount_get
                0x0000000000000000        0xc CMakeFiles/enocean_switch_nrf52840_xxAA_s140_6.0.0.dir/__/__/mesh/bearer/src/rssi_filter.c.obj
 .bss.m_rssi_filter
                0x0000000000000000       0x18 CMakeFiles/enocean_switch_nrf52840_xxAA_s140_6.0.0.dir/__/__/mesh/bearer/src/rssi_filter.c.obj
 .debug_info    0x0000000000000000      0xc70 CMakeFiles/enocean_switch_nrf52840_xxAA_s140_6.0.0.dir/__/__/mesh/bearer/src/rssi_filter.c.obj
 .debug_abbrev  0x0000000000000000      0x290 CMakeFiles/enocean_switch_nrf52840_xxAA_s140_6.0.0.dir/__/__/mesh/bearer/src/rssi_filter.c.obj
 .debug_loc     0x0000000000000000       0xbe CMakeFiles/enocean_switch_nrf52840_xxAA_s140_6.0.0.dir/__/__/mesh/bearer/src/rssi_filter.c.obj
 .debug_aranges
                0x0000000000000000       0x30 CMakeFiles/enocean_switch_nrf52840_xxAA_s140_6.0.0.dir/__/__/mesh/bearer/src/rssi_filter.c.obj
 .debug_ranges  0x0000000000000000       0x20 CMakeFiles/enocean_switch_nrf52840_xxAA_s140_6.0.0.dir/__/__/mesh/bearer/src/rssi_filter.c.obj
 .debug_line    0x0000000000000000      0x3fb CMakeFiles/enocean_switch_nrf52840_xxAA_s140_6.0.0.dir/__/__/mesh/bearer/src/rssi_filter.c.obj
 .debug_str     0x0000000000000000      0x8a8 CMakeFiles/enocean_switch_nrf52840_xxAA_s140_6.0.0.dir/__/__/mesh/bearer/src/rssi_filter.c.obj
 .comment       0x0000000000000000       0x7f CMakeFiles/enocean_switch_nrf52840_xxAA_s140_6.0.0.dir/__/__/mesh/bearer/src/rssi_filter.c.obj
 .debug_frame   0x0000000000000000       0x58 CMakeFiles/enocean_switch_nrf52840_xxAA_s140_6.0.0.dir/__/__/mesh/bearer/src/rssi_filter.c.obj
 .ARM.attributes
                0x0000000000000000       0x39 CMakeFiles/enocean_switch_nrf52840_xxAA_s140_6.0.0.dir/__/__/mesh/bearer/src/rssi_filter.c.obj
 .text          0x0000000000000000        0x0 CMakeFiles/enocean_switch_nrf52840_xxAA_s140_6.0.0.dir/__/__/mesh/bearer/src/scanner.c.obj
 .data          0x0000000000000000        0x0 CMakeFiles/enocean_switch_nrf52840_xxAA_s140_6.0.0.dir/__/__/mesh/bearer/src/scanner.c.obj
 .bss           0x0000000000000000        0x0 CMakeFiles/enocean_switch_nrf52840_xxAA_s140_6.0.0.dir/__/__/mesh/bearer/src/scanner.c.obj
 .text.scanner_rx_callback_set
                0x0000000000000000       0x20 CMakeFiles/enocean_switch_nrf52840_xxAA_s140_6.0.0.dir/__/__/mesh/bearer/src/scanner.c.obj
 .text.scanner_disable
                0x0000000000000000       0x50 CMakeFiles/enocean_switch_nrf52840_xxAA_s140_6.0.0.dir/__/__/mesh/bearer/src/scanner.c.obj
 .text.scanner_is_enabled
                0x0000000000000000       0x14 CMakeFiles/enocean_switch_nrf52840_xxAA_s140_6.0.0.dir/__/__/mesh/bearer/src/scanner.c.obj
 .text.scanner_stats_get
                0x0000000000000000        0x8 CMakeFiles/enocean_switch_nrf52840_xxAA_s140_6.0.0.dir/__/__/mesh/bearer/src/scanner.c.obj
 .text.scanner_config_radio_mode_set
                0x0000000000000000       0x10 CMakeFiles/enocean_switch_nrf52840_xxAA_s140_6.0.0.dir/__/__/mesh/bearer/src/scanner.c.obj
 .text.scanner_config_scan_time_set
                0x0000000000000000       0x88 CMakeFiles/enocean_switch_nrf52840_xxAA_s140_6.0.0.dir/__/__/mesh/bearer/src/scanner.c.obj
 .text.scanner_config_channels_set
                0x0000000000000000       0x50 CMakeFiles/enocean_switch_nrf52840_xxAA_s140_6.0.0.dir/__/__/mesh/bearer/src/scanner.c.obj
 .text.scanner_config_access_addresses_set
                0x0000000000000000       0x38 CMakeFiles/enocean_switch_nrf52840_xxAA_s140_6.0.0.dir/__/__/mesh/bearer/src/scanner.c.obj
 .text          0x0000000000000000        0x0 CMakeFiles/enocean_switch_nrf52840_xxAA_s140_6.0.0.dir/__/__/models/simple_on_off/src/simple_on_off_client.c.obj
 .data          0x0000000000000000        0x0 CMakeFiles/enocean_switch_nrf52840_xxAA_s140_6.0.0.dir/__/__/models/simple_on_off/src/simple_on_off_client.c.obj
 .bss           0x0000000000000000        0x0 CMakeFiles/enocean_switch_nrf52840_xxAA_s140_6.0.0.dir/__/__/models/simple_on_off/src/simple_on_off_client.c.obj
 .text.simple_on_off_client_get
                0x0000000000000000       0x60 CMakeFiles/enocean_switch_nrf52840_xxAA_s140_6.0.0.dir/__/__/models/simple_on_off/src/simple_on_off_client.c.obj
 .text.simple_on_off_client_pending_msg_cancel
                0x0000000000000000        0x8 CMakeFiles/enocean_switch_nrf52840_xxAA_s140_6.0.0.dir/__/__/models/simple_on_off/src/simple_on_off_client.c.obj
 .text          0x0000000000000000        0x0 CMakeFiles/enocean_switch_nrf52840_xxAA_s140_6.0.0.dir/__/__/models/config/src/composition_data.c.obj
 .data          0x0000000000000000        0x0 CMakeFiles/enocean_switch_nrf52840_xxAA_s140_6.0.0.dir/__/__/models/config/src/composition_data.c.obj
 .bss           0x0000000000000000        0x0 CMakeFiles/enocean_switch_nrf52840_xxAA_s140_6.0.0.dir/__/__/models/config/src/composition_data.c.obj
 .text          0x0000000000000000        0x0 CMakeFiles/enocean_switch_nrf52840_xxAA_s140_6.0.0.dir/__/__/models/config/src/config_server.c.obj
 .data          0x0000000000000000        0x0 CMakeFiles/enocean_switch_nrf52840_xxAA_s140_6.0.0.dir/__/__/models/config/src/config_server.c.obj
 .bss           0x0000000000000000        0x0 CMakeFiles/enocean_switch_nrf52840_xxAA_s140_6.0.0.dir/__/__/models/config/src/config_server.c.obj
 .text          0x0000000000000000        0x0 CMakeFiles/enocean_switch_nrf52840_xxAA_s140_6.0.0.dir/__/__/models/config/src/packed_index_list.c.obj
 .data          0x0000000000000000        0x0 CMakeFiles/enocean_switch_nrf52840_xxAA_s140_6.0.0.dir/__/__/models/config/src/packed_index_list.c.obj
 .bss           0x0000000000000000        0x0 CMakeFiles/enocean_switch_nrf52840_xxAA_s140_6.0.0.dir/__/__/models/config/src/packed_index_list.c.obj
 .text          0x0000000000000000        0x0 CMakeFiles/enocean_switch_nrf52840_xxAA_s140_6.0.0.dir/__/__/models/health/src/health_server.c.obj
 .data          0x0000000000000000        0x0 CMakeFiles/enocean_switch_nrf52840_xxAA_s140_6.0.0.dir/__/__/models/health/src/health_server.c.obj
 .bss           0x0000000000000000        0x0 CMakeFiles/enocean_switch_nrf52840_xxAA_s140_6.0.0.dir/__/__/models/health/src/health_server.c.obj
 .text.health_server_fault_register
                0x0000000000000000      0x23c CMakeFiles/enocean_switch_nrf52840_xxAA_s140_6.0.0.dir/__/__/models/health/src/health_server.c.obj
 .text.health_server_fault_clear
                0x0000000000000000      0x2d8 CMakeFiles/enocean_switch_nrf52840_xxAA_s140_6.0.0.dir/__/__/models/health/src/health_server.c.obj
 .text.health_server_fault_is_set
                0x0000000000000000       0x1c CMakeFiles/enocean_switch_nrf52840_xxAA_s140_6.0.0.dir/__/__/models/health/src/health_server.c.obj
 .text.health_server_fault_count_get
                0x0000000000000000      0x14c CMakeFiles/enocean_switch_nrf52840_xxAA_s140_6.0.0.dir/__/__/models/health/src/health_server.c.obj
 .text.health_server_attention_get
                0x0000000000000000        0x8 CMakeFiles/enocean_switch_nrf52840_xxAA_s140_6.0.0.dir/__/__/models/health/src/health_server.c.obj
 .text.health_server_attention_set
                0x0000000000000000       0x90 CMakeFiles/enocean_switch_nrf52840_xxAA_s140_6.0.0.dir/__/__/models/health/src/health_server.c.obj
 .text          0x0000000000000000        0x0 CMakeFiles/enocean_switch_nrf52840_xxAA_s140_6.0.0.dir/__/__/mesh/access/src/access_publish.c.obj
 .data          0x0000000000000000        0x0 CMakeFiles/enocean_switch_nrf52840_xxAA_s140_6.0.0.dir/__/__/mesh/access/src/access_publish.c.obj
 .bss           0x0000000000000000        0x0 CMakeFiles/enocean_switch_nrf52840_xxAA_s140_6.0.0.dir/__/__/mesh/access/src/access_publish.c.obj
 .text          0x0000000000000000        0x0 CMakeFiles/enocean_switch_nrf52840_xxAA_s140_6.0.0.dir/__/__/mesh/access/src/access.c.obj
 .data          0x0000000000000000        0x0 CMakeFiles/enocean_switch_nrf52840_xxAA_s140_6.0.0.dir/__/__/mesh/access/src/access.c.obj
 .bss           0x0000000000000000        0x0 CMakeFiles/enocean_switch_nrf52840_xxAA_s140_6.0.0.dir/__/__/mesh/access/src/access.c.obj
 .text.access_model_subscription_lists_share
                0x0000000000000000       0x68 CMakeFiles/enocean_switch_nrf52840_xxAA_s140_6.0.0.dir/__/__/mesh/access/src/access.c.obj
 .text.access_element_location_set
                0x0000000000000000       0x3c CMakeFiles/enocean_switch_nrf52840_xxAA_s140_6.0.0.dir/__/__/mesh/access/src/access.c.obj
 .text          0x0000000000000000        0x0 CMakeFiles/enocean_switch_nrf52840_xxAA_s140_6.0.0.dir/__/__/mesh/access/src/access_reliable.c.obj
 .data          0x0000000000000000        0x0 CMakeFiles/enocean_switch_nrf52840_xxAA_s140_6.0.0.dir/__/__/mesh/access/src/access_reliable.c.obj
 .bss           0x0000000000000000        0x0 CMakeFiles/enocean_switch_nrf52840_xxAA_s140_6.0.0.dir/__/__/mesh/access/src/access_reliable.c.obj
 .text          0x0000000000000000        0x0 CMakeFiles/enocean_switch_nrf52840_xxAA_s140_6.0.0.dir/__/__/mesh/access/src/device_state_manager.c.obj
 .data          0x0000000000000000        0x0 CMakeFiles/enocean_switch_nrf52840_xxAA_s140_6.0.0.dir/__/__/mesh/access/src/device_state_manager.c.obj
 .bss           0x0000000000000000        0x0 CMakeFiles/enocean_switch_nrf52840_xxAA_s140_6.0.0.dir/__/__/mesh/access/src/device_state_manager.c.obj
 .text.dsm_has_unflashed_data
                0x0000000000000000       0x58 CMakeFiles/enocean_switch_nrf52840_xxAA_s140_6.0.0.dir/__/__/mesh/access/src/device_state_manager.c.obj
 .text.dsm_address_subscription_count_get
                0x0000000000000000       0x80 CMakeFiles/enocean_switch_nrf52840_xxAA_s140_6.0.0.dir/__/__/mesh/access/src/device_state_manager.c.obj
 .text.dsm_address_get_all
                0x0000000000000000      0x258 CMakeFiles/enocean_switch_nrf52840_xxAA_s140_6.0.0.dir/__/__/mesh/access/src/device_state_manager.c.obj
 .text.dsm_subnet_handle_to_netkey_index
                0x0000000000000000       0x34 CMakeFiles/enocean_switch_nrf52840_xxAA_s140_6.0.0.dir/__/__/mesh/access/src/device_state_manager.c.obj
 .text.dsm_devkey_delete
                0x0000000000000000       0x6c CMakeFiles/enocean_switch_nrf52840_xxAA_s140_6.0.0.dir/__/__/mesh/access/src/device_state_manager.c.obj
 .text.dsm_devkey_handle_get
                0x0000000000000000       0x3c CMakeFiles/enocean_switch_nrf52840_xxAA_s140_6.0.0.dir/__/__/mesh/access/src/device_state_manager.c.obj
 .text.dsm_beacon_info_get
                0x0000000000000000       0x34 CMakeFiles/enocean_switch_nrf52840_xxAA_s140_6.0.0.dir/__/__/mesh/access/src/device_state_manager.c.obj
 .text          0x0000000000000000        0x0 CMakeFiles/enocean_switch_nrf52840_xxAA_s140_6.0.0.dir/__/__/mesh/prov/src/prov_provisionee.c.obj
 .data          0x0000000000000000        0x0 CMakeFiles/enocean_switch_nrf52840_xxAA_s140_6.0.0.dir/__/__/mesh/prov/src/prov_provisionee.c.obj
 .bss           0x0000000000000000        0x0 CMakeFiles/enocean_switch_nrf52840_xxAA_s140_6.0.0.dir/__/__/mesh/prov/src/prov_provisionee.c.obj
 .text.prov_provisionee_shared_secret
                0x0000000000000000       0xa0 CMakeFiles/enocean_switch_nrf52840_xxAA_s140_6.0.0.dir/__/__/mesh/prov/src/prov_provisionee.c.obj
 .text          0x0000000000000000        0x0 CMakeFiles/enocean_switch_nrf52840_xxAA_s140_6.0.0.dir/__/__/mesh/prov/src/nrf_mesh_prov.c.obj
 .data          0x0000000000000000        0x0 CMakeFiles/enocean_switch_nrf52840_xxAA_s140_6.0.0.dir/__/__/mesh/prov/src/nrf_mesh_prov.c.obj
 .bss           0x0000000000000000        0x0 CMakeFiles/enocean_switch_nrf52840_xxAA_s140_6.0.0.dir/__/__/mesh/prov/src/nrf_mesh_prov.c.obj
 .text.nrf_mesh_prov_listen_stop
                0x0000000000000000       0x30 CMakeFiles/enocean_switch_nrf52840_xxAA_s140_6.0.0.dir/__/__/mesh/prov/src/nrf_mesh_prov.c.obj
 .text.nrf_mesh_prov_provision
                0x0000000000000000       0x68 CMakeFiles/enocean_switch_nrf52840_xxAA_s140_6.0.0.dir/__/__/mesh/prov/src/nrf_mesh_prov.c.obj
 .text.nrf_mesh_prov_oob_use
                0x0000000000000000       0x18 CMakeFiles/enocean_switch_nrf52840_xxAA_s140_6.0.0.dir/__/__/mesh/prov/src/nrf_mesh_prov.c.obj
 .text.nrf_mesh_prov_shared_secret_provide
                0x0000000000000000       0x10 CMakeFiles/enocean_switch_nrf52840_xxAA_s140_6.0.0.dir/__/__/mesh/prov/src/nrf_mesh_prov.c.obj
 .text.nrf_mesh_prov_pubkey_provide
                0x0000000000000000       0x10 CMakeFiles/enocean_switch_nrf52840_xxAA_s140_6.0.0.dir/__/__/mesh/prov/src/nrf_mesh_prov.c.obj
 .text.nrf_mesh_prov_scan_start
                0x0000000000000000       0x10 CMakeFiles/enocean_switch_nrf52840_xxAA_s140_6.0.0.dir/__/__/mesh/prov/src/nrf_mesh_prov.c.obj
 .text.nrf_mesh_prov_scan_stop
                0x0000000000000000        0x4 CMakeFiles/enocean_switch_nrf52840_xxAA_s140_6.0.0.dir/__/__/mesh/prov/src/nrf_mesh_prov.c.obj
 .text          0x0000000000000000        0x0 CMakeFiles/enocean_switch_nrf52840_xxAA_s140_6.0.0.dir/__/__/mesh/prov/src/provisioning.c.obj
 .data          0x0000000000000000        0x0 CMakeFiles/enocean_switch_nrf52840_xxAA_s140_6.0.0.dir/__/__/mesh/prov/src/provisioning.c.obj
 .bss           0x0000000000000000        0x0 CMakeFiles/enocean_switch_nrf52840_xxAA_s140_6.0.0.dir/__/__/mesh/prov/src/provisioning.c.obj
 .text.prov_tx_invite
                0x0000000000000000       0x38 CMakeFiles/enocean_switch_nrf52840_xxAA_s140_6.0.0.dir/__/__/mesh/prov/src/provisioning.c.obj
 .text.prov_tx_start
                0x0000000000000000       0x38 CMakeFiles/enocean_switch_nrf52840_xxAA_s140_6.0.0.dir/__/__/mesh/prov/src/provisioning.c.obj
 .text.prov_tx_data
                0x0000000000000000       0x34 CMakeFiles/enocean_switch_nrf52840_xxAA_s140_6.0.0.dir/__/__/mesh/prov/src/provisioning.c.obj
 .text.prov_tx  0x0000000000000000       0x3c CMakeFiles/enocean_switch_nrf52840_xxAA_s140_6.0.0.dir/__/__/mesh/prov/src/provisioning.c.obj
 .text          0x0000000000000000        0x0 CMakeFiles/enocean_switch_nrf52840_xxAA_s140_6.0.0.dir/__/__/mesh/prov/src/prov_beacon.c.obj
 .data          0x0000000000000000        0x0 CMakeFiles/enocean_switch_nrf52840_xxAA_s140_6.0.0.dir/__/__/mesh/prov/src/prov_beacon.c.obj
 .bss           0x0000000000000000        0x0 CMakeFiles/enocean_switch_nrf52840_xxAA_s140_6.0.0.dir/__/__/mesh/prov/src/prov_beacon.c.obj
 .text.prov_beacon_scan_start
                0x0000000000000000       0x1c CMakeFiles/enocean_switch_nrf52840_xxAA_s140_6.0.0.dir/__/__/mesh/prov/src/prov_beacon.c.obj
 .text.prov_beacon_scan_stop
                0x0000000000000000        0xc CMakeFiles/enocean_switch_nrf52840_xxAA_s140_6.0.0.dir/__/__/mesh/prov/src/prov_beacon.c.obj
 .text          0x0000000000000000        0x0 CMakeFiles/enocean_switch_nrf52840_xxAA_s140_6.0.0.dir/__/__/mesh/prov/src/prov_utils.c.obj
 .data          0x0000000000000000        0x0 CMakeFiles/enocean_switch_nrf52840_xxAA_s140_6.0.0.dir/__/__/mesh/prov/src/prov_utils.c.obj
 .bss           0x0000000000000000        0x0 CMakeFiles/enocean_switch_nrf52840_xxAA_s140_6.0.0.dir/__/__/mesh/prov/src/prov_utils.c.obj
 .text          0x0000000000000000        0x0 CMakeFiles/enocean_switch_nrf52840_xxAA_s140_6.0.0.dir/__/__/mesh/prov/src/prov_bearer_adv.c.obj
 .data          0x0000000000000000        0x0 CMakeFiles/enocean_switch_nrf52840_xxAA_s140_6.0.0.dir/__/__/mesh/prov/src/prov_bearer_adv.c.obj
 .bss           0x0000000000000000        0x0 CMakeFiles/enocean_switch_nrf52840_xxAA_s140_6.0.0.dir/__/__/mesh/prov/src/prov_bearer_adv.c.obj
 .text.calculate_3GPP_CRC
                0x0000000000000000       0x28 CMakeFiles/enocean_switch_nrf52840_xxAA_s140_6.0.0.dir/__/__/mesh/prov/src/prov_bearer_adv.c.obj
 .text          0x0000000000000000        0x0 CMakeFiles/enocean_switch_nrf52840_xxAA_s140_6.0.0.dir/home/mazzer/work/nordic/sdk/nRF5_SDK_15.0.0/modules/nrfx/mdk/system_nrf52840.c.obj
 .data          0x0000000000000000        0x0 CMakeFiles/enocean_switch_nrf52840_xxAA_s140_6.0.0.dir/home/mazzer/work/nordic/sdk/nRF5_SDK_15.0.0/modules/nrfx/mdk/system_nrf52840.c.obj
 .bss           0x0000000000000000        0x0 CMakeFiles/enocean_switch_nrf52840_xxAA_s140_6.0.0.dir/home/mazzer/work/nordic/sdk/nRF5_SDK_15.0.0/modules/nrfx/mdk/system_nrf52840.c.obj
 .text.SystemCoreClockUpdate
                0x0000000000000000       0x10 CMakeFiles/enocean_switch_nrf52840_xxAA_s140_6.0.0.dir/home/mazzer/work/nordic/sdk/nRF5_SDK_15.0.0/modules/nrfx/mdk/system_nrf52840.c.obj
 .data          0x0000000000000000        0x0 CMakeFiles/enocean_switch_nrf52840_xxAA_s140_6.0.0.dir/home/mazzer/work/nordic/sdk/nRF5_SDK_15.0.0/modules/nrfx/mdk/gcc_startup_nrf52840.S.obj
 .bss           0x0000000000000000        0x0 CMakeFiles/enocean_switch_nrf52840_xxAA_s140_6.0.0.dir/home/mazzer/work/nordic/sdk/nRF5_SDK_15.0.0/modules/nrfx/mdk/gcc_startup_nrf52840.S.obj
 .text          0x0000000000000000        0x0 CMakeFiles/enocean_switch_nrf52840_xxAA_s140_6.0.0.dir/home/mazzer/work/nordic/sdk/nRF5_SDK_15.0.0/components/libraries/util/app_error.c.obj
 .data          0x0000000000000000        0x0 CMakeFiles/enocean_switch_nrf52840_xxAA_s140_6.0.0.dir/home/mazzer/work/nordic/sdk/nRF5_SDK_15.0.0/components/libraries/util/app_error.c.obj
 .bss           0x0000000000000000        0x0 CMakeFiles/enocean_switch_nrf52840_xxAA_s140_6.0.0.dir/home/mazzer/work/nordic/sdk/nRF5_SDK_15.0.0/components/libraries/util/app_error.c.obj
 .text.app_error_save_and_stop
                0x0000000000000000       0x64 CMakeFiles/enocean_switch_nrf52840_xxAA_s140_6.0.0.dir/home/mazzer/work/nordic/sdk/nRF5_SDK_15.0.0/components/libraries/util/app_error.c.obj
 .bss.m_error_data.8293
                0x0000000000000000       0x20 CMakeFiles/enocean_switch_nrf52840_xxAA_s140_6.0.0.dir/home/mazzer/work/nordic/sdk/nRF5_SDK_15.0.0/components/libraries/util/app_error.c.obj
 .text          0x0000000000000000        0x0 CMakeFiles/enocean_switch_nrf52840_xxAA_s140_6.0.0.dir/home/mazzer/work/nordic/sdk/nRF5_SDK_15.0.0/components/libraries/util/app_error_handler_gcc.c.obj
 .data          0x0000000000000000        0x0 CMakeFiles/enocean_switch_nrf52840_xxAA_s140_6.0.0.dir/home/mazzer/work/nordic/sdk/nRF5_SDK_15.0.0/components/libraries/util/app_error_handler_gcc.c.obj
 .bss           0x0000000000000000        0x0 CMakeFiles/enocean_switch_nrf52840_xxAA_s140_6.0.0.dir/home/mazzer/work/nordic/sdk/nRF5_SDK_15.0.0/components/libraries/util/app_error_handler_gcc.c.obj
 .text          0x0000000000000000        0x0 ../../external/rtt/librtt_nrf52840_xxAA.a(SEGGER_RTT.c.obj)
 .data          0x0000000000000000        0x0 ../../external/rtt/librtt_nrf52840_xxAA.a(SEGGER_RTT.c.obj)
 .bss           0x0000000000000000        0x0 ../../external/rtt/librtt_nrf52840_xxAA.a(SEGGER_RTT.c.obj)
 .text.SEGGER_RTT_ReadNoLock
                0x0000000000000000       0xfc ../../external/rtt/librtt_nrf52840_xxAA.a(SEGGER_RTT.c.obj)
 .text.SEGGER_RTT_Read
                0x0000000000000000      0x118 ../../external/rtt/librtt_nrf52840_xxAA.a(SEGGER_RTT.c.obj)
 .text.SEGGER_RTT_WriteSkipNoLock
                0x0000000000000000      0x1a8 ../../external/rtt/librtt_nrf52840_xxAA.a(SEGGER_RTT.c.obj)
 .text.SEGGER_RTT_WriteNoLock
                0x0000000000000000      0x168 ../../external/rtt/librtt_nrf52840_xxAA.a(SEGGER_RTT.c.obj)
 .text.SEGGER_RTT_WriteString
                0x0000000000000000      0x1f8 ../../external/rtt/librtt_nrf52840_xxAA.a(SEGGER_RTT.c.obj)
 .text.SEGGER_RTT_WaitKey
                0x0000000000000000       0xfc ../../external/rtt/librtt_nrf52840_xxAA.a(SEGGER_RTT.c.obj)
 .text.SEGGER_RTT_HasKey
                0x0000000000000000       0x6c ../../external/rtt/librtt_nrf52840_xxAA.a(SEGGER_RTT.c.obj)
 .text.SEGGER_RTT_HasData
                0x0000000000000000       0x18 ../../external/rtt/librtt_nrf52840_xxAA.a(SEGGER_RTT.c.obj)
 .text.SEGGER_RTT_AllocDownBuffer
                0x0000000000000000       0xb8 ../../external/rtt/librtt_nrf52840_xxAA.a(SEGGER_RTT.c.obj)
 .text.SEGGER_RTT_AllocUpBuffer
                0x0000000000000000       0xd4 ../../external/rtt/librtt_nrf52840_xxAA.a(SEGGER_RTT.c.obj)
 .text.SEGGER_RTT_ConfigUpBuffer
                0x0000000000000000       0xd0 ../../external/rtt/librtt_nrf52840_xxAA.a(SEGGER_RTT.c.obj)
 .text.SEGGER_RTT_ConfigDownBuffer
                0x0000000000000000       0xb4 ../../external/rtt/librtt_nrf52840_xxAA.a(SEGGER_RTT.c.obj)
 .text.SEGGER_RTT_SetNameUpBuffer
                0x0000000000000000       0x90 ../../external/rtt/librtt_nrf52840_xxAA.a(SEGGER_RTT.c.obj)
 .text.SEGGER_RTT_SetNameDownBuffer
                0x0000000000000000       0x90 ../../external/rtt/librtt_nrf52840_xxAA.a(SEGGER_RTT.c.obj)
 .text.SEGGER_RTT_Init
                0x0000000000000000       0x64 ../../external/rtt/librtt_nrf52840_xxAA.a(SEGGER_RTT.c.obj)
 .text.SEGGER_RTT_SetTerminal
                0x0000000000000000      0x16c ../../external/rtt/librtt_nrf52840_xxAA.a(SEGGER_RTT.c.obj)
 .text.SEGGER_RTT_TerminalOut
                0x0000000000000000      0x4d8 ../../external/rtt/librtt_nrf52840_xxAA.a(SEGGER_RTT.c.obj)
 .bss._ActiveTerminal
                0x0000000000000000        0x1 ../../external/rtt/librtt_nrf52840_xxAA.a(SEGGER_RTT.c.obj)
 .rodata._aTerminalId
                0x0000000000000000       0x10 ../../external/rtt/librtt_nrf52840_xxAA.a(SEGGER_RTT.c.obj)
 .text          0x0000000000000000        0x0 ../../external/rtt/librtt_nrf52840_xxAA.a(SEGGER_RTT_printf.c.obj)
 .data          0x0000000000000000        0x0 ../../external/rtt/librtt_nrf52840_xxAA.a(SEGGER_RTT_printf.c.obj)
 .bss           0x0000000000000000        0x0 ../../external/rtt/librtt_nrf52840_xxAA.a(SEGGER_RTT_printf.c.obj)
 .text          0x0000000000000000        0x0 ../../external/micro-ecc/libuECC_nrf52840_xxAA.a(uECC.c.obj)
 .data          0x0000000000000000        0x0 ../../external/micro-ecc/libuECC_nrf52840_xxAA.a(uECC.c.obj)
 .bss           0x0000000000000000        0x0 ../../external/micro-ecc/libuECC_nrf52840_xxAA.a(uECC.c.obj)
 .text.HMAC_finish
                0x0000000000000000       0x70 ../../external/micro-ecc/libuECC_nrf52840_xxAA.a(uECC.c.obj)
 .text.uECC_vli_mmod
                0x0000000000000000      0x418 ../../external/micro-ecc/libuECC_nrf52840_xxAA.a(uECC.c.obj)
 .text.uECC_vli_modSub.isra.2
                0x0000000000000000       0x98 ../../external/micro-ecc/libuECC_nrf52840_xxAA.a(uECC.c.obj)
 .text.bits2int
                0x0000000000000000      0x160 ../../external/micro-ecc/libuECC_nrf52840_xxAA.a(uECC.c.obj)
 .text.uECC_sign_with_k
                0x0000000000000000      0x630 ../../external/micro-ecc/libuECC_nrf52840_xxAA.a(uECC.c.obj)
 .text.uECC_set_rng
                0x0000000000000000        0xc ../../external/micro-ecc/libuECC_nrf52840_xxAA.a(uECC.c.obj)
 .text.uECC_get_rng
                0x0000000000000000        0xc ../../external/micro-ecc/libuECC_nrf52840_xxAA.a(uECC.c.obj)
 .text.uECC_curve_private_key_size
                0x0000000000000000       0x10 ../../external/micro-ecc/libuECC_nrf52840_xxAA.a(uECC.c.obj)
 .text.uECC_curve_public_key_size
                0x0000000000000000        0x8 ../../external/micro-ecc/libuECC_nrf52840_xxAA.a(uECC.c.obj)
 .text.uECC_valid_point
                0x0000000000000000      0x154 ../../external/micro-ecc/libuECC_nrf52840_xxAA.a(uECC.c.obj)
 .text.uECC_compute_public_key
                0x0000000000000000      0x2e8 ../../external/micro-ecc/libuECC_nrf52840_xxAA.a(uECC.c.obj)
 .text.uECC_sign
                0x0000000000000000       0x5c ../../external/micro-ecc/libuECC_nrf52840_xxAA.a(uECC.c.obj)
 .text.uECC_sign_deterministic
                0x0000000000000000      0x414 ../../external/micro-ecc/libuECC_nrf52840_xxAA.a(uECC.c.obj)
 .text.uECC_verify
                0x0000000000000000      0x960 ../../external/micro-ecc/libuECC_nrf52840_xxAA.a(uECC.c.obj)
 .text          0x0000000000000000       0xa0 /usr/bin/../lib/gcc/arm-none-eabi/7.2.1/thumb/v7e-m/fpv4-sp/hard/libgcc.a(_aeabi_ldivmod.o)
 .data          0x0000000000000000        0x0 /usr/bin/../lib/gcc/arm-none-eabi/7.2.1/thumb/v7e-m/fpv4-sp/hard/libgcc.a(_aeabi_ldivmod.o)
 .bss           0x0000000000000000        0x0 /usr/bin/../lib/gcc/arm-none-eabi/7.2.1/thumb/v7e-m/fpv4-sp/hard/libgcc.a(_aeabi_ldivmod.o)
 .debug_frame   0x0000000000000000       0x44 /usr/bin/../lib/gcc/arm-none-eabi/7.2.1/thumb/v7e-m/fpv4-sp/hard/libgcc.a(_aeabi_ldivmod.o)
 .ARM.attributes
                0x0000000000000000       0x22 /usr/bin/../lib/gcc/arm-none-eabi/7.2.1/thumb/v7e-m/fpv4-sp/hard/libgcc.a(_aeabi_ldivmod.o)
 .data          0x0000000000000000        0x0 /usr/bin/../lib/gcc/arm-none-eabi/7.2.1/thumb/v7e-m/fpv4-sp/hard/libgcc.a(_aeabi_uldivmod.o)
 .bss           0x0000000000000000        0x0 /usr/bin/../lib/gcc/arm-none-eabi/7.2.1/thumb/v7e-m/fpv4-sp/hard/libgcc.a(_aeabi_uldivmod.o)
 .data          0x0000000000000000        0x0 /usr/bin/../lib/gcc/arm-none-eabi/7.2.1/thumb/v7e-m/fpv4-sp/hard/libgcc.a(_udivmoddi4.o)
 .bss           0x0000000000000000        0x0 /usr/bin/../lib/gcc/arm-none-eabi/7.2.1/thumb/v7e-m/fpv4-sp/hard/libgcc.a(_udivmoddi4.o)
 .ARM.extab     0x0000000000000000        0x0 /usr/bin/../lib/gcc/arm-none-eabi/7.2.1/thumb/v7e-m/fpv4-sp/hard/libgcc.a(_udivmoddi4.o)
 .data          0x0000000000000000        0x0 /usr/bin/../lib/gcc/arm-none-eabi/7.2.1/thumb/v7e-m/fpv4-sp/hard/libgcc.a(_dvmd_tls.o)
 .bss           0x0000000000000000        0x0 /usr/bin/../lib/gcc/arm-none-eabi/7.2.1/thumb/v7e-m/fpv4-sp/hard/libgcc.a(_dvmd_tls.o)
 .text          0x0000000000000000        0x0 /usr/bin/../lib/gcc/arm-none-eabi/7.2.1/../../../../arm-none-eabi/lib/thumb/v7e-m/fpv4-sp/hard/libg_nano.a(lib_a-exit.o)
 .data          0x0000000000000000        0x0 /usr/bin/../lib/gcc/arm-none-eabi/7.2.1/../../../../arm-none-eabi/lib/thumb/v7e-m/fpv4-sp/hard/libg_nano.a(lib_a-exit.o)
 .bss           0x0000000000000000        0x0 /usr/bin/../lib/gcc/arm-none-eabi/7.2.1/../../../../arm-none-eabi/lib/thumb/v7e-m/fpv4-sp/hard/libg_nano.a(lib_a-exit.o)
 .text          0x0000000000000000        0x0 /usr/bin/../lib/gcc/arm-none-eabi/7.2.1/../../../../arm-none-eabi/lib/thumb/v7e-m/fpv4-sp/hard/libg_nano.a(lib_a-impure.o)
 .data          0x0000000000000000        0x0 /usr/bin/../lib/gcc/arm-none-eabi/7.2.1/../../../../arm-none-eabi/lib/thumb/v7e-m/fpv4-sp/hard/libg_nano.a(lib_a-impure.o)
 .bss           0x0000000000000000        0x0 /usr/bin/../lib/gcc/arm-none-eabi/7.2.1/../../../../arm-none-eabi/lib/thumb/v7e-m/fpv4-sp/hard/libg_nano.a(lib_a-impure.o)
 .text          0x0000000000000000        0x0 /usr/bin/../lib/gcc/arm-none-eabi/7.2.1/../../../../arm-none-eabi/lib/thumb/v7e-m/fpv4-sp/hard/libg_nano.a(lib_a-init.o)
 .data          0x0000000000000000        0x0 /usr/bin/../lib/gcc/arm-none-eabi/7.2.1/../../../../arm-none-eabi/lib/thumb/v7e-m/fpv4-sp/hard/libg_nano.a(lib_a-init.o)
 .bss           0x0000000000000000        0x0 /usr/bin/../lib/gcc/arm-none-eabi/7.2.1/../../../../arm-none-eabi/lib/thumb/v7e-m/fpv4-sp/hard/libg_nano.a(lib_a-init.o)
 .text          0x0000000000000000        0x0 /usr/bin/../lib/gcc/arm-none-eabi/7.2.1/../../../../arm-none-eabi/lib/thumb/v7e-m/fpv4-sp/hard/libg_nano.a(lib_a-malloc.o)
 .data          0x0000000000000000        0x0 /usr/bin/../lib/gcc/arm-none-eabi/7.2.1/../../../../arm-none-eabi/lib/thumb/v7e-m/fpv4-sp/hard/libg_nano.a(lib_a-malloc.o)
 .bss           0x0000000000000000        0x0 /usr/bin/../lib/gcc/arm-none-eabi/7.2.1/../../../../arm-none-eabi/lib/thumb/v7e-m/fpv4-sp/hard/libg_nano.a(lib_a-malloc.o)
 .text          0x0000000000000000        0x0 /usr/bin/../lib/gcc/arm-none-eabi/7.2.1/../../../../arm-none-eabi/lib/thumb/v7e-m/fpv4-sp/hard/libg_nano.a(lib_a-memcmp.o)
 .data          0x0000000000000000        0x0 /usr/bin/../lib/gcc/arm-none-eabi/7.2.1/../../../../arm-none-eabi/lib/thumb/v7e-m/fpv4-sp/hard/libg_nano.a(lib_a-memcmp.o)
 .bss           0x0000000000000000        0x0 /usr/bin/../lib/gcc/arm-none-eabi/7.2.1/../../../../arm-none-eabi/lib/thumb/v7e-m/fpv4-sp/hard/libg_nano.a(lib_a-memcmp.o)
 .text          0x0000000000000000        0x0 /usr/bin/../lib/gcc/arm-none-eabi/7.2.1/../../../../arm-none-eabi/lib/thumb/v7e-m/fpv4-sp/hard/libg_nano.a(lib_a-memcpy-stub.o)
 .data          0x0000000000000000        0x0 /usr/bin/../lib/gcc/arm-none-eabi/7.2.1/../../../../arm-none-eabi/lib/thumb/v7e-m/fpv4-sp/hard/libg_nano.a(lib_a-memcpy-stub.o)
 .bss           0x0000000000000000        0x0 /usr/bin/../lib/gcc/arm-none-eabi/7.2.1/../../../../arm-none-eabi/lib/thumb/v7e-m/fpv4-sp/hard/libg_nano.a(lib_a-memcpy-stub.o)
 .text          0x0000000000000000        0x0 /usr/bin/../lib/gcc/arm-none-eabi/7.2.1/../../../../arm-none-eabi/lib/thumb/v7e-m/fpv4-sp/hard/libg_nano.a(lib_a-memset.o)
 .data          0x0000000000000000        0x0 /usr/bin/../lib/gcc/arm-none-eabi/7.2.1/../../../../arm-none-eabi/lib/thumb/v7e-m/fpv4-sp/hard/libg_nano.a(lib_a-memset.o)
 .bss           0x0000000000000000        0x0 /usr/bin/../lib/gcc/arm-none-eabi/7.2.1/../../../../arm-none-eabi/lib/thumb/v7e-m/fpv4-sp/hard/libg_nano.a(lib_a-memset.o)
 .text          0x0000000000000000        0x0 /usr/bin/../lib/gcc/arm-none-eabi/7.2.1/../../../../arm-none-eabi/lib/thumb/v7e-m/fpv4-sp/hard/libg_nano.a(lib_a-nano-freer.o)
 .data          0x0000000000000000        0x0 /usr/bin/../lib/gcc/arm-none-eabi/7.2.1/../../../../arm-none-eabi/lib/thumb/v7e-m/fpv4-sp/hard/libg_nano.a(lib_a-nano-freer.o)
 .bss           0x0000000000000000        0x0 /usr/bin/../lib/gcc/arm-none-eabi/7.2.1/../../../../arm-none-eabi/lib/thumb/v7e-m/fpv4-sp/hard/libg_nano.a(lib_a-nano-freer.o)
 .text          0x0000000000000000        0x0 /usr/bin/../lib/gcc/arm-none-eabi/7.2.1/../../../../arm-none-eabi/lib/thumb/v7e-m/fpv4-sp/hard/libg_nano.a(lib_a-nano-mallocr.o)
 .data          0x0000000000000000        0x0 /usr/bin/../lib/gcc/arm-none-eabi/7.2.1/../../../../arm-none-eabi/lib/thumb/v7e-m/fpv4-sp/hard/libg_nano.a(lib_a-nano-mallocr.o)
 .bss           0x0000000000000000        0x0 /usr/bin/../lib/gcc/arm-none-eabi/7.2.1/../../../../arm-none-eabi/lib/thumb/v7e-m/fpv4-sp/hard/libg_nano.a(lib_a-nano-mallocr.o)
 .text          0x0000000000000000        0x0 /usr/bin/../lib/gcc/arm-none-eabi/7.2.1/../../../../arm-none-eabi/lib/thumb/v7e-m/fpv4-sp/hard/libg_nano.a(lib_a-sbrkr.o)
 .data          0x0000000000000000        0x0 /usr/bin/../lib/gcc/arm-none-eabi/7.2.1/../../../../arm-none-eabi/lib/thumb/v7e-m/fpv4-sp/hard/libg_nano.a(lib_a-sbrkr.o)
 .bss           0x0000000000000000        0x0 /usr/bin/../lib/gcc/arm-none-eabi/7.2.1/../../../../arm-none-eabi/lib/thumb/v7e-m/fpv4-sp/hard/libg_nano.a(lib_a-sbrkr.o)
 .text          0x0000000000000000        0x0 /usr/bin/../lib/gcc/arm-none-eabi/7.2.1/../../../../arm-none-eabi/lib/thumb/v7e-m/fpv4-sp/hard/libg_nano.a(lib_a-strcpy.o)
 .data          0x0000000000000000        0x0 /usr/bin/../lib/gcc/arm-none-eabi/7.2.1/../../../../arm-none-eabi/lib/thumb/v7e-m/fpv4-sp/hard/libg_nano.a(lib_a-strcpy.o)
 .bss           0x0000000000000000        0x0 /usr/bin/../lib/gcc/arm-none-eabi/7.2.1/../../../../arm-none-eabi/lib/thumb/v7e-m/fpv4-sp/hard/libg_nano.a(lib_a-strcpy.o)
 .data          0x0000000000000000        0x0 /usr/bin/../lib/gcc/arm-none-eabi/7.2.1/../../../../arm-none-eabi/lib/thumb/v7e-m/fpv4-sp/hard/libg_nano.a(lib_a-strlen.o)
 .bss           0x0000000000000000        0x0 /usr/bin/../lib/gcc/arm-none-eabi/7.2.1/../../../../arm-none-eabi/lib/thumb/v7e-m/fpv4-sp/hard/libg_nano.a(lib_a-strlen.o)
 .text          0x0000000000000000        0x0 /usr/bin/../lib/gcc/arm-none-eabi/7.2.1/../../../../arm-none-eabi/lib/thumb/v7e-m/fpv4-sp/hard/libg_nano.a(lib_a-strrchr.o)
 .data          0x0000000000000000        0x0 /usr/bin/../lib/gcc/arm-none-eabi/7.2.1/../../../../arm-none-eabi/lib/thumb/v7e-m/fpv4-sp/hard/libg_nano.a(lib_a-strrchr.o)
 .bss           0x0000000000000000        0x0 /usr/bin/../lib/gcc/arm-none-eabi/7.2.1/../../../../arm-none-eabi/lib/thumb/v7e-m/fpv4-sp/hard/libg_nano.a(lib_a-strrchr.o)
 .text          0x0000000000000000        0x0 /usr/bin/../lib/gcc/arm-none-eabi/7.2.1/../../../../arm-none-eabi/lib/thumb/v7e-m/fpv4-sp/hard/libg_nano.a(lib_a-mlock.o)
 .data          0x0000000000000000        0x0 /usr/bin/../lib/gcc/arm-none-eabi/7.2.1/../../../../arm-none-eabi/lib/thumb/v7e-m/fpv4-sp/hard/libg_nano.a(lib_a-mlock.o)
 .bss           0x0000000000000000        0x0 /usr/bin/../lib/gcc/arm-none-eabi/7.2.1/../../../../arm-none-eabi/lib/thumb/v7e-m/fpv4-sp/hard/libg_nano.a(lib_a-mlock.o)
 .text          0x0000000000000000        0x0 /usr/bin/../lib/gcc/arm-none-eabi/7.2.1/../../../../arm-none-eabi/lib/thumb/v7e-m/fpv4-sp/hard/libg_nano.a(lib_a-reent.o)
 .data          0x0000000000000000        0x0 /usr/bin/../lib/gcc/arm-none-eabi/7.2.1/../../../../arm-none-eabi/lib/thumb/v7e-m/fpv4-sp/hard/libg_nano.a(lib_a-reent.o)
 .bss           0x0000000000000000        0x0 /usr/bin/../lib/gcc/arm-none-eabi/7.2.1/../../../../arm-none-eabi/lib/thumb/v7e-m/fpv4-sp/hard/libg_nano.a(lib_a-reent.o)
 .text.cleanup_glue
                0x0000000000000000       0x1a /usr/bin/../lib/gcc/arm-none-eabi/7.2.1/../../../../arm-none-eabi/lib/thumb/v7e-m/fpv4-sp/hard/libg_nano.a(lib_a-reent.o)
 .text._reclaim_reent
                0x0000000000000000       0xb8 /usr/bin/../lib/gcc/arm-none-eabi/7.2.1/../../../../arm-none-eabi/lib/thumb/v7e-m/fpv4-sp/hard/libg_nano.a(lib_a-reent.o)
 .text          0x0000000000000000        0x0 /usr/bin/../lib/gcc/arm-none-eabi/7.2.1/../../../../arm-none-eabi/lib/thumb/v7e-m/fpv4-sp/hard/libg_nano.a(lib_a-strchr.o)
 .data          0x0000000000000000        0x0 /usr/bin/../lib/gcc/arm-none-eabi/7.2.1/../../../../arm-none-eabi/lib/thumb/v7e-m/fpv4-sp/hard/libg_nano.a(lib_a-strchr.o)
 .bss           0x0000000000000000        0x0 /usr/bin/../lib/gcc/arm-none-eabi/7.2.1/../../../../arm-none-eabi/lib/thumb/v7e-m/fpv4-sp/hard/libg_nano.a(lib_a-strchr.o)
 .text          0x0000000000000000        0x0 /usr/bin/../lib/gcc/arm-none-eabi/7.2.1/thumb/v7e-m/fpv4-sp/hard/crtend.o
 .data          0x0000000000000000        0x0 /usr/bin/../lib/gcc/arm-none-eabi/7.2.1/thumb/v7e-m/fpv4-sp/hard/crtend.o
 .bss           0x0000000000000000        0x0 /usr/bin/../lib/gcc/arm-none-eabi/7.2.1/thumb/v7e-m/fpv4-sp/hard/crtend.o
 .text          0x0000000000000000        0x0 /usr/bin/../lib/gcc/arm-none-eabi/7.2.1/thumb/v7e-m/fpv4-sp/hard/crtn.o
 .data          0x0000000000000000        0x0 /usr/bin/../lib/gcc/arm-none-eabi/7.2.1/thumb/v7e-m/fpv4-sp/hard/crtn.o
 .bss           0x0000000000000000        0x0 /usr/bin/../lib/gcc/arm-none-eabi/7.2.1/thumb/v7e-m/fpv4-sp/hard/crtn.o
 .text          0x0000000000000000        0x0 /usr/bin/../lib/gcc/arm-none-eabi/7.2.1/../../../../arm-none-eabi/lib/thumb/v7e-m/fpv4-sp/hard/libnosys.a(sbrk.o)
 .data          0x0000000000000000        0x0 /usr/bin/../lib/gcc/arm-none-eabi/7.2.1/../../../../arm-none-eabi/lib/thumb/v7e-m/fpv4-sp/hard/libnosys.a(sbrk.o)
 .bss           0x0000000000000000        0x0 /usr/bin/../lib/gcc/arm-none-eabi/7.2.1/../../../../arm-none-eabi/lib/thumb/v7e-m/fpv4-sp/hard/libnosys.a(sbrk.o)
 .text          0x0000000000000000        0x0 /usr/bin/../lib/gcc/arm-none-eabi/7.2.1/../../../../arm-none-eabi/lib/thumb/v7e-m/fpv4-sp/hard/libnosys.a(_exit.o)
 .data          0x0000000000000000        0x0 /usr/bin/../lib/gcc/arm-none-eabi/7.2.1/../../../../arm-none-eabi/lib/thumb/v7e-m/fpv4-sp/hard/libnosys.a(_exit.o)
 .bss           0x0000000000000000        0x0 /usr/bin/../lib/gcc/arm-none-eabi/7.2.1/../../../../arm-none-eabi/lib/thumb/v7e-m/fpv4-sp/hard/libnosys.a(_exit.o)

Memory Configuration

Name             Origin             Length             Attributes
FLASH            0x0000000000026000 0x00000000000d1000 xr
RAM              0x00000000200032c8 0x000000000003ca38 xrw
*default*        0x0000000000000000 0xffffffffffffffff

Linker script and memory map


.text           0x0000000000026000    0x20868
 *(.isr_vector)
 .isr_vector    0x0000000000026000      0x200 CMakeFiles/enocean_switch_nrf52840_xxAA_s140_6.0.0.dir/home/mazzer/work/nordic/sdk/nRF5_SDK_15.0.0/modules/nrfx/mdk/gcc_startup_nrf52840.S.obj
                0x0000000000026000                __isr_vector
 *(.text*)
 .text          0x0000000000026200       0x40 /usr/bin/../lib/gcc/arm-none-eabi/7.2.1/thumb/v7e-m/fpv4-sp/hard/crtbegin.o
 .text          0x0000000000026240       0x74 /usr/bin/../lib/gcc/arm-none-eabi/7.2.1/../../../../arm-none-eabi/lib/thumb/v7e-m/fpv4-sp/hard/crt0.o
                0x0000000000026240                _mainCRTStartup
                0x0000000000026240                _start
 .text.sd_app_evt_wait
                0x00000000000262b4        0x4 CMakeFiles/enocean_switch_nrf52840_xxAA_s140_6.0.0.dir/src/main.c.obj
 .text.provisioning_complete_cb
                0x00000000000262b8       0xe8 CMakeFiles/enocean_switch_nrf52840_xxAA_s140_6.0.0.dir/src/main.c.obj
 .text.app_data_store_try
                0x00000000000263a0      0x130 CMakeFiles/enocean_switch_nrf52840_xxAA_s140_6.0.0.dir/src/main.c.obj
 .text.button_event_handler
                0x00000000000264d0      0x104 CMakeFiles/enocean_switch_nrf52840_xxAA_s140_6.0.0.dir/src/main.c.obj
 .text.app_enocean_cb
                0x00000000000265d4      0x3f8 CMakeFiles/enocean_switch_nrf52840_xxAA_s140_6.0.0.dir/src/main.c.obj
 .text.rx_callback
                0x00000000000269cc        0x4 CMakeFiles/enocean_switch_nrf52840_xxAA_s140_6.0.0.dir/src/main.c.obj
 .text.models_init_cb
                0x00000000000269d0       0xb4 CMakeFiles/enocean_switch_nrf52840_xxAA_s140_6.0.0.dir/src/main.c.obj
 .text.client_status_cb
                0x0000000000026a84       0xd0 CMakeFiles/enocean_switch_nrf52840_xxAA_s140_6.0.0.dir/src/main.c.obj
 .text.app_mesh_core_event_cb
                0x0000000000026b54      0x188 CMakeFiles/enocean_switch_nrf52840_xxAA_s140_6.0.0.dir/src/main.c.obj
 .text.config_server_evt_cb
                0x0000000000026cdc       0x8c CMakeFiles/enocean_switch_nrf52840_xxAA_s140_6.0.0.dir/src/main.c.obj
 .text.app_rtt_input_handler
                0x0000000000026d68      0x108 CMakeFiles/enocean_switch_nrf52840_xxAA_s140_6.0.0.dir/src/main.c.obj
 .text.startup.main
                0x0000000000026e70      0x3ec CMakeFiles/enocean_switch_nrf52840_xxAA_s140_6.0.0.dir/src/main.c.obj
                0x0000000000026e70                main
 .text.enocean_packet_process
                0x000000000002725c      0x440 CMakeFiles/enocean_switch_nrf52840_xxAA_s140_6.0.0.dir/src/enocean.c.obj
                0x000000000002725c                enocean_packet_process
 .text.enocean_secmat_add
                0x000000000002769c       0x2c CMakeFiles/enocean_switch_nrf52840_xxAA_s140_6.0.0.dir/src/enocean.c.obj
                0x000000000002769c                enocean_secmat_add
 .text.enocean_translator_init
                0x00000000000276c8       0x1c CMakeFiles/enocean_switch_nrf52840_xxAA_s140_6.0.0.dir/src/enocean.c.obj
                0x00000000000276c8                enocean_translator_init
 .text.flash_manager_mem_available
                0x00000000000276e4       0x80 CMakeFiles/enocean_switch_nrf52840_xxAA_s140_6.0.0.dir/src/flash_helper.c.obj
 .text.flash_invalidate_complete
                0x0000000000027764       0x10 CMakeFiles/enocean_switch_nrf52840_xxAA_s140_6.0.0.dir/src/flash_helper.c.obj
 .text.flash_write_complete
                0x0000000000027774       0x98 CMakeFiles/enocean_switch_nrf52840_xxAA_s140_6.0.0.dir/src/flash_helper.c.obj
 .text.flash_reset
                0x000000000002780c       0x8c CMakeFiles/enocean_switch_nrf52840_xxAA_s140_6.0.0.dir/src/flash_helper.c.obj
 .text.app_flash_init
                0x0000000000027898       0xb8 CMakeFiles/enocean_switch_nrf52840_xxAA_s140_6.0.0.dir/src/flash_helper.c.obj
                0x0000000000027898                app_flash_init
 .text.flash_remove_complete
                0x0000000000027950       0x70 CMakeFiles/enocean_switch_nrf52840_xxAA_s140_6.0.0.dir/src/flash_helper.c.obj
 .text.app_flash_data_load
                0x00000000000279c0       0x44 CMakeFiles/enocean_switch_nrf52840_xxAA_s140_6.0.0.dir/src/flash_helper.c.obj
                0x00000000000279c0                app_flash_data_load
 .text.app_flash_data_store
                0x0000000000027a04       0xb4 CMakeFiles/enocean_switch_nrf52840_xxAA_s140_6.0.0.dir/src/flash_helper.c.obj
                0x0000000000027a04                app_flash_data_store
 .text.app_flash_clear
                0x0000000000027ab8       0x94 CMakeFiles/enocean_switch_nrf52840_xxAA_s140_6.0.0.dir/src/flash_helper.c.obj
                0x0000000000027ab8                app_flash_clear
 .text.mesh_evt_handler
                0x0000000000027b4c       0x10 CMakeFiles/enocean_switch_nrf52840_xxAA_s140_6.0.0.dir/__/__/mesh/stack/src/mesh_stack.c.obj
 .text.mesh_stack_init
                0x0000000000027b5c       0x90 CMakeFiles/enocean_switch_nrf52840_xxAA_s140_6.0.0.dir/__/__/mesh/stack/src/mesh_stack.c.obj
                0x0000000000027b5c                mesh_stack_init
 .text.mesh_stack_start
                0x0000000000027bec        0x4 CMakeFiles/enocean_switch_nrf52840_xxAA_s140_6.0.0.dir/__/__/mesh/stack/src/mesh_stack.c.obj
                0x0000000000027bec                mesh_stack_start
 .text.mesh_stack_provisioning_data_store
                0x0000000000027bf0       0x78 CMakeFiles/enocean_switch_nrf52840_xxAA_s140_6.0.0.dir/__/__/mesh/stack/src/mesh_stack.c.obj
                0x0000000000027bf0                mesh_stack_provisioning_data_store
 .text.mesh_stack_config_clear
                0x0000000000027c68       0x14 CMakeFiles/enocean_switch_nrf52840_xxAA_s140_6.0.0.dir/__/__/mesh/stack/src/mesh_stack.c.obj
                0x0000000000027c68                mesh_stack_config_clear
 .text.mesh_stack_device_reset
                0x0000000000027c7c       0x20 CMakeFiles/enocean_switch_nrf52840_xxAA_s140_6.0.0.dir/__/__/mesh/stack/src/mesh_stack.c.obj
                0x0000000000027c7c                mesh_stack_device_reset
 .text.sd_evt_get
                0x0000000000027c9c        0x4 CMakeFiles/enocean_switch_nrf52840_xxAA_s140_6.0.0.dir/__/common/src/mesh_softdevice_init.c.obj
 .text.sd_softdevice_enable
                0x0000000000027ca0        0x4 CMakeFiles/enocean_switch_nrf52840_xxAA_s140_6.0.0.dir/__/common/src/mesh_softdevice_init.c.obj
 .text.sd_ble_enable
                0x0000000000027ca4        0x4 CMakeFiles/enocean_switch_nrf52840_xxAA_s140_6.0.0.dir/__/common/src/mesh_softdevice_init.c.obj
 .text.SWI2_EGU2_IRQHandler
                0x0000000000027ca8       0x1c CMakeFiles/enocean_switch_nrf52840_xxAA_s140_6.0.0.dir/__/common/src/mesh_softdevice_init.c.obj
                0x0000000000027ca8                SWI2_EGU2_IRQHandler
 .text.mesh_softdevice_init
                0x0000000000027cc4      0x1f8 CMakeFiles/enocean_switch_nrf52840_xxAA_s140_6.0.0.dir/__/common/src/mesh_softdevice_init.c.obj
                0x0000000000027cc4                mesh_softdevice_init
 .text.prov_evt_handler
                0x0000000000027ebc       0x70 CMakeFiles/enocean_switch_nrf52840_xxAA_s140_6.0.0.dir/__/common/src/mesh_provisionee.c.obj
 .text.mesh_provisionee_prov_start
                0x0000000000027f2c       0x88 CMakeFiles/enocean_switch_nrf52840_xxAA_s140_6.0.0.dir/__/common/src/mesh_provisionee.c.obj
                0x0000000000027f2c                mesh_provisionee_prov_start
 .text.TIMER2_IRQHandler
                0x0000000000027fb4       0x3c CMakeFiles/enocean_switch_nrf52840_xxAA_s140_6.0.0.dir/__/common/src/rtt_input.c.obj
                0x0000000000027fb4                TIMER2_IRQHandler
 .text.rtt_input_enable
                0x0000000000027ff0       0x5c CMakeFiles/enocean_switch_nrf52840_xxAA_s140_6.0.0.dir/__/common/src/rtt_input.c.obj
                0x0000000000027ff0                rtt_input_enable
 .text.hal_led_pin_set
                0x000000000002804c       0x18 CMakeFiles/enocean_switch_nrf52840_xxAA_s140_6.0.0.dir/__/common/src/simple_hal.c.obj
                0x000000000002804c                hal_led_pin_set
 .text.hal_led_mask_set
                0x0000000000028064       0x14 CMakeFiles/enocean_switch_nrf52840_xxAA_s140_6.0.0.dir/__/common/src/simple_hal.c.obj
                0x0000000000028064                hal_led_mask_set
 .text.hal_led_blink_ms
                0x0000000000028078       0x50 CMakeFiles/enocean_switch_nrf52840_xxAA_s140_6.0.0.dir/__/common/src/simple_hal.c.obj
                0x0000000000028078                hal_led_blink_ms
 .text.hal_leds_init
                0x00000000000280c8       0x3c CMakeFiles/enocean_switch_nrf52840_xxAA_s140_6.0.0.dir/__/common/src/simple_hal.c.obj
                0x00000000000280c8                hal_leds_init
 .text.hal_buttons_init
                0x0000000000028104       0x54 CMakeFiles/enocean_switch_nrf52840_xxAA_s140_6.0.0.dir/__/common/src/simple_hal.c.obj
                0x0000000000028104                hal_buttons_init
 .text.GPIOTE_IRQHandler
                0x0000000000028158       0x70 CMakeFiles/enocean_switch_nrf52840_xxAA_s140_6.0.0.dir/__/common/src/simple_hal.c.obj
                0x0000000000028158                GPIOTE_IRQHandler
 .text._weak_handler
                0x00000000000281c8        0x4 CMakeFiles/enocean_switch_nrf52840_xxAA_s140_6.0.0.dir/__/nrf_mesh_weak.c.obj
                0x00000000000281c8                nrf_mesh_dfu_init
                0x00000000000281c8                nrf_mesh_dfu_jump_to_bootloader
                0x00000000000281c8                nrf_mesh_dfu_rx
                0x00000000000281c8                prov_provisioner_provision
                0x00000000000281c8                nrf_mesh_dfu_bank_info_get
                0x00000000000281c8                prov_provisioner_oob_pubkey
                0x00000000000281c8                nrf_mesh_dfu_request
                0x00000000000281c8                nrf_mesh_dfu_bank_flash
                0x00000000000281c8                _weak_handler
                0x00000000000281c8                nrf_mesh_dfu_relay
                0x00000000000281c8                nrf_mesh_dfu_abort
                0x00000000000281c8                mesh_flash_op_execute
                0x00000000000281c8                prov_provisionee_init
                0x00000000000281c8                nrf_mesh_dfu_state_get
                0x00000000000281c8                prov_provisioner_shared_secret
                0x00000000000281c8                prov_provisioner_auth_data
                0x00000000000281c8                prov_provisioner_oob_use
 .text.app_error_fault_handler
                0x00000000000281cc      0x238 CMakeFiles/enocean_switch_nrf52840_xxAA_s140_6.0.0.dir/__/common/src/app_error_weak.c.obj
                0x00000000000281cc                app_error_fault_handler
 .text.mesh_assertion_handler
                0x0000000000028404       0x24 CMakeFiles/enocean_switch_nrf52840_xxAA_s140_6.0.0.dir/__/common/src/assertion_handler_weak.c.obj
                0x0000000000028404                mesh_assertion_handler
 .text.nrf_mesh_configure_device_uuid_set
                0x0000000000028428       0x10 CMakeFiles/enocean_switch_nrf52840_xxAA_s140_6.0.0.dir/__/__/mesh/core/src/nrf_mesh_configure.c.obj
                0x0000000000028428                nrf_mesh_configure_device_uuid_set
 .text.nrf_mesh_configure_device_uuid_reset
                0x0000000000028438       0x2c CMakeFiles/enocean_switch_nrf52840_xxAA_s140_6.0.0.dir/__/__/mesh/core/src/nrf_mesh_configure.c.obj
                0x0000000000028438                nrf_mesh_configure_device_uuid_reset
 .text.nrf_mesh_configure_device_uuid_get
                0x0000000000028464        0x8 CMakeFiles/enocean_switch_nrf52840_xxAA_s140_6.0.0.dir/__/__/mesh/core/src/nrf_mesh_configure.c.obj
                0x0000000000028464                nrf_mesh_configure_device_uuid_get
 .text.sd_ecb_block_encrypt
                0x000000000002846c        0x4 CMakeFiles/enocean_switch_nrf52840_xxAA_s140_6.0.0.dir/__/__/mesh/core/src/aes.c.obj
 .text.aes_encrypt
                0x0000000000028470       0x34 CMakeFiles/enocean_switch_nrf52840_xxAA_s140_6.0.0.dir/__/__/mesh/core/src/aes.c.obj
                0x0000000000028470                aes_encrypt
 .text.msg_cache_init
                0x00000000000284a4       0x24 CMakeFiles/enocean_switch_nrf52840_xxAA_s140_6.0.0.dir/__/__/mesh/core/src/msg_cache.c.obj
                0x00000000000284a4                msg_cache_init
 .text.msg_cache_entry_exists
                0x00000000000284c8       0x40 CMakeFiles/enocean_switch_nrf52840_xxAA_s140_6.0.0.dir/__/__/mesh/core/src/msg_cache.c.obj
                0x00000000000284c8                msg_cache_entry_exists
 .text.msg_cache_entry_add
                0x0000000000028508       0x2c CMakeFiles/enocean_switch_nrf52840_xxAA_s140_6.0.0.dir/__/__/mesh/core/src/msg_cache.c.obj
                0x0000000000028508                msg_cache_entry_add
 .text.tx_complete
                0x0000000000028534       0x30 CMakeFiles/enocean_switch_nrf52840_xxAA_s140_6.0.0.dir/__/__/mesh/core/src/transport.c.obj
 .text.upper_trs_packet_encrypt
                0x0000000000028564       0xa8 CMakeFiles/enocean_switch_nrf52840_xxAA_s140_6.0.0.dir/__/__/mesh/core/src/transport.c.obj
 .text.trs_sar_packet_out
                0x000000000002860c      0x19c CMakeFiles/enocean_switch_nrf52840_xxAA_s140_6.0.0.dir/__/__/mesh/core/src/transport.c.obj
 .text.upper_transport_access_packet_in
                0x00000000000287a8      0x33c CMakeFiles/enocean_switch_nrf52840_xxAA_s140_6.0.0.dir/__/__/mesh/core/src/transport.c.obj
 .text.sar_ctx_cancel
                0x0000000000028ae4      0x148 CMakeFiles/enocean_switch_nrf52840_xxAA_s140_6.0.0.dir/__/__/mesh/core/src/transport.c.obj
 .text.retry_timeout
                0x0000000000028c2c       0x98 CMakeFiles/enocean_switch_nrf52840_xxAA_s140_6.0.0.dir/__/__/mesh/core/src/transport.c.obj
 .text.upper_transport_packet_in
                0x0000000000028cc4      0x2a4 CMakeFiles/enocean_switch_nrf52840_xxAA_s140_6.0.0.dir/__/__/mesh/core/src/transport.c.obj
 .text.upper_transport_tx.part.27
                0x0000000000028f68      0x370 CMakeFiles/enocean_switch_nrf52840_xxAA_s140_6.0.0.dir/__/__/mesh/core/src/transport.c.obj
 .text.sar_ack_send.part.31
                0x00000000000292d8       0xd4 CMakeFiles/enocean_switch_nrf52840_xxAA_s140_6.0.0.dir/__/__/mesh/core/src/transport.c.obj
 .text.transport_sar_process
                0x00000000000293ac      0x274 CMakeFiles/enocean_switch_nrf52840_xxAA_s140_6.0.0.dir/__/__/mesh/core/src/transport.c.obj
 .text.abort_timeout
                0x0000000000029620      0x138 CMakeFiles/enocean_switch_nrf52840_xxAA_s140_6.0.0.dir/__/__/mesh/core/src/transport.c.obj
 .text.ack_timeout
                0x0000000000029758       0xf8 CMakeFiles/enocean_switch_nrf52840_xxAA_s140_6.0.0.dir/__/__/mesh/core/src/transport.c.obj
 .text.transport_init
                0x0000000000029850       0xac CMakeFiles/enocean_switch_nrf52840_xxAA_s140_6.0.0.dir/__/__/mesh/core/src/transport.c.obj
                0x0000000000029850                transport_init
 .text.transport_packet_in
                0x00000000000298fc      0x778 CMakeFiles/enocean_switch_nrf52840_xxAA_s140_6.0.0.dir/__/__/mesh/core/src/transport.c.obj
                0x00000000000298fc                transport_packet_in
 .text.transport_tx
                0x000000000002a074       0xec CMakeFiles/enocean_switch_nrf52840_xxAA_s140_6.0.0.dir/__/__/mesh/core/src/transport.c.obj
                0x000000000002a074                transport_tx
 .text.transport_control_tx
                0x000000000002a160       0xc4 CMakeFiles/enocean_switch_nrf52840_xxAA_s140_6.0.0.dir/__/__/mesh/core/src/transport.c.obj
                0x000000000002a160                transport_control_tx
 .text.transport_opt_set
                0x000000000002a224       0xdc CMakeFiles/enocean_switch_nrf52840_xxAA_s140_6.0.0.dir/__/__/mesh/core/src/transport.c.obj
                0x000000000002a224                transport_opt_set
 .text.transport_opt_get
                0x000000000002a300       0x84 CMakeFiles/enocean_switch_nrf52840_xxAA_s140_6.0.0.dir/__/__/mesh/core/src/transport.c.obj
                0x000000000002a300                transport_opt_get
 .text.transport_control_packet_consumer_add
                0x000000000002a384       0x68 CMakeFiles/enocean_switch_nrf52840_xxAA_s140_6.0.0.dir/__/__/mesh/core/src/transport.c.obj
                0x000000000002a384                transport_control_packet_consumer_add
 .text.event_handle
                0x000000000002a3ec       0x28 CMakeFiles/enocean_switch_nrf52840_xxAA_s140_6.0.0.dir/__/__/mesh/core/src/event.c.obj
                0x000000000002a3ec                event_handle
 .text.event_handler_add
                0x000000000002a414       0x28 CMakeFiles/enocean_switch_nrf52840_xxAA_s140_6.0.0.dir/__/__/mesh/core/src/event.c.obj
                0x000000000002a414                event_handler_add
 .text.event_handler_remove
                0x000000000002a43c       0x28 CMakeFiles/enocean_switch_nrf52840_xxAA_s140_6.0.0.dir/__/__/mesh/core/src/event.c.obj
                0x000000000002a43c                event_handler_remove
 .text.packet_buffer_init
                0x000000000002a464       0xb4 CMakeFiles/enocean_switch_nrf52840_xxAA_s140_6.0.0.dir/__/__/mesh/core/src/packet_buffer.c.obj
                0x000000000002a464                packet_buffer_init
 .text.packet_buffer_flush
                0x000000000002a518       0x6c CMakeFiles/enocean_switch_nrf52840_xxAA_s140_6.0.0.dir/__/__/mesh/core/src/packet_buffer.c.obj
                0x000000000002a518                packet_buffer_flush
 .text.packet_buffer_reserve
                0x000000000002a584       0xa4 CMakeFiles/enocean_switch_nrf52840_xxAA_s140_6.0.0.dir/__/__/mesh/core/src/packet_buffer.c.obj
                0x000000000002a584                packet_buffer_reserve
 .text.packet_buffer_commit
                0x000000000002a628       0x7c CMakeFiles/enocean_switch_nrf52840_xxAA_s140_6.0.0.dir/__/__/mesh/core/src/packet_buffer.c.obj
                0x000000000002a628                packet_buffer_commit
 .text.packet_buffer_pop
                0x000000000002a6a4       0x44 CMakeFiles/enocean_switch_nrf52840_xxAA_s140_6.0.0.dir/__/__/mesh/core/src/packet_buffer.c.obj
                0x000000000002a6a4                packet_buffer_pop
 .text.packet_buffer_can_pop
                0x000000000002a6e8       0x24 CMakeFiles/enocean_switch_nrf52840_xxAA_s140_6.0.0.dir/__/__/mesh/core/src/packet_buffer.c.obj
                0x000000000002a6e8                packet_buffer_can_pop
 .text.packet_buffer_packets_ready_to_pop
                0x000000000002a70c       0x5c CMakeFiles/enocean_switch_nrf52840_xxAA_s140_6.0.0.dir/__/__/mesh/core/src/packet_buffer.c.obj
                0x000000000002a70c                packet_buffer_packets_ready_to_pop
 .text.packet_buffer_free
                0x000000000002a768       0x8c CMakeFiles/enocean_switch_nrf52840_xxAA_s140_6.0.0.dir/__/__/mesh/core/src/packet_buffer.c.obj
                0x000000000002a768                packet_buffer_free
 .text.erase_source
                0x000000000002a7f4       0x34 CMakeFiles/enocean_switch_nrf52840_xxAA_s140_6.0.0.dir/__/__/mesh/core/src/flash_manager_defrag.c.obj
 .text.erase_recovery_area
                0x000000000002a828       0x34 CMakeFiles/enocean_switch_nrf52840_xxAA_s140_6.0.0.dir/__/__/mesh/core/src/flash_manager_defrag.c.obj
 .text.write_back
                0x000000000002a85c       0x44 CMakeFiles/enocean_switch_nrf52840_xxAA_s140_6.0.0.dir/__/__/mesh/core/src/flash_manager_defrag.c.obj
 .text.write_defrag_start_pointer
                0x000000000002a8a0       0x38 CMakeFiles/enocean_switch_nrf52840_xxAA_s140_6.0.0.dir/__/__/mesh/core/src/flash_manager_defrag.c.obj
 .text.copy_metadata
                0x000000000002a8d8       0x58 CMakeFiles/enocean_switch_nrf52840_xxAA_s140_6.0.0.dir/__/__/mesh/core/src/flash_manager_defrag.c.obj
 .text.seal_storage_page
                0x000000000002a930       0x70 CMakeFiles/enocean_switch_nrf52840_xxAA_s140_6.0.0.dir/__/__/mesh/core/src/flash_manager_defrag.c.obj
 .text.post_process
                0x000000000002a9a0       0x64 CMakeFiles/enocean_switch_nrf52840_xxAA_s140_6.0.0.dir/__/__/mesh/core/src/flash_manager_defrag.c.obj
 .text.check_for_invalid_entries
                0x000000000002aa04       0x40 CMakeFiles/enocean_switch_nrf52840_xxAA_s140_6.0.0.dir/__/__/mesh/core/src/flash_manager_defrag.c.obj
 .text.execute_procedure_step
                0x000000000002aa44       0x98 CMakeFiles/enocean_switch_nrf52840_xxAA_s140_6.0.0.dir/__/__/mesh/core/src/flash_manager_defrag.c.obj
 .text.on_flash_op_end
                0x000000000002aadc       0x48 CMakeFiles/enocean_switch_nrf52840_xxAA_s140_6.0.0.dir/__/__/mesh/core/src/flash_manager_defrag.c.obj
 .text.invalidate_duplicate_entries
                0x000000000002ab24      0x150 CMakeFiles/enocean_switch_nrf52840_xxAA_s140_6.0.0.dir/__/__/mesh/core/src/flash_manager_defrag.c.obj
 .text.backup_entries
                0x000000000002ac74      0x1c8 CMakeFiles/enocean_switch_nrf52840_xxAA_s140_6.0.0.dir/__/__/mesh/core/src/flash_manager_defrag.c.obj
 .text.flash_manager_defrag_init
                0x000000000002ae3c       0x6c CMakeFiles/enocean_switch_nrf52840_xxAA_s140_6.0.0.dir/__/__/mesh/core/src/flash_manager_defrag.c.obj
                0x000000000002ae3c                flash_manager_defrag_init
 .text.flash_manager_defrag_is_running
                0x000000000002aea8       0x10 CMakeFiles/enocean_switch_nrf52840_xxAA_s140_6.0.0.dir/__/__/mesh/core/src/flash_manager_defrag.c.obj
                0x000000000002aea8                flash_manager_defrag_is_running
 .text.flash_manager_defrag
                0x000000000002aeb8       0x48 CMakeFiles/enocean_switch_nrf52840_xxAA_s140_6.0.0.dir/__/__/mesh/core/src/flash_manager_defrag.c.obj
                0x000000000002aeb8                flash_manager_defrag
 .text.flash_manager_defrag_recovery_page_get
                0x000000000002af00        0xc CMakeFiles/enocean_switch_nrf52840_xxAA_s140_6.0.0.dir/__/__/mesh/core/src/flash_manager_defrag.c.obj
                0x000000000002af00                flash_manager_defrag_recovery_page_get
 .text.fifo_init
                0x000000000002af0c       0x38 CMakeFiles/enocean_switch_nrf52840_xxAA_s140_6.0.0.dir/__/__/mesh/core/src/fifo.c.obj
                0x000000000002af0c                fifo_init
 .text.fifo_push
                0x000000000002af44       0x60 CMakeFiles/enocean_switch_nrf52840_xxAA_s140_6.0.0.dir/__/__/mesh/core/src/fifo.c.obj
                0x000000000002af44                fifo_push
 .text.fifo_pop
                0x000000000002afa4       0x5c CMakeFiles/enocean_switch_nrf52840_xxAA_s140_6.0.0.dir/__/__/mesh/core/src/fifo.c.obj
                0x000000000002afa4                fifo_pop
 .text.nrf_flash_erase
                0x000000000002b000       0x5c CMakeFiles/enocean_switch_nrf52840_xxAA_s140_6.0.0.dir/__/__/mesh/core/src/nrf_flash.c.obj
                0x000000000002b000                nrf_flash_erase
 .text.nrf_flash_write
                0x000000000002b05c       0x70 CMakeFiles/enocean_switch_nrf52840_xxAA_s140_6.0.0.dir/__/__/mesh/core/src/nrf_flash.c.obj
                0x000000000002b05c                nrf_flash_write
 .text.packet_mgr_init
                0x000000000002b0cc       0x48 CMakeFiles/enocean_switch_nrf52840_xxAA_s140_6.0.0.dir/__/__/mesh/core/src/packet_mgr.c.obj
                0x000000000002b0cc                packet_mgr_init
 .text.flash_store_iv_index
                0x000000000002b114       0x38 CMakeFiles/enocean_switch_nrf52840_xxAA_s140_6.0.0.dir/__/__/mesh/core/src/net_state.c.obj
 .text.flash_mem_available
                0x000000000002b14c       0x1c CMakeFiles/enocean_switch_nrf52840_xxAA_s140_6.0.0.dir/__/__/mesh/core/src/net_state.c.obj
 .text.init_flash_storage
                0x000000000002b168       0x44 CMakeFiles/enocean_switch_nrf52840_xxAA_s140_6.0.0.dir/__/__/mesh/core/src/net_state.c.obj
 .text.flash_write_complete
                0x000000000002b1ac       0x6c CMakeFiles/enocean_switch_nrf52840_xxAA_s140_6.0.0.dir/__/__/mesh/core/src/net_state.c.obj
 .text.seqnum_block_allocate
                0x000000000002b218       0x4c CMakeFiles/enocean_switch_nrf52840_xxAA_s140_6.0.0.dir/__/__/mesh/core/src/net_state.c.obj
 .text.net_state_reset
                0x000000000002b264       0x78 CMakeFiles/enocean_switch_nrf52840_xxAA_s140_6.0.0.dir/__/__/mesh/core/src/net_state.c.obj
                0x000000000002b264                net_state_reset
 .text.iv_update_trigger_if_pending
                0x000000000002b2dc      0x174 CMakeFiles/enocean_switch_nrf52840_xxAA_s140_6.0.0.dir/__/__/mesh/core/src/net_state.c.obj
 .text.iv_update_timer_handler
                0x000000000002b450       0x70 CMakeFiles/enocean_switch_nrf52840_xxAA_s140_6.0.0.dir/__/__/mesh/core/src/net_state.c.obj
 .text.mesh_evt_handler
                0x000000000002b4c0      0x104 CMakeFiles/enocean_switch_nrf52840_xxAA_s140_6.0.0.dir/__/__/mesh/core/src/net_state.c.obj
 .text.net_state_recover_from_flash
                0x000000000002b5c4      0x118 CMakeFiles/enocean_switch_nrf52840_xxAA_s140_6.0.0.dir/__/__/mesh/core/src/net_state.c.obj
                0x000000000002b5c4                net_state_recover_from_flash
 .text.net_state_flash_area_get
                0x000000000002b6dc        0xc CMakeFiles/enocean_switch_nrf52840_xxAA_s140_6.0.0.dir/__/__/mesh/core/src/net_state.c.obj
                0x000000000002b6dc                net_state_flash_area_get
 .text.net_state_init
                0x000000000002b6e8       0x94 CMakeFiles/enocean_switch_nrf52840_xxAA_s140_6.0.0.dir/__/__/mesh/core/src/net_state.c.obj
                0x000000000002b6e8                net_state_init
 .text.net_state_seqnum_alloc
                0x000000000002b77c       0xd0 CMakeFiles/enocean_switch_nrf52840_xxAA_s140_6.0.0.dir/__/__/mesh/core/src/net_state.c.obj
                0x000000000002b77c                net_state_seqnum_alloc
 .text.net_state_iv_index_lock
                0x000000000002b84c      0x188 CMakeFiles/enocean_switch_nrf52840_xxAA_s140_6.0.0.dir/__/__/mesh/core/src/net_state.c.obj
                0x000000000002b84c                net_state_iv_index_lock
 .text.net_state_key_refresh_phase_changed
                0x000000000002b9d4       0x20 CMakeFiles/enocean_switch_nrf52840_xxAA_s140_6.0.0.dir/__/__/mesh/core/src/net_state.c.obj
                0x000000000002b9d4                net_state_key_refresh_phase_changed
 .text.net_state_beacon_iv_index_get
                0x000000000002b9f4        0xc CMakeFiles/enocean_switch_nrf52840_xxAA_s140_6.0.0.dir/__/__/mesh/core/src/net_state.c.obj
                0x000000000002b9f4                net_state_beacon_iv_index_get
 .text.net_state_tx_iv_index_get
                0x000000000002ba00       0x14 CMakeFiles/enocean_switch_nrf52840_xxAA_s140_6.0.0.dir/__/__/mesh/core/src/net_state.c.obj
                0x000000000002ba00                net_state_tx_iv_index_get
 .text.net_state_rx_iv_index_get
                0x000000000002ba14       0x18 CMakeFiles/enocean_switch_nrf52840_xxAA_s140_6.0.0.dir/__/__/mesh/core/src/net_state.c.obj
                0x000000000002ba14                net_state_rx_iv_index_get
 .text.net_state_iv_update_get
                0x000000000002ba2c        0xc CMakeFiles/enocean_switch_nrf52840_xxAA_s140_6.0.0.dir/__/__/mesh/core/src/net_state.c.obj
                0x000000000002ba2c                net_state_iv_update_get
 .text.net_state_iv_index_set
                0x000000000002ba38       0x88 CMakeFiles/enocean_switch_nrf52840_xxAA_s140_6.0.0.dir/__/__/mesh/core/src/net_state.c.obj
                0x000000000002ba38                net_state_iv_index_set
 .text.send_end_events
                0x000000000002bac0       0x98 CMakeFiles/enocean_switch_nrf52840_xxAA_s140_6.0.0.dir/__/__/mesh/core/src/mesh_flash.c.obj
 .text.flash_op_start
                0x000000000002bb58      0x214 CMakeFiles/enocean_switch_nrf52840_xxAA_s140_6.0.0.dir/__/__/mesh/core/src/mesh_flash.c.obj
 .text.mesh_flash_init
                0x000000000002bd6c       0x78 CMakeFiles/enocean_switch_nrf52840_xxAA_s140_6.0.0.dir/__/__/mesh/core/src/mesh_flash.c.obj
                0x000000000002bd6c                mesh_flash_init
 .text.mesh_flash_user_callback_set
                0x000000000002bde4       0x20 CMakeFiles/enocean_switch_nrf52840_xxAA_s140_6.0.0.dir/__/__/mesh/core/src/mesh_flash.c.obj
                0x000000000002bde4                mesh_flash_user_callback_set
 .text.mesh_flash_op_push
                0x000000000002be04      0x198 CMakeFiles/enocean_switch_nrf52840_xxAA_s140_6.0.0.dir/__/__/mesh/core/src/mesh_flash.c.obj
                0x000000000002be04                mesh_flash_op_push
 .text.nrf_mesh_address_type_get
                0x000000000002bf9c       0x10 CMakeFiles/enocean_switch_nrf52840_xxAA_s140_6.0.0.dir/__/__/mesh/core/src/nrf_mesh_utils.c.obj
                0x000000000002bf9c                nrf_mesh_address_type_get
 .text.sd_softdevice_is_enabled
                0x000000000002bfac        0x4 CMakeFiles/enocean_switch_nrf52840_xxAA_s140_6.0.0.dir/__/__/mesh/core/src/nrf_mesh.c.obj
 .text.nrf_mesh_listen
                0x000000000002bfb0      0x184 CMakeFiles/enocean_switch_nrf52840_xxAA_s140_6.0.0.dir/__/__/mesh/core/src/nrf_mesh.c.obj
 .text.flash_stable_cb
                0x000000000002c134       0x20 CMakeFiles/enocean_switch_nrf52840_xxAA_s140_6.0.0.dir/__/__/mesh/core/src/nrf_mesh.c.obj
 .text.scanner_packet_process_cb
                0x000000000002c154       0x88 CMakeFiles/enocean_switch_nrf52840_xxAA_s140_6.0.0.dir/__/__/mesh/core/src/nrf_mesh.c.obj
 .text.nrf_mesh_init
                0x000000000002c1dc       0xe4 CMakeFiles/enocean_switch_nrf52840_xxAA_s140_6.0.0.dir/__/__/mesh/core/src/nrf_mesh.c.obj
                0x000000000002c1dc                nrf_mesh_init
 .text.nrf_mesh_enable
                0x000000000002c2c0       0x48 CMakeFiles/enocean_switch_nrf52840_xxAA_s140_6.0.0.dir/__/__/mesh/core/src/nrf_mesh.c.obj
                0x000000000002c2c0                nrf_mesh_enable
 .text.nrf_mesh_packet_send
                0x000000000002c308       0x94 CMakeFiles/enocean_switch_nrf52840_xxAA_s140_6.0.0.dir/__/__/mesh/core/src/nrf_mesh.c.obj
                0x000000000002c308                nrf_mesh_packet_send
 .text.nrf_mesh_evt_handler_add
                0x000000000002c39c        0x4 CMakeFiles/enocean_switch_nrf52840_xxAA_s140_6.0.0.dir/__/__/mesh/core/src/nrf_mesh.c.obj
                0x000000000002c39c                nrf_mesh_evt_handler_add
 .text.nrf_mesh_on_sd_evt
                0x000000000002c3a0        0xc CMakeFiles/enocean_switch_nrf52840_xxAA_s140_6.0.0.dir/__/__/mesh/core/src/nrf_mesh.c.obj
                0x000000000002c3a0                nrf_mesh_on_sd_evt
 .text.nrf_mesh_rx_cb_set
                0x000000000002c3ac        0xc CMakeFiles/enocean_switch_nrf52840_xxAA_s140_6.0.0.dir/__/__/mesh/core/src/nrf_mesh.c.obj
                0x000000000002c3ac                nrf_mesh_rx_cb_set
 .text.nrf_mesh_subnet_added
                0x000000000002c3b8        0x4 CMakeFiles/enocean_switch_nrf52840_xxAA_s140_6.0.0.dir/__/__/mesh/core/src/nrf_mesh.c.obj
                0x000000000002c3b8                nrf_mesh_subnet_added
 .text.queue_init
                0x000000000002c3bc       0x1c CMakeFiles/enocean_switch_nrf52840_xxAA_s140_6.0.0.dir/__/__/mesh/core/src/queue.c.obj
                0x000000000002c3bc                queue_init
 .text.queue_push
                0x000000000002c3d8       0x3c CMakeFiles/enocean_switch_nrf52840_xxAA_s140_6.0.0.dir/__/__/mesh/core/src/queue.c.obj
                0x000000000002c3d8                queue_push
 .text.queue_pop
                0x000000000002c414       0x2c CMakeFiles/enocean_switch_nrf52840_xxAA_s140_6.0.0.dir/__/__/mesh/core/src/queue.c.obj
                0x000000000002c414                queue_pop
 .text.queue_peek
                0x000000000002c440       0x14 CMakeFiles/enocean_switch_nrf52840_xxAA_s140_6.0.0.dir/__/__/mesh/core/src/queue.c.obj
                0x000000000002c440                queue_peek
 .text.sd_power_reset_reason_clr
                0x000000000002c454        0x4 CMakeFiles/enocean_switch_nrf52840_xxAA_s140_6.0.0.dir/__/__/mesh/core/src/hal.c.obj
 .text.hal_device_reset
                0x000000000002c458       0x2c CMakeFiles/enocean_switch_nrf52840_xxAA_s140_6.0.0.dir/__/__/mesh/core/src/hal.c.obj
                0x000000000002c458                hal_device_reset
 .text.hal_lfclk_ppm_get
                0x000000000002c484       0x14 CMakeFiles/enocean_switch_nrf52840_xxAA_s140_6.0.0.dir/__/__/mesh/core/src/hal.c.obj
                0x000000000002c484                hal_lfclk_ppm_get
 .text.aes_cmac_subkey_generate
                0x000000000002c498      0x294 CMakeFiles/enocean_switch_nrf52840_xxAA_s140_6.0.0.dir/__/__/mesh/core/src/aes_cmac.c.obj
                0x000000000002c498                aes_cmac_subkey_generate
 .text.aes_cmac
                0x000000000002c72c      0x4b8 CMakeFiles/enocean_switch_nrf52840_xxAA_s140_6.0.0.dir/__/__/mesh/core/src/aes_cmac.c.obj
                0x000000000002c72c                aes_cmac
 .text.timer_cb
                0x000000000002cbe4        0xc CMakeFiles/enocean_switch_nrf52840_xxAA_s140_6.0.0.dir/__/__/mesh/core/src/timer_scheduler.c.obj
 .text.add_evt.constprop.1
                0x000000000002cbf0       0x60 CMakeFiles/enocean_switch_nrf52840_xxAA_s140_6.0.0.dir/__/__/mesh/core/src/timer_scheduler.c.obj
 .text.flag_event_cb
                0x000000000002cc50      0x2f0 CMakeFiles/enocean_switch_nrf52840_xxAA_s140_6.0.0.dir/__/__/mesh/core/src/timer_scheduler.c.obj
 .text.timer_sch_init
                0x000000000002cf40       0x24 CMakeFiles/enocean_switch_nrf52840_xxAA_s140_6.0.0.dir/__/__/mesh/core/src/timer_scheduler.c.obj
                0x000000000002cf40                timer_sch_init
 .text.timer_sch_schedule
                0x000000000002cf64       0x68 CMakeFiles/enocean_switch_nrf52840_xxAA_s140_6.0.0.dir/__/__/mesh/core/src/timer_scheduler.c.obj
                0x000000000002cf64                timer_sch_schedule
 .text.timer_sch_abort
                0x000000000002cfcc       0x5c CMakeFiles/enocean_switch_nrf52840_xxAA_s140_6.0.0.dir/__/__/mesh/core/src/timer_scheduler.c.obj
                0x000000000002cfcc                timer_sch_abort
 .text.timer_sch_reschedule
                0x000000000002d028       0x90 CMakeFiles/enocean_switch_nrf52840_xxAA_s140_6.0.0.dir/__/__/mesh/core/src/timer_scheduler.c.obj
                0x000000000002d028                timer_sch_reschedule
 .text.timer_event_handler
                0x000000000002d0b8       0xd0 CMakeFiles/enocean_switch_nrf52840_xxAA_s140_6.0.0.dir/__/__/mesh/core/src/timer.c.obj
                0x000000000002d0b8                timer_event_handler
 .text.timer_order_cb
                0x000000000002d188       0x9c CMakeFiles/enocean_switch_nrf52840_xxAA_s140_6.0.0.dir/__/__/mesh/core/src/timer.c.obj
                0x000000000002d188                timer_order_cb
 .text.timer_now
                0x000000000002d224       0x58 CMakeFiles/enocean_switch_nrf52840_xxAA_s140_6.0.0.dir/__/__/mesh/core/src/timer.c.obj
                0x000000000002d224                timer_now
 .text.timer_on_ts_begin
                0x000000000002d27c      0x100 CMakeFiles/enocean_switch_nrf52840_xxAA_s140_6.0.0.dir/__/__/mesh/core/src/timer.c.obj
                0x000000000002d27c                timer_on_ts_begin
 .text.timer_on_ts_end
                0x000000000002d37c       0x78 CMakeFiles/enocean_switch_nrf52840_xxAA_s140_6.0.0.dir/__/__/mesh/core/src/timer.c.obj
                0x000000000002d37c                timer_on_ts_end
 .text.timer_cb
                0x000000000002d3f4       0x10 CMakeFiles/enocean_switch_nrf52840_xxAA_s140_6.0.0.dir/__/__/mesh/core/src/ticker.c.obj
 .text.ticker_init
                0x000000000002d404       0x3c CMakeFiles/enocean_switch_nrf52840_xxAA_s140_6.0.0.dir/__/__/mesh/core/src/ticker.c.obj
                0x000000000002d404                ticker_init
 .text.sd_rand_application_bytes_available_get
                0x000000000002d440        0x4 CMakeFiles/enocean_switch_nrf52840_xxAA_s140_6.0.0.dir/__/__/mesh/core/src/rand.c.obj
 .text.sd_rand_application_vector_get
                0x000000000002d444        0x4 CMakeFiles/enocean_switch_nrf52840_xxAA_s140_6.0.0.dir/__/__/mesh/core/src/rand.c.obj
 .text.rand_prng_seed
                0x000000000002d448       0x78 CMakeFiles/enocean_switch_nrf52840_xxAA_s140_6.0.0.dir/__/__/mesh/core/src/rand.c.obj
                0x000000000002d448                rand_prng_seed
 .text.rand_prng_get
                0x000000000002d4c0       0x28 CMakeFiles/enocean_switch_nrf52840_xxAA_s140_6.0.0.dir/__/__/mesh/core/src/rand.c.obj
                0x000000000002d4c0                rand_prng_get
 .text.rand_hw_rng_get
                0x000000000002d4e8       0x60 CMakeFiles/enocean_switch_nrf52840_xxAA_s140_6.0.0.dir/__/__/mesh/core/src/rand.c.obj
                0x000000000002d4e8                rand_hw_rng_get
 .text.nrf_mesh_opt_set
                0x000000000002d548       0x28 CMakeFiles/enocean_switch_nrf52840_xxAA_s140_6.0.0.dir/__/__/mesh/core/src/nrf_mesh_opt.c.obj
                0x000000000002d548                nrf_mesh_opt_set
 .text.nrf_mesh_opt_get
                0x000000000002d570       0x28 CMakeFiles/enocean_switch_nrf52840_xxAA_s140_6.0.0.dir/__/__/mesh/core/src/nrf_mesh_opt.c.obj
                0x000000000002d570                nrf_mesh_opt_get
 .text.sd_radio_session_open
                0x000000000002d598        0x4 CMakeFiles/enocean_switch_nrf52840_xxAA_s140_6.0.0.dir/__/__/mesh/core/src/timeslot.c.obj
 .text.sd_radio_session_close
                0x000000000002d59c        0x4 CMakeFiles/enocean_switch_nrf52840_xxAA_s140_6.0.0.dir/__/__/mesh/core/src/timeslot.c.obj
 .text.sd_radio_request
                0x000000000002d5a0        0x4 CMakeFiles/enocean_switch_nrf52840_xxAA_s140_6.0.0.dir/__/__/mesh/core/src/timeslot.c.obj
 .text.end_timer_handler
                0x000000000002d5a4       0x2c CMakeFiles/enocean_switch_nrf52840_xxAA_s140_6.0.0.dir/__/__/mesh/core/src/timeslot.c.obj
 .text.radio_signal_callback
                0x000000000002d5d0      0x2b4 CMakeFiles/enocean_switch_nrf52840_xxAA_s140_6.0.0.dir/__/__/mesh/core/src/timeslot.c.obj
 .text.timeslot_sd_event_handler
                0x000000000002d884       0x44 CMakeFiles/enocean_switch_nrf52840_xxAA_s140_6.0.0.dir/__/__/mesh/core/src/timeslot.c.obj
                0x000000000002d884                timeslot_sd_event_handler
 .text.timeslot_init
                0x000000000002d8c8       0x4c CMakeFiles/enocean_switch_nrf52840_xxAA_s140_6.0.0.dir/__/__/mesh/core/src/timeslot.c.obj
                0x000000000002d8c8                timeslot_init
 .text.timeslot_start
                0x000000000002d914       0x20 CMakeFiles/enocean_switch_nrf52840_xxAA_s140_6.0.0.dir/__/__/mesh/core/src/timeslot.c.obj
                0x000000000002d914                timeslot_start
 .text.timeslot_stop
                0x000000000002d934       0x30 CMakeFiles/enocean_switch_nrf52840_xxAA_s140_6.0.0.dir/__/__/mesh/core/src/timeslot.c.obj
                0x000000000002d934                timeslot_stop
 .text.timeslot_state_lock
                0x000000000002d964       0x44 CMakeFiles/enocean_switch_nrf52840_xxAA_s140_6.0.0.dir/__/__/mesh/core/src/timeslot.c.obj
                0x000000000002d964                timeslot_state_lock
 .text.timeslot_end_is_pending
                0x000000000002d9a8       0x24 CMakeFiles/enocean_switch_nrf52840_xxAA_s140_6.0.0.dir/__/__/mesh/core/src/timeslot.c.obj
                0x000000000002d9a8                timeslot_end_is_pending
 .text.timeslot_start_time_get
                0x000000000002d9cc        0xc CMakeFiles/enocean_switch_nrf52840_xxAA_s140_6.0.0.dir/__/__/mesh/core/src/timeslot.c.obj
                0x000000000002d9cc                timeslot_start_time_get
 .text.timeslot_remaining_time_get
                0x000000000002d9d8       0x40 CMakeFiles/enocean_switch_nrf52840_xxAA_s140_6.0.0.dir/__/__/mesh/core/src/timeslot.c.obj
                0x000000000002d9d8                timeslot_remaining_time_get
 .text.timeslot_is_in_cb
                0x000000000002da18        0xc CMakeFiles/enocean_switch_nrf52840_xxAA_s140_6.0.0.dir/__/__/mesh/core/src/timeslot.c.obj
                0x000000000002da18                timeslot_is_in_cb
 .text.timeslot_trigger
                0x000000000002da24       0x24 CMakeFiles/enocean_switch_nrf52840_xxAA_s140_6.0.0.dir/__/__/mesh/core/src/timeslot.c.obj
                0x000000000002da24                timeslot_trigger
 .text.bearer_event_init
                0x000000000002da48       0x4c CMakeFiles/enocean_switch_nrf52840_xxAA_s140_6.0.0.dir/__/__/mesh/core/src/bearer_event.c.obj
                0x000000000002da48                bearer_event_init
 .text.bearer_event_timer_post
                0x000000000002da94       0x50 CMakeFiles/enocean_switch_nrf52840_xxAA_s140_6.0.0.dir/__/__/mesh/core/src/bearer_event.c.obj
                0x000000000002da94                bearer_event_timer_post
 .text.bearer_event_critical_section_begin
                0x000000000002dae4       0x44 CMakeFiles/enocean_switch_nrf52840_xxAA_s140_6.0.0.dir/__/__/mesh/core/src/bearer_event.c.obj
                0x000000000002dae4                bearer_event_critical_section_begin
 .text.bearer_event_critical_section_end
                0x000000000002db28       0x40 CMakeFiles/enocean_switch_nrf52840_xxAA_s140_6.0.0.dir/__/__/mesh/core/src/bearer_event.c.obj
                0x000000000002db28                bearer_event_critical_section_end
 .text.bearer_event_flag_add
                0x000000000002db68       0x40 CMakeFiles/enocean_switch_nrf52840_xxAA_s140_6.0.0.dir/__/__/mesh/core/src/bearer_event.c.obj
                0x000000000002db68                bearer_event_flag_add
 .text.bearer_event_flag_set
                0x000000000002dba8       0x5c CMakeFiles/enocean_switch_nrf52840_xxAA_s140_6.0.0.dir/__/__/mesh/core/src/bearer_event.c.obj
                0x000000000002dba8                bearer_event_flag_set
 .text.bearer_event_sequential_add
                0x000000000002dc04       0x34 CMakeFiles/enocean_switch_nrf52840_xxAA_s140_6.0.0.dir/__/__/mesh/core/src/bearer_event.c.obj
                0x000000000002dc04                bearer_event_sequential_add
 .text.bearer_event_sequential_post
                0x000000000002dc38       0x64 CMakeFiles/enocean_switch_nrf52840_xxAA_s140_6.0.0.dir/__/__/mesh/core/src/bearer_event.c.obj
                0x000000000002dc38                bearer_event_sequential_post
 .text.bearer_event_sequential_pending
                0x000000000002dc9c       0x14 CMakeFiles/enocean_switch_nrf52840_xxAA_s140_6.0.0.dir/__/__/mesh/core/src/bearer_event.c.obj
                0x000000000002dc9c                bearer_event_sequential_pending
 .text.bearer_event_handler
                0x000000000002dcb0      0x16c CMakeFiles/enocean_switch_nrf52840_xxAA_s140_6.0.0.dir/__/__/mesh/core/src/bearer_event.c.obj
                0x000000000002dcb0                bearer_event_handler
 .text.QDEC_IRQHandler
                0x000000000002de1c        0x4 CMakeFiles/enocean_switch_nrf52840_xxAA_s140_6.0.0.dir/__/__/mesh/core/src/bearer_event.c.obj
                0x000000000002de1c                QDEC_IRQHandler
 .text.enc_aes_encrypt
                0x000000000002de20        0x4 CMakeFiles/enocean_switch_nrf52840_xxAA_s140_6.0.0.dir/__/__/mesh/core/src/enc.c.obj
                0x000000000002de20                enc_aes_encrypt
 .text.enc_aes_cmac
                0x000000000002de24        0x4 CMakeFiles/enocean_switch_nrf52840_xxAA_s140_6.0.0.dir/__/__/mesh/core/src/enc.c.obj
                0x000000000002de24                enc_aes_cmac
 .text.enc_aes_ccm_encrypt
                0x000000000002de28        0x4 CMakeFiles/enocean_switch_nrf52840_xxAA_s140_6.0.0.dir/__/__/mesh/core/src/enc.c.obj
                0x000000000002de28                enc_aes_ccm_encrypt
 .text.enc_aes_ccm_decrypt
                0x000000000002de2c        0x4 CMakeFiles/enocean_switch_nrf52840_xxAA_s140_6.0.0.dir/__/__/mesh/core/src/enc.c.obj
                0x000000000002de2c                enc_aes_ccm_decrypt
 .text.enc_nonce_generate
                0x000000000002de30       0xc8 CMakeFiles/enocean_switch_nrf52840_xxAA_s140_6.0.0.dir/__/__/mesh/core/src/enc.c.obj
                0x000000000002de30                enc_nonce_generate
 .text.enc_s1   0x000000000002def8       0x30 CMakeFiles/enocean_switch_nrf52840_xxAA_s140_6.0.0.dir/__/__/mesh/core/src/enc.c.obj
                0x000000000002def8                enc_s1
 .text.enc_k1   0x000000000002df28       0x40 CMakeFiles/enocean_switch_nrf52840_xxAA_s140_6.0.0.dir/__/__/mesh/core/src/enc.c.obj
                0x000000000002df28                enc_k1
 .text.enc_k2   0x000000000002df68       0xe0 CMakeFiles/enocean_switch_nrf52840_xxAA_s140_6.0.0.dir/__/__/mesh/core/src/enc.c.obj
                0x000000000002df68                enc_k2
 .text.enc_k3   0x000000000002e048       0x68 CMakeFiles/enocean_switch_nrf52840_xxAA_s140_6.0.0.dir/__/__/mesh/core/src/enc.c.obj
                0x000000000002e048                enc_k3
 .text.enc_k4   0x000000000002e0b0       0x60 CMakeFiles/enocean_switch_nrf52840_xxAA_s140_6.0.0.dir/__/__/mesh/core/src/enc.c.obj
                0x000000000002e0b0                enc_k4
 .text.network_init
                0x000000000002e110       0x28 CMakeFiles/enocean_switch_nrf52840_xxAA_s140_6.0.0.dir/__/__/mesh/core/src/network.c.obj
                0x000000000002e110                network_init
 .text.network_opt_set
                0x000000000002e138       0x84 CMakeFiles/enocean_switch_nrf52840_xxAA_s140_6.0.0.dir/__/__/mesh/core/src/network.c.obj
                0x000000000002e138                network_opt_set
 .text.network_opt_get
                0x000000000002e1bc       0x5c CMakeFiles/enocean_switch_nrf52840_xxAA_s140_6.0.0.dir/__/__/mesh/core/src/network.c.obj
                0x000000000002e1bc                network_opt_get
 .text.network_packet_alloc
                0x000000000002e218       0xa0 CMakeFiles/enocean_switch_nrf52840_xxAA_s140_6.0.0.dir/__/__/mesh/core/src/network.c.obj
                0x000000000002e218                network_packet_alloc
 .text.network_packet_send
                0x000000000002e2b8       0x58 CMakeFiles/enocean_switch_nrf52840_xxAA_s140_6.0.0.dir/__/__/mesh/core/src/network.c.obj
                0x000000000002e2b8                network_packet_send
 .text.network_packet_in
                0x000000000002e310      0x1c8 CMakeFiles/enocean_switch_nrf52840_xxAA_s140_6.0.0.dir/__/__/mesh/core/src/network.c.obj
                0x000000000002e310                network_packet_in
 .text.net_packet_decrypt
                0x000000000002e4d8      0x2bc CMakeFiles/enocean_switch_nrf52840_xxAA_s140_6.0.0.dir/__/__/mesh/core/src/net_packet.c.obj
                0x000000000002e4d8                net_packet_decrypt
 .text.net_packet_encrypt
                0x000000000002e794      0x100 CMakeFiles/enocean_switch_nrf52840_xxAA_s140_6.0.0.dir/__/__/mesh/core/src/net_packet.c.obj
                0x000000000002e794                net_packet_encrypt
 .text.net_packet_header_set
                0x000000000002e894       0xc0 CMakeFiles/enocean_switch_nrf52840_xxAA_s140_6.0.0.dir/__/__/mesh/core/src/net_packet.c.obj
                0x000000000002e894                net_packet_header_set
 .text.net_packet_payload_len_get
                0x000000000002e954       0x14 CMakeFiles/enocean_switch_nrf52840_xxAA_s140_6.0.0.dir/__/__/mesh/core/src/net_packet.c.obj
                0x000000000002e954                net_packet_payload_len_get
 .text.net_packet_from_payload
                0x000000000002e968        0x4 CMakeFiles/enocean_switch_nrf52840_xxAA_s140_6.0.0.dir/__/__/mesh/core/src/net_packet.c.obj
                0x000000000002e968                net_packet_from_payload
 .text.net_packet_obfuscation_start_get
                0x000000000002e96c        0x4 CMakeFiles/enocean_switch_nrf52840_xxAA_s140_6.0.0.dir/__/__/mesh/core/src/net_packet.c.obj
                0x000000000002e96c                net_packet_obfuscation_start_get
 .text.msq_init
                0x000000000002e970       0x6c CMakeFiles/enocean_switch_nrf52840_xxAA_s140_6.0.0.dir/__/__/mesh/core/src/msqueue.c.obj
                0x000000000002e970                msq_init
 .text.msq_get  0x000000000002e9dc       0x54 CMakeFiles/enocean_switch_nrf52840_xxAA_s140_6.0.0.dir/__/__/mesh/core/src/msqueue.c.obj
                0x000000000002e9dc                msq_get
 .text.msq_move
                0x000000000002ea30       0x4c CMakeFiles/enocean_switch_nrf52840_xxAA_s140_6.0.0.dir/__/__/mesh/core/src/msqueue.c.obj
                0x000000000002ea30                msq_move
 .text.msq_available
                0x000000000002ea7c       0x44 CMakeFiles/enocean_switch_nrf52840_xxAA_s140_6.0.0.dir/__/__/mesh/core/src/msqueue.c.obj
                0x000000000002ea7c                msq_available
 .text.nrf_mesh_keygen_aid
                0x000000000002eac0       0x18 CMakeFiles/enocean_switch_nrf52840_xxAA_s140_6.0.0.dir/__/__/mesh/core/src/nrf_mesh_keygen.c.obj
                0x000000000002eac0                nrf_mesh_keygen_aid
 .text.nrf_mesh_keygen_network_secmat
                0x000000000002ead8       0x24 CMakeFiles/enocean_switch_nrf52840_xxAA_s140_6.0.0.dir/__/__/mesh/core/src/nrf_mesh_keygen.c.obj
                0x000000000002ead8                nrf_mesh_keygen_network_secmat
 .text.nrf_mesh_keygen_beacon_secmat
                0x000000000002eafc       0x50 CMakeFiles/enocean_switch_nrf52840_xxAA_s140_6.0.0.dir/__/__/mesh/core/src/nrf_mesh_keygen.c.obj
                0x000000000002eafc                nrf_mesh_keygen_beacon_secmat
 .text.nrf_mesh_keygen_virtual_address
                0x000000000002eb4c       0x50 CMakeFiles/enocean_switch_nrf52840_xxAA_s140_6.0.0.dir/__/__/mesh/core/src/nrf_mesh_keygen.c.obj
                0x000000000002eb4c                nrf_mesh_keygen_virtual_address
 .text.list_add
                0x000000000002eb9c       0x64 CMakeFiles/enocean_switch_nrf52840_xxAA_s140_6.0.0.dir/__/__/mesh/core/src/list.c.obj
                0x000000000002eb9c                list_add
 .text.list_remove
                0x000000000002ec00       0x44 CMakeFiles/enocean_switch_nrf52840_xxAA_s140_6.0.0.dir/__/__/mesh/core/src/list.c.obj
                0x000000000002ec00                list_remove
 .text.list_compare_add
                0x000000000002ec44       0x80 CMakeFiles/enocean_switch_nrf52840_xxAA_s140_6.0.0.dir/__/__/mesh/core/src/list.c.obj
                0x000000000002ec44                list_compare_add
 .text.log_callback_rtt
                0x000000000002ecc4       0x2c CMakeFiles/enocean_switch_nrf52840_xxAA_s140_6.0.0.dir/__/__/mesh/core/src/log.c.obj
                0x000000000002ecc4                log_callback_rtt
 .text.log_init
                0x000000000002ecf0       0x20 CMakeFiles/enocean_switch_nrf52840_xxAA_s140_6.0.0.dir/__/__/mesh/core/src/log.c.obj
                0x000000000002ecf0                log_init
 .text.log_printf
                0x000000000002ed10       0x20 CMakeFiles/enocean_switch_nrf52840_xxAA_s140_6.0.0.dir/__/__/mesh/core/src/log.c.obj
                0x000000000002ed10                log_printf
 .text.process_action_queue
                0x000000000002ed30      0x794 CMakeFiles/enocean_switch_nrf52840_xxAA_s140_6.0.0.dir/__/__/mesh/core/src/flash_manager.c.obj
 .text.flash_op_ended_callback
                0x000000000002f4c4       0x24 CMakeFiles/enocean_switch_nrf52840_xxAA_s140_6.0.0.dir/__/__/mesh/core/src/flash_manager.c.obj
 .text.flash_manager_init
                0x000000000002f4e8       0x68 CMakeFiles/enocean_switch_nrf52840_xxAA_s140_6.0.0.dir/__/__/mesh/core/src/flash_manager.c.obj
                0x000000000002f4e8                flash_manager_init
 .text.flash_manager_remove
                0x000000000002f550       0x6c CMakeFiles/enocean_switch_nrf52840_xxAA_s140_6.0.0.dir/__/__/mesh/core/src/flash_manager.c.obj
                0x000000000002f550                flash_manager_remove
 .text.flash_manager_entry_get
                0x000000000002f5bc       0x48 CMakeFiles/enocean_switch_nrf52840_xxAA_s140_6.0.0.dir/__/__/mesh/core/src/flash_manager.c.obj
                0x000000000002f5bc                flash_manager_entry_get
 .text.flash_manager_entry_next_get
                0x000000000002f604      0x144 CMakeFiles/enocean_switch_nrf52840_xxAA_s140_6.0.0.dir/__/__/mesh/core/src/flash_manager.c.obj
                0x000000000002f604                flash_manager_entry_next_get
 .text.flash_manager_entry_alloc
                0x000000000002f748       0x80 CMakeFiles/enocean_switch_nrf52840_xxAA_s140_6.0.0.dir/__/__/mesh/core/src/flash_manager.c.obj
                0x000000000002f748                flash_manager_entry_alloc
 .text.flash_manager_entry_commit
                0x000000000002f7c8       0x58 CMakeFiles/enocean_switch_nrf52840_xxAA_s140_6.0.0.dir/__/__/mesh/core/src/flash_manager.c.obj
                0x000000000002f7c8                flash_manager_entry_commit
 .text.flash_manager_entry_invalidate
                0x000000000002f820       0x98 CMakeFiles/enocean_switch_nrf52840_xxAA_s140_6.0.0.dir/__/__/mesh/core/src/flash_manager.c.obj
                0x000000000002f820                flash_manager_entry_invalidate
 .text.flash_manager_add
                0x000000000002f8b8      0x3f4 CMakeFiles/enocean_switch_nrf52840_xxAA_s140_6.0.0.dir/__/__/mesh/core/src/flash_manager.c.obj
                0x000000000002f8b8                flash_manager_add
 .text.flash_manager_mem_listener_register
                0x000000000002fcac       0x38 CMakeFiles/enocean_switch_nrf52840_xxAA_s140_6.0.0.dir/__/__/mesh/core/src/flash_manager.c.obj
                0x000000000002fcac                flash_manager_mem_listener_register
 .text.flash_manager_is_stable
                0x000000000002fce4       0x20 CMakeFiles/enocean_switch_nrf52840_xxAA_s140_6.0.0.dir/__/__/mesh/core/src/flash_manager.c.obj
                0x000000000002fce4                flash_manager_is_stable
 .text.flash_manager_on_defrag_end
                0x000000000002fd04       0x58 CMakeFiles/enocean_switch_nrf52840_xxAA_s140_6.0.0.dir/__/__/mesh/core/src/flash_manager.c.obj
                0x000000000002fd04                flash_manager_on_defrag_end
 .text.flash_manager_recovery_page_get
                0x000000000002fd5c        0x4 CMakeFiles/enocean_switch_nrf52840_xxAA_s140_6.0.0.dir/__/__/mesh/core/src/flash_manager.c.obj
                0x000000000002fd5c                flash_manager_recovery_page_get
 .text.flash_manager_action_queue_empty_cb_set
                0x000000000002fd60       0x20 CMakeFiles/enocean_switch_nrf52840_xxAA_s140_6.0.0.dir/__/__/mesh/core/src/flash_manager.c.obj
                0x000000000002fd60                flash_manager_action_queue_empty_cb_set
 .text.ccm_soft_crypt.constprop.0
                0x000000000002fd80      0x274 CMakeFiles/enocean_switch_nrf52840_xxAA_s140_6.0.0.dir/__/__/mesh/core/src/ccm_soft.c.obj
 .text.ccm_soft_authenticate
                0x000000000002fff4      0x308 CMakeFiles/enocean_switch_nrf52840_xxAA_s140_6.0.0.dir/__/__/mesh/core/src/ccm_soft.c.obj
 .text.ccm_soft_encrypt
                0x00000000000302fc       0x7c CMakeFiles/enocean_switch_nrf52840_xxAA_s140_6.0.0.dir/__/__/mesh/core/src/ccm_soft.c.obj
                0x00000000000302fc                ccm_soft_encrypt
 .text.ccm_soft_decrypt
                0x0000000000030378      0x114 CMakeFiles/enocean_switch_nrf52840_xxAA_s140_6.0.0.dir/__/__/mesh/core/src/ccm_soft.c.obj
                0x0000000000030378                ccm_soft_decrypt
 .text.replay_cache_init
                0x000000000003048c       0x20 CMakeFiles/enocean_switch_nrf52840_xxAA_s140_6.0.0.dir/__/__/mesh/core/src/replay_cache.c.obj
                0x000000000003048c                replay_cache_init
 .text.replay_cache_add
                0x00000000000304ac       0x60 CMakeFiles/enocean_switch_nrf52840_xxAA_s140_6.0.0.dir/__/__/mesh/core/src/replay_cache.c.obj
                0x00000000000304ac                replay_cache_add
 .text.replay_cache_has_elem
                0x000000000003050c       0x40 CMakeFiles/enocean_switch_nrf52840_xxAA_s140_6.0.0.dir/__/__/mesh/core/src/replay_cache.c.obj
                0x000000000003050c                replay_cache_has_elem
 .text.beacon_create
                0x000000000003054c       0x50 CMakeFiles/enocean_switch_nrf52840_xxAA_s140_6.0.0.dir/__/__/mesh/core/src/beacon.c.obj
                0x000000000003054c                beacon_create
 .text.beacon_packet_in
                0x000000000003059c      0x178 CMakeFiles/enocean_switch_nrf52840_xxAA_s140_6.0.0.dir/__/__/mesh/core/src/beacon.c.obj
                0x000000000003059c                beacon_packet_in
 .text.entry_get
                0x0000000000030714       0x7c CMakeFiles/enocean_switch_nrf52840_xxAA_s140_6.0.0.dir/__/__/mesh/core/src/flash_manager_internal.c.obj
                0x0000000000030714                entry_get
 .text.core_tx_complete_cb_set
                0x0000000000030790        0xc CMakeFiles/enocean_switch_nrf52840_xxAA_s140_6.0.0.dir/__/__/mesh/core/src/core_tx.c.obj
                0x0000000000030790                core_tx_complete_cb_set
 .text.core_tx_packet_alloc
                0x000000000003079c       0xc0 CMakeFiles/enocean_switch_nrf52840_xxAA_s140_6.0.0.dir/__/__/mesh/core/src/core_tx.c.obj
                0x000000000003079c                core_tx_packet_alloc
 .text.core_tx_packet_send
                0x000000000003085c       0x5c CMakeFiles/enocean_switch_nrf52840_xxAA_s140_6.0.0.dir/__/__/mesh/core/src/core_tx.c.obj
                0x000000000003085c                core_tx_packet_send
 .text.core_tx_packet_discard
                0x00000000000308b8       0x54 CMakeFiles/enocean_switch_nrf52840_xxAA_s140_6.0.0.dir/__/__/mesh/core/src/core_tx.c.obj
                0x00000000000308b8                core_tx_packet_discard
 .text.core_tx_complete
                0x000000000003090c       0x38 CMakeFiles/enocean_switch_nrf52840_xxAA_s140_6.0.0.dir/__/__/mesh/core/src/core_tx.c.obj
                0x000000000003090c                core_tx_complete
 .text.core_tx_bearer_add
                0x0000000000030944       0x90 CMakeFiles/enocean_switch_nrf52840_xxAA_s140_6.0.0.dir/__/__/mesh/core/src/core_tx.c.obj
                0x0000000000030944                core_tx_bearer_add
 .text.heartbeat_subscription_timer_cb
                0x00000000000309d4       0x1c CMakeFiles/enocean_switch_nrf52840_xxAA_s140_6.0.0.dir/__/__/mesh/core/src/heartbeat.c.obj
 .text.heartbeat_opcode_handle
                0x00000000000309f0       0x8c CMakeFiles/enocean_switch_nrf52840_xxAA_s140_6.0.0.dir/__/__/mesh/core/src/heartbeat.c.obj
 .text.heartbeat_send
                0x0000000000030a7c       0xbc CMakeFiles/enocean_switch_nrf52840_xxAA_s140_6.0.0.dir/__/__/mesh/core/src/heartbeat.c.obj
 .text.heartbeat_core_evt_cb
                0x0000000000030b38       0x94 CMakeFiles/enocean_switch_nrf52840_xxAA_s140_6.0.0.dir/__/__/mesh/core/src/heartbeat.c.obj
 .text.heartbeat_publication_timer_cb
                0x0000000000030bcc       0xb0 CMakeFiles/enocean_switch_nrf52840_xxAA_s140_6.0.0.dir/__/__/mesh/core/src/heartbeat.c.obj
 .text.heartbeat_on_feature_change_trigger
                0x0000000000030c7c       0x48 CMakeFiles/enocean_switch_nrf52840_xxAA_s140_6.0.0.dir/__/__/mesh/core/src/heartbeat.c.obj
                0x0000000000030c7c                heartbeat_on_feature_change_trigger
 .text.heartbeat_init
                0x0000000000030cc4       0x7c CMakeFiles/enocean_switch_nrf52840_xxAA_s140_6.0.0.dir/__/__/mesh/core/src/heartbeat.c.obj
                0x0000000000030cc4                heartbeat_init
 .text.heartbeat_subscription_set
                0x0000000000030d40       0xa4 CMakeFiles/enocean_switch_nrf52840_xxAA_s140_6.0.0.dir/__/__/mesh/core/src/heartbeat.c.obj
                0x0000000000030d40                heartbeat_subscription_set
 .text.heartbeat_subscription_get
                0x0000000000030de4        0x8 CMakeFiles/enocean_switch_nrf52840_xxAA_s140_6.0.0.dir/__/__/mesh/core/src/heartbeat.c.obj
                0x0000000000030de4                heartbeat_subscription_get
 .text.heartbeat_config_server_cb_set
                0x0000000000030dec       0x30 CMakeFiles/enocean_switch_nrf52840_xxAA_s140_6.0.0.dir/__/__/mesh/core/src/heartbeat.c.obj
                0x0000000000030dec                heartbeat_config_server_cb_set
 .text.heartbeat_publication_state_updated
                0x0000000000030e1c       0x78 CMakeFiles/enocean_switch_nrf52840_xxAA_s140_6.0.0.dir/__/__/mesh/core/src/heartbeat.c.obj
                0x0000000000030e1c                heartbeat_publication_state_updated
 .text.beacon_tx
                0x0000000000030e94      0x194 CMakeFiles/enocean_switch_nrf52840_xxAA_s140_6.0.0.dir/__/__/mesh/core/src/net_beacon.c.obj
 .text.tx_complete_cb
                0x0000000000031028       0x10 CMakeFiles/enocean_switch_nrf52840_xxAA_s140_6.0.0.dir/__/__/mesh/core/src/net_beacon.c.obj
 .text.beacon_tx_timeout
                0x0000000000031038        0x4 CMakeFiles/enocean_switch_nrf52840_xxAA_s140_6.0.0.dir/__/__/mesh/core/src/net_beacon.c.obj
 .text.net_beacon_init
                0x000000000003103c       0x94 CMakeFiles/enocean_switch_nrf52840_xxAA_s140_6.0.0.dir/__/__/mesh/core/src/net_beacon.c.obj
                0x000000000003103c                net_beacon_init
 .text.net_beacon_state_set
                0x00000000000310d0       0x3c CMakeFiles/enocean_switch_nrf52840_xxAA_s140_6.0.0.dir/__/__/mesh/core/src/net_beacon.c.obj
                0x00000000000310d0                net_beacon_state_set
 .text.net_beacon_state_get
                0x000000000003110c        0xc CMakeFiles/enocean_switch_nrf52840_xxAA_s140_6.0.0.dir/__/__/mesh/core/src/net_beacon.c.obj
                0x000000000003110c                net_beacon_state_get
 .text.net_beacon_packet_in
                0x0000000000031118      0x134 CMakeFiles/enocean_switch_nrf52840_xxAA_s140_6.0.0.dir/__/__/mesh/core/src/net_beacon.c.obj
                0x0000000000031118                net_beacon_packet_in
 .text.packet_discard
                0x000000000003124c       0x40 CMakeFiles/enocean_switch_nrf52840_xxAA_s140_6.0.0.dir/__/__/mesh/core/src/core_tx_adv.c.obj
 .text.packet_send
                0x000000000003128c       0x58 CMakeFiles/enocean_switch_nrf52840_xxAA_s140_6.0.0.dir/__/__/mesh/core/src/core_tx_adv.c.obj
 .text.packet_alloc
                0x00000000000312e4       0x5c CMakeFiles/enocean_switch_nrf52840_xxAA_s140_6.0.0.dir/__/__/mesh/core/src/core_tx_adv.c.obj
 .text.adv_tx_complete_callback
                0x0000000000031340       0x28 CMakeFiles/enocean_switch_nrf52840_xxAA_s140_6.0.0.dir/__/__/mesh/core/src/core_tx_adv.c.obj
 .text.core_tx_adv_init
                0x0000000000031368       0x60 CMakeFiles/enocean_switch_nrf52840_xxAA_s140_6.0.0.dir/__/__/mesh/core/src/core_tx_adv.c.obj
                0x0000000000031368                core_tx_adv_init
 .text.core_tx_adv_count_set
                0x00000000000313c8       0x2c CMakeFiles/enocean_switch_nrf52840_xxAA_s140_6.0.0.dir/__/__/mesh/core/src/core_tx_adv.c.obj
                0x00000000000313c8                core_tx_adv_count_set
 .text.core_tx_adv_count_get
                0x00000000000313f4       0x20 CMakeFiles/enocean_switch_nrf52840_xxAA_s140_6.0.0.dir/__/__/mesh/core/src/core_tx_adv.c.obj
                0x00000000000313f4                core_tx_adv_count_get
 .text.core_tx_adv_interval_set
                0x0000000000031414       0x28 CMakeFiles/enocean_switch_nrf52840_xxAA_s140_6.0.0.dir/__/__/mesh/core/src/core_tx_adv.c.obj
                0x0000000000031414                core_tx_adv_interval_set
 .text.core_tx_adv_interval_get
                0x000000000003143c       0x2c CMakeFiles/enocean_switch_nrf52840_xxAA_s140_6.0.0.dir/__/__/mesh/core/src/core_tx_adv.c.obj
                0x000000000003143c                core_tx_adv_interval_get
 .text.ad_listener_subscribe
                0x0000000000031468       0x60 CMakeFiles/enocean_switch_nrf52840_xxAA_s140_6.0.0.dir/__/__/mesh/bearer/src/ad_listener.c.obj
                0x0000000000031468                ad_listener_subscribe
 .text.ad_listener_process
                0x00000000000314c8       0x84 CMakeFiles/enocean_switch_nrf52840_xxAA_s140_6.0.0.dir/__/__/mesh/bearer/src/ad_listener.c.obj
                0x00000000000314c8                ad_listener_process
 .text.adtype_filter_handle
                0x000000000003154c       0x94 CMakeFiles/enocean_switch_nrf52840_xxAA_s140_6.0.0.dir/__/__/mesh/bearer/src/ad_type_filter.c.obj
 .text.bearer_adtype_filtering_set
                0x00000000000315e0       0x1c CMakeFiles/enocean_switch_nrf52840_xxAA_s140_6.0.0.dir/__/__/mesh/bearer/src/ad_type_filter.c.obj
                0x00000000000315e0                bearer_adtype_filtering_set
 .text.bearer_adtype_add
                0x00000000000315fc       0x24 CMakeFiles/enocean_switch_nrf52840_xxAA_s140_6.0.0.dir/__/__/mesh/bearer/src/ad_type_filter.c.obj
                0x00000000000315fc                bearer_adtype_add
 .text.bearer_adtype_mode_set
                0x0000000000031620       0x18 CMakeFiles/enocean_switch_nrf52840_xxAA_s140_6.0.0.dir/__/__/mesh/bearer/src/ad_type_filter.c.obj
                0x0000000000031620                bearer_adtype_mode_set
 .text.tx_complete_event_callback
                0x0000000000031638       0x34 CMakeFiles/enocean_switch_nrf52840_xxAA_s140_6.0.0.dir/__/__/mesh/bearer/src/advertiser.c.obj
 .text.broadcast_complete_cb
                0x000000000003166c       0x48 CMakeFiles/enocean_switch_nrf52840_xxAA_s140_6.0.0.dir/__/__/mesh/bearer/src/advertiser.c.obj
 .text.timeout_event
                0x00000000000316b4      0x12c CMakeFiles/enocean_switch_nrf52840_xxAA_s140_6.0.0.dir/__/__/mesh/bearer/src/advertiser.c.obj
 .text.advertiser_init
                0x00000000000317e0        0xc CMakeFiles/enocean_switch_nrf52840_xxAA_s140_6.0.0.dir/__/__/mesh/bearer/src/advertiser.c.obj
                0x00000000000317e0                advertiser_init
 .text.advertiser_instance_init
                0x00000000000317ec      0x100 CMakeFiles/enocean_switch_nrf52840_xxAA_s140_6.0.0.dir/__/__/mesh/bearer/src/advertiser.c.obj
                0x00000000000317ec                advertiser_instance_init
 .text.advertiser_enable
                0x00000000000318ec       0x44 CMakeFiles/enocean_switch_nrf52840_xxAA_s140_6.0.0.dir/__/__/mesh/bearer/src/advertiser.c.obj
                0x00000000000318ec                advertiser_enable
 .text.advertiser_packet_alloc
                0x0000000000031930       0x80 CMakeFiles/enocean_switch_nrf52840_xxAA_s140_6.0.0.dir/__/__/mesh/bearer/src/advertiser.c.obj
                0x0000000000031930                advertiser_packet_alloc
 .text.advertiser_packet_send
                0x00000000000319b0       0x84 CMakeFiles/enocean_switch_nrf52840_xxAA_s140_6.0.0.dir/__/__/mesh/bearer/src/advertiser.c.obj
                0x00000000000319b0                advertiser_packet_send
 .text.advertiser_packet_discard
                0x0000000000031a34       0x2c CMakeFiles/enocean_switch_nrf52840_xxAA_s140_6.0.0.dir/__/__/mesh/bearer/src/advertiser.c.obj
                0x0000000000031a34                advertiser_packet_discard
 .text.advertiser_interval_set
                0x0000000000031a60       0x6c CMakeFiles/enocean_switch_nrf52840_xxAA_s140_6.0.0.dir/__/__/mesh/bearer/src/advertiser.c.obj
                0x0000000000031a60                advertiser_interval_set
 .text.advertiser_flush
                0x0000000000031acc       0x20 CMakeFiles/enocean_switch_nrf52840_xxAA_s140_6.0.0.dir/__/__/mesh/bearer/src/advertiser.c.obj
                0x0000000000031acc                advertiser_flush
 .text.action_switch.part.2
                0x0000000000031aec       0xb4 CMakeFiles/enocean_switch_nrf52840_xxAA_s140_6.0.0.dir/__/__/mesh/bearer/src/bearer_handler.c.obj
 .text.bearer_handler_init
                0x0000000000031ba0       0x2c CMakeFiles/enocean_switch_nrf52840_xxAA_s140_6.0.0.dir/__/__/mesh/bearer/src/bearer_handler.c.obj
                0x0000000000031ba0                bearer_handler_init
 .text.bearer_handler_start
                0x0000000000031bcc       0x1c CMakeFiles/enocean_switch_nrf52840_xxAA_s140_6.0.0.dir/__/__/mesh/bearer/src/bearer_handler.c.obj
                0x0000000000031bcc                bearer_handler_start
 .text.bearer_handler_action_enqueue
                0x0000000000031be8       0x88 CMakeFiles/enocean_switch_nrf52840_xxAA_s140_6.0.0.dir/__/__/mesh/bearer/src/bearer_handler.c.obj
                0x0000000000031be8                bearer_handler_action_enqueue
 .text.bearer_handler_action_end
                0x0000000000031c70       0x68 CMakeFiles/enocean_switch_nrf52840_xxAA_s140_6.0.0.dir/__/__/mesh/bearer/src/bearer_handler.c.obj
                0x0000000000031c70                bearer_handler_action_end
 .text.bearer_handler_radio_irq_handler
                0x0000000000031cd8       0x58 CMakeFiles/enocean_switch_nrf52840_xxAA_s140_6.0.0.dir/__/__/mesh/bearer/src/bearer_handler.c.obj
                0x0000000000031cd8                bearer_handler_radio_irq_handler
 .text.bearer_handler_timer_irq_handler
                0x0000000000031d30       0x34 CMakeFiles/enocean_switch_nrf52840_xxAA_s140_6.0.0.dir/__/__/mesh/bearer/src/bearer_handler.c.obj
                0x0000000000031d30                bearer_handler_timer_irq_handler
 .text.bearer_handler_on_ts_begin
                0x0000000000031d64       0x3c CMakeFiles/enocean_switch_nrf52840_xxAA_s140_6.0.0.dir/__/__/mesh/bearer/src/bearer_handler.c.obj
                0x0000000000031d64                bearer_handler_on_ts_begin
 .text.bearer_handler_on_ts_end
                0x0000000000031da0       0x38 CMakeFiles/enocean_switch_nrf52840_xxAA_s140_6.0.0.dir/__/__/mesh/bearer/src/bearer_handler.c.obj
                0x0000000000031da0                bearer_handler_on_ts_end
 .text.radio_irq_handler
                0x0000000000031dd8       0x98 CMakeFiles/enocean_switch_nrf52840_xxAA_s140_6.0.0.dir/__/__/mesh/bearer/src/broadcast.c.obj
 .text.broadcast_start
                0x0000000000031e70       0x8c CMakeFiles/enocean_switch_nrf52840_xxAA_s140_6.0.0.dir/__/__/mesh/bearer/src/broadcast.c.obj
 .text.broadcast_send
                0x0000000000031efc       0x74 CMakeFiles/enocean_switch_nrf52840_xxAA_s140_6.0.0.dir/__/__/mesh/bearer/src/broadcast.c.obj
                0x0000000000031efc                broadcast_send
 .text.fen_filter_start
                0x0000000000031f70       0x38 CMakeFiles/enocean_switch_nrf52840_xxAA_s140_6.0.0.dir/__/__/mesh/bearer/src/filter_engine.c.obj
                0x0000000000031f70                fen_filter_start
 .text.fen_filter_stop
                0x0000000000031fa8       0x2c CMakeFiles/enocean_switch_nrf52840_xxAA_s140_6.0.0.dir/__/__/mesh/bearer/src/filter_engine.c.obj
                0x0000000000031fa8                fen_filter_stop
 .text.fen_filters_apply
                0x0000000000031fd4       0x34 CMakeFiles/enocean_switch_nrf52840_xxAA_s140_6.0.0.dir/__/__/mesh/bearer/src/filter_engine.c.obj
                0x0000000000031fd4                fen_filters_apply
 .text.radio_config_reset
                0x0000000000032008       0x38 CMakeFiles/enocean_switch_nrf52840_xxAA_s140_6.0.0.dir/__/__/mesh/bearer/src/radio_config.c.obj
                0x0000000000032008                radio_config_reset
 .text.radio_config_channel_set
                0x0000000000032040       0x28 CMakeFiles/enocean_switch_nrf52840_xxAA_s140_6.0.0.dir/__/__/mesh/bearer/src/radio_config.c.obj
                0x0000000000032040                radio_config_channel_set
 .text.radio_config_config
                0x0000000000032068       0x94 CMakeFiles/enocean_switch_nrf52840_xxAA_s140_6.0.0.dir/__/__/mesh/bearer/src/radio_config.c.obj
                0x0000000000032068                radio_config_config
 .text.radio_config_access_addr_set
                0x00000000000320fc       0x58 CMakeFiles/enocean_switch_nrf52840_xxAA_s140_6.0.0.dir/__/__/mesh/bearer/src/radio_config.c.obj
                0x00000000000320fc                radio_config_access_addr_set
 .text.scan_window_end
                0x0000000000032154       0x28 CMakeFiles/enocean_switch_nrf52840_xxAA_s140_6.0.0.dir/__/__/mesh/bearer/src/scanner.c.obj
 .text.scan_window_start
                0x000000000003217c       0x38 CMakeFiles/enocean_switch_nrf52840_xxAA_s140_6.0.0.dir/__/__/mesh/bearer/src/scanner.c.obj
 .text.radio_start
                0x00000000000321b4      0x1a8 CMakeFiles/enocean_switch_nrf52840_xxAA_s140_6.0.0.dir/__/__/mesh/bearer/src/scanner.c.obj
 .text.scanner_radio_start
                0x000000000003235c      0x14c CMakeFiles/enocean_switch_nrf52840_xxAA_s140_6.0.0.dir/__/__/mesh/bearer/src/scanner.c.obj
                0x000000000003235c                scanner_radio_start
 .text.scanner_radio_stop
                0x00000000000324a8       0x34 CMakeFiles/enocean_switch_nrf52840_xxAA_s140_6.0.0.dir/__/__/mesh/bearer/src/scanner.c.obj
                0x00000000000324a8                scanner_radio_stop
 .text.scanner_radio_irq_handler
                0x00000000000324dc      0x200 CMakeFiles/enocean_switch_nrf52840_xxAA_s140_6.0.0.dir/__/__/mesh/bearer/src/scanner.c.obj
                0x00000000000324dc                scanner_radio_irq_handler
 .text.scanner_enable
                0x00000000000326dc       0x50 CMakeFiles/enocean_switch_nrf52840_xxAA_s140_6.0.0.dir/__/__/mesh/bearer/src/scanner.c.obj
                0x00000000000326dc                scanner_enable
 .text.scanner_rx
                0x000000000003272c       0x8c CMakeFiles/enocean_switch_nrf52840_xxAA_s140_6.0.0.dir/__/__/mesh/bearer/src/scanner.c.obj
                0x000000000003272c                scanner_rx
 .text.scanner_packet_release
                0x00000000000327b8       0x40 CMakeFiles/enocean_switch_nrf52840_xxAA_s140_6.0.0.dir/__/__/mesh/bearer/src/scanner.c.obj
                0x00000000000327b8                scanner_packet_release
 .text.scanner_rx_pending
                0x00000000000327f8        0xc CMakeFiles/enocean_switch_nrf52840_xxAA_s140_6.0.0.dir/__/__/mesh/bearer/src/scanner.c.obj
                0x00000000000327f8                scanner_rx_pending
 .text.scanner_config_reset
                0x0000000000032804       0xa4 CMakeFiles/enocean_switch_nrf52840_xxAA_s140_6.0.0.dir/__/__/mesh/bearer/src/scanner.c.obj
                0x0000000000032804                scanner_config_reset
 .text.scanner_init
                0x00000000000328a8       0x54 CMakeFiles/enocean_switch_nrf52840_xxAA_s140_6.0.0.dir/__/__/mesh/bearer/src/scanner.c.obj
                0x00000000000328a8                scanner_init
 .text.handle_publish_timeout
                0x00000000000328fc        0x8 CMakeFiles/enocean_switch_nrf52840_xxAA_s140_6.0.0.dir/__/__/models/simple_on_off/src/simple_on_off_client.c.obj
 .text.reliable_status_cb
                0x0000000000032904       0x7c CMakeFiles/enocean_switch_nrf52840_xxAA_s140_6.0.0.dir/__/__/models/simple_on_off/src/simple_on_off_client.c.obj
 .text.handle_status_cb
                0x0000000000032980       0x58 CMakeFiles/enocean_switch_nrf52840_xxAA_s140_6.0.0.dir/__/__/models/simple_on_off/src/simple_on_off_client.c.obj
 .text.simple_on_off_client_init
                0x00000000000329d8       0x40 CMakeFiles/enocean_switch_nrf52840_xxAA_s140_6.0.0.dir/__/__/models/simple_on_off/src/simple_on_off_client.c.obj
                0x00000000000329d8                simple_on_off_client_init
 .text.simple_on_off_client_set
                0x0000000000032a18       0x74 CMakeFiles/enocean_switch_nrf52840_xxAA_s140_6.0.0.dir/__/__/models/simple_on_off/src/simple_on_off_client.c.obj
                0x0000000000032a18                simple_on_off_client_set
 .text.simple_on_off_client_set_unreliable
                0x0000000000032a8c       0x5c CMakeFiles/enocean_switch_nrf52840_xxAA_s140_6.0.0.dir/__/__/models/simple_on_off/src/simple_on_off_client.c.obj
                0x0000000000032a8c                simple_on_off_client_set_unreliable
 .text.config_composition_data_get
                0x0000000000032ae8      0x1dc CMakeFiles/enocean_switch_nrf52840_xxAA_s140_6.0.0.dir/__/__/models/config/src/composition_data.c.obj
                0x0000000000032ae8                config_composition_data_get
 .text.config_server_heartbeat_publication_count_decrement
                0x0000000000032cc4       0x1c CMakeFiles/enocean_switch_nrf52840_xxAA_s140_6.0.0.dir/__/__/models/config/src/config_server.c.obj
 .text.config_server_heartbeat_publication_params_get
                0x0000000000032ce0       0x38 CMakeFiles/enocean_switch_nrf52840_xxAA_s140_6.0.0.dir/__/__/models/config/src/config_server.c.obj
 .text.handle_config_network_transmit_set
                0x0000000000032d18      0x118 CMakeFiles/enocean_switch_nrf52840_xxAA_s140_6.0.0.dir/__/__/models/config/src/config_server.c.obj
 .text.handle_node_reset
                0x0000000000032e30       0x30 CMakeFiles/enocean_switch_nrf52840_xxAA_s140_6.0.0.dir/__/__/models/config/src/config_server.c.obj
 .text.handle_config_relay_set
                0x0000000000032e60      0x1a8 CMakeFiles/enocean_switch_nrf52840_xxAA_s140_6.0.0.dir/__/__/models/config/src/config_server.c.obj
 .text.handle_netkey_get
                0x0000000000033008       0x70 CMakeFiles/enocean_switch_nrf52840_xxAA_s140_6.0.0.dir/__/__/models/config/src/config_server.c.obj
 .text.handle_model_app_bind_unbind
                0x0000000000033078      0x234 CMakeFiles/enocean_switch_nrf52840_xxAA_s140_6.0.0.dir/__/__/models/config/src/config_server.c.obj
 .text.status_error_sub_send
                0x00000000000332ac      0x180 CMakeFiles/enocean_switch_nrf52840_xxAA_s140_6.0.0.dir/__/__/models/config/src/config_server.c.obj
 .text.send_publication_status
                0x000000000003342c      0x1a8 CMakeFiles/enocean_switch_nrf52840_xxAA_s140_6.0.0.dir/__/__/models/config/src/config_server.c.obj
 .text.handle_config_key_refresh_phase_set
                0x00000000000335d4       0xf0 CMakeFiles/enocean_switch_nrf52840_xxAA_s140_6.0.0.dir/__/__/models/config/src/config_server.c.obj
 .text.handle_config_default_ttl_set
                0x00000000000336c4       0x70 CMakeFiles/enocean_switch_nrf52840_xxAA_s140_6.0.0.dir/__/__/models/config/src/config_server.c.obj
 .text.handle_heartbeat_publication_set
                0x0000000000033734      0x168 CMakeFiles/enocean_switch_nrf52840_xxAA_s140_6.0.0.dir/__/__/models/config/src/config_server.c.obj
 .text.mesh_event_cb
                0x000000000003389c       0x70 CMakeFiles/enocean_switch_nrf52840_xxAA_s140_6.0.0.dir/__/__/models/config/src/config_server.c.obj
 .text.handle_node_identity_set
                0x000000000003390c       0x48 CMakeFiles/enocean_switch_nrf52840_xxAA_s140_6.0.0.dir/__/__/models/config/src/config_server.c.obj
 .text.handle_node_identity_get
                0x0000000000033954       0x44 CMakeFiles/enocean_switch_nrf52840_xxAA_s140_6.0.0.dir/__/__/models/config/src/config_server.c.obj
 .text.handle_config_gatt_proxy_set
                0x0000000000033998       0x40 CMakeFiles/enocean_switch_nrf52840_xxAA_s140_6.0.0.dir/__/__/models/config/src/config_server.c.obj
 .text.handle_config_friend_set
                0x00000000000339d8       0x40 CMakeFiles/enocean_switch_nrf52840_xxAA_s140_6.0.0.dir/__/__/models/config/src/config_server.c.obj
 .text.status_error_pub_send
                0x0000000000033a18       0xc8 CMakeFiles/enocean_switch_nrf52840_xxAA_s140_6.0.0.dir/__/__/models/config/src/config_server.c.obj
 .text.handle_config_key_refresh_phase_get
                0x0000000000033ae0       0x70 CMakeFiles/enocean_switch_nrf52840_xxAA_s140_6.0.0.dir/__/__/models/config/src/config_server.c.obj
 .text.handle_config_default_ttl_get
                0x0000000000033b50       0x48 CMakeFiles/enocean_switch_nrf52840_xxAA_s140_6.0.0.dir/__/__/models/config/src/config_server.c.obj
 .text.handle_config_beacon_set
                0x0000000000033b98       0x80 CMakeFiles/enocean_switch_nrf52840_xxAA_s140_6.0.0.dir/__/__/models/config/src/config_server.c.obj
 .text.handle_composition_data_get
                0x0000000000033c18       0x64 CMakeFiles/enocean_switch_nrf52840_xxAA_s140_6.0.0.dir/__/__/models/config/src/config_server.c.obj
 .text.handle_appkey_update
                0x0000000000033c7c      0x108 CMakeFiles/enocean_switch_nrf52840_xxAA_s140_6.0.0.dir/__/__/models/config/src/config_server.c.obj
 .text.handle_model_app_get
                0x0000000000033d84      0x220 CMakeFiles/enocean_switch_nrf52840_xxAA_s140_6.0.0.dir/__/__/models/config/src/config_server.c.obj
 .text.handle_appkey_get
                0x0000000000033fa4      0x100 CMakeFiles/enocean_switch_nrf52840_xxAA_s140_6.0.0.dir/__/__/models/config/src/config_server.c.obj
 .text.handle_heartbeat_subscription_get
                0x00000000000340a4       0xdc CMakeFiles/enocean_switch_nrf52840_xxAA_s140_6.0.0.dir/__/__/models/config/src/config_server.c.obj
 .text.handle_config_friend_get
                0x0000000000034180       0x38 CMakeFiles/enocean_switch_nrf52840_xxAA_s140_6.0.0.dir/__/__/models/config/src/config_server.c.obj
 .text.handle_config_gatt_proxy_get
                0x00000000000341b8       0x38 CMakeFiles/enocean_switch_nrf52840_xxAA_s140_6.0.0.dir/__/__/models/config/src/config_server.c.obj
 .text.handle_heartbeat_subscription_set
                0x00000000000341f0      0x114 CMakeFiles/enocean_switch_nrf52840_xxAA_s140_6.0.0.dir/__/__/models/config/src/config_server.c.obj
 .text.handle_heartbeat_publication_get
                0x0000000000034304       0xcc CMakeFiles/enocean_switch_nrf52840_xxAA_s140_6.0.0.dir/__/__/models/config/src/config_server.c.obj
 .text.handle_config_beacon_get
                0x00000000000343d0       0x40 CMakeFiles/enocean_switch_nrf52840_xxAA_s140_6.0.0.dir/__/__/models/config/src/config_server.c.obj
 .text.handle_appkey_delete
                0x0000000000034410      0x11c CMakeFiles/enocean_switch_nrf52840_xxAA_s140_6.0.0.dir/__/__/models/config/src/config_server.c.obj
 .text.handle_appkey_add
                0x000000000003452c      0x124 CMakeFiles/enocean_switch_nrf52840_xxAA_s140_6.0.0.dir/__/__/models/config/src/config_server.c.obj
 .text.handle_config_vendor_model_subscription_get
                0x0000000000034650      0x194 CMakeFiles/enocean_switch_nrf52840_xxAA_s140_6.0.0.dir/__/__/models/config/src/config_server.c.obj
 .text.handle_netkey_add_update
                0x00000000000347e4       0xec CMakeFiles/enocean_switch_nrf52840_xxAA_s140_6.0.0.dir/__/__/models/config/src/config_server.c.obj
 .text.handle_netkey_delete
                0x00000000000348d0      0x14c CMakeFiles/enocean_switch_nrf52840_xxAA_s140_6.0.0.dir/__/__/models/config/src/config_server.c.obj
 .text.handle_config_network_transmit_get
                0x0000000000034a1c       0x94 CMakeFiles/enocean_switch_nrf52840_xxAA_s140_6.0.0.dir/__/__/models/config/src/config_server.c.obj
 .text.handle_config_model_publication_get
                0x0000000000034ab0      0x150 CMakeFiles/enocean_switch_nrf52840_xxAA_s140_6.0.0.dir/__/__/models/config/src/config_server.c.obj
 .text.handle_config_relay_get
                0x0000000000034c00       0xcc CMakeFiles/enocean_switch_nrf52840_xxAA_s140_6.0.0.dir/__/__/models/config/src/config_server.c.obj
 .text.handle_config_model_publication_set
                0x0000000000034ccc      0x3d4 CMakeFiles/enocean_switch_nrf52840_xxAA_s140_6.0.0.dir/__/__/models/config/src/config_server.c.obj
 .text.handle_config_model_subscription_delete_all
                0x00000000000350a0      0x2fc CMakeFiles/enocean_switch_nrf52840_xxAA_s140_6.0.0.dir/__/__/models/config/src/config_server.c.obj
 .text.handle_config_model_subscription_virtual_address_delete
                0x000000000003539c      0x2f0 CMakeFiles/enocean_switch_nrf52840_xxAA_s140_6.0.0.dir/__/__/models/config/src/config_server.c.obj
 .text.handle_config_model_subscription_virtual_address_add
                0x000000000003568c      0x2cc CMakeFiles/enocean_switch_nrf52840_xxAA_s140_6.0.0.dir/__/__/models/config/src/config_server.c.obj
 .text.handle_config_model_subscription_delete
                0x0000000000035958      0x2e4 CMakeFiles/enocean_switch_nrf52840_xxAA_s140_6.0.0.dir/__/__/models/config/src/config_server.c.obj
 .text.handle_config_model_subscription_add
                0x0000000000035c3c      0x2e4 CMakeFiles/enocean_switch_nrf52840_xxAA_s140_6.0.0.dir/__/__/models/config/src/config_server.c.obj
 .text.handle_config_model_subscription_virtual_address_overwrite
                0x0000000000035f20      0x374 CMakeFiles/enocean_switch_nrf52840_xxAA_s140_6.0.0.dir/__/__/models/config/src/config_server.c.obj
 .text.handle_config_model_subscription_overwrite
                0x0000000000036294      0x370 CMakeFiles/enocean_switch_nrf52840_xxAA_s140_6.0.0.dir/__/__/models/config/src/config_server.c.obj
 .text.handle_config_sig_model_subscription_get
                0x0000000000036604      0x2a8 CMakeFiles/enocean_switch_nrf52840_xxAA_s140_6.0.0.dir/__/__/models/config/src/config_server.c.obj
 .text.config_server_init
                0x00000000000368ac       0x70 CMakeFiles/enocean_switch_nrf52840_xxAA_s140_6.0.0.dir/__/__/models/config/src/config_server.c.obj
                0x00000000000368ac                config_server_init
 .text.config_server_bind
                0x000000000003691c       0x10 CMakeFiles/enocean_switch_nrf52840_xxAA_s140_6.0.0.dir/__/__/models/config/src/config_server.c.obj
                0x000000000003691c                config_server_bind
 .text.packed_index_list_create
                0x000000000003692c       0x3c CMakeFiles/enocean_switch_nrf52840_xxAA_s140_6.0.0.dir/__/__/models/config/src/packed_index_list.c.obj
                0x000000000003692c                packed_index_list_create
 .text.attention_timer_handler
                0x0000000000036968       0x6c CMakeFiles/enocean_switch_nrf52840_xxAA_s140_6.0.0.dir/__/__/models/health/src/health_server.c.obj
 .text.handle_attention_get
                0x00000000000369d4       0x40 CMakeFiles/enocean_switch_nrf52840_xxAA_s140_6.0.0.dir/__/__/models/health/src/health_server.c.obj
 .text.handle_period_get
                0x0000000000036a14       0x3c CMakeFiles/enocean_switch_nrf52840_xxAA_s140_6.0.0.dir/__/__/models/health/src/health_server.c.obj
 .text.handle_attention_set
                0x0000000000036a50       0xdc CMakeFiles/enocean_switch_nrf52840_xxAA_s140_6.0.0.dir/__/__/models/health/src/health_server.c.obj
 .text.handle_period_set
                0x0000000000036b2c       0x54 CMakeFiles/enocean_switch_nrf52840_xxAA_s140_6.0.0.dir/__/__/models/health/src/health_server.c.obj
 .text.send_fault_status
                0x0000000000036b80      0x3b4 CMakeFiles/enocean_switch_nrf52840_xxAA_s140_6.0.0.dir/__/__/models/health/src/health_server.c.obj
 .text.health_publish_timeout_handler
                0x0000000000036f34        0xc CMakeFiles/enocean_switch_nrf52840_xxAA_s140_6.0.0.dir/__/__/models/health/src/health_server.c.obj
 .text.handle_fault_test
                0x0000000000036f40       0x8c CMakeFiles/enocean_switch_nrf52840_xxAA_s140_6.0.0.dir/__/__/models/health/src/health_server.c.obj
 .text.handle_fault_clear
                0x0000000000036fcc       0x54 CMakeFiles/enocean_switch_nrf52840_xxAA_s140_6.0.0.dir/__/__/models/health/src/health_server.c.obj
 .text.handle_fault_get
                0x0000000000037020       0x40 CMakeFiles/enocean_switch_nrf52840_xxAA_s140_6.0.0.dir/__/__/models/health/src/health_server.c.obj
 .text.health_server_init
                0x0000000000037060       0x68 CMakeFiles/enocean_switch_nrf52840_xxAA_s140_6.0.0.dir/__/__/models/health/src/health_server.c.obj
                0x0000000000037060                health_server_init
 .text.schedule_publication_timer
                0x00000000000370c8      0x2d0 CMakeFiles/enocean_switch_nrf52840_xxAA_s140_6.0.0.dir/__/__/mesh/access/src/access_publish.c.obj
 .text.publish_timer_tick
                0x0000000000037398      0x140 CMakeFiles/enocean_switch_nrf52840_xxAA_s140_6.0.0.dir/__/__/mesh/access/src/access_publish.c.obj
 .text.access_publish_init
                0x00000000000374d8       0x38 CMakeFiles/enocean_switch_nrf52840_xxAA_s140_6.0.0.dir/__/__/mesh/access/src/access_publish.c.obj
                0x00000000000374d8                access_publish_init
 .text.access_publish_period_set
                0x0000000000037510      0x118 CMakeFiles/enocean_switch_nrf52840_xxAA_s140_6.0.0.dir/__/__/mesh/access/src/access_publish.c.obj
                0x0000000000037510                access_publish_period_set
 .text.access_publish_period_get
                0x0000000000037628       0x2c CMakeFiles/enocean_switch_nrf52840_xxAA_s140_6.0.0.dir/__/__/mesh/access/src/access_publish.c.obj
                0x0000000000037628                access_publish_period_get
 .text.flash_manager_mem_available
                0x0000000000037654        0x4 CMakeFiles/enocean_switch_nrf52840_xxAA_s140_6.0.0.dir/__/__/mesh/access/src/access.c.obj
 .text.flash_invalidate_complete
                0x0000000000037658        0x8 CMakeFiles/enocean_switch_nrf52840_xxAA_s140_6.0.0.dir/__/__/mesh/access/src/access.c.obj
 .text.access_flash_config_clear
                0x0000000000037660       0x28 CMakeFiles/enocean_switch_nrf52840_xxAA_s140_6.0.0.dir/__/__/mesh/access/src/access.c.obj
 .text.access_flash_config_store
                0x0000000000037688      0x43c CMakeFiles/enocean_switch_nrf52840_xxAA_s140_6.0.0.dir/__/__/mesh/access/src/access.c.obj
                0x0000000000037688                access_flash_config_store
 .text.handle_incoming
                0x0000000000037ac4      0x198 CMakeFiles/enocean_switch_nrf52840_xxAA_s140_6.0.0.dir/__/__/mesh/access/src/access.c.obj
 .text.mesh_evt_cb
                0x0000000000037c5c      0x158 CMakeFiles/enocean_switch_nrf52840_xxAA_s140_6.0.0.dir/__/__/mesh/access/src/access.c.obj
 .text.add_flash_manager
                0x0000000000037db4       0x58 CMakeFiles/enocean_switch_nrf52840_xxAA_s140_6.0.0.dir/__/__/mesh/access/src/access.c.obj
 .text.flash_write_complete
                0x0000000000037e0c       0x4c CMakeFiles/enocean_switch_nrf52840_xxAA_s140_6.0.0.dir/__/__/mesh/access/src/access.c.obj
 .text.flash_remove_complete
                0x0000000000037e58      0x158 CMakeFiles/enocean_switch_nrf52840_xxAA_s140_6.0.0.dir/__/__/mesh/access/src/access.c.obj
 .text.access_flash_config_load
                0x0000000000037fb0      0x2d0 CMakeFiles/enocean_switch_nrf52840_xxAA_s140_6.0.0.dir/__/__/mesh/access/src/access.c.obj
                0x0000000000037fb0                access_flash_config_load
 .text.access_clear
                0x0000000000038280       0x88 CMakeFiles/enocean_switch_nrf52840_xxAA_s140_6.0.0.dir/__/__/mesh/access/src/access.c.obj
                0x0000000000038280                access_clear
 .text.access_init
                0x0000000000038308       0xd0 CMakeFiles/enocean_switch_nrf52840_xxAA_s140_6.0.0.dir/__/__/mesh/access/src/access.c.obj
                0x0000000000038308                access_init
 .text.access_model_add
                0x00000000000383d8      0x2ec CMakeFiles/enocean_switch_nrf52840_xxAA_s140_6.0.0.dir/__/__/mesh/access/src/access.c.obj
                0x00000000000383d8                access_model_add
 .text.access_model_publish
                0x00000000000386c4      0x3c8 CMakeFiles/enocean_switch_nrf52840_xxAA_s140_6.0.0.dir/__/__/mesh/access/src/access.c.obj
                0x00000000000386c4                access_model_publish
 .text.access_model_reply
                0x0000000000038a8c      0x3e4 CMakeFiles/enocean_switch_nrf52840_xxAA_s140_6.0.0.dir/__/__/mesh/access/src/access.c.obj
                0x0000000000038a8c                access_model_reply
 .text.access_model_publish_address_set
                0x0000000000038e70       0x3c CMakeFiles/enocean_switch_nrf52840_xxAA_s140_6.0.0.dir/__/__/mesh/access/src/access.c.obj
                0x0000000000038e70                access_model_publish_address_set
 .text.access_model_publish_address_get
                0x0000000000038eac       0x2c CMakeFiles/enocean_switch_nrf52840_xxAA_s140_6.0.0.dir/__/__/mesh/access/src/access.c.obj
                0x0000000000038eac                access_model_publish_address_get
 .text.access_model_publish_retransmit_set
                0x0000000000038ed8       0x58 CMakeFiles/enocean_switch_nrf52840_xxAA_s140_6.0.0.dir/__/__/mesh/access/src/access.c.obj
                0x0000000000038ed8                access_model_publish_retransmit_set
 .text.access_model_publish_retransmit_get
                0x0000000000038f30       0x2c CMakeFiles/enocean_switch_nrf52840_xxAA_s140_6.0.0.dir/__/__/mesh/access/src/access.c.obj
                0x0000000000038f30                access_model_publish_retransmit_get
 .text.access_model_publish_period_set
                0x0000000000038f5c       0x78 CMakeFiles/enocean_switch_nrf52840_xxAA_s140_6.0.0.dir/__/__/mesh/access/src/access.c.obj
                0x0000000000038f5c                access_model_publish_period_set
 .text.access_model_publish_period_get
                0x0000000000038fd4       0x40 CMakeFiles/enocean_switch_nrf52840_xxAA_s140_6.0.0.dir/__/__/mesh/access/src/access.c.obj
                0x0000000000038fd4                access_model_publish_period_get
 .text.access_model_subscription_list_alloc
                0x0000000000039014       0x84 CMakeFiles/enocean_switch_nrf52840_xxAA_s140_6.0.0.dir/__/__/mesh/access/src/access.c.obj
                0x0000000000039014                access_model_subscription_list_alloc
 .text.access_model_subscription_add
                0x0000000000039098       0x64 CMakeFiles/enocean_switch_nrf52840_xxAA_s140_6.0.0.dir/__/__/mesh/access/src/access.c.obj
                0x0000000000039098                access_model_subscription_add
 .text.access_model_subscription_remove
                0x00000000000390fc       0x60 CMakeFiles/enocean_switch_nrf52840_xxAA_s140_6.0.0.dir/__/__/mesh/access/src/access.c.obj
                0x00000000000390fc                access_model_subscription_remove
 .text.access_model_subscriptions_get
                0x000000000003915c       0x78 CMakeFiles/enocean_switch_nrf52840_xxAA_s140_6.0.0.dir/__/__/mesh/access/src/access.c.obj
                0x000000000003915c                access_model_subscriptions_get
 .text.access_model_application_bind
                0x00000000000391d4       0x5c CMakeFiles/enocean_switch_nrf52840_xxAA_s140_6.0.0.dir/__/__/mesh/access/src/access.c.obj
                0x00000000000391d4                access_model_application_bind
 .text.access_model_application_unbind
                0x0000000000039230       0x58 CMakeFiles/enocean_switch_nrf52840_xxAA_s140_6.0.0.dir/__/__/mesh/access/src/access.c.obj
                0x0000000000039230                access_model_application_unbind
 .text.access_model_applications_get
                0x0000000000039288      0x100 CMakeFiles/enocean_switch_nrf52840_xxAA_s140_6.0.0.dir/__/__/mesh/access/src/access.c.obj
                0x0000000000039288                access_model_applications_get
 .text.access_model_publish_application_set
                0x0000000000039388       0x3c CMakeFiles/enocean_switch_nrf52840_xxAA_s140_6.0.0.dir/__/__/mesh/access/src/access.c.obj
                0x0000000000039388                access_model_publish_application_set
 .text.access_model_publish_application_get
                0x00000000000393c4       0x2c CMakeFiles/enocean_switch_nrf52840_xxAA_s140_6.0.0.dir/__/__/mesh/access/src/access.c.obj
                0x00000000000393c4                access_model_publish_application_get
 .text.access_default_ttl_set
                0x00000000000393f0       0x1c CMakeFiles/enocean_switch_nrf52840_xxAA_s140_6.0.0.dir/__/__/mesh/access/src/access.c.obj
                0x00000000000393f0                access_default_ttl_set
 .text.access_default_ttl_get
                0x000000000003940c        0xc CMakeFiles/enocean_switch_nrf52840_xxAA_s140_6.0.0.dir/__/__/mesh/access/src/access.c.obj
                0x000000000003940c                access_default_ttl_get
 .text.access_model_publish_ttl_set
                0x0000000000039418       0x40 CMakeFiles/enocean_switch_nrf52840_xxAA_s140_6.0.0.dir/__/__/mesh/access/src/access.c.obj
                0x0000000000039418                access_model_publish_ttl_set
 .text.access_model_publish_ttl_get
                0x0000000000039458       0x2c CMakeFiles/enocean_switch_nrf52840_xxAA_s140_6.0.0.dir/__/__/mesh/access/src/access.c.obj
                0x0000000000039458                access_model_publish_ttl_get
 .text.access_element_location_get
                0x0000000000039484       0x24 CMakeFiles/enocean_switch_nrf52840_xxAA_s140_6.0.0.dir/__/__/mesh/access/src/access.c.obj
                0x0000000000039484                access_element_location_get
 .text.access_element_sig_model_count_get
                0x00000000000394a8       0x24 CMakeFiles/enocean_switch_nrf52840_xxAA_s140_6.0.0.dir/__/__/mesh/access/src/access.c.obj
                0x00000000000394a8                access_element_sig_model_count_get
 .text.access_element_vendor_model_count_get
                0x00000000000394cc       0x24 CMakeFiles/enocean_switch_nrf52840_xxAA_s140_6.0.0.dir/__/__/mesh/access/src/access.c.obj
                0x00000000000394cc                access_element_vendor_model_count_get
 .text.access_model_id_get
                0x00000000000394f0       0x40 CMakeFiles/enocean_switch_nrf52840_xxAA_s140_6.0.0.dir/__/__/mesh/access/src/access.c.obj
                0x00000000000394f0                access_model_id_get
 .text.access_handle_get
                0x0000000000039530       0xd8 CMakeFiles/enocean_switch_nrf52840_xxAA_s140_6.0.0.dir/__/__/mesh/access/src/access.c.obj
                0x0000000000039530                access_handle_get
 .text.access_element_models_get
                0x0000000000039608       0xf8 CMakeFiles/enocean_switch_nrf52840_xxAA_s140_6.0.0.dir/__/__/mesh/access/src/access.c.obj
                0x0000000000039608                access_element_models_get
 .text.access_model_p_args_get
                0x0000000000039700       0x2c CMakeFiles/enocean_switch_nrf52840_xxAA_s140_6.0.0.dir/__/__/mesh/access/src/access.c.obj
                0x0000000000039700                access_model_p_args_get
 .text.access_model_publication_stop
                0x000000000003972c       0x5c CMakeFiles/enocean_switch_nrf52840_xxAA_s140_6.0.0.dir/__/__/mesh/access/src/access.c.obj
                0x000000000003972c                access_model_publication_stop
 .text.access_model_publication_by_appkey_stop
                0x0000000000039788      0x1b8 CMakeFiles/enocean_switch_nrf52840_xxAA_s140_6.0.0.dir/__/__/mesh/access/src/access.c.obj
                0x0000000000039788                access_model_publication_by_appkey_stop
 .text.remove_and_reschedule
                0x0000000000039940      0x12c CMakeFiles/enocean_switch_nrf52840_xxAA_s140_6.0.0.dir/__/__/mesh/access/src/access_reliable.c.obj
 .text.reliable_timer_cb
                0x0000000000039a6c      0x128 CMakeFiles/enocean_switch_nrf52840_xxAA_s140_6.0.0.dir/__/__/mesh/access/src/access_reliable.c.obj
 .text.access_reliable_message_rx_cb
                0x0000000000039b94       0xb4 CMakeFiles/enocean_switch_nrf52840_xxAA_s140_6.0.0.dir/__/__/mesh/access/src/access_reliable.c.obj
                0x0000000000039b94                access_reliable_message_rx_cb
 .text.access_reliable_init
                0x0000000000039c48       0x20 CMakeFiles/enocean_switch_nrf52840_xxAA_s140_6.0.0.dir/__/__/mesh/access/src/access_reliable.c.obj
                0x0000000000039c48                access_reliable_init
 .text.access_reliable_cancel_all
                0x0000000000039c68      0x1b4 CMakeFiles/enocean_switch_nrf52840_xxAA_s140_6.0.0.dir/__/__/mesh/access/src/access_reliable.c.obj
                0x0000000000039c68                access_reliable_cancel_all
 .text.access_model_reliable_cancel
                0x0000000000039e1c       0xbc CMakeFiles/enocean_switch_nrf52840_xxAA_s140_6.0.0.dir/__/__/mesh/access/src/access_reliable.c.obj
                0x0000000000039e1c                access_model_reliable_cancel
 .text.access_model_reliable_publish
                0x0000000000039ed8      0x2c4 CMakeFiles/enocean_switch_nrf52840_xxAA_s140_6.0.0.dir/__/__/mesh/access/src/access_reliable.c.obj
                0x0000000000039ed8                access_model_reliable_publish
 .text.addr_nonvirtual_to_dsm_entry
                0x000000000003a19c       0x48 CMakeFiles/enocean_switch_nrf52840_xxAA_s140_6.0.0.dir/__/__/mesh/access/src/device_state_manager.c.obj
 .text.addr_nonvirtual_to_flash_entry
                0x000000000003a1e4       0x10 CMakeFiles/enocean_switch_nrf52840_xxAA_s140_6.0.0.dir/__/__/mesh/access/src/device_state_manager.c.obj
 .text.devkey_to_flash_entry
                0x000000000003a1f4       0x28 CMakeFiles/enocean_switch_nrf52840_xxAA_s140_6.0.0.dir/__/__/mesh/access/src/device_state_manager.c.obj
 .text.addr_virtual_to_flash_entry
                0x000000000003a21c       0x18 CMakeFiles/enocean_switch_nrf52840_xxAA_s140_6.0.0.dir/__/__/mesh/access/src/device_state_manager.c.obj
 .text.addr_unicast_to_dsm_entry
                0x000000000003a234        0xc CMakeFiles/enocean_switch_nrf52840_xxAA_s140_6.0.0.dir/__/__/mesh/access/src/device_state_manager.c.obj
 .text.addr_unicast_to_flash_entry
                0x000000000003a240       0x10 CMakeFiles/enocean_switch_nrf52840_xxAA_s140_6.0.0.dir/__/__/mesh/access/src/device_state_manager.c.obj
 .text.flash_mem_listener_callback
                0x000000000003a250       0x1c CMakeFiles/enocean_switch_nrf52840_xxAA_s140_6.0.0.dir/__/__/mesh/access/src/device_state_manager.c.obj
 .text.appkey_to_flash_entry
                0x000000000003a26c       0x54 CMakeFiles/enocean_switch_nrf52840_xxAA_s140_6.0.0.dir/__/__/mesh/access/src/device_state_manager.c.obj
 .text.subnet_to_flash_entry
                0x000000000003a2c0       0x60 CMakeFiles/enocean_switch_nrf52840_xxAA_s140_6.0.0.dir/__/__/mesh/access/src/device_state_manager.c.obj
 .text.reset_flash_area
                0x000000000003a320       0x28 CMakeFiles/enocean_switch_nrf52840_xxAA_s140_6.0.0.dir/__/__/mesh/access/src/device_state_manager.c.obj
 .text.build_flash_area
                0x000000000003a348       0x90 CMakeFiles/enocean_switch_nrf52840_xxAA_s140_6.0.0.dir/__/__/mesh/access/src/device_state_manager.c.obj
 .text.flash_invalidate_complete
                0x000000000003a3d8       0x54 CMakeFiles/enocean_switch_nrf52840_xxAA_s140_6.0.0.dir/__/__/mesh/access/src/device_state_manager.c.obj
 .text.flash_write_complete
                0x000000000003a42c       0x50 CMakeFiles/enocean_switch_nrf52840_xxAA_s140_6.0.0.dir/__/__/mesh/access/src/device_state_manager.c.obj
 .text.devkey_to_dsm_entry
                0x000000000003a47c       0x70 CMakeFiles/enocean_switch_nrf52840_xxAA_s140_6.0.0.dir/__/__/mesh/access/src/device_state_manager.c.obj
 .text.addr_virtual_to_dsm_entry
                0x000000000003a4ec       0x60 CMakeFiles/enocean_switch_nrf52840_xxAA_s140_6.0.0.dir/__/__/mesh/access/src/device_state_manager.c.obj
 .text.appkey_to_dsm_entry
                0x000000000003a54c       0xf4 CMakeFiles/enocean_switch_nrf52840_xxAA_s140_6.0.0.dir/__/__/mesh/access/src/device_state_manager.c.obj
 .text.subnet_to_dsm_entry
                0x000000000003a640      0x11c CMakeFiles/enocean_switch_nrf52840_xxAA_s140_6.0.0.dir/__/__/mesh/access/src/device_state_manager.c.obj
 .text.flash_remove_complete
                0x000000000003a75c       0x90 CMakeFiles/enocean_switch_nrf52840_xxAA_s140_6.0.0.dir/__/__/mesh/access/src/device_state_manager.c.obj
 .text.address_delete_if_unused
                0x000000000003a7ec       0xf4 CMakeFiles/enocean_switch_nrf52840_xxAA_s140_6.0.0.dir/__/__/mesh/access/src/device_state_manager.c.obj
 .text.flash_update_all
                0x000000000003a8e0      0x184 CMakeFiles/enocean_switch_nrf52840_xxAA_s140_6.0.0.dir/__/__/mesh/access/src/device_state_manager.c.obj
 .text.mesh_evt_handler
                0x000000000003aa64      0x258 CMakeFiles/enocean_switch_nrf52840_xxAA_s140_6.0.0.dir/__/__/mesh/access/src/device_state_manager.c.obj
 .text.dsm_flash_config_load
                0x000000000003acbc      0x1f8 CMakeFiles/enocean_switch_nrf52840_xxAA_s140_6.0.0.dir/__/__/mesh/access/src/device_state_manager.c.obj
                0x000000000003acbc                dsm_flash_config_load
 .text.dsm_flash_area_get
                0x000000000003aeb4        0xc CMakeFiles/enocean_switch_nrf52840_xxAA_s140_6.0.0.dir/__/__/mesh/access/src/device_state_manager.c.obj
                0x000000000003aeb4                dsm_flash_area_get
 .text.dsm_clear
                0x000000000003aec0      0x100 CMakeFiles/enocean_switch_nrf52840_xxAA_s140_6.0.0.dir/__/__/mesh/access/src/device_state_manager.c.obj
                0x000000000003aec0                dsm_clear
 .text.dsm_init
                0x000000000003afc0       0xbc CMakeFiles/enocean_switch_nrf52840_xxAA_s140_6.0.0.dir/__/__/mesh/access/src/device_state_manager.c.obj
                0x000000000003afc0                dsm_init
 .text.dsm_local_unicast_addresses_set
                0x000000000003b07c       0xbc CMakeFiles/enocean_switch_nrf52840_xxAA_s140_6.0.0.dir/__/__/mesh/access/src/device_state_manager.c.obj
                0x000000000003b07c                dsm_local_unicast_addresses_set
 .text.dsm_local_unicast_addresses_get
                0x000000000003b138       0x20 CMakeFiles/enocean_switch_nrf52840_xxAA_s140_6.0.0.dir/__/__/mesh/access/src/device_state_manager.c.obj
                0x000000000003b138                dsm_local_unicast_addresses_get
 .text.dsm_address_publish_add
                0x000000000003b158      0x318 CMakeFiles/enocean_switch_nrf52840_xxAA_s140_6.0.0.dir/__/__/mesh/access/src/device_state_manager.c.obj
                0x000000000003b158                dsm_address_publish_add
 .text.dsm_address_publish_add_handle
                0x000000000003b470       0x54 CMakeFiles/enocean_switch_nrf52840_xxAA_s140_6.0.0.dir/__/__/mesh/access/src/device_state_manager.c.obj
                0x000000000003b470                dsm_address_publish_add_handle
 .text.dsm_address_publish_virtual_add
                0x000000000003b4c4      0x2b4 CMakeFiles/enocean_switch_nrf52840_xxAA_s140_6.0.0.dir/__/__/mesh/access/src/device_state_manager.c.obj
                0x000000000003b4c4                dsm_address_publish_virtual_add
 .text.dsm_address_publish_remove
                0x000000000003b778       0xcc CMakeFiles/enocean_switch_nrf52840_xxAA_s140_6.0.0.dir/__/__/mesh/access/src/device_state_manager.c.obj
                0x000000000003b778                dsm_address_publish_remove
 .text.dsm_address_subscription_add
                0x000000000003b844      0x354 CMakeFiles/enocean_switch_nrf52840_xxAA_s140_6.0.0.dir/__/__/mesh/access/src/device_state_manager.c.obj
                0x000000000003b844                dsm_address_subscription_add
 .text.dsm_address_subscription_virtual_add
                0x000000000003bb98      0x2b4 CMakeFiles/enocean_switch_nrf52840_xxAA_s140_6.0.0.dir/__/__/mesh/access/src/device_state_manager.c.obj
                0x000000000003bb98                dsm_address_subscription_virtual_add
 .text.dsm_address_subscription_add_handle
                0x000000000003be4c       0x54 CMakeFiles/enocean_switch_nrf52840_xxAA_s140_6.0.0.dir/__/__/mesh/access/src/device_state_manager.c.obj
                0x000000000003be4c                dsm_address_subscription_add_handle
 .text.dsm_address_subscription_get
                0x000000000003bea0       0x5c CMakeFiles/enocean_switch_nrf52840_xxAA_s140_6.0.0.dir/__/__/mesh/access/src/device_state_manager.c.obj
                0x000000000003bea0                dsm_address_subscription_get
 .text.dsm_address_subscription_remove
                0x000000000003befc       0x90 CMakeFiles/enocean_switch_nrf52840_xxAA_s140_6.0.0.dir/__/__/mesh/access/src/device_state_manager.c.obj
                0x000000000003befc                dsm_address_subscription_remove
 .text.dsm_address_get
                0x000000000003bf8c       0x78 CMakeFiles/enocean_switch_nrf52840_xxAA_s140_6.0.0.dir/__/__/mesh/access/src/device_state_manager.c.obj
                0x000000000003bf8c                dsm_address_get
 .text.dsm_address_handle_get
                0x000000000003c004      0x3a4 CMakeFiles/enocean_switch_nrf52840_xxAA_s140_6.0.0.dir/__/__/mesh/access/src/device_state_manager.c.obj
                0x000000000003c004                dsm_address_handle_get
 .text.dsm_net_key_index_to_subnet_handle
                0x000000000003c3a8       0x5c CMakeFiles/enocean_switch_nrf52840_xxAA_s140_6.0.0.dir/__/__/mesh/access/src/device_state_manager.c.obj
                0x000000000003c3a8                dsm_net_key_index_to_subnet_handle
 .text.dsm_subnet_handle_get
                0x000000000003c404       0xa8 CMakeFiles/enocean_switch_nrf52840_xxAA_s140_6.0.0.dir/__/__/mesh/access/src/device_state_manager.c.obj
                0x000000000003c404                dsm_subnet_handle_get
 .text.dsm_appkey_index_to_appkey_handle
                0x000000000003c4ac       0xa0 CMakeFiles/enocean_switch_nrf52840_xxAA_s140_6.0.0.dir/__/__/mesh/access/src/device_state_manager.c.obj
                0x000000000003c4ac                dsm_appkey_index_to_appkey_handle
 .text.dsm_appkey_handle_get
                0x000000000003c54c       0x44 CMakeFiles/enocean_switch_nrf52840_xxAA_s140_6.0.0.dir/__/__/mesh/access/src/device_state_manager.c.obj
                0x000000000003c54c                dsm_appkey_handle_get
 .text.dsm_appkey_handle_to_appkey_index
                0x000000000003c590       0x34 CMakeFiles/enocean_switch_nrf52840_xxAA_s140_6.0.0.dir/__/__/mesh/access/src/device_state_manager.c.obj
                0x000000000003c590                dsm_appkey_handle_to_appkey_index
 .text.dsm_appkey_handle_to_subnet_handle
                0x000000000003c5c4       0xb8 CMakeFiles/enocean_switch_nrf52840_xxAA_s140_6.0.0.dir/__/__/mesh/access/src/device_state_manager.c.obj
                0x000000000003c5c4                dsm_appkey_handle_to_subnet_handle
 .text.dsm_subnet_add
                0x000000000003c67c      0x210 CMakeFiles/enocean_switch_nrf52840_xxAA_s140_6.0.0.dir/__/__/mesh/access/src/device_state_manager.c.obj
                0x000000000003c67c                dsm_subnet_add
 .text.dsm_subnet_kr_phase_get
                0x000000000003c88c       0x30 CMakeFiles/enocean_switch_nrf52840_xxAA_s140_6.0.0.dir/__/__/mesh/access/src/device_state_manager.c.obj
                0x000000000003c88c                dsm_subnet_kr_phase_get
 .text.dsm_subnet_update
                0x000000000003c8bc      0x118 CMakeFiles/enocean_switch_nrf52840_xxAA_s140_6.0.0.dir/__/__/mesh/access/src/device_state_manager.c.obj
                0x000000000003c8bc                dsm_subnet_update
 .text.dsm_subnet_update_swap_keys
                0x000000000003c9d4       0xa8 CMakeFiles/enocean_switch_nrf52840_xxAA_s140_6.0.0.dir/__/__/mesh/access/src/device_state_manager.c.obj
                0x000000000003c9d4                dsm_subnet_update_swap_keys
 .text.dsm_subnet_update_commit
                0x000000000003ca7c      0x1b8 CMakeFiles/enocean_switch_nrf52840_xxAA_s140_6.0.0.dir/__/__/mesh/access/src/device_state_manager.c.obj
                0x000000000003ca7c                dsm_subnet_update_commit
 .text.dsm_subnet_delete
                0x000000000003cc34      0x330 CMakeFiles/enocean_switch_nrf52840_xxAA_s140_6.0.0.dir/__/__/mesh/access/src/device_state_manager.c.obj
                0x000000000003cc34                dsm_subnet_delete
 .text.dsm_subnet_get_all
                0x000000000003cf64       0x90 CMakeFiles/enocean_switch_nrf52840_xxAA_s140_6.0.0.dir/__/__/mesh/access/src/device_state_manager.c.obj
                0x000000000003cf64                dsm_subnet_get_all
 .text.dsm_devkey_add
                0x000000000003cff4      0x108 CMakeFiles/enocean_switch_nrf52840_xxAA_s140_6.0.0.dir/__/__/mesh/access/src/device_state_manager.c.obj
                0x000000000003cff4                dsm_devkey_add
 .text.dsm_appkey_add
                0x000000000003d0fc      0x288 CMakeFiles/enocean_switch_nrf52840_xxAA_s140_6.0.0.dir/__/__/mesh/access/src/device_state_manager.c.obj
                0x000000000003d0fc                dsm_appkey_add
 .text.dsm_appkey_update
                0x000000000003d384       0xf8 CMakeFiles/enocean_switch_nrf52840_xxAA_s140_6.0.0.dir/__/__/mesh/access/src/device_state_manager.c.obj
                0x000000000003d384                dsm_appkey_update
 .text.dsm_appkey_delete
                0x000000000003d47c       0x68 CMakeFiles/enocean_switch_nrf52840_xxAA_s140_6.0.0.dir/__/__/mesh/access/src/device_state_manager.c.obj
                0x000000000003d47c                dsm_appkey_delete
 .text.dsm_appkey_get_all
                0x000000000003d4e4      0x15c CMakeFiles/enocean_switch_nrf52840_xxAA_s140_6.0.0.dir/__/__/mesh/access/src/device_state_manager.c.obj
                0x000000000003d4e4                dsm_appkey_get_all
 .text.dsm_tx_secmat_get
                0x000000000003d640       0xdc CMakeFiles/enocean_switch_nrf52840_xxAA_s140_6.0.0.dir/__/__/mesh/access/src/device_state_manager.c.obj
                0x000000000003d640                dsm_tx_secmat_get
 .text.dsm_net_secmat_from_keyindex_get
                0x000000000003d71c       0x7c CMakeFiles/enocean_switch_nrf52840_xxAA_s140_6.0.0.dir/__/__/mesh/access/src/device_state_manager.c.obj
                0x000000000003d71c                dsm_net_secmat_from_keyindex_get
 .text.nrf_mesh_net_secmat_next_get
                0x000000000003d798      0x230 CMakeFiles/enocean_switch_nrf52840_xxAA_s140_6.0.0.dir/__/__/mesh/access/src/device_state_manager.c.obj
                0x000000000003d798                nrf_mesh_net_secmat_next_get
 .text.nrf_mesh_app_secmat_next_get
                0x000000000003d9c8      0x278 CMakeFiles/enocean_switch_nrf52840_xxAA_s140_6.0.0.dir/__/__/mesh/access/src/device_state_manager.c.obj
                0x000000000003d9c8                nrf_mesh_app_secmat_next_get
 .text.nrf_mesh_devkey_secmat_get
                0x000000000003dc40       0x30 CMakeFiles/enocean_switch_nrf52840_xxAA_s140_6.0.0.dir/__/__/mesh/access/src/device_state_manager.c.obj
                0x000000000003dc40                nrf_mesh_devkey_secmat_get
 .text.nrf_mesh_beacon_info_next_get
                0x000000000003dc70      0x170 CMakeFiles/enocean_switch_nrf52840_xxAA_s140_6.0.0.dir/__/__/mesh/access/src/device_state_manager.c.obj
                0x000000000003dc70                nrf_mesh_beacon_info_next_get
 .text.nrf_mesh_rx_address_get
                0x000000000003dde0      0x570 CMakeFiles/enocean_switch_nrf52840_xxAA_s140_6.0.0.dir/__/__/mesh/access/src/device_state_manager.c.obj
                0x000000000003dde0                nrf_mesh_rx_address_get
 .text.nrf_mesh_unicast_address_get
                0x000000000003e350       0x24 CMakeFiles/enocean_switch_nrf52840_xxAA_s140_6.0.0.dir/__/__/mesh/access/src/device_state_manager.c.obj
                0x000000000003e350                nrf_mesh_unicast_address_get
 .text.prov_provisionee_cb_link_established
                0x000000000003e374       0x40 CMakeFiles/enocean_switch_nrf52840_xxAA_s140_6.0.0.dir/__/__/mesh/prov/src/prov_provisionee.c.obj
 .text.prov_provisionee_cb_link_closed
                0x000000000003e3b4       0x50 CMakeFiles/enocean_switch_nrf52840_xxAA_s140_6.0.0.dir/__/__/mesh/prov/src/prov_provisionee.c.obj
 .text.request_authentication
                0x000000000003e404       0x90 CMakeFiles/enocean_switch_nrf52840_xxAA_s140_6.0.0.dir/__/__/mesh/prov/src/prov_provisionee.c.obj
 .text.send_failed
                0x000000000003e494       0x38 CMakeFiles/enocean_switch_nrf52840_xxAA_s140_6.0.0.dir/__/__/mesh/prov/src/prov_provisionee.c.obj
 .text.prov_provisionee_cb_ack_received
                0x000000000003e4cc      0x174 CMakeFiles/enocean_switch_nrf52840_xxAA_s140_6.0.0.dir/__/__/mesh/prov/src/prov_provisionee.c.obj
 .text.prov_provisionee_pkt_in
                0x000000000003e640      0x428 CMakeFiles/enocean_switch_nrf52840_xxAA_s140_6.0.0.dir/__/__/mesh/prov/src/prov_provisionee.c.obj
 .text.prov_provisionee_listen
                0x000000000003ea68       0x34 CMakeFiles/enocean_switch_nrf52840_xxAA_s140_6.0.0.dir/__/__/mesh/prov/src/prov_provisionee.c.obj
                0x000000000003ea68                prov_provisionee_listen
 .text.prov_provisionee_auth_data
                0x000000000003ea9c      0x100 CMakeFiles/enocean_switch_nrf52840_xxAA_s140_6.0.0.dir/__/__/mesh/prov/src/prov_provisionee.c.obj
                0x000000000003ea9c                prov_provisionee_auth_data
 .text.bearer_compare_callback
                0x000000000003eb9c       0x10 CMakeFiles/enocean_switch_nrf52840_xxAA_s140_6.0.0.dir/__/__/mesh/prov/src/nrf_mesh_prov.c.obj
 .text.nrf_mesh_prov_init
                0x000000000003ebac       0x3c CMakeFiles/enocean_switch_nrf52840_xxAA_s140_6.0.0.dir/__/__/mesh/prov/src/nrf_mesh_prov.c.obj
                0x000000000003ebac                nrf_mesh_prov_init
 .text.nrf_mesh_prov_bearer_add
                0x000000000003ebe8       0x2c CMakeFiles/enocean_switch_nrf52840_xxAA_s140_6.0.0.dir/__/__/mesh/prov/src/nrf_mesh_prov.c.obj
                0x000000000003ebe8                nrf_mesh_prov_bearer_add
 .text.nrf_mesh_prov_generate_keys
                0x000000000003ec14        0x4 CMakeFiles/enocean_switch_nrf52840_xxAA_s140_6.0.0.dir/__/__/mesh/prov/src/nrf_mesh_prov.c.obj
                0x000000000003ec14                nrf_mesh_prov_generate_keys
 .text.nrf_mesh_prov_listen
                0x000000000003ec18       0xf0 CMakeFiles/enocean_switch_nrf52840_xxAA_s140_6.0.0.dir/__/__/mesh/prov/src/nrf_mesh_prov.c.obj
                0x000000000003ec18                nrf_mesh_prov_listen
 .text.nrf_mesh_prov_auth_data_provide
                0x000000000003ed08       0x10 CMakeFiles/enocean_switch_nrf52840_xxAA_s140_6.0.0.dir/__/__/mesh/prov/src/nrf_mesh_prov.c.obj
                0x000000000003ed08                nrf_mesh_prov_auth_data_provide
 .text.prov_packet_length_valid
                0x000000000003ed18       0x20 CMakeFiles/enocean_switch_nrf52840_xxAA_s140_6.0.0.dir/__/__/mesh/prov/src/provisioning.c.obj
                0x000000000003ed18                prov_packet_length_valid
 .text.prov_tx_capabilities
                0x000000000003ed38       0x38 CMakeFiles/enocean_switch_nrf52840_xxAA_s140_6.0.0.dir/__/__/mesh/prov/src/provisioning.c.obj
                0x000000000003ed38                prov_tx_capabilities
 .text.prov_tx_public_key
                0x000000000003ed70       0x30 CMakeFiles/enocean_switch_nrf52840_xxAA_s140_6.0.0.dir/__/__/mesh/prov/src/provisioning.c.obj
                0x000000000003ed70                prov_tx_public_key
 .text.prov_tx_input_complete
                0x000000000003eda0       0x28 CMakeFiles/enocean_switch_nrf52840_xxAA_s140_6.0.0.dir/__/__/mesh/prov/src/provisioning.c.obj
                0x000000000003eda0                prov_tx_input_complete
 .text.prov_tx_confirmation
                0x000000000003edc8       0x30 CMakeFiles/enocean_switch_nrf52840_xxAA_s140_6.0.0.dir/__/__/mesh/prov/src/provisioning.c.obj
                0x000000000003edc8                prov_tx_confirmation
 .text.prov_tx_random
                0x000000000003edf8       0x30 CMakeFiles/enocean_switch_nrf52840_xxAA_s140_6.0.0.dir/__/__/mesh/prov/src/provisioning.c.obj
                0x000000000003edf8                prov_tx_random
 .text.prov_tx_complete
                0x000000000003ee28       0x28 CMakeFiles/enocean_switch_nrf52840_xxAA_s140_6.0.0.dir/__/__/mesh/prov/src/provisioning.c.obj
                0x000000000003ee28                prov_tx_complete
 .text.prov_tx_failed
                0x000000000003ee50       0x2c CMakeFiles/enocean_switch_nrf52840_xxAA_s140_6.0.0.dir/__/__/mesh/prov/src/provisioning.c.obj
                0x000000000003ee50                prov_tx_failed
 .text.prov_beacon_unprov_build
                0x000000000003ee7c       0x54 CMakeFiles/enocean_switch_nrf52840_xxAA_s140_6.0.0.dir/__/__/mesh/prov/src/prov_beacon.c.obj
                0x000000000003ee7c                prov_beacon_unprov_build
 .text.prov_beacon_unprov_packet_in
                0x000000000003eed0       0xd0 CMakeFiles/enocean_switch_nrf52840_xxAA_s140_6.0.0.dir/__/__/mesh/prov/src/prov_beacon.c.obj
                0x000000000003eed0                prov_beacon_unprov_packet_in
 .text.prov_utils_opt_set
                0x000000000003efa0       0x24 CMakeFiles/enocean_switch_nrf52840_xxAA_s140_6.0.0.dir/__/__/mesh/prov/src/prov_utils.c.obj
                0x000000000003efa0                prov_utils_opt_set
 .text.prov_utils_opt_get
                0x000000000003efc4       0x1c CMakeFiles/enocean_switch_nrf52840_xxAA_s140_6.0.0.dir/__/__/mesh/prov/src/prov_utils.c.obj
                0x000000000003efc4                prov_utils_opt_get
 .text.prov_utils_use_ecdh_offloading
                0x000000000003efe0        0xc CMakeFiles/enocean_switch_nrf52840_xxAA_s140_6.0.0.dir/__/__/mesh/prov/src/prov_utils.c.obj
                0x000000000003efe0                prov_utils_use_ecdh_offloading
 .text.prov_utils_authentication_values_derive
                0x000000000003efec       0xac CMakeFiles/enocean_switch_nrf52840_xxAA_s140_6.0.0.dir/__/__/mesh/prov/src/prov_utils.c.obj
                0x000000000003efec                prov_utils_authentication_values_derive
 .text.prov_utils_keys_generate
                0x000000000003f098       0x20 CMakeFiles/enocean_switch_nrf52840_xxAA_s140_6.0.0.dir/__/__/mesh/prov/src/prov_utils.c.obj
                0x000000000003f098                prov_utils_keys_generate
 .text.prov_utils_derive_keys
                0x000000000003f0b8       0xb4 CMakeFiles/enocean_switch_nrf52840_xxAA_s140_6.0.0.dir/__/__/mesh/prov/src/prov_utils.c.obj
                0x000000000003f0b8                prov_utils_derive_keys
 .text.prov_utils_calculate_shared_secret
                0x000000000003f16c       0x34 CMakeFiles/enocean_switch_nrf52840_xxAA_s140_6.0.0.dir/__/__/mesh/prov/src/prov_utils.c.obj
                0x000000000003f16c                prov_utils_calculate_shared_secret
 .text.prov_utils_generate_oob_data
                0x000000000003f1a0      0x1b8 CMakeFiles/enocean_switch_nrf52840_xxAA_s140_6.0.0.dir/__/__/mesh/prov/src/prov_utils.c.obj
                0x000000000003f1a0                prov_utils_generate_oob_data
 .text.prov_utils_confirmation_check
                0x000000000003f358       0x5c CMakeFiles/enocean_switch_nrf52840_xxAA_s140_6.0.0.dir/__/__/mesh/prov/src/prov_utils.c.obj
                0x000000000003f358                prov_utils_confirmation_check
 .text.link_timeout_cb
                0x000000000003f3b4       0x10 CMakeFiles/enocean_switch_nrf52840_xxAA_s140_6.0.0.dir/__/__/mesh/prov/src/prov_bearer_adv.c.obj
 .text.prov_bearer_adv_listen_stop
                0x000000000003f3c4       0x98 CMakeFiles/enocean_switch_nrf52840_xxAA_s140_6.0.0.dir/__/__/mesh/prov/src/prov_bearer_adv.c.obj
 .text.tx_complete_cb
                0x000000000003f45c       0x20 CMakeFiles/enocean_switch_nrf52840_xxAA_s140_6.0.0.dir/__/__/mesh/prov/src/prov_bearer_adv.c.obj
 .text.prov_bearer_adv_listen
                0x000000000003f47c      0x15c CMakeFiles/enocean_switch_nrf52840_xxAA_s140_6.0.0.dir/__/__/mesh/prov/src/prov_bearer_adv.c.obj
 .text.close_link
                0x000000000003f5d8       0xd8 CMakeFiles/enocean_switch_nrf52840_xxAA_s140_6.0.0.dir/__/__/mesh/prov/src/prov_bearer_adv.c.obj
 .text.send_link_ack
                0x000000000003f6b0       0x70 CMakeFiles/enocean_switch_nrf52840_xxAA_s140_6.0.0.dir/__/__/mesh/prov/src/prov_bearer_adv.c.obj
 .text.send_transaction_ack
                0x000000000003f720       0x68 CMakeFiles/enocean_switch_nrf52840_xxAA_s140_6.0.0.dir/__/__/mesh/prov/src/prov_bearer_adv.c.obj
 .text.prov_buffer_rx
                0x000000000003f788       0xa0 CMakeFiles/enocean_switch_nrf52840_xxAA_s140_6.0.0.dir/__/__/mesh/prov/src/prov_bearer_adv.c.obj
 .text.prov_bearer_adv_link_open
                0x000000000003f828      0x1b8 CMakeFiles/enocean_switch_nrf52840_xxAA_s140_6.0.0.dir/__/__/mesh/prov/src/prov_bearer_adv.c.obj
 .text.prov_bearer_adv_link_close
                0x000000000003f9e0       0xcc CMakeFiles/enocean_switch_nrf52840_xxAA_s140_6.0.0.dir/__/__/mesh/prov/src/prov_bearer_adv.c.obj
 .text.prov_buffer_tx
                0x000000000003faac      0x1e4 CMakeFiles/enocean_switch_nrf52840_xxAA_s140_6.0.0.dir/__/__/mesh/prov/src/prov_bearer_adv.c.obj
 .text.tx_retry_cb
                0x000000000003fc90      0x130 CMakeFiles/enocean_switch_nrf52840_xxAA_s140_6.0.0.dir/__/__/mesh/prov/src/prov_bearer_adv.c.obj
 .text.prov_bearer_adv_tx
                0x000000000003fdc0       0xe8 CMakeFiles/enocean_switch_nrf52840_xxAA_s140_6.0.0.dir/__/__/mesh/prov/src/prov_bearer_adv.c.obj
 .text.async_process
                0x000000000003fea8      0x118 CMakeFiles/enocean_switch_nrf52840_xxAA_s140_6.0.0.dir/__/__/mesh/prov/src/prov_bearer_adv.c.obj
 .text.nrf_mesh_prov_bearer_adv_interface_get
                0x000000000003ffc0       0x40 CMakeFiles/enocean_switch_nrf52840_xxAA_s140_6.0.0.dir/__/__/mesh/prov/src/prov_bearer_adv.c.obj
                0x000000000003ffc0                nrf_mesh_prov_bearer_adv_interface_get
 .text.prov_bearer_adv_packet_in
                0x0000000000040000      0x914 CMakeFiles/enocean_switch_nrf52840_xxAA_s140_6.0.0.dir/__/__/mesh/prov/src/prov_bearer_adv.c.obj
                0x0000000000040000                prov_bearer_adv_packet_in
 .text.SystemInit
                0x0000000000040914      0x1c4 CMakeFiles/enocean_switch_nrf52840_xxAA_s140_6.0.0.dir/home/mazzer/work/nordic/sdk/nRF5_SDK_15.0.0/modules/nrfx/mdk/system_nrf52840.c.obj
                0x0000000000040914                SystemInit
 .text          0x0000000000040ad8       0x3c CMakeFiles/enocean_switch_nrf52840_xxAA_s140_6.0.0.dir/home/mazzer/work/nordic/sdk/nRF5_SDK_15.0.0/modules/nrfx/mdk/gcc_startup_nrf52840.S.obj
                0x0000000000040ad8                Reset_Handler
                0x0000000000040b00                NMI_Handler
                0x0000000000040b02                HardFault_Handler
                0x0000000000040b04                MemoryManagement_Handler
                0x0000000000040b06                BusFault_Handler
                0x0000000000040b08                UsageFault_Handler
                0x0000000000040b0a                SVC_Handler
                0x0000000000040b0c                DebugMon_Handler
                0x0000000000040b0e                PendSV_Handler
                0x0000000000040b10                SysTick_Handler
                0x0000000000040b12                RTC0_IRQHandler
                0x0000000000040b12                SWI0_EGU0_IRQHandler
                0x0000000000040b12                PWM1_IRQHandler
                0x0000000000040b12                POWER_CLOCK_IRQHandler
                0x0000000000040b12                RADIO_IRQHandler
                0x0000000000040b12                PDM_IRQHandler
                0x0000000000040b12                TEMP_IRQHandler
                0x0000000000040b12                TIMER3_IRQHandler
                0x0000000000040b12                PWM3_IRQHandler
                0x0000000000040b12                FPU_IRQHandler
                0x0000000000040b12                USBD_IRQHandler
                0x0000000000040b12                SPIM0_SPIS0_TWIM0_TWIS0_SPI0_TWI0_IRQHandler
                0x0000000000040b12                UARTE0_UART0_IRQHandler
                0x0000000000040b12                TIMER4_IRQHandler
                0x0000000000040b12                CRYPTOCELL_IRQHandler
                0x0000000000040b12                I2S_IRQHandler
                0x0000000000040b12                SWI4_EGU4_IRQHandler
                0x0000000000040b12                TIMER0_IRQHandler
                0x0000000000040b12                UARTE1_IRQHandler
                0x0000000000040b12                TIMER1_IRQHandler
                0x0000000000040b12                SPIM3_IRQHandler
                0x0000000000040b12                PWM2_IRQHandler
                0x0000000000040b12                ECB_IRQHandler
                0x0000000000040b12                SPIM1_SPIS1_TWIM1_TWIS1_SPI1_TWI1_IRQHandler
                0x0000000000040b12                Default_Handler
                0x0000000000040b12                SAADC_IRQHandler
                0x0000000000040b12                CCM_AAR_IRQHandler
                0x0000000000040b12                WDT_IRQHandler
                0x0000000000040b12                SWI5_EGU5_IRQHandler
                0x0000000000040b12                RNG_IRQHandler
                0x0000000000040b12                RTC2_IRQHandler
                0x0000000000040b12                PWM0_IRQHandler
                0x0000000000040b12                SWI3_EGU3_IRQHandler
                0x0000000000040b12                RTC1_IRQHandler
                0x0000000000040b12                SWI1_EGU1_IRQHandler
                0x0000000000040b12                SPIM2_SPIS2_SPI2_IRQHandler
                0x0000000000040b12                NFCT_IRQHandler
                0x0000000000040b12                MWU_IRQHandler
                0x0000000000040b12                QSPI_IRQHandler
                0x0000000000040b12                COMP_LPCOMP_IRQHandler
 .text.app_error_handler_bare
                0x0000000000040b14       0x20 CMakeFiles/enocean_switch_nrf52840_xxAA_s140_6.0.0.dir/home/mazzer/work/nordic/sdk/nRF5_SDK_15.0.0/components/libraries/util/app_error.c.obj
                0x0000000000040b14                app_error_handler_bare
 .text.app_error_handler
                0x0000000000040b34       0x1c CMakeFiles/enocean_switch_nrf52840_xxAA_s140_6.0.0.dir/home/mazzer/work/nordic/sdk/nRF5_SDK_15.0.0/components/libraries/util/app_error_handler_gcc.c.obj
                0x0000000000040b34                app_error_handler
 .text.SEGGER_RTT_Write
                0x0000000000040b50      0x1f4 ../../external/rtt/librtt_nrf52840_xxAA.a(SEGGER_RTT.c.obj)
                0x0000000000040b50                SEGGER_RTT_Write
 .text.SEGGER_RTT_GetKey
                0x0000000000040d44       0xf8 ../../external/rtt/librtt_nrf52840_xxAA.a(SEGGER_RTT.c.obj)
                0x0000000000040d44                SEGGER_RTT_GetKey
 .text._PrintUnsigned
                0x0000000000040e3c      0x17c ../../external/rtt/librtt_nrf52840_xxAA.a(SEGGER_RTT_printf.c.obj)
 .text.SEGGER_RTT_vprintf
                0x0000000000040fb8      0x524 ../../external/rtt/librtt_nrf52840_xxAA.a(SEGGER_RTT_printf.c.obj)
                0x0000000000040fb8                SEGGER_RTT_vprintf
 .text.SEGGER_RTT_printf
                0x00000000000414dc       0x20 ../../external/rtt/librtt_nrf52840_xxAA.a(SEGGER_RTT_printf.c.obj)
                0x00000000000414dc                SEGGER_RTT_printf
 .text.default_RNG
                0x00000000000414fc        0xc ../../external/micro-ecc/libuECC_nrf52840_xxAA.a(uECC.c.obj)
 .text.uECC_generate_random_int
                0x0000000000041508      0x17c ../../external/micro-ecc/libuECC_nrf52840_xxAA.a(uECC.c.obj)
 .text.apply_z  0x0000000000041684      0x1a8 ../../external/micro-ecc/libuECC_nrf52840_xxAA.a(uECC.c.obj)
 .text.uECC_vli_modAdd
                0x000000000004182c       0xd8 ../../external/micro-ecc/libuECC_nrf52840_xxAA.a(uECC.c.obj)
 .text.x_side_default
                0x0000000000041904      0x26c ../../external/micro-ecc/libuECC_nrf52840_xxAA.a(uECC.c.obj)
 .text.vli_mmod_fast_secp256r1
                0x0000000000041b70      0x514 ../../external/micro-ecc/libuECC_nrf52840_xxAA.a(uECC.c.obj)
 .text.XYcZ_add
                0x0000000000042084      0x6e0 ../../external/micro-ecc/libuECC_nrf52840_xxAA.a(uECC.c.obj)
 .text.XYcZ_addC
                0x0000000000042764      0xabc ../../external/micro-ecc/libuECC_nrf52840_xxAA.a(uECC.c.obj)
 .text.uECC_vli_modInv.part.4
                0x0000000000043220      0x71c ../../external/micro-ecc/libuECC_nrf52840_xxAA.a(uECC.c.obj)
 .text.EccPoint_mult
                0x000000000004393c      0x4a4 ../../external/micro-ecc/libuECC_nrf52840_xxAA.a(uECC.c.obj)
 .text.double_jacobian_default
                0x0000000000043de0      0x814 ../../external/micro-ecc/libuECC_nrf52840_xxAA.a(uECC.c.obj)
 .text.uECC_secp256r1
                0x00000000000445f4        0x8 ../../external/micro-ecc/libuECC_nrf52840_xxAA.a(uECC.c.obj)
                0x00000000000445f4                uECC_secp256r1
 .text.uECC_make_key
                0x00000000000445fc      0x240 ../../external/micro-ecc/libuECC_nrf52840_xxAA.a(uECC.c.obj)
                0x00000000000445fc                uECC_make_key
 .text.uECC_shared_secret
                0x000000000004483c      0x314 ../../external/micro-ecc/libuECC_nrf52840_xxAA.a(uECC.c.obj)
                0x000000000004483c                uECC_shared_secret
 .text.uECC_valid_public_key
                0x0000000000044b50      0x230 ../../external/micro-ecc/libuECC_nrf52840_xxAA.a(uECC.c.obj)
                0x0000000000044b50                uECC_valid_public_key
 .text          0x0000000000044d80       0x30 /usr/bin/../lib/gcc/arm-none-eabi/7.2.1/thumb/v7e-m/fpv4-sp/hard/libgcc.a(_aeabi_uldivmod.o)
                0x0000000000044d80                __aeabi_uldivmod
 .text          0x0000000000044db0      0x2cc /usr/bin/../lib/gcc/arm-none-eabi/7.2.1/thumb/v7e-m/fpv4-sp/hard/libgcc.a(_udivmoddi4.o)
                0x0000000000044db0                __udivmoddi4
 .text          0x000000000004507c        0x4 /usr/bin/../lib/gcc/arm-none-eabi/7.2.1/thumb/v7e-m/fpv4-sp/hard/libgcc.a(_dvmd_tls.o)
                0x000000000004507c                __aeabi_ldiv0
                0x000000000004507c                __aeabi_idiv0
 .text.exit     0x0000000000045080       0x28 /usr/bin/../lib/gcc/arm-none-eabi/7.2.1/../../../../arm-none-eabi/lib/thumb/v7e-m/fpv4-sp/hard/libg_nano.a(lib_a-exit.o)
                0x0000000000045080                exit
 .text.__libc_init_array
                0x00000000000450a8       0x48 /usr/bin/../lib/gcc/arm-none-eabi/7.2.1/../../../../arm-none-eabi/lib/thumb/v7e-m/fpv4-sp/hard/libg_nano.a(lib_a-init.o)
                0x00000000000450a8                __libc_init_array
 .text.malloc   0x00000000000450f0       0x10 /usr/bin/../lib/gcc/arm-none-eabi/7.2.1/../../../../arm-none-eabi/lib/thumb/v7e-m/fpv4-sp/hard/libg_nano.a(lib_a-malloc.o)
                0x00000000000450f0                malloc
 .text.free     0x0000000000045100       0x10 /usr/bin/../lib/gcc/arm-none-eabi/7.2.1/../../../../arm-none-eabi/lib/thumb/v7e-m/fpv4-sp/hard/libg_nano.a(lib_a-malloc.o)
                0x0000000000045100                free
 .text.memcmp   0x0000000000045110       0x1e /usr/bin/../lib/gcc/arm-none-eabi/7.2.1/../../../../arm-none-eabi/lib/thumb/v7e-m/fpv4-sp/hard/libg_nano.a(lib_a-memcmp.o)
                0x0000000000045110                memcmp
 .text.memcpy   0x000000000004512e       0x16 /usr/bin/../lib/gcc/arm-none-eabi/7.2.1/../../../../arm-none-eabi/lib/thumb/v7e-m/fpv4-sp/hard/libg_nano.a(lib_a-memcpy-stub.o)
                0x000000000004512e                memcpy
 .text.memset   0x0000000000045144       0x10 /usr/bin/../lib/gcc/arm-none-eabi/7.2.1/../../../../arm-none-eabi/lib/thumb/v7e-m/fpv4-sp/hard/libg_nano.a(lib_a-memset.o)
                0x0000000000045144                memset
 .text._free_r  0x0000000000045154       0x9c /usr/bin/../lib/gcc/arm-none-eabi/7.2.1/../../../../arm-none-eabi/lib/thumb/v7e-m/fpv4-sp/hard/libg_nano.a(lib_a-nano-freer.o)
                0x0000000000045154                _free_r
 .text._malloc_r
                0x00000000000451f0       0xb4 /usr/bin/../lib/gcc/arm-none-eabi/7.2.1/../../../../arm-none-eabi/lib/thumb/v7e-m/fpv4-sp/hard/libg_nano.a(lib_a-nano-mallocr.o)
                0x00000000000451f0                _malloc_r
 .text._sbrk_r  0x00000000000452a4       0x20 /usr/bin/../lib/gcc/arm-none-eabi/7.2.1/../../../../arm-none-eabi/lib/thumb/v7e-m/fpv4-sp/hard/libg_nano.a(lib_a-sbrkr.o)
                0x00000000000452a4                _sbrk_r
 .text.strcpy   0x00000000000452c4       0x10 /usr/bin/../lib/gcc/arm-none-eabi/7.2.1/../../../../arm-none-eabi/lib/thumb/v7e-m/fpv4-sp/hard/libg_nano.a(lib_a-strcpy.o)
                0x00000000000452c4                strcpy
 .text          0x00000000000452d4       0x10 /usr/bin/../lib/gcc/arm-none-eabi/7.2.1/../../../../arm-none-eabi/lib/thumb/v7e-m/fpv4-sp/hard/libg_nano.a(lib_a-strlen.o)
                0x00000000000452d4                strlen
 .text.strrchr  0x00000000000452e4       0x28 /usr/bin/../lib/gcc/arm-none-eabi/7.2.1/../../../../arm-none-eabi/lib/thumb/v7e-m/fpv4-sp/hard/libg_nano.a(lib_a-strrchr.o)
                0x00000000000452e4                strrchr
 .text.__malloc_lock
                0x000000000004530c        0x2 /usr/bin/../lib/gcc/arm-none-eabi/7.2.1/../../../../arm-none-eabi/lib/thumb/v7e-m/fpv4-sp/hard/libg_nano.a(lib_a-mlock.o)
                0x000000000004530c                __malloc_lock
 .text.__malloc_unlock
                0x000000000004530e        0x2 /usr/bin/../lib/gcc/arm-none-eabi/7.2.1/../../../../arm-none-eabi/lib/thumb/v7e-m/fpv4-sp/hard/libg_nano.a(lib_a-mlock.o)
                0x000000000004530e                __malloc_unlock
 .text.strchr   0x0000000000045310       0x1a /usr/bin/../lib/gcc/arm-none-eabi/7.2.1/../../../../arm-none-eabi/lib/thumb/v7e-m/fpv4-sp/hard/libg_nano.a(lib_a-strchr.o)
                0x0000000000045310                strchr
 *fill*         0x000000000004532a        0x2 
 .text._sbrk    0x000000000004532c       0x1c /usr/bin/../lib/gcc/arm-none-eabi/7.2.1/../../../../arm-none-eabi/lib/thumb/v7e-m/fpv4-sp/hard/libnosys.a(sbrk.o)
                0x000000000004532c                _sbrk
 .text._exit    0x0000000000045348        0x4 /usr/bin/../lib/gcc/arm-none-eabi/7.2.1/../../../../arm-none-eabi/lib/thumb/v7e-m/fpv4-sp/hard/libnosys.a(_exit.o)
                0x0000000000045348                _exit
 *(.init)
 .init          0x000000000004534c        0x4 /usr/bin/../lib/gcc/arm-none-eabi/7.2.1/thumb/v7e-m/fpv4-sp/hard/crti.o
                0x000000000004534c                _init
 .init          0x0000000000045350        0x8 /usr/bin/../lib/gcc/arm-none-eabi/7.2.1/thumb/v7e-m/fpv4-sp/hard/crtn.o
 *(.fini)
 .fini          0x0000000000045358        0x4 /usr/bin/../lib/gcc/arm-none-eabi/7.2.1/thumb/v7e-m/fpv4-sp/hard/crti.o
                0x0000000000045358                _fini
 .fini          0x000000000004535c        0x8 /usr/bin/../lib/gcc/arm-none-eabi/7.2.1/thumb/v7e-m/fpv4-sp/hard/crtn.o
 *crtbegin.o(.ctors)
 *crtbegin?.o(.ctors)
 *(EXCLUDE_FILE(*crtend.o *crtend?.o) .ctors)
 *(SORT_BY_NAME(.ctors.*))
 *(.ctors)
 *crtbegin.o(.dtors)
 *crtbegin?.o(.dtors)
 *(EXCLUDE_FILE(*crtend.o *crtend?.o) .dtors)
 *(SORT_BY_NAME(.dtors.*))
 *(.dtors)
 *(.rodata*)
 .rodata        0x0000000000045364       0x10 CMakeFiles/enocean_switch_nrf52840_xxAA_s140_6.0.0.dir/src/main.c.obj
 .rodata.app_data_store_try.str1.4
                0x0000000000045374       0x8d CMakeFiles/enocean_switch_nrf52840_xxAA_s140_6.0.0.dir/src/main.c.obj
 *fill*         0x0000000000045401        0x3 
 .rodata.app_enocean_cb.str1.4
                0x0000000000045404       0x90 CMakeFiles/enocean_switch_nrf52840_xxAA_s140_6.0.0.dir/src/main.c.obj
 .rodata.app_mesh_core_event_cb.str1.4
                0x0000000000045494       0x5a CMakeFiles/enocean_switch_nrf52840_xxAA_s140_6.0.0.dir/src/main.c.obj
 *fill*         0x00000000000454ee        0x2 
 .rodata.button_event_handler.str1.4
                0x00000000000454f0       0x2d CMakeFiles/enocean_switch_nrf52840_xxAA_s140_6.0.0.dir/src/main.c.obj
 *fill*         0x000000000004551d        0x3 
 .rodata.client_status_cb.str1.4
                0x0000000000045520       0x2f CMakeFiles/enocean_switch_nrf52840_xxAA_s140_6.0.0.dir/src/main.c.obj
 *fill*         0x000000000004554f        0x1 
 .rodata.main.str1.4
                0x0000000000045550       0x50 CMakeFiles/enocean_switch_nrf52840_xxAA_s140_6.0.0.dir/src/main.c.obj
 .rodata.models_init_cb.str1.4
                0x00000000000455a0       0x20 CMakeFiles/enocean_switch_nrf52840_xxAA_s140_6.0.0.dir/src/main.c.obj
 .rodata.provisioning_complete_cb.str1.4
                0x00000000000455c0       0x93 CMakeFiles/enocean_switch_nrf52840_xxAA_s140_6.0.0.dir/src/main.c.obj
 *fill*         0x0000000000045653        0x1 
 .rodata.static_auth_data.13105
                0x0000000000045654       0x10 CMakeFiles/enocean_switch_nrf52840_xxAA_s140_6.0.0.dir/src/main.c.obj
 .rodata.enocean_packet_process.str1.4
                0x0000000000045664       0x7c CMakeFiles/enocean_switch_nrf52840_xxAA_s140_6.0.0.dir/src/enocean.c.obj
 .rodata.app_flash_data_store.str1.4
                0x00000000000456e0        0xe CMakeFiles/enocean_switch_nrf52840_xxAA_s140_6.0.0.dir/src/flash_helper.c.obj
 *fill*         0x00000000000456ee        0x2 
 .rodata.app_flash_init.str1.4
                0x00000000000456f0       0x2a CMakeFiles/enocean_switch_nrf52840_xxAA_s140_6.0.0.dir/src/flash_helper.c.obj
 *fill*         0x000000000004571a        0x2 
 .rodata.flash_manager_mem_available.str1.4
                0x000000000004571c       0x7d CMakeFiles/enocean_switch_nrf52840_xxAA_s140_6.0.0.dir/src/flash_helper.c.obj
 *fill*         0x0000000000045799        0x3 
 .rodata.flash_remove_complete.str1.4
                0x000000000004579c       0x17 CMakeFiles/enocean_switch_nrf52840_xxAA_s140_6.0.0.dir/src/flash_helper.c.obj
 *fill*         0x00000000000457b3        0x1 
 .rodata.flash_reset.str1.4
                0x00000000000457b4        0xf CMakeFiles/enocean_switch_nrf52840_xxAA_s140_6.0.0.dir/src/flash_helper.c.obj
 *fill*         0x00000000000457c3        0x1 
 .rodata.flash_write_complete.str1.4
                0x00000000000457c4       0x16 CMakeFiles/enocean_switch_nrf52840_xxAA_s140_6.0.0.dir/src/flash_helper.c.obj
 *fill*         0x00000000000457da        0x2 
 .rodata.mesh_softdevice_init.str1.4
                0x00000000000457dc       0xe1 CMakeFiles/enocean_switch_nrf52840_xxAA_s140_6.0.0.dir/__/common/src/mesh_softdevice_init.c.obj
 *fill*         0x00000000000458bd        0x3 
 .rodata        0x00000000000458c0        0xb CMakeFiles/enocean_switch_nrf52840_xxAA_s140_6.0.0.dir/__/common/src/mesh_provisionee.c.obj
 *fill*         0x00000000000458cb        0x5 
 .rodata.delay_bytecode.8881
                0x00000000000458d0        0x6 CMakeFiles/enocean_switch_nrf52840_xxAA_s140_6.0.0.dir/__/common/src/simple_hal.c.obj
 *fill*         0x00000000000458d6        0x2 
 .rodata.m_buttons_list
                0x00000000000458d8        0x4 CMakeFiles/enocean_switch_nrf52840_xxAA_s140_6.0.0.dir/__/common/src/simple_hal.c.obj
 .rodata.app_error_fault_handler.str1.4
                0x00000000000458dc       0xfd CMakeFiles/enocean_switch_nrf52840_xxAA_s140_6.0.0.dir/__/common/src/app_error_weak.c.obj
 .rodata.mesh_assertion_handler.str1.4
                0x00000000000459d9       0xfd CMakeFiles/enocean_switch_nrf52840_xxAA_s140_6.0.0.dir/__/common/src/assertion_handler_weak.c.obj
                                          0x1 (size before relaxing)
 *fill*         0x00000000000459d9        0x3 
 .rodata.sar_ctx_cancel.str1.4
                0x00000000000459dc       0x23 CMakeFiles/enocean_switch_nrf52840_xxAA_s140_6.0.0.dir/__/__/mesh/core/src/transport.c.obj
 *fill*         0x00000000000459ff        0x1 
 .rodata.transport_packet_in.str1.4
                0x0000000000045a00       0x24 CMakeFiles/enocean_switch_nrf52840_xxAA_s140_6.0.0.dir/__/__/mesh/core/src/transport.c.obj
 .rodata.upper_transport_access_packet_in.str1.4
                0x0000000000045a24       0x91 CMakeFiles/enocean_switch_nrf52840_xxAA_s140_6.0.0.dir/__/__/mesh/core/src/transport.c.obj
 *fill*         0x0000000000045ab5        0x3 
 .rodata.upper_transport_packet_in.str1.4
                0x0000000000045ab8       0x2e CMakeFiles/enocean_switch_nrf52840_xxAA_s140_6.0.0.dir/__/__/mesh/core/src/transport.c.obj
 *fill*         0x0000000000045ae6        0x2 
 .rodata.upper_transport_tx.part.27.str1.4
                0x0000000000045ae8        0xe CMakeFiles/enocean_switch_nrf52840_xxAA_s140_6.0.0.dir/__/__/mesh/core/src/transport.c.obj
                                         0x18 (size before relaxing)
 *fill*         0x0000000000045af6        0x2 
 .rodata.m_procedure_steps
                0x0000000000045af8       0x28 CMakeFiles/enocean_switch_nrf52840_xxAA_s140_6.0.0.dir/__/__/mesh/core/src/flash_manager_defrag.c.obj
 .rodata.m_all_operations
                0x0000000000045b20       0x10 CMakeFiles/enocean_switch_nrf52840_xxAA_s140_6.0.0.dir/__/__/mesh/core/src/mesh_flash.c.obj
 .rodata.types_lookup.9513
                0x0000000000045b30        0x4 CMakeFiles/enocean_switch_nrf52840_xxAA_s140_6.0.0.dir/__/__/mesh/core/src/nrf_mesh_utils.c.obj
 .rodata.__func__.11985
                0x0000000000045b34       0x15 CMakeFiles/enocean_switch_nrf52840_xxAA_s140_6.0.0.dir/__/__/mesh/core/src/nrf_mesh.c.obj
 *fill*         0x0000000000045b49        0x3 
 .rodata.nrf_mesh_listen.str1.4
                0x0000000000045b4c       0xab CMakeFiles/enocean_switch_nrf52840_xxAA_s140_6.0.0.dir/__/__/mesh/core/src/nrf_mesh.c.obj
 .rodata.nrf_mesh_packet_send.str1.4
                0x0000000000045bf7       0xab CMakeFiles/enocean_switch_nrf52840_xxAA_s140_6.0.0.dir/__/__/mesh/core/src/nrf_mesh.c.obj
                                          0x4 (size before relaxing)
 *fill*         0x0000000000045bf7        0x1 
 .rodata.CSWTCH.7
                0x0000000000045bf8       0x20 CMakeFiles/enocean_switch_nrf52840_xxAA_s140_6.0.0.dir/__/__/mesh/core/src/hal.c.obj
 .rodata        0x0000000000045c18       0x18 CMakeFiles/enocean_switch_nrf52840_xxAA_s140_6.0.0.dir/__/__/mesh/core/src/enc.c.obj
 .rodata.network_packet_in.str1.4
                0x0000000000045c30       0x81 CMakeFiles/enocean_switch_nrf52840_xxAA_s140_6.0.0.dir/__/__/mesh/core/src/network.c.obj
 *fill*         0x0000000000045cb1        0x3 
 .rodata.net_packet_decrypt.str1.4
                0x0000000000045cb4       0x6b CMakeFiles/enocean_switch_nrf52840_xxAA_s140_6.0.0.dir/__/__/mesh/core/src/net_packet.c.obj
                                         0x74 (size before relaxing)
 *fill*         0x0000000000045d1f        0x1 
 .rodata        0x0000000000045d20        0x7 CMakeFiles/enocean_switch_nrf52840_xxAA_s140_6.0.0.dir/__/__/mesh/core/src/nrf_mesh_keygen.c.obj
 *fill*         0x0000000000045d27        0x1 
 .rodata.log_callback_rtt.str1.4
                0x0000000000045d28       0x15 CMakeFiles/enocean_switch_nrf52840_xxAA_s140_6.0.0.dir/__/__/mesh/core/src/log.c.obj
 *fill*         0x0000000000045d3d        0x3 
 .rodata.str1.4
                0x0000000000045d40       0x11 CMakeFiles/enocean_switch_nrf52840_xxAA_s140_6.0.0.dir/__/__/mesh/core/src/log.c.obj
 *fill*         0x0000000000045d51        0x3 
 .rodata.INVALID_HEADER
                0x0000000000045d54        0x4 CMakeFiles/enocean_switch_nrf52840_xxAA_s140_6.0.0.dir/__/__/mesh/core/src/flash_manager.c.obj
                0x0000000000045d54                INVALID_HEADER
 .rodata.PADDING_HEADER
                0x0000000000045d58        0x4 CMakeFiles/enocean_switch_nrf52840_xxAA_s140_6.0.0.dir/__/__/mesh/core/src/flash_manager.c.obj
                0x0000000000045d58                PADDING_HEADER
 .rodata.SEAL_HEADER
                0x0000000000045d5c        0x4 CMakeFiles/enocean_switch_nrf52840_xxAA_s140_6.0.0.dir/__/__/mesh/core/src/flash_manager.c.obj
                0x0000000000045d5c                SEAL_HEADER
 .rodata.beacon_packet_in.str1.4
                0x0000000000045d60       0x8d CMakeFiles/enocean_switch_nrf52840_xxAA_s140_6.0.0.dir/__/__/mesh/core/src/beacon.c.obj
                                         0x98 (size before relaxing)
 *fill*         0x0000000000045ded        0x3 
 .rodata.cp_handler
                0x0000000000045df0        0x8 CMakeFiles/enocean_switch_nrf52840_xxAA_s140_6.0.0.dir/__/__/mesh/core/src/heartbeat.c.obj
 .rodata.beacon_tx.str1.4
                0x0000000000045df8       0x6f CMakeFiles/enocean_switch_nrf52840_xxAA_s140_6.0.0.dir/__/__/mesh/core/src/net_beacon.c.obj
 *fill*         0x0000000000045e67        0x1 
 .rodata.net_beacon_init.str1.4
                0x0000000000045e68        0x5 CMakeFiles/enocean_switch_nrf52840_xxAA_s140_6.0.0.dir/__/__/mesh/core/src/net_beacon.c.obj
 *fill*         0x0000000000045e6d        0x3 
 .rodata.m_interface
                0x0000000000045e70        0xc CMakeFiles/enocean_switch_nrf52840_xxAA_s140_6.0.0.dir/__/__/mesh/core/src/core_tx_adv.c.obj
 .rodata.radio_mode_to_us_per_byte.9906
                0x0000000000045e7c        0x6 CMakeFiles/enocean_switch_nrf52840_xxAA_s140_6.0.0.dir/__/__/mesh/bearer/src/broadcast.c.obj
 *fill*         0x0000000000045e82        0x2 
 .rodata.channel_rf_offsets.9124
                0x0000000000045e84       0x28 CMakeFiles/enocean_switch_nrf52840_xxAA_s140_6.0.0.dir/__/__/mesh/bearer/src/radio_config.c.obj
 .rodata.m_opcode_handlers
                0x0000000000045eac        0x8 CMakeFiles/enocean_switch_nrf52840_xxAA_s140_6.0.0.dir/__/__/models/simple_on_off/src/simple_on_off_client.c.obj
 .rodata        0x0000000000045eb4        0x8 CMakeFiles/enocean_switch_nrf52840_xxAA_s140_6.0.0.dir/__/__/models/config/src/config_server.c.obj
 .rodata.CSWTCH.178
                0x0000000000045ebc       0x10 CMakeFiles/enocean_switch_nrf52840_xxAA_s140_6.0.0.dir/__/__/models/config/src/config_server.c.obj
 .rodata.opcode_handlers
                0x0000000000045ecc      0x170 CMakeFiles/enocean_switch_nrf52840_xxAA_s140_6.0.0.dir/__/__/models/config/src/config_server.c.obj
 .rodata.m_opcode_handlers
                0x000000000004603c       0x58 CMakeFiles/enocean_switch_nrf52840_xxAA_s140_6.0.0.dir/__/__/models/health/src/health_server.c.obj
 .rodata.multiply_de_bruijn_bit_position.9758
                0x0000000000046094       0x20 CMakeFiles/enocean_switch_nrf52840_xxAA_s140_6.0.0.dir/__/__/models/health/src/health_server.c.obj
 .rodata.access_model_publish.str1.4
                0x00000000000460b4       0x1c CMakeFiles/enocean_switch_nrf52840_xxAA_s140_6.0.0.dir/__/__/mesh/access/src/access.c.obj
                                         0x24 (size before relaxing)
 .rodata.mesh_evt_cb.str1.4
                0x00000000000460d0       0x67 CMakeFiles/enocean_switch_nrf52840_xxAA_s140_6.0.0.dir/__/__/mesh/access/src/access.c.obj
 *fill*         0x0000000000046137        0x1 
 .rodata.multiply_de_bruijn_bit_position.9714
                0x0000000000046138       0x20 CMakeFiles/enocean_switch_nrf52840_xxAA_s140_6.0.0.dir/__/__/mesh/access/src/access.c.obj
 .rodata.m_flash_groups
                0x0000000000046158       0xa8 CMakeFiles/enocean_switch_nrf52840_xxAA_s140_6.0.0.dir/__/__/mesh/access/src/device_state_manager.c.obj
 .rodata.multiply_de_bruijn_bit_position.9820
                0x0000000000046200       0x20 CMakeFiles/enocean_switch_nrf52840_xxAA_s140_6.0.0.dir/__/__/mesh/access/src/device_state_manager.c.obj
 .rodata.m_prov_callbacks
                0x0000000000046220       0x10 CMakeFiles/enocean_switch_nrf52840_xxAA_s140_6.0.0.dir/__/__/mesh/prov/src/prov_provisionee.c.obj
 .rodata.prov_provisionee_cb_ack_received.str1.4
                0x0000000000046230       0x8b CMakeFiles/enocean_switch_nrf52840_xxAA_s140_6.0.0.dir/__/__/mesh/prov/src/prov_provisionee.c.obj
 *fill*         0x00000000000462bb        0x1 
 .rodata.multiply_de_bruijn_bit_position.9767
                0x00000000000462bc       0x20 CMakeFiles/enocean_switch_nrf52840_xxAA_s140_6.0.0.dir/__/__/mesh/prov/src/nrf_mesh_prov.c.obj
 .rodata.pdu_sizes.11728
                0x00000000000462dc        0xa CMakeFiles/enocean_switch_nrf52840_xxAA_s140_6.0.0.dir/__/__/mesh/prov/src/provisioning.c.obj
 *fill*         0x00000000000462e6        0x2 
 .rodata.alphanumeric.11833
                0x00000000000462e8       0x25 CMakeFiles/enocean_switch_nrf52840_xxAA_s140_6.0.0.dir/__/__/mesh/prov/src/prov_utils.c.obj
 *fill*         0x000000000004630d        0x3 
 .rodata.numeric_max.11827
                0x0000000000046310       0x24 CMakeFiles/enocean_switch_nrf52840_xxAA_s140_6.0.0.dir/__/__/mesh/prov/src/prov_utils.c.obj
 .rodata.prov_utils_authentication_values_derive.str1.4
                0x0000000000046334        0x5 CMakeFiles/enocean_switch_nrf52840_xxAA_s140_6.0.0.dir/__/__/mesh/prov/src/prov_utils.c.obj
 *fill*         0x0000000000046339        0x3 
 .rodata.prov_utils_derive_keys.str1.4
                0x000000000004633c       0x15 CMakeFiles/enocean_switch_nrf52840_xxAA_s140_6.0.0.dir/__/__/mesh/prov/src/prov_utils.c.obj
 *fill*         0x0000000000046351        0x3 
 .rodata.crctable.11462
                0x0000000000046354      0x100 CMakeFiles/enocean_switch_nrf52840_xxAA_s140_6.0.0.dir/__/__/mesh/prov/src/prov_bearer_adv.c.obj
 .rodata.interface.11692
                0x0000000000046454       0x14 CMakeFiles/enocean_switch_nrf52840_xxAA_s140_6.0.0.dir/__/__/mesh/prov/src/prov_bearer_adv.c.obj
 .rodata.prov_bearer_adv_listen.str1.4
                0x0000000000046468       0x88 CMakeFiles/enocean_switch_nrf52840_xxAA_s140_6.0.0.dir/__/__/mesh/prov/src/prov_bearer_adv.c.obj
 .rodata.prov_bearer_adv_packet_in.str1.4
                0x00000000000464f0      0x283 CMakeFiles/enocean_switch_nrf52840_xxAA_s140_6.0.0.dir/__/__/mesh/prov/src/prov_bearer_adv.c.obj
 *fill*         0x0000000000046773        0x1 
 .rodata.tx_retry_cb.str1.4
                0x0000000000046774       0x14 CMakeFiles/enocean_switch_nrf52840_xxAA_s140_6.0.0.dir/__/__/mesh/prov/src/prov_bearer_adv.c.obj
 .rodata.SEGGER_RTT_ReadNoLock.str1.4
                0x0000000000046788       0x18 ../../external/rtt/librtt_nrf52840_xxAA.a(SEGGER_RTT.c.obj)
                                         0x17 (size before relaxing)
 .rodata._aV2C.5639
                0x00000000000467a0       0x10 ../../external/rtt/librtt_nrf52840_xxAA.a(SEGGER_RTT_printf.c.obj)
 .rodata.curve_secp256r1
                0x00000000000467b0       0xb0 ../../external/micro-ecc/libuECC_nrf52840_xxAA.a(uECC.c.obj)
 .rodata._global_impure_ptr
                0x0000000000046860        0x4 /usr/bin/../lib/gcc/arm-none-eabi/7.2.1/../../../../arm-none-eabi/lib/thumb/v7e-m/fpv4-sp/hard/libg_nano.a(lib_a-impure.o)
                0x0000000000046860                _global_impure_ptr
 *(.eh_frame*)
 .eh_frame      0x0000000000046864        0x0 /usr/bin/../lib/gcc/arm-none-eabi/7.2.1/thumb/v7e-m/fpv4-sp/hard/crtbegin.o
 .eh_frame      0x0000000000046864        0x4 /usr/bin/../lib/gcc/arm-none-eabi/7.2.1/thumb/v7e-m/fpv4-sp/hard/crtend.o

.glue_7         0x0000000000046868        0x0
 .glue_7        0x0000000000046868        0x0 linker stubs

.glue_7t        0x0000000000046868        0x0
 .glue_7t       0x0000000000046868        0x0 linker stubs

.vfp11_veneer   0x0000000000046868        0x0
 .vfp11_veneer  0x0000000000046868        0x0 linker stubs

.v4_bx          0x0000000000046868        0x0
 .v4_bx         0x0000000000046868        0x0 linker stubs

.iplt           0x0000000000046868        0x0
 .iplt          0x0000000000046868        0x0 /usr/bin/../lib/gcc/arm-none-eabi/7.2.1/thumb/v7e-m/fpv4-sp/hard/crtbegin.o

.pwr_mgmt_data  0x0000000000046868        0x0
                [!provide]                        PROVIDE (__start_pwr_mgmt_data, .)
 *(SORT_BY_NAME(.pwr_mgmt_data*))
                [!provide]                        PROVIDE (__stop_pwr_mgmt_data, .)

.log_const_data
                0x0000000000046868        0x0
                [!provide]                        PROVIDE (__start_log_const_data, .)
 *(.log_const_data)
                [!provide]                        PROVIDE (__stop_log_const_data, .)

.cli_command    0x0000000000046868        0x0
                [!provide]                        PROVIDE (__start_cli_command, .)
 *(.cli_command)
                [!provide]                        PROVIDE (__stop_cli_command, .)

.sdh_stack_observers
                0x0000000000046868        0x0
                [!provide]                        PROVIDE (__start_sdh_stack_observers, .)
 *(SORT_BY_NAME(.sdh_stack_observers*))
                [!provide]                        PROVIDE (__stop_sdh_stack_observers, .)

.sdh_req_observers
                0x0000000000046868        0x0
                [!provide]                        PROVIDE (__start_sdh_req_observers, .)
 *(SORT_BY_NAME(.sdh_req_observers*))
                [!provide]                        PROVIDE (__stop_sdh_req_observers, .)

.sdh_state_observers
                0x0000000000046868        0x0
                [!provide]                        PROVIDE (__start_sdh_state_observers, .)
 *(SORT_BY_NAME(.sdh_state_observers*))
                [!provide]                        PROVIDE (__stop_sdh_state_observers, .)

.sdh_ant_observers
                0x0000000000046868        0x0
                [!provide]                        PROVIDE (__start_sdh_ant_observers, .)
 *(SORT_BY_NAME(.sdh_ant_observers*))
                [!provide]                        PROVIDE (__stop_sdh_ant_observers, .)

.sdh_ble_observers
                0x0000000000046868        0x0
                [!provide]                        PROVIDE (__start_sdh_ble_observers, .)
 *(SORT_BY_NAME(.sdh_ble_observers*))
                [!provide]                        PROVIDE (__stop_sdh_ble_observers, .)

.sdh_soc_observers
                0x0000000000046868        0x0
                [!provide]                        PROVIDE (__start_sdh_soc_observers, .)
 *(SORT_BY_NAME(.sdh_soc_observers*))
                [!provide]                        PROVIDE (__stop_sdh_soc_observers, .)

.ARM.extab
 *(.ARM.extab* .gnu.linkonce.armextab.*)
                0x0000000000046868                __exidx_start = .

.ARM.exidx      0x0000000000046868        0x8
 *(.ARM.exidx* .gnu.linkonce.armexidx.*)
 .ARM.exidx     0x0000000000046868        0x8 /usr/bin/../lib/gcc/arm-none-eabi/7.2.1/../../../../arm-none-eabi/lib/thumb/v7e-m/fpv4-sp/hard/crt0.o
 .ARM.exidx     0x0000000000046870        0x0 /usr/bin/../lib/gcc/arm-none-eabi/7.2.1/thumb/v7e-m/fpv4-sp/hard/libgcc.a(_udivmoddi4.o)
                                          0x8 (size before relaxing)
                0x0000000000046870                __exidx_end = .
                0x0000000000046870                __etext = .

.rel.dyn        0x0000000000046870        0x0
 .rel.iplt      0x0000000000046870        0x0 /usr/bin/../lib/gcc/arm-none-eabi/7.2.1/thumb/v7e-m/fpv4-sp/hard/crtbegin.o

.data           0x00000000200032c8      0x168 load address 0x0000000000046870
                0x00000000200032c8                __data_start__ = .
 *(vtable)
 *(.data*)
 .data.m_mesh_core_event_handler
                0x00000000200032c8        0x8 CMakeFiles/enocean_switch_nrf52840_xxAA_s140_6.0.0.dir/src/main.c.obj
 .data.flash_add_mem_available_struct.10272
                0x00000000200032d0       0x10 CMakeFiles/enocean_switch_nrf52840_xxAA_s140_6.0.0.dir/src/flash_helper.c.obj
 .data.mem_listener.10268
                0x00000000200032e0       0x10 CMakeFiles/enocean_switch_nrf52840_xxAA_s140_6.0.0.dir/src/flash_helper.c.obj
 .data.s_evt_handler.11509
                0x00000000200032f0        0x8 CMakeFiles/enocean_switch_nrf52840_xxAA_s140_6.0.0.dir/__/__/mesh/stack/src/mesh_stack.c.obj
 .data.wait.9426
                0x00000000200032f8        0x1 CMakeFiles/enocean_switch_nrf52840_xxAA_s140_6.0.0.dir/__/common/src/app_error_weak.c.obj
 *fill*         0x00000000200032f9        0x3 
 .data.mem_listener.10264
                0x00000000200032fc       0x10 CMakeFiles/enocean_switch_nrf52840_xxAA_s140_6.0.0.dir/__/__/mesh/core/src/net_state.c.obj
 .data.mem_listener.10269
                0x000000002000330c       0x10 CMakeFiles/enocean_switch_nrf52840_xxAA_s140_6.0.0.dir/__/__/mesh/core/src/net_state.c.obj
 .data.mem_listener.10283
                0x000000002000331c       0x10 CMakeFiles/enocean_switch_nrf52840_xxAA_s140_6.0.0.dir/__/__/mesh/core/src/net_state.c.obj
 .data.mem_listener.10300
                0x000000002000332c       0x10 CMakeFiles/enocean_switch_nrf52840_xxAA_s140_6.0.0.dir/__/__/mesh/core/src/net_state.c.obj
 .data.m_nrf_mesh_listener
                0x000000002000333c        0xc CMakeFiles/enocean_switch_nrf52840_xxAA_s140_6.0.0.dir/__/__/mesh/core/src/nrf_mesh.c.obj
 .data.g_log_dbg_lvl
                0x0000000020003348        0x4 CMakeFiles/enocean_switch_nrf52840_xxAA_s140_6.0.0.dir/__/__/mesh/core/src/log.c.obj
                0x0000000020003348                g_log_dbg_lvl
 .data.g_log_dbg_msk
                0x000000002000334c        0x4 CMakeFiles/enocean_switch_nrf52840_xxAA_s140_6.0.0.dir/__/__/mesh/core/src/log.c.obj
                0x000000002000334c                g_log_dbg_msk
 .data.g_log_hex_digits
                0x0000000020003350        0x4 CMakeFiles/enocean_switch_nrf52840_xxAA_s140_6.0.0.dir/__/__/mesh/core/src/log.c.obj
                0x0000000020003350                g_log_hex_digits
 .data.m_log_callback
                0x0000000020003354        0x4 CMakeFiles/enocean_switch_nrf52840_xxAA_s140_6.0.0.dir/__/__/mesh/core/src/log.c.obj
                0x0000000020003354                m_log_callback
 .data.m_config_server_handle
                0x0000000020003358        0x2 CMakeFiles/enocean_switch_nrf52840_xxAA_s140_6.0.0.dir/__/__/models/config/src/config_server.c.obj
 *fill*         0x000000002000335a        0x2 
 .data.m_mesh_evt_handler
                0x000000002000335c        0x8 CMakeFiles/enocean_switch_nrf52840_xxAA_s140_6.0.0.dir/__/__/models/config/src/config_server.c.obj
 .data.flash_add_mem_available_struct.10838
                0x0000000020003364       0x10 CMakeFiles/enocean_switch_nrf52840_xxAA_s140_6.0.0.dir/__/__/mesh/access/src/access.c.obj
 .data.flash_clear_mem_available_struct.10927
                0x0000000020003374       0x10 CMakeFiles/enocean_switch_nrf52840_xxAA_s140_6.0.0.dir/__/__/mesh/access/src/access.c.obj
 .data.flash_store_mem_available_struct.10951
                0x0000000020003384       0x10 CMakeFiles/enocean_switch_nrf52840_xxAA_s140_6.0.0.dir/__/__/mesh/access/src/access.c.obj
 .data.m_default_ttl
                0x0000000020003394        0x1 CMakeFiles/enocean_switch_nrf52840_xxAA_s140_6.0.0.dir/__/__/mesh/access/src/access.c.obj
 *fill*         0x0000000020003395        0x3 
 .data.mem_listener.11127
                0x0000000020003398       0x10 CMakeFiles/enocean_switch_nrf52840_xxAA_s140_6.0.0.dir/__/__/mesh/access/src/device_state_manager.c.obj
 .data.mem_listener.11153
                0x00000000200033a8       0x10 CMakeFiles/enocean_switch_nrf52840_xxAA_s140_6.0.0.dir/__/__/mesh/access/src/device_state_manager.c.obj
 .data.m_async_process_flag
                0x00000000200033b8        0x4 CMakeFiles/enocean_switch_nrf52840_xxAA_s140_6.0.0.dir/__/__/mesh/prov/src/prov_bearer_adv.c.obj
 .data.SystemCoreClock
                0x00000000200033bc        0x4 CMakeFiles/enocean_switch_nrf52840_xxAA_s140_6.0.0.dir/home/mazzer/work/nordic/sdk/nRF5_SDK_15.0.0/modules/nrfx/mdk/system_nrf52840.c.obj
                0x00000000200033bc                SystemCoreClock
 .data.g_rng_function
                0x00000000200033c0        0x4 ../../external/micro-ecc/libuECC_nrf52840_xxAA.a(uECC.c.obj)
 .data._impure_ptr
                0x00000000200033c4        0x4 /usr/bin/../lib/gcc/arm-none-eabi/7.2.1/../../../../arm-none-eabi/lib/thumb/v7e-m/fpv4-sp/hard/libg_nano.a(lib_a-impure.o)
                0x00000000200033c4                _impure_ptr
 .data.impure_data
                0x00000000200033c8       0x60 /usr/bin/../lib/gcc/arm-none-eabi/7.2.1/../../../../arm-none-eabi/lib/thumb/v7e-m/fpv4-sp/hard/libg_nano.a(lib_a-impure.o)
                0x0000000020003428                . = ALIGN (0x4)
                0x0000000020003428                PROVIDE (__preinit_array_start, .)
 *(.preinit_array)
                0x0000000020003428                PROVIDE (__preinit_array_end, .)
                0x0000000020003428                . = ALIGN (0x4)
                0x0000000020003428                PROVIDE (__init_array_start, .)
 *(SORT_BY_NAME(.init_array.*))
 *(.init_array)
 .init_array    0x0000000020003428        0x4 /usr/bin/../lib/gcc/arm-none-eabi/7.2.1/thumb/v7e-m/fpv4-sp/hard/crtbegin.o
                0x000000002000342c                PROVIDE (__init_array_end, .)
                0x000000002000342c                . = ALIGN (0x4)
                [!provide]                        PROVIDE (__fini_array_start, .)
 *(SORT_BY_NAME(.fini_array.*))
 *(.fini_array)
 .fini_array    0x000000002000342c        0x4 /usr/bin/../lib/gcc/arm-none-eabi/7.2.1/thumb/v7e-m/fpv4-sp/hard/crtbegin.o
                [!provide]                        PROVIDE (__fini_array_end, .)
 *(.jcr*)
                0x0000000020003430                . = ALIGN (0x4)
                0x0000000020003430                __data_end__ = .
LOAD /usr/bin/../lib/gcc/arm-none-eabi/7.2.1/thumb/v7e-m/fpv4-sp/hard/crti.o
LOAD /usr/bin/../lib/gcc/arm-none-eabi/7.2.1/thumb/v7e-m/fpv4-sp/hard/crtbegin.o
LOAD /usr/bin/../lib/gcc/arm-none-eabi/7.2.1/../../../../arm-none-eabi/lib/thumb/v7e-m/fpv4-sp/hard/crt0.o
LOAD CMakeFiles/enocean_switch_nrf52840_xxAA_s140_6.0.0.dir/src/main.c.obj
LOAD CMakeFiles/enocean_switch_nrf52840_xxAA_s140_6.0.0.dir/src/enocean.c.obj
LOAD CMakeFiles/enocean_switch_nrf52840_xxAA_s140_6.0.0.dir/src/flash_helper.c.obj
LOAD CMakeFiles/enocean_switch_nrf52840_xxAA_s140_6.0.0.dir/__/__/mesh/stack/src/mesh_stack.c.obj
LOAD CMakeFiles/enocean_switch_nrf52840_xxAA_s140_6.0.0.dir/__/common/src/mesh_softdevice_init.c.obj
LOAD CMakeFiles/enocean_switch_nrf52840_xxAA_s140_6.0.0.dir/__/common/src/mesh_provisionee.c.obj
LOAD CMakeFiles/enocean_switch_nrf52840_xxAA_s140_6.0.0.dir/__/common/src/rtt_input.c.obj
LOAD CMakeFiles/enocean_switch_nrf52840_xxAA_s140_6.0.0.dir/__/common/src/simple_hal.c.obj
LOAD CMakeFiles/enocean_switch_nrf52840_xxAA_s140_6.0.0.dir/__/common/src/mesh_app_utils.c.obj
LOAD CMakeFiles/enocean_switch_nrf52840_xxAA_s140_6.0.0.dir/__/nrf_mesh_weak.c.obj
LOAD CMakeFiles/enocean_switch_nrf52840_xxAA_s140_6.0.0.dir/__/common/src/app_error_weak.c.obj
LOAD CMakeFiles/enocean_switch_nrf52840_xxAA_s140_6.0.0.dir/__/common/src/assertion_handler_weak.c.obj
LOAD CMakeFiles/enocean_switch_nrf52840_xxAA_s140_6.0.0.dir/__/__/mesh/core/src/internal_event.c.obj
LOAD CMakeFiles/enocean_switch_nrf52840_xxAA_s140_6.0.0.dir/__/__/mesh/core/src/nrf_mesh_configure.c.obj
LOAD CMakeFiles/enocean_switch_nrf52840_xxAA_s140_6.0.0.dir/__/__/mesh/core/src/aes.c.obj
LOAD CMakeFiles/enocean_switch_nrf52840_xxAA_s140_6.0.0.dir/__/__/mesh/core/src/msg_cache.c.obj
LOAD CMakeFiles/enocean_switch_nrf52840_xxAA_s140_6.0.0.dir/__/__/mesh/core/src/transport.c.obj
LOAD CMakeFiles/enocean_switch_nrf52840_xxAA_s140_6.0.0.dir/__/__/mesh/core/src/event.c.obj
LOAD CMakeFiles/enocean_switch_nrf52840_xxAA_s140_6.0.0.dir/__/__/mesh/core/src/packet_buffer.c.obj
LOAD CMakeFiles/enocean_switch_nrf52840_xxAA_s140_6.0.0.dir/__/__/mesh/core/src/flash_manager_defrag.c.obj
LOAD CMakeFiles/enocean_switch_nrf52840_xxAA_s140_6.0.0.dir/__/__/mesh/core/src/fifo.c.obj
LOAD CMakeFiles/enocean_switch_nrf52840_xxAA_s140_6.0.0.dir/__/__/mesh/core/src/nrf_flash.c.obj
LOAD CMakeFiles/enocean_switch_nrf52840_xxAA_s140_6.0.0.dir/__/__/mesh/core/src/packet_mgr.c.obj
LOAD CMakeFiles/enocean_switch_nrf52840_xxAA_s140_6.0.0.dir/__/__/mesh/core/src/net_state.c.obj
LOAD CMakeFiles/enocean_switch_nrf52840_xxAA_s140_6.0.0.dir/__/__/mesh/core/src/mesh_flash.c.obj
LOAD CMakeFiles/enocean_switch_nrf52840_xxAA_s140_6.0.0.dir/__/__/mesh/core/src/nrf_mesh_utils.c.obj
LOAD CMakeFiles/enocean_switch_nrf52840_xxAA_s140_6.0.0.dir/__/__/mesh/core/src/nrf_mesh.c.obj
LOAD CMakeFiles/enocean_switch_nrf52840_xxAA_s140_6.0.0.dir/__/__/mesh/core/src/queue.c.obj
LOAD CMakeFiles/enocean_switch_nrf52840_xxAA_s140_6.0.0.dir/__/__/mesh/core/src/hal.c.obj
LOAD CMakeFiles/enocean_switch_nrf52840_xxAA_s140_6.0.0.dir/__/__/mesh/core/src/aes_cmac.c.obj
LOAD CMakeFiles/enocean_switch_nrf52840_xxAA_s140_6.0.0.dir/__/__/mesh/core/src/timer_scheduler.c.obj
LOAD CMakeFiles/enocean_switch_nrf52840_xxAA_s140_6.0.0.dir/__/__/mesh/core/src/timer.c.obj
LOAD CMakeFiles/enocean_switch_nrf52840_xxAA_s140_6.0.0.dir/__/__/mesh/core/src/ticker.c.obj
LOAD CMakeFiles/enocean_switch_nrf52840_xxAA_s140_6.0.0.dir/__/__/mesh/core/src/rand.c.obj
LOAD CMakeFiles/enocean_switch_nrf52840_xxAA_s140_6.0.0.dir/__/__/mesh/core/src/nrf_mesh_opt.c.obj
LOAD CMakeFiles/enocean_switch_nrf52840_xxAA_s140_6.0.0.dir/__/__/mesh/core/src/timeslot.c.obj
LOAD CMakeFiles/enocean_switch_nrf52840_xxAA_s140_6.0.0.dir/__/__/mesh/core/src/bearer_event.c.obj
LOAD CMakeFiles/enocean_switch_nrf52840_xxAA_s140_6.0.0.dir/__/__/mesh/core/src/enc.c.obj
LOAD CMakeFiles/enocean_switch_nrf52840_xxAA_s140_6.0.0.dir/__/__/mesh/core/src/network.c.obj
LOAD CMakeFiles/enocean_switch_nrf52840_xxAA_s140_6.0.0.dir/__/__/mesh/core/src/net_packet.c.obj
LOAD CMakeFiles/enocean_switch_nrf52840_xxAA_s140_6.0.0.dir/__/__/mesh/core/src/msqueue.c.obj
LOAD CMakeFiles/enocean_switch_nrf52840_xxAA_s140_6.0.0.dir/__/__/mesh/core/src/nrf_mesh_keygen.c.obj
LOAD CMakeFiles/enocean_switch_nrf52840_xxAA_s140_6.0.0.dir/__/__/mesh/core/src/cache.c.obj
LOAD CMakeFiles/enocean_switch_nrf52840_xxAA_s140_6.0.0.dir/__/__/mesh/core/src/uri.c.obj
LOAD CMakeFiles/enocean_switch_nrf52840_xxAA_s140_6.0.0.dir/__/__/mesh/core/src/list.c.obj
LOAD CMakeFiles/enocean_switch_nrf52840_xxAA_s140_6.0.0.dir/__/__/mesh/core/src/log.c.obj
LOAD CMakeFiles/enocean_switch_nrf52840_xxAA_s140_6.0.0.dir/__/__/mesh/core/src/flash_manager.c.obj
LOAD CMakeFiles/enocean_switch_nrf52840_xxAA_s140_6.0.0.dir/__/__/mesh/core/src/ccm_soft.c.obj
LOAD CMakeFiles/enocean_switch_nrf52840_xxAA_s140_6.0.0.dir/__/__/mesh/core/src/toolchain.c.obj
LOAD CMakeFiles/enocean_switch_nrf52840_xxAA_s140_6.0.0.dir/__/__/mesh/core/src/replay_cache.c.obj
LOAD CMakeFiles/enocean_switch_nrf52840_xxAA_s140_6.0.0.dir/__/__/mesh/core/src/beacon.c.obj
LOAD CMakeFiles/enocean_switch_nrf52840_xxAA_s140_6.0.0.dir/__/__/mesh/core/src/flash_manager_internal.c.obj
LOAD CMakeFiles/enocean_switch_nrf52840_xxAA_s140_6.0.0.dir/__/__/mesh/core/src/core_tx.c.obj
LOAD CMakeFiles/enocean_switch_nrf52840_xxAA_s140_6.0.0.dir/__/__/mesh/core/src/heartbeat.c.obj
LOAD CMakeFiles/enocean_switch_nrf52840_xxAA_s140_6.0.0.dir/__/__/mesh/core/src/net_beacon.c.obj
LOAD CMakeFiles/enocean_switch_nrf52840_xxAA_s140_6.0.0.dir/__/__/mesh/core/src/fsm.c.obj
LOAD CMakeFiles/enocean_switch_nrf52840_xxAA_s140_6.0.0.dir/__/__/mesh/core/src/core_tx_adv.c.obj
LOAD CMakeFiles/enocean_switch_nrf52840_xxAA_s140_6.0.0.dir/__/__/mesh/bearer/src/ad_listener.c.obj
LOAD CMakeFiles/enocean_switch_nrf52840_xxAA_s140_6.0.0.dir/__/__/mesh/bearer/src/ad_type_filter.c.obj
LOAD CMakeFiles/enocean_switch_nrf52840_xxAA_s140_6.0.0.dir/__/__/mesh/bearer/src/adv_packet_filter.c.obj
LOAD CMakeFiles/enocean_switch_nrf52840_xxAA_s140_6.0.0.dir/__/__/mesh/bearer/src/advertiser.c.obj
LOAD CMakeFiles/enocean_switch_nrf52840_xxAA_s140_6.0.0.dir/__/__/mesh/bearer/src/bearer_handler.c.obj
LOAD CMakeFiles/enocean_switch_nrf52840_xxAA_s140_6.0.0.dir/__/__/mesh/bearer/src/broadcast.c.obj
LOAD CMakeFiles/enocean_switch_nrf52840_xxAA_s140_6.0.0.dir/__/__/mesh/bearer/src/filter_engine.c.obj
LOAD CMakeFiles/enocean_switch_nrf52840_xxAA_s140_6.0.0.dir/__/__/mesh/bearer/src/gap_address_filter.c.obj
LOAD CMakeFiles/enocean_switch_nrf52840_xxAA_s140_6.0.0.dir/__/__/mesh/bearer/src/radio_config.c.obj
LOAD CMakeFiles/enocean_switch_nrf52840_xxAA_s140_6.0.0.dir/__/__/mesh/bearer/src/rssi_filter.c.obj
LOAD CMakeFiles/enocean_switch_nrf52840_xxAA_s140_6.0.0.dir/__/__/mesh/bearer/src/scanner.c.obj
LOAD CMakeFiles/enocean_switch_nrf52840_xxAA_s140_6.0.0.dir/__/__/models/simple_on_off/src/simple_on_off_client.c.obj
LOAD CMakeFiles/enocean_switch_nrf52840_xxAA_s140_6.0.0.dir/__/__/models/config/src/composition_data.c.obj
LOAD CMakeFiles/enocean_switch_nrf52840_xxAA_s140_6.0.0.dir/__/__/models/config/src/config_server.c.obj
LOAD CMakeFiles/enocean_switch_nrf52840_xxAA_s140_6.0.0.dir/__/__/models/config/src/packed_index_list.c.obj
LOAD CMakeFiles/enocean_switch_nrf52840_xxAA_s140_6.0.0.dir/__/__/models/health/src/health_server.c.obj
LOAD CMakeFiles/enocean_switch_nrf52840_xxAA_s140_6.0.0.dir/__/__/mesh/access/src/access_publish.c.obj
LOAD CMakeFiles/enocean_switch_nrf52840_xxAA_s140_6.0.0.dir/__/__/mesh/access/src/access.c.obj
LOAD CMakeFiles/enocean_switch_nrf52840_xxAA_s140_6.0.0.dir/__/__/mesh/access/src/access_reliable.c.obj
LOAD CMakeFiles/enocean_switch_nrf52840_xxAA_s140_6.0.0.dir/__/__/mesh/access/src/device_state_manager.c.obj
LOAD CMakeFiles/enocean_switch_nrf52840_xxAA_s140_6.0.0.dir/__/__/mesh/prov/src/prov_provisionee.c.obj
LOAD CMakeFiles/enocean_switch_nrf52840_xxAA_s140_6.0.0.dir/__/__/mesh/prov/src/nrf_mesh_prov.c.obj
LOAD CMakeFiles/enocean_switch_nrf52840_xxAA_s140_6.0.0.dir/__/__/mesh/prov/src/provisioning.c.obj
LOAD CMakeFiles/enocean_switch_nrf52840_xxAA_s140_6.0.0.dir/__/__/mesh/prov/src/prov_beacon.c.obj
LOAD CMakeFiles/enocean_switch_nrf52840_xxAA_s140_6.0.0.dir/__/__/mesh/prov/src/prov_utils.c.obj
LOAD CMakeFiles/enocean_switch_nrf52840_xxAA_s140_6.0.0.dir/__/__/mesh/prov/src/prov_bearer_adv.c.obj
LOAD CMakeFiles/enocean_switch_nrf52840_xxAA_s140_6.0.0.dir/home/mazzer/work/nordic/sdk/nRF5_SDK_15.0.0/modules/nrfx/mdk/system_nrf52840.c.obj
LOAD CMakeFiles/enocean_switch_nrf52840_xxAA_s140_6.0.0.dir/home/mazzer/work/nordic/sdk/nRF5_SDK_15.0.0/modules/nrfx/mdk/gcc_startup_nrf52840.S.obj
LOAD CMakeFiles/enocean_switch_nrf52840_xxAA_s140_6.0.0.dir/home/mazzer/work/nordic/sdk/nRF5_SDK_15.0.0/components/libraries/util/app_error.c.obj
LOAD CMakeFiles/enocean_switch_nrf52840_xxAA_s140_6.0.0.dir/home/mazzer/work/nordic/sdk/nRF5_SDK_15.0.0/components/libraries/util/app_error_handler_gcc.c.obj
LOAD ../../external/rtt/librtt_nrf52840_xxAA.a
LOAD ../../external/micro-ecc/libuECC_nrf52840_xxAA.a
START GROUP
LOAD /usr/bin/../lib/gcc/arm-none-eabi/7.2.1/thumb/v7e-m/fpv4-sp/hard/libgcc.a
LOAD /usr/bin/../lib/gcc/arm-none-eabi/7.2.1/../../../../arm-none-eabi/lib/thumb/v7e-m/fpv4-sp/hard/libg_nano.a
LOAD /usr/bin/../lib/gcc/arm-none-eabi/7.2.1/../../../../arm-none-eabi/lib/thumb/v7e-m/fpv4-sp/hard/libc_nano.a
END GROUP
START GROUP
LOAD /usr/bin/../lib/gcc/arm-none-eabi/7.2.1/thumb/v7e-m/fpv4-sp/hard/libgcc.a
LOAD /usr/bin/../lib/gcc/arm-none-eabi/7.2.1/../../../../arm-none-eabi/lib/thumb/v7e-m/fpv4-sp/hard/libc_nano.a
END GROUP
LOAD /usr/bin/../lib/gcc/arm-none-eabi/7.2.1/thumb/v7e-m/fpv4-sp/hard/crtend.o
LOAD /usr/bin/../lib/gcc/arm-none-eabi/7.2.1/thumb/v7e-m/fpv4-sp/hard/crtn.o
START GROUP
LOAD /usr/bin/../lib/gcc/arm-none-eabi/7.2.1/thumb/v7e-m/fpv4-sp/hard/libgcc.a
LOAD /usr/bin/../lib/gcc/arm-none-eabi/7.2.1/../../../../arm-none-eabi/lib/thumb/v7e-m/fpv4-sp/hard/libc.a
LOAD /usr/bin/../lib/gcc/arm-none-eabi/7.2.1/../../../../arm-none-eabi/lib/thumb/v7e-m/fpv4-sp/hard/libnosys.a
END GROUP

.igot.plt       0x0000000020003430        0x0 load address 0x00000000000469d8
 .igot.plt      0x0000000020003430        0x0 /usr/bin/../lib/gcc/arm-none-eabi/7.2.1/thumb/v7e-m/fpv4-sp/hard/crtbegin.o
                0x0000000020003430                . = ALIGN (0x4)

.svc_data       0x0000000020003430        0x0
                [!provide]                        PROVIDE (__start_svc_data, .)
 *(.svc_data)
                [!provide]                        PROVIDE (__stop_svc_data, .)

.fs_data        0x0000000020003430        0x0
                [!provide]                        PROVIDE (__start_fs_data, .)
 *(.fs_data)
                [!provide]                        PROVIDE (__stop_fs_data, .)

.log_dynamic_data
                0x0000000020003430        0x0
                [!provide]                        PROVIDE (__start_log_dynamic_data, .)
 *(.log_dynamic_data)
                [!provide]                        PROVIDE (__stop_log_dynamic_data, .)

.cli_sorted_cmd_ptrs
                0x0000000020003430        0x0
                [!provide]                        PROVIDE (__start_cli_sorted_cmd_ptrs, .)
 *(.cli_sorted_cmd_ptrs)
                [!provide]                        PROVIDE (__stop_cli_sorted_cmd_ptrs, .)

.bss            0x0000000020003430     0x3534 load address 0x00000000000469d8
                0x0000000020003430                . = ALIGN (0x4)
                0x0000000020003430                __bss_start__ = .
 *(.bss*)
 .bss           0x0000000020003430       0x1c /usr/bin/../lib/gcc/arm-none-eabi/7.2.1/thumb/v7e-m/fpv4-sp/hard/crtbegin.o
 .bss.m_app_secmat
                0x000000002000344c       0x10 CMakeFiles/enocean_switch_nrf52840_xxAA_s140_6.0.0.dir/src/main.c.obj
 .bss.m_app_secmat_flash
                0x000000002000345c       0x1c CMakeFiles/enocean_switch_nrf52840_xxAA_s140_6.0.0.dir/src/main.c.obj
 .bss.m_clients
                0x0000000020003478       0x40 CMakeFiles/enocean_switch_nrf52840_xxAA_s140_6.0.0.dir/src/main.c.obj
 .bss.m_device_provisioned
                0x00000000200034b8        0x1 CMakeFiles/enocean_switch_nrf52840_xxAA_s140_6.0.0.dir/src/main.c.obj
 .bss.m_enocean_dev_cnt
                0x00000000200034b9        0x1 CMakeFiles/enocean_switch_nrf52840_xxAA_s140_6.0.0.dir/src/main.c.obj
 *fill*         0x00000000200034ba        0x2 
 .bss.m_switch_state
                0x00000000200034bc       0x20 CMakeFiles/enocean_switch_nrf52840_xxAA_s140_6.0.0.dir/src/main.c.obj
 .bss.s_app_started.13062
                0x00000000200034dc        0x1 CMakeFiles/enocean_switch_nrf52840_xxAA_s140_6.0.0.dir/src/main.c.obj
 *fill*         0x00000000200034dd        0x3 
 .bss.m_app_cb  0x00000000200034e0        0x4 CMakeFiles/enocean_switch_nrf52840_xxAA_s140_6.0.0.dir/src/enocean.c.obj
 .bss.mp_secmats_list_head
                0x00000000200034e4        0x4 CMakeFiles/enocean_switch_nrf52840_xxAA_s140_6.0.0.dir/src/enocean.c.obj
 .bss.m_flash_manager
                0x00000000200034e8       0x24 CMakeFiles/enocean_switch_nrf52840_xxAA_s140_6.0.0.dir/src/flash_helper.c.obj
 .bss.m_health_server
                0x000000002000350c       0x5c CMakeFiles/enocean_switch_nrf52840_xxAA_s140_6.0.0.dir/__/__/mesh/stack/src/mesh_stack.c.obj
 .bss.m_init_params
                0x0000000020003568       0x24 CMakeFiles/enocean_switch_nrf52840_xxAA_s140_6.0.0.dir/__/__/mesh/stack/src/mesh_stack.c.obj
 .bss.m_device_provisioned
                0x000000002000358c        0x1 CMakeFiles/enocean_switch_nrf52840_xxAA_s140_6.0.0.dir/__/common/src/mesh_provisionee.c.obj
 *fill*         0x000000002000358d        0x3 
 .bss.m_params  0x0000000020003590        0xc CMakeFiles/enocean_switch_nrf52840_xxAA_s140_6.0.0.dir/__/common/src/mesh_provisionee.c.obj
 .bss.m_private_key
                0x000000002000359c       0x20 CMakeFiles/enocean_switch_nrf52840_xxAA_s140_6.0.0.dir/__/common/src/mesh_provisionee.c.obj
 .bss.m_prov_bearer_adv
                0x00000000200035bc      0x1c4 CMakeFiles/enocean_switch_nrf52840_xxAA_s140_6.0.0.dir/__/common/src/mesh_provisionee.c.obj
 .bss.m_prov_ctx
                0x0000000020003780      0x134 CMakeFiles/enocean_switch_nrf52840_xxAA_s140_6.0.0.dir/__/common/src/mesh_provisionee.c.obj
 .bss.m_public_key
                0x00000000200038b4       0x40 CMakeFiles/enocean_switch_nrf52840_xxAA_s140_6.0.0.dir/__/common/src/mesh_provisionee.c.obj
 .bss.m_rtt_input_handler
                0x00000000200038f4        0x4 CMakeFiles/enocean_switch_nrf52840_xxAA_s140_6.0.0.dir/__/common/src/rtt_input.c.obj
 .bss.m_button_handler_cb
                0x00000000200038f8        0x4 CMakeFiles/enocean_switch_nrf52840_xxAA_s140_6.0.0.dir/__/common/src/simple_hal.c.obj
 .bss.m_last_button_press
                0x00000000200038fc        0x4 CMakeFiles/enocean_switch_nrf52840_xxAA_s140_6.0.0.dir/__/common/src/simple_hal.c.obj
 .bss.m_uuid    0x0000000020003900       0x10 CMakeFiles/enocean_switch_nrf52840_xxAA_s140_6.0.0.dir/__/__/mesh/core/src/nrf_mesh_configure.c.obj
 .bss.m_msg_cache
                0x0000000020003910      0x100 CMakeFiles/enocean_switch_nrf52840_xxAA_s140_6.0.0.dir/__/__/mesh/core/src/msg_cache.c.obj
 .bss.m_msg_cache_head
                0x0000000020003a10        0x4 CMakeFiles/enocean_switch_nrf52840_xxAA_s140_6.0.0.dir/__/__/mesh/core/src/msg_cache.c.obj
 .bss.m_control_packet_consumer_count
                0x0000000020003a14        0x4 CMakeFiles/enocean_switch_nrf52840_xxAA_s140_6.0.0.dir/__/__/mesh/core/src/transport.c.obj
 .bss.m_control_packet_consumers
                0x0000000020003a18        0x8 CMakeFiles/enocean_switch_nrf52840_xxAA_s140_6.0.0.dir/__/__/mesh/core/src/transport.c.obj
 .bss.m_sar_alloc
                0x0000000020003a20        0x4 CMakeFiles/enocean_switch_nrf52840_xxAA_s140_6.0.0.dir/__/__/mesh/core/src/transport.c.obj
 .bss.m_sar_process_flag
                0x0000000020003a24        0x4 CMakeFiles/enocean_switch_nrf52840_xxAA_s140_6.0.0.dir/__/__/mesh/core/src/transport.c.obj
 .bss.m_sar_release
                0x0000000020003a28        0x4 CMakeFiles/enocean_switch_nrf52840_xxAA_s140_6.0.0.dir/__/__/mesh/core/src/transport.c.obj
 .bss.m_sar_session_cache
                0x0000000020003a2c       0x40 CMakeFiles/enocean_switch_nrf52840_xxAA_s140_6.0.0.dir/__/__/mesh/core/src/transport.c.obj
 .bss.m_sar_session_cache_head
                0x0000000020003a6c        0x4 CMakeFiles/enocean_switch_nrf52840_xxAA_s140_6.0.0.dir/__/__/mesh/core/src/transport.c.obj
 .bss.m_trs_config
                0x0000000020003a70       0x18 CMakeFiles/enocean_switch_nrf52840_xxAA_s140_6.0.0.dir/__/__/mesh/core/src/transport.c.obj
 .bss.m_trs_sar_sessions
                0x0000000020003a88      0x1b0 CMakeFiles/enocean_switch_nrf52840_xxAA_s140_6.0.0.dir/__/__/mesh/core/src/transport.c.obj
 .bss.mp_evt_handlers_head
                0x0000000020003c38        0x4 CMakeFiles/enocean_switch_nrf52840_xxAA_s140_6.0.0.dir/__/__/mesh/core/src/event.c.obj
 .bss.m_defrag  0x0000000020003c3c       0x1c CMakeFiles/enocean_switch_nrf52840_xxAA_s140_6.0.0.dir/__/__/mesh/core/src/flash_manager_defrag.c.obj
 .bss.m_token   0x0000000020003c58        0x2 CMakeFiles/enocean_switch_nrf52840_xxAA_s140_6.0.0.dir/__/__/mesh/core/src/flash_manager_defrag.c.obj
 *fill*         0x0000000020003c5a        0x2 
 .bss.mp_recovery_area
                0x0000000020003c5c        0x4 CMakeFiles/enocean_switch_nrf52840_xxAA_s140_6.0.0.dir/__/__/mesh/core/src/flash_manager_defrag.c.obj
 .bss.p_null_ptr.10695
                0x0000000020003c60        0x4 CMakeFiles/enocean_switch_nrf52840_xxAA_s140_6.0.0.dir/__/__/mesh/core/src/flash_manager_defrag.c.obj
 .bss.m_pool    0x0000000020003c64     0x1000 CMakeFiles/enocean_switch_nrf52840_xxAA_s140_6.0.0.dir/__/__/mesh/core/src/packet_mgr.c.obj
 .bss.mp_free_head
                0x0000000020004c64        0x4 CMakeFiles/enocean_switch_nrf52840_xxAA_s140_6.0.0.dir/__/__/mesh/core/src/packet_mgr.c.obj
 .bss.iv_state_set.10350
                0x0000000020004c68        0x1 CMakeFiles/enocean_switch_nrf52840_xxAA_s140_6.0.0.dir/__/__/mesh/core/src/net_state.c.obj
 *fill*         0x0000000020004c69        0x3 
 .bss.lock_count.10326
                0x0000000020004c6c        0x4 CMakeFiles/enocean_switch_nrf52840_xxAA_s140_6.0.0.dir/__/__/mesh/core/src/net_state.c.obj
 .bss.m_flash_manager
                0x0000000020004c70       0x24 CMakeFiles/enocean_switch_nrf52840_xxAA_s140_6.0.0.dir/__/__/mesh/core/src/net_state.c.obj
 .bss.m_iv_update_timer
                0x0000000020004c94       0x18 CMakeFiles/enocean_switch_nrf52840_xxAA_s140_6.0.0.dir/__/__/mesh/core/src/net_state.c.obj
 .bss.m_mesh_evt_handler
                0x0000000020004cac        0x8 CMakeFiles/enocean_switch_nrf52840_xxAA_s140_6.0.0.dir/__/__/mesh/core/src/net_state.c.obj
 .bss.m_net_state
                0x0000000020004cb4       0x14 CMakeFiles/enocean_switch_nrf52840_xxAA_s140_6.0.0.dir/__/__/mesh/core/src/net_state.c.obj
 .bss.m_seqnum_allocation_in_progress
                0x0000000020004cc8        0x1 CMakeFiles/enocean_switch_nrf52840_xxAA_s140_6.0.0.dir/__/__/mesh/core/src/net_state.c.obj
 .bss.m_test_mode
                0x0000000020004cc9        0x1 CMakeFiles/enocean_switch_nrf52840_xxAA_s140_6.0.0.dir/__/__/mesh/core/src/net_state.c.obj
 *fill*         0x0000000020004cca        0x2 
 .bss.m_event_flag
                0x0000000020004ccc        0x4 CMakeFiles/enocean_switch_nrf52840_xxAA_s140_6.0.0.dir/__/__/mesh/core/src/mesh_flash.c.obj
 .bss.m_suspended
                0x0000000020004cd0        0x1 CMakeFiles/enocean_switch_nrf52840_xxAA_s140_6.0.0.dir/__/__/mesh/core/src/mesh_flash.c.obj
 *fill*         0x0000000020004cd1        0x3 
 .bss.m_users   0x0000000020004cd4      0x228 CMakeFiles/enocean_switch_nrf52840_xxAA_s140_6.0.0.dir/__/__/mesh/core/src/mesh_flash.c.obj
 .bss.m_is_enabled
                0x0000000020004efc        0x1 CMakeFiles/enocean_switch_nrf52840_xxAA_s140_6.0.0.dir/__/__/mesh/core/src/nrf_mesh.c.obj
 .bss.m_is_initialized
                0x0000000020004efd        0x1 CMakeFiles/enocean_switch_nrf52840_xxAA_s140_6.0.0.dir/__/__/mesh/core/src/nrf_mesh.c.obj
 *fill*         0x0000000020004efe        0x2 
 .bss.m_rx_cb   0x0000000020004f00        0x4 CMakeFiles/enocean_switch_nrf52840_xxAA_s140_6.0.0.dir/__/__/mesh/core/src/nrf_mesh.c.obj
 .bss.m_128buf  0x0000000020004f04       0x10 CMakeFiles/enocean_switch_nrf52840_xxAA_s140_6.0.0.dir/__/__/mesh/core/src/aes_cmac.c.obj
 .bss.m_subkey1
                0x0000000020004f14       0x10 CMakeFiles/enocean_switch_nrf52840_xxAA_s140_6.0.0.dir/__/__/mesh/core/src/aes_cmac.c.obj
 .bss.m_subkey2
                0x0000000020004f24       0x10 CMakeFiles/enocean_switch_nrf52840_xxAA_s140_6.0.0.dir/__/__/mesh/core/src/aes_cmac.c.obj
 .bss.m_event_flag
                0x0000000020004f34        0x4 CMakeFiles/enocean_switch_nrf52840_xxAA_s140_6.0.0.dir/__/__/mesh/core/src/timer_scheduler.c.obj
 .bss.m_scheduler
                0x0000000020004f38       0x10 CMakeFiles/enocean_switch_nrf52840_xxAA_s140_6.0.0.dir/__/__/mesh/core/src/timer_scheduler.c.obj
 .bss.m_attributes
                0x0000000020004f48        0x3 CMakeFiles/enocean_switch_nrf52840_xxAA_s140_6.0.0.dir/__/__/mesh/core/src/timer.c.obj
 *fill*         0x0000000020004f4b        0x1 
 .bss.m_callbacks
                0x0000000020004f4c        0xc CMakeFiles/enocean_switch_nrf52840_xxAA_s140_6.0.0.dir/__/__/mesh/core/src/timer.c.obj
 .bss.m_is_in_ts
                0x0000000020004f58        0x1 CMakeFiles/enocean_switch_nrf52840_xxAA_s140_6.0.0.dir/__/__/mesh/core/src/timer.c.obj
 *fill*         0x0000000020004f59        0x3 
 .bss.m_reference_time
                0x0000000020004f5c        0x4 CMakeFiles/enocean_switch_nrf52840_xxAA_s140_6.0.0.dir/__/__/mesh/core/src/timer.c.obj
 .bss.m_timeouts
                0x0000000020004f60        0xc CMakeFiles/enocean_switch_nrf52840_xxAA_s140_6.0.0.dir/__/__/mesh/core/src/timer.c.obj
 .bss.m_timer_mut
                0x0000000020004f6c        0x4 CMakeFiles/enocean_switch_nrf52840_xxAA_s140_6.0.0.dir/__/__/mesh/core/src/timer.c.obj
 .bss.m_ts_end_time
                0x0000000020004f70        0x4 CMakeFiles/enocean_switch_nrf52840_xxAA_s140_6.0.0.dir/__/__/mesh/core/src/timer.c.obj
 .bss.mp_ppi_tasks
                0x0000000020004f74        0xc CMakeFiles/enocean_switch_nrf52840_xxAA_s140_6.0.0.dir/__/__/mesh/core/src/timer.c.obj
 .bss.m_current_time
                0x0000000020004f80        0x4 CMakeFiles/enocean_switch_nrf52840_xxAA_s140_6.0.0.dir/__/__/mesh/core/src/ticker.c.obj
 .bss.m_timer   0x0000000020004f84       0x18 CMakeFiles/enocean_switch_nrf52840_xxAA_s140_6.0.0.dir/__/__/mesh/core/src/ticker.c.obj
 .bss.m_current_timeslot
                0x0000000020004f9c       0x1c CMakeFiles/enocean_switch_nrf52840_xxAA_s140_6.0.0.dir/__/__/mesh/core/src/timeslot.c.obj
 .bss.m_lfclk_ppm
                0x0000000020004fb8        0x4 CMakeFiles/enocean_switch_nrf52840_xxAA_s140_6.0.0.dir/__/__/mesh/core/src/timeslot.c.obj
 .bss.m_radio_request_earliest
                0x0000000020004fbc       0x10 CMakeFiles/enocean_switch_nrf52840_xxAA_s140_6.0.0.dir/__/__/mesh/core/src/timeslot.c.obj
 .bss.m_state_lock
                0x0000000020004fcc        0x1 CMakeFiles/enocean_switch_nrf52840_xxAA_s140_6.0.0.dir/__/__/mesh/core/src/timeslot.c.obj
 .bss.m_timeslot_forced_command
                0x0000000020004fcd        0x1 CMakeFiles/enocean_switch_nrf52840_xxAA_s140_6.0.0.dir/__/__/mesh/core/src/timeslot.c.obj
 *fill*         0x0000000020004fce        0x2 
 .bss.s_last_rtc_value.9753
                0x0000000020004fd0        0x8 CMakeFiles/enocean_switch_nrf52840_xxAA_s140_6.0.0.dir/__/__/mesh/core/src/timeslot.c.obj
 .bss.m_bearer_event_fifo
                0x0000000020004fd8       0x14 CMakeFiles/enocean_switch_nrf52840_xxAA_s140_6.0.0.dir/__/__/mesh/core/src/bearer_event.c.obj
 .bss.m_bearer_event_fifo_buffer
                0x0000000020004fec      0x100 CMakeFiles/enocean_switch_nrf52840_xxAA_s140_6.0.0.dir/__/__/mesh/core/src/bearer_event.c.obj
 .bss.m_critical
                0x00000000200050ec        0x4 CMakeFiles/enocean_switch_nrf52840_xxAA_s140_6.0.0.dir/__/__/mesh/core/src/bearer_event.c.obj
 .bss.m_flag_count
                0x00000000200050f0        0x4 CMakeFiles/enocean_switch_nrf52840_xxAA_s140_6.0.0.dir/__/__/mesh/core/src/bearer_event.c.obj
 .bss.m_flag_event_callbacks
                0x00000000200050f4       0x20 CMakeFiles/enocean_switch_nrf52840_xxAA_s140_6.0.0.dir/__/__/mesh/core/src/bearer_event.c.obj
 .bss.m_flags   0x0000000020005114        0x4 CMakeFiles/enocean_switch_nrf52840_xxAA_s140_6.0.0.dir/__/__/mesh/core/src/bearer_event.c.obj
 .bss.m_irq_priority
                0x0000000020005118        0x1 CMakeFiles/enocean_switch_nrf52840_xxAA_s140_6.0.0.dir/__/__/mesh/core/src/bearer_event.c.obj
 *fill*         0x0000000020005119        0x3 
 .bss.m_sequential_event_queue
                0x000000002000511c        0x8 CMakeFiles/enocean_switch_nrf52840_xxAA_s140_6.0.0.dir/__/__/mesh/core/src/bearer_event.c.obj
 .bss.s_recursion_guard.9884
                0x0000000020005124        0x1 CMakeFiles/enocean_switch_nrf52840_xxAA_s140_6.0.0.dir/__/__/mesh/core/src/bearer_event.c.obj
 *fill*         0x0000000020005125        0x3 
 .bss.m_relay_check_cb
                0x0000000020005128        0x4 CMakeFiles/enocean_switch_nrf52840_xxAA_s140_6.0.0.dir/__/__/mesh/core/src/network.c.obj
 .bss.m_relay_enable
                0x000000002000512c        0x1 CMakeFiles/enocean_switch_nrf52840_xxAA_s140_6.0.0.dir/__/__/mesh/core/src/network.c.obj
 *fill*         0x000000002000512d        0x3 
 .bss.m_action_queue
                0x0000000020005130        0xc CMakeFiles/enocean_switch_nrf52840_xxAA_s140_6.0.0.dir/__/__/mesh/core/src/flash_manager.c.obj
 .bss.m_action_queue_buffer
                0x000000002000513c      0x104 CMakeFiles/enocean_switch_nrf52840_xxAA_s140_6.0.0.dir/__/__/mesh/core/src/flash_manager.c.obj
 .bss.m_action_state
                0x0000000020005240        0x1 CMakeFiles/enocean_switch_nrf52840_xxAA_s140_6.0.0.dir/__/__/mesh/core/src/flash_manager.c.obj
 *fill*         0x0000000020005241        0x3 
 .bss.m_memory_listener_queue
                0x0000000020005244        0x8 CMakeFiles/enocean_switch_nrf52840_xxAA_s140_6.0.0.dir/__/__/mesh/core/src/flash_manager.c.obj
 .bss.m_processing_flag
                0x000000002000524c        0x4 CMakeFiles/enocean_switch_nrf52840_xxAA_s140_6.0.0.dir/__/__/mesh/core/src/flash_manager.c.obj
 .bss.m_queue_empty_cb
                0x0000000020005250        0x4 CMakeFiles/enocean_switch_nrf52840_xxAA_s140_6.0.0.dir/__/__/mesh/core/src/flash_manager.c.obj
 .bss.m_state   0x0000000020005254        0x1 CMakeFiles/enocean_switch_nrf52840_xxAA_s140_6.0.0.dir/__/__/mesh/core/src/flash_manager.c.obj
 *fill*         0x0000000020005255        0x1 
 .bss.m_token   0x0000000020005256        0x2 CMakeFiles/enocean_switch_nrf52840_xxAA_s140_6.0.0.dir/__/__/mesh/core/src/flash_manager.c.obj
 .bss.p_current.11639
                0x0000000020005258        0x4 CMakeFiles/enocean_switch_nrf52840_xxAA_s140_6.0.0.dir/__/__/mesh/core/src/flash_manager.c.obj
 .bss.result.11640
                0x000000002000525c        0x1 CMakeFiles/enocean_switch_nrf52840_xxAA_s140_6.0.0.dir/__/__/mesh/core/src/flash_manager.c.obj
 .bss.m_cache_index
                0x000000002000525d        0x1 CMakeFiles/enocean_switch_nrf52840_xxAA_s140_6.0.0.dir/__/__/mesh/core/src/replay_cache.c.obj
 *fill*         0x000000002000525e        0x2 
 .bss.m_replay_cache
                0x0000000020005260      0x200 CMakeFiles/enocean_switch_nrf52840_xxAA_s140_6.0.0.dir/__/__/mesh/core/src/replay_cache.c.obj
 .bss.m_bearer_count
                0x0000000020005460        0x1 CMakeFiles/enocean_switch_nrf52840_xxAA_s140_6.0.0.dir/__/__/mesh/core/src/core_tx.c.obj
 *fill*         0x0000000020005461        0x3 
 .bss.m_tx_complete_callback
                0x0000000020005464        0x4 CMakeFiles/enocean_switch_nrf52840_xxAA_s140_6.0.0.dir/__/__/mesh/core/src/core_tx.c.obj
 .bss.mp_bearers
                0x0000000020005468        0x4 CMakeFiles/enocean_switch_nrf52840_xxAA_s140_6.0.0.dir/__/__/mesh/core/src/core_tx.c.obj
 .bss.m_hb_core_evt_handler
                0x000000002000546c        0x8 CMakeFiles/enocean_switch_nrf52840_xxAA_s140_6.0.0.dir/__/__/mesh/core/src/heartbeat.c.obj
 .bss.m_hb_pending_feat_msg
                0x0000000020005474        0x1 CMakeFiles/enocean_switch_nrf52840_xxAA_s140_6.0.0.dir/__/__/mesh/core/src/heartbeat.c.obj
 .bss.m_hb_pending_pub_msg
                0x0000000020005475        0x1 CMakeFiles/enocean_switch_nrf52840_xxAA_s140_6.0.0.dir/__/__/mesh/core/src/heartbeat.c.obj
 .bss.m_heartbeat_init_done
                0x0000000020005476        0x1 CMakeFiles/enocean_switch_nrf52840_xxAA_s140_6.0.0.dir/__/__/mesh/core/src/heartbeat.c.obj
 *fill*         0x0000000020005477        0x1 
 .bss.m_heartbeat_subscription
                0x0000000020005478       0x10 CMakeFiles/enocean_switch_nrf52840_xxAA_s140_6.0.0.dir/__/__/mesh/core/src/heartbeat.c.obj
 .bss.m_publication_count_decrement_cb
                0x0000000020005488        0x4 CMakeFiles/enocean_switch_nrf52840_xxAA_s140_6.0.0.dir/__/__/mesh/core/src/heartbeat.c.obj
 .bss.m_publication_get_cb
                0x000000002000548c        0x4 CMakeFiles/enocean_switch_nrf52840_xxAA_s140_6.0.0.dir/__/__/mesh/core/src/heartbeat.c.obj
 .bss.m_publication_timer
                0x0000000020005490       0x1c CMakeFiles/enocean_switch_nrf52840_xxAA_s140_6.0.0.dir/__/__/mesh/core/src/heartbeat.c.obj
 .bss.m_subscription_timer
                0x00000000200054ac       0x18 CMakeFiles/enocean_switch_nrf52840_xxAA_s140_6.0.0.dir/__/__/mesh/core/src/heartbeat.c.obj
 .bss.m_adv     0x00000000200054c4       0x98 CMakeFiles/enocean_switch_nrf52840_xxAA_s140_6.0.0.dir/__/__/mesh/core/src/net_beacon.c.obj
 .bss.m_adv_buf
                0x000000002000555c       0x34 CMakeFiles/enocean_switch_nrf52840_xxAA_s140_6.0.0.dir/__/__/mesh/core/src/net_beacon.c.obj
 .bss.m_beacon_salt
                0x0000000020005590       0x10 CMakeFiles/enocean_switch_nrf52840_xxAA_s140_6.0.0.dir/__/__/mesh/core/src/net_beacon.c.obj
 .bss.m_enabled
                0x00000000200055a0        0x1 CMakeFiles/enocean_switch_nrf52840_xxAA_s140_6.0.0.dir/__/__/mesh/core/src/net_beacon.c.obj
 *fill*         0x00000000200055a1        0x3 
 .bss.m_tx_timer
                0x00000000200055a4       0x18 CMakeFiles/enocean_switch_nrf52840_xxAA_s140_6.0.0.dir/__/__/mesh/core/src/net_beacon.c.obj
 .bss.mp_beacon_info
                0x00000000200055bc        0x4 CMakeFiles/enocean_switch_nrf52840_xxAA_s140_6.0.0.dir/__/__/mesh/core/src/net_beacon.c.obj
 .bss.m_bearer  0x00000000200055c0        0xc CMakeFiles/enocean_switch_nrf52840_xxAA_s140_6.0.0.dir/__/__/mesh/core/src/core_tx_adv.c.obj
 .bss.m_bearer_roles
                0x00000000200055cc      0x138 CMakeFiles/enocean_switch_nrf52840_xxAA_s140_6.0.0.dir/__/__/mesh/core/src/core_tx_adv.c.obj
 .bss.m_current_alloc
                0x0000000020005704        0x8 CMakeFiles/enocean_switch_nrf52840_xxAA_s140_6.0.0.dir/__/__/mesh/core/src/core_tx_adv.c.obj
 .bss.m_originator_adv_packet_buffer
                0x000000002000570c      0x100 CMakeFiles/enocean_switch_nrf52840_xxAA_s140_6.0.0.dir/__/__/mesh/core/src/core_tx_adv.c.obj
 .bss.m_relay_adv_packet_buffer
                0x000000002000580c       0x80 CMakeFiles/enocean_switch_nrf52840_xxAA_s140_6.0.0.dir/__/__/mesh/core/src/core_tx_adv.c.obj
 .bss.m_subscribers
                0x000000002000588c        0x4 CMakeFiles/enocean_switch_nrf52840_xxAA_s140_6.0.0.dir/__/__/mesh/bearer/src/ad_listener.c.obj
 .bss.m_adtype_filter
                0x0000000020005890       0x38 CMakeFiles/enocean_switch_nrf52840_xxAA_s140_6.0.0.dir/__/__/mesh/bearer/src/ad_type_filter.c.obj
 .bss.m_adv_prng
                0x00000000200058c8       0x10 CMakeFiles/enocean_switch_nrf52840_xxAA_s140_6.0.0.dir/__/__/mesh/bearer/src/advertiser.c.obj
 .bss.m_action_queue
                0x00000000200058d8        0x8 CMakeFiles/enocean_switch_nrf52840_xxAA_s140_6.0.0.dir/__/__/mesh/bearer/src/bearer_handler.c.obj
 .bss.m_end_time
                0x00000000200058e0        0x4 CMakeFiles/enocean_switch_nrf52840_xxAA_s140_6.0.0.dir/__/__/mesh/bearer/src/bearer_handler.c.obj
 .bss.m_scanner_is_active
                0x00000000200058e4        0x1 CMakeFiles/enocean_switch_nrf52840_xxAA_s140_6.0.0.dir/__/__/mesh/bearer/src/bearer_handler.c.obj
 .bss.m_stopped
                0x00000000200058e5        0x1 CMakeFiles/enocean_switch_nrf52840_xxAA_s140_6.0.0.dir/__/__/mesh/bearer/src/bearer_handler.c.obj
 *fill*         0x00000000200058e6        0x2 
 .bss.mp_action
                0x00000000200058e8        0x4 CMakeFiles/enocean_switch_nrf52840_xxAA_s140_6.0.0.dir/__/__/mesh/bearer/src/bearer_handler.c.obj
 .bss.m_next_channel_index
                0x00000000200058ec        0x1 CMakeFiles/enocean_switch_nrf52840_xxAA_s140_6.0.0.dir/__/__/mesh/bearer/src/broadcast.c.obj
 *fill*         0x00000000200058ed        0x3 
 .bss.m_accepted_amount
                0x00000000200058f0        0x4 CMakeFiles/enocean_switch_nrf52840_xxAA_s140_6.0.0.dir/__/__/mesh/bearer/src/filter_engine.c.obj
 .bss.m_filter_list_head
                0x00000000200058f4        0x4 CMakeFiles/enocean_switch_nrf52840_xxAA_s140_6.0.0.dir/__/__/mesh/bearer/src/filter_engine.c.obj
 .bss.m_scanner
                0x00000000200058f8      0x290 CMakeFiles/enocean_switch_nrf52840_xxAA_s140_6.0.0.dir/__/__/mesh/bearer/src/scanner.c.obj
 .bss.m_tid     0x0000000020005b88        0x1 CMakeFiles/enocean_switch_nrf52840_xxAA_s140_6.0.0.dir/__/__/models/simple_on_off/src/simple_on_off_client.c.obj
 *fill*         0x0000000020005b89        0x3 
 .bss.m_evt_cb  0x0000000020005b8c        0x4 CMakeFiles/enocean_switch_nrf52840_xxAA_s140_6.0.0.dir/__/__/models/config/src/config_server.c.obj
 .bss.m_heartbeat_publication
                0x0000000020005b90       0x14 CMakeFiles/enocean_switch_nrf52840_xxAA_s140_6.0.0.dir/__/__/models/config/src/config_server.c.obj
 .bss.m_node_reset_pending
                0x0000000020005ba4        0x1 CMakeFiles/enocean_switch_nrf52840_xxAA_s140_6.0.0.dir/__/__/models/config/src/config_server.c.obj
 *fill*         0x0000000020005ba5        0x3 
 .bss.m_attention_timer
                0x0000000020005ba8       0x18 CMakeFiles/enocean_switch_nrf52840_xxAA_s140_6.0.0.dir/__/__/models/health/src/health_server.c.obj
 .bss.mp_attention_list
                0x0000000020005bc0        0x4 CMakeFiles/enocean_switch_nrf52840_xxAA_s140_6.0.0.dir/__/__/models/health/src/health_server.c.obj
 .bss.m_publish_timer
                0x0000000020005bc4       0x18 CMakeFiles/enocean_switch_nrf52840_xxAA_s140_6.0.0.dir/__/__/mesh/access/src/access_publish.c.obj
 .bss.m_publish_timer_counter
                0x0000000020005bdc        0x4 CMakeFiles/enocean_switch_nrf52840_xxAA_s140_6.0.0.dir/__/__/mesh/access/src/access_publish.c.obj
 .bss.m_publish_timer_running
                0x0000000020005be0        0x1 CMakeFiles/enocean_switch_nrf52840_xxAA_s140_6.0.0.dir/__/__/mesh/access/src/access_publish.c.obj
 .bss.m_timer_resolution
                0x0000000020005be1        0x1 CMakeFiles/enocean_switch_nrf52840_xxAA_s140_6.0.0.dir/__/__/mesh/access/src/access_publish.c.obj
 *fill*         0x0000000020005be2        0x2 
 .bss.mp_publication_list
                0x0000000020005be4        0x4 CMakeFiles/enocean_switch_nrf52840_xxAA_s140_6.0.0.dir/__/__/mesh/access/src/access_publish.c.obj
 .bss.m_element_pool
                0x0000000020005be8       0x1e CMakeFiles/enocean_switch_nrf52840_xxAA_s140_6.0.0.dir/__/__/mesh/access/src/access.c.obj
 *fill*         0x0000000020005c06        0x2 
 .bss.m_evt_handler
                0x0000000020005c08        0x8 CMakeFiles/enocean_switch_nrf52840_xxAA_s140_6.0.0.dir/__/__/mesh/access/src/access.c.obj
 .bss.m_flash_manager
                0x0000000020005c10       0x24 CMakeFiles/enocean_switch_nrf52840_xxAA_s140_6.0.0.dir/__/__/mesh/access/src/access.c.obj
 .bss.m_flash_not_ready
                0x0000000020005c34        0x1 CMakeFiles/enocean_switch_nrf52840_xxAA_s140_6.0.0.dir/__/__/mesh/access/src/access.c.obj
 .bss.m_metadata_stored
                0x0000000020005c35        0x1 CMakeFiles/enocean_switch_nrf52840_xxAA_s140_6.0.0.dir/__/__/mesh/access/src/access.c.obj
 *fill*         0x0000000020005c36        0x2 
 .bss.m_model_pool
                0x0000000020005c38      0x138 CMakeFiles/enocean_switch_nrf52840_xxAA_s140_6.0.0.dir/__/__/mesh/access/src/access.c.obj
 .bss.m_subscription_list_pool
                0x0000000020005d70       0x30 CMakeFiles/enocean_switch_nrf52840_xxAA_s140_6.0.0.dir/__/__/mesh/access/src/access.c.obj
 .bss.m_reliable
                0x0000000020005da0      0x124 CMakeFiles/enocean_switch_nrf52840_xxAA_s140_6.0.0.dir/__/__/mesh/access/src/access_reliable.c.obj
 .bss.m_addr_nonvirtual_allocated
                0x0000000020005ec4        0x4 CMakeFiles/enocean_switch_nrf52840_xxAA_s140_6.0.0.dir/__/__/mesh/access/src/device_state_manager.c.obj
 .bss.m_addr_nonvirtual_needs_flashing
                0x0000000020005ec8        0x4 CMakeFiles/enocean_switch_nrf52840_xxAA_s140_6.0.0.dir/__/__/mesh/access/src/device_state_manager.c.obj
 .bss.m_addr_unicast_allocated
                0x0000000020005ecc        0x4 CMakeFiles/enocean_switch_nrf52840_xxAA_s140_6.0.0.dir/__/__/mesh/access/src/device_state_manager.c.obj
 .bss.m_addr_unicast_needs_flashing
                0x0000000020005ed0        0x4 CMakeFiles/enocean_switch_nrf52840_xxAA_s140_6.0.0.dir/__/__/mesh/access/src/device_state_manager.c.obj
 .bss.m_addr_virtual_allocated
                0x0000000020005ed4        0x4 CMakeFiles/enocean_switch_nrf52840_xxAA_s140_6.0.0.dir/__/__/mesh/access/src/device_state_manager.c.obj
 .bss.m_addr_virtual_needs_flashing
                0x0000000020005ed8        0x4 CMakeFiles/enocean_switch_nrf52840_xxAA_s140_6.0.0.dir/__/__/mesh/access/src/device_state_manager.c.obj
 .bss.m_addresses
                0x0000000020005edc       0x40 CMakeFiles/enocean_switch_nrf52840_xxAA_s140_6.0.0.dir/__/__/mesh/access/src/device_state_manager.c.obj
 .bss.m_appkey_allocated
                0x0000000020005f1c        0x4 CMakeFiles/enocean_switch_nrf52840_xxAA_s140_6.0.0.dir/__/__/mesh/access/src/device_state_manager.c.obj
 .bss.m_appkey_needs_flashing
                0x0000000020005f20        0x4 CMakeFiles/enocean_switch_nrf52840_xxAA_s140_6.0.0.dir/__/__/mesh/access/src/device_state_manager.c.obj
 .bss.m_appkeys
                0x0000000020005f24      0x150 CMakeFiles/enocean_switch_nrf52840_xxAA_s140_6.0.0.dir/__/__/mesh/access/src/device_state_manager.c.obj
 .bss.m_devkey_allocated
                0x0000000020006074        0x4 CMakeFiles/enocean_switch_nrf52840_xxAA_s140_6.0.0.dir/__/__/mesh/access/src/device_state_manager.c.obj
 .bss.m_devkey_needs_flashing
                0x0000000020006078        0x4 CMakeFiles/enocean_switch_nrf52840_xxAA_s140_6.0.0.dir/__/__/mesh/access/src/device_state_manager.c.obj
 .bss.m_devkeys
                0x000000002000607c       0x16 CMakeFiles/enocean_switch_nrf52840_xxAA_s140_6.0.0.dir/__/__/mesh/access/src/device_state_manager.c.obj
 .bss.m_flash_is_available
                0x0000000020006092        0x1 CMakeFiles/enocean_switch_nrf52840_xxAA_s140_6.0.0.dir/__/__/mesh/access/src/device_state_manager.c.obj
 *fill*         0x0000000020006093        0x1 
 .bss.m_flash_manager
                0x0000000020006094       0x24 CMakeFiles/enocean_switch_nrf52840_xxAA_s140_6.0.0.dir/__/__/mesh/access/src/device_state_manager.c.obj
 .bss.m_flash_mem_listener_update_all
                0x00000000200060b8       0x10 CMakeFiles/enocean_switch_nrf52840_xxAA_s140_6.0.0.dir/__/__/mesh/access/src/device_state_manager.c.obj
 .bss.m_has_primary_subnet
                0x00000000200060c8        0x1 CMakeFiles/enocean_switch_nrf52840_xxAA_s140_6.0.0.dir/__/__/mesh/access/src/device_state_manager.c.obj
 *fill*         0x00000000200060c9        0x3 
 .bss.m_local_unicast_addr
                0x00000000200060cc        0x4 CMakeFiles/enocean_switch_nrf52840_xxAA_s140_6.0.0.dir/__/__/mesh/access/src/device_state_manager.c.obj
 .bss.m_mesh_evt_handler
                0x00000000200060d0        0x8 CMakeFiles/enocean_switch_nrf52840_xxAA_s140_6.0.0.dir/__/__/mesh/access/src/device_state_manager.c.obj
 .bss.m_subnet_allocated
                0x00000000200060d8        0x4 CMakeFiles/enocean_switch_nrf52840_xxAA_s140_6.0.0.dir/__/__/mesh/access/src/device_state_manager.c.obj
 .bss.m_subnet_needs_flashing
                0x00000000200060dc        0x4 CMakeFiles/enocean_switch_nrf52840_xxAA_s140_6.0.0.dir/__/__/mesh/access/src/device_state_manager.c.obj
 .bss.m_subnets
                0x00000000200060e0      0x2a0 CMakeFiles/enocean_switch_nrf52840_xxAA_s140_6.0.0.dir/__/__/mesh/access/src/device_state_manager.c.obj
 .bss.m_virtual_addresses
                0x0000000020006380       0xa0 CMakeFiles/enocean_switch_nrf52840_xxAA_s140_6.0.0.dir/__/__/mesh/access/src/device_state_manager.c.obj
 .bss.m_event_handler
                0x0000000020006420        0x4 CMakeFiles/enocean_switch_nrf52840_xxAA_s140_6.0.0.dir/__/__/mesh/prov/src/prov_beacon.c.obj
 .bss.m_offload_ecdh
                0x0000000020006424        0x1 CMakeFiles/enocean_switch_nrf52840_xxAA_s140_6.0.0.dir/__/__/mesh/prov/src/prov_utils.c.obj
 *fill*         0x0000000020006425        0x3 
 .bss.mp_bearer_head
                0x0000000020006428        0x4 CMakeFiles/enocean_switch_nrf52840_xxAA_s140_6.0.0.dir/__/__/mesh/prov/src/prov_bearer_adv.c.obj
 .bss._acDownBuffer
                0x000000002000642c       0x80 ../../external/rtt/librtt_nrf52840_xxAA.a(SEGGER_RTT.c.obj)
 .bss._acUpBuffer
                0x00000000200064ac      0x400 ../../external/rtt/librtt_nrf52840_xxAA.a(SEGGER_RTT.c.obj)
 .bss.__malloc_free_list
                0x00000000200068ac        0x4 /usr/bin/../lib/gcc/arm-none-eabi/7.2.1/../../../../arm-none-eabi/lib/thumb/v7e-m/fpv4-sp/hard/libg_nano.a(lib_a-nano-mallocr.o)
                0x00000000200068ac                __malloc_free_list
 .bss.__malloc_sbrk_start
                0x00000000200068b0        0x4 /usr/bin/../lib/gcc/arm-none-eabi/7.2.1/../../../../arm-none-eabi/lib/thumb/v7e-m/fpv4-sp/hard/libg_nano.a(lib_a-nano-mallocr.o)
                0x00000000200068b0                __malloc_sbrk_start
 .bss.heap_end.5377
                0x00000000200068b4        0x4 /usr/bin/../lib/gcc/arm-none-eabi/7.2.1/../../../../arm-none-eabi/lib/thumb/v7e-m/fpv4-sp/hard/libnosys.a(sbrk.o)
 *(COMMON)
 COMMON         0x00000000200068b8        0xc CMakeFiles/enocean_switch_nrf52840_xxAA_s140_6.0.0.dir/__/common/src/mesh_softdevice_init.c.obj
                0x00000000200068b8                nrf_nvic_state
 COMMON         0x00000000200068c4       0x24 CMakeFiles/enocean_switch_nrf52840_xxAA_s140_6.0.0.dir/__/__/mesh/core/src/core_tx.c.obj
                0x00000000200068c4                m_packet
 COMMON         0x00000000200068e8       0x78 ../../external/rtt/librtt_nrf52840_xxAA.a(SEGGER_RTT.c.obj)
                0x00000000200068e8                _SEGGER_RTT
 COMMON         0x0000000020006960        0x4 /usr/bin/../lib/gcc/arm-none-eabi/7.2.1/../../../../arm-none-eabi/lib/thumb/v7e-m/fpv4-sp/hard/libg_nano.a(lib_a-reent.o)
                0x0000000020006960                errno
                0x0000000020006964                . = ALIGN (0x4)
                0x0000000020006964                __bss_end__ = .

.heap           0x0000000020006968     0x2000
                0x0000000020006968                __HeapBase = .
                0x0000000020006968                __end__ = .
                0x0000000020006968                PROVIDE (end, .)
 *(.heap*)
 .heap          0x0000000020006968     0x2000 CMakeFiles/enocean_switch_nrf52840_xxAA_s140_6.0.0.dir/home/mazzer/work/nordic/sdk/nRF5_SDK_15.0.0/modules/nrfx/mdk/gcc_startup_nrf52840.S.obj
                0x0000000020008968                __HeapLimit = .

.stack_dummy    0x0000000020006968     0x2000
 *(.stack*)
 .stack         0x0000000020006968     0x2000 CMakeFiles/enocean_switch_nrf52840_xxAA_s140_6.0.0.dir/home/mazzer/work/nordic/sdk/nRF5_SDK_15.0.0/modules/nrfx/mdk/gcc_startup_nrf52840.S.obj
                0x000000002003fd00                __StackTop = (ORIGIN (RAM) + LENGTH (RAM))
                0x000000002003dd00                __StackLimit = (__StackTop - SIZEOF (.stack_dummy))
                0x000000002003fd00                PROVIDE (__stack, __StackTop)
                0x0000000000000001                ASSERT ((__StackLimit >= __HeapLimit), region RAM overflowed with stack)
                0x0000000000000168                DataInitFlashUsed = (__bss_start__ - __data_start__)
                0x0000000000020870                CodeFlashUsed = (__etext - ORIGIN (FLASH))
                0x00000000000209d8                TotalFlashUsed = (CodeFlashUsed + DataInitFlashUsed)
                0x0000000000000001                ASSERT ((TotalFlashUsed <= LENGTH (FLASH)), region FLASH overflowed with .data and user data)
OUTPUT(enocean_switch_nrf52840_xxAA_s140_6.0.0.elf elf32-littlearm)

.ARM.attributes
                0x0000000000000000       0x30
 .ARM.attributes
                0x0000000000000000       0x22 /usr/bin/../lib/gcc/arm-none-eabi/7.2.1/thumb/v7e-m/fpv4-sp/hard/crti.o
 .ARM.attributes
                0x0000000000000022       0x34 /usr/bin/../lib/gcc/arm-none-eabi/7.2.1/thumb/v7e-m/fpv4-sp/hard/crtbegin.o
 .ARM.attributes
                0x0000000000000056       0x20 /usr/bin/../lib/gcc/arm-none-eabi/7.2.1/../../../../arm-none-eabi/lib/thumb/v7e-m/fpv4-sp/hard/crt0.o
 .ARM.attributes
                0x0000000000000076       0x39 CMakeFiles/enocean_switch_nrf52840_xxAA_s140_6.0.0.dir/src/main.c.obj
 .ARM.attributes
                0x00000000000000af       0x39 CMakeFiles/enocean_switch_nrf52840_xxAA_s140_6.0.0.dir/src/enocean.c.obj
 .ARM.attributes
                0x00000000000000e8       0x39 CMakeFiles/enocean_switch_nrf52840_xxAA_s140_6.0.0.dir/src/flash_helper.c.obj
 .ARM.attributes
                0x0000000000000121       0x39 CMakeFiles/enocean_switch_nrf52840_xxAA_s140_6.0.0.dir/__/__/mesh/stack/src/mesh_stack.c.obj
 .ARM.attributes
                0x000000000000015a       0x39 CMakeFiles/enocean_switch_nrf52840_xxAA_s140_6.0.0.dir/__/common/src/mesh_softdevice_init.c.obj
 .ARM.attributes
                0x0000000000000193       0x39 CMakeFiles/enocean_switch_nrf52840_xxAA_s140_6.0.0.dir/__/common/src/mesh_provisionee.c.obj
 .ARM.attributes
                0x00000000000001cc       0x39 CMakeFiles/enocean_switch_nrf52840_xxAA_s140_6.0.0.dir/__/common/src/rtt_input.c.obj
 .ARM.attributes
                0x0000000000000205       0x39 CMakeFiles/enocean_switch_nrf52840_xxAA_s140_6.0.0.dir/__/common/src/simple_hal.c.obj
 .ARM.attributes
                0x000000000000023e       0x39 CMakeFiles/enocean_switch_nrf52840_xxAA_s140_6.0.0.dir/__/nrf_mesh_weak.c.obj
 .ARM.attributes
                0x0000000000000277       0x39 CMakeFiles/enocean_switch_nrf52840_xxAA_s140_6.0.0.dir/__/common/src/app_error_weak.c.obj
 .ARM.attributes
                0x00000000000002b0       0x39 CMakeFiles/enocean_switch_nrf52840_xxAA_s140_6.0.0.dir/__/common/src/assertion_handler_weak.c.obj
 .ARM.attributes
                0x00000000000002e9       0x39 CMakeFiles/enocean_switch_nrf52840_xxAA_s140_6.0.0.dir/__/__/mesh/core/src/nrf_mesh_configure.c.obj
 .ARM.attributes
                0x0000000000000322       0x39 CMakeFiles/enocean_switch_nrf52840_xxAA_s140_6.0.0.dir/__/__/mesh/core/src/aes.c.obj
 .ARM.attributes
                0x000000000000035b       0x39 CMakeFiles/enocean_switch_nrf52840_xxAA_s140_6.0.0.dir/__/__/mesh/core/src/msg_cache.c.obj
 .ARM.attributes
                0x0000000000000394       0x39 CMakeFiles/enocean_switch_nrf52840_xxAA_s140_6.0.0.dir/__/__/mesh/core/src/transport.c.obj
 .ARM.attributes
                0x00000000000003cd       0x39 CMakeFiles/enocean_switch_nrf52840_xxAA_s140_6.0.0.dir/__/__/mesh/core/src/event.c.obj
 .ARM.attributes
                0x0000000000000406       0x39 CMakeFiles/enocean_switch_nrf52840_xxAA_s140_6.0.0.dir/__/__/mesh/core/src/packet_buffer.c.obj
 .ARM.attributes
                0x000000000000043f       0x39 CMakeFiles/enocean_switch_nrf52840_xxAA_s140_6.0.0.dir/__/__/mesh/core/src/flash_manager_defrag.c.obj
 .ARM.attributes
                0x0000000000000478       0x39 CMakeFiles/enocean_switch_nrf52840_xxAA_s140_6.0.0.dir/__/__/mesh/core/src/fifo.c.obj
 .ARM.attributes
                0x00000000000004b1       0x39 CMakeFiles/enocean_switch_nrf52840_xxAA_s140_6.0.0.dir/__/__/mesh/core/src/nrf_flash.c.obj
 .ARM.attributes
                0x00000000000004ea       0x39 CMakeFiles/enocean_switch_nrf52840_xxAA_s140_6.0.0.dir/__/__/mesh/core/src/packet_mgr.c.obj
 .ARM.attributes
                0x0000000000000523       0x39 CMakeFiles/enocean_switch_nrf52840_xxAA_s140_6.0.0.dir/__/__/mesh/core/src/net_state.c.obj
 .ARM.attributes
                0x000000000000055c       0x39 CMakeFiles/enocean_switch_nrf52840_xxAA_s140_6.0.0.dir/__/__/mesh/core/src/mesh_flash.c.obj
 .ARM.attributes
                0x0000000000000595       0x39 CMakeFiles/enocean_switch_nrf52840_xxAA_s140_6.0.0.dir/__/__/mesh/core/src/nrf_mesh_utils.c.obj
 .ARM.attributes
                0x00000000000005ce       0x39 CMakeFiles/enocean_switch_nrf52840_xxAA_s140_6.0.0.dir/__/__/mesh/core/src/nrf_mesh.c.obj
 .ARM.attributes
                0x0000000000000607       0x39 CMakeFiles/enocean_switch_nrf52840_xxAA_s140_6.0.0.dir/__/__/mesh/core/src/queue.c.obj
 .ARM.attributes
                0x0000000000000640       0x39 CMakeFiles/enocean_switch_nrf52840_xxAA_s140_6.0.0.dir/__/__/mesh/core/src/hal.c.obj
 .ARM.attributes
                0x0000000000000679       0x39 CMakeFiles/enocean_switch_nrf52840_xxAA_s140_6.0.0.dir/__/__/mesh/core/src/aes_cmac.c.obj
 .ARM.attributes
                0x00000000000006b2       0x39 CMakeFiles/enocean_switch_nrf52840_xxAA_s140_6.0.0.dir/__/__/mesh/core/src/timer_scheduler.c.obj
 .ARM.attributes
                0x00000000000006eb       0x39 CMakeFiles/enocean_switch_nrf52840_xxAA_s140_6.0.0.dir/__/__/mesh/core/src/timer.c.obj
 .ARM.attributes
                0x0000000000000724       0x39 CMakeFiles/enocean_switch_nrf52840_xxAA_s140_6.0.0.dir/__/__/mesh/core/src/ticker.c.obj
 .ARM.attributes
                0x000000000000075d       0x39 CMakeFiles/enocean_switch_nrf52840_xxAA_s140_6.0.0.dir/__/__/mesh/core/src/rand.c.obj
 .ARM.attributes
                0x0000000000000796       0x39 CMakeFiles/enocean_switch_nrf52840_xxAA_s140_6.0.0.dir/__/__/mesh/core/src/nrf_mesh_opt.c.obj
 .ARM.attributes
                0x00000000000007cf       0x39 CMakeFiles/enocean_switch_nrf52840_xxAA_s140_6.0.0.dir/__/__/mesh/core/src/timeslot.c.obj
 .ARM.attributes
                0x0000000000000808       0x39 CMakeFiles/enocean_switch_nrf52840_xxAA_s140_6.0.0.dir/__/__/mesh/core/src/bearer_event.c.obj
 .ARM.attributes
                0x0000000000000841       0x39 CMakeFiles/enocean_switch_nrf52840_xxAA_s140_6.0.0.dir/__/__/mesh/core/src/enc.c.obj
 .ARM.attributes
                0x000000000000087a       0x39 CMakeFiles/enocean_switch_nrf52840_xxAA_s140_6.0.0.dir/__/__/mesh/core/src/network.c.obj
 .ARM.attributes
                0x00000000000008b3       0x39 CMakeFiles/enocean_switch_nrf52840_xxAA_s140_6.0.0.dir/__/__/mesh/core/src/net_packet.c.obj
 .ARM.attributes
                0x00000000000008ec       0x39 CMakeFiles/enocean_switch_nrf52840_xxAA_s140_6.0.0.dir/__/__/mesh/core/src/msqueue.c.obj
 .ARM.attributes
                0x0000000000000925       0x39 CMakeFiles/enocean_switch_nrf52840_xxAA_s140_6.0.0.dir/__/__/mesh/core/src/nrf_mesh_keygen.c.obj
 .ARM.attributes
                0x000000000000095e       0x39 CMakeFiles/enocean_switch_nrf52840_xxAA_s140_6.0.0.dir/__/__/mesh/core/src/list.c.obj
 .ARM.attributes
                0x0000000000000997       0x39 CMakeFiles/enocean_switch_nrf52840_xxAA_s140_6.0.0.dir/__/__/mesh/core/src/log.c.obj
 .ARM.attributes
                0x00000000000009d0       0x39 CMakeFiles/enocean_switch_nrf52840_xxAA_s140_6.0.0.dir/__/__/mesh/core/src/flash_manager.c.obj
 .ARM.attributes
                0x0000000000000a09       0x39 CMakeFiles/enocean_switch_nrf52840_xxAA_s140_6.0.0.dir/__/__/mesh/core/src/ccm_soft.c.obj
 .ARM.attributes
                0x0000000000000a42       0x39 CMakeFiles/enocean_switch_nrf52840_xxAA_s140_6.0.0.dir/__/__/mesh/core/src/replay_cache.c.obj
 .ARM.attributes
                0x0000000000000a7b       0x39 CMakeFiles/enocean_switch_nrf52840_xxAA_s140_6.0.0.dir/__/__/mesh/core/src/beacon.c.obj
 .ARM.attributes
                0x0000000000000ab4       0x39 CMakeFiles/enocean_switch_nrf52840_xxAA_s140_6.0.0.dir/__/__/mesh/core/src/flash_manager_internal.c.obj
 .ARM.attributes
                0x0000000000000aed       0x39 CMakeFiles/enocean_switch_nrf52840_xxAA_s140_6.0.0.dir/__/__/mesh/core/src/core_tx.c.obj
 .ARM.attributes
                0x0000000000000b26       0x39 CMakeFiles/enocean_switch_nrf52840_xxAA_s140_6.0.0.dir/__/__/mesh/core/src/heartbeat.c.obj
 .ARM.attributes
                0x0000000000000b5f       0x39 CMakeFiles/enocean_switch_nrf52840_xxAA_s140_6.0.0.dir/__/__/mesh/core/src/net_beacon.c.obj
 .ARM.attributes
                0x0000000000000b98       0x39 CMakeFiles/enocean_switch_nrf52840_xxAA_s140_6.0.0.dir/__/__/mesh/core/src/core_tx_adv.c.obj
 .ARM.attributes
                0x0000000000000bd1       0x39 CMakeFiles/enocean_switch_nrf52840_xxAA_s140_6.0.0.dir/__/__/mesh/bearer/src/ad_listener.c.obj
 .ARM.attributes
                0x0000000000000c0a       0x39 CMakeFiles/enocean_switch_nrf52840_xxAA_s140_6.0.0.dir/__/__/mesh/bearer/src/ad_type_filter.c.obj
 .ARM.attributes
                0x0000000000000c43       0x39 CMakeFiles/enocean_switch_nrf52840_xxAA_s140_6.0.0.dir/__/__/mesh/bearer/src/advertiser.c.obj
 .ARM.attributes
                0x0000000000000c7c       0x39 CMakeFiles/enocean_switch_nrf52840_xxAA_s140_6.0.0.dir/__/__/mesh/bearer/src/bearer_handler.c.obj
 .ARM.attributes
                0x0000000000000cb5       0x39 CMakeFiles/enocean_switch_nrf52840_xxAA_s140_6.0.0.dir/__/__/mesh/bearer/src/broadcast.c.obj
 .ARM.attributes
                0x0000000000000cee       0x39 CMakeFiles/enocean_switch_nrf52840_xxAA_s140_6.0.0.dir/__/__/mesh/bearer/src/filter_engine.c.obj
 .ARM.attributes
                0x0000000000000d27       0x39 CMakeFiles/enocean_switch_nrf52840_xxAA_s140_6.0.0.dir/__/__/mesh/bearer/src/radio_config.c.obj
 .ARM.attributes
                0x0000000000000d60       0x39 CMakeFiles/enocean_switch_nrf52840_xxAA_s140_6.0.0.dir/__/__/mesh/bearer/src/scanner.c.obj
 .ARM.attributes
                0x0000000000000d99       0x39 CMakeFiles/enocean_switch_nrf52840_xxAA_s140_6.0.0.dir/__/__/models/simple_on_off/src/simple_on_off_client.c.obj
 .ARM.attributes
                0x0000000000000dd2       0x39 CMakeFiles/enocean_switch_nrf52840_xxAA_s140_6.0.0.dir/__/__/models/config/src/composition_data.c.obj
 .ARM.attributes
                0x0000000000000e0b       0x39 CMakeFiles/enocean_switch_nrf52840_xxAA_s140_6.0.0.dir/__/__/models/config/src/config_server.c.obj
 .ARM.attributes
                0x0000000000000e44       0x39 CMakeFiles/enocean_switch_nrf52840_xxAA_s140_6.0.0.dir/__/__/models/config/src/packed_index_list.c.obj
 .ARM.attributes
                0x0000000000000e7d       0x39 CMakeFiles/enocean_switch_nrf52840_xxAA_s140_6.0.0.dir/__/__/models/health/src/health_server.c.obj
 .ARM.attributes
                0x0000000000000eb6       0x39 CMakeFiles/enocean_switch_nrf52840_xxAA_s140_6.0.0.dir/__/__/mesh/access/src/access_publish.c.obj
 .ARM.attributes
                0x0000000000000eef       0x39 CMakeFiles/enocean_switch_nrf52840_xxAA_s140_6.0.0.dir/__/__/mesh/access/src/access.c.obj
 .ARM.attributes
                0x0000000000000f28       0x39 CMakeFiles/enocean_switch_nrf52840_xxAA_s140_6.0.0.dir/__/__/mesh/access/src/access_reliable.c.obj
 .ARM.attributes
                0x0000000000000f61       0x39 CMakeFiles/enocean_switch_nrf52840_xxAA_s140_6.0.0.dir/__/__/mesh/access/src/device_state_manager.c.obj
 .ARM.attributes
                0x0000000000000f9a       0x39 CMakeFiles/enocean_switch_nrf52840_xxAA_s140_6.0.0.dir/__/__/mesh/prov/src/prov_provisionee.c.obj
 .ARM.attributes
                0x0000000000000fd3       0x39 CMakeFiles/enocean_switch_nrf52840_xxAA_s140_6.0.0.dir/__/__/mesh/prov/src/nrf_mesh_prov.c.obj
 .ARM.attributes
                0x000000000000100c       0x39 CMakeFiles/enocean_switch_nrf52840_xxAA_s140_6.0.0.dir/__/__/mesh/prov/src/provisioning.c.obj
 .ARM.attributes
                0x0000000000001045       0x39 CMakeFiles/enocean_switch_nrf52840_xxAA_s140_6.0.0.dir/__/__/mesh/prov/src/prov_beacon.c.obj
 .ARM.attributes
                0x000000000000107e       0x39 CMakeFiles/enocean_switch_nrf52840_xxAA_s140_6.0.0.dir/__/__/mesh/prov/src/prov_utils.c.obj
 .ARM.attributes
                0x00000000000010b7       0x39 CMakeFiles/enocean_switch_nrf52840_xxAA_s140_6.0.0.dir/__/__/mesh/prov/src/prov_bearer_adv.c.obj
 .ARM.attributes
                0x00000000000010f0       0x39 CMakeFiles/enocean_switch_nrf52840_xxAA_s140_6.0.0.dir/home/mazzer/work/nordic/sdk/nRF5_SDK_15.0.0/modules/nrfx/mdk/system_nrf52840.c.obj
 .ARM.attributes
                0x0000000000001129       0x20 CMakeFiles/enocean_switch_nrf52840_xxAA_s140_6.0.0.dir/home/mazzer/work/nordic/sdk/nRF5_SDK_15.0.0/modules/nrfx/mdk/gcc_startup_nrf52840.S.obj
 .ARM.attributes
                0x0000000000001149       0x39 CMakeFiles/enocean_switch_nrf52840_xxAA_s140_6.0.0.dir/home/mazzer/work/nordic/sdk/nRF5_SDK_15.0.0/components/libraries/util/app_error.c.obj
 .ARM.attributes
                0x0000000000001182       0x39 CMakeFiles/enocean_switch_nrf52840_xxAA_s140_6.0.0.dir/home/mazzer/work/nordic/sdk/nRF5_SDK_15.0.0/components/libraries/util/app_error_handler_gcc.c.obj
 .ARM.attributes
                0x00000000000011bb       0x39 ../../external/rtt/librtt_nrf52840_xxAA.a(SEGGER_RTT.c.obj)
 .ARM.attributes
                0x00000000000011f4       0x39 ../../external/rtt/librtt_nrf52840_xxAA.a(SEGGER_RTT_printf.c.obj)
 .ARM.attributes
                0x000000000000122d       0x39 ../../external/micro-ecc/libuECC_nrf52840_xxAA.a(uECC.c.obj)
 .ARM.attributes
                0x0000000000001266       0x22 /usr/bin/../lib/gcc/arm-none-eabi/7.2.1/thumb/v7e-m/fpv4-sp/hard/libgcc.a(_aeabi_uldivmod.o)
 .ARM.attributes
                0x0000000000001288       0x34 /usr/bin/../lib/gcc/arm-none-eabi/7.2.1/thumb/v7e-m/fpv4-sp/hard/libgcc.a(_udivmoddi4.o)
 .ARM.attributes
                0x00000000000012bc       0x22 /usr/bin/../lib/gcc/arm-none-eabi/7.2.1/thumb/v7e-m/fpv4-sp/hard/libgcc.a(_dvmd_tls.o)
 .ARM.attributes
                0x00000000000012de       0x34 /usr/bin/../lib/gcc/arm-none-eabi/7.2.1/../../../../arm-none-eabi/lib/thumb/v7e-m/fpv4-sp/hard/libg_nano.a(lib_a-exit.o)
 .ARM.attributes
                0x0000000000001312       0x34 /usr/bin/../lib/gcc/arm-none-eabi/7.2.1/../../../../arm-none-eabi/lib/thumb/v7e-m/fpv4-sp/hard/libg_nano.a(lib_a-impure.o)
 .ARM.attributes
                0x0000000000001346       0x34 /usr/bin/../lib/gcc/arm-none-eabi/7.2.1/../../../../arm-none-eabi/lib/thumb/v7e-m/fpv4-sp/hard/libg_nano.a(lib_a-init.o)
 .ARM.attributes
                0x000000000000137a       0x34 /usr/bin/../lib/gcc/arm-none-eabi/7.2.1/../../../../arm-none-eabi/lib/thumb/v7e-m/fpv4-sp/hard/libg_nano.a(lib_a-malloc.o)
 .ARM.attributes
                0x00000000000013ae       0x34 /usr/bin/../lib/gcc/arm-none-eabi/7.2.1/../../../../arm-none-eabi/lib/thumb/v7e-m/fpv4-sp/hard/libg_nano.a(lib_a-memcmp.o)
 .ARM.attributes
                0x00000000000013e2       0x34 /usr/bin/../lib/gcc/arm-none-eabi/7.2.1/../../../../arm-none-eabi/lib/thumb/v7e-m/fpv4-sp/hard/libg_nano.a(lib_a-memcpy-stub.o)
 .ARM.attributes
                0x0000000000001416       0x34 /usr/bin/../lib/gcc/arm-none-eabi/7.2.1/../../../../arm-none-eabi/lib/thumb/v7e-m/fpv4-sp/hard/libg_nano.a(lib_a-memset.o)
 .ARM.attributes
                0x000000000000144a       0x34 /usr/bin/../lib/gcc/arm-none-eabi/7.2.1/../../../../arm-none-eabi/lib/thumb/v7e-m/fpv4-sp/hard/libg_nano.a(lib_a-nano-freer.o)
 .ARM.attributes
                0x000000000000147e       0x34 /usr/bin/../lib/gcc/arm-none-eabi/7.2.1/../../../../arm-none-eabi/lib/thumb/v7e-m/fpv4-sp/hard/libg_nano.a(lib_a-nano-mallocr.o)
 .ARM.attributes
                0x00000000000014b2       0x34 /usr/bin/../lib/gcc/arm-none-eabi/7.2.1/../../../../arm-none-eabi/lib/thumb/v7e-m/fpv4-sp/hard/libg_nano.a(lib_a-sbrkr.o)
 .ARM.attributes
                0x00000000000014e6       0x34 /usr/bin/../lib/gcc/arm-none-eabi/7.2.1/../../../../arm-none-eabi/lib/thumb/v7e-m/fpv4-sp/hard/libg_nano.a(lib_a-strcpy.o)
 .ARM.attributes
                0x000000000000151a       0x1b /usr/bin/../lib/gcc/arm-none-eabi/7.2.1/../../../../arm-none-eabi/lib/thumb/v7e-m/fpv4-sp/hard/libg_nano.a(lib_a-strlen.o)
 .ARM.attributes
                0x0000000000001535       0x34 /usr/bin/../lib/gcc/arm-none-eabi/7.2.1/../../../../arm-none-eabi/lib/thumb/v7e-m/fpv4-sp/hard/libg_nano.a(lib_a-strrchr.o)
 .ARM.attributes
                0x0000000000001569       0x34 /usr/bin/../lib/gcc/arm-none-eabi/7.2.1/../../../../arm-none-eabi/lib/thumb/v7e-m/fpv4-sp/hard/libg_nano.a(lib_a-mlock.o)
 .ARM.attributes
                0x000000000000159d       0x34 /usr/bin/../lib/gcc/arm-none-eabi/7.2.1/../../../../arm-none-eabi/lib/thumb/v7e-m/fpv4-sp/hard/libg_nano.a(lib_a-reent.o)
 .ARM.attributes
                0x00000000000015d1       0x34 /usr/bin/../lib/gcc/arm-none-eabi/7.2.1/../../../../arm-none-eabi/lib/thumb/v7e-m/fpv4-sp/hard/libg_nano.a(lib_a-strchr.o)
 .ARM.attributes
                0x0000000000001605       0x34 /usr/bin/../lib/gcc/arm-none-eabi/7.2.1/thumb/v7e-m/fpv4-sp/hard/crtend.o
 .ARM.attributes
                0x0000000000001639       0x22 /usr/bin/../lib/gcc/arm-none-eabi/7.2.1/thumb/v7e-m/fpv4-sp/hard/crtn.o
 .ARM.attributes
                0x000000000000165b       0x34 /usr/bin/../lib/gcc/arm-none-eabi/7.2.1/../../../../arm-none-eabi/lib/thumb/v7e-m/fpv4-sp/hard/libnosys.a(sbrk.o)
 .ARM.attributes
                0x000000000000168f       0x34 /usr/bin/../lib/gcc/arm-none-eabi/7.2.1/../../../../arm-none-eabi/lib/thumb/v7e-m/fpv4-sp/hard/libnosys.a(_exit.o)

.comment        0x0000000000000000       0x7e
 .comment       0x0000000000000000       0x7e CMakeFiles/enocean_switch_nrf52840_xxAA_s140_6.0.0.dir/src/main.c.obj
                                         0x7f (size before relaxing)
 .comment       0x000000000000007e       0x7f CMakeFiles/enocean_switch_nrf52840_xxAA_s140_6.0.0.dir/src/enocean.c.obj
 .comment       0x000000000000007e       0x7f CMakeFiles/enocean_switch_nrf52840_xxAA_s140_6.0.0.dir/src/flash_helper.c.obj
 .comment       0x000000000000007e       0x7f CMakeFiles/enocean_switch_nrf52840_xxAA_s140_6.0.0.dir/__/__/mesh/stack/src/mesh_stack.c.obj
 .comment       0x000000000000007e       0x7f CMakeFiles/enocean_switch_nrf52840_xxAA_s140_6.0.0.dir/__/common/src/mesh_softdevice_init.c.obj
 .comment       0x000000000000007e       0x7f CMakeFiles/enocean_switch_nrf52840_xxAA_s140_6.0.0.dir/__/common/src/mesh_provisionee.c.obj
 .comment       0x000000000000007e       0x7f CMakeFiles/enocean_switch_nrf52840_xxAA_s140_6.0.0.dir/__/common/src/rtt_input.c.obj
 .comment       0x000000000000007e       0x7f CMakeFiles/enocean_switch_nrf52840_xxAA_s140_6.0.0.dir/__/common/src/simple_hal.c.obj
 .comment       0x000000000000007e       0x7f CMakeFiles/enocean_switch_nrf52840_xxAA_s140_6.0.0.dir/__/nrf_mesh_weak.c.obj
 .comment       0x000000000000007e       0x7f CMakeFiles/enocean_switch_nrf52840_xxAA_s140_6.0.0.dir/__/common/src/app_error_weak.c.obj
 .comment       0x000000000000007e       0x7f CMakeFiles/enocean_switch_nrf52840_xxAA_s140_6.0.0.dir/__/common/src/assertion_handler_weak.c.obj
 .comment       0x000000000000007e       0x7f CMakeFiles/enocean_switch_nrf52840_xxAA_s140_6.0.0.dir/__/__/mesh/core/src/nrf_mesh_configure.c.obj
 .comment       0x000000000000007e       0x7f CMakeFiles/enocean_switch_nrf52840_xxAA_s140_6.0.0.dir/__/__/mesh/core/src/aes.c.obj
 .comment       0x000000000000007e       0x7f CMakeFiles/enocean_switch_nrf52840_xxAA_s140_6.0.0.dir/__/__/mesh/core/src/msg_cache.c.obj
 .comment       0x000000000000007e       0x7f CMakeFiles/enocean_switch_nrf52840_xxAA_s140_6.0.0.dir/__/__/mesh/core/src/transport.c.obj
 .comment       0x000000000000007e       0x7f CMakeFiles/enocean_switch_nrf52840_xxAA_s140_6.0.0.dir/__/__/mesh/core/src/event.c.obj
 .comment       0x000000000000007e       0x7f CMakeFiles/enocean_switch_nrf52840_xxAA_s140_6.0.0.dir/__/__/mesh/core/src/packet_buffer.c.obj
 .comment       0x000000000000007e       0x7f CMakeFiles/enocean_switch_nrf52840_xxAA_s140_6.0.0.dir/__/__/mesh/core/src/flash_manager_defrag.c.obj
 .comment       0x000000000000007e       0x7f CMakeFiles/enocean_switch_nrf52840_xxAA_s140_6.0.0.dir/__/__/mesh/core/src/fifo.c.obj
 .comment       0x000000000000007e       0x7f CMakeFiles/enocean_switch_nrf52840_xxAA_s140_6.0.0.dir/__/__/mesh/core/src/nrf_flash.c.obj
 .comment       0x000000000000007e       0x7f CMakeFiles/enocean_switch_nrf52840_xxAA_s140_6.0.0.dir/__/__/mesh/core/src/packet_mgr.c.obj
 .comment       0x000000000000007e       0x7f CMakeFiles/enocean_switch_nrf52840_xxAA_s140_6.0.0.dir/__/__/mesh/core/src/net_state.c.obj
 .comment       0x000000000000007e       0x7f CMakeFiles/enocean_switch_nrf52840_xxAA_s140_6.0.0.dir/__/__/mesh/core/src/mesh_flash.c.obj
 .comment       0x000000000000007e       0x7f CMakeFiles/enocean_switch_nrf52840_xxAA_s140_6.0.0.dir/__/__/mesh/core/src/nrf_mesh_utils.c.obj
 .comment       0x000000000000007e       0x7f CMakeFiles/enocean_switch_nrf52840_xxAA_s140_6.0.0.dir/__/__/mesh/core/src/nrf_mesh.c.obj
 .comment       0x000000000000007e       0x7f CMakeFiles/enocean_switch_nrf52840_xxAA_s140_6.0.0.dir/__/__/mesh/core/src/queue.c.obj
 .comment       0x000000000000007e       0x7f CMakeFiles/enocean_switch_nrf52840_xxAA_s140_6.0.0.dir/__/__/mesh/core/src/hal.c.obj
 .comment       0x000000000000007e       0x7f CMakeFiles/enocean_switch_nrf52840_xxAA_s140_6.0.0.dir/__/__/mesh/core/src/aes_cmac.c.obj
 .comment       0x000000000000007e       0x7f CMakeFiles/enocean_switch_nrf52840_xxAA_s140_6.0.0.dir/__/__/mesh/core/src/timer_scheduler.c.obj
 .comment       0x000000000000007e       0x7f CMakeFiles/enocean_switch_nrf52840_xxAA_s140_6.0.0.dir/__/__/mesh/core/src/timer.c.obj
 .comment       0x000000000000007e       0x7f CMakeFiles/enocean_switch_nrf52840_xxAA_s140_6.0.0.dir/__/__/mesh/core/src/ticker.c.obj
 .comment       0x000000000000007e       0x7f CMakeFiles/enocean_switch_nrf52840_xxAA_s140_6.0.0.dir/__/__/mesh/core/src/rand.c.obj
 .comment       0x000000000000007e       0x7f CMakeFiles/enocean_switch_nrf52840_xxAA_s140_6.0.0.dir/__/__/mesh/core/src/nrf_mesh_opt.c.obj
 .comment       0x000000000000007e       0x7f CMakeFiles/enocean_switch_nrf52840_xxAA_s140_6.0.0.dir/__/__/mesh/core/src/timeslot.c.obj
 .comment       0x000000000000007e       0x7f CMakeFiles/enocean_switch_nrf52840_xxAA_s140_6.0.0.dir/__/__/mesh/core/src/bearer_event.c.obj
 .comment       0x000000000000007e       0x7f CMakeFiles/enocean_switch_nrf52840_xxAA_s140_6.0.0.dir/__/__/mesh/core/src/enc.c.obj
 .comment       0x000000000000007e       0x7f CMakeFiles/enocean_switch_nrf52840_xxAA_s140_6.0.0.dir/__/__/mesh/core/src/network.c.obj
 .comment       0x000000000000007e       0x7f CMakeFiles/enocean_switch_nrf52840_xxAA_s140_6.0.0.dir/__/__/mesh/core/src/net_packet.c.obj
 .comment       0x000000000000007e       0x7f CMakeFiles/enocean_switch_nrf52840_xxAA_s140_6.0.0.dir/__/__/mesh/core/src/msqueue.c.obj
 .comment       0x000000000000007e       0x7f CMakeFiles/enocean_switch_nrf52840_xxAA_s140_6.0.0.dir/__/__/mesh/core/src/nrf_mesh_keygen.c.obj
 .comment       0x000000000000007e       0x7f CMakeFiles/enocean_switch_nrf52840_xxAA_s140_6.0.0.dir/__/__/mesh/core/src/list.c.obj
 .comment       0x000000000000007e       0x7f CMakeFiles/enocean_switch_nrf52840_xxAA_s140_6.0.0.dir/__/__/mesh/core/src/log.c.obj
 .comment       0x000000000000007e       0x7f CMakeFiles/enocean_switch_nrf52840_xxAA_s140_6.0.0.dir/__/__/mesh/core/src/flash_manager.c.obj
 .comment       0x000000000000007e       0x7f CMakeFiles/enocean_switch_nrf52840_xxAA_s140_6.0.0.dir/__/__/mesh/core/src/ccm_soft.c.obj
 .comment       0x000000000000007e       0x7f CMakeFiles/enocean_switch_nrf52840_xxAA_s140_6.0.0.dir/__/__/mesh/core/src/replay_cache.c.obj
 .comment       0x000000000000007e       0x7f CMakeFiles/enocean_switch_nrf52840_xxAA_s140_6.0.0.dir/__/__/mesh/core/src/beacon.c.obj
 .comment       0x000000000000007e       0x7f CMakeFiles/enocean_switch_nrf52840_xxAA_s140_6.0.0.dir/__/__/mesh/core/src/flash_manager_internal.c.obj
 .comment       0x000000000000007e       0x7f CMakeFiles/enocean_switch_nrf52840_xxAA_s140_6.0.0.dir/__/__/mesh/core/src/core_tx.c.obj
 .comment       0x000000000000007e       0x7f CMakeFiles/enocean_switch_nrf52840_xxAA_s140_6.0.0.dir/__/__/mesh/core/src/heartbeat.c.obj
 .comment       0x000000000000007e       0x7f CMakeFiles/enocean_switch_nrf52840_xxAA_s140_6.0.0.dir/__/__/mesh/core/src/net_beacon.c.obj
 .comment       0x000000000000007e       0x7f CMakeFiles/enocean_switch_nrf52840_xxAA_s140_6.0.0.dir/__/__/mesh/core/src/core_tx_adv.c.obj
 .comment       0x000000000000007e       0x7f CMakeFiles/enocean_switch_nrf52840_xxAA_s140_6.0.0.dir/__/__/mesh/bearer/src/ad_listener.c.obj
 .comment       0x000000000000007e       0x7f CMakeFiles/enocean_switch_nrf52840_xxAA_s140_6.0.0.dir/__/__/mesh/bearer/src/ad_type_filter.c.obj
 .comment       0x000000000000007e       0x7f CMakeFiles/enocean_switch_nrf52840_xxAA_s140_6.0.0.dir/__/__/mesh/bearer/src/advertiser.c.obj
 .comment       0x000000000000007e       0x7f CMakeFiles/enocean_switch_nrf52840_xxAA_s140_6.0.0.dir/__/__/mesh/bearer/src/bearer_handler.c.obj
 .comment       0x000000000000007e       0x7f CMakeFiles/enocean_switch_nrf52840_xxAA_s140_6.0.0.dir/__/__/mesh/bearer/src/broadcast.c.obj
 .comment       0x000000000000007e       0x7f CMakeFiles/enocean_switch_nrf52840_xxAA_s140_6.0.0.dir/__/__/mesh/bearer/src/filter_engine.c.obj
 .comment       0x000000000000007e       0x7f CMakeFiles/enocean_switch_nrf52840_xxAA_s140_6.0.0.dir/__/__/mesh/bearer/src/radio_config.c.obj
 .comment       0x000000000000007e       0x7f CMakeFiles/enocean_switch_nrf52840_xxAA_s140_6.0.0.dir/__/__/mesh/bearer/src/scanner.c.obj
 .comment       0x000000000000007e       0x7f CMakeFiles/enocean_switch_nrf52840_xxAA_s140_6.0.0.dir/__/__/models/simple_on_off/src/simple_on_off_client.c.obj
 .comment       0x000000000000007e       0x7f CMakeFiles/enocean_switch_nrf52840_xxAA_s140_6.0.0.dir/__/__/models/config/src/composition_data.c.obj
 .comment       0x000000000000007e       0x7f CMakeFiles/enocean_switch_nrf52840_xxAA_s140_6.0.0.dir/__/__/models/config/src/config_server.c.obj
 .comment       0x000000000000007e       0x7f CMakeFiles/enocean_switch_nrf52840_xxAA_s140_6.0.0.dir/__/__/models/config/src/packed_index_list.c.obj
 .comment       0x000000000000007e       0x7f CMakeFiles/enocean_switch_nrf52840_xxAA_s140_6.0.0.dir/__/__/models/health/src/health_server.c.obj
 .comment       0x000000000000007e       0x7f CMakeFiles/enocean_switch_nrf52840_xxAA_s140_6.0.0.dir/__/__/mesh/access/src/access_publish.c.obj
 .comment       0x000000000000007e       0x7f CMakeFiles/enocean_switch_nrf52840_xxAA_s140_6.0.0.dir/__/__/mesh/access/src/access.c.obj
 .comment       0x000000000000007e       0x7f CMakeFiles/enocean_switch_nrf52840_xxAA_s140_6.0.0.dir/__/__/mesh/access/src/access_reliable.c.obj
 .comment       0x000000000000007e       0x7f CMakeFiles/enocean_switch_nrf52840_xxAA_s140_6.0.0.dir/__/__/mesh/access/src/device_state_manager.c.obj
 .comment       0x000000000000007e       0x7f CMakeFiles/enocean_switch_nrf52840_xxAA_s140_6.0.0.dir/__/__/mesh/prov/src/prov_provisionee.c.obj
 .comment       0x000000000000007e       0x7f CMakeFiles/enocean_switch_nrf52840_xxAA_s140_6.0.0.dir/__/__/mesh/prov/src/nrf_mesh_prov.c.obj
 .comment       0x000000000000007e       0x7f CMakeFiles/enocean_switch_nrf52840_xxAA_s140_6.0.0.dir/__/__/mesh/prov/src/provisioning.c.obj
 .comment       0x000000000000007e       0x7f CMakeFiles/enocean_switch_nrf52840_xxAA_s140_6.0.0.dir/__/__/mesh/prov/src/prov_beacon.c.obj
 .comment       0x000000000000007e       0x7f CMakeFiles/enocean_switch_nrf52840_xxAA_s140_6.0.0.dir/__/__/mesh/prov/src/prov_utils.c.obj
 .comment       0x000000000000007e       0x7f CMakeFiles/enocean_switch_nrf52840_xxAA_s140_6.0.0.dir/__/__/mesh/prov/src/prov_bearer_adv.c.obj
 .comment       0x000000000000007e       0x7f CMakeFiles/enocean_switch_nrf52840_xxAA_s140_6.0.0.dir/home/mazzer/work/nordic/sdk/nRF5_SDK_15.0.0/modules/nrfx/mdk/system_nrf52840.c.obj
 .comment       0x000000000000007e       0x7f CMakeFiles/enocean_switch_nrf52840_xxAA_s140_6.0.0.dir/home/mazzer/work/nordic/sdk/nRF5_SDK_15.0.0/components/libraries/util/app_error.c.obj
 .comment       0x000000000000007e       0x7f CMakeFiles/enocean_switch_nrf52840_xxAA_s140_6.0.0.dir/home/mazzer/work/nordic/sdk/nRF5_SDK_15.0.0/components/libraries/util/app_error_handler_gcc.c.obj
 .comment       0x000000000000007e       0x7f ../../external/rtt/librtt_nrf52840_xxAA.a(SEGGER_RTT.c.obj)
 .comment       0x000000000000007e       0x7f ../../external/rtt/librtt_nrf52840_xxAA.a(SEGGER_RTT_printf.c.obj)
 .comment       0x000000000000007e       0x7f ../../external/micro-ecc/libuECC_nrf52840_xxAA.a(uECC.c.obj)

.debug_info     0x0000000000000000    0x99288
 .debug_info    0x0000000000000000     0x4903 CMakeFiles/enocean_switch_nrf52840_xxAA_s140_6.0.0.dir/src/main.c.obj
 .debug_info    0x0000000000004903     0x19bb CMakeFiles/enocean_switch_nrf52840_xxAA_s140_6.0.0.dir/src/enocean.c.obj
 .debug_info    0x00000000000062be     0x18fb CMakeFiles/enocean_switch_nrf52840_xxAA_s140_6.0.0.dir/src/flash_helper.c.obj
 .debug_info    0x0000000000007bb9     0x2346 CMakeFiles/enocean_switch_nrf52840_xxAA_s140_6.0.0.dir/__/__/mesh/stack/src/mesh_stack.c.obj
 .debug_info    0x0000000000009eff     0x17ec CMakeFiles/enocean_switch_nrf52840_xxAA_s140_6.0.0.dir/__/common/src/mesh_softdevice_init.c.obj
 .debug_info    0x000000000000b6eb     0x218f CMakeFiles/enocean_switch_nrf52840_xxAA_s140_6.0.0.dir/__/common/src/mesh_provisionee.c.obj
 .debug_info    0x000000000000d87a     0x118d CMakeFiles/enocean_switch_nrf52840_xxAA_s140_6.0.0.dir/__/common/src/rtt_input.c.obj
 .debug_info    0x000000000000ea07     0x1596 CMakeFiles/enocean_switch_nrf52840_xxAA_s140_6.0.0.dir/__/common/src/simple_hal.c.obj
 .debug_info    0x000000000000ff9d      0x91d CMakeFiles/enocean_switch_nrf52840_xxAA_s140_6.0.0.dir/__/nrf_mesh_weak.c.obj
 .debug_info    0x00000000000108ba     0x1170 CMakeFiles/enocean_switch_nrf52840_xxAA_s140_6.0.0.dir/__/common/src/app_error_weak.c.obj
 .debug_info    0x0000000000011a2a      0x994 CMakeFiles/enocean_switch_nrf52840_xxAA_s140_6.0.0.dir/__/common/src/assertion_handler_weak.c.obj
 .debug_info    0x00000000000123be      0xdf8 CMakeFiles/enocean_switch_nrf52840_xxAA_s140_6.0.0.dir/__/__/mesh/core/src/nrf_mesh_configure.c.obj
 .debug_info    0x00000000000131b6      0xbea CMakeFiles/enocean_switch_nrf52840_xxAA_s140_6.0.0.dir/__/__/mesh/core/src/aes.c.obj
 .debug_info    0x0000000000013da0      0xa51 CMakeFiles/enocean_switch_nrf52840_xxAA_s140_6.0.0.dir/__/__/mesh/core/src/msg_cache.c.obj
 .debug_info    0x00000000000147f1     0x6184 CMakeFiles/enocean_switch_nrf52840_xxAA_s140_6.0.0.dir/__/__/mesh/core/src/transport.c.obj
 .debug_info    0x000000000001a975     0x1763 CMakeFiles/enocean_switch_nrf52840_xxAA_s140_6.0.0.dir/__/__/mesh/core/src/event.c.obj
 .debug_info    0x000000000001c0d8     0x1aa3 CMakeFiles/enocean_switch_nrf52840_xxAA_s140_6.0.0.dir/__/__/mesh/core/src/packet_buffer.c.obj
 .debug_info    0x000000000001db7b     0x24b1 CMakeFiles/enocean_switch_nrf52840_xxAA_s140_6.0.0.dir/__/__/mesh/core/src/flash_manager_defrag.c.obj
 .debug_info    0x000000000002002c      0xd9a CMakeFiles/enocean_switch_nrf52840_xxAA_s140_6.0.0.dir/__/__/mesh/core/src/fifo.c.obj
 .debug_info    0x0000000000020dc6      0xb70 CMakeFiles/enocean_switch_nrf52840_xxAA_s140_6.0.0.dir/__/__/mesh/core/src/nrf_flash.c.obj
 .debug_info    0x0000000000021936     0x118f CMakeFiles/enocean_switch_nrf52840_xxAA_s140_6.0.0.dir/__/__/mesh/core/src/packet_mgr.c.obj
 .debug_info    0x0000000000022ac5     0x3735 CMakeFiles/enocean_switch_nrf52840_xxAA_s140_6.0.0.dir/__/__/mesh/core/src/net_state.c.obj
 .debug_info    0x00000000000261fa     0x1be8 CMakeFiles/enocean_switch_nrf52840_xxAA_s140_6.0.0.dir/__/__/mesh/core/src/mesh_flash.c.obj
 .debug_info    0x0000000000027de2      0xa72 CMakeFiles/enocean_switch_nrf52840_xxAA_s140_6.0.0.dir/__/__/mesh/core/src/nrf_mesh_utils.c.obj
 .debug_info    0x0000000000028854     0x2678 CMakeFiles/enocean_switch_nrf52840_xxAA_s140_6.0.0.dir/__/__/mesh/core/src/nrf_mesh.c.obj
 .debug_info    0x000000000002aecc      0xb10 CMakeFiles/enocean_switch_nrf52840_xxAA_s140_6.0.0.dir/__/__/mesh/core/src/queue.c.obj
 .debug_info    0x000000000002b9dc      0x514 CMakeFiles/enocean_switch_nrf52840_xxAA_s140_6.0.0.dir/__/__/mesh/core/src/hal.c.obj
 .debug_info    0x000000000002bef0      0xe8f CMakeFiles/enocean_switch_nrf52840_xxAA_s140_6.0.0.dir/__/__/mesh/core/src/aes_cmac.c.obj
 .debug_info    0x000000000002cd7f     0x13bd CMakeFiles/enocean_switch_nrf52840_xxAA_s140_6.0.0.dir/__/__/mesh/core/src/timer_scheduler.c.obj
 .debug_info    0x000000000002e13c      0xe1e CMakeFiles/enocean_switch_nrf52840_xxAA_s140_6.0.0.dir/__/__/mesh/core/src/timer.c.obj
 .debug_info    0x000000000002ef5a      0x20c CMakeFiles/enocean_switch_nrf52840_xxAA_s140_6.0.0.dir/__/__/mesh/core/src/ticker.c.obj
 .debug_info    0x000000000002f166      0x4d4 CMakeFiles/enocean_switch_nrf52840_xxAA_s140_6.0.0.dir/__/__/mesh/core/src/rand.c.obj
 .debug_info    0x000000000002f63a      0xaef CMakeFiles/enocean_switch_nrf52840_xxAA_s140_6.0.0.dir/__/__/mesh/core/src/nrf_mesh_opt.c.obj
 .debug_info    0x0000000000030129     0x1c1b CMakeFiles/enocean_switch_nrf52840_xxAA_s140_6.0.0.dir/__/__/mesh/core/src/timeslot.c.obj
 .debug_info    0x0000000000031d44     0x1c9f CMakeFiles/enocean_switch_nrf52840_xxAA_s140_6.0.0.dir/__/__/mesh/core/src/bearer_event.c.obj
 .debug_info    0x00000000000339e3     0x181f CMakeFiles/enocean_switch_nrf52840_xxAA_s140_6.0.0.dir/__/__/mesh/core/src/enc.c.obj
 .debug_info    0x0000000000035202     0x1cc0 CMakeFiles/enocean_switch_nrf52840_xxAA_s140_6.0.0.dir/__/__/mesh/core/src/network.c.obj
 .debug_info    0x0000000000036ec2     0x1de3 CMakeFiles/enocean_switch_nrf52840_xxAA_s140_6.0.0.dir/__/__/mesh/core/src/net_packet.c.obj
 .debug_info    0x0000000000038ca5      0xe51 CMakeFiles/enocean_switch_nrf52840_xxAA_s140_6.0.0.dir/__/__/mesh/core/src/msqueue.c.obj
 .debug_info    0x0000000000039af6      0x4c0 CMakeFiles/enocean_switch_nrf52840_xxAA_s140_6.0.0.dir/__/__/mesh/core/src/nrf_mesh_keygen.c.obj
 .debug_info    0x0000000000039fb6      0x573 CMakeFiles/enocean_switch_nrf52840_xxAA_s140_6.0.0.dir/__/__/mesh/core/src/list.c.obj
 .debug_info    0x000000000003a529      0xe8b CMakeFiles/enocean_switch_nrf52840_xxAA_s140_6.0.0.dir/__/__/mesh/core/src/log.c.obj
 .debug_info    0x000000000003b3b4     0x3cc6 CMakeFiles/enocean_switch_nrf52840_xxAA_s140_6.0.0.dir/__/__/mesh/core/src/flash_manager.c.obj
 .debug_info    0x000000000003f07a     0x120f CMakeFiles/enocean_switch_nrf52840_xxAA_s140_6.0.0.dir/__/__/mesh/core/src/ccm_soft.c.obj
 .debug_info    0x0000000000040289      0xa87 CMakeFiles/enocean_switch_nrf52840_xxAA_s140_6.0.0.dir/__/__/mesh/core/src/replay_cache.c.obj
 .debug_info    0x0000000000040d10     0x17c2 CMakeFiles/enocean_switch_nrf52840_xxAA_s140_6.0.0.dir/__/__/mesh/core/src/beacon.c.obj
 .debug_info    0x00000000000424d2      0xb98 CMakeFiles/enocean_switch_nrf52840_xxAA_s140_6.0.0.dir/__/__/mesh/core/src/flash_manager_internal.c.obj
 .debug_info    0x000000000004306a     0x1264 CMakeFiles/enocean_switch_nrf52840_xxAA_s140_6.0.0.dir/__/__/mesh/core/src/core_tx.c.obj
 .debug_info    0x00000000000442ce     0x24e7 CMakeFiles/enocean_switch_nrf52840_xxAA_s140_6.0.0.dir/__/__/mesh/core/src/heartbeat.c.obj
 .debug_info    0x00000000000467b5     0x2a3c CMakeFiles/enocean_switch_nrf52840_xxAA_s140_6.0.0.dir/__/__/mesh/core/src/net_beacon.c.obj
 .debug_info    0x00000000000491f1     0x197e CMakeFiles/enocean_switch_nrf52840_xxAA_s140_6.0.0.dir/__/__/mesh/core/src/core_tx_adv.c.obj
 .debug_info    0x000000000004ab6f     0x116a CMakeFiles/enocean_switch_nrf52840_xxAA_s140_6.0.0.dir/__/__/mesh/bearer/src/ad_listener.c.obj
 .debug_info    0x000000000004bcd9      0xfc4 CMakeFiles/enocean_switch_nrf52840_xxAA_s140_6.0.0.dir/__/__/mesh/bearer/src/ad_type_filter.c.obj
 .debug_info    0x000000000004cc9d     0x2af6 CMakeFiles/enocean_switch_nrf52840_xxAA_s140_6.0.0.dir/__/__/mesh/bearer/src/advertiser.c.obj
 .debug_info    0x000000000004f793     0x1bad CMakeFiles/enocean_switch_nrf52840_xxAA_s140_6.0.0.dir/__/__/mesh/bearer/src/bearer_handler.c.obj
 .debug_info    0x0000000000051340     0x1af7 CMakeFiles/enocean_switch_nrf52840_xxAA_s140_6.0.0.dir/__/__/mesh/bearer/src/broadcast.c.obj
 .debug_info    0x0000000000052e37      0xd3e CMakeFiles/enocean_switch_nrf52840_xxAA_s140_6.0.0.dir/__/__/mesh/bearer/src/filter_engine.c.obj
 .debug_info    0x0000000000053b75      0xa28 CMakeFiles/enocean_switch_nrf52840_xxAA_s140_6.0.0.dir/__/__/mesh/bearer/src/radio_config.c.obj
 .debug_info    0x000000000005459d     0x2df8 CMakeFiles/enocean_switch_nrf52840_xxAA_s140_6.0.0.dir/__/__/mesh/bearer/src/scanner.c.obj
 .debug_info    0x0000000000057395     0x168b CMakeFiles/enocean_switch_nrf52840_xxAA_s140_6.0.0.dir/__/__/models/simple_on_off/src/simple_on_off_client.c.obj
 .debug_info    0x0000000000058a20      0xee4 CMakeFiles/enocean_switch_nrf52840_xxAA_s140_6.0.0.dir/__/__/models/config/src/composition_data.c.obj
 .debug_info    0x0000000000059904     0xc3c3 CMakeFiles/enocean_switch_nrf52840_xxAA_s140_6.0.0.dir/__/__/models/config/src/config_server.c.obj
 .debug_info    0x0000000000065cc7      0x126 CMakeFiles/enocean_switch_nrf52840_xxAA_s140_6.0.0.dir/__/__/models/config/src/packed_index_list.c.obj
 .debug_info    0x0000000000065ded     0x2e65 CMakeFiles/enocean_switch_nrf52840_xxAA_s140_6.0.0.dir/__/__/models/health/src/health_server.c.obj
 .debug_info    0x0000000000068c52     0x12cf CMakeFiles/enocean_switch_nrf52840_xxAA_s140_6.0.0.dir/__/__/mesh/access/src/access_publish.c.obj
 .debug_info    0x0000000000069f21     0x58be CMakeFiles/enocean_switch_nrf52840_xxAA_s140_6.0.0.dir/__/__/mesh/access/src/access.c.obj
 .debug_info    0x000000000006f7df     0x1b90 CMakeFiles/enocean_switch_nrf52840_xxAA_s140_6.0.0.dir/__/__/mesh/access/src/access_reliable.c.obj
 .debug_info    0x000000000007136f     0x94c8 CMakeFiles/enocean_switch_nrf52840_xxAA_s140_6.0.0.dir/__/__/mesh/access/src/device_state_manager.c.obj
 .debug_info    0x000000000007a837     0x2c7b CMakeFiles/enocean_switch_nrf52840_xxAA_s140_6.0.0.dir/__/__/mesh/prov/src/prov_provisionee.c.obj
 .debug_info    0x000000000007d4b2     0x1fa2 CMakeFiles/enocean_switch_nrf52840_xxAA_s140_6.0.0.dir/__/__/mesh/prov/src/nrf_mesh_prov.c.obj
 .debug_info    0x000000000007f454     0x18dc CMakeFiles/enocean_switch_nrf52840_xxAA_s140_6.0.0.dir/__/__/mesh/prov/src/provisioning.c.obj
 .debug_info    0x0000000000080d30     0x1a93 CMakeFiles/enocean_switch_nrf52840_xxAA_s140_6.0.0.dir/__/__/mesh/prov/src/prov_beacon.c.obj
 .debug_info    0x00000000000827c3     0x2108 CMakeFiles/enocean_switch_nrf52840_xxAA_s140_6.0.0.dir/__/__/mesh/prov/src/prov_utils.c.obj
 .debug_info    0x00000000000848cb     0x4a03 CMakeFiles/enocean_switch_nrf52840_xxAA_s140_6.0.0.dir/__/__/mesh/prov/src/prov_bearer_adv.c.obj
 .debug_info    0x00000000000892ce     0x137d CMakeFiles/enocean_switch_nrf52840_xxAA_s140_6.0.0.dir/home/mazzer/work/nordic/sdk/nRF5_SDK_15.0.0/modules/nrfx/mdk/system_nrf52840.c.obj
 .debug_info    0x000000000008a64b       0x26 CMakeFiles/enocean_switch_nrf52840_xxAA_s140_6.0.0.dir/home/mazzer/work/nordic/sdk/nRF5_SDK_15.0.0/modules/nrfx/mdk/gcc_startup_nrf52840.S.obj
 .debug_info    0x000000000008a671      0xae7 CMakeFiles/enocean_switch_nrf52840_xxAA_s140_6.0.0.dir/home/mazzer/work/nordic/sdk/nRF5_SDK_15.0.0/components/libraries/util/app_error.c.obj
 .debug_info    0x000000000008b158      0x96d CMakeFiles/enocean_switch_nrf52840_xxAA_s140_6.0.0.dir/home/mazzer/work/nordic/sdk/nRF5_SDK_15.0.0/components/libraries/util/app_error_handler_gcc.c.obj
 .debug_info    0x000000000008bac5     0x2b01 ../../external/rtt/librtt_nrf52840_xxAA.a(SEGGER_RTT.c.obj)
 .debug_info    0x000000000008e5c6     0x11e1 ../../external/rtt/librtt_nrf52840_xxAA.a(SEGGER_RTT_printf.c.obj)
 .debug_info    0x000000000008f7a7     0x9ae1 ../../external/micro-ecc/libuECC_nrf52840_xxAA.a(uECC.c.obj)

.debug_abbrev   0x0000000000000000    0x11c26
 .debug_abbrev  0x0000000000000000      0x611 CMakeFiles/enocean_switch_nrf52840_xxAA_s140_6.0.0.dir/src/main.c.obj
 .debug_abbrev  0x0000000000000611      0x3bc CMakeFiles/enocean_switch_nrf52840_xxAA_s140_6.0.0.dir/src/enocean.c.obj
 .debug_abbrev  0x00000000000009cd      0x417 CMakeFiles/enocean_switch_nrf52840_xxAA_s140_6.0.0.dir/src/flash_helper.c.obj
 .debug_abbrev  0x0000000000000de4      0x3b3 CMakeFiles/enocean_switch_nrf52840_xxAA_s140_6.0.0.dir/__/__/mesh/stack/src/mesh_stack.c.obj
 .debug_abbrev  0x0000000000001197      0x408 CMakeFiles/enocean_switch_nrf52840_xxAA_s140_6.0.0.dir/__/common/src/mesh_softdevice_init.c.obj
 .debug_abbrev  0x000000000000159f      0x393 CMakeFiles/enocean_switch_nrf52840_xxAA_s140_6.0.0.dir/__/common/src/mesh_provisionee.c.obj
 .debug_abbrev  0x0000000000001932      0x2ba CMakeFiles/enocean_switch_nrf52840_xxAA_s140_6.0.0.dir/__/common/src/rtt_input.c.obj
 .debug_abbrev  0x0000000000001bec      0x372 CMakeFiles/enocean_switch_nrf52840_xxAA_s140_6.0.0.dir/__/common/src/simple_hal.c.obj
 .debug_abbrev  0x0000000000001f5e      0x1ae CMakeFiles/enocean_switch_nrf52840_xxAA_s140_6.0.0.dir/__/nrf_mesh_weak.c.obj
 .debug_abbrev  0x000000000000210c      0x2d5 CMakeFiles/enocean_switch_nrf52840_xxAA_s140_6.0.0.dir/__/common/src/app_error_weak.c.obj
 .debug_abbrev  0x00000000000023e1      0x1f6 CMakeFiles/enocean_switch_nrf52840_xxAA_s140_6.0.0.dir/__/common/src/assertion_handler_weak.c.obj
 .debug_abbrev  0x00000000000025d7      0x254 CMakeFiles/enocean_switch_nrf52840_xxAA_s140_6.0.0.dir/__/__/mesh/core/src/nrf_mesh_configure.c.obj
 .debug_abbrev  0x000000000000282b      0x266 CMakeFiles/enocean_switch_nrf52840_xxAA_s140_6.0.0.dir/__/__/mesh/core/src/aes.c.obj
 .debug_abbrev  0x0000000000002a91      0x24e CMakeFiles/enocean_switch_nrf52840_xxAA_s140_6.0.0.dir/__/__/mesh/core/src/msg_cache.c.obj
 .debug_abbrev  0x0000000000002cdf      0x5f7 CMakeFiles/enocean_switch_nrf52840_xxAA_s140_6.0.0.dir/__/__/mesh/core/src/transport.c.obj
 .debug_abbrev  0x00000000000032d6      0x2d2 CMakeFiles/enocean_switch_nrf52840_xxAA_s140_6.0.0.dir/__/__/mesh/core/src/event.c.obj
 .debug_abbrev  0x00000000000035a8      0x455 CMakeFiles/enocean_switch_nrf52840_xxAA_s140_6.0.0.dir/__/__/mesh/core/src/packet_buffer.c.obj
 .debug_abbrev  0x00000000000039fd      0x526 CMakeFiles/enocean_switch_nrf52840_xxAA_s140_6.0.0.dir/__/__/mesh/core/src/flash_manager_defrag.c.obj
 .debug_abbrev  0x0000000000003f23      0x2fc CMakeFiles/enocean_switch_nrf52840_xxAA_s140_6.0.0.dir/__/__/mesh/core/src/fifo.c.obj
 .debug_abbrev  0x000000000000421f      0x22d CMakeFiles/enocean_switch_nrf52840_xxAA_s140_6.0.0.dir/__/__/mesh/core/src/nrf_flash.c.obj
 .debug_abbrev  0x000000000000444c      0x3bf CMakeFiles/enocean_switch_nrf52840_xxAA_s140_6.0.0.dir/__/__/mesh/core/src/packet_mgr.c.obj
 .debug_abbrev  0x000000000000480b      0x5a6 CMakeFiles/enocean_switch_nrf52840_xxAA_s140_6.0.0.dir/__/__/mesh/core/src/net_state.c.obj
 .debug_abbrev  0x0000000000004db1      0x467 CMakeFiles/enocean_switch_nrf52840_xxAA_s140_6.0.0.dir/__/__/mesh/core/src/mesh_flash.c.obj
 .debug_abbrev  0x0000000000005218      0x244 CMakeFiles/enocean_switch_nrf52840_xxAA_s140_6.0.0.dir/__/__/mesh/core/src/nrf_mesh_utils.c.obj
 .debug_abbrev  0x000000000000545c      0x47a CMakeFiles/enocean_switch_nrf52840_xxAA_s140_6.0.0.dir/__/__/mesh/core/src/nrf_mesh.c.obj
 .debug_abbrev  0x00000000000058d6      0x247 CMakeFiles/enocean_switch_nrf52840_xxAA_s140_6.0.0.dir/__/__/mesh/core/src/queue.c.obj
 .debug_abbrev  0x0000000000005b1d      0x1d1 CMakeFiles/enocean_switch_nrf52840_xxAA_s140_6.0.0.dir/__/__/mesh/core/src/hal.c.obj
 .debug_abbrev  0x0000000000005cee      0x2e3 CMakeFiles/enocean_switch_nrf52840_xxAA_s140_6.0.0.dir/__/__/mesh/core/src/aes_cmac.c.obj
 .debug_abbrev  0x0000000000005fd1      0x3f7 CMakeFiles/enocean_switch_nrf52840_xxAA_s140_6.0.0.dir/__/__/mesh/core/src/timer_scheduler.c.obj
 .debug_abbrev  0x00000000000063c8      0x378 CMakeFiles/enocean_switch_nrf52840_xxAA_s140_6.0.0.dir/__/__/mesh/core/src/timer.c.obj
 .debug_abbrev  0x0000000000006740      0x154 CMakeFiles/enocean_switch_nrf52840_xxAA_s140_6.0.0.dir/__/__/mesh/core/src/ticker.c.obj
 .debug_abbrev  0x0000000000006894      0x22e CMakeFiles/enocean_switch_nrf52840_xxAA_s140_6.0.0.dir/__/__/mesh/core/src/rand.c.obj
 .debug_abbrev  0x0000000000006ac2      0x24c CMakeFiles/enocean_switch_nrf52840_xxAA_s140_6.0.0.dir/__/__/mesh/core/src/nrf_mesh_opt.c.obj
 .debug_abbrev  0x0000000000006d0e      0x4e5 CMakeFiles/enocean_switch_nrf52840_xxAA_s140_6.0.0.dir/__/__/mesh/core/src/timeslot.c.obj
 .debug_abbrev  0x00000000000071f3      0x4f9 CMakeFiles/enocean_switch_nrf52840_xxAA_s140_6.0.0.dir/__/__/mesh/core/src/bearer_event.c.obj
 .debug_abbrev  0x00000000000076ec      0x39b CMakeFiles/enocean_switch_nrf52840_xxAA_s140_6.0.0.dir/__/__/mesh/core/src/enc.c.obj
 .debug_abbrev  0x0000000000007a87      0x4e2 CMakeFiles/enocean_switch_nrf52840_xxAA_s140_6.0.0.dir/__/__/mesh/core/src/network.c.obj
 .debug_abbrev  0x0000000000007f69      0x4a1 CMakeFiles/enocean_switch_nrf52840_xxAA_s140_6.0.0.dir/__/__/mesh/core/src/net_packet.c.obj
 .debug_abbrev  0x000000000000840a      0x2e9 CMakeFiles/enocean_switch_nrf52840_xxAA_s140_6.0.0.dir/__/__/mesh/core/src/msqueue.c.obj
 .debug_abbrev  0x00000000000086f3      0x156 CMakeFiles/enocean_switch_nrf52840_xxAA_s140_6.0.0.dir/__/__/mesh/core/src/nrf_mesh_keygen.c.obj
 .debug_abbrev  0x0000000000008849      0x1ec CMakeFiles/enocean_switch_nrf52840_xxAA_s140_6.0.0.dir/__/__/mesh/core/src/list.c.obj
 .debug_abbrev  0x0000000000008a35      0x2b4 CMakeFiles/enocean_switch_nrf52840_xxAA_s140_6.0.0.dir/__/__/mesh/core/src/log.c.obj
 .debug_abbrev  0x0000000000008ce9      0x538 CMakeFiles/enocean_switch_nrf52840_xxAA_s140_6.0.0.dir/__/__/mesh/core/src/flash_manager.c.obj
 .debug_abbrev  0x0000000000009221      0x2f5 CMakeFiles/enocean_switch_nrf52840_xxAA_s140_6.0.0.dir/__/__/mesh/core/src/ccm_soft.c.obj
 .debug_abbrev  0x0000000000009516      0x29b CMakeFiles/enocean_switch_nrf52840_xxAA_s140_6.0.0.dir/__/__/mesh/core/src/replay_cache.c.obj
 .debug_abbrev  0x00000000000097b1      0x310 CMakeFiles/enocean_switch_nrf52840_xxAA_s140_6.0.0.dir/__/__/mesh/core/src/beacon.c.obj
 .debug_abbrev  0x0000000000009ac1      0x2a4 CMakeFiles/enocean_switch_nrf52840_xxAA_s140_6.0.0.dir/__/__/mesh/core/src/flash_manager_internal.c.obj
 .debug_abbrev  0x0000000000009d65      0x2fc CMakeFiles/enocean_switch_nrf52840_xxAA_s140_6.0.0.dir/__/__/mesh/core/src/core_tx.c.obj
 .debug_abbrev  0x000000000000a061      0x4e3 CMakeFiles/enocean_switch_nrf52840_xxAA_s140_6.0.0.dir/__/__/mesh/core/src/heartbeat.c.obj
 .debug_abbrev  0x000000000000a544      0x512 CMakeFiles/enocean_switch_nrf52840_xxAA_s140_6.0.0.dir/__/__/mesh/core/src/net_beacon.c.obj
 .debug_abbrev  0x000000000000aa56      0x330 CMakeFiles/enocean_switch_nrf52840_xxAA_s140_6.0.0.dir/__/__/mesh/core/src/core_tx_adv.c.obj
 .debug_abbrev  0x000000000000ad86      0x340 CMakeFiles/enocean_switch_nrf52840_xxAA_s140_6.0.0.dir/__/__/mesh/bearer/src/ad_listener.c.obj
 .debug_abbrev  0x000000000000b0c6      0x375 CMakeFiles/enocean_switch_nrf52840_xxAA_s140_6.0.0.dir/__/__/mesh/bearer/src/ad_type_filter.c.obj
 .debug_abbrev  0x000000000000b43b      0x56a CMakeFiles/enocean_switch_nrf52840_xxAA_s140_6.0.0.dir/__/__/mesh/bearer/src/advertiser.c.obj
 .debug_abbrev  0x000000000000b9a5      0x3fa CMakeFiles/enocean_switch_nrf52840_xxAA_s140_6.0.0.dir/__/__/mesh/bearer/src/bearer_handler.c.obj
 .debug_abbrev  0x000000000000bd9f      0x3eb CMakeFiles/enocean_switch_nrf52840_xxAA_s140_6.0.0.dir/__/__/mesh/bearer/src/broadcast.c.obj
 .debug_abbrev  0x000000000000c18a      0x2af CMakeFiles/enocean_switch_nrf52840_xxAA_s140_6.0.0.dir/__/__/mesh/bearer/src/filter_engine.c.obj
 .debug_abbrev  0x000000000000c439      0x1e4 CMakeFiles/enocean_switch_nrf52840_xxAA_s140_6.0.0.dir/__/__/mesh/bearer/src/radio_config.c.obj
 .debug_abbrev  0x000000000000c61d      0x59f CMakeFiles/enocean_switch_nrf52840_xxAA_s140_6.0.0.dir/__/__/mesh/bearer/src/scanner.c.obj
 .debug_abbrev  0x000000000000cbbc      0x3c9 CMakeFiles/enocean_switch_nrf52840_xxAA_s140_6.0.0.dir/__/__/models/simple_on_off/src/simple_on_off_client.c.obj
 .debug_abbrev  0x000000000000cf85      0x305 CMakeFiles/enocean_switch_nrf52840_xxAA_s140_6.0.0.dir/__/__/models/config/src/composition_data.c.obj
 .debug_abbrev  0x000000000000d28a      0x56c CMakeFiles/enocean_switch_nrf52840_xxAA_s140_6.0.0.dir/__/__/models/config/src/config_server.c.obj
 .debug_abbrev  0x000000000000d7f6       0x95 CMakeFiles/enocean_switch_nrf52840_xxAA_s140_6.0.0.dir/__/__/models/config/src/packed_index_list.c.obj
 .debug_abbrev  0x000000000000d88b      0x505 CMakeFiles/enocean_switch_nrf52840_xxAA_s140_6.0.0.dir/__/__/models/health/src/health_server.c.obj
 .debug_abbrev  0x000000000000dd90      0x423 CMakeFiles/enocean_switch_nrf52840_xxAA_s140_6.0.0.dir/__/__/mesh/access/src/access_publish.c.obj
 .debug_abbrev  0x000000000000e1b3      0x67c CMakeFiles/enocean_switch_nrf52840_xxAA_s140_6.0.0.dir/__/__/mesh/access/src/access.c.obj
 .debug_abbrev  0x000000000000e82f      0x455 CMakeFiles/enocean_switch_nrf52840_xxAA_s140_6.0.0.dir/__/__/mesh/access/src/access_reliable.c.obj
 .debug_abbrev  0x000000000000ec84      0x5b0 CMakeFiles/enocean_switch_nrf52840_xxAA_s140_6.0.0.dir/__/__/mesh/access/src/device_state_manager.c.obj
 .debug_abbrev  0x000000000000f234      0x47e CMakeFiles/enocean_switch_nrf52840_xxAA_s140_6.0.0.dir/__/__/mesh/prov/src/prov_provisionee.c.obj
 .debug_abbrev  0x000000000000f6b2      0x450 CMakeFiles/enocean_switch_nrf52840_xxAA_s140_6.0.0.dir/__/__/mesh/prov/src/nrf_mesh_prov.c.obj
 .debug_abbrev  0x000000000000fb02      0x2e6 CMakeFiles/enocean_switch_nrf52840_xxAA_s140_6.0.0.dir/__/__/mesh/prov/src/provisioning.c.obj
 .debug_abbrev  0x000000000000fde8      0x2fc CMakeFiles/enocean_switch_nrf52840_xxAA_s140_6.0.0.dir/__/__/mesh/prov/src/prov_beacon.c.obj
 .debug_abbrev  0x00000000000100e4      0x3f3 CMakeFiles/enocean_switch_nrf52840_xxAA_s140_6.0.0.dir/__/__/mesh/prov/src/prov_utils.c.obj
 .debug_abbrev  0x00000000000104d7      0x55d CMakeFiles/enocean_switch_nrf52840_xxAA_s140_6.0.0.dir/__/__/mesh/prov/src/prov_bearer_adv.c.obj
 .debug_abbrev  0x0000000000010a34      0x1e8 CMakeFiles/enocean_switch_nrf52840_xxAA_s140_6.0.0.dir/home/mazzer/work/nordic/sdk/nRF5_SDK_15.0.0/modules/nrfx/mdk/system_nrf52840.c.obj
 .debug_abbrev  0x0000000000010c1c       0x14 CMakeFiles/enocean_switch_nrf52840_xxAA_s140_6.0.0.dir/home/mazzer/work/nordic/sdk/nRF5_SDK_15.0.0/modules/nrfx/mdk/gcc_startup_nrf52840.S.obj
 .debug_abbrev  0x0000000000010c30      0x232 CMakeFiles/enocean_switch_nrf52840_xxAA_s140_6.0.0.dir/home/mazzer/work/nordic/sdk/nRF5_SDK_15.0.0/components/libraries/util/app_error.c.obj
 .debug_abbrev  0x0000000000010e62      0x1bd CMakeFiles/enocean_switch_nrf52840_xxAA_s140_6.0.0.dir/home/mazzer/work/nordic/sdk/nRF5_SDK_15.0.0/components/libraries/util/app_error_handler_gcc.c.obj
 .debug_abbrev  0x000000000001101f      0x3d2 ../../external/rtt/librtt_nrf52840_xxAA.a(SEGGER_RTT.c.obj)
 .debug_abbrev  0x00000000000113f1      0x353 ../../external/rtt/librtt_nrf52840_xxAA.a(SEGGER_RTT_printf.c.obj)
 .debug_abbrev  0x0000000000011744      0x4e2 ../../external/micro-ecc/libuECC_nrf52840_xxAA.a(uECC.c.obj)

.debug_loc      0x0000000000000000    0x4a80a
 .debug_loc     0x0000000000000000      0x8dc CMakeFiles/enocean_switch_nrf52840_xxAA_s140_6.0.0.dir/src/main.c.obj
 .debug_loc     0x00000000000008dc      0x695 CMakeFiles/enocean_switch_nrf52840_xxAA_s140_6.0.0.dir/src/enocean.c.obj
 .debug_loc     0x0000000000000f71      0x378 CMakeFiles/enocean_switch_nrf52840_xxAA_s140_6.0.0.dir/src/flash_helper.c.obj
 .debug_loc     0x00000000000012e9      0x1a3 CMakeFiles/enocean_switch_nrf52840_xxAA_s140_6.0.0.dir/__/__/mesh/stack/src/mesh_stack.c.obj
 .debug_loc     0x000000000000148c      0x1bb CMakeFiles/enocean_switch_nrf52840_xxAA_s140_6.0.0.dir/__/common/src/mesh_softdevice_init.c.obj
 .debug_loc     0x0000000000001647      0x16b CMakeFiles/enocean_switch_nrf52840_xxAA_s140_6.0.0.dir/__/common/src/mesh_provisionee.c.obj
 .debug_loc     0x00000000000017b2       0xbf CMakeFiles/enocean_switch_nrf52840_xxAA_s140_6.0.0.dir/__/common/src/rtt_input.c.obj
 .debug_loc     0x0000000000001871      0x29c CMakeFiles/enocean_switch_nrf52840_xxAA_s140_6.0.0.dir/__/common/src/simple_hal.c.obj
 .debug_loc     0x0000000000001b0d      0x1c6 CMakeFiles/enocean_switch_nrf52840_xxAA_s140_6.0.0.dir/__/common/src/app_error_weak.c.obj
 .debug_loc     0x0000000000001cd3       0x2c CMakeFiles/enocean_switch_nrf52840_xxAA_s140_6.0.0.dir/__/common/src/assertion_handler_weak.c.obj
 .debug_loc     0x0000000000001cff       0x2c CMakeFiles/enocean_switch_nrf52840_xxAA_s140_6.0.0.dir/__/__/mesh/core/src/nrf_mesh_configure.c.obj
 .debug_loc     0x0000000000001d2b       0x89 CMakeFiles/enocean_switch_nrf52840_xxAA_s140_6.0.0.dir/__/__/mesh/core/src/aes.c.obj
 .debug_loc     0x0000000000001db4       0xab CMakeFiles/enocean_switch_nrf52840_xxAA_s140_6.0.0.dir/__/__/mesh/core/src/msg_cache.c.obj
 .debug_loc     0x0000000000001e5f     0x41e3 CMakeFiles/enocean_switch_nrf52840_xxAA_s140_6.0.0.dir/__/__/mesh/core/src/transport.c.obj
 .debug_loc     0x0000000000006042      0x169 CMakeFiles/enocean_switch_nrf52840_xxAA_s140_6.0.0.dir/__/__/mesh/core/src/event.c.obj
 .debug_loc     0x00000000000061ab      0xcfb CMakeFiles/enocean_switch_nrf52840_xxAA_s140_6.0.0.dir/__/__/mesh/core/src/packet_buffer.c.obj
 .debug_loc     0x0000000000006ea6      0xbd0 CMakeFiles/enocean_switch_nrf52840_xxAA_s140_6.0.0.dir/__/__/mesh/core/src/flash_manager_defrag.c.obj
 .debug_loc     0x0000000000007a76      0x86b CMakeFiles/enocean_switch_nrf52840_xxAA_s140_6.0.0.dir/__/__/mesh/core/src/fifo.c.obj
 .debug_loc     0x00000000000082e1      0x194 CMakeFiles/enocean_switch_nrf52840_xxAA_s140_6.0.0.dir/__/__/mesh/core/src/nrf_flash.c.obj
 .debug_loc     0x0000000000008475      0x788 CMakeFiles/enocean_switch_nrf52840_xxAA_s140_6.0.0.dir/__/__/mesh/core/src/packet_mgr.c.obj
 .debug_loc     0x0000000000008bfd      0xfdf CMakeFiles/enocean_switch_nrf52840_xxAA_s140_6.0.0.dir/__/__/mesh/core/src/net_state.c.obj
 .debug_loc     0x0000000000009bdc      0xfd3 CMakeFiles/enocean_switch_nrf52840_xxAA_s140_6.0.0.dir/__/__/mesh/core/src/mesh_flash.c.obj
 .debug_loc     0x000000000000abaf      0x185 CMakeFiles/enocean_switch_nrf52840_xxAA_s140_6.0.0.dir/__/__/mesh/core/src/nrf_mesh_utils.c.obj
 .debug_loc     0x000000000000ad34      0x6be CMakeFiles/enocean_switch_nrf52840_xxAA_s140_6.0.0.dir/__/__/mesh/core/src/nrf_mesh.c.obj
 .debug_loc     0x000000000000b3f2      0x186 CMakeFiles/enocean_switch_nrf52840_xxAA_s140_6.0.0.dir/__/__/mesh/core/src/queue.c.obj
 .debug_loc     0x000000000000b578       0x63 CMakeFiles/enocean_switch_nrf52840_xxAA_s140_6.0.0.dir/__/__/mesh/core/src/hal.c.obj
 .debug_loc     0x000000000000b5db      0xb75 CMakeFiles/enocean_switch_nrf52840_xxAA_s140_6.0.0.dir/__/__/mesh/core/src/aes_cmac.c.obj
 .debug_loc     0x000000000000c150      0x5b7 CMakeFiles/enocean_switch_nrf52840_xxAA_s140_6.0.0.dir/__/__/mesh/core/src/timer_scheduler.c.obj
 .debug_loc     0x000000000000c707      0x608 CMakeFiles/enocean_switch_nrf52840_xxAA_s140_6.0.0.dir/__/__/mesh/core/src/timer.c.obj
 .debug_loc     0x000000000000cd0f      0x1c5 CMakeFiles/enocean_switch_nrf52840_xxAA_s140_6.0.0.dir/__/__/mesh/core/src/rand.c.obj
 .debug_loc     0x000000000000ced4      0x194 CMakeFiles/enocean_switch_nrf52840_xxAA_s140_6.0.0.dir/__/__/mesh/core/src/nrf_mesh_opt.c.obj
 .debug_loc     0x000000000000d068      0x4f1 CMakeFiles/enocean_switch_nrf52840_xxAA_s140_6.0.0.dir/__/__/mesh/core/src/timeslot.c.obj
 .debug_loc     0x000000000000d559      0x86e CMakeFiles/enocean_switch_nrf52840_xxAA_s140_6.0.0.dir/__/__/mesh/core/src/bearer_event.c.obj
 .debug_loc     0x000000000000ddc7      0xb0d CMakeFiles/enocean_switch_nrf52840_xxAA_s140_6.0.0.dir/__/__/mesh/core/src/enc.c.obj
 .debug_loc     0x000000000000e8d4      0x864 CMakeFiles/enocean_switch_nrf52840_xxAA_s140_6.0.0.dir/__/__/mesh/core/src/network.c.obj
 .debug_loc     0x000000000000f138      0x978 CMakeFiles/enocean_switch_nrf52840_xxAA_s140_6.0.0.dir/__/__/mesh/core/src/net_packet.c.obj
 .debug_loc     0x000000000000fab0      0x438 CMakeFiles/enocean_switch_nrf52840_xxAA_s140_6.0.0.dir/__/__/mesh/core/src/msqueue.c.obj
 .debug_loc     0x000000000000fee8      0x210 CMakeFiles/enocean_switch_nrf52840_xxAA_s140_6.0.0.dir/__/__/mesh/core/src/nrf_mesh_keygen.c.obj
 .debug_loc     0x00000000000100f8      0x565 CMakeFiles/enocean_switch_nrf52840_xxAA_s140_6.0.0.dir/__/__/mesh/core/src/list.c.obj
 .debug_loc     0x000000000001065d      0x3dd CMakeFiles/enocean_switch_nrf52840_xxAA_s140_6.0.0.dir/__/__/mesh/core/src/log.c.obj
 .debug_loc     0x0000000000010a3a     0x21f7 CMakeFiles/enocean_switch_nrf52840_xxAA_s140_6.0.0.dir/__/__/mesh/core/src/flash_manager.c.obj
 .debug_loc     0x0000000000012c31      0xb6e CMakeFiles/enocean_switch_nrf52840_xxAA_s140_6.0.0.dir/__/__/mesh/core/src/ccm_soft.c.obj
 .debug_loc     0x000000000001379f      0x16c CMakeFiles/enocean_switch_nrf52840_xxAA_s140_6.0.0.dir/__/__/mesh/core/src/replay_cache.c.obj
 .debug_loc     0x000000000001390b      0x416 CMakeFiles/enocean_switch_nrf52840_xxAA_s140_6.0.0.dir/__/__/mesh/core/src/beacon.c.obj
 .debug_loc     0x0000000000013d21      0x12d CMakeFiles/enocean_switch_nrf52840_xxAA_s140_6.0.0.dir/__/__/mesh/core/src/flash_manager_internal.c.obj
 .debug_loc     0x0000000000013e4e      0x4d1 CMakeFiles/enocean_switch_nrf52840_xxAA_s140_6.0.0.dir/__/__/mesh/core/src/core_tx.c.obj
 .debug_loc     0x000000000001431f      0x6c5 CMakeFiles/enocean_switch_nrf52840_xxAA_s140_6.0.0.dir/__/__/mesh/core/src/heartbeat.c.obj
 .debug_loc     0x00000000000149e4      0x6e9 CMakeFiles/enocean_switch_nrf52840_xxAA_s140_6.0.0.dir/__/__/mesh/core/src/net_beacon.c.obj
 .debug_loc     0x00000000000150cd      0x3d3 CMakeFiles/enocean_switch_nrf52840_xxAA_s140_6.0.0.dir/__/__/mesh/core/src/core_tx_adv.c.obj
 .debug_loc     0x00000000000154a0      0x45f CMakeFiles/enocean_switch_nrf52840_xxAA_s140_6.0.0.dir/__/__/mesh/bearer/src/ad_listener.c.obj
 .debug_loc     0x00000000000158ff      0x321 CMakeFiles/enocean_switch_nrf52840_xxAA_s140_6.0.0.dir/__/__/mesh/bearer/src/ad_type_filter.c.obj
 .debug_loc     0x0000000000015c20     0x12af CMakeFiles/enocean_switch_nrf52840_xxAA_s140_6.0.0.dir/__/__/mesh/bearer/src/advertiser.c.obj
 .debug_loc     0x0000000000016ecf      0x394 CMakeFiles/enocean_switch_nrf52840_xxAA_s140_6.0.0.dir/__/__/mesh/bearer/src/bearer_handler.c.obj
 .debug_loc     0x0000000000017263      0x30e CMakeFiles/enocean_switch_nrf52840_xxAA_s140_6.0.0.dir/__/__/mesh/bearer/src/broadcast.c.obj
 .debug_loc     0x0000000000017571      0x179 CMakeFiles/enocean_switch_nrf52840_xxAA_s140_6.0.0.dir/__/__/mesh/bearer/src/filter_engine.c.obj
 .debug_loc     0x00000000000176ea      0x239 CMakeFiles/enocean_switch_nrf52840_xxAA_s140_6.0.0.dir/__/__/mesh/bearer/src/radio_config.c.obj
 .debug_loc     0x0000000000017923      0x899 CMakeFiles/enocean_switch_nrf52840_xxAA_s140_6.0.0.dir/__/__/mesh/bearer/src/scanner.c.obj
 .debug_loc     0x00000000000181bc      0x805 CMakeFiles/enocean_switch_nrf52840_xxAA_s140_6.0.0.dir/__/__/models/simple_on_off/src/simple_on_off_client.c.obj
 .debug_loc     0x00000000000189c1      0x29f CMakeFiles/enocean_switch_nrf52840_xxAA_s140_6.0.0.dir/__/__/models/config/src/composition_data.c.obj
 .debug_loc     0x0000000000018c60     0xa72c CMakeFiles/enocean_switch_nrf52840_xxAA_s140_6.0.0.dir/__/__/models/config/src/config_server.c.obj
 .debug_loc     0x000000000002338c       0xa8 CMakeFiles/enocean_switch_nrf52840_xxAA_s140_6.0.0.dir/__/__/models/config/src/packed_index_list.c.obj
 .debug_loc     0x0000000000023434     0x3724 CMakeFiles/enocean_switch_nrf52840_xxAA_s140_6.0.0.dir/__/__/models/health/src/health_server.c.obj
 .debug_loc     0x0000000000026b58      0x939 CMakeFiles/enocean_switch_nrf52840_xxAA_s140_6.0.0.dir/__/__/mesh/access/src/access_publish.c.obj
 .debug_loc     0x0000000000027491     0x3f4f CMakeFiles/enocean_switch_nrf52840_xxAA_s140_6.0.0.dir/__/__/mesh/access/src/access.c.obj
 .debug_loc     0x000000000002b3e0      0xead CMakeFiles/enocean_switch_nrf52840_xxAA_s140_6.0.0.dir/__/__/mesh/access/src/access_reliable.c.obj
 .debug_loc     0x000000000002c28d     0x963e CMakeFiles/enocean_switch_nrf52840_xxAA_s140_6.0.0.dir/__/__/mesh/access/src/device_state_manager.c.obj
 .debug_loc     0x00000000000358cb      0xaad CMakeFiles/enocean_switch_nrf52840_xxAA_s140_6.0.0.dir/__/__/mesh/prov/src/prov_provisionee.c.obj
 .debug_loc     0x0000000000036378      0xaf3 CMakeFiles/enocean_switch_nrf52840_xxAA_s140_6.0.0.dir/__/__/mesh/prov/src/nrf_mesh_prov.c.obj
 .debug_loc     0x0000000000036e6b      0xc0a CMakeFiles/enocean_switch_nrf52840_xxAA_s140_6.0.0.dir/__/__/mesh/prov/src/provisioning.c.obj
 .debug_loc     0x0000000000037a75      0x255 CMakeFiles/enocean_switch_nrf52840_xxAA_s140_6.0.0.dir/__/__/mesh/prov/src/prov_beacon.c.obj
 .debug_loc     0x0000000000037cca      0x492 CMakeFiles/enocean_switch_nrf52840_xxAA_s140_6.0.0.dir/__/__/mesh/prov/src/prov_utils.c.obj
 .debug_loc     0x000000000003815c     0x2722 CMakeFiles/enocean_switch_nrf52840_xxAA_s140_6.0.0.dir/__/__/mesh/prov/src/prov_bearer_adv.c.obj
 .debug_loc     0x000000000003a87e       0xca CMakeFiles/enocean_switch_nrf52840_xxAA_s140_6.0.0.dir/home/mazzer/work/nordic/sdk/nRF5_SDK_15.0.0/components/libraries/util/app_error.c.obj
 .debug_loc     0x000000000003a948       0x63 CMakeFiles/enocean_switch_nrf52840_xxAA_s140_6.0.0.dir/home/mazzer/work/nordic/sdk/nRF5_SDK_15.0.0/components/libraries/util/app_error_handler_gcc.c.obj
 .debug_loc     0x000000000003a9ab     0x3e95 ../../external/rtt/librtt_nrf52840_xxAA.a(SEGGER_RTT.c.obj)
 .debug_loc     0x000000000003e840      0xec5 ../../external/rtt/librtt_nrf52840_xxAA.a(SEGGER_RTT_printf.c.obj)
 .debug_loc     0x000000000003f705     0xb105 ../../external/micro-ecc/libuECC_nrf52840_xxAA.a(uECC.c.obj)

.debug_aranges  0x0000000000000000     0x1f18
 .debug_aranges
                0x0000000000000000       0x78 CMakeFiles/enocean_switch_nrf52840_xxAA_s140_6.0.0.dir/src/main.c.obj
 .debug_aranges
                0x0000000000000078       0x30 CMakeFiles/enocean_switch_nrf52840_xxAA_s140_6.0.0.dir/src/enocean.c.obj
 .debug_aranges
                0x00000000000000a8       0x60 CMakeFiles/enocean_switch_nrf52840_xxAA_s140_6.0.0.dir/src/flash_helper.c.obj
 .debug_aranges
                0x0000000000000108       0x50 CMakeFiles/enocean_switch_nrf52840_xxAA_s140_6.0.0.dir/__/__/mesh/stack/src/mesh_stack.c.obj
 .debug_aranges
                0x0000000000000158       0x40 CMakeFiles/enocean_switch_nrf52840_xxAA_s140_6.0.0.dir/__/common/src/mesh_softdevice_init.c.obj
 .debug_aranges
                0x0000000000000198       0x28 CMakeFiles/enocean_switch_nrf52840_xxAA_s140_6.0.0.dir/__/common/src/mesh_provisionee.c.obj
 .debug_aranges
                0x00000000000001c0       0x30 CMakeFiles/enocean_switch_nrf52840_xxAA_s140_6.0.0.dir/__/common/src/rtt_input.c.obj
 .debug_aranges
                0x00000000000001f0       0x50 CMakeFiles/enocean_switch_nrf52840_xxAA_s140_6.0.0.dir/__/common/src/simple_hal.c.obj
 .debug_aranges
                0x0000000000000240       0x28 CMakeFiles/enocean_switch_nrf52840_xxAA_s140_6.0.0.dir/__/nrf_mesh_weak.c.obj
 .debug_aranges
                0x0000000000000268       0x20 CMakeFiles/enocean_switch_nrf52840_xxAA_s140_6.0.0.dir/__/common/src/app_error_weak.c.obj
 .debug_aranges
                0x0000000000000288       0x20 CMakeFiles/enocean_switch_nrf52840_xxAA_s140_6.0.0.dir/__/common/src/assertion_handler_weak.c.obj
 .debug_aranges
                0x00000000000002a8       0x30 CMakeFiles/enocean_switch_nrf52840_xxAA_s140_6.0.0.dir/__/__/mesh/core/src/nrf_mesh_configure.c.obj
 .debug_aranges
                0x00000000000002d8       0x28 CMakeFiles/enocean_switch_nrf52840_xxAA_s140_6.0.0.dir/__/__/mesh/core/src/aes.c.obj
 .debug_aranges
                0x0000000000000300       0x38 CMakeFiles/enocean_switch_nrf52840_xxAA_s140_6.0.0.dir/__/__/mesh/core/src/msg_cache.c.obj
 .debug_aranges
                0x0000000000000338       0xc0 CMakeFiles/enocean_switch_nrf52840_xxAA_s140_6.0.0.dir/__/__/mesh/core/src/transport.c.obj
 .debug_aranges
                0x00000000000003f8       0x30 CMakeFiles/enocean_switch_nrf52840_xxAA_s140_6.0.0.dir/__/__/mesh/core/src/event.c.obj
 .debug_aranges
                0x0000000000000428       0x60 CMakeFiles/enocean_switch_nrf52840_xxAA_s140_6.0.0.dir/__/__/mesh/core/src/packet_buffer.c.obj
 .debug_aranges
                0x0000000000000488       0xa0 CMakeFiles/enocean_switch_nrf52840_xxAA_s140_6.0.0.dir/__/__/mesh/core/src/flash_manager_defrag.c.obj
 .debug_aranges
                0x0000000000000528       0x60 CMakeFiles/enocean_switch_nrf52840_xxAA_s140_6.0.0.dir/__/__/mesh/core/src/fifo.c.obj
 .debug_aranges
                0x0000000000000588       0x28 CMakeFiles/enocean_switch_nrf52840_xxAA_s140_6.0.0.dir/__/__/mesh/core/src/nrf_flash.c.obj
 .debug_aranges
                0x00000000000005b0       0x48 CMakeFiles/enocean_switch_nrf52840_xxAA_s140_6.0.0.dir/__/__/mesh/core/src/packet_mgr.c.obj
 .debug_aranges
                0x00000000000005f8       0xd0 CMakeFiles/enocean_switch_nrf52840_xxAA_s140_6.0.0.dir/__/__/mesh/core/src/net_state.c.obj
 .debug_aranges
                0x00000000000006c8       0x58 CMakeFiles/enocean_switch_nrf52840_xxAA_s140_6.0.0.dir/__/__/mesh/core/src/mesh_flash.c.obj
 .debug_aranges
                0x0000000000000720       0x30 CMakeFiles/enocean_switch_nrf52840_xxAA_s140_6.0.0.dir/__/__/mesh/core/src/nrf_mesh_utils.c.obj
 .debug_aranges
                0x0000000000000750       0x90 CMakeFiles/enocean_switch_nrf52840_xxAA_s140_6.0.0.dir/__/__/mesh/core/src/nrf_mesh.c.obj
 .debug_aranges
                0x00000000000007e0       0x38 CMakeFiles/enocean_switch_nrf52840_xxAA_s140_6.0.0.dir/__/__/mesh/core/src/queue.c.obj
 .debug_aranges
                0x0000000000000818       0x30 CMakeFiles/enocean_switch_nrf52840_xxAA_s140_6.0.0.dir/__/__/mesh/core/src/hal.c.obj
 .debug_aranges
                0x0000000000000848       0x28 CMakeFiles/enocean_switch_nrf52840_xxAA_s140_6.0.0.dir/__/__/mesh/core/src/aes_cmac.c.obj
 .debug_aranges
                0x0000000000000870       0x50 CMakeFiles/enocean_switch_nrf52840_xxAA_s140_6.0.0.dir/__/__/mesh/core/src/timer_scheduler.c.obj
 .debug_aranges
                0x00000000000008c0       0x58 CMakeFiles/enocean_switch_nrf52840_xxAA_s140_6.0.0.dir/__/__/mesh/core/src/timer.c.obj
 .debug_aranges
                0x0000000000000918       0x30 CMakeFiles/enocean_switch_nrf52840_xxAA_s140_6.0.0.dir/__/__/mesh/core/src/ticker.c.obj
 .debug_aranges
                0x0000000000000948       0x40 CMakeFiles/enocean_switch_nrf52840_xxAA_s140_6.0.0.dir/__/__/mesh/core/src/rand.c.obj
 .debug_aranges
                0x0000000000000988       0x28 CMakeFiles/enocean_switch_nrf52840_xxAA_s140_6.0.0.dir/__/__/mesh/core/src/nrf_mesh_opt.c.obj
 .debug_aranges
                0x00000000000009b0       0xa8 CMakeFiles/enocean_switch_nrf52840_xxAA_s140_6.0.0.dir/__/__/mesh/core/src/timeslot.c.obj
 .debug_aranges
                0x0000000000000a58       0x88 CMakeFiles/enocean_switch_nrf52840_xxAA_s140_6.0.0.dir/__/__/mesh/core/src/bearer_event.c.obj
 .debug_aranges
                0x0000000000000ae0       0x70 CMakeFiles/enocean_switch_nrf52840_xxAA_s140_6.0.0.dir/__/__/mesh/core/src/enc.c.obj
 .debug_aranges
                0x0000000000000b50       0x50 CMakeFiles/enocean_switch_nrf52840_xxAA_s140_6.0.0.dir/__/__/mesh/core/src/network.c.obj
 .debug_aranges
                0x0000000000000ba0       0x58 CMakeFiles/enocean_switch_nrf52840_xxAA_s140_6.0.0.dir/__/__/mesh/core/src/net_packet.c.obj
 .debug_aranges
                0x0000000000000bf8       0x40 CMakeFiles/enocean_switch_nrf52840_xxAA_s140_6.0.0.dir/__/__/mesh/core/src/msqueue.c.obj
 .debug_aranges
                0x0000000000000c38       0x40 CMakeFiles/enocean_switch_nrf52840_xxAA_s140_6.0.0.dir/__/__/mesh/core/src/nrf_mesh_keygen.c.obj
 .debug_aranges
                0x0000000000000c78       0x40 CMakeFiles/enocean_switch_nrf52840_xxAA_s140_6.0.0.dir/__/__/mesh/core/src/list.c.obj
 .debug_aranges
                0x0000000000000cb8       0x48 CMakeFiles/enocean_switch_nrf52840_xxAA_s140_6.0.0.dir/__/__/mesh/core/src/log.c.obj
 .debug_aranges
                0x0000000000000d00       0xa0 CMakeFiles/enocean_switch_nrf52840_xxAA_s140_6.0.0.dir/__/__/mesh/core/src/flash_manager.c.obj
 .debug_aranges
                0x0000000000000da0       0x38 CMakeFiles/enocean_switch_nrf52840_xxAA_s140_6.0.0.dir/__/__/mesh/core/src/ccm_soft.c.obj
 .debug_aranges
                0x0000000000000dd8       0x38 CMakeFiles/enocean_switch_nrf52840_xxAA_s140_6.0.0.dir/__/__/mesh/core/src/replay_cache.c.obj
 .debug_aranges
                0x0000000000000e10       0x28 CMakeFiles/enocean_switch_nrf52840_xxAA_s140_6.0.0.dir/__/__/mesh/core/src/beacon.c.obj
 .debug_aranges
                0x0000000000000e38       0x20 CMakeFiles/enocean_switch_nrf52840_xxAA_s140_6.0.0.dir/__/__/mesh/core/src/flash_manager_internal.c.obj
 .debug_aranges
                0x0000000000000e58       0x58 CMakeFiles/enocean_switch_nrf52840_xxAA_s140_6.0.0.dir/__/__/mesh/core/src/core_tx.c.obj
 .debug_aranges
                0x0000000000000eb0       0x70 CMakeFiles/enocean_switch_nrf52840_xxAA_s140_6.0.0.dir/__/__/mesh/core/src/heartbeat.c.obj
 .debug_aranges
                0x0000000000000f20       0x58 CMakeFiles/enocean_switch_nrf52840_xxAA_s140_6.0.0.dir/__/__/mesh/core/src/net_beacon.c.obj
 .debug_aranges
                0x0000000000000f78       0x68 CMakeFiles/enocean_switch_nrf52840_xxAA_s140_6.0.0.dir/__/__/mesh/core/src/core_tx_adv.c.obj
 .debug_aranges
                0x0000000000000fe0       0x30 CMakeFiles/enocean_switch_nrf52840_xxAA_s140_6.0.0.dir/__/__/mesh/bearer/src/ad_listener.c.obj
 .debug_aranges
                0x0000000000001010       0x58 CMakeFiles/enocean_switch_nrf52840_xxAA_s140_6.0.0.dir/__/__/mesh/bearer/src/ad_type_filter.c.obj
 .debug_aranges
                0x0000000000001068       0xa0 CMakeFiles/enocean_switch_nrf52840_xxAA_s140_6.0.0.dir/__/__/mesh/bearer/src/advertiser.c.obj
 .debug_aranges
                0x0000000000001108       0x70 CMakeFiles/enocean_switch_nrf52840_xxAA_s140_6.0.0.dir/__/__/mesh/bearer/src/bearer_handler.c.obj
 .debug_aranges
                0x0000000000001178       0x30 CMakeFiles/enocean_switch_nrf52840_xxAA_s140_6.0.0.dir/__/__/mesh/bearer/src/broadcast.c.obj
 .debug_aranges
                0x00000000000011a8       0x38 CMakeFiles/enocean_switch_nrf52840_xxAA_s140_6.0.0.dir/__/__/mesh/bearer/src/filter_engine.c.obj
 .debug_aranges
                0x00000000000011e0       0x40 CMakeFiles/enocean_switch_nrf52840_xxAA_s140_6.0.0.dir/__/__/mesh/bearer/src/radio_config.c.obj
 .debug_aranges
                0x0000000000001220       0xb8 CMakeFiles/enocean_switch_nrf52840_xxAA_s140_6.0.0.dir/__/__/mesh/bearer/src/scanner.c.obj
 .debug_aranges
                0x00000000000012d8       0x58 CMakeFiles/enocean_switch_nrf52840_xxAA_s140_6.0.0.dir/__/__/models/simple_on_off/src/simple_on_off_client.c.obj
 .debug_aranges
                0x0000000000001330       0x20 CMakeFiles/enocean_switch_nrf52840_xxAA_s140_6.0.0.dir/__/__/models/config/src/composition_data.c.obj
 .debug_aranges
                0x0000000000001350      0x1a8 CMakeFiles/enocean_switch_nrf52840_xxAA_s140_6.0.0.dir/__/__/models/config/src/config_server.c.obj
 .debug_aranges
                0x00000000000014f8       0x20 CMakeFiles/enocean_switch_nrf52840_xxAA_s140_6.0.0.dir/__/__/models/config/src/packed_index_list.c.obj
 .debug_aranges
                0x0000000000001518       0xa0 CMakeFiles/enocean_switch_nrf52840_xxAA_s140_6.0.0.dir/__/__/models/health/src/health_server.c.obj
 .debug_aranges
                0x00000000000015b8       0x40 CMakeFiles/enocean_switch_nrf52840_xxAA_s140_6.0.0.dir/__/__/mesh/access/src/access_publish.c.obj
 .debug_aranges
                0x00000000000015f8      0x180 CMakeFiles/enocean_switch_nrf52840_xxAA_s140_6.0.0.dir/__/__/mesh/access/src/access.c.obj
 .debug_aranges
                0x0000000000001778       0x50 CMakeFiles/enocean_switch_nrf52840_xxAA_s140_6.0.0.dir/__/__/mesh/access/src/access_reliable.c.obj
 .debug_aranges
                0x00000000000017c8      0x250 CMakeFiles/enocean_switch_nrf52840_xxAA_s140_6.0.0.dir/__/__/mesh/access/src/device_state_manager.c.obj
 .debug_aranges
                0x0000000000001a18       0x60 CMakeFiles/enocean_switch_nrf52840_xxAA_s140_6.0.0.dir/__/__/mesh/prov/src/prov_provisionee.c.obj
 .debug_aranges
                0x0000000000001a78       0x80 CMakeFiles/enocean_switch_nrf52840_xxAA_s140_6.0.0.dir/__/__/mesh/prov/src/nrf_mesh_prov.c.obj
 .debug_aranges
                0x0000000000001af8       0x78 CMakeFiles/enocean_switch_nrf52840_xxAA_s140_6.0.0.dir/__/__/mesh/prov/src/provisioning.c.obj
 .debug_aranges
                0x0000000000001b70       0x38 CMakeFiles/enocean_switch_nrf52840_xxAA_s140_6.0.0.dir/__/__/mesh/prov/src/prov_beacon.c.obj
 .debug_aranges
                0x0000000000001ba8       0x60 CMakeFiles/enocean_switch_nrf52840_xxAA_s140_6.0.0.dir/__/__/mesh/prov/src/prov_utils.c.obj
 .debug_aranges
                0x0000000000001c08       0xa0 CMakeFiles/enocean_switch_nrf52840_xxAA_s140_6.0.0.dir/__/__/mesh/prov/src/prov_bearer_adv.c.obj
 .debug_aranges
                0x0000000000001ca8       0x28 CMakeFiles/enocean_switch_nrf52840_xxAA_s140_6.0.0.dir/home/mazzer/work/nordic/sdk/nRF5_SDK_15.0.0/modules/nrfx/mdk/system_nrf52840.c.obj
 .debug_aranges
                0x0000000000001cd0       0x20 CMakeFiles/enocean_switch_nrf52840_xxAA_s140_6.0.0.dir/home/mazzer/work/nordic/sdk/nRF5_SDK_15.0.0/modules/nrfx/mdk/gcc_startup_nrf52840.S.obj
 .debug_aranges
                0x0000000000001cf0       0x28 CMakeFiles/enocean_switch_nrf52840_xxAA_s140_6.0.0.dir/home/mazzer/work/nordic/sdk/nRF5_SDK_15.0.0/components/libraries/util/app_error.c.obj
 .debug_aranges
                0x0000000000001d18       0x20 CMakeFiles/enocean_switch_nrf52840_xxAA_s140_6.0.0.dir/home/mazzer/work/nordic/sdk/nRF5_SDK_15.0.0/components/libraries/util/app_error_handler_gcc.c.obj
 .debug_aranges
                0x0000000000001d38       0xb0 ../../external/rtt/librtt_nrf52840_xxAA.a(SEGGER_RTT.c.obj)
 .debug_aranges
                0x0000000000001de8       0x30 ../../external/rtt/librtt_nrf52840_xxAA.a(SEGGER_RTT_printf.c.obj)
 .debug_aranges
                0x0000000000001e18      0x100 ../../external/micro-ecc/libuECC_nrf52840_xxAA.a(uECC.c.obj)

.debug_ranges   0x0000000000000000     0xdd60
 .debug_ranges  0x0000000000000000      0x568 CMakeFiles/enocean_switch_nrf52840_xxAA_s140_6.0.0.dir/src/main.c.obj
 .debug_ranges  0x0000000000000568      0x118 CMakeFiles/enocean_switch_nrf52840_xxAA_s140_6.0.0.dir/src/enocean.c.obj
 .debug_ranges  0x0000000000000680      0x1b0 CMakeFiles/enocean_switch_nrf52840_xxAA_s140_6.0.0.dir/src/flash_helper.c.obj
 .debug_ranges  0x0000000000000830       0x88 CMakeFiles/enocean_switch_nrf52840_xxAA_s140_6.0.0.dir/__/__/mesh/stack/src/mesh_stack.c.obj
 .debug_ranges  0x00000000000008b8       0xe8 CMakeFiles/enocean_switch_nrf52840_xxAA_s140_6.0.0.dir/__/common/src/mesh_softdevice_init.c.obj
 .debug_ranges  0x00000000000009a0       0x90 CMakeFiles/enocean_switch_nrf52840_xxAA_s140_6.0.0.dir/__/common/src/mesh_provisionee.c.obj
 .debug_ranges  0x0000000000000a30       0x78 CMakeFiles/enocean_switch_nrf52840_xxAA_s140_6.0.0.dir/__/common/src/rtt_input.c.obj
 .debug_ranges  0x0000000000000aa8       0xc0 CMakeFiles/enocean_switch_nrf52840_xxAA_s140_6.0.0.dir/__/common/src/simple_hal.c.obj
 .debug_ranges  0x0000000000000b68       0x18 CMakeFiles/enocean_switch_nrf52840_xxAA_s140_6.0.0.dir/__/nrf_mesh_weak.c.obj
 .debug_ranges  0x0000000000000b80       0xc8 CMakeFiles/enocean_switch_nrf52840_xxAA_s140_6.0.0.dir/__/common/src/app_error_weak.c.obj
 .debug_ranges  0x0000000000000c48       0x10 CMakeFiles/enocean_switch_nrf52840_xxAA_s140_6.0.0.dir/__/common/src/assertion_handler_weak.c.obj
 .debug_ranges  0x0000000000000c58       0x20 CMakeFiles/enocean_switch_nrf52840_xxAA_s140_6.0.0.dir/__/__/mesh/core/src/nrf_mesh_configure.c.obj
 .debug_ranges  0x0000000000000c78       0x18 CMakeFiles/enocean_switch_nrf52840_xxAA_s140_6.0.0.dir/__/__/mesh/core/src/aes.c.obj
 .debug_ranges  0x0000000000000c90       0x40 CMakeFiles/enocean_switch_nrf52840_xxAA_s140_6.0.0.dir/__/__/mesh/core/src/msg_cache.c.obj
 .debug_ranges  0x0000000000000cd0      0xf08 CMakeFiles/enocean_switch_nrf52840_xxAA_s140_6.0.0.dir/__/__/mesh/core/src/transport.c.obj
 .debug_ranges  0x0000000000001bd8       0x20 CMakeFiles/enocean_switch_nrf52840_xxAA_s140_6.0.0.dir/__/__/mesh/core/src/event.c.obj
 .debug_ranges  0x0000000000001bf8      0x118 CMakeFiles/enocean_switch_nrf52840_xxAA_s140_6.0.0.dir/__/__/mesh/core/src/packet_buffer.c.obj
 .debug_ranges  0x0000000000001d10      0x4c8 CMakeFiles/enocean_switch_nrf52840_xxAA_s140_6.0.0.dir/__/__/mesh/core/src/flash_manager_defrag.c.obj
 .debug_ranges  0x00000000000021d8       0xc0 CMakeFiles/enocean_switch_nrf52840_xxAA_s140_6.0.0.dir/__/__/mesh/core/src/fifo.c.obj
 .debug_ranges  0x0000000000002298       0x30 CMakeFiles/enocean_switch_nrf52840_xxAA_s140_6.0.0.dir/__/__/mesh/core/src/nrf_flash.c.obj
 .debug_ranges  0x00000000000022c8       0xe8 CMakeFiles/enocean_switch_nrf52840_xxAA_s140_6.0.0.dir/__/__/mesh/core/src/packet_mgr.c.obj
 .debug_ranges  0x00000000000023b0      0x868 CMakeFiles/enocean_switch_nrf52840_xxAA_s140_6.0.0.dir/__/__/mesh/core/src/net_state.c.obj
 .debug_ranges  0x0000000000002c18      0x300 CMakeFiles/enocean_switch_nrf52840_xxAA_s140_6.0.0.dir/__/__/mesh/core/src/mesh_flash.c.obj
 .debug_ranges  0x0000000000002f18       0x20 CMakeFiles/enocean_switch_nrf52840_xxAA_s140_6.0.0.dir/__/__/mesh/core/src/nrf_mesh_utils.c.obj
 .debug_ranges  0x0000000000002f38      0x150 CMakeFiles/enocean_switch_nrf52840_xxAA_s140_6.0.0.dir/__/__/mesh/core/src/nrf_mesh.c.obj
 .debug_ranges  0x0000000000003088       0x28 CMakeFiles/enocean_switch_nrf52840_xxAA_s140_6.0.0.dir/__/__/mesh/core/src/queue.c.obj
 .debug_ranges  0x00000000000030b0       0x20 CMakeFiles/enocean_switch_nrf52840_xxAA_s140_6.0.0.dir/__/__/mesh/core/src/hal.c.obj
 .debug_ranges  0x00000000000030d0      0x150 CMakeFiles/enocean_switch_nrf52840_xxAA_s140_6.0.0.dir/__/__/mesh/core/src/aes_cmac.c.obj
 .debug_ranges  0x0000000000003220      0x288 CMakeFiles/enocean_switch_nrf52840_xxAA_s140_6.0.0.dir/__/__/mesh/core/src/timer_scheduler.c.obj
 .debug_ranges  0x00000000000034a8      0x178 CMakeFiles/enocean_switch_nrf52840_xxAA_s140_6.0.0.dir/__/__/mesh/core/src/timer.c.obj
 .debug_ranges  0x0000000000003620       0x20 CMakeFiles/enocean_switch_nrf52840_xxAA_s140_6.0.0.dir/__/__/mesh/core/src/ticker.c.obj
 .debug_ranges  0x0000000000003640       0x48 CMakeFiles/enocean_switch_nrf52840_xxAA_s140_6.0.0.dir/__/__/mesh/core/src/rand.c.obj
 .debug_ranges  0x0000000000003688       0x18 CMakeFiles/enocean_switch_nrf52840_xxAA_s140_6.0.0.dir/__/__/mesh/core/src/nrf_mesh_opt.c.obj
 .debug_ranges  0x00000000000036a0      0x250 CMakeFiles/enocean_switch_nrf52840_xxAA_s140_6.0.0.dir/__/__/mesh/core/src/timeslot.c.obj
 .debug_ranges  0x00000000000038f0      0x288 CMakeFiles/enocean_switch_nrf52840_xxAA_s140_6.0.0.dir/__/__/mesh/core/src/bearer_event.c.obj
 .debug_ranges  0x0000000000003b78      0x1b8 CMakeFiles/enocean_switch_nrf52840_xxAA_s140_6.0.0.dir/__/__/mesh/core/src/enc.c.obj
 .debug_ranges  0x0000000000003d30      0x1b8 CMakeFiles/enocean_switch_nrf52840_xxAA_s140_6.0.0.dir/__/__/mesh/core/src/network.c.obj
 .debug_ranges  0x0000000000003ee8      0x208 CMakeFiles/enocean_switch_nrf52840_xxAA_s140_6.0.0.dir/__/__/mesh/core/src/net_packet.c.obj
 .debug_ranges  0x00000000000040f0       0x78 CMakeFiles/enocean_switch_nrf52840_xxAA_s140_6.0.0.dir/__/__/mesh/core/src/msqueue.c.obj
 .debug_ranges  0x0000000000004168       0x30 CMakeFiles/enocean_switch_nrf52840_xxAA_s140_6.0.0.dir/__/__/mesh/core/src/nrf_mesh_keygen.c.obj
 .debug_ranges  0x0000000000004198       0xf0 CMakeFiles/enocean_switch_nrf52840_xxAA_s140_6.0.0.dir/__/__/mesh/core/src/list.c.obj
 .debug_ranges  0x0000000000004288       0x58 CMakeFiles/enocean_switch_nrf52840_xxAA_s140_6.0.0.dir/__/__/mesh/core/src/log.c.obj
 .debug_ranges  0x00000000000042e0      0xc18 CMakeFiles/enocean_switch_nrf52840_xxAA_s140_6.0.0.dir/__/__/mesh/core/src/flash_manager.c.obj
 .debug_ranges  0x0000000000004ef8       0xf8 CMakeFiles/enocean_switch_nrf52840_xxAA_s140_6.0.0.dir/__/__/mesh/core/src/ccm_soft.c.obj
 .debug_ranges  0x0000000000004ff0       0x48 CMakeFiles/enocean_switch_nrf52840_xxAA_s140_6.0.0.dir/__/__/mesh/core/src/replay_cache.c.obj
 .debug_ranges  0x0000000000005038       0x90 CMakeFiles/enocean_switch_nrf52840_xxAA_s140_6.0.0.dir/__/__/mesh/core/src/beacon.c.obj
 .debug_ranges  0x00000000000050c8       0x30 CMakeFiles/enocean_switch_nrf52840_xxAA_s140_6.0.0.dir/__/__/mesh/core/src/flash_manager_internal.c.obj
 .debug_ranges  0x00000000000050f8       0xc0 CMakeFiles/enocean_switch_nrf52840_xxAA_s140_6.0.0.dir/__/__/mesh/core/src/core_tx.c.obj
 .debug_ranges  0x00000000000051b8      0x120 CMakeFiles/enocean_switch_nrf52840_xxAA_s140_6.0.0.dir/__/__/mesh/core/src/heartbeat.c.obj
 .debug_ranges  0x00000000000052d8      0x1b8 CMakeFiles/enocean_switch_nrf52840_xxAA_s140_6.0.0.dir/__/__/mesh/core/src/net_beacon.c.obj
 .debug_ranges  0x0000000000005490       0x58 CMakeFiles/enocean_switch_nrf52840_xxAA_s140_6.0.0.dir/__/__/mesh/core/src/core_tx_adv.c.obj
 .debug_ranges  0x00000000000054e8      0x118 CMakeFiles/enocean_switch_nrf52840_xxAA_s140_6.0.0.dir/__/__/mesh/bearer/src/ad_listener.c.obj
 .debug_ranges  0x0000000000005600       0xc8 CMakeFiles/enocean_switch_nrf52840_xxAA_s140_6.0.0.dir/__/__/mesh/bearer/src/ad_type_filter.c.obj
 .debug_ranges  0x00000000000056c8      0x478 CMakeFiles/enocean_switch_nrf52840_xxAA_s140_6.0.0.dir/__/__/mesh/bearer/src/advertiser.c.obj
 .debug_ranges  0x0000000000005b40      0x188 CMakeFiles/enocean_switch_nrf52840_xxAA_s140_6.0.0.dir/__/__/mesh/bearer/src/bearer_handler.c.obj
 .debug_ranges  0x0000000000005cc8       0xa0 CMakeFiles/enocean_switch_nrf52840_xxAA_s140_6.0.0.dir/__/__/mesh/bearer/src/broadcast.c.obj
 .debug_ranges  0x0000000000005d68       0x28 CMakeFiles/enocean_switch_nrf52840_xxAA_s140_6.0.0.dir/__/__/mesh/bearer/src/filter_engine.c.obj
 .debug_ranges  0x0000000000005d90       0x48 CMakeFiles/enocean_switch_nrf52840_xxAA_s140_6.0.0.dir/__/__/mesh/bearer/src/radio_config.c.obj
 .debug_ranges  0x0000000000005dd8      0x400 CMakeFiles/enocean_switch_nrf52840_xxAA_s140_6.0.0.dir/__/__/mesh/bearer/src/scanner.c.obj
 .debug_ranges  0x00000000000061d8       0xc0 CMakeFiles/enocean_switch_nrf52840_xxAA_s140_6.0.0.dir/__/__/models/simple_on_off/src/simple_on_off_client.c.obj
 .debug_ranges  0x0000000000006298       0x90 CMakeFiles/enocean_switch_nrf52840_xxAA_s140_6.0.0.dir/__/__/models/config/src/composition_data.c.obj
 .debug_ranges  0x0000000000006328     0x16a0 CMakeFiles/enocean_switch_nrf52840_xxAA_s140_6.0.0.dir/__/__/models/config/src/config_server.c.obj
 .debug_ranges  0x00000000000079c8       0x10 CMakeFiles/enocean_switch_nrf52840_xxAA_s140_6.0.0.dir/__/__/models/config/src/packed_index_list.c.obj
 .debug_ranges  0x00000000000079d8      0x6c8 CMakeFiles/enocean_switch_nrf52840_xxAA_s140_6.0.0.dir/__/__/models/health/src/health_server.c.obj
 .debug_ranges  0x00000000000080a0      0x318 CMakeFiles/enocean_switch_nrf52840_xxAA_s140_6.0.0.dir/__/__/mesh/access/src/access_publish.c.obj
 .debug_ranges  0x00000000000083b8      0xd90 CMakeFiles/enocean_switch_nrf52840_xxAA_s140_6.0.0.dir/__/__/mesh/access/src/access.c.obj
 .debug_ranges  0x0000000000009148      0x280 CMakeFiles/enocean_switch_nrf52840_xxAA_s140_6.0.0.dir/__/__/mesh/access/src/access_reliable.c.obj
 .debug_ranges  0x00000000000093c8     0x2018 CMakeFiles/enocean_switch_nrf52840_xxAA_s140_6.0.0.dir/__/__/mesh/access/src/device_state_manager.c.obj
 .debug_ranges  0x000000000000b3e0      0x1b0 CMakeFiles/enocean_switch_nrf52840_xxAA_s140_6.0.0.dir/__/__/mesh/prov/src/prov_provisionee.c.obj
 .debug_ranges  0x000000000000b590      0x140 CMakeFiles/enocean_switch_nrf52840_xxAA_s140_6.0.0.dir/__/__/mesh/prov/src/nrf_mesh_prov.c.obj
 .debug_ranges  0x000000000000b6d0      0x170 CMakeFiles/enocean_switch_nrf52840_xxAA_s140_6.0.0.dir/__/__/mesh/prov/src/provisioning.c.obj
 .debug_ranges  0x000000000000b840       0x40 CMakeFiles/enocean_switch_nrf52840_xxAA_s140_6.0.0.dir/__/__/mesh/prov/src/prov_beacon.c.obj
 .debug_ranges  0x000000000000b880       0x88 CMakeFiles/enocean_switch_nrf52840_xxAA_s140_6.0.0.dir/__/__/mesh/prov/src/prov_utils.c.obj
 .debug_ranges  0x000000000000b908      0x9c8 CMakeFiles/enocean_switch_nrf52840_xxAA_s140_6.0.0.dir/__/__/mesh/prov/src/prov_bearer_adv.c.obj
 .debug_ranges  0x000000000000c2d0       0x40 CMakeFiles/enocean_switch_nrf52840_xxAA_s140_6.0.0.dir/home/mazzer/work/nordic/sdk/nRF5_SDK_15.0.0/modules/nrfx/mdk/system_nrf52840.c.obj
 .debug_ranges  0x000000000000c310       0x18 CMakeFiles/enocean_switch_nrf52840_xxAA_s140_6.0.0.dir/home/mazzer/work/nordic/sdk/nRF5_SDK_15.0.0/components/libraries/util/app_error.c.obj
 .debug_ranges  0x000000000000c328       0x10 CMakeFiles/enocean_switch_nrf52840_xxAA_s140_6.0.0.dir/home/mazzer/work/nordic/sdk/nRF5_SDK_15.0.0/components/libraries/util/app_error_handler_gcc.c.obj
 .debug_ranges  0x000000000000c338      0x5d8 ../../external/rtt/librtt_nrf52840_xxAA.a(SEGGER_RTT.c.obj)
 .debug_ranges  0x000000000000c910      0x1b8 ../../external/rtt/librtt_nrf52840_xxAA.a(SEGGER_RTT_printf.c.obj)
 .debug_ranges  0x000000000000cac8     0x1298 ../../external/micro-ecc/libuECC_nrf52840_xxAA.a(uECC.c.obj)

.debug_line     0x0000000000000000    0x21c48
 .debug_line    0x0000000000000000      0xefe CMakeFiles/enocean_switch_nrf52840_xxAA_s140_6.0.0.dir/src/main.c.obj
 .debug_line    0x0000000000000efe      0x538 CMakeFiles/enocean_switch_nrf52840_xxAA_s140_6.0.0.dir/src/enocean.c.obj
 .debug_line    0x0000000000001436      0x6ee CMakeFiles/enocean_switch_nrf52840_xxAA_s140_6.0.0.dir/src/flash_helper.c.obj
 .debug_line    0x0000000000001b24      0x6ac CMakeFiles/enocean_switch_nrf52840_xxAA_s140_6.0.0.dir/__/__/mesh/stack/src/mesh_stack.c.obj
 .debug_line    0x00000000000021d0      0x4a2 CMakeFiles/enocean_switch_nrf52840_xxAA_s140_6.0.0.dir/__/common/src/mesh_softdevice_init.c.obj
 .debug_line    0x0000000000002672      0x702 CMakeFiles/enocean_switch_nrf52840_xxAA_s140_6.0.0.dir/__/common/src/mesh_provisionee.c.obj
 .debug_line    0x0000000000002d74      0x37f CMakeFiles/enocean_switch_nrf52840_xxAA_s140_6.0.0.dir/__/common/src/rtt_input.c.obj
 .debug_line    0x00000000000030f3      0x578 CMakeFiles/enocean_switch_nrf52840_xxAA_s140_6.0.0.dir/__/common/src/simple_hal.c.obj
 .debug_line    0x000000000000366b      0x252 CMakeFiles/enocean_switch_nrf52840_xxAA_s140_6.0.0.dir/__/nrf_mesh_weak.c.obj
 .debug_line    0x00000000000038bd      0x4ec CMakeFiles/enocean_switch_nrf52840_xxAA_s140_6.0.0.dir/__/common/src/app_error_weak.c.obj
 .debug_line    0x0000000000003da9      0x275 CMakeFiles/enocean_switch_nrf52840_xxAA_s140_6.0.0.dir/__/common/src/assertion_handler_weak.c.obj
 .debug_line    0x000000000000401e      0x250 CMakeFiles/enocean_switch_nrf52840_xxAA_s140_6.0.0.dir/__/__/mesh/core/src/nrf_mesh_configure.c.obj
 .debug_line    0x000000000000426e      0x285 CMakeFiles/enocean_switch_nrf52840_xxAA_s140_6.0.0.dir/__/__/mesh/core/src/aes.c.obj
 .debug_line    0x00000000000044f3      0x2c2 CMakeFiles/enocean_switch_nrf52840_xxAA_s140_6.0.0.dir/__/__/mesh/core/src/msg_cache.c.obj
 .debug_line    0x00000000000047b5     0x125e CMakeFiles/enocean_switch_nrf52840_xxAA_s140_6.0.0.dir/__/__/mesh/core/src/transport.c.obj
 .debug_line    0x0000000000005a13      0x3e2 CMakeFiles/enocean_switch_nrf52840_xxAA_s140_6.0.0.dir/__/__/mesh/core/src/event.c.obj
 .debug_line    0x0000000000005df5      0x560 CMakeFiles/enocean_switch_nrf52840_xxAA_s140_6.0.0.dir/__/__/mesh/core/src/packet_buffer.c.obj
 .debug_line    0x0000000000006355      0x8c0 CMakeFiles/enocean_switch_nrf52840_xxAA_s140_6.0.0.dir/__/__/mesh/core/src/flash_manager_defrag.c.obj
 .debug_line    0x0000000000006c15      0x46b CMakeFiles/enocean_switch_nrf52840_xxAA_s140_6.0.0.dir/__/__/mesh/core/src/fifo.c.obj
 .debug_line    0x0000000000007080      0x280 CMakeFiles/enocean_switch_nrf52840_xxAA_s140_6.0.0.dir/__/__/mesh/core/src/nrf_flash.c.obj
 .debug_line    0x0000000000007300      0x4cf CMakeFiles/enocean_switch_nrf52840_xxAA_s140_6.0.0.dir/__/__/mesh/core/src/packet_mgr.c.obj
 .debug_line    0x00000000000077cf      0xae3 CMakeFiles/enocean_switch_nrf52840_xxAA_s140_6.0.0.dir/__/__/mesh/core/src/net_state.c.obj
 .debug_line    0x00000000000082b2      0x67d CMakeFiles/enocean_switch_nrf52840_xxAA_s140_6.0.0.dir/__/__/mesh/core/src/mesh_flash.c.obj
 .debug_line    0x000000000000892f      0x2fb CMakeFiles/enocean_switch_nrf52840_xxAA_s140_6.0.0.dir/__/__/mesh/core/src/nrf_mesh_utils.c.obj
 .debug_line    0x0000000000008c2a      0x935 CMakeFiles/enocean_switch_nrf52840_xxAA_s140_6.0.0.dir/__/__/mesh/core/src/nrf_mesh.c.obj
 .debug_line    0x000000000000955f      0x33a CMakeFiles/enocean_switch_nrf52840_xxAA_s140_6.0.0.dir/__/__/mesh/core/src/queue.c.obj
 .debug_line    0x0000000000009899      0x24e CMakeFiles/enocean_switch_nrf52840_xxAA_s140_6.0.0.dir/__/__/mesh/core/src/hal.c.obj
 .debug_line    0x0000000000009ae7      0x468 CMakeFiles/enocean_switch_nrf52840_xxAA_s140_6.0.0.dir/__/__/mesh/core/src/aes_cmac.c.obj
 .debug_line    0x0000000000009f4f      0x506 CMakeFiles/enocean_switch_nrf52840_xxAA_s140_6.0.0.dir/__/__/mesh/core/src/timer_scheduler.c.obj
 .debug_line    0x000000000000a455      0x55d CMakeFiles/enocean_switch_nrf52840_xxAA_s140_6.0.0.dir/__/__/mesh/core/src/timer.c.obj
 .debug_line    0x000000000000a9b2      0x17f CMakeFiles/enocean_switch_nrf52840_xxAA_s140_6.0.0.dir/__/__/mesh/core/src/ticker.c.obj
 .debug_line    0x000000000000ab31      0x344 CMakeFiles/enocean_switch_nrf52840_xxAA_s140_6.0.0.dir/__/__/mesh/core/src/rand.c.obj
 .debug_line    0x000000000000ae75      0x339 CMakeFiles/enocean_switch_nrf52840_xxAA_s140_6.0.0.dir/__/__/mesh/core/src/nrf_mesh_opt.c.obj
 .debug_line    0x000000000000b1ae      0x714 CMakeFiles/enocean_switch_nrf52840_xxAA_s140_6.0.0.dir/__/__/mesh/core/src/timeslot.c.obj
 .debug_line    0x000000000000b8c2      0x6a1 CMakeFiles/enocean_switch_nrf52840_xxAA_s140_6.0.0.dir/__/__/mesh/core/src/bearer_event.c.obj
 .debug_line    0x000000000000bf63      0x524 CMakeFiles/enocean_switch_nrf52840_xxAA_s140_6.0.0.dir/__/__/mesh/core/src/enc.c.obj
 .debug_line    0x000000000000c487      0x633 CMakeFiles/enocean_switch_nrf52840_xxAA_s140_6.0.0.dir/__/__/mesh/core/src/network.c.obj
 .debug_line    0x000000000000caba      0x625 CMakeFiles/enocean_switch_nrf52840_xxAA_s140_6.0.0.dir/__/__/mesh/core/src/net_packet.c.obj
 .debug_line    0x000000000000d0df      0x38d CMakeFiles/enocean_switch_nrf52840_xxAA_s140_6.0.0.dir/__/__/mesh/core/src/msqueue.c.obj
 .debug_line    0x000000000000d46c      0x2f5 CMakeFiles/enocean_switch_nrf52840_xxAA_s140_6.0.0.dir/__/__/mesh/core/src/nrf_mesh_keygen.c.obj
 .debug_line    0x000000000000d761      0x3e9 CMakeFiles/enocean_switch_nrf52840_xxAA_s140_6.0.0.dir/__/__/mesh/core/src/list.c.obj
 .debug_line    0x000000000000db4a      0x334 CMakeFiles/enocean_switch_nrf52840_xxAA_s140_6.0.0.dir/__/__/mesh/core/src/log.c.obj
 .debug_line    0x000000000000de7e      0xc3d CMakeFiles/enocean_switch_nrf52840_xxAA_s140_6.0.0.dir/__/__/mesh/core/src/flash_manager.c.obj
 .debug_line    0x000000000000eabb      0x4ac CMakeFiles/enocean_switch_nrf52840_xxAA_s140_6.0.0.dir/__/__/mesh/core/src/ccm_soft.c.obj
 .debug_line    0x000000000000ef67      0x1dc CMakeFiles/enocean_switch_nrf52840_xxAA_s140_6.0.0.dir/__/__/mesh/core/src/replay_cache.c.obj
 .debug_line    0x000000000000f143      0x5cb CMakeFiles/enocean_switch_nrf52840_xxAA_s140_6.0.0.dir/__/__/mesh/core/src/beacon.c.obj
 .debug_line    0x000000000000f70e      0x31e CMakeFiles/enocean_switch_nrf52840_xxAA_s140_6.0.0.dir/__/__/mesh/core/src/flash_manager_internal.c.obj
 .debug_line    0x000000000000fa2c      0x431 CMakeFiles/enocean_switch_nrf52840_xxAA_s140_6.0.0.dir/__/__/mesh/core/src/core_tx.c.obj
 .debug_line    0x000000000000fe5d      0x6bb CMakeFiles/enocean_switch_nrf52840_xxAA_s140_6.0.0.dir/__/__/mesh/core/src/heartbeat.c.obj
 .debug_line    0x0000000000010518      0x75c CMakeFiles/enocean_switch_nrf52840_xxAA_s140_6.0.0.dir/__/__/mesh/core/src/net_beacon.c.obj
 .debug_line    0x0000000000010c74      0x5cf CMakeFiles/enocean_switch_nrf52840_xxAA_s140_6.0.0.dir/__/__/mesh/core/src/core_tx_adv.c.obj
 .debug_line    0x0000000000011243      0x43e CMakeFiles/enocean_switch_nrf52840_xxAA_s140_6.0.0.dir/__/__/mesh/bearer/src/ad_listener.c.obj
 .debug_line    0x0000000000011681      0x512 CMakeFiles/enocean_switch_nrf52840_xxAA_s140_6.0.0.dir/__/__/mesh/bearer/src/ad_type_filter.c.obj
 .debug_line    0x0000000000011b93      0x8d3 CMakeFiles/enocean_switch_nrf52840_xxAA_s140_6.0.0.dir/__/__/mesh/bearer/src/advertiser.c.obj
 .debug_line    0x0000000000012466      0x61d CMakeFiles/enocean_switch_nrf52840_xxAA_s140_6.0.0.dir/__/__/mesh/bearer/src/bearer_handler.c.obj
 .debug_line    0x0000000000012a83      0x435 CMakeFiles/enocean_switch_nrf52840_xxAA_s140_6.0.0.dir/__/__/mesh/bearer/src/broadcast.c.obj
 .debug_line    0x0000000000012eb8      0x453 CMakeFiles/enocean_switch_nrf52840_xxAA_s140_6.0.0.dir/__/__/mesh/bearer/src/filter_engine.c.obj
 .debug_line    0x000000000001330b      0x34c CMakeFiles/enocean_switch_nrf52840_xxAA_s140_6.0.0.dir/__/__/mesh/bearer/src/radio_config.c.obj
 .debug_line    0x0000000000013657      0x8f5 CMakeFiles/enocean_switch_nrf52840_xxAA_s140_6.0.0.dir/__/__/mesh/bearer/src/scanner.c.obj
 .debug_line    0x0000000000013f4c      0x5de CMakeFiles/enocean_switch_nrf52840_xxAA_s140_6.0.0.dir/__/__/models/simple_on_off/src/simple_on_off_client.c.obj
 .debug_line    0x000000000001452a      0x3d4 CMakeFiles/enocean_switch_nrf52840_xxAA_s140_6.0.0.dir/__/__/models/config/src/composition_data.c.obj
 .debug_line    0x00000000000148fe     0x2244 CMakeFiles/enocean_switch_nrf52840_xxAA_s140_6.0.0.dir/__/__/models/config/src/config_server.c.obj
 .debug_line    0x0000000000016b42      0x10a CMakeFiles/enocean_switch_nrf52840_xxAA_s140_6.0.0.dir/__/__/models/config/src/packed_index_list.c.obj
 .debug_line    0x0000000000016c4c      0xb59 CMakeFiles/enocean_switch_nrf52840_xxAA_s140_6.0.0.dir/__/__/models/health/src/health_server.c.obj
 .debug_line    0x00000000000177a5      0x5cb CMakeFiles/enocean_switch_nrf52840_xxAA_s140_6.0.0.dir/__/__/mesh/access/src/access_publish.c.obj
 .debug_line    0x0000000000017d70     0x149e CMakeFiles/enocean_switch_nrf52840_xxAA_s140_6.0.0.dir/__/__/mesh/access/src/access.c.obj
 .debug_line    0x000000000001920e      0x6af CMakeFiles/enocean_switch_nrf52840_xxAA_s140_6.0.0.dir/__/__/mesh/access/src/access_reliable.c.obj
 .debug_line    0x00000000000198bd     0x27fd CMakeFiles/enocean_switch_nrf52840_xxAA_s140_6.0.0.dir/__/__/mesh/access/src/device_state_manager.c.obj
 .debug_line    0x000000000001c0ba      0x809 CMakeFiles/enocean_switch_nrf52840_xxAA_s140_6.0.0.dir/__/__/mesh/prov/src/prov_provisionee.c.obj
 .debug_line    0x000000000001c8c3      0x68a CMakeFiles/enocean_switch_nrf52840_xxAA_s140_6.0.0.dir/__/__/mesh/prov/src/nrf_mesh_prov.c.obj
 .debug_line    0x000000000001cf4d      0x517 CMakeFiles/enocean_switch_nrf52840_xxAA_s140_6.0.0.dir/__/__/mesh/prov/src/provisioning.c.obj
 .debug_line    0x000000000001d464      0x5c7 CMakeFiles/enocean_switch_nrf52840_xxAA_s140_6.0.0.dir/__/__/mesh/prov/src/prov_beacon.c.obj
 .debug_line    0x000000000001da2b      0x597 CMakeFiles/enocean_switch_nrf52840_xxAA_s140_6.0.0.dir/__/__/mesh/prov/src/prov_utils.c.obj
 .debug_line    0x000000000001dfc2      0xf1f CMakeFiles/enocean_switch_nrf52840_xxAA_s140_6.0.0.dir/__/__/mesh/prov/src/prov_bearer_adv.c.obj
 .debug_line    0x000000000001eee1      0x22d CMakeFiles/enocean_switch_nrf52840_xxAA_s140_6.0.0.dir/home/mazzer/work/nordic/sdk/nRF5_SDK_15.0.0/modules/nrfx/mdk/system_nrf52840.c.obj
 .debug_line    0x000000000001f10e       0xa4 CMakeFiles/enocean_switch_nrf52840_xxAA_s140_6.0.0.dir/home/mazzer/work/nordic/sdk/nRF5_SDK_15.0.0/modules/nrfx/mdk/gcc_startup_nrf52840.S.obj
 .debug_line    0x000000000001f1b2      0x274 CMakeFiles/enocean_switch_nrf52840_xxAA_s140_6.0.0.dir/home/mazzer/work/nordic/sdk/nRF5_SDK_15.0.0/components/libraries/util/app_error.c.obj
 .debug_line    0x000000000001f426      0x217 CMakeFiles/enocean_switch_nrf52840_xxAA_s140_6.0.0.dir/home/mazzer/work/nordic/sdk/nRF5_SDK_15.0.0/components/libraries/util/app_error_handler_gcc.c.obj
 .debug_line    0x000000000001f63d      0xaaf ../../external/rtt/librtt_nrf52840_xxAA.a(SEGGER_RTT.c.obj)
 .debug_line    0x00000000000200ec      0x401 ../../external/rtt/librtt_nrf52840_xxAA.a(SEGGER_RTT_printf.c.obj)
 .debug_line    0x00000000000204ed     0x175b ../../external/micro-ecc/libuECC_nrf52840_xxAA.a(uECC.c.obj)

.debug_str      0x0000000000000000    0x14b62
 .debug_str     0x0000000000000000     0x32bf CMakeFiles/enocean_switch_nrf52840_xxAA_s140_6.0.0.dir/src/main.c.obj
                                       0x3760 (size before relaxing)
 .debug_str     0x00000000000032bf      0x303 CMakeFiles/enocean_switch_nrf52840_xxAA_s140_6.0.0.dir/src/enocean.c.obj
                                        0xf1a (size before relaxing)
 .debug_str     0x00000000000035c2      0x519 CMakeFiles/enocean_switch_nrf52840_xxAA_s140_6.0.0.dir/src/flash_helper.c.obj
                                        0xdba (size before relaxing)
 .debug_str     0x0000000000003adb      0x27f CMakeFiles/enocean_switch_nrf52840_xxAA_s140_6.0.0.dir/__/__/mesh/stack/src/mesh_stack.c.obj
                                       0x2799 (size before relaxing)
 .debug_str     0x0000000000003d5a      0x34e CMakeFiles/enocean_switch_nrf52840_xxAA_s140_6.0.0.dir/__/common/src/mesh_softdevice_init.c.obj
                                       0x12bd (size before relaxing)
 .debug_str     0x00000000000040a8     0x1827 CMakeFiles/enocean_switch_nrf52840_xxAA_s140_6.0.0.dir/__/common/src/mesh_provisionee.c.obj
                                       0x24ac (size before relaxing)
 .debug_str     0x00000000000058cf      0x1c4 CMakeFiles/enocean_switch_nrf52840_xxAA_s140_6.0.0.dir/__/common/src/rtt_input.c.obj
                                        0xc19 (size before relaxing)
 .debug_str     0x0000000000005a93      0x205 CMakeFiles/enocean_switch_nrf52840_xxAA_s140_6.0.0.dir/__/common/src/simple_hal.c.obj
                                        0xd9b (size before relaxing)
 .debug_str     0x0000000000005c98       0x73 CMakeFiles/enocean_switch_nrf52840_xxAA_s140_6.0.0.dir/__/nrf_mesh_weak.c.obj
                                        0x687 (size before relaxing)
 .debug_str     0x0000000000005d0b       0xd7 CMakeFiles/enocean_switch_nrf52840_xxAA_s140_6.0.0.dir/__/common/src/app_error_weak.c.obj
                                        0x8c8 (size before relaxing)
 .debug_str     0x0000000000005de2       0x67 CMakeFiles/enocean_switch_nrf52840_xxAA_s140_6.0.0.dir/__/common/src/assertion_handler_weak.c.obj
                                        0x6dd (size before relaxing)
 .debug_str     0x0000000000005e49      0x1d2 CMakeFiles/enocean_switch_nrf52840_xxAA_s140_6.0.0.dir/__/__/mesh/core/src/nrf_mesh_configure.c.obj
                                        0x858 (size before relaxing)
 .debug_str     0x000000000000601b       0xf8 CMakeFiles/enocean_switch_nrf52840_xxAA_s140_6.0.0.dir/__/__/mesh/core/src/aes.c.obj
                                        0xb85 (size before relaxing)
 .debug_str     0x0000000000006113       0xf2 CMakeFiles/enocean_switch_nrf52840_xxAA_s140_6.0.0.dir/__/__/mesh/core/src/msg_cache.c.obj
                                        0x724 (size before relaxing)
 .debug_str     0x0000000000006205     0x1687 CMakeFiles/enocean_switch_nrf52840_xxAA_s140_6.0.0.dir/__/__/mesh/core/src/transport.c.obj
                                       0x3182 (size before relaxing)
 .debug_str     0x000000000000788c       0xb0 CMakeFiles/enocean_switch_nrf52840_xxAA_s140_6.0.0.dir/__/__/mesh/core/src/event.c.obj
                                       0x171e (size before relaxing)
 .debug_str     0x000000000000793c      0x344 CMakeFiles/enocean_switch_nrf52840_xxAA_s140_6.0.0.dir/__/__/mesh/core/src/packet_buffer.c.obj
                                        0xb86 (size before relaxing)
 .debug_str     0x0000000000007c80      0x68f CMakeFiles/enocean_switch_nrf52840_xxAA_s140_6.0.0.dir/__/__/mesh/core/src/flash_manager_defrag.c.obj
                                       0x11f8 (size before relaxing)
 .debug_str     0x000000000000830f       0xdc CMakeFiles/enocean_switch_nrf52840_xxAA_s140_6.0.0.dir/__/__/mesh/core/src/fifo.c.obj
                                        0x746 (size before relaxing)
 .debug_str     0x00000000000083eb      0x110 CMakeFiles/enocean_switch_nrf52840_xxAA_s140_6.0.0.dir/__/__/mesh/core/src/nrf_flash.c.obj
                                        0x75f (size before relaxing)
 .debug_str     0x00000000000084fb      0x2be CMakeFiles/enocean_switch_nrf52840_xxAA_s140_6.0.0.dir/__/__/mesh/core/src/packet_mgr.c.obj
                                        0xa10 (size before relaxing)
 .debug_str     0x00000000000087b9      0x4bf CMakeFiles/enocean_switch_nrf52840_xxAA_s140_6.0.0.dir/__/__/mesh/core/src/net_state.c.obj
                                       0x21c4 (size before relaxing)
 .debug_str     0x0000000000008c78      0x3be CMakeFiles/enocean_switch_nrf52840_xxAA_s140_6.0.0.dir/__/__/mesh/core/src/mesh_flash.c.obj
                                        0xd47 (size before relaxing)
 .debug_str     0x0000000000009036       0xcb CMakeFiles/enocean_switch_nrf52840_xxAA_s140_6.0.0.dir/__/__/mesh/core/src/nrf_mesh_utils.c.obj
                                        0x7bc (size before relaxing)
 .debug_str     0x0000000000009101      0x5f2 CMakeFiles/enocean_switch_nrf52840_xxAA_s140_6.0.0.dir/__/__/mesh/core/src/nrf_mesh.c.obj
                                       0x21a2 (size before relaxing)
 .debug_str     0x00000000000096f3       0x92 CMakeFiles/enocean_switch_nrf52840_xxAA_s140_6.0.0.dir/__/__/mesh/core/src/queue.c.obj
                                        0x6ee (size before relaxing)
 .debug_str     0x0000000000009785       0xbd CMakeFiles/enocean_switch_nrf52840_xxAA_s140_6.0.0.dir/__/__/mesh/core/src/hal.c.obj
                                        0x816 (size before relaxing)
 .debug_str     0x0000000000009842       0xef CMakeFiles/enocean_switch_nrf52840_xxAA_s140_6.0.0.dir/__/__/mesh/core/src/aes_cmac.c.obj
                                        0x780 (size before relaxing)
 .debug_str     0x0000000000009931      0x17d CMakeFiles/enocean_switch_nrf52840_xxAA_s140_6.0.0.dir/__/__/mesh/core/src/timer_scheduler.c.obj
                                        0x99f (size before relaxing)
 .debug_str     0x0000000000009aae      0x212 CMakeFiles/enocean_switch_nrf52840_xxAA_s140_6.0.0.dir/__/__/mesh/core/src/timer.c.obj
                                        0x919 (size before relaxing)
 .debug_str     0x0000000000009cc0       0x79 CMakeFiles/enocean_switch_nrf52840_xxAA_s140_6.0.0.dir/__/__/mesh/core/src/ticker.c.obj
                                        0x3c0 (size before relaxing)
 .debug_str     0x0000000000009d39       0xe3 CMakeFiles/enocean_switch_nrf52840_xxAA_s140_6.0.0.dir/__/__/mesh/core/src/rand.c.obj
                                        0x7d9 (size before relaxing)
 .debug_str     0x0000000000009e1c       0xbf CMakeFiles/enocean_switch_nrf52840_xxAA_s140_6.0.0.dir/__/__/mesh/core/src/nrf_mesh_opt.c.obj
                                        0x95b (size before relaxing)
 .debug_str     0x0000000000009edb      0x941 CMakeFiles/enocean_switch_nrf52840_xxAA_s140_6.0.0.dir/__/__/mesh/core/src/timeslot.c.obj
                                       0x198a (size before relaxing)
 .debug_str     0x000000000000a81c      0x2f7 CMakeFiles/enocean_switch_nrf52840_xxAA_s140_6.0.0.dir/__/__/mesh/core/src/bearer_event.c.obj
                                        0xf69 (size before relaxing)
 .debug_str     0x000000000000ab13      0x1a5 CMakeFiles/enocean_switch_nrf52840_xxAA_s140_6.0.0.dir/__/__/mesh/core/src/enc.c.obj
                                        0xa53 (size before relaxing)
 .debug_str     0x000000000000acb8      0x330 CMakeFiles/enocean_switch_nrf52840_xxAA_s140_6.0.0.dir/__/__/mesh/core/src/network.c.obj
                                       0x1353 (size before relaxing)
 .debug_str     0x000000000000afe8      0x346 CMakeFiles/enocean_switch_nrf52840_xxAA_s140_6.0.0.dir/__/__/mesh/core/src/net_packet.c.obj
                                        0xef1 (size before relaxing)
 .debug_str     0x000000000000b32e       0x8a CMakeFiles/enocean_switch_nrf52840_xxAA_s140_6.0.0.dir/__/__/mesh/core/src/msqueue.c.obj
                                        0x72a (size before relaxing)
 .debug_str     0x000000000000b3b8       0xff CMakeFiles/enocean_switch_nrf52840_xxAA_s140_6.0.0.dir/__/__/mesh/core/src/nrf_mesh_keygen.c.obj
                                        0x402 (size before relaxing)
 .debug_str     0x000000000000b4b7       0xb4 CMakeFiles/enocean_switch_nrf52840_xxAA_s140_6.0.0.dir/__/__/mesh/core/src/list.c.obj
                                        0x329 (size before relaxing)
 .debug_str     0x000000000000b56b      0x127 CMakeFiles/enocean_switch_nrf52840_xxAA_s140_6.0.0.dir/__/__/mesh/core/src/log.c.obj
                                        0x83b (size before relaxing)
 .debug_str     0x000000000000b692      0x520 CMakeFiles/enocean_switch_nrf52840_xxAA_s140_6.0.0.dir/__/__/mesh/core/src/flash_manager.c.obj
                                       0x15e3 (size before relaxing)
 .debug_str     0x000000000000bbb2       0xbc CMakeFiles/enocean_switch_nrf52840_xxAA_s140_6.0.0.dir/__/__/mesh/core/src/ccm_soft.c.obj
                                        0x7c8 (size before relaxing)
 .debug_str     0x000000000000bc6e       0xc9 CMakeFiles/enocean_switch_nrf52840_xxAA_s140_6.0.0.dir/__/__/mesh/core/src/replay_cache.c.obj
                                        0x6f8 (size before relaxing)
 .debug_str     0x000000000000bd37      0x10b CMakeFiles/enocean_switch_nrf52840_xxAA_s140_6.0.0.dir/__/__/mesh/core/src/beacon.c.obj
                                       0x116e (size before relaxing)
 .debug_str     0x000000000000be42       0x6f CMakeFiles/enocean_switch_nrf52840_xxAA_s140_6.0.0.dir/__/__/mesh/core/src/flash_manager_internal.c.obj
                                        0x80f (size before relaxing)
 .debug_str     0x000000000000beb1      0x2ec CMakeFiles/enocean_switch_nrf52840_xxAA_s140_6.0.0.dir/__/__/mesh/core/src/core_tx.c.obj
                                        0xc5a (size before relaxing)
 .debug_str     0x000000000000c19d      0x44f CMakeFiles/enocean_switch_nrf52840_xxAA_s140_6.0.0.dir/__/__/mesh/core/src/heartbeat.c.obj
                                       0x22ab (size before relaxing)
 .debug_str     0x000000000000c5ec      0x293 CMakeFiles/enocean_switch_nrf52840_xxAA_s140_6.0.0.dir/__/__/mesh/core/src/net_beacon.c.obj
                                       0x210b (size before relaxing)
 .debug_str     0x000000000000c87f      0x13e CMakeFiles/enocean_switch_nrf52840_xxAA_s140_6.0.0.dir/__/__/mesh/core/src/core_tx_adv.c.obj
                                       0x1344 (size before relaxing)
 .debug_str     0x000000000000c9bd      0x1c4 CMakeFiles/enocean_switch_nrf52840_xxAA_s140_6.0.0.dir/__/__/mesh/bearer/src/ad_listener.c.obj
                                        0xc4d (size before relaxing)
 .debug_str     0x000000000000cb81      0x199 CMakeFiles/enocean_switch_nrf52840_xxAA_s140_6.0.0.dir/__/__/mesh/bearer/src/ad_type_filter.c.obj
                                        0xa0a (size before relaxing)
 .debug_str     0x000000000000cd1a      0x358 CMakeFiles/enocean_switch_nrf52840_xxAA_s140_6.0.0.dir/__/__/mesh/bearer/src/advertiser.c.obj
                                       0x15cc (size before relaxing)
 .debug_str     0x000000000000d072      0x493 CMakeFiles/enocean_switch_nrf52840_xxAA_s140_6.0.0.dir/__/__/mesh/bearer/src/bearer_handler.c.obj
                                       0x115b (size before relaxing)
 .debug_str     0x000000000000d505      0x1e3 CMakeFiles/enocean_switch_nrf52840_xxAA_s140_6.0.0.dir/__/__/mesh/bearer/src/broadcast.c.obj
                                       0x10cd (size before relaxing)
 .debug_str     0x000000000000d6e8       0xa9 CMakeFiles/enocean_switch_nrf52840_xxAA_s140_6.0.0.dir/__/__/mesh/bearer/src/filter_engine.c.obj
                                        0x877 (size before relaxing)
 .debug_str     0x000000000000d791       0xb0 CMakeFiles/enocean_switch_nrf52840_xxAA_s140_6.0.0.dir/__/__/mesh/bearer/src/radio_config.c.obj
                                        0x91b (size before relaxing)
 .debug_str     0x000000000000d841      0x488 CMakeFiles/enocean_switch_nrf52840_xxAA_s140_6.0.0.dir/__/__/mesh/bearer/src/scanner.c.obj
                                       0x1aa4 (size before relaxing)
 .debug_str     0x000000000000dcc9      0x49a CMakeFiles/enocean_switch_nrf52840_xxAA_s140_6.0.0.dir/__/__/models/simple_on_off/src/simple_on_off_client.c.obj
                                       0x1155 (size before relaxing)
 .debug_str     0x000000000000e163      0x262 CMakeFiles/enocean_switch_nrf52840_xxAA_s140_6.0.0.dir/__/__/models/config/src/composition_data.c.obj
                                        0x948 (size before relaxing)
 .debug_str     0x000000000000e3c5     0x2675 CMakeFiles/enocean_switch_nrf52840_xxAA_s140_6.0.0.dir/__/__/models/config/src/config_server.c.obj
                                       0x5070 (size before relaxing)
 .debug_str     0x0000000000010a3a       0xa0 CMakeFiles/enocean_switch_nrf52840_xxAA_s140_6.0.0.dir/__/__/models/config/src/packed_index_list.c.obj
                                        0x2c1 (size before relaxing)
 .debug_str     0x0000000000010ada      0x641 CMakeFiles/enocean_switch_nrf52840_xxAA_s140_6.0.0.dir/__/__/models/health/src/health_server.c.obj
                                       0x170a (size before relaxing)
 .debug_str     0x000000000001111b      0x29b CMakeFiles/enocean_switch_nrf52840_xxAA_s140_6.0.0.dir/__/__/mesh/access/src/access_publish.c.obj
                                        0xc37 (size before relaxing)
 .debug_str     0x00000000000113b6      0x7ad CMakeFiles/enocean_switch_nrf52840_xxAA_s140_6.0.0.dir/__/__/mesh/access/src/access.c.obj
                                       0x2fe1 (size before relaxing)
 .debug_str     0x0000000000011b63      0x166 CMakeFiles/enocean_switch_nrf52840_xxAA_s140_6.0.0.dir/__/__/mesh/access/src/access_reliable.c.obj
                                       0x1071 (size before relaxing)
 .debug_str     0x0000000000011cc9      0xd12 CMakeFiles/enocean_switch_nrf52840_xxAA_s140_6.0.0.dir/__/__/mesh/access/src/device_state_manager.c.obj
                                       0x30e4 (size before relaxing)
 .debug_str     0x00000000000129db      0x60f CMakeFiles/enocean_switch_nrf52840_xxAA_s140_6.0.0.dir/__/__/mesh/prov/src/prov_provisionee.c.obj
                                       0x2253 (size before relaxing)
 .debug_str     0x0000000000012fea      0x27e CMakeFiles/enocean_switch_nrf52840_xxAA_s140_6.0.0.dir/__/__/mesh/prov/src/nrf_mesh_prov.c.obj
                                       0x1e45 (size before relaxing)
 .debug_str     0x0000000000013268      0x124 CMakeFiles/enocean_switch_nrf52840_xxAA_s140_6.0.0.dir/__/__/mesh/prov/src/provisioning.c.obj
                                        0xf96 (size before relaxing)
 .debug_str     0x000000000001338c       0xe8 CMakeFiles/enocean_switch_nrf52840_xxAA_s140_6.0.0.dir/__/__/mesh/prov/src/prov_beacon.c.obj
                                       0x19c7 (size before relaxing)
 .debug_str     0x0000000000013474      0x1fa CMakeFiles/enocean_switch_nrf52840_xxAA_s140_6.0.0.dir/__/__/mesh/prov/src/prov_utils.c.obj
                                       0x1f94 (size before relaxing)
 .debug_str     0x000000000001366e      0x44e CMakeFiles/enocean_switch_nrf52840_xxAA_s140_6.0.0.dir/__/__/mesh/prov/src/prov_bearer_adv.c.obj
                                       0x1c2b (size before relaxing)
 .debug_str     0x0000000000013abc      0x3cb CMakeFiles/enocean_switch_nrf52840_xxAA_s140_6.0.0.dir/home/mazzer/work/nordic/sdk/nRF5_SDK_15.0.0/modules/nrfx/mdk/system_nrf52840.c.obj
                                        0x96c (size before relaxing)
 .debug_str     0x0000000000013e87       0x64 CMakeFiles/enocean_switch_nrf52840_xxAA_s140_6.0.0.dir/home/mazzer/work/nordic/sdk/nRF5_SDK_15.0.0/modules/nrfx/mdk/gcc_startup_nrf52840.S.obj
                                         0xb8 (size before relaxing)
 .debug_str     0x0000000000013eeb       0xac CMakeFiles/enocean_switch_nrf52840_xxAA_s140_6.0.0.dir/home/mazzer/work/nordic/sdk/nRF5_SDK_15.0.0/components/libraries/util/app_error.c.obj
                                        0x768 (size before relaxing)
 .debug_str     0x0000000000013f97       0x5f CMakeFiles/enocean_switch_nrf52840_xxAA_s140_6.0.0.dir/home/mazzer/work/nordic/sdk/nRF5_SDK_15.0.0/components/libraries/util/app_error_handler_gcc.c.obj
                                        0x6cd (size before relaxing)
 .debug_str     0x0000000000013ff6      0x33f ../../external/rtt/librtt_nrf52840_xxAA.a(SEGGER_RTT.c.obj)
                                        0x982 (size before relaxing)
 .debug_str     0x0000000000014335      0x116 ../../external/rtt/librtt_nrf52840_xxAA.a(SEGGER_RTT_printf.c.obj)
                                        0x7f2 (size before relaxing)
 .debug_str     0x000000000001444b      0x717 ../../external/micro-ecc/libuECC_nrf52840_xxAA.a(uECC.c.obj)
                                        0x8df (size before relaxing)

.debug_frame    0x0000000000000000     0x6f6c
 .debug_frame   0x0000000000000000      0x214 CMakeFiles/enocean_switch_nrf52840_xxAA_s140_6.0.0.dir/src/main.c.obj
 .debug_frame   0x0000000000000214       0x7c CMakeFiles/enocean_switch_nrf52840_xxAA_s140_6.0.0.dir/src/enocean.c.obj
 .debug_frame   0x0000000000000290      0x164 CMakeFiles/enocean_switch_nrf52840_xxAA_s140_6.0.0.dir/src/flash_helper.c.obj
 .debug_frame   0x00000000000003f4       0xdc CMakeFiles/enocean_switch_nrf52840_xxAA_s140_6.0.0.dir/__/__/mesh/stack/src/mesh_stack.c.obj
 .debug_frame   0x00000000000004d0       0x88 CMakeFiles/enocean_switch_nrf52840_xxAA_s140_6.0.0.dir/__/common/src/mesh_softdevice_init.c.obj
 .debug_frame   0x0000000000000558       0x64 CMakeFiles/enocean_switch_nrf52840_xxAA_s140_6.0.0.dir/__/common/src/mesh_provisionee.c.obj
 .debug_frame   0x00000000000005bc       0x60 CMakeFiles/enocean_switch_nrf52840_xxAA_s140_6.0.0.dir/__/common/src/rtt_input.c.obj
 .debug_frame   0x000000000000061c       0xbc CMakeFiles/enocean_switch_nrf52840_xxAA_s140_6.0.0.dir/__/common/src/simple_hal.c.obj
 .debug_frame   0x00000000000006d8       0x30 CMakeFiles/enocean_switch_nrf52840_xxAA_s140_6.0.0.dir/__/nrf_mesh_weak.c.obj
 .debug_frame   0x0000000000000708       0x34 CMakeFiles/enocean_switch_nrf52840_xxAA_s140_6.0.0.dir/__/common/src/app_error_weak.c.obj
 .debug_frame   0x000000000000073c       0x2c CMakeFiles/enocean_switch_nrf52840_xxAA_s140_6.0.0.dir/__/common/src/assertion_handler_weak.c.obj
 .debug_frame   0x0000000000000768       0x4c CMakeFiles/enocean_switch_nrf52840_xxAA_s140_6.0.0.dir/__/__/mesh/core/src/nrf_mesh_configure.c.obj
 .debug_frame   0x00000000000007b4       0x40 CMakeFiles/enocean_switch_nrf52840_xxAA_s140_6.0.0.dir/__/__/mesh/core/src/aes.c.obj
 .debug_frame   0x00000000000007f4       0x7c CMakeFiles/enocean_switch_nrf52840_xxAA_s140_6.0.0.dir/__/__/mesh/core/src/msg_cache.c.obj
 .debug_frame   0x0000000000000870      0x3fc CMakeFiles/enocean_switch_nrf52840_xxAA_s140_6.0.0.dir/__/__/mesh/core/src/transport.c.obj
 .debug_frame   0x0000000000000c6c       0x74 CMakeFiles/enocean_switch_nrf52840_xxAA_s140_6.0.0.dir/__/__/mesh/core/src/event.c.obj
 .debug_frame   0x0000000000000ce0      0x10c CMakeFiles/enocean_switch_nrf52840_xxAA_s140_6.0.0.dir/__/__/mesh/core/src/packet_buffer.c.obj
 .debug_frame   0x0000000000000dec      0x268 CMakeFiles/enocean_switch_nrf52840_xxAA_s140_6.0.0.dir/__/__/mesh/core/src/flash_manager_defrag.c.obj
 .debug_frame   0x0000000000001054       0xd8 CMakeFiles/enocean_switch_nrf52840_xxAA_s140_6.0.0.dir/__/__/mesh/core/src/fifo.c.obj
 .debug_frame   0x000000000000112c       0x3c CMakeFiles/enocean_switch_nrf52840_xxAA_s140_6.0.0.dir/__/__/mesh/core/src/nrf_flash.c.obj
 .debug_frame   0x0000000000001168       0xac CMakeFiles/enocean_switch_nrf52840_xxAA_s140_6.0.0.dir/__/__/mesh/core/src/packet_mgr.c.obj
 .debug_frame   0x0000000000001214      0x31c CMakeFiles/enocean_switch_nrf52840_xxAA_s140_6.0.0.dir/__/__/mesh/core/src/net_state.c.obj
 .debug_frame   0x0000000000001530      0x130 CMakeFiles/enocean_switch_nrf52840_xxAA_s140_6.0.0.dir/__/__/mesh/core/src/mesh_flash.c.obj
 .debug_frame   0x0000000000001660       0x60 CMakeFiles/enocean_switch_nrf52840_xxAA_s140_6.0.0.dir/__/__/mesh/core/src/nrf_mesh_utils.c.obj
 .debug_frame   0x00000000000016c0      0x200 CMakeFiles/enocean_switch_nrf52840_xxAA_s140_6.0.0.dir/__/__/mesh/core/src/nrf_mesh.c.obj
 .debug_frame   0x00000000000018c0       0x74 CMakeFiles/enocean_switch_nrf52840_xxAA_s140_6.0.0.dir/__/__/mesh/core/src/queue.c.obj
 .debug_frame   0x0000000000001934       0x48 CMakeFiles/enocean_switch_nrf52840_xxAA_s140_6.0.0.dir/__/__/mesh/core/src/hal.c.obj
 .debug_frame   0x000000000000197c       0x60 CMakeFiles/enocean_switch_nrf52840_xxAA_s140_6.0.0.dir/__/__/mesh/core/src/aes_cmac.c.obj
 .debug_frame   0x00000000000019dc       0xe4 CMakeFiles/enocean_switch_nrf52840_xxAA_s140_6.0.0.dir/__/__/mesh/core/src/timer_scheduler.c.obj
 .debug_frame   0x0000000000001ac0      0x158 CMakeFiles/enocean_switch_nrf52840_xxAA_s140_6.0.0.dir/__/__/mesh/core/src/timer.c.obj
 .debug_frame   0x0000000000001c18       0x4c CMakeFiles/enocean_switch_nrf52840_xxAA_s140_6.0.0.dir/__/__/mesh/core/src/ticker.c.obj
 .debug_frame   0x0000000000001c64       0x9c CMakeFiles/enocean_switch_nrf52840_xxAA_s140_6.0.0.dir/__/__/mesh/core/src/rand.c.obj
 .debug_frame   0x0000000000001d00       0x30 CMakeFiles/enocean_switch_nrf52840_xxAA_s140_6.0.0.dir/__/__/mesh/core/src/nrf_mesh_opt.c.obj
 .debug_frame   0x0000000000001d30      0x190 CMakeFiles/enocean_switch_nrf52840_xxAA_s140_6.0.0.dir/__/__/mesh/core/src/timeslot.c.obj
 .debug_frame   0x0000000000001ec0      0x1ac CMakeFiles/enocean_switch_nrf52840_xxAA_s140_6.0.0.dir/__/__/mesh/core/src/bearer_event.c.obj
 .debug_frame   0x000000000000206c      0x158 CMakeFiles/enocean_switch_nrf52840_xxAA_s140_6.0.0.dir/__/__/mesh/core/src/enc.c.obj
 .debug_frame   0x00000000000021c4      0x10c CMakeFiles/enocean_switch_nrf52840_xxAA_s140_6.0.0.dir/__/__/mesh/core/src/network.c.obj
 .debug_frame   0x00000000000022d0       0xec CMakeFiles/enocean_switch_nrf52840_xxAA_s140_6.0.0.dir/__/__/mesh/core/src/net_packet.c.obj
 .debug_frame   0x00000000000023bc       0x94 CMakeFiles/enocean_switch_nrf52840_xxAA_s140_6.0.0.dir/__/__/mesh/core/src/msqueue.c.obj
 .debug_frame   0x0000000000002450       0xc8 CMakeFiles/enocean_switch_nrf52840_xxAA_s140_6.0.0.dir/__/__/mesh/core/src/nrf_mesh_keygen.c.obj
 .debug_frame   0x0000000000002518       0x98 CMakeFiles/enocean_switch_nrf52840_xxAA_s140_6.0.0.dir/__/__/mesh/core/src/list.c.obj
 .debug_frame   0x00000000000025b0       0xc0 CMakeFiles/enocean_switch_nrf52840_xxAA_s140_6.0.0.dir/__/__/mesh/core/src/log.c.obj
 .debug_frame   0x0000000000002670      0x258 CMakeFiles/enocean_switch_nrf52840_xxAA_s140_6.0.0.dir/__/__/mesh/core/src/flash_manager.c.obj
 .debug_frame   0x00000000000028c8       0xcc CMakeFiles/enocean_switch_nrf52840_xxAA_s140_6.0.0.dir/__/__/mesh/core/src/ccm_soft.c.obj
 .debug_frame   0x0000000000002994       0xb8 CMakeFiles/enocean_switch_nrf52840_xxAA_s140_6.0.0.dir/__/__/mesh/core/src/replay_cache.c.obj
 .debug_frame   0x0000000000002a4c       0x7c CMakeFiles/enocean_switch_nrf52840_xxAA_s140_6.0.0.dir/__/__/mesh/core/src/beacon.c.obj
 .debug_frame   0x0000000000002ac8       0x34 CMakeFiles/enocean_switch_nrf52840_xxAA_s140_6.0.0.dir/__/__/mesh/core/src/flash_manager_internal.c.obj
 .debug_frame   0x0000000000002afc       0xf8 CMakeFiles/enocean_switch_nrf52840_xxAA_s140_6.0.0.dir/__/__/mesh/core/src/core_tx.c.obj
 .debug_frame   0x0000000000002bf4      0x184 CMakeFiles/enocean_switch_nrf52840_xxAA_s140_6.0.0.dir/__/__/mesh/core/src/heartbeat.c.obj
 .debug_frame   0x0000000000002d78      0x114 CMakeFiles/enocean_switch_nrf52840_xxAA_s140_6.0.0.dir/__/__/mesh/core/src/net_beacon.c.obj
 .debug_frame   0x0000000000002e8c      0x138 CMakeFiles/enocean_switch_nrf52840_xxAA_s140_6.0.0.dir/__/__/mesh/core/src/core_tx_adv.c.obj
 .debug_frame   0x0000000000002fc4       0x94 CMakeFiles/enocean_switch_nrf52840_xxAA_s140_6.0.0.dir/__/__/mesh/bearer/src/ad_listener.c.obj
 .debug_frame   0x0000000000003058       0xc0 CMakeFiles/enocean_switch_nrf52840_xxAA_s140_6.0.0.dir/__/__/mesh/bearer/src/ad_type_filter.c.obj
 .debug_frame   0x0000000000003118      0x278 CMakeFiles/enocean_switch_nrf52840_xxAA_s140_6.0.0.dir/__/__/mesh/bearer/src/advertiser.c.obj
 .debug_frame   0x0000000000003390      0x170 CMakeFiles/enocean_switch_nrf52840_xxAA_s140_6.0.0.dir/__/__/mesh/bearer/src/bearer_handler.c.obj
 .debug_frame   0x0000000000003500       0x74 CMakeFiles/enocean_switch_nrf52840_xxAA_s140_6.0.0.dir/__/__/mesh/bearer/src/broadcast.c.obj
 .debug_frame   0x0000000000003574       0x88 CMakeFiles/enocean_switch_nrf52840_xxAA_s140_6.0.0.dir/__/__/mesh/bearer/src/filter_engine.c.obj
 .debug_frame   0x00000000000035fc       0x98 CMakeFiles/enocean_switch_nrf52840_xxAA_s140_6.0.0.dir/__/__/mesh/bearer/src/radio_config.c.obj
 .debug_frame   0x0000000000003694      0x244 CMakeFiles/enocean_switch_nrf52840_xxAA_s140_6.0.0.dir/__/__/mesh/bearer/src/scanner.c.obj
 .debug_frame   0x00000000000038d8      0x130 CMakeFiles/enocean_switch_nrf52840_xxAA_s140_6.0.0.dir/__/__/models/simple_on_off/src/simple_on_off_client.c.obj
 .debug_frame   0x0000000000003a08       0x40 CMakeFiles/enocean_switch_nrf52840_xxAA_s140_6.0.0.dir/__/__/models/config/src/composition_data.c.obj
 .debug_frame   0x0000000000003a48      0x834 CMakeFiles/enocean_switch_nrf52840_xxAA_s140_6.0.0.dir/__/__/models/config/src/config_server.c.obj
 .debug_frame   0x000000000000427c       0x30 CMakeFiles/enocean_switch_nrf52840_xxAA_s140_6.0.0.dir/__/__/models/config/src/packed_index_list.c.obj
 .debug_frame   0x00000000000042ac      0x27c CMakeFiles/enocean_switch_nrf52840_xxAA_s140_6.0.0.dir/__/__/models/health/src/health_server.c.obj
 .debug_frame   0x0000000000004528       0xf4 CMakeFiles/enocean_switch_nrf52840_xxAA_s140_6.0.0.dir/__/__/mesh/access/src/access_publish.c.obj
 .debug_frame   0x000000000000461c      0x688 CMakeFiles/enocean_switch_nrf52840_xxAA_s140_6.0.0.dir/__/__/mesh/access/src/access.c.obj
 .debug_frame   0x0000000000004ca4      0x14c CMakeFiles/enocean_switch_nrf52840_xxAA_s140_6.0.0.dir/__/__/mesh/access/src/access_reliable.c.obj
 .debug_frame   0x0000000000004df0      0xbd4 CMakeFiles/enocean_switch_nrf52840_xxAA_s140_6.0.0.dir/__/__/mesh/access/src/device_state_manager.c.obj
 .debug_frame   0x00000000000059c4      0x198 CMakeFiles/enocean_switch_nrf52840_xxAA_s140_6.0.0.dir/__/__/mesh/prov/src/prov_provisionee.c.obj
 .debug_frame   0x0000000000005b5c      0x1c8 CMakeFiles/enocean_switch_nrf52840_xxAA_s140_6.0.0.dir/__/__/mesh/prov/src/nrf_mesh_prov.c.obj
 .debug_frame   0x0000000000005d24      0x1a0 CMakeFiles/enocean_switch_nrf52840_xxAA_s140_6.0.0.dir/__/__/mesh/prov/src/provisioning.c.obj
 .debug_frame   0x0000000000005ec4       0x88 CMakeFiles/enocean_switch_nrf52840_xxAA_s140_6.0.0.dir/__/__/mesh/prov/src/prov_beacon.c.obj
 .debug_frame   0x0000000000005f4c      0x11c CMakeFiles/enocean_switch_nrf52840_xxAA_s140_6.0.0.dir/__/__/mesh/prov/src/prov_utils.c.obj
 .debug_frame   0x0000000000006068      0x2d8 CMakeFiles/enocean_switch_nrf52840_xxAA_s140_6.0.0.dir/__/__/mesh/prov/src/prov_bearer_adv.c.obj
 .debug_frame   0x0000000000006340       0x40 CMakeFiles/enocean_switch_nrf52840_xxAA_s140_6.0.0.dir/home/mazzer/work/nordic/sdk/nRF5_SDK_15.0.0/modules/nrfx/mdk/system_nrf52840.c.obj
 .debug_frame   0x0000000000006380       0x54 CMakeFiles/enocean_switch_nrf52840_xxAA_s140_6.0.0.dir/home/mazzer/work/nordic/sdk/nRF5_SDK_15.0.0/components/libraries/util/app_error.c.obj
 .debug_frame   0x00000000000063d4       0x20 CMakeFiles/enocean_switch_nrf52840_xxAA_s140_6.0.0.dir/home/mazzer/work/nordic/sdk/nRF5_SDK_15.0.0/components/libraries/util/app_error_handler_gcc.c.obj
 .debug_frame   0x00000000000063f4      0x2e4 ../../external/rtt/librtt_nrf52840_xxAA.a(SEGGER_RTT.c.obj)
 .debug_frame   0x00000000000066d8       0xa0 ../../external/rtt/librtt_nrf52840_xxAA.a(SEGGER_RTT_printf.c.obj)
 .debug_frame   0x0000000000006778      0x4c8 ../../external/micro-ecc/libuECC_nrf52840_xxAA.a(uECC.c.obj)
 .debug_frame   0x0000000000006c40       0x2c /usr/bin/../lib/gcc/arm-none-eabi/7.2.1/thumb/v7e-m/fpv4-sp/hard/libgcc.a(_aeabi_uldivmod.o)
 .debug_frame   0x0000000000006c6c       0x34 /usr/bin/../lib/gcc/arm-none-eabi/7.2.1/thumb/v7e-m/fpv4-sp/hard/libgcc.a(_udivmoddi4.o)
 .debug_frame   0x0000000000006ca0       0x28 /usr/bin/../lib/gcc/arm-none-eabi/7.2.1/../../../../arm-none-eabi/lib/thumb/v7e-m/fpv4-sp/hard/libg_nano.a(lib_a-exit.o)
 .debug_frame   0x0000000000006cc8       0x2c /usr/bin/../lib/gcc/arm-none-eabi/7.2.1/../../../../arm-none-eabi/lib/thumb/v7e-m/fpv4-sp/hard/libg_nano.a(lib_a-init.o)
 .debug_frame   0x0000000000006cf4       0x30 /usr/bin/../lib/gcc/arm-none-eabi/7.2.1/../../../../arm-none-eabi/lib/thumb/v7e-m/fpv4-sp/hard/libg_nano.a(lib_a-malloc.o)
 .debug_frame   0x0000000000006d24       0x2c /usr/bin/../lib/gcc/arm-none-eabi/7.2.1/../../../../arm-none-eabi/lib/thumb/v7e-m/fpv4-sp/hard/libg_nano.a(lib_a-memcmp.o)
 .debug_frame   0x0000000000006d50       0x28 /usr/bin/../lib/gcc/arm-none-eabi/7.2.1/../../../../arm-none-eabi/lib/thumb/v7e-m/fpv4-sp/hard/libg_nano.a(lib_a-memcpy-stub.o)
 .debug_frame   0x0000000000006d78       0x20 /usr/bin/../lib/gcc/arm-none-eabi/7.2.1/../../../../arm-none-eabi/lib/thumb/v7e-m/fpv4-sp/hard/libg_nano.a(lib_a-memset.o)
 .debug_frame   0x0000000000006d98       0x38 /usr/bin/../lib/gcc/arm-none-eabi/7.2.1/../../../../arm-none-eabi/lib/thumb/v7e-m/fpv4-sp/hard/libg_nano.a(lib_a-nano-freer.o)
 .debug_frame   0x0000000000006dd0       0x2c /usr/bin/../lib/gcc/arm-none-eabi/7.2.1/../../../../arm-none-eabi/lib/thumb/v7e-m/fpv4-sp/hard/libg_nano.a(lib_a-nano-mallocr.o)
 .debug_frame   0x0000000000006dfc       0x2c /usr/bin/../lib/gcc/arm-none-eabi/7.2.1/../../../../arm-none-eabi/lib/thumb/v7e-m/fpv4-sp/hard/libg_nano.a(lib_a-sbrkr.o)
 .debug_frame   0x0000000000006e28       0x20 /usr/bin/../lib/gcc/arm-none-eabi/7.2.1/../../../../arm-none-eabi/lib/thumb/v7e-m/fpv4-sp/hard/libg_nano.a(lib_a-strcpy.o)
 .debug_frame   0x0000000000006e48       0x38 /usr/bin/../lib/gcc/arm-none-eabi/7.2.1/../../../../arm-none-eabi/lib/thumb/v7e-m/fpv4-sp/hard/libg_nano.a(lib_a-strrchr.o)
 .debug_frame   0x0000000000006e80       0x30 /usr/bin/../lib/gcc/arm-none-eabi/7.2.1/../../../../arm-none-eabi/lib/thumb/v7e-m/fpv4-sp/hard/libg_nano.a(lib_a-mlock.o)
 .debug_frame   0x0000000000006eb0       0x5c /usr/bin/../lib/gcc/arm-none-eabi/7.2.1/../../../../arm-none-eabi/lib/thumb/v7e-m/fpv4-sp/hard/libg_nano.a(lib_a-reent.o)
 .debug_frame   0x0000000000006f0c       0x20 /usr/bin/../lib/gcc/arm-none-eabi/7.2.1/../../../../arm-none-eabi/lib/thumb/v7e-m/fpv4-sp/hard/libg_nano.a(lib_a-strchr.o)
 .debug_frame   0x0000000000006f2c       0x20 /usr/bin/../lib/gcc/arm-none-eabi/7.2.1/../../../../arm-none-eabi/lib/thumb/v7e-m/fpv4-sp/hard/libnosys.a(sbrk.o)
 .debug_frame   0x0000000000006f4c       0x20 /usr/bin/../lib/gcc/arm-none-eabi/7.2.1/../../../../arm-none-eabi/lib/thumb/v7e-m/fpv4-sp/hard/libnosys.a(_exit.o)
